ARM GAS  /var/folders/m4/4md61f0s1_g0rzfghffqnxvr0000gn/T//ccMOwMNP.s 			page 1


   1              		.syntax unified
   2              		.cpu cortex-m4
   3              		.eabi_attribute 27, 1
   4              		.eabi_attribute 28, 1
   5              		.fpu fpv4-sp-d16
   6              		.eabi_attribute 20, 1
   7              		.eabi_attribute 21, 1
   8              		.eabi_attribute 23, 3
   9              		.eabi_attribute 24, 1
  10              		.eabi_attribute 25, 1
  11              		.eabi_attribute 26, 1
  12              		.eabi_attribute 30, 2
  13              		.eabi_attribute 34, 1
  14              		.eabi_attribute 18, 4
  15              		.thumb
  16              		.syntax unified
  17              		.file	"adc.c"
  18              		.text
  19              	.Ltext0:
  20              		.cfi_sections	.debug_frame
  21              		.section	.text.adcInit,"ax",%progbits
  22              		.align	2
  23              		.p2align 4,,15
  24              		.global	adcInit
  25              		.thumb
  26              		.thumb_func
  27              		.type	adcInit, %function
  28              	adcInit:
  29              	.LFB268:
  30              		.file 1 "ChibiOS_16.1.4/os/hal/src/adc.c"
  31              		.loc 1 56 0
  32              		.cfi_startproc
  33              		@ args = 0, pretend = 0, frame = 0
  34              		@ frame_needed = 0, uses_anonymous_args = 0
  35              		@ link register save eliminated.
  36              		.loc 1 58 0
  37 0000 FFF7FEBF 		b	adc_lld_init
  38              	.LVL0:
  39              		.cfi_endproc
  40              	.LFE268:
  41              		.size	adcInit, .-adcInit
  42              		.section	.text.adcObjectInit,"ax",%progbits
  43              		.align	2
  44              		.p2align 4,,15
  45              		.global	adcObjectInit
  46              		.thumb
  47              		.thumb_func
  48              		.type	adcObjectInit, %function
  49              	adcObjectInit:
  50              	.LFB269:
  51              		.loc 1 68 0
  52              		.cfi_startproc
  53              		@ args = 0, pretend = 0, frame = 0
  54              		@ frame_needed = 0, uses_anonymous_args = 0
  55              		@ link register save eliminated.
  56              	.LVL1:
  57              		.loc 1 71 0
ARM GAS  /var/folders/m4/4md61f0s1_g0rzfghffqnxvr0000gn/T//ccMOwMNP.s 			page 2


  58 0000 0023     		movs	r3, #0
  59              		.loc 1 70 0
  60 0002 0122     		movs	r2, #1
  61 0004 0270     		strb	r2, [r0]
  62              		.loc 1 71 0
  63 0006 4360     		str	r3, [r0, #4]
  64              		.loc 1 72 0
  65 0008 8360     		str	r3, [r0, #8]
  66              		.loc 1 73 0
  67 000a C360     		str	r3, [r0, #12]
  68              		.loc 1 74 0
  69 000c 0361     		str	r3, [r0, #16]
  70              		.loc 1 76 0
  71 000e 4361     		str	r3, [r0, #20]
  72              	.LVL2:
  73              	.LBB105:
  74              	.LBB106:
  75              		.file 2 "ChibiOS_16.1.4/os/hal/osal/rt/osal.h"
  76              		.loc 2 887 0
  77 0010 1830     		adds	r0, r0, #24
  78              	.LVL3:
  79 0012 FFF7FEBF 		b	chMtxObjectInit
  80              	.LVL4:
  81              	.LBE106:
  82              	.LBE105:
  83              		.cfi_endproc
  84              	.LFE269:
  85              		.size	adcObjectInit, .-adcObjectInit
  86 0016 00BF     		.section	.text.adcStart,"ax",%progbits
  87              		.align	2
  88              		.p2align 4,,15
  89              		.global	adcStart
  90              		.thumb
  91              		.thumb_func
  92              		.type	adcStart, %function
  93              	adcStart:
  94              	.LFB270:
  95              		.loc 1 95 0
  96              		.cfi_startproc
  97              		@ args = 0, pretend = 0, frame = 0
  98              		@ frame_needed = 0, uses_anonymous_args = 0
  99              	.LVL5:
 100 0000 10B5     		push	{r4, lr}
 101              		.cfi_def_cfa_offset 8
 102              		.cfi_offset 4, -8
 103              		.cfi_offset 14, -4
 104              	.LBB107:
 105              	.LBB108:
 106              	.LBB109:
 107              	.LBB110:
 108              	.LBB111:
 109              		.file 3 "ChibiOS_16.1.4/os/ext/CMSIS/include/core_cmFunc.h"
 110              		.loc 3 548 0
 111 0002 2023     		movs	r3, #32
 112              	.LBE111:
 113              	.LBE110:
 114              	.LBE109:
ARM GAS  /var/folders/m4/4md61f0s1_g0rzfghffqnxvr0000gn/T//ccMOwMNP.s 			page 3


 115              	.LBE108:
 116              	.LBE107:
 117              		.loc 1 95 0
 118 0004 0446     		mov	r4, r0
 119              	.LBB116:
 120              	.LBB115:
 121              	.LBB114:
 122              	.LBB113:
 123              	.LBB112:
 124              		.loc 3 548 0
 125              		.syntax unified
 126              	@ 548 "ChibiOS_16.1.4/os/ext/CMSIS/include/core_cmFunc.h" 1
 127 0006 83F31188 		MSR basepri, r3
 128              	@ 0 "" 2
 129              	.LVL6:
 130              		.thumb
 131              		.syntax unified
 132              	.LBE112:
 133              	.LBE113:
 134              	.LBE114:
 135              	.LBE115:
 136              	.LBE116:
 137              		.loc 1 102 0
 138 000a 4160     		str	r1, [r0, #4]
 139              		.loc 1 103 0
 140 000c FFF7FEFF 		bl	adc_lld_start
 141              	.LVL7:
 142              		.loc 1 104 0
 143 0010 0223     		movs	r3, #2
 144 0012 2370     		strb	r3, [r4]
 145              	.LVL8:
 146              	.LBB117:
 147              	.LBB118:
 148              	.LBB119:
 149              	.LBB120:
 150              	.LBB121:
 151              	.LBB122:
 152              		.loc 3 548 0
 153 0014 0023     		movs	r3, #0
 154              		.syntax unified
 155              	@ 548 "ChibiOS_16.1.4/os/ext/CMSIS/include/core_cmFunc.h" 1
 156 0016 83F31188 		MSR basepri, r3
 157              	@ 0 "" 2
 158              	.LVL9:
 159              		.thumb
 160              		.syntax unified
 161 001a 10BD     		pop	{r4, pc}
 162              	.LBE122:
 163              	.LBE121:
 164              	.LBE120:
 165              	.LBE119:
 166              	.LBE118:
 167              	.LBE117:
 168              		.cfi_endproc
 169              	.LFE270:
 170              		.size	adcStart, .-adcStart
 171              		.section	.text.adcStop,"ax",%progbits
ARM GAS  /var/folders/m4/4md61f0s1_g0rzfghffqnxvr0000gn/T//ccMOwMNP.s 			page 4


 172              		.align	2
 173              		.p2align 4,,15
 174              		.global	adcStop
 175              		.thumb
 176              		.thumb_func
 177              		.type	adcStop, %function
 178              	adcStop:
 179              	.LFB271:
 180              		.loc 1 115 0
 181              		.cfi_startproc
 182              		@ args = 0, pretend = 0, frame = 0
 183              		@ frame_needed = 0, uses_anonymous_args = 0
 184              	.LVL10:
 185 0000 10B5     		push	{r4, lr}
 186              		.cfi_def_cfa_offset 8
 187              		.cfi_offset 4, -8
 188              		.cfi_offset 14, -4
 189              	.LBB123:
 190              	.LBB124:
 191              	.LBB125:
 192              	.LBB126:
 193              	.LBB127:
 194              		.loc 3 548 0
 195 0002 2023     		movs	r3, #32
 196              	.LBE127:
 197              	.LBE126:
 198              	.LBE125:
 199              	.LBE124:
 200              	.LBE123:
 201              		.loc 1 115 0
 202 0004 0446     		mov	r4, r0
 203              	.LBB132:
 204              	.LBB131:
 205              	.LBB130:
 206              	.LBB129:
 207              	.LBB128:
 208              		.loc 3 548 0
 209              		.syntax unified
 210              	@ 548 "ChibiOS_16.1.4/os/ext/CMSIS/include/core_cmFunc.h" 1
 211 0006 83F31188 		MSR basepri, r3
 212              	@ 0 "" 2
 213              	.LVL11:
 214              		.thumb
 215              		.syntax unified
 216              	.LBE128:
 217              	.LBE129:
 218              	.LBE130:
 219              	.LBE131:
 220              	.LBE132:
 221              		.loc 1 122 0
 222 000a FFF7FEFF 		bl	adc_lld_stop
 223              	.LVL12:
 224              		.loc 1 123 0
 225 000e 0123     		movs	r3, #1
 226 0010 2370     		strb	r3, [r4]
 227              	.LVL13:
 228              	.LBB133:
ARM GAS  /var/folders/m4/4md61f0s1_g0rzfghffqnxvr0000gn/T//ccMOwMNP.s 			page 5


 229              	.LBB134:
 230              	.LBB135:
 231              	.LBB136:
 232              	.LBB137:
 233              	.LBB138:
 234              		.loc 3 548 0
 235 0012 0023     		movs	r3, #0
 236              		.syntax unified
 237              	@ 548 "ChibiOS_16.1.4/os/ext/CMSIS/include/core_cmFunc.h" 1
 238 0014 83F31188 		MSR basepri, r3
 239              	@ 0 "" 2
 240              	.LVL14:
 241              		.thumb
 242              		.syntax unified
 243 0018 10BD     		pop	{r4, pc}
 244              	.LBE138:
 245              	.LBE137:
 246              	.LBE136:
 247              	.LBE135:
 248              	.LBE134:
 249              	.LBE133:
 250              		.cfi_endproc
 251              	.LFE271:
 252              		.size	adcStop, .-adcStop
 253 001a 00BF     		.section	.text.adcStartConversion,"ax",%progbits
 254              		.align	2
 255              		.p2align 4,,15
 256              		.global	adcStartConversion
 257              		.thumb
 258              		.thumb_func
 259              		.type	adcStartConversion, %function
 260              	adcStartConversion:
 261              	.LFB272:
 262              		.loc 1 146 0
 263              		.cfi_startproc
 264              		@ args = 0, pretend = 0, frame = 0
 265              		@ frame_needed = 0, uses_anonymous_args = 0
 266              	.LVL15:
 267 0000 38B5     		push	{r3, r4, r5, lr}
 268              		.cfi_def_cfa_offset 16
 269              		.cfi_offset 3, -16
 270              		.cfi_offset 4, -12
 271              		.cfi_offset 5, -8
 272              		.cfi_offset 14, -4
 273              	.LBB139:
 274              	.LBB140:
 275              	.LBB141:
 276              	.LBB142:
 277              	.LBB143:
 278              		.loc 3 548 0
 279 0002 2025     		movs	r5, #32
 280              		.syntax unified
 281              	@ 548 "ChibiOS_16.1.4/os/ext/CMSIS/include/core_cmFunc.h" 1
 282 0004 85F31188 		MSR basepri, r5
 283              	@ 0 "" 2
 284              	.LVL16:
 285              		.thumb
ARM GAS  /var/folders/m4/4md61f0s1_g0rzfghffqnxvr0000gn/T//ccMOwMNP.s 			page 6


 286              		.syntax unified
 287              	.LBE143:
 288              	.LBE142:
 289              	.LBE141:
 290              	.LBE140:
 291              	.LBE139:
 292              	.LBB144:
 293              	.LBB145:
 294              		.loc 1 187 0
 295 0008 0325     		movs	r5, #3
 296              		.loc 1 185 0
 297 000a C360     		str	r3, [r0, #12]
 298              		.loc 1 184 0
 299 000c 8260     		str	r2, [r0, #8]
 300              		.loc 1 186 0
 301 000e 0161     		str	r1, [r0, #16]
 302              		.loc 1 187 0
 303 0010 0570     		strb	r5, [r0]
 304              		.loc 1 188 0
 305 0012 FFF7FEFF 		bl	adc_lld_start_conversion
 306              	.LVL17:
 307              	.LBE145:
 308              	.LBE144:
 309              	.LBB146:
 310              	.LBB147:
 311              	.LBB148:
 312              	.LBB149:
 313              	.LBB150:
 314              	.LBB151:
 315              		.loc 3 548 0
 316 0016 0023     		movs	r3, #0
 317              		.syntax unified
 318              	@ 548 "ChibiOS_16.1.4/os/ext/CMSIS/include/core_cmFunc.h" 1
 319 0018 83F31188 		MSR basepri, r3
 320              	@ 0 "" 2
 321              	.LVL18:
 322              		.thumb
 323              		.syntax unified
 324 001c 38BD     		pop	{r3, r4, r5, pc}
 325              	.LBE151:
 326              	.LBE150:
 327              	.LBE149:
 328              	.LBE148:
 329              	.LBE147:
 330              	.LBE146:
 331              		.cfi_endproc
 332              	.LFE272:
 333              		.size	adcStartConversion, .-adcStartConversion
 334 001e 00BF     		.section	.text.adcStartConversionI,"ax",%progbits
 335              		.align	2
 336              		.p2align 4,,15
 337              		.global	adcStartConversionI
 338              		.thumb
 339              		.thumb_func
 340              		.type	adcStartConversionI, %function
 341              	adcStartConversionI:
 342              	.LFB273:
ARM GAS  /var/folders/m4/4md61f0s1_g0rzfghffqnxvr0000gn/T//ccMOwMNP.s 			page 7


 343              		.loc 1 174 0
 344              		.cfi_startproc
 345              		@ args = 0, pretend = 0, frame = 0
 346              		@ frame_needed = 0, uses_anonymous_args = 0
 347              		@ link register save eliminated.
 348              	.LVL19:
 349 0000 30B4     		push	{r4, r5}
 350              		.cfi_def_cfa_offset 8
 351              		.cfi_offset 4, -8
 352              		.cfi_offset 5, -4
 353              		.loc 1 187 0
 354 0002 0325     		movs	r5, #3
 355 0004 0570     		strb	r5, [r0]
 356              		.loc 1 184 0
 357 0006 8260     		str	r2, [r0, #8]
 358              		.loc 1 185 0
 359 0008 C360     		str	r3, [r0, #12]
 360              		.loc 1 186 0
 361 000a 0161     		str	r1, [r0, #16]
 362              		.loc 1 189 0
 363 000c 30BC     		pop	{r4, r5}
 364              		.cfi_restore 5
 365              		.cfi_restore 4
 366              		.cfi_def_cfa_offset 0
 367              		.loc 1 188 0
 368 000e FFF7FEBF 		b	adc_lld_start_conversion
 369              	.LVL20:
 370              		.cfi_endproc
 371              	.LFE273:
 372              		.size	adcStartConversionI, .-adcStartConversionI
 373 0012 00BF     		.section	.text.adcStopConversion,"ax",%progbits
 374              		.align	2
 375              		.p2align 4,,15
 376              		.global	adcStopConversion
 377              		.thumb
 378              		.thumb_func
 379              		.type	adcStopConversion, %function
 380              	adcStopConversion:
 381              	.LFB274:
 382              		.loc 1 201 0
 383              		.cfi_startproc
 384              		@ args = 0, pretend = 0, frame = 0
 385              		@ frame_needed = 0, uses_anonymous_args = 0
 386              	.LVL21:
 387              	.LBB152:
 388              	.LBB153:
 389              	.LBB154:
 390              	.LBB155:
 391              	.LBB156:
 392              		.loc 3 548 0
 393 0000 2022     		movs	r2, #32
 394              		.syntax unified
 395              	@ 548 "ChibiOS_16.1.4/os/ext/CMSIS/include/core_cmFunc.h" 1
 396 0002 82F31188 		MSR basepri, r2
 397              	@ 0 "" 2
 398              	.LVL22:
 399              		.thumb
ARM GAS  /var/folders/m4/4md61f0s1_g0rzfghffqnxvr0000gn/T//ccMOwMNP.s 			page 8


 400              		.syntax unified
 401              	.LBE156:
 402              	.LBE155:
 403              	.LBE154:
 404              	.LBE153:
 405              	.LBE152:
 406              		.loc 1 208 0
 407 0006 0278     		ldrb	r2, [r0]	@ zero_extendqisi2
 408 0008 022A     		cmp	r2, #2
 409 000a 11D0     		beq	.L17
 410              		.loc 1 201 0
 411 000c 10B5     		push	{r4, lr}
 412              		.cfi_def_cfa_offset 8
 413              		.cfi_offset 4, -8
 414              		.cfi_offset 14, -4
 415 000e 0446     		mov	r4, r0
 416              		.loc 1 209 0
 417 0010 FFF7FEFF 		bl	adc_lld_stop_conversion
 418              	.LVL23:
 419              		.loc 1 211 0
 420 0014 2046     		mov	r0, r4
 421              		.loc 1 210 0
 422 0016 0022     		movs	r2, #0
 423              		.loc 1 211 0
 424 0018 0223     		movs	r3, #2
 425              		.loc 1 210 0
 426 001a 2261     		str	r2, [r4, #16]
 427              	.LBB157:
 428              	.LBB158:
 429              		.loc 2 743 0
 430 001c 6FF00101 		mvn	r1, #1
 431              	.LBE158:
 432              	.LBE157:
 433              		.loc 1 211 0
 434 0020 00F8143B 		strb	r3, [r0], #20
 435              	.LVL24:
 436              	.LBB160:
 437              	.LBB159:
 438              		.loc 2 743 0
 439 0024 FFF7FEFF 		bl	chThdResumeS
 440              	.LVL25:
 441              	.LBE159:
 442              	.LBE160:
 443              	.LBB161:
 444              	.LBB162:
 445              	.LBB163:
 446              	.LBB164:
 447              	.LBB165:
 448              	.LBB166:
 449              		.loc 3 548 0
 450 0028 0023     		movs	r3, #0
 451              		.syntax unified
 452              	@ 548 "ChibiOS_16.1.4/os/ext/CMSIS/include/core_cmFunc.h" 1
 453 002a 83F31188 		MSR basepri, r3
 454              	@ 0 "" 2
 455              	.LVL26:
 456              		.thumb
ARM GAS  /var/folders/m4/4md61f0s1_g0rzfghffqnxvr0000gn/T//ccMOwMNP.s 			page 9


 457              		.syntax unified
 458 002e 10BD     		pop	{r4, pc}
 459              	.LVL27:
 460              	.L17:
 461              		.cfi_def_cfa_offset 0
 462              		.cfi_restore 4
 463              		.cfi_restore 14
 464 0030 0023     		movs	r3, #0
 465              		.syntax unified
 466              	@ 548 "ChibiOS_16.1.4/os/ext/CMSIS/include/core_cmFunc.h" 1
 467 0032 83F31188 		MSR basepri, r3
 468              	@ 0 "" 2
 469              	.LVL28:
 470              		.thumb
 471              		.syntax unified
 472 0036 7047     		bx	lr
 473              	.LBE166:
 474              	.LBE165:
 475              	.LBE164:
 476              	.LBE163:
 477              	.LBE162:
 478              	.LBE161:
 479              		.cfi_endproc
 480              	.LFE274:
 481              		.size	adcStopConversion, .-adcStopConversion
 482              		.section	.text.adcStopConversionI,"ax",%progbits
 483              		.align	2
 484              		.p2align 4,,15
 485              		.global	adcStopConversionI
 486              		.thumb
 487              		.thumb_func
 488              		.type	adcStopConversionI, %function
 489              	adcStopConversionI:
 490              	.LFB275:
 491              		.loc 1 227 0
 492              		.cfi_startproc
 493              		@ args = 0, pretend = 0, frame = 0
 494              		@ frame_needed = 0, uses_anonymous_args = 0
 495              	.LVL29:
 496              		.loc 1 236 0
 497 0000 0278     		ldrb	r2, [r0]	@ zero_extendqisi2
 498 0002 022A     		cmp	r2, #2
 499 0004 0FD0     		beq	.L22
 500              		.loc 1 227 0
 501 0006 10B5     		push	{r4, lr}
 502              		.cfi_def_cfa_offset 8
 503              		.cfi_offset 4, -8
 504              		.cfi_offset 14, -4
 505 0008 0446     		mov	r4, r0
 506              		.loc 1 237 0
 507 000a FFF7FEFF 		bl	adc_lld_stop_conversion
 508              	.LVL30:
 509              		.loc 1 239 0
 510 000e 2046     		mov	r0, r4
 511              		.loc 1 238 0
 512 0010 0022     		movs	r2, #0
 513              		.loc 1 239 0
ARM GAS  /var/folders/m4/4md61f0s1_g0rzfghffqnxvr0000gn/T//ccMOwMNP.s 			page 10


 514 0012 0223     		movs	r3, #2
 515              		.loc 1 238 0
 516 0014 2261     		str	r2, [r4, #16]
 517              	.LBB167:
 518              	.LBB168:
 519              		.loc 2 728 0
 520 0016 6FF00101 		mvn	r1, #1
 521              	.LBE168:
 522              	.LBE167:
 523              		.loc 1 239 0
 524 001a 00F8143B 		strb	r3, [r0], #20
 525              	.LVL31:
 526              		.loc 1 242 0
 527 001e BDE81040 		pop	{r4, lr}
 528              		.cfi_restore 14
 529              		.cfi_restore 4
 530              		.cfi_def_cfa_offset 0
 531              	.LVL32:
 532              	.LBB170:
 533              	.LBB169:
 534              		.loc 2 728 0
 535 0022 FFF7FEBF 		b	chThdResumeI
 536              	.LVL33:
 537              	.L22:
 538 0026 7047     		bx	lr
 539              	.LBE169:
 540              	.LBE170:
 541              		.cfi_endproc
 542              	.LFE275:
 543              		.size	adcStopConversionI, .-adcStopConversionI
 544              		.section	.text.adcConvert,"ax",%progbits
 545              		.align	2
 546              		.p2align 4,,15
 547              		.global	adcConvert
 548              		.thumb
 549              		.thumb_func
 550              		.type	adcConvert, %function
 551              	adcConvert:
 552              	.LFB276:
 553              		.loc 1 271 0
 554              		.cfi_startproc
 555              		@ args = 0, pretend = 0, frame = 0
 556              		@ frame_needed = 0, uses_anonymous_args = 0
 557              	.LVL34:
 558 0000 70B5     		push	{r4, r5, r6, lr}
 559              		.cfi_def_cfa_offset 16
 560              		.cfi_offset 4, -16
 561              		.cfi_offset 5, -12
 562              		.cfi_offset 6, -8
 563              		.cfi_offset 14, -4
 564              	.LBB171:
 565              	.LBB172:
 566              	.LBB173:
 567              	.LBB174:
 568              	.LBB175:
 569              		.loc 3 548 0
 570 0002 2025     		movs	r5, #32
ARM GAS  /var/folders/m4/4md61f0s1_g0rzfghffqnxvr0000gn/T//ccMOwMNP.s 			page 11


 571              		.syntax unified
 572              	@ 548 "ChibiOS_16.1.4/os/ext/CMSIS/include/core_cmFunc.h" 1
 573 0004 85F31188 		MSR basepri, r5
 574              	@ 0 "" 2
 575              	.LVL35:
 576              		.thumb
 577              		.syntax unified
 578              	.LBE175:
 579              	.LBE174:
 580              	.LBE173:
 581              	.LBE172:
 582              	.LBE171:
 583              	.LBB176:
 584              	.LBB177:
 585              		.loc 1 187 0
 586 0008 0546     		mov	r5, r0
 587 000a 0326     		movs	r6, #3
 588              		.loc 1 184 0
 589 000c 8260     		str	r2, [r0, #8]
 590              		.loc 1 185 0
 591 000e C360     		str	r3, [r0, #12]
 592              		.loc 1 186 0
 593 0010 0161     		str	r1, [r0, #16]
 594              		.loc 1 187 0
 595 0012 05F8146B 		strb	r6, [r5], #20
 596              		.loc 1 188 0
 597 0016 FFF7FEFF 		bl	adc_lld_start_conversion
 598              	.LVL36:
 599              	.LBE177:
 600              	.LBE176:
 601              	.LBB178:
 602              	.LBB179:
 603              		.loc 2 688 0
 604 001a 2846     		mov	r0, r5
 605 001c FFF7FEFF 		bl	chThdSuspendS
 606              	.LVL37:
 607              	.LBE179:
 608              	.LBE178:
 609              	.LBB180:
 610              	.LBB181:
 611              	.LBB182:
 612              	.LBB183:
 613              	.LBB184:
 614              	.LBB185:
 615              		.loc 3 548 0
 616 0020 0023     		movs	r3, #0
 617              		.syntax unified
 618              	@ 548 "ChibiOS_16.1.4/os/ext/CMSIS/include/core_cmFunc.h" 1
 619 0022 83F31188 		MSR basepri, r3
 620              	@ 0 "" 2
 621              	.LVL38:
 622              		.thumb
 623              		.syntax unified
 624              	.LBE185:
 625              	.LBE184:
 626              	.LBE183:
 627              	.LBE182:
ARM GAS  /var/folders/m4/4md61f0s1_g0rzfghffqnxvr0000gn/T//ccMOwMNP.s 			page 12


 628              	.LBE181:
 629              	.LBE180:
 630              		.loc 1 280 0
 631 0026 70BD     		pop	{r4, r5, r6, pc}
 632              		.cfi_endproc
 633              	.LFE276:
 634              		.size	adcConvert, .-adcConvert
 635              		.section	.text.adcAcquireBus,"ax",%progbits
 636              		.align	2
 637              		.p2align 4,,15
 638              		.global	adcAcquireBus
 639              		.thumb
 640              		.thumb_func
 641              		.type	adcAcquireBus, %function
 642              	adcAcquireBus:
 643              	.LFB277:
 644              		.loc 1 295 0
 645              		.cfi_startproc
 646              		@ args = 0, pretend = 0, frame = 0
 647              		@ frame_needed = 0, uses_anonymous_args = 0
 648              		@ link register save eliminated.
 649              	.LVL39:
 650              	.LBB186:
 651              	.LBB187:
 652              		.loc 2 907 0
 653 0000 1830     		adds	r0, r0, #24
 654              	.LVL40:
 655 0002 FFF7FEBF 		b	chMtxLock
 656              	.LVL41:
 657              	.LBE187:
 658              	.LBE186:
 659              		.cfi_endproc
 660              	.LFE277:
 661              		.size	adcAcquireBus, .-adcAcquireBus
 662 0006 00BF     		.section	.text.adcReleaseBus,"ax",%progbits
 663              		.align	2
 664              		.p2align 4,,15
 665              		.global	adcReleaseBus
 666              		.thumb
 667              		.thumb_func
 668              		.type	adcReleaseBus, %function
 669              	adcReleaseBus:
 670              	.LFB278:
 671              		.loc 1 311 0
 672              		.cfi_startproc
 673              		@ args = 0, pretend = 0, frame = 0
 674              		@ frame_needed = 0, uses_anonymous_args = 0
 675              		@ link register save eliminated.
 676              	.LVL42:
 677              	.LBB188:
 678              	.LBB189:
 679              		.loc 2 931 0
 680 0000 1830     		adds	r0, r0, #24
 681              	.LVL43:
 682 0002 FFF7FEBF 		b	chMtxUnlock
 683              	.LVL44:
 684              	.LBE189:
ARM GAS  /var/folders/m4/4md61f0s1_g0rzfghffqnxvr0000gn/T//ccMOwMNP.s 			page 13


 685              	.LBE188:
 686              		.cfi_endproc
 687              	.LFE278:
 688              		.size	adcReleaseBus, .-adcReleaseBus
 689 0006 00BF     		.text
 690              	.Letext0:
 691              		.file 4 "/opt/homebrew-cask/Caskroom/gcc-arm-embedded/5_2-2015q4,20151219/gcc-arm-none-eabi-5_2-20
 692              		.file 5 "/opt/homebrew-cask/Caskroom/gcc-arm-embedded/5_2-2015q4,20151219/gcc-arm-none-eabi-5_2-20
 693              		.file 6 "/opt/homebrew-cask/Caskroom/gcc-arm-embedded/5_2-2015q4,20151219/gcc-arm-none-eabi-5_2-20
 694              		.file 7 "ChibiOS_16.1.4/os/rt/ports/ARMCMx/compilers/GCC/chtypes.h"
 695              		.file 8 "ChibiOS_16.1.4/os/rt/include/chsystypes.h"
 696              		.file 9 "ChibiOS_16.1.4/os/rt/include/chschd.h"
 697              		.file 10 "ChibiOS_16.1.4/os/ext/CMSIS/ST/STM32F4xx/stm32f405xx.h"
 698              		.file 11 "ChibiOS_16.1.4/os/rt/ports/ARMCMx/chcore.h"
 699              		.file 12 "ChibiOS_16.1.4/os/rt/ports/ARMCMx/chcore_v7m.h"
 700              		.file 13 "ChibiOS_16.1.4/os/rt/include/chtm.h"
 701              		.file 14 "ChibiOS_16.1.4/os/rt/include/chsem.h"
 702              		.file 15 "ChibiOS_16.1.4/os/rt/include/chmtx.h"
 703              		.file 16 "ChibiOS_16.1.4/os/hal/ports/STM32/LLD/DMAv2/stm32_dma.h"
 704              		.file 17 "ChibiOS_16.1.4/os/hal/include/adc.h"
 705              		.file 18 "ChibiOS_16.1.4/os/hal/ports/STM32/LLD/ADCv2/adc_lld.h"
 706              		.file 19 "ChibiOS_16.1.4/os/rt/include/chsys.h"
 707              		.file 20 "ChibiOS_16.1.4/os/rt/include/chthreads.h"
 708              		.file 21 "ChibiOS_16.1.4/os/ext/CMSIS/include/core_cm4.h"