ARM GAS  /var/folders/m4/4md61f0s1_g0rzfghffqnxvr0000gn/T//ccqtBXJY.s 			page 1


   1              		.syntax unified
   2              		.cpu cortex-m4
   3              		.eabi_attribute 27, 1
   4              		.eabi_attribute 28, 1
   5              		.fpu fpv4-sp-d16
   6              		.eabi_attribute 20, 1
   7              		.eabi_attribute 21, 1
   8              		.eabi_attribute 23, 3
   9              		.eabi_attribute 24, 1
  10              		.eabi_attribute 25, 1
  11              		.eabi_attribute 26, 1
  12              		.eabi_attribute 30, 2
  13              		.eabi_attribute 34, 1
  14              		.eabi_attribute 18, 4
  15              		.thumb
  16              		.syntax unified
  17              		.file	"chcond.c"
  18              		.text
  19              	.Ltext0:
  20              		.cfi_sections	.debug_frame
  21              		.section	.text.chCondObjectInit,"ax",%progbits
  22              		.align	2
  23              		.p2align 4,,15
  24              		.global	chCondObjectInit
  25              		.thumb
  26              		.thumb_func
  27              		.type	chCondObjectInit, %function
  28              	chCondObjectInit:
  29              	.LFB231:
  30              		.file 1 "ChibiOS_16.1.4/os/rt/src/chcond.c"
  31              		.loc 1 75 0
  32              		.cfi_startproc
  33              		@ args = 0, pretend = 0, frame = 0
  34              		@ frame_needed = 0, uses_anonymous_args = 0
  35              		@ link register save eliminated.
  36              	.LVL0:
  37              	.LBB89:
  38              	.LBB90:
  39              		.file 2 "ChibiOS_16.1.4/os/rt/include/chschd.h"
  40              		.loc 2 604 0
  41 0000 0060     		str	r0, [r0]
  42              		.loc 2 605 0
  43 0002 4060     		str	r0, [r0, #4]
  44              	.LVL1:
  45 0004 7047     		bx	lr
  46              	.LBE90:
  47              	.LBE89:
  48              		.cfi_endproc
  49              	.LFE231:
  50              		.size	chCondObjectInit, .-chCondObjectInit
  51 0006 00BF     		.section	.text.chCondSignal,"ax",%progbits
  52              		.align	2
  53              		.p2align 4,,15
  54              		.global	chCondSignal
  55              		.thumb
  56              		.thumb_func
  57              		.type	chCondSignal, %function
ARM GAS  /var/folders/m4/4md61f0s1_g0rzfghffqnxvr0000gn/T//ccqtBXJY.s 			page 2


  58              	chCondSignal:
  59              	.LFB232:
  60              		.loc 1 89 0
  61              		.cfi_startproc
  62              		@ args = 0, pretend = 0, frame = 0
  63              		@ frame_needed = 0, uses_anonymous_args = 0
  64              	.LVL2:
  65 0000 08B5     		push	{r3, lr}
  66              		.cfi_def_cfa_offset 8
  67              		.cfi_offset 3, -8
  68              		.cfi_offset 14, -4
  69              	.LBB91:
  70              	.LBB92:
  71              	.LBB93:
  72              	.LBB94:
  73              		.file 3 "ChibiOS_16.1.4/os/ext/CMSIS/include/core_cmFunc.h"
  74              		.loc 3 548 0
  75 0002 2023     		movs	r3, #32
  76              		.syntax unified
  77              	@ 548 "ChibiOS_16.1.4/os/ext/CMSIS/include/core_cmFunc.h" 1
  78 0004 83F31188 		MSR basepri, r3
  79              	@ 0 "" 2
  80              	.LVL3:
  81              		.thumb
  82              		.syntax unified
  83              	.LBE94:
  84              	.LBE93:
  85              	.LBE92:
  86              	.LBE91:
  87              	.LBB95:
  88              	.LBB96:
  89              		.loc 2 631 0
  90 0008 0268     		ldr	r2, [r0]
  91              	.LVL4:
  92              	.LBE96:
  93              	.LBE95:
  94              		.loc 1 94 0
  95 000a 9042     		cmp	r0, r2
  96 000c 07D0     		beq	.L3
  97              	.LBB97:
  98              	.LBB98:
  99              		.loc 2 674 0
 100 000e 1168     		ldr	r1, [r2]
 101 0010 0160     		str	r1, [r0]
 102 0012 0346     		mov	r3, r0
 103              	.LVL5:
 104              		.loc 2 675 0
 105 0014 4B60     		str	r3, [r1, #4]
 106              	.LVL6:
 107              	.LBE98:
 108              	.LBE97:
 109              		.loc 1 95 0
 110 0016 1046     		mov	r0, r2
 111              	.LVL7:
 112 0018 0021     		movs	r1, #0
 113 001a FFF7FEFF 		bl	chSchWakeupS
 114              	.LVL8:
ARM GAS  /var/folders/m4/4md61f0s1_g0rzfghffqnxvr0000gn/T//ccqtBXJY.s 			page 3


 115              	.L3:
 116              	.LBB99:
 117              	.LBB100:
 118              	.LBB101:
 119              	.LBB102:
 120              	.LBB103:
 121              		.loc 3 548 0
 122 001e 0023     		movs	r3, #0
 123              		.syntax unified
 124              	@ 548 "ChibiOS_16.1.4/os/ext/CMSIS/include/core_cmFunc.h" 1
 125 0020 83F31188 		MSR basepri, r3
 126              	@ 0 "" 2
 127              	.LVL9:
 128              		.thumb
 129              		.syntax unified
 130 0024 08BD     		pop	{r3, pc}
 131              	.LBE103:
 132              	.LBE102:
 133              	.LBE101:
 134              	.LBE100:
 135              	.LBE99:
 136              		.cfi_endproc
 137              	.LFE232:
 138              		.size	chCondSignal, .-chCondSignal
 139 0026 00BF     		.section	.text.chCondSignalI,"ax",%progbits
 140              		.align	2
 141              		.p2align 4,,15
 142              		.global	chCondSignalI
 143              		.thumb
 144              		.thumb_func
 145              		.type	chCondSignalI, %function
 146              	chCondSignalI:
 147              	.LFB233:
 148              		.loc 1 111 0
 149              		.cfi_startproc
 150              		@ args = 0, pretend = 0, frame = 0
 151              		@ frame_needed = 0, uses_anonymous_args = 0
 152              		@ link register save eliminated.
 153              	.LVL10:
 154              	.LBB104:
 155              	.LBB105:
 156              		.loc 2 631 0
 157 0000 0368     		ldr	r3, [r0]
 158              	.LVL11:
 159              	.LBE105:
 160              	.LBE104:
 161              		.loc 1 116 0
 162 0002 9842     		cmp	r0, r3
 163 0004 07D0     		beq	.L6
 164              	.LVL12:
 165              	.LBB106:
 166              	.LBB107:
 167              	.LBB108:
 168              		.loc 2 674 0
 169 0006 1A68     		ldr	r2, [r3]
 170 0008 0260     		str	r2, [r0]
 171              	.LBE108:
ARM GAS  /var/folders/m4/4md61f0s1_g0rzfghffqnxvr0000gn/T//ccqtBXJY.s 			page 4


 172              	.LBE107:
 173              		.loc 1 118 0
 174 000a 0021     		movs	r1, #0
 175              	.LBB110:
 176              	.LBB109:
 177              		.loc 2 675 0
 178 000c 5060     		str	r0, [r2, #4]
 179              	.LVL13:
 180              	.LBE109:
 181              	.LBE110:
 182              		.loc 1 119 0
 183 000e 1846     		mov	r0, r3
 184              	.LVL14:
 185              		.loc 1 118 0
 186 0010 5962     		str	r1, [r3, #36]
 187              	.LVL15:
 188              		.loc 1 119 0
 189 0012 FFF7FEBF 		b	chSchReadyI
 190              	.LVL16:
 191              	.L6:
 192 0016 7047     		bx	lr
 193              	.LBE106:
 194              		.cfi_endproc
 195              	.LFE233:
 196              		.size	chCondSignalI, .-chCondSignalI
 197              		.section	.text.chCondBroadcast,"ax",%progbits
 198              		.align	2
 199              		.p2align 4,,15
 200              		.global	chCondBroadcast
 201              		.thumb
 202              		.thumb_func
 203              		.type	chCondBroadcast, %function
 204              	chCondBroadcast:
 205              	.LFB234:
 206              		.loc 1 130 0
 207              		.cfi_startproc
 208              		@ args = 0, pretend = 0, frame = 0
 209              		@ frame_needed = 0, uses_anonymous_args = 0
 210              	.LVL17:
 211 0000 38B5     		push	{r3, r4, r5, lr}
 212              		.cfi_def_cfa_offset 16
 213              		.cfi_offset 3, -16
 214              		.cfi_offset 4, -12
 215              		.cfi_offset 5, -8
 216              		.cfi_offset 14, -4
 217              		.loc 1 130 0
 218 0002 0446     		mov	r4, r0
 219              	.LBB111:
 220              	.LBB112:
 221              	.LBB113:
 222              	.LBB114:
 223              		.loc 3 548 0
 224 0004 2023     		movs	r3, #32
 225              		.syntax unified
 226              	@ 548 "ChibiOS_16.1.4/os/ext/CMSIS/include/core_cmFunc.h" 1
 227 0006 83F31188 		MSR basepri, r3
 228              	@ 0 "" 2
ARM GAS  /var/folders/m4/4md61f0s1_g0rzfghffqnxvr0000gn/T//ccqtBXJY.s 			page 5


 229              	.LVL18:
 230              		.thumb
 231              		.syntax unified
 232              	.LBE114:
 233              	.LBE113:
 234              	.LBE112:
 235              	.LBE111:
 236              	.LBB115:
 237              	.LBB116:
 238              	.LBB117:
 239              	.LBB118:
 240              		.loc 2 631 0
 241 000a 0068     		ldr	r0, [r0]
 242              	.LVL19:
 243              	.LBE118:
 244              	.LBE117:
 245              		.loc 1 157 0
 246 000c 8442     		cmp	r4, r0
 247              		.loc 1 158 0
 248 000e 18BF     		it	ne
 249 0010 6FF00105 		mvnne	r5, #1
 250              		.loc 1 157 0
 251 0014 08D0     		beq	.L11
 252              	.L10:
 253              	.LVL20:
 254              	.LBB120:
 255              	.LBB121:
 256              		.loc 2 674 0
 257 0016 0368     		ldr	r3, [r0]
 258 0018 2360     		str	r3, [r4]
 259              		.loc 2 675 0
 260 001a 5C60     		str	r4, [r3, #4]
 261              	.LVL21:
 262              	.LBE121:
 263              	.LBE120:
 264              		.loc 1 158 0
 265 001c FFF7FEFF 		bl	chSchReadyI
 266              	.LVL22:
 267 0020 4562     		str	r5, [r0, #36]
 268              	.LVL23:
 269              	.LBB122:
 270              	.LBB119:
 271              		.loc 2 631 0
 272 0022 2068     		ldr	r0, [r4]
 273              	.LVL24:
 274              	.LBE119:
 275              	.LBE122:
 276              		.loc 1 157 0
 277 0024 A042     		cmp	r0, r4
 278 0026 F6D1     		bne	.L10
 279              	.L11:
 280              	.LBE116:
 281              	.LBE115:
 282              		.loc 1 134 0
 283 0028 FFF7FEFF 		bl	chSchRescheduleS
 284              	.LVL25:
 285              	.LBB123:
ARM GAS  /var/folders/m4/4md61f0s1_g0rzfghffqnxvr0000gn/T//ccqtBXJY.s 			page 6


 286              	.LBB124:
 287              	.LBB125:
 288              	.LBB126:
 289              	.LBB127:
 290              		.loc 3 548 0
 291 002c 0023     		movs	r3, #0
 292              		.syntax unified
 293              	@ 548 "ChibiOS_16.1.4/os/ext/CMSIS/include/core_cmFunc.h" 1
 294 002e 83F31188 		MSR basepri, r3
 295              	@ 0 "" 2
 296              	.LVL26:
 297              		.thumb
 298              		.syntax unified
 299              	.LBE127:
 300              	.LBE126:
 301              	.LBE125:
 302              	.LBE124:
 303              	.LBE123:
 304              		.loc 1 136 0
 305 0032 38BD     		pop	{r3, r4, r5, pc}
 306              		.cfi_endproc
 307              	.LFE234:
 308              		.size	chCondBroadcast, .-chCondBroadcast
 309              		.section	.text.chCondBroadcastI,"ax",%progbits
 310              		.align	2
 311              		.p2align 4,,15
 312              		.global	chCondBroadcastI
 313              		.thumb
 314              		.thumb_func
 315              		.type	chCondBroadcastI, %function
 316              	chCondBroadcastI:
 317              	.LFB235:
 318              		.loc 1 149 0
 319              		.cfi_startproc
 320              		@ args = 0, pretend = 0, frame = 0
 321              		@ frame_needed = 0, uses_anonymous_args = 0
 322              	.LVL27:
 323 0000 38B5     		push	{r3, r4, r5, lr}
 324              		.cfi_def_cfa_offset 16
 325              		.cfi_offset 3, -16
 326              		.cfi_offset 4, -12
 327              		.cfi_offset 5, -8
 328              		.cfi_offset 14, -4
 329              		.loc 1 149 0
 330 0002 0446     		mov	r4, r0
 331              	.LVL28:
 332              	.LBB128:
 333              	.LBB129:
 334              		.loc 2 631 0
 335 0004 0068     		ldr	r0, [r0]
 336              	.LVL29:
 337              	.LBE129:
 338              	.LBE128:
 339              		.loc 1 157 0
 340 0006 8442     		cmp	r4, r0
 341 0008 0AD0     		beq	.L15
 342              		.loc 1 158 0
ARM GAS  /var/folders/m4/4md61f0s1_g0rzfghffqnxvr0000gn/T//ccqtBXJY.s 			page 7


 343 000a 6FF00105 		mvn	r5, #1
 344              	.L17:
 345              	.LVL30:
 346              	.LBB131:
 347              	.LBB132:
 348              		.loc 2 674 0
 349 000e 0368     		ldr	r3, [r0]
 350 0010 2360     		str	r3, [r4]
 351              		.loc 2 675 0
 352 0012 5C60     		str	r4, [r3, #4]
 353              	.LVL31:
 354              	.LBE132:
 355              	.LBE131:
 356              		.loc 1 158 0
 357 0014 FFF7FEFF 		bl	chSchReadyI
 358              	.LVL32:
 359 0018 4562     		str	r5, [r0, #36]
 360              	.LVL33:
 361              	.LBB133:
 362              	.LBB130:
 363              		.loc 2 631 0
 364 001a 2068     		ldr	r0, [r4]
 365              	.LVL34:
 366              	.LBE130:
 367              	.LBE133:
 368              		.loc 1 157 0
 369 001c A042     		cmp	r0, r4
 370 001e F6D1     		bne	.L17
 371              	.L15:
 372 0020 38BD     		pop	{r3, r4, r5, pc}
 373              		.cfi_endproc
 374              	.LFE235:
 375              		.size	chCondBroadcastI, .-chCondBroadcastI
 376 0022 00BF     		.section	.text.chCondWaitS,"ax",%progbits
 377              		.align	2
 378              		.p2align 4,,15
 379              		.global	chCondWaitS
 380              		.thumb
 381              		.thumb_func
 382              		.type	chCondWaitS, %function
 383              	chCondWaitS:
 384              	.LFB237:
 385              		.loc 1 205 0
 386              		.cfi_startproc
 387              		@ args = 0, pretend = 0, frame = 0
 388              		@ frame_needed = 0, uses_anonymous_args = 0
 389              	.LVL35:
 390              		.loc 1 206 0
 391 0000 0F4B     		ldr	r3, .L29
 392              		.loc 1 205 0
 393 0002 70B5     		push	{r4, r5, r6, lr}
 394              		.cfi_def_cfa_offset 16
 395              		.cfi_offset 4, -16
 396              		.cfi_offset 5, -12
 397              		.cfi_offset 6, -8
 398              		.cfi_offset 14, -4
 399              		.loc 1 206 0
ARM GAS  /var/folders/m4/4md61f0s1_g0rzfghffqnxvr0000gn/T//ccqtBXJY.s 			page 8


 400 0004 9C69     		ldr	r4, [r3, #24]
 401              	.LVL36:
 402              	.LBB134:
 403              	.LBB135:
 404              		.file 4 "ChibiOS_16.1.4/os/rt/include/chmtx.h"
 405              		.loc 4 146 0
 406 0006 E66B     		ldr	r6, [r4, #60]
 407              	.LBE135:
 408              	.LBE134:
 409              		.loc 1 205 0
 410 0008 0546     		mov	r5, r0
 411              		.loc 1 216 0
 412 000a 3046     		mov	r0, r6
 413              	.LVL37:
 414 000c FFF7FEFF 		bl	chMtxUnlockS
 415              	.LVL38:
 416              		.loc 1 220 0
 417 0010 6562     		str	r5, [r4, #36]
 418              	.LVL39:
 419              	.LBB136:
 420              	.LBB137:
 421              		.loc 2 653 0
 422 0012 2B46     		mov	r3, r5
 423 0014 03E0     		b	.L23
 424              	.LVL40:
 425              	.L28:
 426              		.loc 2 656 0
 427 0016 9968     		ldr	r1, [r3, #8]
 428 0018 A268     		ldr	r2, [r4, #8]
 429 001a 9142     		cmp	r1, r2
 430 001c 02D3     		bcc	.L24
 431              	.LVL41:
 432              	.L23:
 433              		.loc 2 655 0
 434 001e 1B68     		ldr	r3, [r3]
 435              	.LVL42:
 436              		.loc 2 656 0
 437 0020 9D42     		cmp	r5, r3
 438 0022 F8D1     		bne	.L28
 439              	.L24:
 440              		.loc 2 658 0
 441 0024 5A68     		ldr	r2, [r3, #4]
 442 0026 6260     		str	r2, [r4, #4]
 443              		.loc 2 657 0
 444 0028 2360     		str	r3, [r4]
 445              	.LBE137:
 446              	.LBE136:
 447              		.loc 1 222 0
 448 002a 0720     		movs	r0, #7
 449              	.LBB139:
 450              	.LBB138:
 451              		.loc 2 659 0
 452 002c 1460     		str	r4, [r2]
 453              		.loc 2 660 0
 454 002e 5C60     		str	r4, [r3, #4]
 455              	.LVL43:
 456              	.LBE138:
ARM GAS  /var/folders/m4/4md61f0s1_g0rzfghffqnxvr0000gn/T//ccqtBXJY.s 			page 9


 457              	.LBE139:
 458              		.loc 1 222 0
 459 0030 FFF7FEFF 		bl	chSchGoSleepS
 460              	.LVL44:
 461              		.loc 1 223 0
 462 0034 646A     		ldr	r4, [r4, #36]
 463              	.LVL45:
 464              		.loc 1 224 0
 465 0036 3046     		mov	r0, r6
 466 0038 FFF7FEFF 		bl	chMtxLockS
 467              	.LVL46:
 468              		.loc 1 227 0
 469 003c 2046     		mov	r0, r4
 470 003e 70BD     		pop	{r4, r5, r6, pc}
 471              	.LVL47:
 472              	.L30:
 473              		.align	2
 474              	.L29:
 475 0040 00000000 		.word	ch
 476              		.cfi_endproc
 477              	.LFE237:
 478              		.size	chCondWaitS, .-chCondWaitS
 479              		.section	.text.chCondWait,"ax",%progbits
 480              		.align	2
 481              		.p2align 4,,15
 482              		.global	chCondWait
 483              		.thumb
 484              		.thumb_func
 485              		.type	chCondWait, %function
 486              	chCondWait:
 487              	.LFB236:
 488              		.loc 1 179 0
 489              		.cfi_startproc
 490              		@ args = 0, pretend = 0, frame = 0
 491              		@ frame_needed = 0, uses_anonymous_args = 0
 492              	.LVL48:
 493 0000 08B5     		push	{r3, lr}
 494              		.cfi_def_cfa_offset 8
 495              		.cfi_offset 3, -8
 496              		.cfi_offset 14, -4
 497              	.LBB140:
 498              	.LBB141:
 499              	.LBB142:
 500              	.LBB143:
 501              		.loc 3 548 0
 502 0002 2023     		movs	r3, #32
 503              		.syntax unified
 504              	@ 548 "ChibiOS_16.1.4/os/ext/CMSIS/include/core_cmFunc.h" 1
 505 0004 83F31188 		MSR basepri, r3
 506              	@ 0 "" 2
 507              	.LVL49:
 508              		.thumb
 509              		.syntax unified
 510              	.LBE143:
 511              	.LBE142:
 512              	.LBE141:
 513              	.LBE140:
ARM GAS  /var/folders/m4/4md61f0s1_g0rzfghffqnxvr0000gn/T//ccqtBXJY.s 			page 10


 514              		.loc 1 183 0
 515 0008 FFF7FEFF 		bl	chCondWaitS
 516              	.LVL50:
 517              	.LBB144:
 518              	.LBB145:
 519              	.LBB146:
 520              	.LBB147:
 521              	.LBB148:
 522              		.loc 3 548 0
 523 000c 0023     		movs	r3, #0
 524              		.syntax unified
 525              	@ 548 "ChibiOS_16.1.4/os/ext/CMSIS/include/core_cmFunc.h" 1
 526 000e 83F31188 		MSR basepri, r3
 527              	@ 0 "" 2
 528              	.LVL51:
 529              		.thumb
 530              		.syntax unified
 531              	.LBE148:
 532              	.LBE147:
 533              	.LBE146:
 534              	.LBE145:
 535              	.LBE144:
 536              		.loc 1 186 0
 537 0012 08BD     		pop	{r3, pc}
 538              		.cfi_endproc
 539              	.LFE236:
 540              		.size	chCondWait, .-chCondWait
 541              		.section	.text.chCondWaitTimeoutS,"ax",%progbits
 542              		.align	2
 543              		.p2align 4,,15
 544              		.global	chCondWaitTimeoutS
 545              		.thumb
 546              		.thumb_func
 547              		.type	chCondWaitTimeoutS, %function
 548              	chCondWaitTimeoutS:
 549              	.LFB239:
 550              		.loc 1 296 0
 551              		.cfi_startproc
 552              		@ args = 0, pretend = 0, frame = 0
 553              		@ frame_needed = 0, uses_anonymous_args = 0
 554              	.LVL52:
 555 0000 F8B5     		push	{r3, r4, r5, r6, r7, lr}
 556              		.cfi_def_cfa_offset 24
 557              		.cfi_offset 3, -24
 558              		.cfi_offset 4, -20
 559              		.cfi_offset 5, -16
 560              		.cfi_offset 6, -12
 561              		.cfi_offset 7, -8
 562              		.cfi_offset 14, -4
 563              	.LBB149:
 564              	.LBB150:
 565              	.LBB151:
 566              	.LBB152:
 567              		.file 5 "ChibiOS_16.1.4/os/rt/include/chthreads.h"
 568              		.loc 5 176 0
 569 0002 124C     		ldr	r4, .L41
 570              	.LBE152:
ARM GAS  /var/folders/m4/4md61f0s1_g0rzfghffqnxvr0000gn/T//ccqtBXJY.s 			page 11


 571              	.LBE151:
 572              		.loc 4 146 0
 573 0004 A369     		ldr	r3, [r4, #24]
 574 0006 DE6B     		ldr	r6, [r3, #60]
 575              	.LBE150:
 576              	.LBE149:
 577              		.loc 1 296 0
 578 0008 0546     		mov	r5, r0
 579              		.loc 1 306 0
 580 000a 3046     		mov	r0, r6
 581              	.LVL53:
 582              		.loc 1 296 0
 583 000c 0F46     		mov	r7, r1
 584              		.loc 1 306 0
 585 000e FFF7FEFF 		bl	chMtxUnlockS
 586              	.LVL54:
 587              		.loc 1 310 0
 588 0012 A469     		ldr	r4, [r4, #24]
 589              	.LBB153:
 590              	.LBB154:
 591              		.loc 2 653 0
 592 0014 2B46     		mov	r3, r5
 593              	.LBE154:
 594              	.LBE153:
 595              		.loc 1 310 0
 596 0016 6562     		str	r5, [r4, #36]
 597              	.LVL55:
 598 0018 03E0     		b	.L37
 599              	.LVL56:
 600              	.L34:
 601              	.LBB158:
 602              	.LBB155:
 603              		.loc 2 656 0
 604 001a 9868     		ldr	r0, [r3, #8]
 605 001c A268     		ldr	r2, [r4, #8]
 606 001e 9042     		cmp	r0, r2
 607 0020 02D3     		bcc	.L38
 608              	.LVL57:
 609              	.L37:
 610              		.loc 2 655 0
 611 0022 1B68     		ldr	r3, [r3]
 612              	.LVL58:
 613              		.loc 2 656 0
 614 0024 9D42     		cmp	r5, r3
 615 0026 F8D1     		bne	.L34
 616              	.L38:
 617              		.loc 2 658 0
 618 0028 5A68     		ldr	r2, [r3, #4]
 619 002a 6260     		str	r2, [r4, #4]
 620              		.loc 2 657 0
 621 002c 2360     		str	r3, [r4]
 622              	.LBE155:
 623              	.LBE158:
 624              		.loc 1 312 0
 625 002e 3946     		mov	r1, r7
 626              	.LBB159:
 627              	.LBB156:
ARM GAS  /var/folders/m4/4md61f0s1_g0rzfghffqnxvr0000gn/T//ccqtBXJY.s 			page 12


 628              		.loc 2 659 0
 629 0030 1460     		str	r4, [r2]
 630              	.LBE156:
 631              	.LBE159:
 632              		.loc 1 312 0
 633 0032 0720     		movs	r0, #7
 634              	.LBB160:
 635              	.LBB157:
 636              		.loc 2 660 0
 637 0034 5C60     		str	r4, [r3, #4]
 638              	.LVL59:
 639              	.LBE157:
 640              	.LBE160:
 641              		.loc 1 312 0
 642 0036 FFF7FEFF 		bl	chSchGoSleepTimeoutS
 643              	.LVL60:
 644              		.loc 1 313 0
 645 003a 431C     		adds	r3, r0, #1
 646              		.loc 1 312 0
 647 003c 0446     		mov	r4, r0
 648              	.LVL61:
 649              		.loc 1 313 0
 650 003e 02D0     		beq	.L36
 651              		.loc 1 314 0
 652 0040 3046     		mov	r0, r6
 653              	.LVL62:
 654 0042 FFF7FEFF 		bl	chMtxLockS
 655              	.LVL63:
 656              	.L36:
 657              		.loc 1 318 0
 658 0046 2046     		mov	r0, r4
 659 0048 F8BD     		pop	{r3, r4, r5, r6, r7, pc}
 660              	.LVL64:
 661              	.L42:
 662 004a 00BF     		.align	2
 663              	.L41:
 664 004c 00000000 		.word	ch
 665              		.cfi_endproc
 666              	.LFE239:
 667              		.size	chCondWaitTimeoutS, .-chCondWaitTimeoutS
 668              		.section	.text.chCondWaitTimeout,"ax",%progbits
 669              		.align	2
 670              		.p2align 4,,15
 671              		.global	chCondWaitTimeout
 672              		.thumb
 673              		.thumb_func
 674              		.type	chCondWaitTimeout, %function
 675              	chCondWaitTimeout:
 676              	.LFB238:
 677              		.loc 1 258 0
 678              		.cfi_startproc
 679              		@ args = 0, pretend = 0, frame = 0
 680              		@ frame_needed = 0, uses_anonymous_args = 0
 681              	.LVL65:
 682 0000 08B5     		push	{r3, lr}
 683              		.cfi_def_cfa_offset 8
 684              		.cfi_offset 3, -8
ARM GAS  /var/folders/m4/4md61f0s1_g0rzfghffqnxvr0000gn/T//ccqtBXJY.s 			page 13


 685              		.cfi_offset 14, -4
 686              	.LBB161:
 687              	.LBB162:
 688              	.LBB163:
 689              	.LBB164:
 690              		.loc 3 548 0
 691 0002 2023     		movs	r3, #32
 692              		.syntax unified
 693              	@ 548 "ChibiOS_16.1.4/os/ext/CMSIS/include/core_cmFunc.h" 1
 694 0004 83F31188 		MSR basepri, r3
 695              	@ 0 "" 2
 696              	.LVL66:
 697              		.thumb
 698              		.syntax unified
 699              	.LBE164:
 700              	.LBE163:
 701              	.LBE162:
 702              	.LBE161:
 703              		.loc 1 262 0
 704 0008 FFF7FEFF 		bl	chCondWaitTimeoutS
 705              	.LVL67:
 706              	.LBB165:
 707              	.LBB166:
 708              	.LBB167:
 709              	.LBB168:
 710              	.LBB169:
 711              		.loc 3 548 0
 712 000c 0023     		movs	r3, #0
 713              		.syntax unified
 714              	@ 548 "ChibiOS_16.1.4/os/ext/CMSIS/include/core_cmFunc.h" 1
 715 000e 83F31188 		MSR basepri, r3
 716              	@ 0 "" 2
 717              	.LVL68:
 718              		.thumb
 719              		.syntax unified
 720              	.LBE169:
 721              	.LBE168:
 722              	.LBE167:
 723              	.LBE166:
 724              	.LBE165:
 725              		.loc 1 266 0
 726 0012 08BD     		pop	{r3, pc}
 727              		.cfi_endproc
 728              	.LFE238:
 729              		.size	chCondWaitTimeout, .-chCondWaitTimeout
 730              		.text
 731              	.Letext0:
 732              		.file 6 "/opt/homebrew-cask/Caskroom/gcc-arm-embedded/5_2-2015q4,20151219/gcc-arm-none-eabi-5_2-20
 733              		.file 7 "/opt/homebrew-cask/Caskroom/gcc-arm-embedded/5_2-2015q4,20151219/gcc-arm-none-eabi-5_2-20
 734              		.file 8 "ChibiOS_16.1.4/os/rt/ports/ARMCMx/compilers/GCC/chtypes.h"
 735              		.file 9 "ChibiOS_16.1.4/os/rt/include/chsystypes.h"
 736              		.file 10 "ChibiOS_16.1.4/os/rt/ports/ARMCMx/chcore.h"
 737              		.file 11 "ChibiOS_16.1.4/os/rt/ports/ARMCMx/chcore_v7m.h"
 738              		.file 12 "ChibiOS_16.1.4/os/rt/include/chtm.h"
 739              		.file 13 "ChibiOS_16.1.4/os/rt/include/chsem.h"
 740              		.file 14 "ChibiOS_16.1.4/os/rt/include/chcond.h"
 741              		.file 15 "ChibiOS_16.1.4/os/rt/include/chsys.h"
ARM GAS  /var/folders/m4/4md61f0s1_g0rzfghffqnxvr0000gn/T//ccqtBXJY.s 			page 14


 742              		.file 16 "ChibiOS_16.1.4/os/ext/CMSIS/include/core_cm4.h"
 743              		.section	.debug_info,"",%progbits
 744              	.Ldebug_info0:
 745 0000 72100000 		.4byte	0x1072
 746 0004 0400     		.2byte	0x4
 747 0006 00000000 		.4byte	.Ldebug_abbrev0
 748 000a 04       		.byte	0x4
 749 000b 01       		.uleb128 0x1
 750 000c F7040000 		.4byte	.LASF139
 751 0010 0C       		.byte	0xc
 752 0011 48000000 		.4byte	.LASF140
 753 0015 71020000 		.4byte	.LASF141
 754 0019 88000000 		.4byte	.Ldebug_ranges0+0x88
 755 001d 00000000 		.4byte	0
 756 0021 00000000 		.4byte	.Ldebug_line0
 757 0025 02       		.uleb128 0x2
 758 0026 04       		.byte	0x4
 759 0027 05       		.byte	0x5
 760 0028 696E7400 		.ascii	"int\000"
 761 002c 03       		.uleb128 0x3
 762 002d 04       		.byte	0x4
 763 002e 07       		.byte	0x7
 764 002f 04020000 		.4byte	.LASF0
 765 0033 03       		.uleb128 0x3
 766 0034 01       		.byte	0x1
 767 0035 06       		.byte	0x6
 768 0036 04010000 		.4byte	.LASF1
 769 003a 04       		.uleb128 0x4
 770 003b 23000000 		.4byte	.LASF5
 771 003f 06       		.byte	0x6
 772 0040 1D       		.byte	0x1d
 773 0041 45000000 		.4byte	0x45
 774 0045 03       		.uleb128 0x3
 775 0046 01       		.byte	0x1
 776 0047 08       		.byte	0x8
 777 0048 F6030000 		.4byte	.LASF2
 778 004c 03       		.uleb128 0x3
 779 004d 02       		.byte	0x2
 780 004e 05       		.byte	0x5
 781 004f 0E040000 		.4byte	.LASF3
 782 0053 03       		.uleb128 0x3
 783 0054 02       		.byte	0x2
 784 0055 07       		.byte	0x7
 785 0056 41020000 		.4byte	.LASF4
 786 005a 04       		.uleb128 0x4
 787 005b D4020000 		.4byte	.LASF6
 788 005f 06       		.byte	0x6
 789 0060 3F       		.byte	0x3f
 790 0061 65000000 		.4byte	0x65
 791 0065 03       		.uleb128 0x3
 792 0066 04       		.byte	0x4
 793 0067 05       		.byte	0x5
 794 0068 5C010000 		.4byte	.LASF7
 795 006c 04       		.uleb128 0x4
 796 006d 4A060000 		.4byte	.LASF8
 797 0071 06       		.byte	0x6
 798 0072 41       		.byte	0x41
ARM GAS  /var/folders/m4/4md61f0s1_g0rzfghffqnxvr0000gn/T//ccqtBXJY.s 			page 15


 799 0073 77000000 		.4byte	0x77
 800 0077 03       		.uleb128 0x3
 801 0078 04       		.byte	0x4
 802 0079 07       		.byte	0x7
 803 007a E0040000 		.4byte	.LASF9
 804 007e 03       		.uleb128 0x3
 805 007f 08       		.byte	0x8
 806 0080 05       		.byte	0x5
 807 0081 F6000000 		.4byte	.LASF10
 808 0085 04       		.uleb128 0x4
 809 0086 A8030000 		.4byte	.LASF11
 810 008a 06       		.byte	0x6
 811 008b 5B       		.byte	0x5b
 812 008c 90000000 		.4byte	0x90
 813 0090 03       		.uleb128 0x3
 814 0091 08       		.byte	0x8
 815 0092 07       		.byte	0x7
 816 0093 90000000 		.4byte	.LASF12
 817 0097 04       		.uleb128 0x4
 818 0098 D3060000 		.4byte	.LASF13
 819 009c 07       		.byte	0x7
 820 009d 14       		.byte	0x14
 821 009e 3A000000 		.4byte	0x3a
 822 00a2 04       		.uleb128 0x4
 823 00a3 EE030000 		.4byte	.LASF14
 824 00a7 07       		.byte	0x7
 825 00a8 1F       		.byte	0x1f
 826 00a9 5A000000 		.4byte	0x5a
 827 00ad 04       		.uleb128 0x4
 828 00ae AC040000 		.4byte	.LASF15
 829 00b2 07       		.byte	0x7
 830 00b3 20       		.byte	0x20
 831 00b4 6C000000 		.4byte	0x6c
 832 00b8 04       		.uleb128 0x4
 833 00b9 1A000000 		.4byte	.LASF16
 834 00bd 07       		.byte	0x7
 835 00be 26       		.byte	0x26
 836 00bf 85000000 		.4byte	0x85
 837 00c3 04       		.uleb128 0x4
 838 00c4 7C060000 		.4byte	.LASF17
 839 00c8 08       		.byte	0x8
 840 00c9 39       		.byte	0x39
 841 00ca AD000000 		.4byte	0xad
 842 00ce 04       		.uleb128 0x4
 843 00cf B2020000 		.4byte	.LASF18
 844 00d3 08       		.byte	0x8
 845 00d4 3C       		.byte	0x3c
 846 00d5 97000000 		.4byte	0x97
 847 00d9 04       		.uleb128 0x4
 848 00da 65010000 		.4byte	.LASF19
 849 00de 08       		.byte	0x8
 850 00df 3D       		.byte	0x3d
 851 00e0 97000000 		.4byte	0x97
 852 00e4 04       		.uleb128 0x4
 853 00e5 B3030000 		.4byte	.LASF20
 854 00e9 08       		.byte	0x8
 855 00ea 3E       		.byte	0x3e
ARM GAS  /var/folders/m4/4md61f0s1_g0rzfghffqnxvr0000gn/T//ccqtBXJY.s 			page 16


 856 00eb 97000000 		.4byte	0x97
 857 00ef 04       		.uleb128 0x4
 858 00f0 48010000 		.4byte	.LASF21
 859 00f4 08       		.byte	0x8
 860 00f5 3F       		.byte	0x3f
 861 00f6 97000000 		.4byte	0x97
 862 00fa 04       		.uleb128 0x4
 863 00fb D2030000 		.4byte	.LASF22
 864 00ff 08       		.byte	0x8
 865 0100 40       		.byte	0x40
 866 0101 AD000000 		.4byte	0xad
 867 0105 04       		.uleb128 0x4
 868 0106 6B020000 		.4byte	.LASF23
 869 010a 08       		.byte	0x8
 870 010b 41       		.byte	0x41
 871 010c A2000000 		.4byte	0xa2
 872 0110 04       		.uleb128 0x4
 873 0111 C8020000 		.4byte	.LASF24
 874 0115 08       		.byte	0x8
 875 0116 43       		.byte	0x43
 876 0117 AD000000 		.4byte	0xad
 877 011b 04       		.uleb128 0x4
 878 011c F1010000 		.4byte	.LASF25
 879 0120 08       		.byte	0x8
 880 0121 45       		.byte	0x45
 881 0122 A2000000 		.4byte	0xa2
 882 0126 04       		.uleb128 0x4
 883 0127 2C060000 		.4byte	.LASF26
 884 012b 09       		.byte	0x9
 885 012c 33       		.byte	0x33
 886 012d AD000000 		.4byte	0xad
 887 0131 04       		.uleb128 0x4
 888 0132 B6060000 		.4byte	.LASF27
 889 0136 09       		.byte	0x9
 890 0137 3F       		.byte	0x3f
 891 0138 3C010000 		.4byte	0x13c
 892 013c 05       		.uleb128 0x5
 893 013d 54020000 		.4byte	.LASF49
 894 0141 48       		.byte	0x48
 895 0142 02       		.byte	0x2
 896 0143 C2       		.byte	0xc2
 897 0144 41020000 		.4byte	0x241
 898 0148 06       		.uleb128 0x6
 899 0149 38040000 		.4byte	.LASF28
 900 014d 02       		.byte	0x2
 901 014e C3       		.byte	0xc3
 902 014f 4C020000 		.4byte	0x24c
 903 0153 00       		.byte	0
 904 0154 06       		.uleb128 0x6
 905 0155 CB030000 		.4byte	.LASF29
 906 0159 02       		.byte	0x2
 907 015a C5       		.byte	0xc5
 908 015b 4C020000 		.4byte	0x24c
 909 015f 04       		.byte	0x4
 910 0160 06       		.uleb128 0x6
 911 0161 EF000000 		.4byte	.LASF30
 912 0165 02       		.byte	0x2
ARM GAS  /var/folders/m4/4md61f0s1_g0rzfghffqnxvr0000gn/T//ccqtBXJY.s 			page 17


 913 0166 C7       		.byte	0xc7
 914 0167 FA000000 		.4byte	0xfa
 915 016b 08       		.byte	0x8
 916 016c 06       		.uleb128 0x6
 917 016d 52070000 		.4byte	.LASF31
 918 0171 02       		.byte	0x2
 919 0172 C8       		.byte	0xc8
 920 0173 7C040000 		.4byte	0x47c
 921 0177 0C       		.byte	0xc
 922 0178 06       		.uleb128 0x6
 923 0179 7D010000 		.4byte	.LASF32
 924 017d 02       		.byte	0x2
 925 017e CA       		.byte	0xca
 926 017f 4C020000 		.4byte	0x24c
 927 0183 10       		.byte	0x10
 928 0184 06       		.uleb128 0x6
 929 0185 5B030000 		.4byte	.LASF33
 930 0189 02       		.byte	0x2
 931 018a CB       		.byte	0xcb
 932 018b 4C020000 		.4byte	0x24c
 933 018f 14       		.byte	0x14
 934 0190 06       		.uleb128 0x6
 935 0191 E2060000 		.4byte	.LASF34
 936 0195 02       		.byte	0x2
 937 0196 D2       		.byte	0xd2
 938 0197 CA060000 		.4byte	0x6ca
 939 019b 18       		.byte	0x18
 940 019c 06       		.uleb128 0x6
 941 019d 18040000 		.4byte	.LASF35
 942 01a1 02       		.byte	0x2
 943 01a2 DD       		.byte	0xdd
 944 01a3 D9000000 		.4byte	0xd9
 945 01a7 1C       		.byte	0x1c
 946 01a8 06       		.uleb128 0x6
 947 01a9 3F040000 		.4byte	.LASF36
 948 01ad 02       		.byte	0x2
 949 01ae E1       		.byte	0xe1
 950 01af CE000000 		.4byte	0xce
 951 01b3 1D       		.byte	0x1d
 952 01b4 06       		.uleb128 0x6
 953 01b5 AF060000 		.4byte	.LASF37
 954 01b9 02       		.byte	0x2
 955 01ba E6       		.byte	0xe6
 956 01bb E4000000 		.4byte	0xe4
 957 01bf 1E       		.byte	0x1e
 958 01c0 06       		.uleb128 0x6
 959 01c1 20040000 		.4byte	.LASF38
 960 01c5 02       		.byte	0x2
 961 01c6 EC       		.byte	0xec
 962 01c7 EF000000 		.4byte	0xef
 963 01cb 1F       		.byte	0x1f
 964 01cc 06       		.uleb128 0x6
 965 01cd 19020000 		.4byte	.LASF39
 966 01d1 02       		.byte	0x2
 967 01d2 F3       		.byte	0xf3
 968 01d3 DC060000 		.4byte	0x6dc
 969 01d7 20       		.byte	0x20
ARM GAS  /var/folders/m4/4md61f0s1_g0rzfghffqnxvr0000gn/T//ccqtBXJY.s 			page 18


 970 01d8 07       		.uleb128 0x7
 971 01d9 705F7500 		.ascii	"p_u\000"
 972 01dd 02       		.byte	0x2
 973 01de 3101     		.2byte	0x131
 974 01e0 05060000 		.4byte	0x605
 975 01e4 24       		.byte	0x24
 976 01e5 08       		.uleb128 0x8
 977 01e6 F8020000 		.4byte	.LASF40
 978 01ea 02       		.byte	0x2
 979 01eb 3601     		.2byte	0x136
 980 01ed 52020000 		.4byte	0x252
 981 01f1 28       		.byte	0x28
 982 01f2 08       		.uleb128 0x8
 983 01f3 30020000 		.4byte	.LASF41
 984 01f7 02       		.byte	0x2
 985 01f8 3C01     		.2byte	0x13c
 986 01fa 76020000 		.4byte	0x276
 987 01fe 2C       		.byte	0x2c
 988 01ff 08       		.uleb128 0x8
 989 0200 27070000 		.4byte	.LASF42
 990 0204 02       		.byte	0x2
 991 0205 4001     		.2byte	0x140
 992 0207 05010000 		.4byte	0x105
 993 020b 34       		.byte	0x34
 994 020c 08       		.uleb128 0x8
 995 020d 8E040000 		.4byte	.LASF43
 996 0211 02       		.byte	0x2
 997 0212 4601     		.2byte	0x146
 998 0214 10010000 		.4byte	0x110
 999 0218 38       		.byte	0x38
 1000 0219 08       		.uleb128 0x8
 1001 021a 04040000 		.4byte	.LASF44
 1002 021e 02       		.byte	0x2
 1003 021f 4D01     		.2byte	0x14d
 1004 0221 C4060000 		.4byte	0x6c4
 1005 0225 3C       		.byte	0x3c
 1006 0226 08       		.uleb128 0x8
 1007 0227 36060000 		.4byte	.LASF45
 1008 022b 02       		.byte	0x2
 1009 022c 5101     		.2byte	0x151
 1010 022e FA000000 		.4byte	0xfa
 1011 0232 40       		.byte	0x40
 1012 0233 08       		.uleb128 0x8
 1013 0234 25010000 		.4byte	.LASF46
 1014 0238 02       		.byte	0x2
 1015 0239 5801     		.2byte	0x158
 1016 023b 29030000 		.4byte	0x329
 1017 023f 44       		.byte	0x44
 1018 0240 00       		.byte	0
 1019 0241 04       		.uleb128 0x4
 1020 0242 0B030000 		.4byte	.LASF47
 1021 0246 09       		.byte	0x9
 1022 0247 44       		.byte	0x44
 1023 0248 4C020000 		.4byte	0x24c
 1024 024c 09       		.uleb128 0x9
 1025 024d 04       		.byte	0x4
 1026 024e 31010000 		.4byte	0x131
ARM GAS  /var/folders/m4/4md61f0s1_g0rzfghffqnxvr0000gn/T//ccqtBXJY.s 			page 19


 1027 0252 04       		.uleb128 0x4
 1028 0253 E9020000 		.4byte	.LASF48
 1029 0257 09       		.byte	0x9
 1030 0258 49       		.byte	0x49
 1031 0259 5D020000 		.4byte	0x25d
 1032 025d 05       		.uleb128 0x5
 1033 025e D0040000 		.4byte	.LASF50
 1034 0262 04       		.byte	0x4
 1035 0263 02       		.byte	0x2
 1036 0264 B0       		.byte	0xb0
 1037 0265 76020000 		.4byte	0x276
 1038 0269 06       		.uleb128 0x6
 1039 026a 38040000 		.4byte	.LASF28
 1040 026e 02       		.byte	0x2
 1041 026f B1       		.byte	0xb1
 1042 0270 4C020000 		.4byte	0x24c
 1043 0274 00       		.byte	0
 1044 0275 00       		.byte	0
 1045 0276 04       		.uleb128 0x4
 1046 0277 96060000 		.4byte	.LASF51
 1047 027b 09       		.byte	0x9
 1048 027c 50       		.byte	0x50
 1049 027d 81020000 		.4byte	0x281
 1050 0281 05       		.uleb128 0x5
 1051 0282 DE000000 		.4byte	.LASF52
 1052 0286 08       		.byte	0x8
 1053 0287 02       		.byte	0x2
 1054 0288 B7       		.byte	0xb7
 1055 0289 A6020000 		.4byte	0x2a6
 1056 028d 06       		.uleb128 0x6
 1057 028e 38040000 		.4byte	.LASF28
 1058 0292 02       		.byte	0x2
 1059 0293 B8       		.byte	0xb8
 1060 0294 4C020000 		.4byte	0x24c
 1061 0298 00       		.byte	0
 1062 0299 06       		.uleb128 0x6
 1063 029a CB030000 		.4byte	.LASF29
 1064 029e 02       		.byte	0x2
 1065 029f B9       		.byte	0xb9
 1066 02a0 4C020000 		.4byte	0x24c
 1067 02a4 04       		.byte	0x4
 1068 02a5 00       		.byte	0
 1069 02a6 04       		.uleb128 0x4
 1070 02a7 00000000 		.4byte	.LASF53
 1071 02ab 09       		.byte	0x9
 1072 02ac 57       		.byte	0x57
 1073 02ad B1020000 		.4byte	0x2b1
 1074 02b1 0A       		.uleb128 0xa
 1075 02b2 BA020000 		.4byte	.LASF54
 1076 02b6 1C       		.byte	0x1c
 1077 02b7 02       		.byte	0x2
 1078 02b8 9001     		.2byte	0x190
 1079 02ba 0D030000 		.4byte	0x30d
 1080 02be 08       		.uleb128 0x8
 1081 02bf BC040000 		.4byte	.LASF55
 1082 02c3 02       		.byte	0x2
 1083 02c4 9101     		.2byte	0x191
ARM GAS  /var/folders/m4/4md61f0s1_g0rzfghffqnxvr0000gn/T//ccqtBXJY.s 			page 20


 1084 02c6 76020000 		.4byte	0x276
 1085 02ca 00       		.byte	0
 1086 02cb 08       		.uleb128 0x8
 1087 02cc 2A040000 		.4byte	.LASF56
 1088 02d0 02       		.byte	0x2
 1089 02d1 9201     		.2byte	0x192
 1090 02d3 FA000000 		.4byte	0xfa
 1091 02d7 08       		.byte	0x8
 1092 02d8 08       		.uleb128 0x8
 1093 02d9 63030000 		.4byte	.LASF57
 1094 02dd 02       		.byte	0x2
 1095 02de 9401     		.2byte	0x194
 1096 02e0 7C040000 		.4byte	0x47c
 1097 02e4 0C       		.byte	0xc
 1098 02e5 08       		.uleb128 0x8
 1099 02e6 9E010000 		.4byte	.LASF58
 1100 02ea 02       		.byte	0x2
 1101 02eb 9701     		.2byte	0x197
 1102 02ed 4C020000 		.4byte	0x24c
 1103 02f1 10       		.byte	0x10
 1104 02f2 08       		.uleb128 0x8
 1105 02f3 90030000 		.4byte	.LASF59
 1106 02f7 02       		.byte	0x2
 1107 02f8 9801     		.2byte	0x198
 1108 02fa 4C020000 		.4byte	0x24c
 1109 02fe 14       		.byte	0x14
 1110 02ff 08       		.uleb128 0x8
 1111 0300 86030000 		.4byte	.LASF60
 1112 0304 02       		.byte	0x2
 1113 0305 9B01     		.2byte	0x19b
 1114 0307 4C020000 		.4byte	0x24c
 1115 030b 18       		.byte	0x18
 1116 030c 00       		.byte	0
 1117 030d 04       		.uleb128 0x4
 1118 030e 41060000 		.4byte	.LASF61
 1119 0312 09       		.byte	0x9
 1120 0313 5C       		.byte	0x5c
 1121 0314 18030000 		.4byte	0x318
 1122 0318 09       		.uleb128 0x9
 1123 0319 04       		.byte	0x4
 1124 031a 1E030000 		.4byte	0x31e
 1125 031e 0B       		.uleb128 0xb
 1126 031f 29030000 		.4byte	0x329
 1127 0323 0C       		.uleb128 0xc
 1128 0324 29030000 		.4byte	0x329
 1129 0328 00       		.byte	0
 1130 0329 0D       		.uleb128 0xd
 1131 032a 04       		.byte	0x4
 1132 032b 04       		.uleb128 0x4
 1133 032c BB030000 		.4byte	.LASF62
 1134 0330 09       		.byte	0x9
 1135 0331 61       		.byte	0x61
 1136 0332 36030000 		.4byte	0x336
 1137 0336 0A       		.uleb128 0xa
 1138 0337 5A040000 		.4byte	.LASF63
 1139 033b 14       		.byte	0x14
 1140 033c 02       		.byte	0x2
ARM GAS  /var/folders/m4/4md61f0s1_g0rzfghffqnxvr0000gn/T//ccqtBXJY.s 			page 21


 1141 033d 6B01     		.2byte	0x16b
 1142 033f 85030000 		.4byte	0x385
 1143 0343 08       		.uleb128 0x8
 1144 0344 11020000 		.4byte	.LASF64
 1145 0348 02       		.byte	0x2
 1146 0349 6C01     		.2byte	0x16c
 1147 034b E1060000 		.4byte	0x6e1
 1148 034f 00       		.byte	0
 1149 0350 08       		.uleb128 0x8
 1150 0351 AF010000 		.4byte	.LASF65
 1151 0355 02       		.byte	0x2
 1152 0356 6D01     		.2byte	0x16d
 1153 0358 E1060000 		.4byte	0x6e1
 1154 035c 04       		.byte	0x4
 1155 035d 08       		.uleb128 0x8
 1156 035e 27020000 		.4byte	.LASF66
 1157 0362 02       		.byte	0x2
 1158 0363 6E01     		.2byte	0x16e
 1159 0365 26010000 		.4byte	0x126
 1160 0369 08       		.byte	0x8
 1161 036a 08       		.uleb128 0x8
 1162 036b 58070000 		.4byte	.LASF67
 1163 036f 02       		.byte	0x2
 1164 0370 6F01     		.2byte	0x16f
 1165 0372 0D030000 		.4byte	0x30d
 1166 0376 0C       		.byte	0xc
 1167 0377 08       		.uleb128 0x8
 1168 0378 8F060000 		.4byte	.LASF68
 1169 037c 02       		.byte	0x2
 1170 037d 7101     		.2byte	0x171
 1171 037f 29030000 		.4byte	0x329
 1172 0383 10       		.byte	0x10
 1173 0384 00       		.byte	0
 1174 0385 04       		.uleb128 0x4
 1175 0386 BB000000 		.4byte	.LASF69
 1176 038a 09       		.byte	0x9
 1177 038b 66       		.byte	0x66
 1178 038c 90030000 		.4byte	0x390
 1179 0390 0A       		.uleb128 0xa
 1180 0391 1E030000 		.4byte	.LASF70
 1181 0395 10       		.byte	0x10
 1182 0396 02       		.byte	0x2
 1183 0397 7B01     		.2byte	0x17b
 1184 0399 D2030000 		.4byte	0x3d2
 1185 039d 08       		.uleb128 0x8
 1186 039e 11020000 		.4byte	.LASF64
 1187 03a2 02       		.byte	0x2
 1188 03a3 7C01     		.2byte	0x17c
 1189 03a5 E1060000 		.4byte	0x6e1
 1190 03a9 00       		.byte	0
 1191 03aa 08       		.uleb128 0x8
 1192 03ab AF010000 		.4byte	.LASF65
 1193 03af 02       		.byte	0x2
 1194 03b0 7E01     		.2byte	0x17e
 1195 03b2 E1060000 		.4byte	0x6e1
 1196 03b6 04       		.byte	0x4
 1197 03b7 08       		.uleb128 0x8
ARM GAS  /var/folders/m4/4md61f0s1_g0rzfghffqnxvr0000gn/T//ccqtBXJY.s 			page 22


 1198 03b8 27020000 		.4byte	.LASF66
 1199 03bc 02       		.byte	0x2
 1200 03bd 8001     		.2byte	0x180
 1201 03bf 26010000 		.4byte	0x126
 1202 03c3 08       		.byte	0x8
 1203 03c4 08       		.uleb128 0x8
 1204 03c5 FB060000 		.4byte	.LASF71
 1205 03c9 02       		.byte	0x2
 1206 03ca 8201     		.2byte	0x182
 1207 03cc DC060000 		.4byte	0x6dc
 1208 03d0 0C       		.byte	0xc
 1209 03d1 00       		.byte	0
 1210 03d2 04       		.uleb128 0x4
 1211 03d3 39000000 		.4byte	.LASF72
 1212 03d7 09       		.byte	0x9
 1213 03d8 6B       		.byte	0x6b
 1214 03d9 DD030000 		.4byte	0x3dd
 1215 03dd 0A       		.uleb128 0xa
 1216 03de B7010000 		.4byte	.LASF73
 1217 03e2 04       		.byte	0x4
 1218 03e3 02       		.byte	0x2
 1219 03e4 A201     		.2byte	0x1a2
 1220 03e6 F8030000 		.4byte	0x3f8
 1221 03ea 08       		.uleb128 0x8
 1222 03eb 63060000 		.4byte	.LASF74
 1223 03ef 02       		.byte	0x2
 1224 03f0 AA01     		.2byte	0x1aa
 1225 03f2 E7060000 		.4byte	0x6e7
 1226 03f6 00       		.byte	0
 1227 03f7 00       		.byte	0
 1228 03f8 04       		.uleb128 0x4
 1229 03f9 A6020000 		.4byte	.LASF75
 1230 03fd 09       		.byte	0x9
 1231 03fe 70       		.byte	0x70
 1232 03ff 03040000 		.4byte	0x403
 1233 0403 0E       		.uleb128 0xe
 1234 0404 52010000 		.4byte	.LASF76
 1235 0408 5802     		.2byte	0x258
 1236 040a 02       		.byte	0x2
 1237 040b C201     		.2byte	0x1c2
 1238 040d 5F040000 		.4byte	0x45f
 1239 0411 08       		.uleb128 0x8
 1240 0412 BF060000 		.4byte	.LASF77
 1241 0416 02       		.byte	0x2
 1242 0417 C601     		.2byte	0x1c6
 1243 0419 A6020000 		.4byte	0x2a6
 1244 041d 00       		.byte	0
 1245 041e 08       		.uleb128 0x8
 1246 041f 35010000 		.4byte	.LASF78
 1247 0423 02       		.byte	0x2
 1248 0424 CA01     		.2byte	0x1ca
 1249 0426 85030000 		.4byte	0x385
 1250 042a 1C       		.byte	0x1c
 1251 042b 07       		.uleb128 0x7
 1252 042c 64626700 		.ascii	"dbg\000"
 1253 0430 02       		.byte	0x2
 1254 0431 CE01     		.2byte	0x1ce
ARM GAS  /var/folders/m4/4md61f0s1_g0rzfghffqnxvr0000gn/T//ccqtBXJY.s 			page 23


 1255 0433 D2030000 		.4byte	0x3d2
 1256 0437 2C       		.byte	0x2c
 1257 0438 08       		.uleb128 0x8
 1258 0439 B0000000 		.4byte	.LASF79
 1259 043d 02       		.byte	0x2
 1260 043e D201     		.2byte	0x1d2
 1261 0440 31010000 		.4byte	0x131
 1262 0444 30       		.byte	0x30
 1263 0445 07       		.uleb128 0x7
 1264 0446 746D00   		.ascii	"tm\000"
 1265 0449 02       		.byte	0x2
 1266 044a D701     		.2byte	0x1d7
 1267 044c FA050000 		.4byte	0x5fa
 1268 0450 78       		.byte	0x78
 1269 0451 08       		.uleb128 0x8
 1270 0452 E2010000 		.4byte	.LASF80
 1271 0456 02       		.byte	0x2
 1272 0457 E301     		.2byte	0x1e3
 1273 0459 EC060000 		.4byte	0x6ec
 1274 045d 80       		.byte	0x80
 1275 045e 00       		.byte	0
 1276 045f 03       		.uleb128 0x3
 1277 0460 04       		.byte	0x4
 1278 0461 07       		.byte	0x7
 1279 0462 02030000 		.4byte	.LASF81
 1280 0466 04       		.uleb128 0x4
 1281 0467 A6010000 		.4byte	.LASF82
 1282 046b 0A       		.byte	0xa
 1283 046c 65       		.byte	0x65
 1284 046d 29030000 		.4byte	0x329
 1285 0471 04       		.uleb128 0x4
 1286 0472 DE020000 		.4byte	.LASF83
 1287 0476 0A       		.byte	0xa
 1288 0477 6D       		.byte	0x6d
 1289 0478 B8000000 		.4byte	0xb8
 1290 047c 05       		.uleb128 0x5
 1291 047d 74060000 		.4byte	.LASF84
 1292 0481 04       		.byte	0x4
 1293 0482 0A       		.byte	0xa
 1294 0483 89       		.byte	0x89
 1295 0484 95040000 		.4byte	0x495
 1296 0488 0F       		.uleb128 0xf
 1297 0489 72313300 		.ascii	"r13\000"
 1298 048d 0A       		.byte	0xa
 1299 048e 8A       		.byte	0x8a
 1300 048f DF050000 		.4byte	0x5df
 1301 0493 00       		.byte	0
 1302 0494 00       		.byte	0
 1303 0495 05       		.uleb128 0x5
 1304 0496 2D000000 		.4byte	.LASF85
 1305 049a 64       		.byte	0x64
 1306 049b 0B       		.byte	0xb
 1307 049c FD       		.byte	0xfd
 1308 049d DF050000 		.4byte	0x5df
 1309 04a1 0F       		.uleb128 0xf
 1310 04a2 73313600 		.ascii	"s16\000"
 1311 04a6 0B       		.byte	0xb
ARM GAS  /var/folders/m4/4md61f0s1_g0rzfghffqnxvr0000gn/T//ccqtBXJY.s 			page 24


 1312 04a7 FF       		.byte	0xff
 1313 04a8 66040000 		.4byte	0x466
 1314 04ac 00       		.byte	0
 1315 04ad 07       		.uleb128 0x7
 1316 04ae 73313700 		.ascii	"s17\000"
 1317 04b2 0B       		.byte	0xb
 1318 04b3 0001     		.2byte	0x100
 1319 04b5 66040000 		.4byte	0x466
 1320 04b9 04       		.byte	0x4
 1321 04ba 07       		.uleb128 0x7
 1322 04bb 73313800 		.ascii	"s18\000"
 1323 04bf 0B       		.byte	0xb
 1324 04c0 0101     		.2byte	0x101
 1325 04c2 66040000 		.4byte	0x466
 1326 04c6 08       		.byte	0x8
 1327 04c7 07       		.uleb128 0x7
 1328 04c8 73313900 		.ascii	"s19\000"
 1329 04cc 0B       		.byte	0xb
 1330 04cd 0201     		.2byte	0x102
 1331 04cf 66040000 		.4byte	0x466
 1332 04d3 0C       		.byte	0xc
 1333 04d4 07       		.uleb128 0x7
 1334 04d5 73323000 		.ascii	"s20\000"
 1335 04d9 0B       		.byte	0xb
 1336 04da 0301     		.2byte	0x103
 1337 04dc 66040000 		.4byte	0x466
 1338 04e0 10       		.byte	0x10
 1339 04e1 07       		.uleb128 0x7
 1340 04e2 73323100 		.ascii	"s21\000"
 1341 04e6 0B       		.byte	0xb
 1342 04e7 0401     		.2byte	0x104
 1343 04e9 66040000 		.4byte	0x466
 1344 04ed 14       		.byte	0x14
 1345 04ee 07       		.uleb128 0x7
 1346 04ef 73323200 		.ascii	"s22\000"
 1347 04f3 0B       		.byte	0xb
 1348 04f4 0501     		.2byte	0x105
 1349 04f6 66040000 		.4byte	0x466
 1350 04fa 18       		.byte	0x18
 1351 04fb 07       		.uleb128 0x7
 1352 04fc 73323300 		.ascii	"s23\000"
 1353 0500 0B       		.byte	0xb
 1354 0501 0601     		.2byte	0x106
 1355 0503 66040000 		.4byte	0x466
 1356 0507 1C       		.byte	0x1c
 1357 0508 07       		.uleb128 0x7
 1358 0509 73323400 		.ascii	"s24\000"
 1359 050d 0B       		.byte	0xb
 1360 050e 0701     		.2byte	0x107
 1361 0510 66040000 		.4byte	0x466
 1362 0514 20       		.byte	0x20
 1363 0515 07       		.uleb128 0x7
 1364 0516 73323500 		.ascii	"s25\000"
 1365 051a 0B       		.byte	0xb
 1366 051b 0801     		.2byte	0x108
 1367 051d 66040000 		.4byte	0x466
 1368 0521 24       		.byte	0x24
ARM GAS  /var/folders/m4/4md61f0s1_g0rzfghffqnxvr0000gn/T//ccqtBXJY.s 			page 25


 1369 0522 07       		.uleb128 0x7
 1370 0523 73323600 		.ascii	"s26\000"
 1371 0527 0B       		.byte	0xb
 1372 0528 0901     		.2byte	0x109
 1373 052a 66040000 		.4byte	0x466
 1374 052e 28       		.byte	0x28
 1375 052f 07       		.uleb128 0x7
 1376 0530 73323700 		.ascii	"s27\000"
 1377 0534 0B       		.byte	0xb
 1378 0535 0A01     		.2byte	0x10a
 1379 0537 66040000 		.4byte	0x466
 1380 053b 2C       		.byte	0x2c
 1381 053c 07       		.uleb128 0x7
 1382 053d 73323800 		.ascii	"s28\000"
 1383 0541 0B       		.byte	0xb
 1384 0542 0B01     		.2byte	0x10b
 1385 0544 66040000 		.4byte	0x466
 1386 0548 30       		.byte	0x30
 1387 0549 07       		.uleb128 0x7
 1388 054a 73323900 		.ascii	"s29\000"
 1389 054e 0B       		.byte	0xb
 1390 054f 0C01     		.2byte	0x10c
 1391 0551 66040000 		.4byte	0x466
 1392 0555 34       		.byte	0x34
 1393 0556 07       		.uleb128 0x7
 1394 0557 73333000 		.ascii	"s30\000"
 1395 055b 0B       		.byte	0xb
 1396 055c 0D01     		.2byte	0x10d
 1397 055e 66040000 		.4byte	0x466
 1398 0562 38       		.byte	0x38
 1399 0563 07       		.uleb128 0x7
 1400 0564 73333100 		.ascii	"s31\000"
 1401 0568 0B       		.byte	0xb
 1402 0569 0E01     		.2byte	0x10e
 1403 056b 66040000 		.4byte	0x466
 1404 056f 3C       		.byte	0x3c
 1405 0570 07       		.uleb128 0x7
 1406 0571 723400   		.ascii	"r4\000"
 1407 0574 0B       		.byte	0xb
 1408 0575 1001     		.2byte	0x110
 1409 0577 66040000 		.4byte	0x466
 1410 057b 40       		.byte	0x40
 1411 057c 07       		.uleb128 0x7
 1412 057d 723500   		.ascii	"r5\000"
 1413 0580 0B       		.byte	0xb
 1414 0581 1101     		.2byte	0x111
 1415 0583 66040000 		.4byte	0x466
 1416 0587 44       		.byte	0x44
 1417 0588 07       		.uleb128 0x7
 1418 0589 723600   		.ascii	"r6\000"
 1419 058c 0B       		.byte	0xb
 1420 058d 1201     		.2byte	0x112
 1421 058f 66040000 		.4byte	0x466
 1422 0593 48       		.byte	0x48
 1423 0594 07       		.uleb128 0x7
 1424 0595 723700   		.ascii	"r7\000"
 1425 0598 0B       		.byte	0xb
ARM GAS  /var/folders/m4/4md61f0s1_g0rzfghffqnxvr0000gn/T//ccqtBXJY.s 			page 26


 1426 0599 1301     		.2byte	0x113
 1427 059b 66040000 		.4byte	0x466
 1428 059f 4C       		.byte	0x4c
 1429 05a0 07       		.uleb128 0x7
 1430 05a1 723800   		.ascii	"r8\000"
 1431 05a4 0B       		.byte	0xb
 1432 05a5 1401     		.2byte	0x114
 1433 05a7 66040000 		.4byte	0x466
 1434 05ab 50       		.byte	0x50
 1435 05ac 07       		.uleb128 0x7
 1436 05ad 723900   		.ascii	"r9\000"
 1437 05b0 0B       		.byte	0xb
 1438 05b1 1501     		.2byte	0x115
 1439 05b3 66040000 		.4byte	0x466
 1440 05b7 54       		.byte	0x54
 1441 05b8 07       		.uleb128 0x7
 1442 05b9 72313000 		.ascii	"r10\000"
 1443 05bd 0B       		.byte	0xb
 1444 05be 1601     		.2byte	0x116
 1445 05c0 66040000 		.4byte	0x466
 1446 05c4 58       		.byte	0x58
 1447 05c5 07       		.uleb128 0x7
 1448 05c6 72313100 		.ascii	"r11\000"
 1449 05ca 0B       		.byte	0xb
 1450 05cb 1701     		.2byte	0x117
 1451 05cd 66040000 		.4byte	0x466
 1452 05d1 5C       		.byte	0x5c
 1453 05d2 07       		.uleb128 0x7
 1454 05d3 6C7200   		.ascii	"lr\000"
 1455 05d6 0B       		.byte	0xb
 1456 05d7 1801     		.2byte	0x118
 1457 05d9 66040000 		.4byte	0x466
 1458 05dd 60       		.byte	0x60
 1459 05de 00       		.byte	0
 1460 05df 09       		.uleb128 0x9
 1461 05e0 04       		.byte	0x4
 1462 05e1 95040000 		.4byte	0x495
 1463 05e5 10       		.uleb128 0x10
 1464 05e6 04       		.byte	0x4
 1465 05e7 0C       		.byte	0xc
 1466 05e8 38       		.byte	0x38
 1467 05e9 FA050000 		.4byte	0x5fa
 1468 05ed 06       		.uleb128 0x6
 1469 05ee 6D060000 		.4byte	.LASF86
 1470 05f2 0C       		.byte	0xc
 1471 05f3 3C       		.byte	0x3c
 1472 05f4 C3000000 		.4byte	0xc3
 1473 05f8 00       		.byte	0
 1474 05f9 00       		.byte	0
 1475 05fa 04       		.uleb128 0x4
 1476 05fb 69030000 		.4byte	.LASF87
 1477 05ff 0C       		.byte	0xc
 1478 0600 3D       		.byte	0x3d
 1479 0601 E5050000 		.4byte	0x5e5
 1480 0605 11       		.uleb128 0x11
 1481 0606 04       		.byte	0x4
 1482 0607 02       		.byte	0x2
ARM GAS  /var/folders/m4/4md61f0s1_g0rzfghffqnxvr0000gn/T//ccqtBXJY.s 			page 27


 1483 0608 FA       		.byte	0xfa
 1484 0609 62060000 		.4byte	0x662
 1485 060d 12       		.uleb128 0x12
 1486 060e 13000000 		.4byte	.LASF88
 1487 0612 02       		.byte	0x2
 1488 0613 0101     		.2byte	0x101
 1489 0615 05010000 		.4byte	0x105
 1490 0619 12       		.uleb128 0x12
 1491 061a A7000000 		.4byte	.LASF89
 1492 061e 02       		.byte	0x2
 1493 061f 0801     		.2byte	0x108
 1494 0621 05010000 		.4byte	0x105
 1495 0625 12       		.uleb128 0x12
 1496 0626 DB060000 		.4byte	.LASF90
 1497 062a 02       		.byte	0x2
 1498 062b 0F01     		.2byte	0x10f
 1499 062d 29030000 		.4byte	0x329
 1500 0631 12       		.uleb128 0x12
 1501 0632 0D000000 		.4byte	.LASF91
 1502 0636 02       		.byte	0x2
 1503 0637 1601     		.2byte	0x116
 1504 0639 62060000 		.4byte	0x662
 1505 063d 12       		.uleb128 0x12
 1506 063e 20020000 		.4byte	.LASF92
 1507 0642 02       		.byte	0x2
 1508 0643 1E01     		.2byte	0x11e
 1509 0645 8D060000 		.4byte	0x68d
 1510 0649 12       		.uleb128 0x12
 1511 064a B5040000 		.4byte	.LASF93
 1512 064e 02       		.byte	0x2
 1513 064f 2701     		.2byte	0x127
 1514 0651 C4060000 		.4byte	0x6c4
 1515 0655 12       		.uleb128 0x12
 1516 0656 31040000 		.4byte	.LASF94
 1517 065a 02       		.byte	0x2
 1518 065b 2F01     		.2byte	0x12f
 1519 065d 10010000 		.4byte	0x110
 1520 0661 00       		.byte	0
 1521 0662 09       		.uleb128 0x9
 1522 0663 04       		.byte	0x4
 1523 0664 41020000 		.4byte	0x241
 1524 0668 05       		.uleb128 0x5
 1525 0669 73040000 		.4byte	.LASF95
 1526 066d 0C       		.byte	0xc
 1527 066e 0D       		.byte	0xd
 1528 066f 34       		.byte	0x34
 1529 0670 8D060000 		.4byte	0x68d
 1530 0674 06       		.uleb128 0x6
 1531 0675 85010000 		.4byte	.LASF96
 1532 0679 0D       		.byte	0xd
 1533 067a 35       		.byte	0x35
 1534 067b 76020000 		.4byte	0x276
 1535 067f 00       		.byte	0
 1536 0680 06       		.uleb128 0x6
 1537 0681 3B020000 		.4byte	.LASF97
 1538 0685 0D       		.byte	0xd
 1539 0686 37       		.byte	0x37
ARM GAS  /var/folders/m4/4md61f0s1_g0rzfghffqnxvr0000gn/T//ccqtBXJY.s 			page 28


 1540 0687 1B010000 		.4byte	0x11b
 1541 068b 08       		.byte	0x8
 1542 068c 00       		.byte	0
 1543 068d 09       		.uleb128 0x9
 1544 068e 04       		.byte	0x4
 1545 068f 68060000 		.4byte	0x668
 1546 0693 05       		.uleb128 0x5
 1547 0694 A6060000 		.4byte	.LASF98
 1548 0698 10       		.byte	0x10
 1549 0699 04       		.byte	0x4
 1550 069a 39       		.byte	0x39
 1551 069b C4060000 		.4byte	0x6c4
 1552 069f 06       		.uleb128 0x6
 1553 06a0 2D010000 		.4byte	.LASF99
 1554 06a4 04       		.byte	0x4
 1555 06a5 3A       		.byte	0x3a
 1556 06a6 76020000 		.4byte	0x276
 1557 06aa 00       		.byte	0
 1558 06ab 06       		.uleb128 0x6
 1559 06ac 4A070000 		.4byte	.LASF100
 1560 06b0 04       		.byte	0x4
 1561 06b1 3C       		.byte	0x3c
 1562 06b2 4C020000 		.4byte	0x24c
 1563 06b6 08       		.byte	0x8
 1564 06b7 06       		.uleb128 0x6
 1565 06b8 7A030000 		.4byte	.LASF101
 1566 06bc 04       		.byte	0x4
 1567 06bd 3E       		.byte	0x3e
 1568 06be 07070000 		.4byte	0x707
 1569 06c2 0C       		.byte	0xc
 1570 06c3 00       		.byte	0
 1571 06c4 09       		.uleb128 0x9
 1572 06c5 04       		.byte	0x4
 1573 06c6 93060000 		.4byte	0x693
 1574 06ca 09       		.uleb128 0x9
 1575 06cb 04       		.byte	0x4
 1576 06cc D7060000 		.4byte	0x6d7
 1577 06d0 03       		.uleb128 0x3
 1578 06d1 01       		.byte	0x1
 1579 06d2 08       		.byte	0x8
 1580 06d3 F2040000 		.4byte	.LASF102
 1581 06d7 13       		.uleb128 0x13
 1582 06d8 D0060000 		.4byte	0x6d0
 1583 06dc 14       		.uleb128 0x14
 1584 06dd 26010000 		.4byte	0x126
 1585 06e1 09       		.uleb128 0x9
 1586 06e2 04       		.byte	0x4
 1587 06e3 2B030000 		.4byte	0x32b
 1588 06e7 14       		.uleb128 0x14
 1589 06e8 CA060000 		.4byte	0x6ca
 1590 06ec 15       		.uleb128 0x15
 1591 06ed 71040000 		.4byte	0x471
 1592 06f1 FC060000 		.4byte	0x6fc
 1593 06f5 16       		.uleb128 0x16
 1594 06f6 5F040000 		.4byte	0x45f
 1595 06fa 3A       		.byte	0x3a
 1596 06fb 00       		.byte	0
ARM GAS  /var/folders/m4/4md61f0s1_g0rzfghffqnxvr0000gn/T//ccqtBXJY.s 			page 29


 1597 06fc 04       		.uleb128 0x4
 1598 06fd C7010000 		.4byte	.LASF103
 1599 0701 04       		.byte	0x4
 1600 0702 34       		.byte	0x34
 1601 0703 93060000 		.4byte	0x693
 1602 0707 09       		.uleb128 0x9
 1603 0708 04       		.byte	0x4
 1604 0709 FC060000 		.4byte	0x6fc
 1605 070d 05       		.uleb128 0x5
 1606 070e 35030000 		.4byte	.LASF104
 1607 0712 08       		.byte	0x8
 1608 0713 0E       		.byte	0xe
 1609 0714 3B       		.byte	0x3b
 1610 0715 26070000 		.4byte	0x726
 1611 0719 06       		.uleb128 0x6
 1612 071a 6B040000 		.4byte	.LASF105
 1613 071e 0E       		.byte	0xe
 1614 071f 3C       		.byte	0x3c
 1615 0720 76020000 		.4byte	0x276
 1616 0724 00       		.byte	0
 1617 0725 00       		.byte	0
 1618 0726 04       		.uleb128 0x4
 1619 0727 10010000 		.4byte	.LASF106
 1620 072b 0E       		.byte	0xe
 1621 072c 3E       		.byte	0x3e
 1622 072d 0D070000 		.4byte	0x70d
 1623 0731 17       		.uleb128 0x17
 1624 0732 55060000 		.4byte	.LASF109
 1625 0736 03       		.byte	0x3
 1626 0737 2202     		.2byte	0x222
 1627 0739 03       		.byte	0x3
 1628 073a 4B070000 		.4byte	0x74b
 1629 073e 18       		.uleb128 0x18
 1630 073f CF010000 		.4byte	.LASF111
 1631 0743 03       		.byte	0x3
 1632 0744 2202     		.2byte	0x222
 1633 0746 AD000000 		.4byte	0xad
 1634 074a 00       		.byte	0
 1635 074b 19       		.uleb128 0x19
 1636 074c 75000000 		.4byte	.LASF107
 1637 0750 0B       		.byte	0xb
 1638 0751 C801     		.2byte	0x1c8
 1639 0753 03       		.byte	0x3
 1640 0754 19       		.uleb128 0x19
 1641 0755 3C010000 		.4byte	.LASF108
 1642 0759 0B       		.byte	0xb
 1643 075a E001     		.2byte	0x1e0
 1644 075c 03       		.byte	0x3
 1645 075d 1A       		.uleb128 0x1a
 1646 075e C5060000 		.4byte	.LASF120
 1647 0762 05       		.byte	0x5
 1648 0763 AE       		.byte	0xae
 1649 0764 4C020000 		.4byte	0x24c
 1650 0768 03       		.byte	0x3
 1651 0769 17       		.uleb128 0x17
 1652 076a 6A000000 		.4byte	.LASF110
 1653 076e 02       		.byte	0x2
ARM GAS  /var/folders/m4/4md61f0s1_g0rzfghffqnxvr0000gn/T//ccqtBXJY.s 			page 30


 1654 076f 5A02     		.2byte	0x25a
 1655 0771 03       		.byte	0x3
 1656 0772 83070000 		.4byte	0x783
 1657 0776 1B       		.uleb128 0x1b
 1658 0777 74717000 		.ascii	"tqp\000"
 1659 077b 02       		.byte	0x2
 1660 077c 5A02     		.2byte	0x25a
 1661 077e 83070000 		.4byte	0x783
 1662 0782 00       		.byte	0
 1663 0783 09       		.uleb128 0x9
 1664 0784 04       		.byte	0x4
 1665 0785 76020000 		.4byte	0x276
 1666 0789 1C       		.uleb128 0x1c
 1667 078a 6E010000 		.4byte	.LASF114
 1668 078e 02       		.byte	0x2
 1669 078f 7502     		.2byte	0x275
 1670 0791 A7070000 		.4byte	0x7a7
 1671 0795 03       		.byte	0x3
 1672 0796 A7070000 		.4byte	0x7a7
 1673 079a 1B       		.uleb128 0x1b
 1674 079b 74717000 		.ascii	"tqp\000"
 1675 079f 02       		.byte	0x2
 1676 07a0 7502     		.2byte	0x275
 1677 07a2 AE070000 		.4byte	0x7ae
 1678 07a6 00       		.byte	0
 1679 07a7 03       		.uleb128 0x3
 1680 07a8 01       		.byte	0x1
 1681 07a9 02       		.byte	0x2
 1682 07aa E8030000 		.4byte	.LASF112
 1683 07ae 09       		.uleb128 0x9
 1684 07af 04       		.byte	0x4
 1685 07b0 B4070000 		.4byte	0x7b4
 1686 07b4 13       		.uleb128 0x13
 1687 07b5 76020000 		.4byte	0x276
 1688 07b9 19       		.uleb128 0x19
 1689 07ba 50040000 		.4byte	.LASF113
 1690 07be 0F       		.byte	0xf
 1691 07bf 5A01     		.2byte	0x15a
 1692 07c1 03       		.byte	0x3
 1693 07c2 1C       		.uleb128 0x1c
 1694 07c3 1A060000 		.4byte	.LASF115
 1695 07c7 02       		.byte	0x2
 1696 07c8 9F02     		.2byte	0x29f
 1697 07ca 4C020000 		.4byte	0x24c
 1698 07ce 03       		.byte	0x3
 1699 07cf EB070000 		.4byte	0x7eb
 1700 07d3 1B       		.uleb128 0x1b
 1701 07d4 74717000 		.ascii	"tqp\000"
 1702 07d8 02       		.byte	0x2
 1703 07d9 9F02     		.2byte	0x29f
 1704 07db 83070000 		.4byte	0x783
 1705 07df 1D       		.uleb128 0x1d
 1706 07e0 747000   		.ascii	"tp\000"
 1707 07e3 02       		.byte	0x2
 1708 07e4 A002     		.2byte	0x2a0
 1709 07e6 4C020000 		.4byte	0x24c
 1710 07ea 00       		.byte	0
ARM GAS  /var/folders/m4/4md61f0s1_g0rzfghffqnxvr0000gn/T//ccqtBXJY.s 			page 31


 1711 07eb 17       		.uleb128 0x17
 1712 07ec 1B070000 		.4byte	.LASF116
 1713 07f0 0F       		.byte	0xf
 1714 07f1 6601     		.2byte	0x166
 1715 07f3 03       		.byte	0x3
 1716 07f4 06080000 		.4byte	0x806
 1717 07f8 1E       		.uleb128 0x1e
 1718 07f9 47040000 		.4byte	.LASF117
 1719 07fd 16080000 		.4byte	0x816
 1720 0801 1B070000 		.4byte	.LASF116
 1721 0805 00       		.byte	0
 1722 0806 15       		.uleb128 0x15
 1723 0807 D0060000 		.4byte	0x6d0
 1724 080b 16080000 		.4byte	0x816
 1725 080f 16       		.uleb128 0x16
 1726 0810 5F040000 		.4byte	0x45f
 1727 0814 0B       		.byte	0xb
 1728 0815 00       		.byte	0
 1729 0816 13       		.uleb128 0x13
 1730 0817 06080000 		.4byte	0x806
 1731 081b 1F       		.uleb128 0x1f
 1732 081c 7F000000 		.4byte	.LASF118
 1733 0820 01       		.byte	0x1
 1734 0821 95       		.byte	0x95
 1735 0822 01       		.byte	0x1
 1736 0823 3F080000 		.4byte	0x83f
 1737 0827 20       		.uleb128 0x20
 1738 0828 637000   		.ascii	"cp\000"
 1739 082b 01       		.byte	0x1
 1740 082c 95       		.byte	0x95
 1741 082d 3F080000 		.4byte	0x83f
 1742 0831 1E       		.uleb128 0x1e
 1743 0832 47040000 		.4byte	.LASF117
 1744 0836 55080000 		.4byte	0x855
 1745 083a 7F000000 		.4byte	.LASF118
 1746 083e 00       		.byte	0
 1747 083f 09       		.uleb128 0x9
 1748 0840 04       		.byte	0x4
 1749 0841 26070000 		.4byte	0x726
 1750 0845 15       		.uleb128 0x15
 1751 0846 D0060000 		.4byte	0x6d0
 1752 084a 55080000 		.4byte	0x855
 1753 084e 16       		.uleb128 0x16
 1754 084f 5F040000 		.4byte	0x45f
 1755 0853 10       		.byte	0x10
 1756 0854 00       		.byte	0
 1757 0855 13       		.uleb128 0x13
 1758 0856 45080000 		.4byte	0x845
 1759 085a 17       		.uleb128 0x17
 1760 085b 38070000 		.4byte	.LASF119
 1761 085f 02       		.byte	0x2
 1762 0860 8B02     		.2byte	0x28b
 1763 0862 03       		.byte	0x3
 1764 0863 8A080000 		.4byte	0x88a
 1765 0867 1B       		.uleb128 0x1b
 1766 0868 747000   		.ascii	"tp\000"
 1767 086b 02       		.byte	0x2
ARM GAS  /var/folders/m4/4md61f0s1_g0rzfghffqnxvr0000gn/T//ccqtBXJY.s 			page 32


 1768 086c 8B02     		.2byte	0x28b
 1769 086e 4C020000 		.4byte	0x24c
 1770 0872 1B       		.uleb128 0x1b
 1771 0873 74717000 		.ascii	"tqp\000"
 1772 0877 02       		.byte	0x2
 1773 0878 8B02     		.2byte	0x28b
 1774 087a 83070000 		.4byte	0x783
 1775 087e 1D       		.uleb128 0x1d
 1776 087f 637000   		.ascii	"cp\000"
 1777 0882 02       		.byte	0x2
 1778 0883 8D02     		.2byte	0x28d
 1779 0885 4C020000 		.4byte	0x24c
 1780 0889 00       		.byte	0
 1781 088a 1A       		.uleb128 0x1a
 1782 088b 99040000 		.4byte	.LASF121
 1783 088f 04       		.byte	0x4
 1784 0890 90       		.byte	0x90
 1785 0891 07070000 		.4byte	0x707
 1786 0895 03       		.byte	0x3
 1787 0896 21       		.uleb128 0x21
 1788 0897 09060000 		.4byte	.LASF122
 1789 089b 01       		.byte	0x1
 1790 089c 4B       		.byte	0x4b
 1791 089d 00000000 		.4byte	.LFB231
 1792 08a1 06000000 		.4byte	.LFE231-.LFB231
 1793 08a5 01       		.uleb128 0x1
 1794 08a6 9C       		.byte	0x9c
 1795 08a7 DA080000 		.4byte	0x8da
 1796 08ab 22       		.uleb128 0x22
 1797 08ac 637000   		.ascii	"cp\000"
 1798 08af 01       		.byte	0x1
 1799 08b0 4B       		.byte	0x4b
 1800 08b1 3F080000 		.4byte	0x83f
 1801 08b5 01       		.uleb128 0x1
 1802 08b6 50       		.byte	0x50
 1803 08b7 23       		.uleb128 0x23
 1804 08b8 47040000 		.4byte	.LASF117
 1805 08bc DA080000 		.4byte	0x8da
 1806 08c0 24       		.uleb128 0x24
 1807 08c1 69070000 		.4byte	0x769
 1808 08c5 00000000 		.4byte	.LBB89
 1809 08c9 06000000 		.4byte	.LBE89-.LBB89
 1810 08cd 01       		.byte	0x1
 1811 08ce 4F       		.byte	0x4f
 1812 08cf 25       		.uleb128 0x25
 1813 08d0 76070000 		.4byte	0x776
 1814 08d4 00000000 		.4byte	.LLST0
 1815 08d8 00       		.byte	0
 1816 08d9 00       		.byte	0
 1817 08da 13       		.uleb128 0x13
 1818 08db 45080000 		.4byte	0x845
 1819 08df 21       		.uleb128 0x21
 1820 08e0 D5010000 		.4byte	.LASF123
 1821 08e4 01       		.byte	0x1
 1822 08e5 59       		.byte	0x59
 1823 08e6 00000000 		.4byte	.LFB232
 1824 08ea 26000000 		.4byte	.LFE232-.LFB232
ARM GAS  /var/folders/m4/4md61f0s1_g0rzfghffqnxvr0000gn/T//ccqtBXJY.s 			page 33


 1825 08ee 01       		.uleb128 0x1
 1826 08ef 9C       		.byte	0x9c
 1827 08f0 F5090000 		.4byte	0x9f5
 1828 08f4 26       		.uleb128 0x26
 1829 08f5 637000   		.ascii	"cp\000"
 1830 08f8 01       		.byte	0x1
 1831 08f9 59       		.byte	0x59
 1832 08fa 3F080000 		.4byte	0x83f
 1833 08fe 13000000 		.4byte	.LLST1
 1834 0902 23       		.uleb128 0x23
 1835 0903 47040000 		.4byte	.LASF117
 1836 0907 050A0000 		.4byte	0xa05
 1837 090b 27       		.uleb128 0x27
 1838 090c B9070000 		.4byte	0x7b9
 1839 0910 02000000 		.4byte	.LBB91
 1840 0914 06000000 		.4byte	.LBE91-.LBB91
 1841 0918 01       		.byte	0x1
 1842 0919 5D       		.byte	0x5d
 1843 091a 4A090000 		.4byte	0x94a
 1844 091e 28       		.uleb128 0x28
 1845 091f 4B070000 		.4byte	0x74b
 1846 0923 02000000 		.4byte	.LBB92
 1847 0927 06000000 		.4byte	.LBE92-.LBB92
 1848 092b 0F       		.byte	0xf
 1849 092c 5C01     		.2byte	0x15c
 1850 092e 28       		.uleb128 0x28
 1851 092f 31070000 		.4byte	0x731
 1852 0933 02000000 		.4byte	.LBB93
 1853 0937 06000000 		.4byte	.LBE93-.LBB93
 1854 093b 0B       		.byte	0xb
 1855 093c D001     		.2byte	0x1d0
 1856 093e 25       		.uleb128 0x25
 1857 093f 3E070000 		.4byte	0x73e
 1858 0943 3F000000 		.4byte	.LLST2
 1859 0947 00       		.byte	0
 1860 0948 00       		.byte	0
 1861 0949 00       		.byte	0
 1862 094a 27       		.uleb128 0x27
 1863 094b 89070000 		.4byte	0x789
 1864 094f 08000000 		.4byte	.LBB95
 1865 0953 02000000 		.4byte	.LBE95-.LBB95
 1866 0957 01       		.byte	0x1
 1867 0958 5E       		.byte	0x5e
 1868 0959 67090000 		.4byte	0x967
 1869 095d 25       		.uleb128 0x25
 1870 095e 9A070000 		.4byte	0x79a
 1871 0962 54000000 		.4byte	.LLST3
 1872 0966 00       		.byte	0
 1873 0967 27       		.uleb128 0x27
 1874 0968 C2070000 		.4byte	0x7c2
 1875 096c 0E000000 		.4byte	.LBB97
 1876 0970 08000000 		.4byte	.LBE97-.LBB97
 1877 0974 01       		.byte	0x1
 1878 0975 5F       		.byte	0x5f
 1879 0976 97090000 		.4byte	0x997
 1880 097a 25       		.uleb128 0x25
 1881 097b D3070000 		.4byte	0x7d3
ARM GAS  /var/folders/m4/4md61f0s1_g0rzfghffqnxvr0000gn/T//ccqtBXJY.s 			page 34


 1882 097f 67000000 		.4byte	.LLST4
 1883 0983 29       		.uleb128 0x29
 1884 0984 0E000000 		.4byte	.LBB98
 1885 0988 08000000 		.4byte	.LBE98-.LBB98
 1886 098c 2A       		.uleb128 0x2a
 1887 098d DF070000 		.4byte	0x7df
 1888 0991 7A000000 		.4byte	.LLST5
 1889 0995 00       		.byte	0
 1890 0996 00       		.byte	0
 1891 0997 27       		.uleb128 0x27
 1892 0998 EB070000 		.4byte	0x7eb
 1893 099c 1E000000 		.4byte	.LBB99
 1894 09a0 08000000 		.4byte	.LBE99-.LBB99
 1895 09a4 01       		.byte	0x1
 1896 09a5 61       		.byte	0x61
 1897 09a6 E5090000 		.4byte	0x9e5
 1898 09aa 29       		.uleb128 0x29
 1899 09ab 1E000000 		.4byte	.LBB100
 1900 09af 08000000 		.4byte	.LBE100-.LBB100
 1901 09b3 2B       		.uleb128 0x2b
 1902 09b4 F8070000 		.4byte	0x7f8
 1903 09b8 28       		.uleb128 0x28
 1904 09b9 54070000 		.4byte	0x754
 1905 09bd 1E000000 		.4byte	.LBB101
 1906 09c1 08000000 		.4byte	.LBE101-.LBB101
 1907 09c5 0F       		.byte	0xf
 1908 09c6 7301     		.2byte	0x173
 1909 09c8 28       		.uleb128 0x28
 1910 09c9 31070000 		.4byte	0x731
 1911 09cd 1E000000 		.4byte	.LBB102
 1912 09d1 08000000 		.4byte	.LBE102-.LBB102
 1913 09d5 0B       		.byte	0xb
 1914 09d6 E301     		.2byte	0x1e3
 1915 09d8 25       		.uleb128 0x25
 1916 09d9 3E070000 		.4byte	0x73e
 1917 09dd 8D000000 		.4byte	.LLST6
 1918 09e1 00       		.byte	0
 1919 09e2 00       		.byte	0
 1920 09e3 00       		.byte	0
 1921 09e4 00       		.byte	0
 1922 09e5 2C       		.uleb128 0x2c
 1923 09e6 1E000000 		.4byte	.LVL8
 1924 09ea 23100000 		.4byte	0x1023
 1925 09ee 2D       		.uleb128 0x2d
 1926 09ef 01       		.uleb128 0x1
 1927 09f0 51       		.byte	0x51
 1928 09f1 01       		.uleb128 0x1
 1929 09f2 30       		.byte	0x30
 1930 09f3 00       		.byte	0
 1931 09f4 00       		.byte	0
 1932 09f5 15       		.uleb128 0x15
 1933 09f6 D0060000 		.4byte	0x6d0
 1934 09fa 050A0000 		.4byte	0xa05
 1935 09fe 16       		.uleb128 0x16
 1936 09ff 5F040000 		.4byte	0x45f
 1937 0a03 0C       		.byte	0xc
 1938 0a04 00       		.byte	0
ARM GAS  /var/folders/m4/4md61f0s1_g0rzfghffqnxvr0000gn/T//ccqtBXJY.s 			page 35


 1939 0a05 13       		.uleb128 0x13
 1940 0a06 F5090000 		.4byte	0x9f5
 1941 0a0a 21       		.uleb128 0x21
 1942 0a0b DA030000 		.4byte	.LASF124
 1943 0a0f 01       		.byte	0x1
 1944 0a10 6F       		.byte	0x6f
 1945 0a11 00000000 		.4byte	.LFB233
 1946 0a15 18000000 		.4byte	.LFE233-.LFB233
 1947 0a19 01       		.uleb128 0x1
 1948 0a1a 9C       		.byte	0x9c
 1949 0a1b 9D0A0000 		.4byte	0xa9d
 1950 0a1f 26       		.uleb128 0x26
 1951 0a20 637000   		.ascii	"cp\000"
 1952 0a23 01       		.byte	0x1
 1953 0a24 6F       		.byte	0x6f
 1954 0a25 3F080000 		.4byte	0x83f
 1955 0a29 A1000000 		.4byte	.LLST7
 1956 0a2d 23       		.uleb128 0x23
 1957 0a2e 47040000 		.4byte	.LASF117
 1958 0a32 AD0A0000 		.4byte	0xaad
 1959 0a36 27       		.uleb128 0x27
 1960 0a37 89070000 		.4byte	0x789
 1961 0a3b 00000000 		.4byte	.LBB104
 1962 0a3f 02000000 		.4byte	.LBE104-.LBB104
 1963 0a43 01       		.byte	0x1
 1964 0a44 74       		.byte	0x74
 1965 0a45 530A0000 		.4byte	0xa53
 1966 0a49 25       		.uleb128 0x25
 1967 0a4a 9A070000 		.4byte	0x79a
 1968 0a4e D9000000 		.4byte	.LLST8
 1969 0a52 00       		.byte	0
 1970 0a53 29       		.uleb128 0x29
 1971 0a54 06000000 		.4byte	.LBB106
 1972 0a58 12000000 		.4byte	.LBE106-.LBB106
 1973 0a5c 2E       		.uleb128 0x2e
 1974 0a5d 747000   		.ascii	"tp\000"
 1975 0a60 01       		.byte	0x1
 1976 0a61 75       		.byte	0x75
 1977 0a62 4C020000 		.4byte	0x24c
 1978 0a66 2F       		.uleb128 0x2f
 1979 0a67 C2070000 		.4byte	0x7c2
 1980 0a6b 06000000 		.4byte	.LBB107
 1981 0a6f 00000000 		.4byte	.Ldebug_ranges0+0
 1982 0a73 01       		.byte	0x1
 1983 0a74 75       		.byte	0x75
 1984 0a75 920A0000 		.4byte	0xa92
 1985 0a79 25       		.uleb128 0x25
 1986 0a7a D3070000 		.4byte	0x7d3
 1987 0a7e EC000000 		.4byte	.LLST9
 1988 0a82 30       		.uleb128 0x30
 1989 0a83 00000000 		.4byte	.Ldebug_ranges0+0
 1990 0a87 2A       		.uleb128 0x2a
 1991 0a88 DF070000 		.4byte	0x7df
 1992 0a8c FF000000 		.4byte	.LLST10
 1993 0a90 00       		.byte	0
 1994 0a91 00       		.byte	0
 1995 0a92 31       		.uleb128 0x31
ARM GAS  /var/folders/m4/4md61f0s1_g0rzfghffqnxvr0000gn/T//ccqtBXJY.s 			page 36


 1996 0a93 16000000 		.4byte	.LVL16
 1997 0a97 2F100000 		.4byte	0x102f
 1998 0a9b 00       		.byte	0
 1999 0a9c 00       		.byte	0
 2000 0a9d 15       		.uleb128 0x15
 2001 0a9e D0060000 		.4byte	0x6d0
 2002 0aa2 AD0A0000 		.4byte	0xaad
 2003 0aa6 16       		.uleb128 0x16
 2004 0aa7 5F040000 		.4byte	0x45f
 2005 0aab 0D       		.byte	0xd
 2006 0aac 00       		.byte	0
 2007 0aad 13       		.uleb128 0x13
 2008 0aae 9D0A0000 		.4byte	0xa9d
 2009 0ab2 21       		.uleb128 0x21
 2010 0ab3 98030000 		.4byte	.LASF125
 2011 0ab7 01       		.byte	0x1
 2012 0ab8 82       		.byte	0x82
 2013 0ab9 00000000 		.4byte	.LFB234
 2014 0abd 34000000 		.4byte	.LFE234-.LFB234
 2015 0ac1 01       		.uleb128 0x1
 2016 0ac2 9C       		.byte	0x9c
 2017 0ac3 EA0B0000 		.4byte	0xbea
 2018 0ac7 26       		.uleb128 0x26
 2019 0ac8 637000   		.ascii	"cp\000"
 2020 0acb 01       		.byte	0x1
 2021 0acc 82       		.byte	0x82
 2022 0acd 3F080000 		.4byte	0x83f
 2023 0ad1 12010000 		.4byte	.LLST11
 2024 0ad5 27       		.uleb128 0x27
 2025 0ad6 B9070000 		.4byte	0x7b9
 2026 0ada 04000000 		.4byte	.LBB111
 2027 0ade 06000000 		.4byte	.LBE111-.LBB111
 2028 0ae2 01       		.byte	0x1
 2029 0ae3 84       		.byte	0x84
 2030 0ae4 140B0000 		.4byte	0xb14
 2031 0ae8 28       		.uleb128 0x28
 2032 0ae9 4B070000 		.4byte	0x74b
 2033 0aed 04000000 		.4byte	.LBB112
 2034 0af1 06000000 		.4byte	.LBE112-.LBB112
 2035 0af5 0F       		.byte	0xf
 2036 0af6 5C01     		.2byte	0x15c
 2037 0af8 28       		.uleb128 0x28
 2038 0af9 31070000 		.4byte	0x731
 2039 0afd 04000000 		.4byte	.LBB113
 2040 0b01 06000000 		.4byte	.LBE113-.LBB113
 2041 0b05 0B       		.byte	0xb
 2042 0b06 D001     		.2byte	0x1d0
 2043 0b08 25       		.uleb128 0x25
 2044 0b09 3E070000 		.4byte	0x73e
 2045 0b0d 30010000 		.4byte	.LLST12
 2046 0b11 00       		.byte	0
 2047 0b12 00       		.byte	0
 2048 0b13 00       		.byte	0
 2049 0b14 27       		.uleb128 0x27
 2050 0b15 1B080000 		.4byte	0x81b
 2051 0b19 0A000000 		.4byte	.LBB115
 2052 0b1d 1E000000 		.4byte	.LBE115-.LBB115
ARM GAS  /var/folders/m4/4md61f0s1_g0rzfghffqnxvr0000gn/T//ccqtBXJY.s 			page 37


 2053 0b21 01       		.byte	0x1
 2054 0b22 85       		.byte	0x85
 2055 0b23 920B0000 		.4byte	0xb92
 2056 0b27 32       		.uleb128 0x32
 2057 0b28 27080000 		.4byte	0x827
 2058 0b2c 29       		.uleb128 0x29
 2059 0b2d 0A000000 		.4byte	.LBB116
 2060 0b31 1E000000 		.4byte	.LBE116-.LBB116
 2061 0b35 2B       		.uleb128 0x2b
 2062 0b36 31080000 		.4byte	0x831
 2063 0b3a 2F       		.uleb128 0x2f
 2064 0b3b 89070000 		.4byte	0x789
 2065 0b3f 0A000000 		.4byte	.LBB117
 2066 0b43 18000000 		.4byte	.Ldebug_ranges0+0x18
 2067 0b47 01       		.byte	0x1
 2068 0b48 9D       		.byte	0x9d
 2069 0b49 570B0000 		.4byte	0xb57
 2070 0b4d 25       		.uleb128 0x25
 2071 0b4e 9A070000 		.4byte	0x79a
 2072 0b52 45010000 		.4byte	.LLST13
 2073 0b56 00       		.byte	0
 2074 0b57 27       		.uleb128 0x27
 2075 0b58 C2070000 		.4byte	0x7c2
 2076 0b5c 16000000 		.4byte	.LBB120
 2077 0b60 06000000 		.4byte	.LBE120-.LBB120
 2078 0b64 01       		.byte	0x1
 2079 0b65 9E       		.byte	0x9e
 2080 0b66 870B0000 		.4byte	0xb87
 2081 0b6a 25       		.uleb128 0x25
 2082 0b6b D3070000 		.4byte	0x7d3
 2083 0b6f 63010000 		.4byte	.LLST14
 2084 0b73 29       		.uleb128 0x29
 2085 0b74 16000000 		.4byte	.LBB121
 2086 0b78 06000000 		.4byte	.LBE121-.LBB121
 2087 0b7c 2A       		.uleb128 0x2a
 2088 0b7d DF070000 		.4byte	0x7df
 2089 0b81 76010000 		.4byte	.LLST15
 2090 0b85 00       		.byte	0
 2091 0b86 00       		.byte	0
 2092 0b87 33       		.uleb128 0x33
 2093 0b88 20000000 		.4byte	.LVL22
 2094 0b8c 2F100000 		.4byte	0x102f
 2095 0b90 00       		.byte	0
 2096 0b91 00       		.byte	0
 2097 0b92 27       		.uleb128 0x27
 2098 0b93 EB070000 		.4byte	0x7eb
 2099 0b97 2C000000 		.4byte	.LBB123
 2100 0b9b 06000000 		.4byte	.LBE123-.LBB123
 2101 0b9f 01       		.byte	0x1
 2102 0ba0 87       		.byte	0x87
 2103 0ba1 E00B0000 		.4byte	0xbe0
 2104 0ba5 29       		.uleb128 0x29
 2105 0ba6 2C000000 		.4byte	.LBB124
 2106 0baa 06000000 		.4byte	.LBE124-.LBB124
 2107 0bae 2B       		.uleb128 0x2b
 2108 0baf F8070000 		.4byte	0x7f8
 2109 0bb3 28       		.uleb128 0x28
ARM GAS  /var/folders/m4/4md61f0s1_g0rzfghffqnxvr0000gn/T//ccqtBXJY.s 			page 38


 2110 0bb4 54070000 		.4byte	0x754
 2111 0bb8 2C000000 		.4byte	.LBB125
 2112 0bbc 06000000 		.4byte	.LBE125-.LBB125
 2113 0bc0 0F       		.byte	0xf
 2114 0bc1 7301     		.2byte	0x173
 2115 0bc3 28       		.uleb128 0x28
 2116 0bc4 31070000 		.4byte	0x731
 2117 0bc8 2C000000 		.4byte	.LBB126
 2118 0bcc 06000000 		.4byte	.LBE126-.LBB126
 2119 0bd0 0B       		.byte	0xb
 2120 0bd1 E301     		.2byte	0x1e3
 2121 0bd3 25       		.uleb128 0x25
 2122 0bd4 3E070000 		.4byte	0x73e
 2123 0bd8 89010000 		.4byte	.LLST16
 2124 0bdc 00       		.byte	0
 2125 0bdd 00       		.byte	0
 2126 0bde 00       		.byte	0
 2127 0bdf 00       		.byte	0
 2128 0be0 33       		.uleb128 0x33
 2129 0be1 2C000000 		.4byte	.LVL25
 2130 0be5 3B100000 		.4byte	0x103b
 2131 0be9 00       		.byte	0
 2132 0bea 34       		.uleb128 0x34
 2133 0beb 1B080000 		.4byte	0x81b
 2134 0bef 00000000 		.4byte	.LFB235
 2135 0bf3 22000000 		.4byte	.LFE235-.LFB235
 2136 0bf7 01       		.uleb128 0x1
 2137 0bf8 9C       		.byte	0x9c
 2138 0bf9 620C0000 		.4byte	0xc62
 2139 0bfd 25       		.uleb128 0x25
 2140 0bfe 27080000 		.4byte	0x827
 2141 0c02 9D010000 		.4byte	.LLST17
 2142 0c06 2B       		.uleb128 0x2b
 2143 0c07 31080000 		.4byte	0x831
 2144 0c0b 2F       		.uleb128 0x2f
 2145 0c0c 89070000 		.4byte	0x789
 2146 0c10 04000000 		.4byte	.LBB128
 2147 0c14 30000000 		.4byte	.Ldebug_ranges0+0x30
 2148 0c18 01       		.byte	0x1
 2149 0c19 9D       		.byte	0x9d
 2150 0c1a 280C0000 		.4byte	0xc28
 2151 0c1e 25       		.uleb128 0x25
 2152 0c1f 9A070000 		.4byte	0x79a
 2153 0c23 BB010000 		.4byte	.LLST18
 2154 0c27 00       		.byte	0
 2155 0c28 27       		.uleb128 0x27
 2156 0c29 C2070000 		.4byte	0x7c2
 2157 0c2d 0E000000 		.4byte	.LBB131
 2158 0c31 06000000 		.4byte	.LBE131-.LBB131
 2159 0c35 01       		.byte	0x1
 2160 0c36 9E       		.byte	0x9e
 2161 0c37 580C0000 		.4byte	0xc58
 2162 0c3b 25       		.uleb128 0x25
 2163 0c3c D3070000 		.4byte	0x7d3
 2164 0c40 D9010000 		.4byte	.LLST19
 2165 0c44 29       		.uleb128 0x29
 2166 0c45 0E000000 		.4byte	.LBB132
ARM GAS  /var/folders/m4/4md61f0s1_g0rzfghffqnxvr0000gn/T//ccqtBXJY.s 			page 39


 2167 0c49 06000000 		.4byte	.LBE132-.LBB132
 2168 0c4d 2A       		.uleb128 0x2a
 2169 0c4e DF070000 		.4byte	0x7df
 2170 0c52 EC010000 		.4byte	.LLST20
 2171 0c56 00       		.byte	0
 2172 0c57 00       		.byte	0
 2173 0c58 33       		.uleb128 0x33
 2174 0c59 18000000 		.4byte	.LVL32
 2175 0c5d 2F100000 		.4byte	0x102f
 2176 0c61 00       		.byte	0
 2177 0c62 35       		.uleb128 0x35
 2178 0c63 FD050000 		.4byte	.LASF126
 2179 0c67 01       		.byte	0x1
 2180 0c68 CD       		.byte	0xcd
 2181 0c69 05010000 		.4byte	0x105
 2182 0c6d 00000000 		.4byte	.LFB237
 2183 0c71 44000000 		.4byte	.LFE237-.LFB237
 2184 0c75 01       		.uleb128 0x1
 2185 0c76 9C       		.byte	0x9c
 2186 0c77 360D0000 		.4byte	0xd36
 2187 0c7b 26       		.uleb128 0x26
 2188 0c7c 637000   		.ascii	"cp\000"
 2189 0c7f 01       		.byte	0x1
 2190 0c80 CD       		.byte	0xcd
 2191 0c81 3F080000 		.4byte	0x83f
 2192 0c85 FF010000 		.4byte	.LLST21
 2193 0c89 36       		.uleb128 0x36
 2194 0c8a 63747000 		.ascii	"ctp\000"
 2195 0c8e 01       		.byte	0x1
 2196 0c8f CE       		.byte	0xce
 2197 0c90 4C020000 		.4byte	0x24c
 2198 0c94 2B020000 		.4byte	.LLST22
 2199 0c98 2E       		.uleb128 0x2e
 2200 0c99 6D7000   		.ascii	"mp\000"
 2201 0c9c 01       		.byte	0x1
 2202 0c9d CF       		.byte	0xcf
 2203 0c9e 07070000 		.4byte	0x707
 2204 0ca2 36       		.uleb128 0x36
 2205 0ca3 6D736700 		.ascii	"msg\000"
 2206 0ca7 01       		.byte	0x1
 2207 0ca8 D0       		.byte	0xd0
 2208 0ca9 05010000 		.4byte	0x105
 2209 0cad 3E020000 		.4byte	.LLST23
 2210 0cb1 23       		.uleb128 0x23
 2211 0cb2 47040000 		.4byte	.LASF117
 2212 0cb6 360D0000 		.4byte	0xd36
 2213 0cba 37       		.uleb128 0x37
 2214 0cbb 8A080000 		.4byte	0x88a
 2215 0cbf 06000000 		.4byte	.LBB134
 2216 0cc3 02000000 		.4byte	.LBE134-.LBB134
 2217 0cc7 01       		.byte	0x1
 2218 0cc8 D7       		.byte	0xd7
 2219 0cc9 2F       		.uleb128 0x2f
 2220 0cca 5A080000 		.4byte	0x85a
 2221 0cce 12000000 		.4byte	.LBB136
 2222 0cd2 48000000 		.4byte	.Ldebug_ranges0+0x48
 2223 0cd6 01       		.byte	0x1
ARM GAS  /var/folders/m4/4md61f0s1_g0rzfghffqnxvr0000gn/T//ccqtBXJY.s 			page 40


 2224 0cd7 DD       		.byte	0xdd
 2225 0cd8 FE0C0000 		.4byte	0xcfe
 2226 0cdc 25       		.uleb128 0x25
 2227 0cdd 72080000 		.4byte	0x872
 2228 0ce1 5C020000 		.4byte	.LLST24
 2229 0ce5 25       		.uleb128 0x25
 2230 0ce6 67080000 		.4byte	0x867
 2231 0cea 6F020000 		.4byte	.LLST25
 2232 0cee 30       		.uleb128 0x30
 2233 0cef 48000000 		.4byte	.Ldebug_ranges0+0x48
 2234 0cf3 2A       		.uleb128 0x2a
 2235 0cf4 7E080000 		.4byte	0x87e
 2236 0cf8 82020000 		.4byte	.LLST26
 2237 0cfc 00       		.byte	0
 2238 0cfd 00       		.byte	0
 2239 0cfe 38       		.uleb128 0x38
 2240 0cff 10000000 		.4byte	.LVL38
 2241 0d03 47100000 		.4byte	0x1047
 2242 0d07 120D0000 		.4byte	0xd12
 2243 0d0b 2D       		.uleb128 0x2d
 2244 0d0c 01       		.uleb128 0x1
 2245 0d0d 50       		.byte	0x50
 2246 0d0e 02       		.uleb128 0x2
 2247 0d0f 76       		.byte	0x76
 2248 0d10 00       		.sleb128 0
 2249 0d11 00       		.byte	0
 2250 0d12 38       		.uleb128 0x38
 2251 0d13 34000000 		.4byte	.LVL44
 2252 0d17 52100000 		.4byte	0x1052
 2253 0d1b 250D0000 		.4byte	0xd25
 2254 0d1f 2D       		.uleb128 0x2d
 2255 0d20 01       		.uleb128 0x1
 2256 0d21 50       		.byte	0x50
 2257 0d22 01       		.uleb128 0x1
 2258 0d23 37       		.byte	0x37
 2259 0d24 00       		.byte	0
 2260 0d25 2C       		.uleb128 0x2c
 2261 0d26 3C000000 		.4byte	.LVL46
 2262 0d2a 5E100000 		.4byte	0x105e
 2263 0d2e 2D       		.uleb128 0x2d
 2264 0d2f 01       		.uleb128 0x1
 2265 0d30 50       		.byte	0x50
 2266 0d31 02       		.uleb128 0x2
 2267 0d32 76       		.byte	0x76
 2268 0d33 00       		.sleb128 0
 2269 0d34 00       		.byte	0
 2270 0d35 00       		.byte	0
 2271 0d36 13       		.uleb128 0x13
 2272 0d37 06080000 		.4byte	0x806
 2273 0d3b 35       		.uleb128 0x35
 2274 0d3c 84060000 		.4byte	.LASF127
 2275 0d40 01       		.byte	0x1
 2276 0d41 B3       		.byte	0xb3
 2277 0d42 05010000 		.4byte	0x105
 2278 0d46 00000000 		.4byte	.LFB236
 2279 0d4a 14000000 		.4byte	.LFE236-.LFB236
 2280 0d4e 01       		.uleb128 0x1
ARM GAS  /var/folders/m4/4md61f0s1_g0rzfghffqnxvr0000gn/T//ccqtBXJY.s 			page 41


 2281 0d4f 9C       		.byte	0x9c
 2282 0d50 0E0E0000 		.4byte	0xe0e
 2283 0d54 26       		.uleb128 0x26
 2284 0d55 637000   		.ascii	"cp\000"
 2285 0d58 01       		.byte	0x1
 2286 0d59 B3       		.byte	0xb3
 2287 0d5a 3F080000 		.4byte	0x83f
 2288 0d5e 95020000 		.4byte	.LLST27
 2289 0d62 39       		.uleb128 0x39
 2290 0d63 6D736700 		.ascii	"msg\000"
 2291 0d67 01       		.byte	0x1
 2292 0d68 B4       		.byte	0xb4
 2293 0d69 05010000 		.4byte	0x105
 2294 0d6d 01       		.uleb128 0x1
 2295 0d6e 50       		.byte	0x50
 2296 0d6f 27       		.uleb128 0x27
 2297 0d70 B9070000 		.4byte	0x7b9
 2298 0d74 02000000 		.4byte	.LBB140
 2299 0d78 06000000 		.4byte	.LBE140-.LBB140
 2300 0d7c 01       		.byte	0x1
 2301 0d7d B6       		.byte	0xb6
 2302 0d7e AE0D0000 		.4byte	0xdae
 2303 0d82 28       		.uleb128 0x28
 2304 0d83 4B070000 		.4byte	0x74b
 2305 0d87 02000000 		.4byte	.LBB141
 2306 0d8b 06000000 		.4byte	.LBE141-.LBB141
 2307 0d8f 0F       		.byte	0xf
 2308 0d90 5C01     		.2byte	0x15c
 2309 0d92 28       		.uleb128 0x28
 2310 0d93 31070000 		.4byte	0x731
 2311 0d97 02000000 		.4byte	.LBB142
 2312 0d9b 06000000 		.4byte	.LBE142-.LBB142
 2313 0d9f 0B       		.byte	0xb
 2314 0da0 D001     		.2byte	0x1d0
 2315 0da2 25       		.uleb128 0x25
 2316 0da3 3E070000 		.4byte	0x73e
 2317 0da7 B6020000 		.4byte	.LLST28
 2318 0dab 00       		.byte	0
 2319 0dac 00       		.byte	0
 2320 0dad 00       		.byte	0
 2321 0dae 27       		.uleb128 0x27
 2322 0daf EB070000 		.4byte	0x7eb
 2323 0db3 0C000000 		.4byte	.LBB144
 2324 0db7 06000000 		.4byte	.LBE144-.LBB144
 2325 0dbb 01       		.byte	0x1
 2326 0dbc B8       		.byte	0xb8
 2327 0dbd FC0D0000 		.4byte	0xdfc
 2328 0dc1 29       		.uleb128 0x29
 2329 0dc2 0C000000 		.4byte	.LBB145
 2330 0dc6 06000000 		.4byte	.LBE145-.LBB145
 2331 0dca 2B       		.uleb128 0x2b
 2332 0dcb F8070000 		.4byte	0x7f8
 2333 0dcf 28       		.uleb128 0x28
 2334 0dd0 54070000 		.4byte	0x754
 2335 0dd4 0C000000 		.4byte	.LBB146
 2336 0dd8 06000000 		.4byte	.LBE146-.LBB146
 2337 0ddc 0F       		.byte	0xf
ARM GAS  /var/folders/m4/4md61f0s1_g0rzfghffqnxvr0000gn/T//ccqtBXJY.s 			page 42


 2338 0ddd 7301     		.2byte	0x173
 2339 0ddf 28       		.uleb128 0x28
 2340 0de0 31070000 		.4byte	0x731
 2341 0de4 0C000000 		.4byte	.LBB147
 2342 0de8 06000000 		.4byte	.LBE147-.LBB147
 2343 0dec 0B       		.byte	0xb
 2344 0ded E301     		.2byte	0x1e3
 2345 0def 25       		.uleb128 0x25
 2346 0df0 3E070000 		.4byte	0x73e
 2347 0df4 CB020000 		.4byte	.LLST29
 2348 0df8 00       		.byte	0
 2349 0df9 00       		.byte	0
 2350 0dfa 00       		.byte	0
 2351 0dfb 00       		.byte	0
 2352 0dfc 2C       		.uleb128 0x2c
 2353 0dfd 0C000000 		.4byte	.LVL50
 2354 0e01 620C0000 		.4byte	0xc62
 2355 0e05 2D       		.uleb128 0x2d
 2356 0e06 01       		.uleb128 0x1
 2357 0e07 50       		.byte	0x50
 2358 0e08 03       		.uleb128 0x3
 2359 0e09 F3       		.byte	0xf3
 2360 0e0a 01       		.uleb128 0x1
 2361 0e0b 50       		.byte	0x50
 2362 0e0c 00       		.byte	0
 2363 0e0d 00       		.byte	0
 2364 0e0e 3A       		.uleb128 0x3a
 2365 0e0f 48030000 		.4byte	.LASF128
 2366 0e13 01       		.byte	0x1
 2367 0e14 2801     		.2byte	0x128
 2368 0e16 05010000 		.4byte	0x105
 2369 0e1a 00000000 		.4byte	.LFB239
 2370 0e1e 50000000 		.4byte	.LFE239-.LFB239
 2371 0e22 01       		.uleb128 0x1
 2372 0e23 9C       		.byte	0x9c
 2373 0e24 030F0000 		.4byte	0xf03
 2374 0e28 3B       		.uleb128 0x3b
 2375 0e29 637000   		.ascii	"cp\000"
 2376 0e2c 01       		.byte	0x1
 2377 0e2d 2801     		.2byte	0x128
 2378 0e2f 3F080000 		.4byte	0x83f
 2379 0e33 DF020000 		.4byte	.LLST30
 2380 0e37 3C       		.uleb128 0x3c
 2381 0e38 81030000 		.4byte	.LASF129
 2382 0e3c 01       		.byte	0x1
 2383 0e3d 2801     		.2byte	0x128
 2384 0e3f 26010000 		.4byte	0x126
 2385 0e43 0B030000 		.4byte	.LLST31
 2386 0e47 1D       		.uleb128 0x1d
 2387 0e48 6D7000   		.ascii	"mp\000"
 2388 0e4b 01       		.byte	0x1
 2389 0e4c 2901     		.2byte	0x129
 2390 0e4e 07070000 		.4byte	0x707
 2391 0e52 3D       		.uleb128 0x3d
 2392 0e53 6D736700 		.ascii	"msg\000"
 2393 0e57 01       		.byte	0x1
 2394 0e58 2A01     		.2byte	0x12a
ARM GAS  /var/folders/m4/4md61f0s1_g0rzfghffqnxvr0000gn/T//ccqtBXJY.s 			page 43


 2395 0e5a 05010000 		.4byte	0x105
 2396 0e5e 37030000 		.4byte	.LLST32
 2397 0e62 23       		.uleb128 0x23
 2398 0e63 47040000 		.4byte	.LASF117
 2399 0e67 130F0000 		.4byte	0xf13
 2400 0e6b 3E       		.uleb128 0x3e
 2401 0e6c 8A080000 		.4byte	0x88a
 2402 0e70 02000000 		.4byte	.LBB149
 2403 0e74 06000000 		.4byte	.LBE149-.LBB149
 2404 0e78 01       		.byte	0x1
 2405 0e79 3101     		.2byte	0x131
 2406 0e7b 8F0E0000 		.4byte	0xe8f
 2407 0e7f 37       		.uleb128 0x37
 2408 0e80 5D070000 		.4byte	0x75d
 2409 0e84 02000000 		.4byte	.LBB151
 2410 0e88 02000000 		.4byte	.LBE151-.LBB151
 2411 0e8c 04       		.byte	0x4
 2412 0e8d 92       		.byte	0x92
 2413 0e8e 00       		.byte	0
 2414 0e8f 3F       		.uleb128 0x3f
 2415 0e90 5A080000 		.4byte	0x85a
 2416 0e94 14000000 		.4byte	.LBB153
 2417 0e98 60000000 		.4byte	.Ldebug_ranges0+0x60
 2418 0e9c 01       		.byte	0x1
 2419 0e9d 3701     		.2byte	0x137
 2420 0e9f C50E0000 		.4byte	0xec5
 2421 0ea3 25       		.uleb128 0x25
 2422 0ea4 72080000 		.4byte	0x872
 2423 0ea8 60030000 		.4byte	.LLST33
 2424 0eac 25       		.uleb128 0x25
 2425 0ead 67080000 		.4byte	0x867
 2426 0eb1 73030000 		.4byte	.LLST34
 2427 0eb5 30       		.uleb128 0x30
 2428 0eb6 60000000 		.4byte	.Ldebug_ranges0+0x60
 2429 0eba 2A       		.uleb128 0x2a
 2430 0ebb 7E080000 		.4byte	0x87e
 2431 0ebf 86030000 		.4byte	.LLST35
 2432 0ec3 00       		.byte	0
 2433 0ec4 00       		.byte	0
 2434 0ec5 38       		.uleb128 0x38
 2435 0ec6 12000000 		.4byte	.LVL54
 2436 0eca 47100000 		.4byte	0x1047
 2437 0ece D90E0000 		.4byte	0xed9
 2438 0ed2 2D       		.uleb128 0x2d
 2439 0ed3 01       		.uleb128 0x1
 2440 0ed4 50       		.byte	0x50
 2441 0ed5 02       		.uleb128 0x2
 2442 0ed6 76       		.byte	0x76
 2443 0ed7 00       		.sleb128 0
 2444 0ed8 00       		.byte	0
 2445 0ed9 38       		.uleb128 0x38
 2446 0eda 3A000000 		.4byte	.LVL60
 2447 0ede 69100000 		.4byte	0x1069
 2448 0ee2 F20E0000 		.4byte	0xef2
 2449 0ee6 2D       		.uleb128 0x2d
 2450 0ee7 01       		.uleb128 0x1
 2451 0ee8 50       		.byte	0x50
ARM GAS  /var/folders/m4/4md61f0s1_g0rzfghffqnxvr0000gn/T//ccqtBXJY.s 			page 44


 2452 0ee9 01       		.uleb128 0x1
 2453 0eea 37       		.byte	0x37
 2454 0eeb 2D       		.uleb128 0x2d
 2455 0eec 01       		.uleb128 0x1
 2456 0eed 51       		.byte	0x51
 2457 0eee 02       		.uleb128 0x2
 2458 0eef 77       		.byte	0x77
 2459 0ef0 00       		.sleb128 0
 2460 0ef1 00       		.byte	0
 2461 0ef2 2C       		.uleb128 0x2c
 2462 0ef3 46000000 		.4byte	.LVL63
 2463 0ef7 5E100000 		.4byte	0x105e
 2464 0efb 2D       		.uleb128 0x2d
 2465 0efc 01       		.uleb128 0x1
 2466 0efd 50       		.byte	0x50
 2467 0efe 02       		.uleb128 0x2
 2468 0eff 76       		.byte	0x76
 2469 0f00 00       		.sleb128 0
 2470 0f01 00       		.byte	0
 2471 0f02 00       		.byte	0
 2472 0f03 15       		.uleb128 0x15
 2473 0f04 D0060000 		.4byte	0x6d0
 2474 0f08 130F0000 		.4byte	0xf13
 2475 0f0c 16       		.uleb128 0x16
 2476 0f0d 5F040000 		.4byte	0x45f
 2477 0f11 12       		.byte	0x12
 2478 0f12 00       		.byte	0
 2479 0f13 13       		.uleb128 0x13
 2480 0f14 030F0000 		.4byte	0xf03
 2481 0f18 3A       		.uleb128 0x3a
 2482 0f19 E9060000 		.4byte	.LASF130
 2483 0f1d 01       		.byte	0x1
 2484 0f1e 0201     		.2byte	0x102
 2485 0f20 05010000 		.4byte	0x105
 2486 0f24 00000000 		.4byte	.LFB238
 2487 0f28 14000000 		.4byte	.LFE238-.LFB238
 2488 0f2c 01       		.uleb128 0x1
 2489 0f2d 9C       		.byte	0x9c
 2490 0f2e 07100000 		.4byte	0x1007
 2491 0f32 3B       		.uleb128 0x3b
 2492 0f33 637000   		.ascii	"cp\000"
 2493 0f36 01       		.byte	0x1
 2494 0f37 0201     		.2byte	0x102
 2495 0f39 3F080000 		.4byte	0x83f
 2496 0f3d 99030000 		.4byte	.LLST36
 2497 0f41 3C       		.uleb128 0x3c
 2498 0f42 81030000 		.4byte	.LASF129
 2499 0f46 01       		.byte	0x1
 2500 0f47 0201     		.2byte	0x102
 2501 0f49 26010000 		.4byte	0x126
 2502 0f4d BA030000 		.4byte	.LLST37
 2503 0f51 40       		.uleb128 0x40
 2504 0f52 6D736700 		.ascii	"msg\000"
 2505 0f56 01       		.byte	0x1
 2506 0f57 0301     		.2byte	0x103
 2507 0f59 05010000 		.4byte	0x105
 2508 0f5d 01       		.uleb128 0x1
ARM GAS  /var/folders/m4/4md61f0s1_g0rzfghffqnxvr0000gn/T//ccqtBXJY.s 			page 45


 2509 0f5e 50       		.byte	0x50
 2510 0f5f 3E       		.uleb128 0x3e
 2511 0f60 B9070000 		.4byte	0x7b9
 2512 0f64 02000000 		.4byte	.LBB161
 2513 0f68 06000000 		.4byte	.LBE161-.LBB161
 2514 0f6c 01       		.byte	0x1
 2515 0f6d 0501     		.2byte	0x105
 2516 0f6f 9F0F0000 		.4byte	0xf9f
 2517 0f73 28       		.uleb128 0x28
 2518 0f74 4B070000 		.4byte	0x74b
 2519 0f78 02000000 		.4byte	.LBB162
 2520 0f7c 06000000 		.4byte	.LBE162-.LBB162
 2521 0f80 0F       		.byte	0xf
 2522 0f81 5C01     		.2byte	0x15c
 2523 0f83 28       		.uleb128 0x28
 2524 0f84 31070000 		.4byte	0x731
 2525 0f88 02000000 		.4byte	.LBB163
 2526 0f8c 06000000 		.4byte	.LBE163-.LBB163
 2527 0f90 0B       		.byte	0xb
 2528 0f91 D001     		.2byte	0x1d0
 2529 0f93 25       		.uleb128 0x25
 2530 0f94 3E070000 		.4byte	0x73e
 2531 0f98 DB030000 		.4byte	.LLST38
 2532 0f9c 00       		.byte	0
 2533 0f9d 00       		.byte	0
 2534 0f9e 00       		.byte	0
 2535 0f9f 3E       		.uleb128 0x3e
 2536 0fa0 EB070000 		.4byte	0x7eb
 2537 0fa4 0C000000 		.4byte	.LBB165
 2538 0fa8 06000000 		.4byte	.LBE165-.LBB165
 2539 0fac 01       		.byte	0x1
 2540 0fad 0701     		.2byte	0x107
 2541 0faf EE0F0000 		.4byte	0xfee
 2542 0fb3 29       		.uleb128 0x29
 2543 0fb4 0C000000 		.4byte	.LBB166
 2544 0fb8 06000000 		.4byte	.LBE166-.LBB166
 2545 0fbc 2B       		.uleb128 0x2b
 2546 0fbd F8070000 		.4byte	0x7f8
 2547 0fc1 28       		.uleb128 0x28
 2548 0fc2 54070000 		.4byte	0x754
 2549 0fc6 0C000000 		.4byte	.LBB167
 2550 0fca 06000000 		.4byte	.LBE167-.LBB167
 2551 0fce 0F       		.byte	0xf
 2552 0fcf 7301     		.2byte	0x173
 2553 0fd1 28       		.uleb128 0x28
 2554 0fd2 31070000 		.4byte	0x731
 2555 0fd6 0C000000 		.4byte	.LBB168
 2556 0fda 06000000 		.4byte	.LBE168-.LBB168
 2557 0fde 0B       		.byte	0xb
 2558 0fdf E301     		.2byte	0x1e3
 2559 0fe1 25       		.uleb128 0x25
 2560 0fe2 3E070000 		.4byte	0x73e
 2561 0fe6 F0030000 		.4byte	.LLST39
 2562 0fea 00       		.byte	0
 2563 0feb 00       		.byte	0
 2564 0fec 00       		.byte	0
 2565 0fed 00       		.byte	0
ARM GAS  /var/folders/m4/4md61f0s1_g0rzfghffqnxvr0000gn/T//ccqtBXJY.s 			page 46


 2566 0fee 2C       		.uleb128 0x2c
 2567 0fef 0C000000 		.4byte	.LVL67
 2568 0ff3 0E0E0000 		.4byte	0xe0e
 2569 0ff7 2D       		.uleb128 0x2d
 2570 0ff8 01       		.uleb128 0x1
 2571 0ff9 50       		.byte	0x50
 2572 0ffa 03       		.uleb128 0x3
 2573 0ffb F3       		.byte	0xf3
 2574 0ffc 01       		.uleb128 0x1
 2575 0ffd 50       		.byte	0x50
 2576 0ffe 2D       		.uleb128 0x2d
 2577 0fff 01       		.uleb128 0x1
 2578 1000 51       		.byte	0x51
 2579 1001 03       		.uleb128 0x3
 2580 1002 F3       		.byte	0xf3
 2581 1003 01       		.uleb128 0x1
 2582 1004 51       		.byte	0x51
 2583 1005 00       		.byte	0
 2584 1006 00       		.byte	0
 2585 1007 41       		.uleb128 0x41
 2586 1008 D1000000 		.4byte	.LASF131
 2587 100c 10       		.byte	0x10
 2588 100d FA06     		.2byte	0x6fa
 2589 100f 13100000 		.4byte	0x1013
 2590 1013 14       		.uleb128 0x14
 2591 1014 A2000000 		.4byte	0xa2
 2592 1018 42       		.uleb128 0x42
 2593 1019 636800   		.ascii	"ch\000"
 2594 101c 02       		.byte	0x2
 2595 101d 0902     		.2byte	0x209
 2596 101f F8030000 		.4byte	0x3f8
 2597 1023 43       		.uleb128 0x43
 2598 1024 5E020000 		.4byte	.LASF132
 2599 1028 5E020000 		.4byte	.LASF132
 2600 102c 02       		.byte	0x2
 2601 102d 1602     		.2byte	0x216
 2602 102f 43       		.uleb128 0x43
 2603 1030 C4040000 		.4byte	.LASF133
 2604 1034 C4040000 		.4byte	.LASF133
 2605 1038 02       		.byte	0x2
 2606 1039 1302     		.2byte	0x213
 2607 103b 43       		.uleb128 0x43
 2608 103c 8D010000 		.4byte	.LASF134
 2609 1040 8D010000 		.4byte	.LASF134
 2610 1044 02       		.byte	0x2
 2611 1045 1702     		.2byte	0x217
 2612 1047 44       		.uleb128 0x44
 2613 1048 F7010000 		.4byte	.LASF135
 2614 104c F7010000 		.4byte	.LASF135
 2615 1050 04       		.byte	0x4
 2616 1051 6D       		.byte	0x6d
 2617 1052 43       		.uleb128 0x43
 2618 1053 80040000 		.4byte	.LASF136
 2619 1057 80040000 		.4byte	.LASF136
 2620 105b 02       		.byte	0x2
 2621 105c 1402     		.2byte	0x214
 2622 105e 44       		.uleb128 0x44
ARM GAS  /var/folders/m4/4md61f0s1_g0rzfghffqnxvr0000gn/T//ccqtBXJY.s 			page 47


 2623 105f 2D070000 		.4byte	.LASF137
 2624 1063 2D070000 		.4byte	.LASF137
 2625 1067 04       		.byte	0x4
 2626 1068 69       		.byte	0x69
 2627 1069 43       		.uleb128 0x43
 2628 106a 06070000 		.4byte	.LASF138
 2629 106e 06070000 		.4byte	.LASF138
 2630 1072 02       		.byte	0x2
 2631 1073 1502     		.2byte	0x215
 2632 1075 00       		.byte	0
 2633              		.section	.debug_abbrev,"",%progbits
 2634              	.Ldebug_abbrev0:
 2635 0000 01       		.uleb128 0x1
 2636 0001 11       		.uleb128 0x11
 2637 0002 01       		.byte	0x1
 2638 0003 25       		.uleb128 0x25
 2639 0004 0E       		.uleb128 0xe
 2640 0005 13       		.uleb128 0x13
 2641 0006 0B       		.uleb128 0xb
 2642 0007 03       		.uleb128 0x3
 2643 0008 0E       		.uleb128 0xe
 2644 0009 1B       		.uleb128 0x1b
 2645 000a 0E       		.uleb128 0xe
 2646 000b 55       		.uleb128 0x55
 2647 000c 17       		.uleb128 0x17
 2648 000d 11       		.uleb128 0x11
 2649 000e 01       		.uleb128 0x1
 2650 000f 10       		.uleb128 0x10
 2651 0010 17       		.uleb128 0x17
 2652 0011 00       		.byte	0
 2653 0012 00       		.byte	0
 2654 0013 02       		.uleb128 0x2
 2655 0014 24       		.uleb128 0x24
 2656 0015 00       		.byte	0
 2657 0016 0B       		.uleb128 0xb
 2658 0017 0B       		.uleb128 0xb
 2659 0018 3E       		.uleb128 0x3e
 2660 0019 0B       		.uleb128 0xb
 2661 001a 03       		.uleb128 0x3
 2662 001b 08       		.uleb128 0x8
 2663 001c 00       		.byte	0
 2664 001d 00       		.byte	0
 2665 001e 03       		.uleb128 0x3
 2666 001f 24       		.uleb128 0x24
 2667 0020 00       		.byte	0
 2668 0021 0B       		.uleb128 0xb
 2669 0022 0B       		.uleb128 0xb
 2670 0023 3E       		.uleb128 0x3e
 2671 0024 0B       		.uleb128 0xb
 2672 0025 03       		.uleb128 0x3
 2673 0026 0E       		.uleb128 0xe
 2674 0027 00       		.byte	0
 2675 0028 00       		.byte	0
 2676 0029 04       		.uleb128 0x4
 2677 002a 16       		.uleb128 0x16
 2678 002b 00       		.byte	0
 2679 002c 03       		.uleb128 0x3
ARM GAS  /var/folders/m4/4md61f0s1_g0rzfghffqnxvr0000gn/T//ccqtBXJY.s 			page 48


 2680 002d 0E       		.uleb128 0xe
 2681 002e 3A       		.uleb128 0x3a
 2682 002f 0B       		.uleb128 0xb
 2683 0030 3B       		.uleb128 0x3b
 2684 0031 0B       		.uleb128 0xb
 2685 0032 49       		.uleb128 0x49
 2686 0033 13       		.uleb128 0x13
 2687 0034 00       		.byte	0
 2688 0035 00       		.byte	0
 2689 0036 05       		.uleb128 0x5
 2690 0037 13       		.uleb128 0x13
 2691 0038 01       		.byte	0x1
 2692 0039 03       		.uleb128 0x3
 2693 003a 0E       		.uleb128 0xe
 2694 003b 0B       		.uleb128 0xb
 2695 003c 0B       		.uleb128 0xb
 2696 003d 3A       		.uleb128 0x3a
 2697 003e 0B       		.uleb128 0xb
 2698 003f 3B       		.uleb128 0x3b
 2699 0040 0B       		.uleb128 0xb
 2700 0041 01       		.uleb128 0x1
 2701 0042 13       		.uleb128 0x13
 2702 0043 00       		.byte	0
 2703 0044 00       		.byte	0
 2704 0045 06       		.uleb128 0x6
 2705 0046 0D       		.uleb128 0xd
 2706 0047 00       		.byte	0
 2707 0048 03       		.uleb128 0x3
 2708 0049 0E       		.uleb128 0xe
 2709 004a 3A       		.uleb128 0x3a
 2710 004b 0B       		.uleb128 0xb
 2711 004c 3B       		.uleb128 0x3b
 2712 004d 0B       		.uleb128 0xb
 2713 004e 49       		.uleb128 0x49
 2714 004f 13       		.uleb128 0x13
 2715 0050 38       		.uleb128 0x38
 2716 0051 0B       		.uleb128 0xb
 2717 0052 00       		.byte	0
 2718 0053 00       		.byte	0
 2719 0054 07       		.uleb128 0x7
 2720 0055 0D       		.uleb128 0xd
 2721 0056 00       		.byte	0
 2722 0057 03       		.uleb128 0x3
 2723 0058 08       		.uleb128 0x8
 2724 0059 3A       		.uleb128 0x3a
 2725 005a 0B       		.uleb128 0xb
 2726 005b 3B       		.uleb128 0x3b
 2727 005c 05       		.uleb128 0x5
 2728 005d 49       		.uleb128 0x49
 2729 005e 13       		.uleb128 0x13
 2730 005f 38       		.uleb128 0x38
 2731 0060 0B       		.uleb128 0xb
 2732 0061 00       		.byte	0
 2733 0062 00       		.byte	0
 2734 0063 08       		.uleb128 0x8
 2735 0064 0D       		.uleb128 0xd
 2736 0065 00       		.byte	0
ARM GAS  /var/folders/m4/4md61f0s1_g0rzfghffqnxvr0000gn/T//ccqtBXJY.s 			page 49


 2737 0066 03       		.uleb128 0x3
 2738 0067 0E       		.uleb128 0xe
 2739 0068 3A       		.uleb128 0x3a
 2740 0069 0B       		.uleb128 0xb
 2741 006a 3B       		.uleb128 0x3b
 2742 006b 05       		.uleb128 0x5
 2743 006c 49       		.uleb128 0x49
 2744 006d 13       		.uleb128 0x13
 2745 006e 38       		.uleb128 0x38
 2746 006f 0B       		.uleb128 0xb
 2747 0070 00       		.byte	0
 2748 0071 00       		.byte	0
 2749 0072 09       		.uleb128 0x9
 2750 0073 0F       		.uleb128 0xf
 2751 0074 00       		.byte	0
 2752 0075 0B       		.uleb128 0xb
 2753 0076 0B       		.uleb128 0xb
 2754 0077 49       		.uleb128 0x49
 2755 0078 13       		.uleb128 0x13
 2756 0079 00       		.byte	0
 2757 007a 00       		.byte	0
 2758 007b 0A       		.uleb128 0xa
 2759 007c 13       		.uleb128 0x13
 2760 007d 01       		.byte	0x1
 2761 007e 03       		.uleb128 0x3
 2762 007f 0E       		.uleb128 0xe
 2763 0080 0B       		.uleb128 0xb
 2764 0081 0B       		.uleb128 0xb
 2765 0082 3A       		.uleb128 0x3a
 2766 0083 0B       		.uleb128 0xb
 2767 0084 3B       		.uleb128 0x3b
 2768 0085 05       		.uleb128 0x5
 2769 0086 01       		.uleb128 0x1
 2770 0087 13       		.uleb128 0x13
 2771 0088 00       		.byte	0
 2772 0089 00       		.byte	0
 2773 008a 0B       		.uleb128 0xb
 2774 008b 15       		.uleb128 0x15
 2775 008c 01       		.byte	0x1
 2776 008d 27       		.uleb128 0x27
 2777 008e 19       		.uleb128 0x19
 2778 008f 01       		.uleb128 0x1
 2779 0090 13       		.uleb128 0x13
 2780 0091 00       		.byte	0
 2781 0092 00       		.byte	0
 2782 0093 0C       		.uleb128 0xc
 2783 0094 05       		.uleb128 0x5
 2784 0095 00       		.byte	0
 2785 0096 49       		.uleb128 0x49
 2786 0097 13       		.uleb128 0x13
 2787 0098 00       		.byte	0
 2788 0099 00       		.byte	0
 2789 009a 0D       		.uleb128 0xd
 2790 009b 0F       		.uleb128 0xf
 2791 009c 00       		.byte	0
 2792 009d 0B       		.uleb128 0xb
 2793 009e 0B       		.uleb128 0xb
ARM GAS  /var/folders/m4/4md61f0s1_g0rzfghffqnxvr0000gn/T//ccqtBXJY.s 			page 50


 2794 009f 00       		.byte	0
 2795 00a0 00       		.byte	0
 2796 00a1 0E       		.uleb128 0xe
 2797 00a2 13       		.uleb128 0x13
 2798 00a3 01       		.byte	0x1
 2799 00a4 03       		.uleb128 0x3
 2800 00a5 0E       		.uleb128 0xe
 2801 00a6 0B       		.uleb128 0xb
 2802 00a7 05       		.uleb128 0x5
 2803 00a8 3A       		.uleb128 0x3a
 2804 00a9 0B       		.uleb128 0xb
 2805 00aa 3B       		.uleb128 0x3b
 2806 00ab 05       		.uleb128 0x5
 2807 00ac 01       		.uleb128 0x1
 2808 00ad 13       		.uleb128 0x13
 2809 00ae 00       		.byte	0
 2810 00af 00       		.byte	0
 2811 00b0 0F       		.uleb128 0xf
 2812 00b1 0D       		.uleb128 0xd
 2813 00b2 00       		.byte	0
 2814 00b3 03       		.uleb128 0x3
 2815 00b4 08       		.uleb128 0x8
 2816 00b5 3A       		.uleb128 0x3a
 2817 00b6 0B       		.uleb128 0xb
 2818 00b7 3B       		.uleb128 0x3b
 2819 00b8 0B       		.uleb128 0xb
 2820 00b9 49       		.uleb128 0x49
 2821 00ba 13       		.uleb128 0x13
 2822 00bb 38       		.uleb128 0x38
 2823 00bc 0B       		.uleb128 0xb
 2824 00bd 00       		.byte	0
 2825 00be 00       		.byte	0
 2826 00bf 10       		.uleb128 0x10
 2827 00c0 13       		.uleb128 0x13
 2828 00c1 01       		.byte	0x1
 2829 00c2 0B       		.uleb128 0xb
 2830 00c3 0B       		.uleb128 0xb
 2831 00c4 3A       		.uleb128 0x3a
 2832 00c5 0B       		.uleb128 0xb
 2833 00c6 3B       		.uleb128 0x3b
 2834 00c7 0B       		.uleb128 0xb
 2835 00c8 01       		.uleb128 0x1
 2836 00c9 13       		.uleb128 0x13
 2837 00ca 00       		.byte	0
 2838 00cb 00       		.byte	0
 2839 00cc 11       		.uleb128 0x11
 2840 00cd 17       		.uleb128 0x17
 2841 00ce 01       		.byte	0x1
 2842 00cf 0B       		.uleb128 0xb
 2843 00d0 0B       		.uleb128 0xb
 2844 00d1 3A       		.uleb128 0x3a
 2845 00d2 0B       		.uleb128 0xb
 2846 00d3 3B       		.uleb128 0x3b
 2847 00d4 0B       		.uleb128 0xb
 2848 00d5 01       		.uleb128 0x1
 2849 00d6 13       		.uleb128 0x13
 2850 00d7 00       		.byte	0
ARM GAS  /var/folders/m4/4md61f0s1_g0rzfghffqnxvr0000gn/T//ccqtBXJY.s 			page 51


 2851 00d8 00       		.byte	0
 2852 00d9 12       		.uleb128 0x12
 2853 00da 0D       		.uleb128 0xd
 2854 00db 00       		.byte	0
 2855 00dc 03       		.uleb128 0x3
 2856 00dd 0E       		.uleb128 0xe
 2857 00de 3A       		.uleb128 0x3a
 2858 00df 0B       		.uleb128 0xb
 2859 00e0 3B       		.uleb128 0x3b
 2860 00e1 05       		.uleb128 0x5
 2861 00e2 49       		.uleb128 0x49
 2862 00e3 13       		.uleb128 0x13
 2863 00e4 00       		.byte	0
 2864 00e5 00       		.byte	0
 2865 00e6 13       		.uleb128 0x13
 2866 00e7 26       		.uleb128 0x26
 2867 00e8 00       		.byte	0
 2868 00e9 49       		.uleb128 0x49
 2869 00ea 13       		.uleb128 0x13
 2870 00eb 00       		.byte	0
 2871 00ec 00       		.byte	0
 2872 00ed 14       		.uleb128 0x14
 2873 00ee 35       		.uleb128 0x35
 2874 00ef 00       		.byte	0
 2875 00f0 49       		.uleb128 0x49
 2876 00f1 13       		.uleb128 0x13
 2877 00f2 00       		.byte	0
 2878 00f3 00       		.byte	0
 2879 00f4 15       		.uleb128 0x15
 2880 00f5 01       		.uleb128 0x1
 2881 00f6 01       		.byte	0x1
 2882 00f7 49       		.uleb128 0x49
 2883 00f8 13       		.uleb128 0x13
 2884 00f9 01       		.uleb128 0x1
 2885 00fa 13       		.uleb128 0x13
 2886 00fb 00       		.byte	0
 2887 00fc 00       		.byte	0
 2888 00fd 16       		.uleb128 0x16
 2889 00fe 21       		.uleb128 0x21
 2890 00ff 00       		.byte	0
 2891 0100 49       		.uleb128 0x49
 2892 0101 13       		.uleb128 0x13
 2893 0102 2F       		.uleb128 0x2f
 2894 0103 0B       		.uleb128 0xb
 2895 0104 00       		.byte	0
 2896 0105 00       		.byte	0
 2897 0106 17       		.uleb128 0x17
 2898 0107 2E       		.uleb128 0x2e
 2899 0108 01       		.byte	0x1
 2900 0109 03       		.uleb128 0x3
 2901 010a 0E       		.uleb128 0xe
 2902 010b 3A       		.uleb128 0x3a
 2903 010c 0B       		.uleb128 0xb
 2904 010d 3B       		.uleb128 0x3b
 2905 010e 05       		.uleb128 0x5
 2906 010f 27       		.uleb128 0x27
 2907 0110 19       		.uleb128 0x19
ARM GAS  /var/folders/m4/4md61f0s1_g0rzfghffqnxvr0000gn/T//ccqtBXJY.s 			page 52


 2908 0111 20       		.uleb128 0x20
 2909 0112 0B       		.uleb128 0xb
 2910 0113 01       		.uleb128 0x1
 2911 0114 13       		.uleb128 0x13
 2912 0115 00       		.byte	0
 2913 0116 00       		.byte	0
 2914 0117 18       		.uleb128 0x18
 2915 0118 05       		.uleb128 0x5
 2916 0119 00       		.byte	0
 2917 011a 03       		.uleb128 0x3
 2918 011b 0E       		.uleb128 0xe
 2919 011c 3A       		.uleb128 0x3a
 2920 011d 0B       		.uleb128 0xb
 2921 011e 3B       		.uleb128 0x3b
 2922 011f 05       		.uleb128 0x5
 2923 0120 49       		.uleb128 0x49
 2924 0121 13       		.uleb128 0x13
 2925 0122 00       		.byte	0
 2926 0123 00       		.byte	0
 2927 0124 19       		.uleb128 0x19
 2928 0125 2E       		.uleb128 0x2e
 2929 0126 00       		.byte	0
 2930 0127 03       		.uleb128 0x3
 2931 0128 0E       		.uleb128 0xe
 2932 0129 3A       		.uleb128 0x3a
 2933 012a 0B       		.uleb128 0xb
 2934 012b 3B       		.uleb128 0x3b
 2935 012c 05       		.uleb128 0x5
 2936 012d 27       		.uleb128 0x27
 2937 012e 19       		.uleb128 0x19
 2938 012f 20       		.uleb128 0x20
 2939 0130 0B       		.uleb128 0xb
 2940 0131 00       		.byte	0
 2941 0132 00       		.byte	0
 2942 0133 1A       		.uleb128 0x1a
 2943 0134 2E       		.uleb128 0x2e
 2944 0135 00       		.byte	0
 2945 0136 03       		.uleb128 0x3
 2946 0137 0E       		.uleb128 0xe
 2947 0138 3A       		.uleb128 0x3a
 2948 0139 0B       		.uleb128 0xb
 2949 013a 3B       		.uleb128 0x3b
 2950 013b 0B       		.uleb128 0xb
 2951 013c 27       		.uleb128 0x27
 2952 013d 19       		.uleb128 0x19
 2953 013e 49       		.uleb128 0x49
 2954 013f 13       		.uleb128 0x13
 2955 0140 20       		.uleb128 0x20
 2956 0141 0B       		.uleb128 0xb
 2957 0142 00       		.byte	0
 2958 0143 00       		.byte	0
 2959 0144 1B       		.uleb128 0x1b
 2960 0145 05       		.uleb128 0x5
 2961 0146 00       		.byte	0
 2962 0147 03       		.uleb128 0x3
 2963 0148 08       		.uleb128 0x8
 2964 0149 3A       		.uleb128 0x3a
ARM GAS  /var/folders/m4/4md61f0s1_g0rzfghffqnxvr0000gn/T//ccqtBXJY.s 			page 53


 2965 014a 0B       		.uleb128 0xb
 2966 014b 3B       		.uleb128 0x3b
 2967 014c 05       		.uleb128 0x5
 2968 014d 49       		.uleb128 0x49
 2969 014e 13       		.uleb128 0x13
 2970 014f 00       		.byte	0
 2971 0150 00       		.byte	0
 2972 0151 1C       		.uleb128 0x1c
 2973 0152 2E       		.uleb128 0x2e
 2974 0153 01       		.byte	0x1
 2975 0154 03       		.uleb128 0x3
 2976 0155 0E       		.uleb128 0xe
 2977 0156 3A       		.uleb128 0x3a
 2978 0157 0B       		.uleb128 0xb
 2979 0158 3B       		.uleb128 0x3b
 2980 0159 05       		.uleb128 0x5
 2981 015a 27       		.uleb128 0x27
 2982 015b 19       		.uleb128 0x19
 2983 015c 49       		.uleb128 0x49
 2984 015d 13       		.uleb128 0x13
 2985 015e 20       		.uleb128 0x20
 2986 015f 0B       		.uleb128 0xb
 2987 0160 01       		.uleb128 0x1
 2988 0161 13       		.uleb128 0x13
 2989 0162 00       		.byte	0
 2990 0163 00       		.byte	0
 2991 0164 1D       		.uleb128 0x1d
 2992 0165 34       		.uleb128 0x34
 2993 0166 00       		.byte	0
 2994 0167 03       		.uleb128 0x3
 2995 0168 08       		.uleb128 0x8
 2996 0169 3A       		.uleb128 0x3a
 2997 016a 0B       		.uleb128 0xb
 2998 016b 3B       		.uleb128 0x3b
 2999 016c 05       		.uleb128 0x5
 3000 016d 49       		.uleb128 0x49
 3001 016e 13       		.uleb128 0x13
 3002 016f 00       		.byte	0
 3003 0170 00       		.byte	0
 3004 0171 1E       		.uleb128 0x1e
 3005 0172 34       		.uleb128 0x34
 3006 0173 00       		.byte	0
 3007 0174 03       		.uleb128 0x3
 3008 0175 0E       		.uleb128 0xe
 3009 0176 49       		.uleb128 0x49
 3010 0177 13       		.uleb128 0x13
 3011 0178 34       		.uleb128 0x34
 3012 0179 19       		.uleb128 0x19
 3013 017a 1C       		.uleb128 0x1c
 3014 017b 0E       		.uleb128 0xe
 3015 017c 00       		.byte	0
 3016 017d 00       		.byte	0
 3017 017e 1F       		.uleb128 0x1f
 3018 017f 2E       		.uleb128 0x2e
 3019 0180 01       		.byte	0x1
 3020 0181 3F       		.uleb128 0x3f
 3021 0182 19       		.uleb128 0x19
ARM GAS  /var/folders/m4/4md61f0s1_g0rzfghffqnxvr0000gn/T//ccqtBXJY.s 			page 54


 3022 0183 03       		.uleb128 0x3
 3023 0184 0E       		.uleb128 0xe
 3024 0185 3A       		.uleb128 0x3a
 3025 0186 0B       		.uleb128 0xb
 3026 0187 3B       		.uleb128 0x3b
 3027 0188 0B       		.uleb128 0xb
 3028 0189 27       		.uleb128 0x27
 3029 018a 19       		.uleb128 0x19
 3030 018b 20       		.uleb128 0x20
 3031 018c 0B       		.uleb128 0xb
 3032 018d 01       		.uleb128 0x1
 3033 018e 13       		.uleb128 0x13
 3034 018f 00       		.byte	0
 3035 0190 00       		.byte	0
 3036 0191 20       		.uleb128 0x20
 3037 0192 05       		.uleb128 0x5
 3038 0193 00       		.byte	0
 3039 0194 03       		.uleb128 0x3
 3040 0195 08       		.uleb128 0x8
 3041 0196 3A       		.uleb128 0x3a
 3042 0197 0B       		.uleb128 0xb
 3043 0198 3B       		.uleb128 0x3b
 3044 0199 0B       		.uleb128 0xb
 3045 019a 49       		.uleb128 0x49
 3046 019b 13       		.uleb128 0x13
 3047 019c 00       		.byte	0
 3048 019d 00       		.byte	0
 3049 019e 21       		.uleb128 0x21
 3050 019f 2E       		.uleb128 0x2e
 3051 01a0 01       		.byte	0x1
 3052 01a1 3F       		.uleb128 0x3f
 3053 01a2 19       		.uleb128 0x19
 3054 01a3 03       		.uleb128 0x3
 3055 01a4 0E       		.uleb128 0xe
 3056 01a5 3A       		.uleb128 0x3a
 3057 01a6 0B       		.uleb128 0xb
 3058 01a7 3B       		.uleb128 0x3b
 3059 01a8 0B       		.uleb128 0xb
 3060 01a9 27       		.uleb128 0x27
 3061 01aa 19       		.uleb128 0x19
 3062 01ab 11       		.uleb128 0x11
 3063 01ac 01       		.uleb128 0x1
 3064 01ad 12       		.uleb128 0x12
 3065 01ae 06       		.uleb128 0x6
 3066 01af 40       		.uleb128 0x40
 3067 01b0 18       		.uleb128 0x18
 3068 01b1 9742     		.uleb128 0x2117
 3069 01b3 19       		.uleb128 0x19
 3070 01b4 01       		.uleb128 0x1
 3071 01b5 13       		.uleb128 0x13
 3072 01b6 00       		.byte	0
 3073 01b7 00       		.byte	0
 3074 01b8 22       		.uleb128 0x22
 3075 01b9 05       		.uleb128 0x5
 3076 01ba 00       		.byte	0
 3077 01bb 03       		.uleb128 0x3
 3078 01bc 08       		.uleb128 0x8
ARM GAS  /var/folders/m4/4md61f0s1_g0rzfghffqnxvr0000gn/T//ccqtBXJY.s 			page 55


 3079 01bd 3A       		.uleb128 0x3a
 3080 01be 0B       		.uleb128 0xb
 3081 01bf 3B       		.uleb128 0x3b
 3082 01c0 0B       		.uleb128 0xb
 3083 01c1 49       		.uleb128 0x49
 3084 01c2 13       		.uleb128 0x13
 3085 01c3 02       		.uleb128 0x2
 3086 01c4 18       		.uleb128 0x18
 3087 01c5 00       		.byte	0
 3088 01c6 00       		.byte	0
 3089 01c7 23       		.uleb128 0x23
 3090 01c8 34       		.uleb128 0x34
 3091 01c9 00       		.byte	0
 3092 01ca 03       		.uleb128 0x3
 3093 01cb 0E       		.uleb128 0xe
 3094 01cc 49       		.uleb128 0x49
 3095 01cd 13       		.uleb128 0x13
 3096 01ce 34       		.uleb128 0x34
 3097 01cf 19       		.uleb128 0x19
 3098 01d0 00       		.byte	0
 3099 01d1 00       		.byte	0
 3100 01d2 24       		.uleb128 0x24
 3101 01d3 1D       		.uleb128 0x1d
 3102 01d4 01       		.byte	0x1
 3103 01d5 31       		.uleb128 0x31
 3104 01d6 13       		.uleb128 0x13
 3105 01d7 11       		.uleb128 0x11
 3106 01d8 01       		.uleb128 0x1
 3107 01d9 12       		.uleb128 0x12
 3108 01da 06       		.uleb128 0x6
 3109 01db 58       		.uleb128 0x58
 3110 01dc 0B       		.uleb128 0xb
 3111 01dd 59       		.uleb128 0x59
 3112 01de 0B       		.uleb128 0xb
 3113 01df 00       		.byte	0
 3114 01e0 00       		.byte	0
 3115 01e1 25       		.uleb128 0x25
 3116 01e2 05       		.uleb128 0x5
 3117 01e3 00       		.byte	0
 3118 01e4 31       		.uleb128 0x31
 3119 01e5 13       		.uleb128 0x13
 3120 01e6 02       		.uleb128 0x2
 3121 01e7 17       		.uleb128 0x17
 3122 01e8 00       		.byte	0
 3123 01e9 00       		.byte	0
 3124 01ea 26       		.uleb128 0x26
 3125 01eb 05       		.uleb128 0x5
 3126 01ec 00       		.byte	0
 3127 01ed 03       		.uleb128 0x3
 3128 01ee 08       		.uleb128 0x8
 3129 01ef 3A       		.uleb128 0x3a
 3130 01f0 0B       		.uleb128 0xb
 3131 01f1 3B       		.uleb128 0x3b
 3132 01f2 0B       		.uleb128 0xb
 3133 01f3 49       		.uleb128 0x49
 3134 01f4 13       		.uleb128 0x13
 3135 01f5 02       		.uleb128 0x2
ARM GAS  /var/folders/m4/4md61f0s1_g0rzfghffqnxvr0000gn/T//ccqtBXJY.s 			page 56


 3136 01f6 17       		.uleb128 0x17
 3137 01f7 00       		.byte	0
 3138 01f8 00       		.byte	0
 3139 01f9 27       		.uleb128 0x27
 3140 01fa 1D       		.uleb128 0x1d
 3141 01fb 01       		.byte	0x1
 3142 01fc 31       		.uleb128 0x31
 3143 01fd 13       		.uleb128 0x13
 3144 01fe 11       		.uleb128 0x11
 3145 01ff 01       		.uleb128 0x1
 3146 0200 12       		.uleb128 0x12
 3147 0201 06       		.uleb128 0x6
 3148 0202 58       		.uleb128 0x58
 3149 0203 0B       		.uleb128 0xb
 3150 0204 59       		.uleb128 0x59
 3151 0205 0B       		.uleb128 0xb
 3152 0206 01       		.uleb128 0x1
 3153 0207 13       		.uleb128 0x13
 3154 0208 00       		.byte	0
 3155 0209 00       		.byte	0
 3156 020a 28       		.uleb128 0x28
 3157 020b 1D       		.uleb128 0x1d
 3158 020c 01       		.byte	0x1
 3159 020d 31       		.uleb128 0x31
 3160 020e 13       		.uleb128 0x13
 3161 020f 11       		.uleb128 0x11
 3162 0210 01       		.uleb128 0x1
 3163 0211 12       		.uleb128 0x12
 3164 0212 06       		.uleb128 0x6
 3165 0213 58       		.uleb128 0x58
 3166 0214 0B       		.uleb128 0xb
 3167 0215 59       		.uleb128 0x59
 3168 0216 05       		.uleb128 0x5
 3169 0217 00       		.byte	0
 3170 0218 00       		.byte	0
 3171 0219 29       		.uleb128 0x29
 3172 021a 0B       		.uleb128 0xb
 3173 021b 01       		.byte	0x1
 3174 021c 11       		.uleb128 0x11
 3175 021d 01       		.uleb128 0x1
 3176 021e 12       		.uleb128 0x12
 3177 021f 06       		.uleb128 0x6
 3178 0220 00       		.byte	0
 3179 0221 00       		.byte	0
 3180 0222 2A       		.uleb128 0x2a
 3181 0223 34       		.uleb128 0x34
 3182 0224 00       		.byte	0
 3183 0225 31       		.uleb128 0x31
 3184 0226 13       		.uleb128 0x13
 3185 0227 02       		.uleb128 0x2
 3186 0228 17       		.uleb128 0x17
 3187 0229 00       		.byte	0
 3188 022a 00       		.byte	0
 3189 022b 2B       		.uleb128 0x2b
 3190 022c 34       		.uleb128 0x34
 3191 022d 00       		.byte	0
 3192 022e 31       		.uleb128 0x31
ARM GAS  /var/folders/m4/4md61f0s1_g0rzfghffqnxvr0000gn/T//ccqtBXJY.s 			page 57


 3193 022f 13       		.uleb128 0x13
 3194 0230 00       		.byte	0
 3195 0231 00       		.byte	0
 3196 0232 2C       		.uleb128 0x2c
 3197 0233 898201   		.uleb128 0x4109
 3198 0236 01       		.byte	0x1
 3199 0237 11       		.uleb128 0x11
 3200 0238 01       		.uleb128 0x1
 3201 0239 31       		.uleb128 0x31
 3202 023a 13       		.uleb128 0x13
 3203 023b 00       		.byte	0
 3204 023c 00       		.byte	0
 3205 023d 2D       		.uleb128 0x2d
 3206 023e 8A8201   		.uleb128 0x410a
 3207 0241 00       		.byte	0
 3208 0242 02       		.uleb128 0x2
 3209 0243 18       		.uleb128 0x18
 3210 0244 9142     		.uleb128 0x2111
 3211 0246 18       		.uleb128 0x18
 3212 0247 00       		.byte	0
 3213 0248 00       		.byte	0
 3214 0249 2E       		.uleb128 0x2e
 3215 024a 34       		.uleb128 0x34
 3216 024b 00       		.byte	0
 3217 024c 03       		.uleb128 0x3
 3218 024d 08       		.uleb128 0x8
 3219 024e 3A       		.uleb128 0x3a
 3220 024f 0B       		.uleb128 0xb
 3221 0250 3B       		.uleb128 0x3b
 3222 0251 0B       		.uleb128 0xb
 3223 0252 49       		.uleb128 0x49
 3224 0253 13       		.uleb128 0x13
 3225 0254 00       		.byte	0
 3226 0255 00       		.byte	0
 3227 0256 2F       		.uleb128 0x2f
 3228 0257 1D       		.uleb128 0x1d
 3229 0258 01       		.byte	0x1
 3230 0259 31       		.uleb128 0x31
 3231 025a 13       		.uleb128 0x13
 3232 025b 52       		.uleb128 0x52
 3233 025c 01       		.uleb128 0x1
 3234 025d 55       		.uleb128 0x55
 3235 025e 17       		.uleb128 0x17
 3236 025f 58       		.uleb128 0x58
 3237 0260 0B       		.uleb128 0xb
 3238 0261 59       		.uleb128 0x59
 3239 0262 0B       		.uleb128 0xb
 3240 0263 01       		.uleb128 0x1
 3241 0264 13       		.uleb128 0x13
 3242 0265 00       		.byte	0
 3243 0266 00       		.byte	0
 3244 0267 30       		.uleb128 0x30
 3245 0268 0B       		.uleb128 0xb
 3246 0269 01       		.byte	0x1
 3247 026a 55       		.uleb128 0x55
 3248 026b 17       		.uleb128 0x17
 3249 026c 00       		.byte	0
ARM GAS  /var/folders/m4/4md61f0s1_g0rzfghffqnxvr0000gn/T//ccqtBXJY.s 			page 58


 3250 026d 00       		.byte	0
 3251 026e 31       		.uleb128 0x31
 3252 026f 898201   		.uleb128 0x4109
 3253 0272 00       		.byte	0
 3254 0273 11       		.uleb128 0x11
 3255 0274 01       		.uleb128 0x1
 3256 0275 9542     		.uleb128 0x2115
 3257 0277 19       		.uleb128 0x19
 3258 0278 31       		.uleb128 0x31
 3259 0279 13       		.uleb128 0x13
 3260 027a 00       		.byte	0
 3261 027b 00       		.byte	0
 3262 027c 32       		.uleb128 0x32
 3263 027d 05       		.uleb128 0x5
 3264 027e 00       		.byte	0
 3265 027f 31       		.uleb128 0x31
 3266 0280 13       		.uleb128 0x13
 3267 0281 00       		.byte	0
 3268 0282 00       		.byte	0
 3269 0283 33       		.uleb128 0x33
 3270 0284 898201   		.uleb128 0x4109
 3271 0287 00       		.byte	0
 3272 0288 11       		.uleb128 0x11
 3273 0289 01       		.uleb128 0x1
 3274 028a 31       		.uleb128 0x31
 3275 028b 13       		.uleb128 0x13
 3276 028c 00       		.byte	0
 3277 028d 00       		.byte	0
 3278 028e 34       		.uleb128 0x34
 3279 028f 2E       		.uleb128 0x2e
 3280 0290 01       		.byte	0x1
 3281 0291 31       		.uleb128 0x31
 3282 0292 13       		.uleb128 0x13
 3283 0293 11       		.uleb128 0x11
 3284 0294 01       		.uleb128 0x1
 3285 0295 12       		.uleb128 0x12
 3286 0296 06       		.uleb128 0x6
 3287 0297 40       		.uleb128 0x40
 3288 0298 18       		.uleb128 0x18
 3289 0299 9742     		.uleb128 0x2117
 3290 029b 19       		.uleb128 0x19
 3291 029c 01       		.uleb128 0x1
 3292 029d 13       		.uleb128 0x13
 3293 029e 00       		.byte	0
 3294 029f 00       		.byte	0
 3295 02a0 35       		.uleb128 0x35
 3296 02a1 2E       		.uleb128 0x2e
 3297 02a2 01       		.byte	0x1
 3298 02a3 3F       		.uleb128 0x3f
 3299 02a4 19       		.uleb128 0x19
 3300 02a5 03       		.uleb128 0x3
 3301 02a6 0E       		.uleb128 0xe
 3302 02a7 3A       		.uleb128 0x3a
 3303 02a8 0B       		.uleb128 0xb
 3304 02a9 3B       		.uleb128 0x3b
 3305 02aa 0B       		.uleb128 0xb
 3306 02ab 27       		.uleb128 0x27
ARM GAS  /var/folders/m4/4md61f0s1_g0rzfghffqnxvr0000gn/T//ccqtBXJY.s 			page 59


 3307 02ac 19       		.uleb128 0x19
 3308 02ad 49       		.uleb128 0x49
 3309 02ae 13       		.uleb128 0x13
 3310 02af 11       		.uleb128 0x11
 3311 02b0 01       		.uleb128 0x1
 3312 02b1 12       		.uleb128 0x12
 3313 02b2 06       		.uleb128 0x6
 3314 02b3 40       		.uleb128 0x40
 3315 02b4 18       		.uleb128 0x18
 3316 02b5 9742     		.uleb128 0x2117
 3317 02b7 19       		.uleb128 0x19
 3318 02b8 01       		.uleb128 0x1
 3319 02b9 13       		.uleb128 0x13
 3320 02ba 00       		.byte	0
 3321 02bb 00       		.byte	0
 3322 02bc 36       		.uleb128 0x36
 3323 02bd 34       		.uleb128 0x34
 3324 02be 00       		.byte	0
 3325 02bf 03       		.uleb128 0x3
 3326 02c0 08       		.uleb128 0x8
 3327 02c1 3A       		.uleb128 0x3a
 3328 02c2 0B       		.uleb128 0xb
 3329 02c3 3B       		.uleb128 0x3b
 3330 02c4 0B       		.uleb128 0xb
 3331 02c5 49       		.uleb128 0x49
 3332 02c6 13       		.uleb128 0x13
 3333 02c7 02       		.uleb128 0x2
 3334 02c8 17       		.uleb128 0x17
 3335 02c9 00       		.byte	0
 3336 02ca 00       		.byte	0
 3337 02cb 37       		.uleb128 0x37
 3338 02cc 1D       		.uleb128 0x1d
 3339 02cd 00       		.byte	0
 3340 02ce 31       		.uleb128 0x31
 3341 02cf 13       		.uleb128 0x13
 3342 02d0 11       		.uleb128 0x11
 3343 02d1 01       		.uleb128 0x1
 3344 02d2 12       		.uleb128 0x12
 3345 02d3 06       		.uleb128 0x6
 3346 02d4 58       		.uleb128 0x58
 3347 02d5 0B       		.uleb128 0xb
 3348 02d6 59       		.uleb128 0x59
 3349 02d7 0B       		.uleb128 0xb
 3350 02d8 00       		.byte	0
 3351 02d9 00       		.byte	0
 3352 02da 38       		.uleb128 0x38
 3353 02db 898201   		.uleb128 0x4109
 3354 02de 01       		.byte	0x1
 3355 02df 11       		.uleb128 0x11
 3356 02e0 01       		.uleb128 0x1
 3357 02e1 31       		.uleb128 0x31
 3358 02e2 13       		.uleb128 0x13
 3359 02e3 01       		.uleb128 0x1
 3360 02e4 13       		.uleb128 0x13
 3361 02e5 00       		.byte	0
 3362 02e6 00       		.byte	0
 3363 02e7 39       		.uleb128 0x39
ARM GAS  /var/folders/m4/4md61f0s1_g0rzfghffqnxvr0000gn/T//ccqtBXJY.s 			page 60


 3364 02e8 34       		.uleb128 0x34
 3365 02e9 00       		.byte	0
 3366 02ea 03       		.uleb128 0x3
 3367 02eb 08       		.uleb128 0x8
 3368 02ec 3A       		.uleb128 0x3a
 3369 02ed 0B       		.uleb128 0xb
 3370 02ee 3B       		.uleb128 0x3b
 3371 02ef 0B       		.uleb128 0xb
 3372 02f0 49       		.uleb128 0x49
 3373 02f1 13       		.uleb128 0x13
 3374 02f2 02       		.uleb128 0x2
 3375 02f3 18       		.uleb128 0x18
 3376 02f4 00       		.byte	0
 3377 02f5 00       		.byte	0
 3378 02f6 3A       		.uleb128 0x3a
 3379 02f7 2E       		.uleb128 0x2e
 3380 02f8 01       		.byte	0x1
 3381 02f9 3F       		.uleb128 0x3f
 3382 02fa 19       		.uleb128 0x19
 3383 02fb 03       		.uleb128 0x3
 3384 02fc 0E       		.uleb128 0xe
 3385 02fd 3A       		.uleb128 0x3a
 3386 02fe 0B       		.uleb128 0xb
 3387 02ff 3B       		.uleb128 0x3b
 3388 0300 05       		.uleb128 0x5
 3389 0301 27       		.uleb128 0x27
 3390 0302 19       		.uleb128 0x19
 3391 0303 49       		.uleb128 0x49
 3392 0304 13       		.uleb128 0x13
 3393 0305 11       		.uleb128 0x11
 3394 0306 01       		.uleb128 0x1
 3395 0307 12       		.uleb128 0x12
 3396 0308 06       		.uleb128 0x6
 3397 0309 40       		.uleb128 0x40
 3398 030a 18       		.uleb128 0x18
 3399 030b 9742     		.uleb128 0x2117
 3400 030d 19       		.uleb128 0x19
 3401 030e 01       		.uleb128 0x1
 3402 030f 13       		.uleb128 0x13
 3403 0310 00       		.byte	0
 3404 0311 00       		.byte	0
 3405 0312 3B       		.uleb128 0x3b
 3406 0313 05       		.uleb128 0x5
 3407 0314 00       		.byte	0
 3408 0315 03       		.uleb128 0x3
 3409 0316 08       		.uleb128 0x8
 3410 0317 3A       		.uleb128 0x3a
 3411 0318 0B       		.uleb128 0xb
 3412 0319 3B       		.uleb128 0x3b
 3413 031a 05       		.uleb128 0x5
 3414 031b 49       		.uleb128 0x49
 3415 031c 13       		.uleb128 0x13
 3416 031d 02       		.uleb128 0x2
 3417 031e 17       		.uleb128 0x17
 3418 031f 00       		.byte	0
 3419 0320 00       		.byte	0
 3420 0321 3C       		.uleb128 0x3c
ARM GAS  /var/folders/m4/4md61f0s1_g0rzfghffqnxvr0000gn/T//ccqtBXJY.s 			page 61


 3421 0322 05       		.uleb128 0x5
 3422 0323 00       		.byte	0
 3423 0324 03       		.uleb128 0x3
 3424 0325 0E       		.uleb128 0xe
 3425 0326 3A       		.uleb128 0x3a
 3426 0327 0B       		.uleb128 0xb
 3427 0328 3B       		.uleb128 0x3b
 3428 0329 05       		.uleb128 0x5
 3429 032a 49       		.uleb128 0x49
 3430 032b 13       		.uleb128 0x13
 3431 032c 02       		.uleb128 0x2
 3432 032d 17       		.uleb128 0x17
 3433 032e 00       		.byte	0
 3434 032f 00       		.byte	0
 3435 0330 3D       		.uleb128 0x3d
 3436 0331 34       		.uleb128 0x34
 3437 0332 00       		.byte	0
 3438 0333 03       		.uleb128 0x3
 3439 0334 08       		.uleb128 0x8
 3440 0335 3A       		.uleb128 0x3a
 3441 0336 0B       		.uleb128 0xb
 3442 0337 3B       		.uleb128 0x3b
 3443 0338 05       		.uleb128 0x5
 3444 0339 49       		.uleb128 0x49
 3445 033a 13       		.uleb128 0x13
 3446 033b 02       		.uleb128 0x2
 3447 033c 17       		.uleb128 0x17
 3448 033d 00       		.byte	0
 3449 033e 00       		.byte	0
 3450 033f 3E       		.uleb128 0x3e
 3451 0340 1D       		.uleb128 0x1d
 3452 0341 01       		.byte	0x1
 3453 0342 31       		.uleb128 0x31
 3454 0343 13       		.uleb128 0x13
 3455 0344 11       		.uleb128 0x11
 3456 0345 01       		.uleb128 0x1
 3457 0346 12       		.uleb128 0x12
 3458 0347 06       		.uleb128 0x6
 3459 0348 58       		.uleb128 0x58
 3460 0349 0B       		.uleb128 0xb
 3461 034a 59       		.uleb128 0x59
 3462 034b 05       		.uleb128 0x5
 3463 034c 01       		.uleb128 0x1
 3464 034d 13       		.uleb128 0x13
 3465 034e 00       		.byte	0
 3466 034f 00       		.byte	0
 3467 0350 3F       		.uleb128 0x3f
 3468 0351 1D       		.uleb128 0x1d
 3469 0352 01       		.byte	0x1
 3470 0353 31       		.uleb128 0x31
 3471 0354 13       		.uleb128 0x13
 3472 0355 52       		.uleb128 0x52
 3473 0356 01       		.uleb128 0x1
 3474 0357 55       		.uleb128 0x55
 3475 0358 17       		.uleb128 0x17
 3476 0359 58       		.uleb128 0x58
 3477 035a 0B       		.uleb128 0xb
ARM GAS  /var/folders/m4/4md61f0s1_g0rzfghffqnxvr0000gn/T//ccqtBXJY.s 			page 62


 3478 035b 59       		.uleb128 0x59
 3479 035c 05       		.uleb128 0x5
 3480 035d 01       		.uleb128 0x1
 3481 035e 13       		.uleb128 0x13
 3482 035f 00       		.byte	0
 3483 0360 00       		.byte	0
 3484 0361 40       		.uleb128 0x40
 3485 0362 34       		.uleb128 0x34
 3486 0363 00       		.byte	0
 3487 0364 03       		.uleb128 0x3
 3488 0365 08       		.uleb128 0x8
 3489 0366 3A       		.uleb128 0x3a
 3490 0367 0B       		.uleb128 0xb
 3491 0368 3B       		.uleb128 0x3b
 3492 0369 05       		.uleb128 0x5
 3493 036a 49       		.uleb128 0x49
 3494 036b 13       		.uleb128 0x13
 3495 036c 02       		.uleb128 0x2
 3496 036d 18       		.uleb128 0x18
 3497 036e 00       		.byte	0
 3498 036f 00       		.byte	0
 3499 0370 41       		.uleb128 0x41
 3500 0371 34       		.uleb128 0x34
 3501 0372 00       		.byte	0
 3502 0373 03       		.uleb128 0x3
 3503 0374 0E       		.uleb128 0xe
 3504 0375 3A       		.uleb128 0x3a
 3505 0376 0B       		.uleb128 0xb
 3506 0377 3B       		.uleb128 0x3b
 3507 0378 05       		.uleb128 0x5
 3508 0379 49       		.uleb128 0x49
 3509 037a 13       		.uleb128 0x13
 3510 037b 3F       		.uleb128 0x3f
 3511 037c 19       		.uleb128 0x19
 3512 037d 3C       		.uleb128 0x3c
 3513 037e 19       		.uleb128 0x19
 3514 037f 00       		.byte	0
 3515 0380 00       		.byte	0
 3516 0381 42       		.uleb128 0x42
 3517 0382 34       		.uleb128 0x34
 3518 0383 00       		.byte	0
 3519 0384 03       		.uleb128 0x3
 3520 0385 08       		.uleb128 0x8
 3521 0386 3A       		.uleb128 0x3a
 3522 0387 0B       		.uleb128 0xb
 3523 0388 3B       		.uleb128 0x3b
 3524 0389 05       		.uleb128 0x5
 3525 038a 49       		.uleb128 0x49
 3526 038b 13       		.uleb128 0x13
 3527 038c 3F       		.uleb128 0x3f
 3528 038d 19       		.uleb128 0x19
 3529 038e 3C       		.uleb128 0x3c
 3530 038f 19       		.uleb128 0x19
 3531 0390 00       		.byte	0
 3532 0391 00       		.byte	0
 3533 0392 43       		.uleb128 0x43
 3534 0393 2E       		.uleb128 0x2e
ARM GAS  /var/folders/m4/4md61f0s1_g0rzfghffqnxvr0000gn/T//ccqtBXJY.s 			page 63


 3535 0394 00       		.byte	0
 3536 0395 3F       		.uleb128 0x3f
 3537 0396 19       		.uleb128 0x19
 3538 0397 3C       		.uleb128 0x3c
 3539 0398 19       		.uleb128 0x19
 3540 0399 6E       		.uleb128 0x6e
 3541 039a 0E       		.uleb128 0xe
 3542 039b 03       		.uleb128 0x3
 3543 039c 0E       		.uleb128 0xe
 3544 039d 3A       		.uleb128 0x3a
 3545 039e 0B       		.uleb128 0xb
 3546 039f 3B       		.uleb128 0x3b
 3547 03a0 05       		.uleb128 0x5
 3548 03a1 00       		.byte	0
 3549 03a2 00       		.byte	0
 3550 03a3 44       		.uleb128 0x44
 3551 03a4 2E       		.uleb128 0x2e
 3552 03a5 00       		.byte	0
 3553 03a6 3F       		.uleb128 0x3f
 3554 03a7 19       		.uleb128 0x19
 3555 03a8 3C       		.uleb128 0x3c
 3556 03a9 19       		.uleb128 0x19
 3557 03aa 6E       		.uleb128 0x6e
 3558 03ab 0E       		.uleb128 0xe
 3559 03ac 03       		.uleb128 0x3
 3560 03ad 0E       		.uleb128 0xe
 3561 03ae 3A       		.uleb128 0x3a
 3562 03af 0B       		.uleb128 0xb
 3563 03b0 3B       		.uleb128 0x3b
 3564 03b1 0B       		.uleb128 0xb
 3565 03b2 00       		.byte	0
 3566 03b3 00       		.byte	0
 3567 03b4 00       		.byte	0
 3568              		.section	.debug_loc,"",%progbits
 3569              	.Ldebug_loc0:
 3570              	.LLST0:
 3571 0000 00000000 		.4byte	.LVL0
 3572 0004 04000000 		.4byte	.LVL1
 3573 0008 0100     		.2byte	0x1
 3574 000a 50       		.byte	0x50
 3575 000b 00000000 		.4byte	0
 3576 000f 00000000 		.4byte	0
 3577              	.LLST1:
 3578 0013 00000000 		.4byte	.LVL2
 3579 0017 18000000 		.4byte	.LVL7
 3580 001b 0100     		.2byte	0x1
 3581 001d 50       		.byte	0x50
 3582 001e 18000000 		.4byte	.LVL7
 3583 0022 1D000000 		.4byte	.LVL8-1
 3584 0026 0100     		.2byte	0x1
 3585 0028 53       		.byte	0x53
 3586 0029 1D000000 		.4byte	.LVL8-1
 3587 002d 26000000 		.4byte	.LFE232
 3588 0031 0400     		.2byte	0x4
 3589 0033 F3       		.byte	0xf3
 3590 0034 01       		.uleb128 0x1
 3591 0035 50       		.byte	0x50
ARM GAS  /var/folders/m4/4md61f0s1_g0rzfghffqnxvr0000gn/T//ccqtBXJY.s 			page 64


 3592 0036 9F       		.byte	0x9f
 3593 0037 00000000 		.4byte	0
 3594 003b 00000000 		.4byte	0
 3595              	.LLST2:
 3596 003f 00000000 		.4byte	.LVL2
 3597 0043 08000000 		.4byte	.LVL3
 3598 0047 0300     		.2byte	0x3
 3599 0049 08       		.byte	0x8
 3600 004a 20       		.byte	0x20
 3601 004b 9F       		.byte	0x9f
 3602 004c 00000000 		.4byte	0
 3603 0050 00000000 		.4byte	0
 3604              	.LLST3:
 3605 0054 08000000 		.4byte	.LVL3
 3606 0058 0A000000 		.4byte	.LVL4
 3607 005c 0100     		.2byte	0x1
 3608 005e 50       		.byte	0x50
 3609 005f 00000000 		.4byte	0
 3610 0063 00000000 		.4byte	0
 3611              	.LLST4:
 3612 0067 14000000 		.4byte	.LVL5
 3613 006b 16000000 		.4byte	.LVL6
 3614 006f 0100     		.2byte	0x1
 3615 0071 50       		.byte	0x50
 3616 0072 00000000 		.4byte	0
 3617 0076 00000000 		.4byte	0
 3618              	.LLST5:
 3619 007a 14000000 		.4byte	.LVL5
 3620 007e 16000000 		.4byte	.LVL6
 3621 0082 0100     		.2byte	0x1
 3622 0084 52       		.byte	0x52
 3623 0085 00000000 		.4byte	0
 3624 0089 00000000 		.4byte	0
 3625              	.LLST6:
 3626 008d 1E000000 		.4byte	.LVL8
 3627 0091 24000000 		.4byte	.LVL9
 3628 0095 0200     		.2byte	0x2
 3629 0097 30       		.byte	0x30
 3630 0098 9F       		.byte	0x9f
 3631 0099 00000000 		.4byte	0
 3632 009d 00000000 		.4byte	0
 3633              	.LLST7:
 3634 00a1 00000000 		.4byte	.LVL10
 3635 00a5 10000000 		.4byte	.LVL14
 3636 00a9 0100     		.2byte	0x1
 3637 00ab 50       		.byte	0x50
 3638 00ac 10000000 		.4byte	.LVL14
 3639 00b0 12000000 		.4byte	.LVL15
 3640 00b4 0200     		.2byte	0x2
 3641 00b6 72       		.byte	0x72
 3642 00b7 04       		.sleb128 4
 3643 00b8 12000000 		.4byte	.LVL15
 3644 00bc 16000000 		.4byte	.LVL16
 3645 00c0 0400     		.2byte	0x4
 3646 00c2 F3       		.byte	0xf3
 3647 00c3 01       		.uleb128 0x1
 3648 00c4 50       		.byte	0x50
ARM GAS  /var/folders/m4/4md61f0s1_g0rzfghffqnxvr0000gn/T//ccqtBXJY.s 			page 65


 3649 00c5 9F       		.byte	0x9f
 3650 00c6 16000000 		.4byte	.LVL16
 3651 00ca 18000000 		.4byte	.LFE233
 3652 00ce 0100     		.2byte	0x1
 3653 00d0 50       		.byte	0x50
 3654 00d1 00000000 		.4byte	0
 3655 00d5 00000000 		.4byte	0
 3656              	.LLST8:
 3657 00d9 00000000 		.4byte	.LVL10
 3658 00dd 02000000 		.4byte	.LVL11
 3659 00e1 0100     		.2byte	0x1
 3660 00e3 50       		.byte	0x50
 3661 00e4 00000000 		.4byte	0
 3662 00e8 00000000 		.4byte	0
 3663              	.LLST9:
 3664 00ec 06000000 		.4byte	.LVL12
 3665 00f0 0E000000 		.4byte	.LVL13
 3666 00f4 0100     		.2byte	0x1
 3667 00f6 50       		.byte	0x50
 3668 00f7 00000000 		.4byte	0
 3669 00fb 00000000 		.4byte	0
 3670              	.LLST10:
 3671 00ff 06000000 		.4byte	.LVL12
 3672 0103 0E000000 		.4byte	.LVL13
 3673 0107 0100     		.2byte	0x1
 3674 0109 53       		.byte	0x53
 3675 010a 00000000 		.4byte	0
 3676 010e 00000000 		.4byte	0
 3677              	.LLST11:
 3678 0112 00000000 		.4byte	.LVL17
 3679 0116 0C000000 		.4byte	.LVL19
 3680 011a 0100     		.2byte	0x1
 3681 011c 50       		.byte	0x50
 3682 011d 0C000000 		.4byte	.LVL19
 3683 0121 34000000 		.4byte	.LFE234
 3684 0125 0100     		.2byte	0x1
 3685 0127 54       		.byte	0x54
 3686 0128 00000000 		.4byte	0
 3687 012c 00000000 		.4byte	0
 3688              	.LLST12:
 3689 0130 00000000 		.4byte	.LVL17
 3690 0134 0A000000 		.4byte	.LVL18
 3691 0138 0300     		.2byte	0x3
 3692 013a 08       		.byte	0x8
 3693 013b 20       		.byte	0x20
 3694 013c 9F       		.byte	0x9f
 3695 013d 00000000 		.4byte	0
 3696 0141 00000000 		.4byte	0
 3697              	.LLST13:
 3698 0145 0A000000 		.4byte	.LVL18
 3699 0149 0C000000 		.4byte	.LVL19
 3700 014d 0100     		.2byte	0x1
 3701 014f 50       		.byte	0x50
 3702 0150 22000000 		.4byte	.LVL23
 3703 0154 24000000 		.4byte	.LVL24
 3704 0158 0100     		.2byte	0x1
 3705 015a 54       		.byte	0x54
ARM GAS  /var/folders/m4/4md61f0s1_g0rzfghffqnxvr0000gn/T//ccqtBXJY.s 			page 66


 3706 015b 00000000 		.4byte	0
 3707 015f 00000000 		.4byte	0
 3708              	.LLST14:
 3709 0163 16000000 		.4byte	.LVL20
 3710 0167 1C000000 		.4byte	.LVL21
 3711 016b 0100     		.2byte	0x1
 3712 016d 54       		.byte	0x54
 3713 016e 00000000 		.4byte	0
 3714 0172 00000000 		.4byte	0
 3715              	.LLST15:
 3716 0176 16000000 		.4byte	.LVL20
 3717 017a 1C000000 		.4byte	.LVL21
 3718 017e 0100     		.2byte	0x1
 3719 0180 50       		.byte	0x50
 3720 0181 00000000 		.4byte	0
 3721 0185 00000000 		.4byte	0
 3722              	.LLST16:
 3723 0189 2C000000 		.4byte	.LVL25
 3724 018d 32000000 		.4byte	.LVL26
 3725 0191 0200     		.2byte	0x2
 3726 0193 30       		.byte	0x30
 3727 0194 9F       		.byte	0x9f
 3728 0195 00000000 		.4byte	0
 3729 0199 00000000 		.4byte	0
 3730              	.LLST17:
 3731 019d 00000000 		.4byte	.LVL27
 3732 01a1 06000000 		.4byte	.LVL29
 3733 01a5 0100     		.2byte	0x1
 3734 01a7 50       		.byte	0x50
 3735 01a8 06000000 		.4byte	.LVL29
 3736 01ac 22000000 		.4byte	.LFE235
 3737 01b0 0100     		.2byte	0x1
 3738 01b2 54       		.byte	0x54
 3739 01b3 00000000 		.4byte	0
 3740 01b7 00000000 		.4byte	0
 3741              	.LLST18:
 3742 01bb 04000000 		.4byte	.LVL28
 3743 01bf 06000000 		.4byte	.LVL29
 3744 01c3 0100     		.2byte	0x1
 3745 01c5 50       		.byte	0x50
 3746 01c6 1A000000 		.4byte	.LVL33
 3747 01ca 1C000000 		.4byte	.LVL34
 3748 01ce 0100     		.2byte	0x1
 3749 01d0 54       		.byte	0x54
 3750 01d1 00000000 		.4byte	0
 3751 01d5 00000000 		.4byte	0
 3752              	.LLST19:
 3753 01d9 0E000000 		.4byte	.LVL30
 3754 01dd 14000000 		.4byte	.LVL31
 3755 01e1 0100     		.2byte	0x1
 3756 01e3 54       		.byte	0x54
 3757 01e4 00000000 		.4byte	0
 3758 01e8 00000000 		.4byte	0
 3759              	.LLST20:
 3760 01ec 0E000000 		.4byte	.LVL30
 3761 01f0 14000000 		.4byte	.LVL31
 3762 01f4 0100     		.2byte	0x1
ARM GAS  /var/folders/m4/4md61f0s1_g0rzfghffqnxvr0000gn/T//ccqtBXJY.s 			page 67


 3763 01f6 50       		.byte	0x50
 3764 01f7 00000000 		.4byte	0
 3765 01fb 00000000 		.4byte	0
 3766              	.LLST21:
 3767 01ff 00000000 		.4byte	.LVL35
 3768 0203 0C000000 		.4byte	.LVL37
 3769 0207 0100     		.2byte	0x1
 3770 0209 50       		.byte	0x50
 3771 020a 0C000000 		.4byte	.LVL37
 3772 020e 40000000 		.4byte	.LVL47
 3773 0212 0100     		.2byte	0x1
 3774 0214 55       		.byte	0x55
 3775 0215 40000000 		.4byte	.LVL47
 3776 0219 44000000 		.4byte	.LFE237
 3777 021d 0400     		.2byte	0x4
 3778 021f F3       		.byte	0xf3
 3779 0220 01       		.uleb128 0x1
 3780 0221 50       		.byte	0x50
 3781 0222 9F       		.byte	0x9f
 3782 0223 00000000 		.4byte	0
 3783 0227 00000000 		.4byte	0
 3784              	.LLST22:
 3785 022b 06000000 		.4byte	.LVL36
 3786 022f 36000000 		.4byte	.LVL45
 3787 0233 0100     		.2byte	0x1
 3788 0235 54       		.byte	0x54
 3789 0236 00000000 		.4byte	0
 3790 023a 00000000 		.4byte	0
 3791              	.LLST23:
 3792 023e 36000000 		.4byte	.LVL45
 3793 0242 40000000 		.4byte	.LVL47
 3794 0246 0100     		.2byte	0x1
 3795 0248 54       		.byte	0x54
 3796 0249 40000000 		.4byte	.LVL47
 3797 024d 44000000 		.4byte	.LFE237
 3798 0251 0100     		.2byte	0x1
 3799 0253 50       		.byte	0x50
 3800 0254 00000000 		.4byte	0
 3801 0258 00000000 		.4byte	0
 3802              	.LLST24:
 3803 025c 12000000 		.4byte	.LVL39
 3804 0260 30000000 		.4byte	.LVL43
 3805 0264 0100     		.2byte	0x1
 3806 0266 55       		.byte	0x55
 3807 0267 00000000 		.4byte	0
 3808 026b 00000000 		.4byte	0
 3809              	.LLST25:
 3810 026f 12000000 		.4byte	.LVL39
 3811 0273 30000000 		.4byte	.LVL43
 3812 0277 0100     		.2byte	0x1
 3813 0279 54       		.byte	0x54
 3814 027a 00000000 		.4byte	0
 3815 027e 00000000 		.4byte	0
 3816              	.LLST26:
 3817 0282 16000000 		.4byte	.LVL40
 3818 0286 33000000 		.4byte	.LVL44-1
 3819 028a 0100     		.2byte	0x1
ARM GAS  /var/folders/m4/4md61f0s1_g0rzfghffqnxvr0000gn/T//ccqtBXJY.s 			page 68


 3820 028c 53       		.byte	0x53
 3821 028d 00000000 		.4byte	0
 3822 0291 00000000 		.4byte	0
 3823              	.LLST27:
 3824 0295 00000000 		.4byte	.LVL48
 3825 0299 0B000000 		.4byte	.LVL50-1
 3826 029d 0100     		.2byte	0x1
 3827 029f 50       		.byte	0x50
 3828 02a0 0B000000 		.4byte	.LVL50-1
 3829 02a4 14000000 		.4byte	.LFE236
 3830 02a8 0400     		.2byte	0x4
 3831 02aa F3       		.byte	0xf3
 3832 02ab 01       		.uleb128 0x1
 3833 02ac 50       		.byte	0x50
 3834 02ad 9F       		.byte	0x9f
 3835 02ae 00000000 		.4byte	0
 3836 02b2 00000000 		.4byte	0
 3837              	.LLST28:
 3838 02b6 00000000 		.4byte	.LVL48
 3839 02ba 08000000 		.4byte	.LVL49
 3840 02be 0300     		.2byte	0x3
 3841 02c0 08       		.byte	0x8
 3842 02c1 20       		.byte	0x20
 3843 02c2 9F       		.byte	0x9f
 3844 02c3 00000000 		.4byte	0
 3845 02c7 00000000 		.4byte	0
 3846              	.LLST29:
 3847 02cb 0C000000 		.4byte	.LVL50
 3848 02cf 12000000 		.4byte	.LVL51
 3849 02d3 0200     		.2byte	0x2
 3850 02d5 30       		.byte	0x30
 3851 02d6 9F       		.byte	0x9f
 3852 02d7 00000000 		.4byte	0
 3853 02db 00000000 		.4byte	0
 3854              	.LLST30:
 3855 02df 00000000 		.4byte	.LVL52
 3856 02e3 0C000000 		.4byte	.LVL53
 3857 02e7 0100     		.2byte	0x1
 3858 02e9 50       		.byte	0x50
 3859 02ea 0C000000 		.4byte	.LVL53
 3860 02ee 4A000000 		.4byte	.LVL64
 3861 02f2 0100     		.2byte	0x1
 3862 02f4 55       		.byte	0x55
 3863 02f5 4A000000 		.4byte	.LVL64
 3864 02f9 50000000 		.4byte	.LFE239
 3865 02fd 0400     		.2byte	0x4
 3866 02ff F3       		.byte	0xf3
 3867 0300 01       		.uleb128 0x1
 3868 0301 50       		.byte	0x50
 3869 0302 9F       		.byte	0x9f
 3870 0303 00000000 		.4byte	0
 3871 0307 00000000 		.4byte	0
 3872              	.LLST31:
 3873 030b 00000000 		.4byte	.LVL52
 3874 030f 11000000 		.4byte	.LVL54-1
 3875 0313 0100     		.2byte	0x1
 3876 0315 51       		.byte	0x51
ARM GAS  /var/folders/m4/4md61f0s1_g0rzfghffqnxvr0000gn/T//ccqtBXJY.s 			page 69


 3877 0316 11000000 		.4byte	.LVL54-1
 3878 031a 4A000000 		.4byte	.LVL64
 3879 031e 0100     		.2byte	0x1
 3880 0320 57       		.byte	0x57
 3881 0321 4A000000 		.4byte	.LVL64
 3882 0325 50000000 		.4byte	.LFE239
 3883 0329 0400     		.2byte	0x4
 3884 032b F3       		.byte	0xf3
 3885 032c 01       		.uleb128 0x1
 3886 032d 51       		.byte	0x51
 3887 032e 9F       		.byte	0x9f
 3888 032f 00000000 		.4byte	0
 3889 0333 00000000 		.4byte	0
 3890              	.LLST32:
 3891 0337 3E000000 		.4byte	.LVL61
 3892 033b 42000000 		.4byte	.LVL62
 3893 033f 0100     		.2byte	0x1
 3894 0341 50       		.byte	0x50
 3895 0342 42000000 		.4byte	.LVL62
 3896 0346 4A000000 		.4byte	.LVL64
 3897 034a 0100     		.2byte	0x1
 3898 034c 54       		.byte	0x54
 3899 034d 4A000000 		.4byte	.LVL64
 3900 0351 50000000 		.4byte	.LFE239
 3901 0355 0100     		.2byte	0x1
 3902 0357 50       		.byte	0x50
 3903 0358 00000000 		.4byte	0
 3904 035c 00000000 		.4byte	0
 3905              	.LLST33:
 3906 0360 18000000 		.4byte	.LVL55
 3907 0364 36000000 		.4byte	.LVL59
 3908 0368 0100     		.2byte	0x1
 3909 036a 55       		.byte	0x55
 3910 036b 00000000 		.4byte	0
 3911 036f 00000000 		.4byte	0
 3912              	.LLST34:
 3913 0373 18000000 		.4byte	.LVL55
 3914 0377 36000000 		.4byte	.LVL59
 3915 037b 0100     		.2byte	0x1
 3916 037d 54       		.byte	0x54
 3917 037e 00000000 		.4byte	0
 3918 0382 00000000 		.4byte	0
 3919              	.LLST35:
 3920 0386 1A000000 		.4byte	.LVL56
 3921 038a 39000000 		.4byte	.LVL60-1
 3922 038e 0100     		.2byte	0x1
 3923 0390 53       		.byte	0x53
 3924 0391 00000000 		.4byte	0
 3925 0395 00000000 		.4byte	0
 3926              	.LLST36:
 3927 0399 00000000 		.4byte	.LVL65
 3928 039d 0B000000 		.4byte	.LVL67-1
 3929 03a1 0100     		.2byte	0x1
 3930 03a3 50       		.byte	0x50
 3931 03a4 0B000000 		.4byte	.LVL67-1
 3932 03a8 14000000 		.4byte	.LFE238
 3933 03ac 0400     		.2byte	0x4
ARM GAS  /var/folders/m4/4md61f0s1_g0rzfghffqnxvr0000gn/T//ccqtBXJY.s 			page 70


 3934 03ae F3       		.byte	0xf3
 3935 03af 01       		.uleb128 0x1
 3936 03b0 50       		.byte	0x50
 3937 03b1 9F       		.byte	0x9f
 3938 03b2 00000000 		.4byte	0
 3939 03b6 00000000 		.4byte	0
 3940              	.LLST37:
 3941 03ba 00000000 		.4byte	.LVL65
 3942 03be 0B000000 		.4byte	.LVL67-1
 3943 03c2 0100     		.2byte	0x1
 3944 03c4 51       		.byte	0x51
 3945 03c5 0B000000 		.4byte	.LVL67-1
 3946 03c9 14000000 		.4byte	.LFE238
 3947 03cd 0400     		.2byte	0x4
 3948 03cf F3       		.byte	0xf3
 3949 03d0 01       		.uleb128 0x1
 3950 03d1 51       		.byte	0x51
 3951 03d2 9F       		.byte	0x9f
 3952 03d3 00000000 		.4byte	0
 3953 03d7 00000000 		.4byte	0
 3954              	.LLST38:
 3955 03db 00000000 		.4byte	.LVL65
 3956 03df 08000000 		.4byte	.LVL66
 3957 03e3 0300     		.2byte	0x3
 3958 03e5 08       		.byte	0x8
 3959 03e6 20       		.byte	0x20
 3960 03e7 9F       		.byte	0x9f
 3961 03e8 00000000 		.4byte	0
 3962 03ec 00000000 		.4byte	0
 3963              	.LLST39:
 3964 03f0 0C000000 		.4byte	.LVL67
 3965 03f4 12000000 		.4byte	.LVL68
 3966 03f8 0200     		.2byte	0x2
 3967 03fa 30       		.byte	0x30
 3968 03fb 9F       		.byte	0x9f
 3969 03fc 00000000 		.4byte	0
 3970 0400 00000000 		.4byte	0
 3971              		.section	.debug_aranges,"",%progbits
 3972 0000 5C000000 		.4byte	0x5c
 3973 0004 0200     		.2byte	0x2
 3974 0006 00000000 		.4byte	.Ldebug_info0
 3975 000a 04       		.byte	0x4
 3976 000b 00       		.byte	0
 3977 000c 0000     		.2byte	0
 3978 000e 0000     		.2byte	0
 3979 0010 00000000 		.4byte	.LFB231
 3980 0014 06000000 		.4byte	.LFE231-.LFB231
 3981 0018 00000000 		.4byte	.LFB232
 3982 001c 26000000 		.4byte	.LFE232-.LFB232
 3983 0020 00000000 		.4byte	.LFB233
 3984 0024 18000000 		.4byte	.LFE233-.LFB233
 3985 0028 00000000 		.4byte	.LFB234
 3986 002c 34000000 		.4byte	.LFE234-.LFB234
 3987 0030 00000000 		.4byte	.LFB235
 3988 0034 22000000 		.4byte	.LFE235-.LFB235
 3989 0038 00000000 		.4byte	.LFB237
 3990 003c 44000000 		.4byte	.LFE237-.LFB237
ARM GAS  /var/folders/m4/4md61f0s1_g0rzfghffqnxvr0000gn/T//ccqtBXJY.s 			page 71


 3991 0040 00000000 		.4byte	.LFB236
 3992 0044 14000000 		.4byte	.LFE236-.LFB236
 3993 0048 00000000 		.4byte	.LFB239
 3994 004c 50000000 		.4byte	.LFE239-.LFB239
 3995 0050 00000000 		.4byte	.LFB238
 3996 0054 14000000 		.4byte	.LFE238-.LFB238
 3997 0058 00000000 		.4byte	0
 3998 005c 00000000 		.4byte	0
 3999              		.section	.debug_ranges,"",%progbits
 4000              	.Ldebug_ranges0:
 4001 0000 06000000 		.4byte	.LBB107
 4002 0004 0A000000 		.4byte	.LBE107
 4003 0008 0C000000 		.4byte	.LBB110
 4004 000c 0E000000 		.4byte	.LBE110
 4005 0010 00000000 		.4byte	0
 4006 0014 00000000 		.4byte	0
 4007 0018 0A000000 		.4byte	.LBB117
 4008 001c 0C000000 		.4byte	.LBE117
 4009 0020 22000000 		.4byte	.LBB122
 4010 0024 24000000 		.4byte	.LBE122
 4011 0028 00000000 		.4byte	0
 4012 002c 00000000 		.4byte	0
 4013 0030 04000000 		.4byte	.LBB128
 4014 0034 06000000 		.4byte	.LBE128
 4015 0038 1A000000 		.4byte	.LBB133
 4016 003c 1C000000 		.4byte	.LBE133
 4017 0040 00000000 		.4byte	0
 4018 0044 00000000 		.4byte	0
 4019 0048 12000000 		.4byte	.LBB136
 4020 004c 2A000000 		.4byte	.LBE136
 4021 0050 2C000000 		.4byte	.LBB139
 4022 0054 30000000 		.4byte	.LBE139
 4023 0058 00000000 		.4byte	0
 4024 005c 00000000 		.4byte	0
 4025 0060 14000000 		.4byte	.LBB153
 4026 0064 16000000 		.4byte	.LBE153
 4027 0068 1A000000 		.4byte	.LBB158
 4028 006c 2E000000 		.4byte	.LBE158
 4029 0070 30000000 		.4byte	.LBB159
 4030 0074 32000000 		.4byte	.LBE159
 4031 0078 34000000 		.4byte	.LBB160
 4032 007c 36000000 		.4byte	.LBE160
 4033 0080 00000000 		.4byte	0
 4034 0084 00000000 		.4byte	0
 4035 0088 00000000 		.4byte	.LFB231
 4036 008c 06000000 		.4byte	.LFE231
 4037 0090 00000000 		.4byte	.LFB232
 4038 0094 26000000 		.4byte	.LFE232
 4039 0098 00000000 		.4byte	.LFB233
 4040 009c 18000000 		.4byte	.LFE233
 4041 00a0 00000000 		.4byte	.LFB234
 4042 00a4 34000000 		.4byte	.LFE234
 4043 00a8 00000000 		.4byte	.LFB235
 4044 00ac 22000000 		.4byte	.LFE235
 4045 00b0 00000000 		.4byte	.LFB237
 4046 00b4 44000000 		.4byte	.LFE237
 4047 00b8 00000000 		.4byte	.LFB236
ARM GAS  /var/folders/m4/4md61f0s1_g0rzfghffqnxvr0000gn/T//ccqtBXJY.s 			page 72


 4048 00bc 14000000 		.4byte	.LFE236
 4049 00c0 00000000 		.4byte	.LFB239
 4050 00c4 50000000 		.4byte	.LFE239
 4051 00c8 00000000 		.4byte	.LFB238
 4052 00cc 14000000 		.4byte	.LFE238
 4053 00d0 00000000 		.4byte	0
 4054 00d4 00000000 		.4byte	0
 4055              		.section	.debug_line,"",%progbits
 4056              	.Ldebug_line0:
 4057 0000 8C040000 		.section	.debug_str,"MS",%progbits,1
 4057      02008A02 
 4057      00000201 
 4057      FB0E0D00 
 4057      01010101 
 4058              	.LASF53:
 4059 0000 72656164 		.ascii	"ready_list_t\000"
 4059      795F6C69 
 4059      73745F74 
 4059      00
 4060              	.LASF91:
 4061 000d 77747472 		.ascii	"wttrp\000"
 4061      7000
 4062              	.LASF88:
 4063 0013 7264796D 		.ascii	"rdymsg\000"
 4063      736700
 4064              	.LASF16:
 4065 001a 75696E74 		.ascii	"uint64_t\000"
 4065      36345F74 
 4065      00
 4066              	.LASF5:
 4067 0023 5F5F7569 		.ascii	"__uint8_t\000"
 4067      6E74385F 
 4067      7400
 4068              	.LASF85:
 4069 002d 706F7274 		.ascii	"port_intctx\000"
 4069      5F696E74 
 4069      63747800 
 4070              	.LASF72:
 4071 0039 73797374 		.ascii	"system_debug_t\000"
 4071      656D5F64 
 4071      65627567 
 4071      5F7400
 4072              	.LASF140:
 4073 0048 43686962 		.ascii	"ChibiOS_16.1.4/os/rt/src/chcond.c\000"
 4073      694F535F 
 4073      31362E31 
 4073      2E342F6F 
 4073      732F7274 
 4074              	.LASF110:
 4075 006a 71756575 		.ascii	"queue_init\000"
 4075      655F696E 
 4075      697400
 4076              	.LASF107:
 4077 0075 706F7274 		.ascii	"port_lock\000"
 4077      5F6C6F63 
 4077      6B00
 4078              	.LASF118:
ARM GAS  /var/folders/m4/4md61f0s1_g0rzfghffqnxvr0000gn/T//ccqtBXJY.s 			page 73


 4079 007f 6368436F 		.ascii	"chCondBroadcastI\000"
 4079      6E644272 
 4079      6F616463 
 4079      61737449 
 4079      00
 4080              	.LASF12:
 4081 0090 6C6F6E67 		.ascii	"long long unsigned int\000"
 4081      206C6F6E 
 4081      6720756E 
 4081      7369676E 
 4081      65642069 
 4082              	.LASF89:
 4083 00a7 65786974 		.ascii	"exitcode\000"
 4083      636F6465 
 4083      00
 4084              	.LASF79:
 4085 00b0 6D61696E 		.ascii	"mainthread\000"
 4085      74687265 
 4085      616400
 4086              	.LASF69:
 4087 00bb 76697274 		.ascii	"virtual_timers_list_t\000"
 4087      75616C5F 
 4087      74696D65 
 4087      72735F6C 
 4087      6973745F 
 4088              	.LASF131:
 4089 00d1 49544D5F 		.ascii	"ITM_RxBuffer\000"
 4089      52784275 
 4089      66666572 
 4089      00
 4090              	.LASF52:
 4091 00de 63685F74 		.ascii	"ch_threads_queue\000"
 4091      68726561 
 4091      64735F71 
 4091      75657565 
 4091      00
 4092              	.LASF30:
 4093 00ef 705F7072 		.ascii	"p_prio\000"
 4093      696F00
 4094              	.LASF10:
 4095 00f6 6C6F6E67 		.ascii	"long long int\000"
 4095      206C6F6E 
 4095      6720696E 
 4095      7400
 4096              	.LASF1:
 4097 0104 7369676E 		.ascii	"signed char\000"
 4097      65642063 
 4097      68617200 
 4098              	.LASF106:
 4099 0110 636F6E64 		.ascii	"condition_variable_t\000"
 4099      6974696F 
 4099      6E5F7661 
 4099      72696162 
 4099      6C655F74 
 4100              	.LASF46:
 4101 0125 705F6D70 		.ascii	"p_mpool\000"
 4101      6F6F6C00 
ARM GAS  /var/folders/m4/4md61f0s1_g0rzfghffqnxvr0000gn/T//ccqtBXJY.s 			page 74


 4102              	.LASF99:
 4103 012d 6D5F7175 		.ascii	"m_queue\000"
 4103      65756500 
 4104              	.LASF78:
 4105 0135 76746C69 		.ascii	"vtlist\000"
 4105      737400
 4106              	.LASF108:
 4107 013c 706F7274 		.ascii	"port_unlock\000"
 4107      5F756E6C 
 4107      6F636B00 
 4108              	.LASF21:
 4109 0148 74736C69 		.ascii	"tslices_t\000"
 4109      6365735F 
 4109      7400
 4110              	.LASF76:
 4111 0152 63685F73 		.ascii	"ch_system\000"
 4111      79737465 
 4111      6D00
 4112              	.LASF7:
 4113 015c 6C6F6E67 		.ascii	"long int\000"
 4113      20696E74 
 4113      00
 4114              	.LASF19:
 4115 0165 74737461 		.ascii	"tstate_t\000"
 4115      74655F74 
 4115      00
 4116              	.LASF114:
 4117 016e 71756575 		.ascii	"queue_notempty\000"
 4117      655F6E6F 
 4117      74656D70 
 4117      747900
 4118              	.LASF32:
 4119 017d 705F6E65 		.ascii	"p_newer\000"
 4119      77657200 
 4120              	.LASF96:
 4121 0185 735F7175 		.ascii	"s_queue\000"
 4121      65756500 
 4122              	.LASF134:
 4123 018d 63685363 		.ascii	"chSchRescheduleS\000"
 4123      68526573 
 4123      63686564 
 4123      756C6553 
 4123      00
 4124              	.LASF58:
 4125 019e 725F6E65 		.ascii	"r_newer\000"
 4125      77657200 
 4126              	.LASF82:
 4127 01a6 72656761 		.ascii	"regarm_t\000"
 4127      726D5F74 
 4127      00
 4128              	.LASF65:
 4129 01af 76745F70 		.ascii	"vt_prev\000"
 4129      72657600 
 4130              	.LASF73:
 4131 01b7 63685F73 		.ascii	"ch_system_debug\000"
 4131      79737465 
 4131      6D5F6465 
ARM GAS  /var/folders/m4/4md61f0s1_g0rzfghffqnxvr0000gn/T//ccqtBXJY.s 			page 75


 4131      62756700 
 4132              	.LASF103:
 4133 01c7 6D757465 		.ascii	"mutex_t\000"
 4133      785F7400 
 4134              	.LASF111:
 4135 01cf 76616C75 		.ascii	"value\000"
 4135      6500
 4136              	.LASF123:
 4137 01d5 6368436F 		.ascii	"chCondSignal\000"
 4137      6E645369 
 4137      676E616C 
 4137      00
 4138              	.LASF80:
 4139 01e2 69646C65 		.ascii	"idle_thread_wa\000"
 4139      5F746872 
 4139      6561645F 
 4139      776100
 4140              	.LASF25:
 4141 01f1 636E745F 		.ascii	"cnt_t\000"
 4141      7400
 4142              	.LASF135:
 4143 01f7 63684D74 		.ascii	"chMtxUnlockS\000"
 4143      78556E6C 
 4143      6F636B53 
 4143      00
 4144              	.LASF0:
 4145 0204 756E7369 		.ascii	"unsigned int\000"
 4145      676E6564 
 4145      20696E74 
 4145      00
 4146              	.LASF64:
 4147 0211 76745F6E 		.ascii	"vt_next\000"
 4147      65787400 
 4148              	.LASF39:
 4149 0219 705F7469 		.ascii	"p_time\000"
 4149      6D6500
 4150              	.LASF92:
 4151 0220 77747365 		.ascii	"wtsemp\000"
 4151      6D7000
 4152              	.LASF66:
 4153 0227 76745F64 		.ascii	"vt_delta\000"
 4153      656C7461 
 4153      00
 4154              	.LASF41:
 4155 0230 705F6D73 		.ascii	"p_msgqueue\000"
 4155      67717565 
 4155      756500
 4156              	.LASF97:
 4157 023b 735F636E 		.ascii	"s_cnt\000"
 4157      7400
 4158              	.LASF4:
 4159 0241 73686F72 		.ascii	"short unsigned int\000"
 4159      7420756E 
 4159      7369676E 
 4159      65642069 
 4159      6E7400
 4160              	.LASF49:
ARM GAS  /var/folders/m4/4md61f0s1_g0rzfghffqnxvr0000gn/T//ccqtBXJY.s 			page 76


 4161 0254 63685F74 		.ascii	"ch_thread\000"
 4161      68726561 
 4161      6400
 4162              	.LASF132:
 4163 025e 63685363 		.ascii	"chSchWakeupS\000"
 4163      6857616B 
 4163      65757053 
 4163      00
 4164              	.LASF23:
 4165 026b 6D73675F 		.ascii	"msg_t\000"
 4165      7400
 4166              	.LASF141:
 4167 0271 2F557365 		.ascii	"/Users/raphael/Documents/Projects/rESC/resc-firmwar"
 4167      72732F72 
 4167      61706861 
 4167      656C2F44 
 4167      6F63756D 
 4168 02a4 6500     		.ascii	"e\000"
 4169              	.LASF75:
 4170 02a6 63685F73 		.ascii	"ch_system_t\000"
 4170      79737465 
 4170      6D5F7400 
 4171              	.LASF18:
 4172 02b2 746D6F64 		.ascii	"tmode_t\000"
 4172      655F7400 
 4173              	.LASF54:
 4174 02ba 63685F72 		.ascii	"ch_ready_list\000"
 4174      65616479 
 4174      5F6C6973 
 4174      7400
 4175              	.LASF24:
 4176 02c8 6576656E 		.ascii	"eventmask_t\000"
 4176      746D6173 
 4176      6B5F7400 
 4177              	.LASF6:
 4178 02d4 5F5F696E 		.ascii	"__int32_t\000"
 4178      7433325F 
 4178      7400
 4179              	.LASF83:
 4180 02de 73746B61 		.ascii	"stkalign_t\000"
 4180      6C69676E 
 4180      5F7400
 4181              	.LASF48:
 4182 02e9 74687265 		.ascii	"threads_list_t\000"
 4182      6164735F 
 4182      6C697374 
 4182      5F7400
 4183              	.LASF40:
 4184 02f8 705F7761 		.ascii	"p_waiting\000"
 4184      6974696E 
 4184      6700
 4185              	.LASF81:
 4186 0302 73697A65 		.ascii	"sizetype\000"
 4186      74797065 
 4186      00
 4187              	.LASF47:
 4188 030b 74687265 		.ascii	"thread_reference_t\000"
ARM GAS  /var/folders/m4/4md61f0s1_g0rzfghffqnxvr0000gn/T//ccqtBXJY.s 			page 77


 4188      61645F72 
 4188      65666572 
 4188      656E6365 
 4188      5F7400
 4189              	.LASF70:
 4190 031e 63685F76 		.ascii	"ch_virtual_timers_list\000"
 4190      69727475 
 4190      616C5F74 
 4190      696D6572 
 4190      735F6C69 
 4191              	.LASF104:
 4192 0335 636F6E64 		.ascii	"condition_variable\000"
 4192      6974696F 
 4192      6E5F7661 
 4192      72696162 
 4192      6C6500
 4193              	.LASF128:
 4194 0348 6368436F 		.ascii	"chCondWaitTimeoutS\000"
 4194      6E645761 
 4194      69745469 
 4194      6D656F75 
 4194      745300
 4195              	.LASF33:
 4196 035b 705F6F6C 		.ascii	"p_older\000"
 4196      64657200 
 4197              	.LASF57:
 4198 0363 725F6374 		.ascii	"r_ctx\000"
 4198      7800
 4199              	.LASF87:
 4200 0369 746D5F63 		.ascii	"tm_calibration_t\000"
 4200      616C6962 
 4200      72617469 
 4200      6F6E5F74 
 4200      00
 4201              	.LASF101:
 4202 037a 6D5F6E65 		.ascii	"m_next\000"
 4202      787400
 4203              	.LASF129:
 4204 0381 74696D65 		.ascii	"time\000"
 4204      00
 4205              	.LASF60:
 4206 0386 725F6375 		.ascii	"r_current\000"
 4206      7272656E 
 4206      7400
 4207              	.LASF59:
 4208 0390 725F6F6C 		.ascii	"r_older\000"
 4208      64657200 
 4209              	.LASF125:
 4210 0398 6368436F 		.ascii	"chCondBroadcast\000"
 4210      6E644272 
 4210      6F616463 
 4210      61737400 
 4211              	.LASF11:
 4212 03a8 5F5F7569 		.ascii	"__uint64_t\000"
 4212      6E743634 
 4212      5F7400
 4213              	.LASF20:
ARM GAS  /var/folders/m4/4md61f0s1_g0rzfghffqnxvr0000gn/T//ccqtBXJY.s 			page 78


 4214 03b3 74726566 		.ascii	"trefs_t\000"
 4214      735F7400 
 4215              	.LASF62:
 4216 03bb 76697274 		.ascii	"virtual_timer_t\000"
 4216      75616C5F 
 4216      74696D65 
 4216      725F7400 
 4217              	.LASF29:
 4218 03cb 705F7072 		.ascii	"p_prev\000"
 4218      657600
 4219              	.LASF22:
 4220 03d2 74707269 		.ascii	"tprio_t\000"
 4220      6F5F7400 
 4221              	.LASF124:
 4222 03da 6368436F 		.ascii	"chCondSignalI\000"
 4222      6E645369 
 4222      676E616C 
 4222      4900
 4223              	.LASF112:
 4224 03e8 5F426F6F 		.ascii	"_Bool\000"
 4224      6C00
 4225              	.LASF14:
 4226 03ee 696E7433 		.ascii	"int32_t\000"
 4226      325F7400 
 4227              	.LASF2:
 4228 03f6 756E7369 		.ascii	"unsigned char\000"
 4228      676E6564 
 4228      20636861 
 4228      7200
 4229              	.LASF44:
 4230 0404 705F6D74 		.ascii	"p_mtxlist\000"
 4230      786C6973 
 4230      7400
 4231              	.LASF3:
 4232 040e 73686F72 		.ascii	"short int\000"
 4232      7420696E 
 4232      7400
 4233              	.LASF35:
 4234 0418 705F7374 		.ascii	"p_state\000"
 4234      61746500 
 4235              	.LASF38:
 4236 0420 705F7072 		.ascii	"p_preempt\000"
 4236      65656D70 
 4236      7400
 4237              	.LASF56:
 4238 042a 725F7072 		.ascii	"r_prio\000"
 4238      696F00
 4239              	.LASF94:
 4240 0431 65776D61 		.ascii	"ewmask\000"
 4240      736B00
 4241              	.LASF28:
 4242 0438 705F6E65 		.ascii	"p_next\000"
 4242      787400
 4243              	.LASF36:
 4244 043f 705F666C 		.ascii	"p_flags\000"
 4244      61677300 
 4245              	.LASF117:
ARM GAS  /var/folders/m4/4md61f0s1_g0rzfghffqnxvr0000gn/T//ccqtBXJY.s 			page 79


 4246 0447 5F5F6675 		.ascii	"__func__\000"
 4246      6E635F5F 
 4246      00
 4247              	.LASF113:
 4248 0450 63685379 		.ascii	"chSysLock\000"
 4248      734C6F63 
 4248      6B00
 4249              	.LASF63:
 4250 045a 63685F76 		.ascii	"ch_virtual_timer\000"
 4250      69727475 
 4250      616C5F74 
 4250      696D6572 
 4250      00
 4251              	.LASF105:
 4252 046b 635F7175 		.ascii	"c_queue\000"
 4252      65756500 
 4253              	.LASF95:
 4254 0473 63685F73 		.ascii	"ch_semaphore\000"
 4254      656D6170 
 4254      686F7265 
 4254      00
 4255              	.LASF136:
 4256 0480 63685363 		.ascii	"chSchGoSleepS\000"
 4256      68476F53 
 4256      6C656570 
 4256      5300
 4257              	.LASF43:
 4258 048e 705F6570 		.ascii	"p_epending\000"
 4258      656E6469 
 4258      6E6700
 4259              	.LASF121:
 4260 0499 63684D74 		.ascii	"chMtxGetNextMutexS\000"
 4260      78476574 
 4260      4E657874 
 4260      4D757465 
 4260      785300
 4261              	.LASF15:
 4262 04ac 75696E74 		.ascii	"uint32_t\000"
 4262      33325F74 
 4262      00
 4263              	.LASF93:
 4264 04b5 77746D74 		.ascii	"wtmtxp\000"
 4264      787000
 4265              	.LASF55:
 4266 04bc 725F7175 		.ascii	"r_queue\000"
 4266      65756500 
 4267              	.LASF133:
 4268 04c4 63685363 		.ascii	"chSchReadyI\000"
 4268      68526561 
 4268      64794900 
 4269              	.LASF50:
 4270 04d0 63685F74 		.ascii	"ch_threads_list\000"
 4270      68726561 
 4270      64735F6C 
 4270      69737400 
 4271              	.LASF9:
 4272 04e0 6C6F6E67 		.ascii	"long unsigned int\000"
ARM GAS  /var/folders/m4/4md61f0s1_g0rzfghffqnxvr0000gn/T//ccqtBXJY.s 			page 80


 4272      20756E73 
 4272      69676E65 
 4272      6420696E 
 4272      7400
 4273              	.LASF102:
 4274 04f2 63686172 		.ascii	"char\000"
 4274      00
 4275              	.LASF139:
 4276 04f7 474E5520 		.ascii	"GNU C99 5.2.1 20151202 (release) [ARM/embedded-5-br"
 4276      43393920 
 4276      352E322E 
 4276      31203230 
 4276      31353132 
 4277 052a 616E6368 		.ascii	"anch revision 231848] -mcpu=cortex-m4 -mfloat-abi=h"
 4277      20726576 
 4277      6973696F 
 4277      6E203233 
 4277      31383438 
 4278 055d 61726420 		.ascii	"ard -mfpu=fpv4-sp-d16 -mno-thumb-interwork -mthumb "
 4278      2D6D6670 
 4278      753D6670 
 4278      76342D73 
 4278      702D6431 
 4279 0590 2D676764 		.ascii	"-ggdb -O2 -std=c99 -fomit-frame-pointer -falign-fun"
 4279      62202D4F 
 4279      32202D73 
 4279      74643D63 
 4279      3939202D 
 4280 05c3 6374696F 		.ascii	"ctions=16 -ffunction-sections -fdata-sections -fno-"
 4280      6E733D31 
 4280      36202D66 
 4280      66756E63 
 4280      74696F6E 
 4281 05f6 636F6D6D 		.ascii	"common\000"
 4281      6F6E00
 4282              	.LASF126:
 4283 05fd 6368436F 		.ascii	"chCondWaitS\000"
 4283      6E645761 
 4283      69745300 
 4284              	.LASF122:
 4285 0609 6368436F 		.ascii	"chCondObjectInit\000"
 4285      6E644F62 
 4285      6A656374 
 4285      496E6974 
 4285      00
 4286              	.LASF115:
 4287 061a 71756575 		.ascii	"queue_fifo_remove\000"
 4287      655F6669 
 4287      666F5F72 
 4287      656D6F76 
 4287      6500
 4288              	.LASF26:
 4289 062c 73797374 		.ascii	"systime_t\000"
 4289      696D655F 
 4289      7400
 4290              	.LASF45:
 4291 0636 705F7265 		.ascii	"p_realprio\000"
ARM GAS  /var/folders/m4/4md61f0s1_g0rzfghffqnxvr0000gn/T//ccqtBXJY.s 			page 81


 4291      616C7072 
 4291      696F00
 4292              	.LASF61:
 4293 0641 76746675 		.ascii	"vtfunc_t\000"
 4293      6E635F74 
 4293      00
 4294              	.LASF8:
 4295 064a 5F5F7569 		.ascii	"__uint32_t\000"
 4295      6E743332 
 4295      5F7400
 4296              	.LASF109:
 4297 0655 5F5F7365 		.ascii	"__set_BASEPRI\000"
 4297      745F4241 
 4297      53455052 
 4297      4900
 4298              	.LASF74:
 4299 0663 70616E69 		.ascii	"panic_msg\000"
 4299      635F6D73 
 4299      6700
 4300              	.LASF86:
 4301 066d 6F666673 		.ascii	"offset\000"
 4301      657400
 4302              	.LASF84:
 4303 0674 636F6E74 		.ascii	"context\000"
 4303      65787400 
 4304              	.LASF17:
 4305 067c 7274636E 		.ascii	"rtcnt_t\000"
 4305      745F7400 
 4306              	.LASF127:
 4307 0684 6368436F 		.ascii	"chCondWait\000"
 4307      6E645761 
 4307      697400
 4308              	.LASF68:
 4309 068f 76745F70 		.ascii	"vt_par\000"
 4309      617200
 4310              	.LASF51:
 4311 0696 74687265 		.ascii	"threads_queue_t\000"
 4311      6164735F 
 4311      71756575 
 4311      655F7400 
 4312              	.LASF98:
 4313 06a6 63685F6D 		.ascii	"ch_mutex\000"
 4313      75746578 
 4313      00
 4314              	.LASF37:
 4315 06af 705F7265 		.ascii	"p_refs\000"
 4315      667300
 4316              	.LASF27:
 4317 06b6 74687265 		.ascii	"thread_t\000"
 4317      61645F74 
 4317      00
 4318              	.LASF77:
 4319 06bf 726C6973 		.ascii	"rlist\000"
 4319      7400
 4320              	.LASF120:
 4321 06c5 63685468 		.ascii	"chThdGetSelfX\000"
 4321      64476574 
ARM GAS  /var/folders/m4/4md61f0s1_g0rzfghffqnxvr0000gn/T//ccqtBXJY.s 			page 82


 4321      53656C66 
 4321      5800
 4322              	.LASF13:
 4323 06d3 75696E74 		.ascii	"uint8_t\000"
 4323      385F7400 
 4324              	.LASF90:
 4325 06db 77746F62 		.ascii	"wtobjp\000"
 4325      6A7000
 4326              	.LASF34:
 4327 06e2 705F6E61 		.ascii	"p_name\000"
 4327      6D6500
 4328              	.LASF130:
 4329 06e9 6368436F 		.ascii	"chCondWaitTimeout\000"
 4329      6E645761 
 4329      69745469 
 4329      6D656F75 
 4329      7400
 4330              	.LASF71:
 4331 06fb 76745F73 		.ascii	"vt_systime\000"
 4331      79737469 
 4331      6D6500
 4332              	.LASF138:
 4333 0706 63685363 		.ascii	"chSchGoSleepTimeoutS\000"
 4333      68476F53 
 4333      6C656570 
 4333      54696D65 
 4333      6F757453 
 4334              	.LASF116:
 4335 071b 63685379 		.ascii	"chSysUnlock\000"
 4335      73556E6C 
 4335      6F636B00 
 4336              	.LASF42:
 4337 0727 705F6D73 		.ascii	"p_msg\000"
 4337      6700
 4338              	.LASF137:
 4339 072d 63684D74 		.ascii	"chMtxLockS\000"
 4339      784C6F63 
 4339      6B5300
 4340              	.LASF119:
 4341 0738 71756575 		.ascii	"queue_prio_insert\000"
 4341      655F7072 
 4341      696F5F69 
 4341      6E736572 
 4341      7400
 4342              	.LASF100:
 4343 074a 6D5F6F77 		.ascii	"m_owner\000"
 4343      6E657200 
 4344              	.LASF31:
 4345 0752 705F6374 		.ascii	"p_ctx\000"
 4345      7800
 4346              	.LASF67:
 4347 0758 76745F66 		.ascii	"vt_func\000"
 4347      756E6300 
 4348              		.ident	"GCC: (GNU Tools for ARM Embedded Processors) 5.2.1 20151202 (release) [ARM/embedded-5-bran
ARM GAS  /var/folders/m4/4md61f0s1_g0rzfghffqnxvr0000gn/T//ccqtBXJY.s 			page 83


DEFINED SYMBOLS
                            *ABS*:0000000000000000 chcond.c
/var/folders/m4/4md61f0s1_g0rzfghffqnxvr0000gn/T//ccqtBXJY.s:22     .text.chCondObjectInit:0000000000000000 $t
/var/folders/m4/4md61f0s1_g0rzfghffqnxvr0000gn/T//ccqtBXJY.s:28     .text.chCondObjectInit:0000000000000000 chCondObjectInit
/var/folders/m4/4md61f0s1_g0rzfghffqnxvr0000gn/T//ccqtBXJY.s:52     .text.chCondSignal:0000000000000000 $t
/var/folders/m4/4md61f0s1_g0rzfghffqnxvr0000gn/T//ccqtBXJY.s:58     .text.chCondSignal:0000000000000000 chCondSignal
/var/folders/m4/4md61f0s1_g0rzfghffqnxvr0000gn/T//ccqtBXJY.s:140    .text.chCondSignalI:0000000000000000 $t
/var/folders/m4/4md61f0s1_g0rzfghffqnxvr0000gn/T//ccqtBXJY.s:146    .text.chCondSignalI:0000000000000000 chCondSignalI
/var/folders/m4/4md61f0s1_g0rzfghffqnxvr0000gn/T//ccqtBXJY.s:198    .text.chCondBroadcast:0000000000000000 $t
/var/folders/m4/4md61f0s1_g0rzfghffqnxvr0000gn/T//ccqtBXJY.s:204    .text.chCondBroadcast:0000000000000000 chCondBroadcast
/var/folders/m4/4md61f0s1_g0rzfghffqnxvr0000gn/T//ccqtBXJY.s:310    .text.chCondBroadcastI:0000000000000000 $t
/var/folders/m4/4md61f0s1_g0rzfghffqnxvr0000gn/T//ccqtBXJY.s:316    .text.chCondBroadcastI:0000000000000000 chCondBroadcastI
/var/folders/m4/4md61f0s1_g0rzfghffqnxvr0000gn/T//ccqtBXJY.s:377    .text.chCondWaitS:0000000000000000 $t
/var/folders/m4/4md61f0s1_g0rzfghffqnxvr0000gn/T//ccqtBXJY.s:383    .text.chCondWaitS:0000000000000000 chCondWaitS
/var/folders/m4/4md61f0s1_g0rzfghffqnxvr0000gn/T//ccqtBXJY.s:475    .text.chCondWaitS:0000000000000040 $d
/var/folders/m4/4md61f0s1_g0rzfghffqnxvr0000gn/T//ccqtBXJY.s:480    .text.chCondWait:0000000000000000 $t
/var/folders/m4/4md61f0s1_g0rzfghffqnxvr0000gn/T//ccqtBXJY.s:486    .text.chCondWait:0000000000000000 chCondWait
/var/folders/m4/4md61f0s1_g0rzfghffqnxvr0000gn/T//ccqtBXJY.s:542    .text.chCondWaitTimeoutS:0000000000000000 $t
/var/folders/m4/4md61f0s1_g0rzfghffqnxvr0000gn/T//ccqtBXJY.s:548    .text.chCondWaitTimeoutS:0000000000000000 chCondWaitTimeoutS
/var/folders/m4/4md61f0s1_g0rzfghffqnxvr0000gn/T//ccqtBXJY.s:664    .text.chCondWaitTimeoutS:000000000000004c $d
/var/folders/m4/4md61f0s1_g0rzfghffqnxvr0000gn/T//ccqtBXJY.s:669    .text.chCondWaitTimeout:0000000000000000 $t
/var/folders/m4/4md61f0s1_g0rzfghffqnxvr0000gn/T//ccqtBXJY.s:675    .text.chCondWaitTimeout:0000000000000000 chCondWaitTimeout
                     .debug_frame:0000000000000010 $d

UNDEFINED SYMBOLS
chSchWakeupS
chSchReadyI
chSchRescheduleS
chMtxUnlockS
chSchGoSleepS
chMtxLockS
ch
chSchGoSleepTimeoutS
