ARM GAS  /var/folders/m4/4md61f0s1_g0rzfghffqnxvr0000gn/T//ccqtBXJY.s 			page 1


   1              		.syntax unified
   2              		.cpu cortex-m4
   3              		.eabi_attribute 27, 1
   4              		.eabi_attribute 28, 1
   5              		.fpu fpv4-sp-d16
   6              		.eabi_attribute 20, 1
   7              		.eabi_attribute 21, 1
   8              		.eabi_attribute 23, 3
   9              		.eabi_attribute 24, 1
  10              		.eabi_attribute 25, 1
  11              		.eabi_attribute 26, 1
  12              		.eabi_attribute 30, 2
  13              		.eabi_attribute 34, 1
  14              		.eabi_attribute 18, 4
  15              		.thumb
  16              		.syntax unified
  17              		.file	"chcond.c"
  18              		.text
  19              	.Ltext0:
  20              		.cfi_sections	.debug_frame
  21              		.section	.text.chCondObjectInit,"ax",%progbits
  22              		.align	2
  23              		.p2align 4,,15
  24              		.global	chCondObjectInit
  25              		.thumb
  26              		.thumb_func
  27              		.type	chCondObjectInit, %function
  28              	chCondObjectInit:
  29              	.LFB231:
  30              		.file 1 "ChibiOS_16.1.4/os/rt/src/chcond.c"
  31              		.loc 1 75 0
  32              		.cfi_startproc
  33              		@ args = 0, pretend = 0, frame = 0
  34              		@ frame_needed = 0, uses_anonymous_args = 0
  35              		@ link register save eliminated.
  36              	.LVL0:
  37              	.LBB89:
  38              	.LBB90:
  39              		.file 2 "ChibiOS_16.1.4/os/rt/include/chschd.h"
  40              		.loc 2 604 0
  41 0000 0060     		str	r0, [r0]
  42              		.loc 2 605 0
  43 0002 4060     		str	r0, [r0, #4]
  44              	.LVL1:
  45 0004 7047     		bx	lr
  46              	.LBE90:
  47              	.LBE89:
  48              		.cfi_endproc
  49              	.LFE231:
  50              		.size	chCondObjectInit, .-chCondObjectInit
  51 0006 00BF     		.section	.text.chCondSignal,"ax",%progbits
  52              		.align	2
  53              		.p2align 4,,15
  54              		.global	chCondSignal
  55              		.thumb
  56              		.thumb_func
  57              		.type	chCondSignal, %function
ARM GAS  /var/folders/m4/4md61f0s1_g0rzfghffqnxvr0000gn/T//ccqtBXJY.s 			page 2


  58              	chCondSignal:
  59              	.LFB232:
  60              		.loc 1 89 0
  61              		.cfi_startproc
  62              		@ args = 0, pretend = 0, frame = 0
  63              		@ frame_needed = 0, uses_anonymous_args = 0
  64              	.LVL2:
  65 0000 08B5     		push	{r3, lr}
  66              		.cfi_def_cfa_offset 8
  67              		.cfi_offset 3, -8
  68              		.cfi_offset 14, -4
  69              	.LBB91:
  70              	.LBB92:
  71              	.LBB93:
  72              	.LBB94:
  73              		.file 3 "ChibiOS_16.1.4/os/ext/CMSIS/include/core_cmFunc.h"
  74              		.loc 3 548 0
  75 0002 2023     		movs	r3, #32
  76              		.syntax unified
  77              	@ 548 "ChibiOS_16.1.4/os/ext/CMSIS/include/core_cmFunc.h" 1
  78 0004 83F31188 		MSR basepri, r3
  79              	@ 0 "" 2
  80              	.LVL3:
  81              		.thumb
  82              		.syntax unified
  83              	.LBE94:
  84              	.LBE93:
  85              	.LBE92:
  86              	.LBE91:
  87              	.LBB95:
  88              	.LBB96:
  89              		.loc 2 631 0
  90 0008 0268     		ldr	r2, [r0]
  91              	.LVL4:
  92              	.LBE96:
  93              	.LBE95:
  94              		.loc 1 94 0
  95 000a 9042     		cmp	r0, r2
  96 000c 07D0     		beq	.L3
  97              	.LBB97:
  98              	.LBB98:
  99              		.loc 2 674 0
 100 000e 1168     		ldr	r1, [r2]
 101 0010 0160     		str	r1, [r0]
 102 0012 0346     		mov	r3, r0
 103              	.LVL5:
 104              		.loc 2 675 0
 105 0014 4B60     		str	r3, [r1, #4]
 106              	.LVL6:
 107              	.LBE98:
 108              	.LBE97:
 109              		.loc 1 95 0
 110 0016 1046     		mov	r0, r2
 111              	.LVL7:
 112 0018 0021     		movs	r1, #0
 113 001a FFF7FEFF 		bl	chSchWakeupS
 114              	.LVL8:
ARM GAS  /var/folders/m4/4md61f0s1_g0rzfghffqnxvr0000gn/T//ccqtBXJY.s 			page 3


 115              	.L3:
 116              	.LBB99:
 117              	.LBB100:
 118              	.LBB101:
 119              	.LBB102:
 120              	.LBB103:
 121              		.loc 3 548 0
 122 001e 0023     		movs	r3, #0
 123              		.syntax unified
 124              	@ 548 "ChibiOS_16.1.4/os/ext/CMSIS/include/core_cmFunc.h" 1
 125 0020 83F31188 		MSR basepri, r3
 126              	@ 0 "" 2
 127              	.LVL9:
 128              		.thumb
 129              		.syntax unified
 130 0024 08BD     		pop	{r3, pc}
 131              	.LBE103:
 132              	.LBE102:
 133              	.LBE101:
 134              	.LBE100:
 135              	.LBE99:
 136              		.cfi_endproc
 137              	.LFE232:
 138              		.size	chCondSignal, .-chCondSignal
 139 0026 00BF     		.section	.text.chCondSignalI,"ax",%progbits
 140              		.align	2
 141              		.p2align 4,,15
 142              		.global	chCondSignalI
 143              		.thumb
 144              		.thumb_func
 145              		.type	chCondSignalI, %function
 146              	chCondSignalI:
 147              	.LFB233:
 148              		.loc 1 111 0
 149              		.cfi_startproc
 150              		@ args = 0, pretend = 0, frame = 0
 151              		@ frame_needed = 0, uses_anonymous_args = 0
 152              		@ link register save eliminated.
 153              	.LVL10:
 154              	.LBB104:
 155              	.LBB105:
 156              		.loc 2 631 0
 157 0000 0368     		ldr	r3, [r0]
 158              	.LVL11:
 159              	.LBE105:
 160              	.LBE104:
 161              		.loc 1 116 0
 162 0002 9842     		cmp	r0, r3
 163 0004 07D0     		beq	.L6
 164              	.LVL12:
 165              	.LBB106:
 166              	.LBB107:
 167              	.LBB108:
 168              		.loc 2 674 0
 169 0006 1A68     		ldr	r2, [r3]
 170 0008 0260     		str	r2, [r0]
 171              	.LBE108:
ARM GAS  /var/folders/m4/4md61f0s1_g0rzfghffqnxvr0000gn/T//ccqtBXJY.s 			page 4


 172              	.LBE107:
 173              		.loc 1 118 0
 174 000a 0021     		movs	r1, #0
 175              	.LBB110:
 176              	.LBB109:
 177              		.loc 2 675 0
 178 000c 5060     		str	r0, [r2, #4]
 179              	.LVL13:
 180              	.LBE109:
 181              	.LBE110:
 182              		.loc 1 119 0
 183 000e 1846     		mov	r0, r3
 184              	.LVL14:
 185              		.loc 1 118 0
 186 0010 5962     		str	r1, [r3, #36]
 187              	.LVL15:
 188              		.loc 1 119 0
 189 0012 FFF7FEBF 		b	chSchReadyI
 190              	.LVL16:
 191              	.L6:
 192 0016 7047     		bx	lr
 193              	.LBE106:
 194              		.cfi_endproc
 195              	.LFE233:
 196              		.size	chCondSignalI, .-chCondSignalI
 197              		.section	.text.chCondBroadcast,"ax",%progbits
 198              		.align	2
 199              		.p2align 4,,15
 200              		.global	chCondBroadcast
 201              		.thumb
 202              		.thumb_func
 203              		.type	chCondBroadcast, %function
 204              	chCondBroadcast:
 205              	.LFB234:
 206              		.loc 1 130 0
 207              		.cfi_startproc
 208              		@ args = 0, pretend = 0, frame = 0
 209              		@ frame_needed = 0, uses_anonymous_args = 0
 210              	.LVL17:
 211 0000 38B5     		push	{r3, r4, r5, lr}
 212              		.cfi_def_cfa_offset 16
 213              		.cfi_offset 3, -16
 214              		.cfi_offset 4, -12
 215              		.cfi_offset 5, -8
 216              		.cfi_offset 14, -4
 217              		.loc 1 130 0
 218 0002 0446     		mov	r4, r0
 219              	.LBB111:
 220              	.LBB112:
 221              	.LBB113:
 222              	.LBB114:
 223              		.loc 3 548 0
 224 0004 2023     		movs	r3, #32
 225              		.syntax unified
 226              	@ 548 "ChibiOS_16.1.4/os/ext/CMSIS/include/core_cmFunc.h" 1
 227 0006 83F31188 		MSR basepri, r3
 228              	@ 0 "" 2
ARM GAS  /var/folders/m4/4md61f0s1_g0rzfghffqnxvr0000gn/T//ccqtBXJY.s 			page 5


 229              	.LVL18:
 230              		.thumb
 231              		.syntax unified
 232              	.LBE114:
 233              	.LBE113:
 234              	.LBE112:
 235              	.LBE111:
 236              	.LBB115:
 237              	.LBB116:
 238              	.LBB117:
 239              	.LBB118:
 240              		.loc 2 631 0
 241 000a 0068     		ldr	r0, [r0]
 242              	.LVL19:
 243              	.LBE118:
 244              	.LBE117:
 245              		.loc 1 157 0
 246 000c 8442     		cmp	r4, r0
 247              		.loc 1 158 0
 248 000e 18BF     		it	ne
 249 0010 6FF00105 		mvnne	r5, #1
 250              		.loc 1 157 0
 251 0014 08D0     		beq	.L11
 252              	.L10:
 253              	.LVL20:
 254              	.LBB120:
 255              	.LBB121:
 256              		.loc 2 674 0
 257 0016 0368     		ldr	r3, [r0]
 258 0018 2360     		str	r3, [r4]
 259              		.loc 2 675 0
 260 001a 5C60     		str	r4, [r3, #4]
 261              	.LVL21:
 262              	.LBE121:
 263              	.LBE120:
 264              		.loc 1 158 0
 265 001c FFF7FEFF 		bl	chSchReadyI
 266              	.LVL22:
 267 0020 4562     		str	r5, [r0, #36]
 268              	.LVL23:
 269              	.LBB122:
 270              	.LBB119:
 271              		.loc 2 631 0
 272 0022 2068     		ldr	r0, [r4]
 273              	.LVL24:
 274              	.LBE119:
 275              	.LBE122:
 276              		.loc 1 157 0
 277 0024 A042     		cmp	r0, r4
 278 0026 F6D1     		bne	.L10
 279              	.L11:
 280              	.LBE116:
 281              	.LBE115:
 282              		.loc 1 134 0
 283 0028 FFF7FEFF 		bl	chSchRescheduleS
 284              	.LVL25:
 285              	.LBB123:
ARM GAS  /var/folders/m4/4md61f0s1_g0rzfghffqnxvr0000gn/T//ccqtBXJY.s 			page 6


 286              	.LBB124:
 287              	.LBB125:
 288              	.LBB126:
 289              	.LBB127:
 290              		.loc 3 548 0
 291 002c 0023     		movs	r3, #0
 292              		.syntax unified
 293              	@ 548 "ChibiOS_16.1.4/os/ext/CMSIS/include/core_cmFunc.h" 1
 294 002e 83F31188 		MSR basepri, r3
 295              	@ 0 "" 2
 296              	.LVL26:
 297              		.thumb
 298              		.syntax unified
 299              	.LBE127:
 300              	.LBE126:
 301              	.LBE125:
 302              	.LBE124:
 303              	.LBE123:
 304              		.loc 1 136 0
 305 0032 38BD     		pop	{r3, r4, r5, pc}
 306              		.cfi_endproc
 307              	.LFE234:
 308              		.size	chCondBroadcast, .-chCondBroadcast
 309              		.section	.text.chCondBroadcastI,"ax",%progbits
 310              		.align	2
 311              		.p2align 4,,15
 312              		.global	chCondBroadcastI
 313              		.thumb
 314              		.thumb_func
 315              		.type	chCondBroadcastI, %function
 316              	chCondBroadcastI:
 317              	.LFB235:
 318              		.loc 1 149 0
 319              		.cfi_startproc
 320              		@ args = 0, pretend = 0, frame = 0
 321              		@ frame_needed = 0, uses_anonymous_args = 0
 322              	.LVL27:
 323 0000 38B5     		push	{r3, r4, r5, lr}
 324              		.cfi_def_cfa_offset 16
 325              		.cfi_offset 3, -16
 326              		.cfi_offset 4, -12
 327              		.cfi_offset 5, -8
 328              		.cfi_offset 14, -4
 329              		.loc 1 149 0
 330 0002 0446     		mov	r4, r0
 331              	.LVL28:
 332              	.LBB128:
 333              	.LBB129:
 334              		.loc 2 631 0
 335 0004 0068     		ldr	r0, [r0]
 336              	.LVL29:
 337              	.LBE129:
 338              	.LBE128:
 339              		.loc 1 157 0
 340 0006 8442     		cmp	r4, r0
 341 0008 0AD0     		beq	.L15
 342              		.loc 1 158 0
ARM GAS  /var/folders/m4/4md61f0s1_g0rzfghffqnxvr0000gn/T//ccqtBXJY.s 			page 7


 343 000a 6FF00105 		mvn	r5, #1
 344              	.L17:
 345              	.LVL30:
 346              	.LBB131:
 347              	.LBB132:
 348              		.loc 2 674 0
 349 000e 0368     		ldr	r3, [r0]
 350 0010 2360     		str	r3, [r4]
 351              		.loc 2 675 0
 352 0012 5C60     		str	r4, [r3, #4]
 353              	.LVL31:
 354              	.LBE132:
 355              	.LBE131:
 356              		.loc 1 158 0
 357 0014 FFF7FEFF 		bl	chSchReadyI
 358              	.LVL32:
 359 0018 4562     		str	r5, [r0, #36]
 360              	.LVL33:
 361              	.LBB133:
 362              	.LBB130:
 363              		.loc 2 631 0
 364 001a 2068     		ldr	r0, [r4]
 365              	.LVL34:
 366              	.LBE130:
 367              	.LBE133:
 368              		.loc 1 157 0
 369 001c A042     		cmp	r0, r4
 370 001e F6D1     		bne	.L17
 371              	.L15:
 372 0020 38BD     		pop	{r3, r4, r5, pc}
 373              		.cfi_endproc
 374              	.LFE235:
 375              		.size	chCondBroadcastI, .-chCondBroadcastI
 376 0022 00BF     		.section	.text.chCondWaitS,"ax",%progbits
 377              		.align	2
 378              		.p2align 4,,15
 379              		.global	chCondWaitS
 380              		.thumb
 381              		.thumb_func
 382              		.type	chCondWaitS, %function
 383              	chCondWaitS:
 384              	.LFB237:
 385              		.loc 1 205 0
 386              		.cfi_startproc
 387              		@ args = 0, pretend = 0, frame = 0
 388              		@ frame_needed = 0, uses_anonymous_args = 0
 389              	.LVL35:
 390              		.loc 1 206 0
 391 0000 0F4B     		ldr	r3, .L29
 392              		.loc 1 205 0
 393 0002 70B5     		push	{r4, r5, r6, lr}
 394              		.cfi_def_cfa_offset 16
 395              		.cfi_offset 4, -16
 396              		.cfi_offset 5, -12
 397              		.cfi_offset 6, -8
 398              		.cfi_offset 14, -4
 399              		.loc 1 206 0
ARM GAS  /var/folders/m4/4md61f0s1_g0rzfghffqnxvr0000gn/T//ccqtBXJY.s 			page 8


 400 0004 9C69     		ldr	r4, [r3, #24]
 401              	.LVL36:
 402              	.LBB134:
 403              	.LBB135:
 404              		.file 4 "ChibiOS_16.1.4/os/rt/include/chmtx.h"
 405              		.loc 4 146 0
 406 0006 E66B     		ldr	r6, [r4, #60]
 407              	.LBE135:
 408              	.LBE134:
 409              		.loc 1 205 0
 410 0008 0546     		mov	r5, r0
 411              		.loc 1 216 0
 412 000a 3046     		mov	r0, r6
 413              	.LVL37:
 414 000c FFF7FEFF 		bl	chMtxUnlockS
 415              	.LVL38:
 416              		.loc 1 220 0
 417 0010 6562     		str	r5, [r4, #36]
 418              	.LVL39:
 419              	.LBB136:
 420              	.LBB137:
 421              		.loc 2 653 0
 422 0012 2B46     		mov	r3, r5
 423 0014 03E0     		b	.L23
 424              	.LVL40:
 425              	.L28:
 426              		.loc 2 656 0
 427 0016 9968     		ldr	r1, [r3, #8]
 428 0018 A268     		ldr	r2, [r4, #8]
 429 001a 9142     		cmp	r1, r2
 430 001c 02D3     		bcc	.L24
 431              	.LVL41:
 432              	.L23:
 433              		.loc 2 655 0
 434 001e 1B68     		ldr	r3, [r3]
 435              	.LVL42:
 436              		.loc 2 656 0
 437 0020 9D42     		cmp	r5, r3
 438 0022 F8D1     		bne	.L28
 439              	.L24:
 440              		.loc 2 658 0
 441 0024 5A68     		ldr	r2, [r3, #4]
 442 0026 6260     		str	r2, [r4, #4]
 443              		.loc 2 657 0
 444 0028 2360     		str	r3, [r4]
 445              	.LBE137:
 446              	.LBE136:
 447              		.loc 1 222 0
 448 002a 0720     		movs	r0, #7
 449              	.LBB139:
 450              	.LBB138:
 451              		.loc 2 659 0
 452 002c 1460     		str	r4, [r2]
 453              		.loc 2 660 0
 454 002e 5C60     		str	r4, [r3, #4]
 455              	.LVL43:
 456              	.LBE138:
ARM GAS  /var/folders/m4/4md61f0s1_g0rzfghffqnxvr0000gn/T//ccqtBXJY.s 			page 9


 457              	.LBE139:
 458              		.loc 1 222 0
 459 0030 FFF7FEFF 		bl	chSchGoSleepS
 460              	.LVL44:
 461              		.loc 1 223 0
 462 0034 646A     		ldr	r4, [r4, #36]
 463              	.LVL45:
 464              		.loc 1 224 0
 465 0036 3046     		mov	r0, r6
 466 0038 FFF7FEFF 		bl	chMtxLockS
 467              	.LVL46:
 468              		.loc 1 227 0
 469 003c 2046     		mov	r0, r4
 470 003e 70BD     		pop	{r4, r5, r6, pc}
 471              	.LVL47:
 472              	.L30:
 473              		.align	2
 474              	.L29:
 475 0040 00000000 		.word	ch
 476              		.cfi_endproc
 477              	.LFE237:
 478              		.size	chCondWaitS, .-chCondWaitS
 479              		.section	.text.chCondWait,"ax",%progbits
 480              		.align	2
 481              		.p2align 4,,15
 482              		.global	chCondWait
 483              		.thumb
 484              		.thumb_func
 485              		.type	chCondWait, %function
 486              	chCondWait:
 487              	.LFB236:
 488              		.loc 1 179 0
 489              		.cfi_startproc
 490              		@ args = 0, pretend = 0, frame = 0
 491              		@ frame_needed = 0, uses_anonymous_args = 0
 492              	.LVL48:
 493 0000 08B5     		push	{r3, lr}
 494              		.cfi_def_cfa_offset 8
 495              		.cfi_offset 3, -8
 496              		.cfi_offset 14, -4
 497              	.LBB140:
 498              	.LBB141:
 499              	.LBB142:
 500              	.LBB143:
 501              		.loc 3 548 0
 502 0002 2023     		movs	r3, #32
 503              		.syntax unified
 504              	@ 548 "ChibiOS_16.1.4/os/ext/CMSIS/include/core_cmFunc.h" 1
 505 0004 83F31188 		MSR basepri, r3
 506              	@ 0 "" 2
 507              	.LVL49:
 508              		.thumb
 509              		.syntax unified
 510              	.LBE143:
 511              	.LBE142:
 512              	.LBE141:
 513              	.LBE140:
ARM GAS  /var/folders/m4/4md61f0s1_g0rzfghffqnxvr0000gn/T//ccqtBXJY.s 			page 10


 514              		.loc 1 183 0
 515 0008 FFF7FEFF 		bl	chCondWaitS
 516              	.LVL50:
 517              	.LBB144:
 518              	.LBB145:
 519              	.LBB146:
 520              	.LBB147:
 521              	.LBB148:
 522              		.loc 3 548 0
 523 000c 0023     		movs	r3, #0
 524              		.syntax unified
 525              	@ 548 "ChibiOS_16.1.4/os/ext/CMSIS/include/core_cmFunc.h" 1
 526 000e 83F31188 		MSR basepri, r3
 527              	@ 0 "" 2
 528              	.LVL51:
 529              		.thumb
 530              		.syntax unified
 531              	.LBE148:
 532              	.LBE147:
 533              	.LBE146:
 534              	.LBE145:
 535              	.LBE144:
 536              		.loc 1 186 0
 537 0012 08BD     		pop	{r3, pc}
 538              		.cfi_endproc
 539              	.LFE236:
 540              		.size	chCondWait, .-chCondWait
 541              		.section	.text.chCondWaitTimeoutS,"ax",%progbits
 542              		.align	2
 543              		.p2align 4,,15
 544              		.global	chCondWaitTimeoutS
 545              		.thumb
 546              		.thumb_func
 547              		.type	chCondWaitTimeoutS, %function
 548              	chCondWaitTimeoutS:
 549              	.LFB239:
 550              		.loc 1 296 0
 551              		.cfi_startproc
 552              		@ args = 0, pretend = 0, frame = 0
 553              		@ frame_needed = 0, uses_anonymous_args = 0
 554              	.LVL52:
 555 0000 F8B5     		push	{r3, r4, r5, r6, r7, lr}
 556              		.cfi_def_cfa_offset 24
 557              		.cfi_offset 3, -24
 558              		.cfi_offset 4, -20
 559              		.cfi_offset 5, -16
 560              		.cfi_offset 6, -12
 561              		.cfi_offset 7, -8
 562              		.cfi_offset 14, -4
 563              	.LBB149:
 564              	.LBB150:
 565              	.LBB151:
 566              	.LBB152:
 567              		.file 5 "ChibiOS_16.1.4/os/rt/include/chthreads.h"
 568              		.loc 5 176 0
 569 0002 124C     		ldr	r4, .L41
 570              	.LBE152:
ARM GAS  /var/folders/m4/4md61f0s1_g0rzfghffqnxvr0000gn/T//ccqtBXJY.s 			page 11


 571              	.LBE151:
 572              		.loc 4 146 0
 573 0004 A369     		ldr	r3, [r4, #24]
 574 0006 DE6B     		ldr	r6, [r3, #60]
 575              	.LBE150:
 576              	.LBE149:
 577              		.loc 1 296 0
 578 0008 0546     		mov	r5, r0
 579              		.loc 1 306 0
 580 000a 3046     		mov	r0, r6
 581              	.LVL53:
 582              		.loc 1 296 0
 583 000c 0F46     		mov	r7, r1
 584              		.loc 1 306 0
 585 000e FFF7FEFF 		bl	chMtxUnlockS
 586              	.LVL54:
 587              		.loc 1 310 0
 588 0012 A469     		ldr	r4, [r4, #24]
 589              	.LBB153:
 590              	.LBB154:
 591              		.loc 2 653 0
 592 0014 2B46     		mov	r3, r5
 593              	.LBE154:
 594              	.LBE153:
 595              		.loc 1 310 0
 596 0016 6562     		str	r5, [r4, #36]
 597              	.LVL55:
 598 0018 03E0     		b	.L37
 599              	.LVL56:
 600              	.L34:
 601              	.LBB158:
 602              	.LBB155:
 603              		.loc 2 656 0
 604 001a 9868     		ldr	r0, [r3, #8]
 605 001c A268     		ldr	r2, [r4, #8]
 606 001e 9042     		cmp	r0, r2
 607 0020 02D3     		bcc	.L38
 608              	.LVL57:
 609              	.L37:
 610              		.loc 2 655 0
 611 0022 1B68     		ldr	r3, [r3]
 612              	.LVL58:
 613              		.loc 2 656 0
 614 0024 9D42     		cmp	r5, r3
 615 0026 F8D1     		bne	.L34
 616              	.L38:
 617              		.loc 2 658 0
 618 0028 5A68     		ldr	r2, [r3, #4]
 619 002a 6260     		str	r2, [r4, #4]
 620              		.loc 2 657 0
 621 002c 2360     		str	r3, [r4]
 622              	.LBE155:
 623              	.LBE158:
 624              		.loc 1 312 0
 625 002e 3946     		mov	r1, r7
 626              	.LBB159:
 627              	.LBB156:
ARM GAS  /var/folders/m4/4md61f0s1_g0rzfghffqnxvr0000gn/T//ccqtBXJY.s 			page 12


 628              		.loc 2 659 0
 629 0030 1460     		str	r4, [r2]
 630              	.LBE156:
 631              	.LBE159:
 632              		.loc 1 312 0
 633 0032 0720     		movs	r0, #7
 634              	.LBB160:
 635              	.LBB157:
 636              		.loc 2 660 0
 637 0034 5C60     		str	r4, [r3, #4]
 638              	.LVL59:
 639              	.LBE157:
 640              	.LBE160:
 641              		.loc 1 312 0
 642 0036 FFF7FEFF 		bl	chSchGoSleepTimeoutS
 643              	.LVL60:
 644              		.loc 1 313 0
 645 003a 431C     		adds	r3, r0, #1
 646              		.loc 1 312 0
 647 003c 0446     		mov	r4, r0
 648              	.LVL61:
 649              		.loc 1 313 0
 650 003e 02D0     		beq	.L36
 651              		.loc 1 314 0
 652 0040 3046     		mov	r0, r6
 653              	.LVL62:
 654 0042 FFF7FEFF 		bl	chMtxLockS
 655              	.LVL63:
 656              	.L36:
 657              		.loc 1 318 0
 658 0046 2046     		mov	r0, r4
 659 0048 F8BD     		pop	{r3, r4, r5, r6, r7, pc}
 660              	.LVL64:
 661              	.L42:
 662 004a 00BF     		.align	2
 663              	.L41:
 664 004c 00000000 		.word	ch
 665              		.cfi_endproc
 666              	.LFE239:
 667              		.size	chCondWaitTimeoutS, .-chCondWaitTimeoutS
 668              		.section	.text.chCondWaitTimeout,"ax",%progbits
 669              		.align	2
 670              		.p2align 4,,15
 671              		.global	chCondWaitTimeout
 672              		.thumb
 673              		.thumb_func
 674              		.type	chCondWaitTimeout, %function
 675              	chCondWaitTimeout:
 676              	.LFB238:
 677              		.loc 1 258 0
 678              		.cfi_startproc
 679              		@ args = 0, pretend = 0, frame = 0
 680              		@ frame_needed = 0, uses_anonymous_args = 0
 681              	.LVL65:
 682 0000 08B5     		push	{r3, lr}
 683              		.cfi_def_cfa_offset 8
 684              		.cfi_offset 3, -8
ARM GAS  /var/folders/m4/4md61f0s1_g0rzfghffqnxvr0000gn/T//ccqtBXJY.s 			page 13


 685              		.cfi_offset 14, -4
 686              	.LBB161:
 687              	.LBB162:
 688              	.LBB163:
 689              	.LBB164:
 690              		.loc 3 548 0
 691 0002 2023     		movs	r3, #32
 692              		.syntax unified
 693              	@ 548 "ChibiOS_16.1.4/os/ext/CMSIS/include/core_cmFunc.h" 1
 694 0004 83F31188 		MSR basepri, r3
 695              	@ 0 "" 2
 696              	.LVL66:
 697              		.thumb
 698              		.syntax unified
 699              	.LBE164:
 700              	.LBE163:
 701              	.LBE162:
 702              	.LBE161:
 703              		.loc 1 262 0
 704 0008 FFF7FEFF 		bl	chCondWaitTimeoutS
 705              	.LVL67:
 706              	.LBB165:
 707              	.LBB166:
 708              	.LBB167:
 709              	.LBB168:
 710              	.LBB169:
 711              		.loc 3 548 0
 712 000c 0023     		movs	r3, #0
 713              		.syntax unified
 714              	@ 548 "ChibiOS_16.1.4/os/ext/CMSIS/include/core_cmFunc.h" 1
 715 000e 83F31188 		MSR basepri, r3
 716              	@ 0 "" 2
 717              	.LVL68:
 718              		.thumb
 719              		.syntax unified
 720              	.LBE169:
 721              	.LBE168:
 722              	.LBE167:
 723              	.LBE166:
 724              	.LBE165:
 725              		.loc 1 266 0
 726 0012 08BD     		pop	{r3, pc}
 727              		.cfi_endproc
 728              	.LFE238:
 729              		.size	chCondWaitTimeout, .-chCondWaitTimeout
 730              		.text
 731              	.Letext0:
 732              		.file 6 "/opt/homebrew-cask/Caskroom/gcc-arm-embedded/5_2-2015q4,20151219/gcc-arm-none-eabi-5_2-20
 733              		.file 7 "/opt/homebrew-cask/Caskroom/gcc-arm-embedded/5_2-2015q4,20151219/gcc-arm-none-eabi-5_2-20
 734              		.file 8 "ChibiOS_16.1.4/os/rt/ports/ARMCMx/compilers/GCC/chtypes.h"
 735              		.file 9 "ChibiOS_16.1.4/os/rt/include/chsystypes.h"
 736              		.file 10 "ChibiOS_16.1.4/os/rt/ports/ARMCMx/chcore.h"
 737              		.file 11 "ChibiOS_16.1.4/os/rt/ports/ARMCMx/chcore_v7m.h"
 738              		.file 12 "ChibiOS_16.1.4/os/rt/include/chtm.h"
 739              		.file 13 "ChibiOS_16.1.4/os/rt/include/chsem.h"
 740              		.file 14 "ChibiOS_16.1.4/os/rt/include/chcond.h"
 741              		.file 15 "ChibiOS_16.1.4/os/rt/include/chsys.h"
ARM GAS  /var/folders/m4/4md61f0s1_g0rzfghffqnxvr0000gn/T//ccqtBXJY.s 			page 14


 742              		.file 16 "ChibiOS_16.1.4/os/ext/CMSIS/include/core_cm4.h"