ARM GAS  /var/folders/m4/4md61f0s1_g0rzfghffqnxvr0000gn/T//cc85mpnE.s 			page 1


   1              		.syntax unified
   2              		.cpu cortex-m4
   3              		.eabi_attribute 27, 1
   4              		.eabi_attribute 28, 1
   5              		.fpu fpv4-sp-d16
   6              		.eabi_attribute 20, 1
   7              		.eabi_attribute 21, 1
   8              		.eabi_attribute 23, 3
   9              		.eabi_attribute 24, 1
  10              		.eabi_attribute 25, 1
  11              		.eabi_attribute 26, 1
  12              		.eabi_attribute 30, 2
  13              		.eabi_attribute 34, 1
  14              		.eabi_attribute 18, 4
  15              		.thumb
  16              		.syntax unified
  17              		.file	"chdynamic.c"
  18              		.text
  19              	.Ltext0:
  20              		.cfi_sections	.debug_frame
  21              		.section	.text.chThdAddRef,"ax",%progbits
  22              		.align	2
  23              		.p2align 4,,15
  24              		.global	chThdAddRef
  25              		.thumb
  26              		.thumb_func
  27              		.type	chThdAddRef, %function
  28              	chThdAddRef:
  29              	.LFB231:
  30              		.file 1 "ChibiOS_16.1.4/os/rt/src/chdynamic.c"
  31              		.loc 1 68 0
  32              		.cfi_startproc
  33              		@ args = 0, pretend = 0, frame = 0
  34              		@ frame_needed = 0, uses_anonymous_args = 0
  35              		@ link register save eliminated.
  36              	.LVL0:
  37              	.LBB64:
  38              	.LBB65:
  39              	.LBB66:
  40              	.LBB67:
  41              		.file 2 "ChibiOS_16.1.4/os/ext/CMSIS/include/core_cmFunc.h"
  42              		.loc 2 548 0
  43 0000 2023     		movs	r3, #32
  44              		.syntax unified
  45              	@ 548 "ChibiOS_16.1.4/os/ext/CMSIS/include/core_cmFunc.h" 1
  46 0002 83F31188 		MSR basepri, r3
  47              	@ 0 "" 2
  48              	.LVL1:
  49              		.thumb
  50              		.syntax unified
  51              	.LBE67:
  52              	.LBE66:
  53              	.LBE65:
  54              	.LBE64:
  55              		.loc 1 72 0
  56 0006 837F     		ldrb	r3, [r0, #30]	@ zero_extendqisi2
  57 0008 0133     		adds	r3, r3, #1
ARM GAS  /var/folders/m4/4md61f0s1_g0rzfghffqnxvr0000gn/T//cc85mpnE.s 			page 2


  58 000a 8377     		strb	r3, [r0, #30]
  59              	.LVL2:
  60              	.LBB68:
  61              	.LBB69:
  62              	.LBB70:
  63              	.LBB71:
  64              	.LBB72:
  65              		.loc 2 548 0
  66 000c 0023     		movs	r3, #0
  67              		.syntax unified
  68              	@ 548 "ChibiOS_16.1.4/os/ext/CMSIS/include/core_cmFunc.h" 1
  69 000e 83F31188 		MSR basepri, r3
  70              	@ 0 "" 2
  71              	.LVL3:
  72              		.thumb
  73              		.syntax unified
  74              	.LBE72:
  75              	.LBE71:
  76              	.LBE70:
  77              	.LBE69:
  78              	.LBE68:
  79              		.loc 1 76 0
  80 0012 7047     		bx	lr
  81              		.cfi_endproc
  82              	.LFE231:
  83              		.size	chThdAddRef, .-chThdAddRef
  84              		.section	.text.chThdRelease,"ax",%progbits
  85              		.align	2
  86              		.p2align 4,,15
  87              		.global	chThdRelease
  88              		.thumb
  89              		.thumb_func
  90              		.type	chThdRelease, %function
  91              	chThdRelease:
  92              	.LFB232:
  93              		.loc 1 91 0
  94              		.cfi_startproc
  95              		@ args = 0, pretend = 0, frame = 0
  96              		@ frame_needed = 0, uses_anonymous_args = 0
  97              		@ link register save eliminated.
  98              	.LVL4:
  99              	.LBB73:
 100              	.LBB74:
 101              	.LBB75:
 102              	.LBB76:
 103              		.loc 2 548 0
 104 0000 2023     		movs	r3, #32
 105              		.syntax unified
 106              	@ 548 "ChibiOS_16.1.4/os/ext/CMSIS/include/core_cmFunc.h" 1
 107 0002 83F31188 		MSR basepri, r3
 108              	@ 0 "" 2
 109              	.LVL5:
 110              		.thumb
 111              		.syntax unified
 112              	.LBE76:
 113              	.LBE75:
 114              	.LBE74:
ARM GAS  /var/folders/m4/4md61f0s1_g0rzfghffqnxvr0000gn/T//cc85mpnE.s 			page 3


 115              	.LBE73:
 116              		.loc 1 96 0
 117 0006 837F     		ldrb	r3, [r0, #30]	@ zero_extendqisi2
 118 0008 013B     		subs	r3, r3, #1
 119 000a DBB2     		uxtb	r3, r3
 120 000c 8377     		strb	r3, [r0, #30]
 121              	.LVL6:
 122              		.loc 1 102 0
 123 000e 1BB9     		cbnz	r3, .L3
 124              		.loc 1 102 0 is_stmt 0 discriminator 1
 125 0010 027F     		ldrb	r2, [r0, #28]	@ zero_extendqisi2
 126 0012 0F2A     		cmp	r2, #15
 127 0014 0146     		mov	r1, r0
 128 0016 03D0     		beq	.L8
 129              	.L3:
 130              	.LVL7:
 131              	.LBB77:
 132              	.LBB78:
 133              	.LBB79:
 134              	.LBB80:
 135              	.LBB81:
 136              		.loc 2 548 0 is_stmt 1
 137 0018 0023     		movs	r3, #0
 138              	.LVL8:
 139              		.syntax unified
 140              	@ 548 "ChibiOS_16.1.4/os/ext/CMSIS/include/core_cmFunc.h" 1
 141 001a 83F31188 		MSR basepri, r3
 142              	@ 0 "" 2
 143              	.LVL9:
 144              		.thumb
 145              		.syntax unified
 146 001e 7047     		bx	lr
 147              	.LVL10:
 148              	.L8:
 149              	.LBE81:
 150              	.LBE80:
 151              	.LBE79:
 152              	.LBE78:
 153              	.LBE77:
 154              		.loc 1 103 0
 155 0020 427F     		ldrb	r2, [r0, #29]	@ zero_extendqisi2
 156 0022 02F00302 		and	r2, r2, #3
 157 0026 012A     		cmp	r2, #1
 158 0028 0BD0     		beq	.L4
 159 002a 022A     		cmp	r2, #2
 160 002c F4D1     		bne	.L3
 161              		.loc 1 116 0
 162 002e 4269     		ldr	r2, [r0, #20]
 163 0030 0069     		ldr	r0, [r0, #16]
 164              	.LVL11:
 165 0032 1061     		str	r0, [r2, #16]
 166 0034 0869     		ldr	r0, [r1, #16]
 167 0036 4261     		str	r2, [r0, #20]
 168              	.LVL12:
 169              	.LBB82:
 170              	.LBB83:
 171              	.LBB84:
ARM GAS  /var/folders/m4/4md61f0s1_g0rzfghffqnxvr0000gn/T//cc85mpnE.s 			page 4


 172              	.LBB85:
 173              	.LBB86:
 174              		.loc 2 548 0
 175              		.syntax unified
 176              	@ 548 "ChibiOS_16.1.4/os/ext/CMSIS/include/core_cmFunc.h" 1
 177 0038 83F31188 		MSR basepri, r3
 178              	@ 0 "" 2
 179              	.LVL13:
 180              		.thumb
 181              		.syntax unified
 182              	.LBE86:
 183              	.LBE85:
 184              	.LBE84:
 185              	.LBE83:
 186              	.LBE82:
 187              		.loc 1 119 0
 188 003c 486C     		ldr	r0, [r1, #68]
 189 003e FFF7FEBF 		b	chPoolFree
 190              	.LVL14:
 191              	.L4:
 192              		.loc 1 107 0
 193 0042 4269     		ldr	r2, [r0, #20]
 194              		.loc 1 91 0
 195 0044 10B4     		push	{r4}
 196              		.cfi_def_cfa_offset 4
 197              		.cfi_offset 4, -4
 198              		.loc 1 107 0
 199 0046 0469     		ldr	r4, [r0, #16]
 200 0048 1461     		str	r4, [r2, #16]
 201 004a 0169     		ldr	r1, [r0, #16]
 202 004c 4A61     		str	r2, [r1, #20]
 203              	.LVL15:
 204              	.LBB87:
 205              	.LBB88:
 206              	.LBB89:
 207              	.LBB90:
 208              	.LBB91:
 209              		.loc 2 548 0
 210              		.syntax unified
 211              	@ 548 "ChibiOS_16.1.4/os/ext/CMSIS/include/core_cmFunc.h" 1
 212 004e 83F31188 		MSR basepri, r3
 213              	@ 0 "" 2
 214              	.LVL16:
 215              		.thumb
 216              		.syntax unified
 217              	.LBE91:
 218              	.LBE90:
 219              	.LBE89:
 220              	.LBE88:
 221              	.LBE87:
 222              		.loc 1 129 0
 223 0052 5DF8044B 		ldr	r4, [sp], #4
 224              		.cfi_restore 4
 225              		.cfi_def_cfa_offset 0
 226              		.loc 1 110 0
 227 0056 FFF7FEBF 		b	chHeapFree
 228              	.LVL17:
ARM GAS  /var/folders/m4/4md61f0s1_g0rzfghffqnxvr0000gn/T//cc85mpnE.s 			page 5


 229              		.cfi_endproc
 230              	.LFE232:
 231              		.size	chThdRelease, .-chThdRelease
 232 005a 00BF     		.section	.text.chThdCreateFromHeap,"ax",%progbits
 233              		.align	2
 234              		.p2align 4,,15
 235              		.global	chThdCreateFromHeap
 236              		.thumb
 237              		.thumb_func
 238              		.type	chThdCreateFromHeap, %function
 239              	chThdCreateFromHeap:
 240              	.LFB233:
 241              		.loc 1 155 0
 242              		.cfi_startproc
 243              		@ args = 4, pretend = 0, frame = 0
 244              		@ frame_needed = 0, uses_anonymous_args = 0
 245              	.LVL18:
 246 0000 F0B5     		push	{r4, r5, r6, r7, lr}
 247              		.cfi_def_cfa_offset 20
 248              		.cfi_offset 4, -20
 249              		.cfi_offset 5, -16
 250              		.cfi_offset 6, -12
 251              		.cfi_offset 7, -8
 252              		.cfi_offset 14, -4
 253 0002 83B0     		sub	sp, sp, #12
 254              		.cfi_def_cfa_offset 32
 255              		.loc 1 155 0
 256 0004 1646     		mov	r6, r2
 257 0006 1F46     		mov	r7, r3
 258 0008 0D46     		mov	r5, r1
 259              		.loc 1 159 0
 260 000a FFF7FEFF 		bl	chHeapAlloc
 261              	.LVL19:
 262              		.loc 1 160 0
 263 000e 98B1     		cbz	r0, .L10
 264              	.LVL20:
 265              	.LBB92:
 266              	.LBB93:
 267              	.LBB94:
 268              	.LBB95:
 269              		.loc 2 548 0
 270 0010 2023     		movs	r3, #32
 271              		.syntax unified
 272              	@ 548 "ChibiOS_16.1.4/os/ext/CMSIS/include/core_cmFunc.h" 1
 273 0012 83F31188 		MSR basepri, r3
 274              	@ 0 "" 2
 275              	.LVL21:
 276              		.thumb
 277              		.syntax unified
 278              	.LBE95:
 279              	.LBE94:
 280              	.LBE93:
 281              	.LBE92:
 282              		.loc 1 174 0
 283 0016 089B     		ldr	r3, [sp, #32]
 284 0018 0093     		str	r3, [sp]
 285 001a 3246     		mov	r2, r6
ARM GAS  /var/folders/m4/4md61f0s1_g0rzfghffqnxvr0000gn/T//cc85mpnE.s 			page 6


 286 001c 3B46     		mov	r3, r7
 287 001e 2946     		mov	r1, r5
 288 0020 FFF7FEFF 		bl	chThdCreateI
 289              	.LVL22:
 290              		.loc 1 175 0
 291 0024 0123     		movs	r3, #1
 292 0026 4377     		strb	r3, [r0, #29]
 293              		.loc 1 176 0
 294 0028 0021     		movs	r1, #0
 295              		.loc 1 174 0
 296 002a 0446     		mov	r4, r0
 297              	.LVL23:
 298              		.loc 1 176 0
 299 002c FFF7FEFF 		bl	chSchWakeupS
 300              	.LVL24:
 301              	.LBB96:
 302              	.LBB97:
 303              	.LBB98:
 304              	.LBB99:
 305              	.LBB100:
 306              		.loc 2 548 0
 307 0030 0023     		movs	r3, #0
 308              		.syntax unified
 309              	@ 548 "ChibiOS_16.1.4/os/ext/CMSIS/include/core_cmFunc.h" 1
 310 0032 83F31188 		MSR basepri, r3
 311              	@ 0 "" 2
 312              	.LVL25:
 313              		.thumb
 314              		.syntax unified
 315              	.LBE100:
 316              	.LBE99:
 317              	.LBE98:
 318              	.LBE97:
 319              	.LBE96:
 320              		.loc 1 179 0
 321 0036 2046     		mov	r0, r4
 322              	.LVL26:
 323              	.L10:
 324              		.loc 1 180 0
 325 0038 03B0     		add	sp, sp, #12
 326              		.cfi_def_cfa_offset 20
 327              		@ sp needed
 328 003a F0BD     		pop	{r4, r5, r6, r7, pc}
 329              		.cfi_endproc
 330              	.LFE233:
 331              		.size	chThdCreateFromHeap, .-chThdCreateFromHeap
 332              		.section	.text.chThdCreateFromMemoryPool,"ax",%progbits
 333              		.align	2
 334              		.p2align 4,,15
 335              		.global	chThdCreateFromMemoryPool
 336              		.thumb
 337              		.thumb_func
 338              		.type	chThdCreateFromMemoryPool, %function
 339              	chThdCreateFromMemoryPool:
 340              	.LFB234:
 341              		.loc 1 207 0
 342              		.cfi_startproc
ARM GAS  /var/folders/m4/4md61f0s1_g0rzfghffqnxvr0000gn/T//cc85mpnE.s 			page 7


 343              		@ args = 0, pretend = 0, frame = 0
 344              		@ frame_needed = 0, uses_anonymous_args = 0
 345              	.LVL27:
 346 0000 2DE9F041 		push	{r4, r5, r6, r7, r8, lr}
 347              		.cfi_def_cfa_offset 24
 348              		.cfi_offset 4, -24
 349              		.cfi_offset 5, -20
 350              		.cfi_offset 6, -16
 351              		.cfi_offset 7, -12
 352              		.cfi_offset 8, -8
 353              		.cfi_offset 14, -4
 354 0004 82B0     		sub	sp, sp, #8
 355              		.cfi_def_cfa_offset 32
 356              		.loc 1 207 0
 357 0006 0E46     		mov	r6, r1
 358 0008 1746     		mov	r7, r2
 359 000a 9846     		mov	r8, r3
 360 000c 0546     		mov	r5, r0
 361              		.loc 1 213 0
 362 000e FFF7FEFF 		bl	chPoolAlloc
 363              	.LVL28:
 364              		.loc 1 214 0
 365 0012 A0B1     		cbz	r0, .L14
 366              	.LVL29:
 367              	.LBB101:
 368              	.LBB102:
 369              	.LBB103:
 370              	.LBB104:
 371              		.loc 2 548 0
 372 0014 2023     		movs	r3, #32
 373              		.syntax unified
 374              	@ 548 "ChibiOS_16.1.4/os/ext/CMSIS/include/core_cmFunc.h" 1
 375 0016 83F31188 		MSR basepri, r3
 376              	@ 0 "" 2
 377              	.LVL30:
 378              		.thumb
 379              		.syntax unified
 380              	.LBE104:
 381              	.LBE103:
 382              	.LBE102:
 383              	.LBE101:
 384              		.loc 1 228 0
 385 001a 6968     		ldr	r1, [r5, #4]
 386 001c CDF80080 		str	r8, [sp]
 387 0020 3B46     		mov	r3, r7
 388 0022 3246     		mov	r2, r6
 389 0024 FFF7FEFF 		bl	chThdCreateI
 390              	.LVL31:
 391              		.loc 1 229 0
 392 0028 0223     		movs	r3, #2
 393 002a 4377     		strb	r3, [r0, #29]
 394              		.loc 1 230 0
 395 002c 4564     		str	r5, [r0, #68]
 396              		.loc 1 231 0
 397 002e 0021     		movs	r1, #0
 398              		.loc 1 228 0
 399 0030 0446     		mov	r4, r0
ARM GAS  /var/folders/m4/4md61f0s1_g0rzfghffqnxvr0000gn/T//cc85mpnE.s 			page 8


 400              	.LVL32:
 401              		.loc 1 231 0
 402 0032 FFF7FEFF 		bl	chSchWakeupS
 403              	.LVL33:
 404              	.LBB105:
 405              	.LBB106:
 406              	.LBB107:
 407              	.LBB108:
 408              	.LBB109:
 409              		.loc 2 548 0
 410 0036 0023     		movs	r3, #0
 411              		.syntax unified
 412              	@ 548 "ChibiOS_16.1.4/os/ext/CMSIS/include/core_cmFunc.h" 1
 413 0038 83F31188 		MSR basepri, r3
 414              	@ 0 "" 2
 415              	.LVL34:
 416              		.thumb
 417              		.syntax unified
 418              	.LBE109:
 419              	.LBE108:
 420              	.LBE107:
 421              	.LBE106:
 422              	.LBE105:
 423              		.loc 1 234 0
 424 003c 2046     		mov	r0, r4
 425              	.LVL35:
 426              	.L14:
 427              		.loc 1 235 0
 428 003e 02B0     		add	sp, sp, #8
 429              		.cfi_def_cfa_offset 24
 430              		@ sp needed
 431 0040 BDE8F081 		pop	{r4, r5, r6, r7, r8, pc}
 432              		.cfi_endproc
 433              	.LFE234:
 434              		.size	chThdCreateFromMemoryPool, .-chThdCreateFromMemoryPool
 435              		.text
 436              	.Letext0:
 437              		.file 3 "/opt/homebrew-cask/Caskroom/gcc-arm-embedded/5_2-2015q4,20151219/gcc-arm-none-eabi-5_2-20
 438              		.file 4 "/opt/homebrew-cask/Caskroom/gcc-arm-embedded/5_2-2015q4,20151219/gcc-arm-none-eabi-5_2-20
 439              		.file 5 "/opt/homebrew-cask/Caskroom/gcc-arm-embedded/5_2-2015q4,20151219/gcc-arm-none-eabi-5_2-20
 440              		.file 6 "ChibiOS_16.1.4/os/rt/ports/ARMCMx/compilers/GCC/chtypes.h"
 441              		.file 7 "ChibiOS_16.1.4/os/rt/include/chsystypes.h"
 442              		.file 8 "ChibiOS_16.1.4/os/rt/include/chschd.h"
 443              		.file 9 "ChibiOS_16.1.4/os/rt/ports/ARMCMx/chcore.h"
 444              		.file 10 "ChibiOS_16.1.4/os/rt/ports/ARMCMx/chcore_v7m.h"
 445              		.file 11 "ChibiOS_16.1.4/os/rt/include/chtm.h"
 446              		.file 12 "ChibiOS_16.1.4/os/rt/include/chsem.h"
 447              		.file 13 "ChibiOS_16.1.4/os/rt/include/chmtx.h"
 448              		.file 14 "ChibiOS_16.1.4/os/rt/include/chthreads.h"
 449              		.file 15 "ChibiOS_16.1.4/os/rt/include/chmemcore.h"
 450              		.file 16 "ChibiOS_16.1.4/os/rt/include/chheap.h"
 451              		.file 17 "ChibiOS_16.1.4/os/rt/include/chmempools.h"
 452              		.file 18 "ChibiOS_16.1.4/os/rt/include/chsys.h"
 453              		.file 19 "ChibiOS_16.1.4/os/ext/CMSIS/include/core_cm4.h"
 454              		.section	.debug_info,"",%progbits
 455              	.Ldebug_info0:
 456 0000 300E0000 		.4byte	0xe30
ARM GAS  /var/folders/m4/4md61f0s1_g0rzfghffqnxvr0000gn/T//cc85mpnE.s 			page 9


 457 0004 0400     		.2byte	0x4
 458 0006 00000000 		.4byte	.Ldebug_abbrev0
 459 000a 04       		.byte	0x4
 460 000b 01       		.uleb128 0x1
 461 000c F2040000 		.4byte	.LASF141
 462 0010 0C       		.byte	0xc
 463 0011 7F000000 		.4byte	.LASF142
 464 0015 A1020000 		.4byte	.LASF143
 465 0019 00000000 		.4byte	.Ldebug_ranges0+0
 466 001d 00000000 		.4byte	0
 467 0021 00000000 		.4byte	.Ldebug_line0
 468 0025 02       		.uleb128 0x2
 469 0026 04       		.byte	0x4
 470 0027 05       		.byte	0x5
 471 0028 696E7400 		.ascii	"int\000"
 472 002c 03       		.uleb128 0x3
 473 002d 15000000 		.4byte	.LASF2
 474 0031 03       		.byte	0x3
 475 0032 D8       		.byte	0xd8
 476 0033 37000000 		.4byte	0x37
 477 0037 04       		.uleb128 0x4
 478 0038 04       		.byte	0x4
 479 0039 07       		.byte	0x7
 480 003a 1B020000 		.4byte	.LASF0
 481 003e 04       		.uleb128 0x4
 482 003f 01       		.byte	0x1
 483 0040 06       		.byte	0x6
 484 0041 08010000 		.4byte	.LASF1
 485 0045 03       		.uleb128 0x3
 486 0046 2C000000 		.4byte	.LASF3
 487 004a 04       		.byte	0x4
 488 004b 1D       		.byte	0x1d
 489 004c 50000000 		.4byte	0x50
 490 0050 04       		.uleb128 0x4
 491 0051 01       		.byte	0x1
 492 0052 08       		.byte	0x8
 493 0053 03040000 		.4byte	.LASF4
 494 0057 04       		.uleb128 0x4
 495 0058 02       		.byte	0x2
 496 0059 05       		.byte	0x5
 497 005a 27040000 		.4byte	.LASF5
 498 005e 04       		.uleb128 0x4
 499 005f 02       		.byte	0x2
 500 0060 07       		.byte	0x7
 501 0061 66020000 		.4byte	.LASF6
 502 0065 03       		.uleb128 0x3
 503 0066 04030000 		.4byte	.LASF7
 504 006a 04       		.byte	0x4
 505 006b 3F       		.byte	0x3f
 506 006c 70000000 		.4byte	0x70
 507 0070 04       		.uleb128 0x4
 508 0071 04       		.byte	0x4
 509 0072 05       		.byte	0x5
 510 0073 6F010000 		.4byte	.LASF8
 511 0077 03       		.uleb128 0x3
 512 0078 26060000 		.4byte	.LASF9
 513 007c 04       		.byte	0x4
ARM GAS  /var/folders/m4/4md61f0s1_g0rzfghffqnxvr0000gn/T//cc85mpnE.s 			page 10


 514 007d 41       		.byte	0x41
 515 007e 82000000 		.4byte	0x82
 516 0082 04       		.uleb128 0x4
 517 0083 04       		.byte	0x4
 518 0084 07       		.byte	0x7
 519 0085 D1040000 		.4byte	.LASF10
 520 0089 04       		.uleb128 0x4
 521 008a 08       		.byte	0x8
 522 008b 05       		.byte	0x5
 523 008c FA000000 		.4byte	.LASF11
 524 0090 03       		.uleb128 0x3
 525 0091 AC030000 		.4byte	.LASF12
 526 0095 04       		.byte	0x4
 527 0096 5B       		.byte	0x5b
 528 0097 9B000000 		.4byte	0x9b
 529 009b 04       		.uleb128 0x4
 530 009c 08       		.byte	0x8
 531 009d 07       		.byte	0x7
 532 009e 68000000 		.4byte	.LASF13
 533 00a2 03       		.uleb128 0x3
 534 00a3 B2060000 		.4byte	.LASF14
 535 00a7 05       		.byte	0x5
 536 00a8 14       		.byte	0x14
 537 00a9 45000000 		.4byte	0x45
 538 00ad 03       		.uleb128 0x3
 539 00ae FB030000 		.4byte	.LASF15
 540 00b2 05       		.byte	0x5
 541 00b3 1F       		.byte	0x1f
 542 00b4 65000000 		.4byte	0x65
 543 00b8 03       		.uleb128 0x3
 544 00b9 A4040000 		.4byte	.LASF16
 545 00bd 05       		.byte	0x5
 546 00be 20       		.byte	0x20
 547 00bf 77000000 		.4byte	0x77
 548 00c3 03       		.uleb128 0x3
 549 00c4 23000000 		.4byte	.LASF17
 550 00c8 05       		.byte	0x5
 551 00c9 26       		.byte	0x26
 552 00ca 90000000 		.4byte	0x90
 553 00ce 03       		.uleb128 0x3
 554 00cf 7A060000 		.4byte	.LASF18
 555 00d3 06       		.byte	0x6
 556 00d4 39       		.byte	0x39
 557 00d5 B8000000 		.4byte	0xb8
 558 00d9 03       		.uleb128 0x3
 559 00da E2020000 		.4byte	.LASF19
 560 00de 06       		.byte	0x6
 561 00df 3C       		.byte	0x3c
 562 00e0 A2000000 		.4byte	0xa2
 563 00e4 03       		.uleb128 0x3
 564 00e5 8C010000 		.4byte	.LASF20
 565 00e9 06       		.byte	0x6
 566 00ea 3D       		.byte	0x3d
 567 00eb A2000000 		.4byte	0xa2
 568 00ef 03       		.uleb128 0x3
 569 00f0 BF030000 		.4byte	.LASF21
 570 00f4 06       		.byte	0x6
ARM GAS  /var/folders/m4/4md61f0s1_g0rzfghffqnxvr0000gn/T//cc85mpnE.s 			page 11


 571 00f5 3E       		.byte	0x3e
 572 00f6 A2000000 		.4byte	0xa2
 573 00fa 03       		.uleb128 0x3
 574 00fb 48010000 		.4byte	.LASF22
 575 00ff 06       		.byte	0x6
 576 0100 3F       		.byte	0x3f
 577 0101 A2000000 		.4byte	0xa2
 578 0105 03       		.uleb128 0x3
 579 0106 E3030000 		.4byte	.LASF23
 580 010a 06       		.byte	0x6
 581 010b 40       		.byte	0x40
 582 010c B8000000 		.4byte	0xb8
 583 0110 03       		.uleb128 0x3
 584 0111 9B020000 		.4byte	.LASF24
 585 0115 06       		.byte	0x6
 586 0116 41       		.byte	0x41
 587 0117 AD000000 		.4byte	0xad
 588 011b 03       		.uleb128 0x3
 589 011c F8020000 		.4byte	.LASF25
 590 0120 06       		.byte	0x6
 591 0121 43       		.byte	0x43
 592 0122 B8000000 		.4byte	0xb8
 593 0126 03       		.uleb128 0x3
 594 0127 15020000 		.4byte	.LASF26
 595 012b 06       		.byte	0x6
 596 012c 45       		.byte	0x45
 597 012d AD000000 		.4byte	0xad
 598 0131 03       		.uleb128 0x3
 599 0132 08060000 		.4byte	.LASF27
 600 0136 07       		.byte	0x7
 601 0137 33       		.byte	0x33
 602 0138 B8000000 		.4byte	0xb8
 603 013c 03       		.uleb128 0x3
 604 013d F8050000 		.4byte	.LASF28
 605 0141 07       		.byte	0x7
 606 0142 3F       		.byte	0x3f
 607 0143 47010000 		.4byte	0x147
 608 0147 05       		.uleb128 0x5
 609 0148 79020000 		.4byte	.LASF50
 610 014c 48       		.byte	0x48
 611 014d 08       		.byte	0x8
 612 014e C2       		.byte	0xc2
 613 014f 4C020000 		.4byte	0x24c
 614 0153 06       		.uleb128 0x6
 615 0154 51040000 		.4byte	.LASF29
 616 0158 08       		.byte	0x8
 617 0159 C3       		.byte	0xc3
 618 015a 57020000 		.4byte	0x257
 619 015e 00       		.byte	0
 620 015f 06       		.uleb128 0x6
 621 0160 DC030000 		.4byte	.LASF30
 622 0164 08       		.byte	0x8
 623 0165 C5       		.byte	0xc5
 624 0166 57020000 		.4byte	0x257
 625 016a 04       		.byte	0x4
 626 016b 06       		.uleb128 0x6
 627 016c F3000000 		.4byte	.LASF31
ARM GAS  /var/folders/m4/4md61f0s1_g0rzfghffqnxvr0000gn/T//cc85mpnE.s 			page 12


 628 0170 08       		.byte	0x8
 629 0171 C7       		.byte	0xc7
 630 0172 05010000 		.4byte	0x105
 631 0176 08       		.byte	0x8
 632 0177 06       		.uleb128 0x6
 633 0178 14070000 		.4byte	.LASF32
 634 017c 08       		.byte	0x8
 635 017d C8       		.byte	0xc8
 636 017e 87040000 		.4byte	0x487
 637 0182 0C       		.byte	0xc
 638 0183 06       		.uleb128 0x6
 639 0184 A3010000 		.4byte	.LASF33
 640 0188 08       		.byte	0x8
 641 0189 CA       		.byte	0xca
 642 018a 57020000 		.4byte	0x257
 643 018e 10       		.byte	0x10
 644 018f 06       		.uleb128 0x6
 645 0190 71030000 		.4byte	.LASF34
 646 0194 08       		.byte	0x8
 647 0195 CB       		.byte	0xcb
 648 0196 57020000 		.4byte	0x257
 649 019a 14       		.byte	0x14
 650 019b 06       		.uleb128 0x6
 651 019c E3060000 		.4byte	.LASF35
 652 01a0 08       		.byte	0x8
 653 01a1 D2       		.byte	0xd2
 654 01a2 D5060000 		.4byte	0x6d5
 655 01a6 18       		.byte	0x18
 656 01a7 06       		.uleb128 0x6
 657 01a8 31040000 		.4byte	.LASF36
 658 01ac 08       		.byte	0x8
 659 01ad DD       		.byte	0xdd
 660 01ae E4000000 		.4byte	0xe4
 661 01b2 1C       		.byte	0x1c
 662 01b3 06       		.uleb128 0x6
 663 01b4 58040000 		.4byte	.LASF37
 664 01b8 08       		.byte	0x8
 665 01b9 E1       		.byte	0xe1
 666 01ba D9000000 		.4byte	0xd9
 667 01be 1D       		.byte	0x1d
 668 01bf 06       		.uleb128 0x6
 669 01c0 A5060000 		.4byte	.LASF38
 670 01c4 08       		.byte	0x8
 671 01c5 E6       		.byte	0xe6
 672 01c6 EF000000 		.4byte	0xef
 673 01ca 1E       		.byte	0x1e
 674 01cb 06       		.uleb128 0x6
 675 01cc 39040000 		.4byte	.LASF39
 676 01d0 08       		.byte	0x8
 677 01d1 EC       		.byte	0xec
 678 01d2 FA000000 		.4byte	0xfa
 679 01d6 1F       		.byte	0x1f
 680 01d7 06       		.uleb128 0x6
 681 01d8 30020000 		.4byte	.LASF40
 682 01dc 08       		.byte	0x8
 683 01dd F3       		.byte	0xf3
 684 01de E7060000 		.4byte	0x6e7
ARM GAS  /var/folders/m4/4md61f0s1_g0rzfghffqnxvr0000gn/T//cc85mpnE.s 			page 13


 685 01e2 20       		.byte	0x20
 686 01e3 07       		.uleb128 0x7
 687 01e4 705F7500 		.ascii	"p_u\000"
 688 01e8 08       		.byte	0x8
 689 01e9 3101     		.2byte	0x131
 690 01eb 10060000 		.4byte	0x610
 691 01ef 24       		.byte	0x24
 692 01f0 08       		.uleb128 0x8
 693 01f1 25030000 		.4byte	.LASF41
 694 01f5 08       		.byte	0x8
 695 01f6 3601     		.2byte	0x136
 696 01f8 5D020000 		.4byte	0x25d
 697 01fc 28       		.byte	0x28
 698 01fd 08       		.uleb128 0x8
 699 01fe 47020000 		.4byte	.LASF42
 700 0202 08       		.byte	0x8
 701 0203 3C01     		.2byte	0x13c
 702 0205 81020000 		.4byte	0x281
 703 0209 2C       		.byte	0x2c
 704 020a 08       		.uleb128 0x8
 705 020b 06070000 		.4byte	.LASF43
 706 020f 08       		.byte	0x8
 707 0210 4001     		.2byte	0x140
 708 0212 10010000 		.4byte	0x110
 709 0216 34       		.byte	0x34
 710 0217 08       		.uleb128 0x8
 711 0218 99040000 		.4byte	.LASF44
 712 021c 08       		.byte	0x8
 713 021d 4601     		.2byte	0x146
 714 021f 1B010000 		.4byte	0x11b
 715 0223 38       		.byte	0x38
 716 0224 08       		.uleb128 0x8
 717 0225 1D040000 		.4byte	.LASF45
 718 0229 08       		.byte	0x8
 719 022a 4D01     		.2byte	0x14d
 720 022c CF060000 		.4byte	0x6cf
 721 0230 3C       		.byte	0x3c
 722 0231 08       		.uleb128 0x8
 723 0232 12060000 		.4byte	.LASF46
 724 0236 08       		.byte	0x8
 725 0237 5101     		.2byte	0x151
 726 0239 05010000 		.4byte	0x105
 727 023d 40       		.byte	0x40
 728 023e 08       		.uleb128 0x8
 729 023f 1A010000 		.4byte	.LASF47
 730 0243 08       		.byte	0x8
 731 0244 5801     		.2byte	0x158
 732 0246 34030000 		.4byte	0x334
 733 024a 44       		.byte	0x44
 734 024b 00       		.byte	0
 735 024c 03       		.uleb128 0x3
 736 024d 38030000 		.4byte	.LASF48
 737 0251 07       		.byte	0x7
 738 0252 44       		.byte	0x44
 739 0253 57020000 		.4byte	0x257
 740 0257 09       		.uleb128 0x9
 741 0258 04       		.byte	0x4
ARM GAS  /var/folders/m4/4md61f0s1_g0rzfghffqnxvr0000gn/T//cc85mpnE.s 			page 14


 742 0259 3C010000 		.4byte	0x13c
 743 025d 03       		.uleb128 0x3
 744 025e 62030000 		.4byte	.LASF49
 745 0262 07       		.byte	0x7
 746 0263 49       		.byte	0x49
 747 0264 68020000 		.4byte	0x268
 748 0268 05       		.uleb128 0x5
 749 0269 BC040000 		.4byte	.LASF51
 750 026d 04       		.byte	0x4
 751 026e 08       		.byte	0x8
 752 026f B0       		.byte	0xb0
 753 0270 81020000 		.4byte	0x281
 754 0274 06       		.uleb128 0x6
 755 0275 51040000 		.4byte	.LASF29
 756 0279 08       		.byte	0x8
 757 027a B1       		.byte	0xb1
 758 027b 57020000 		.4byte	0x257
 759 027f 00       		.byte	0
 760 0280 00       		.byte	0
 761 0281 03       		.uleb128 0x3
 762 0282 89060000 		.4byte	.LASF52
 763 0286 07       		.byte	0x7
 764 0287 50       		.byte	0x50
 765 0288 8C020000 		.4byte	0x28c
 766 028c 05       		.uleb128 0x5
 767 028d E2000000 		.4byte	.LASF53
 768 0291 08       		.byte	0x8
 769 0292 08       		.byte	0x8
 770 0293 B7       		.byte	0xb7
 771 0294 B1020000 		.4byte	0x2b1
 772 0298 06       		.uleb128 0x6
 773 0299 51040000 		.4byte	.LASF29
 774 029d 08       		.byte	0x8
 775 029e B8       		.byte	0xb8
 776 029f 57020000 		.4byte	0x257
 777 02a3 00       		.byte	0
 778 02a4 06       		.uleb128 0x6
 779 02a5 DC030000 		.4byte	.LASF30
 780 02a9 08       		.byte	0x8
 781 02aa B9       		.byte	0xb9
 782 02ab 57020000 		.4byte	0x257
 783 02af 04       		.byte	0x4
 784 02b0 00       		.byte	0
 785 02b1 03       		.uleb128 0x3
 786 02b2 08000000 		.4byte	.LASF54
 787 02b6 07       		.byte	0x7
 788 02b7 57       		.byte	0x57
 789 02b8 BC020000 		.4byte	0x2bc
 790 02bc 0A       		.uleb128 0xa
 791 02bd EA020000 		.4byte	.LASF55
 792 02c1 1C       		.byte	0x1c
 793 02c2 08       		.byte	0x8
 794 02c3 9001     		.2byte	0x190
 795 02c5 18030000 		.4byte	0x318
 796 02c9 08       		.uleb128 0x8
 797 02ca B4040000 		.4byte	.LASF56
 798 02ce 08       		.byte	0x8
ARM GAS  /var/folders/m4/4md61f0s1_g0rzfghffqnxvr0000gn/T//cc85mpnE.s 			page 15


 799 02cf 9101     		.2byte	0x191
 800 02d1 81020000 		.4byte	0x281
 801 02d5 00       		.byte	0
 802 02d6 08       		.uleb128 0x8
 803 02d7 43040000 		.4byte	.LASF57
 804 02db 08       		.byte	0x8
 805 02dc 9201     		.2byte	0x192
 806 02de 05010000 		.4byte	0x105
 807 02e2 08       		.byte	0x8
 808 02e3 08       		.uleb128 0x8
 809 02e4 79030000 		.4byte	.LASF58
 810 02e8 08       		.byte	0x8
 811 02e9 9401     		.2byte	0x194
 812 02eb 87040000 		.4byte	0x487
 813 02ef 0C       		.byte	0xc
 814 02f0 08       		.uleb128 0x8
 815 02f1 CD010000 		.4byte	.LASF59
 816 02f5 08       		.byte	0x8
 817 02f6 9701     		.2byte	0x197
 818 02f8 57020000 		.4byte	0x257
 819 02fc 10       		.byte	0x10
 820 02fd 08       		.uleb128 0x8
 821 02fe A4030000 		.4byte	.LASF60
 822 0302 08       		.byte	0x8
 823 0303 9801     		.2byte	0x198
 824 0305 57020000 		.4byte	0x257
 825 0309 14       		.byte	0x14
 826 030a 08       		.uleb128 0x8
 827 030b E3040000 		.4byte	.LASF61
 828 030f 08       		.byte	0x8
 829 0310 9B01     		.2byte	0x19b
 830 0312 57020000 		.4byte	0x257
 831 0316 18       		.byte	0x18
 832 0317 00       		.byte	0
 833 0318 03       		.uleb128 0x3
 834 0319 1D060000 		.4byte	.LASF62
 835 031d 07       		.byte	0x7
 836 031e 5C       		.byte	0x5c
 837 031f 23030000 		.4byte	0x323
 838 0323 09       		.uleb128 0x9
 839 0324 04       		.byte	0x4
 840 0325 29030000 		.4byte	0x329
 841 0329 0B       		.uleb128 0xb
 842 032a 34030000 		.4byte	0x334
 843 032e 0C       		.uleb128 0xc
 844 032f 34030000 		.4byte	0x334
 845 0333 00       		.byte	0
 846 0334 0D       		.uleb128 0xd
 847 0335 04       		.byte	0x4
 848 0336 03       		.uleb128 0x3
 849 0337 CC030000 		.4byte	.LASF63
 850 033b 07       		.byte	0x7
 851 033c 61       		.byte	0x61
 852 033d 41030000 		.4byte	0x341
 853 0341 0A       		.uleb128 0xa
 854 0342 69060000 		.4byte	.LASF64
 855 0346 14       		.byte	0x14
ARM GAS  /var/folders/m4/4md61f0s1_g0rzfghffqnxvr0000gn/T//cc85mpnE.s 			page 16


 856 0347 08       		.byte	0x8
 857 0348 6B01     		.2byte	0x16b
 858 034a 90030000 		.4byte	0x390
 859 034e 08       		.uleb128 0x8
 860 034f 28020000 		.4byte	.LASF65
 861 0353 08       		.byte	0x8
 862 0354 6C01     		.2byte	0x16c
 863 0356 EC060000 		.4byte	0x6ec
 864 035a 00       		.byte	0
 865 035b 08       		.uleb128 0x8
 866 035c EA010000 		.4byte	.LASF66
 867 0360 08       		.byte	0x8
 868 0361 6D01     		.2byte	0x16d
 869 0363 EC060000 		.4byte	0x6ec
 870 0367 04       		.byte	0x4
 871 0368 08       		.uleb128 0x8
 872 0369 3E020000 		.4byte	.LASF67
 873 036d 08       		.byte	0x8
 874 036e 6E01     		.2byte	0x16e
 875 0370 31010000 		.4byte	0x131
 876 0374 08       		.byte	0x8
 877 0375 08       		.uleb128 0x8
 878 0376 1A070000 		.4byte	.LASF68
 879 037a 08       		.byte	0x8
 880 037b 6F01     		.2byte	0x16f
 881 037d 18030000 		.4byte	0x318
 882 0381 0C       		.byte	0xc
 883 0382 08       		.uleb128 0x8
 884 0383 82060000 		.4byte	.LASF69
 885 0387 08       		.byte	0x8
 886 0388 7101     		.2byte	0x171
 887 038a 34030000 		.4byte	0x334
 888 038e 10       		.byte	0x10
 889 038f 00       		.byte	0
 890 0390 03       		.uleb128 0x3
 891 0391 B4000000 		.4byte	.LASF70
 892 0395 07       		.byte	0x7
 893 0396 66       		.byte	0x66
 894 0397 9B030000 		.4byte	0x39b
 895 039b 0A       		.uleb128 0xa
 896 039c 4B030000 		.4byte	.LASF71
 897 03a0 10       		.byte	0x10
 898 03a1 08       		.byte	0x8
 899 03a2 7B01     		.2byte	0x17b
 900 03a4 DD030000 		.4byte	0x3dd
 901 03a8 08       		.uleb128 0x8
 902 03a9 28020000 		.4byte	.LASF65
 903 03ad 08       		.byte	0x8
 904 03ae 7C01     		.2byte	0x17c
 905 03b0 EC060000 		.4byte	0x6ec
 906 03b4 00       		.byte	0
 907 03b5 08       		.uleb128 0x8
 908 03b6 EA010000 		.4byte	.LASF66
 909 03ba 08       		.byte	0x8
 910 03bb 7E01     		.2byte	0x17e
 911 03bd EC060000 		.4byte	0x6ec
 912 03c1 04       		.byte	0x4
ARM GAS  /var/folders/m4/4md61f0s1_g0rzfghffqnxvr0000gn/T//cc85mpnE.s 			page 17


 913 03c2 08       		.uleb128 0x8
 914 03c3 3E020000 		.4byte	.LASF67
 915 03c7 08       		.byte	0x8
 916 03c8 8001     		.2byte	0x180
 917 03ca 31010000 		.4byte	0x131
 918 03ce 08       		.byte	0x8
 919 03cf 08       		.uleb128 0x8
 920 03d0 EF060000 		.4byte	.LASF72
 921 03d4 08       		.byte	0x8
 922 03d5 8201     		.2byte	0x182
 923 03d7 E7060000 		.4byte	0x6e7
 924 03db 0C       		.byte	0xc
 925 03dc 00       		.byte	0
 926 03dd 03       		.uleb128 0x3
 927 03de 42000000 		.4byte	.LASF73
 928 03e2 07       		.byte	0x7
 929 03e3 6B       		.byte	0x6b
 930 03e4 E8030000 		.4byte	0x3e8
 931 03e8 0A       		.uleb128 0xa
 932 03e9 EB030000 		.4byte	.LASF74
 933 03ed 04       		.byte	0x4
 934 03ee 08       		.byte	0x8
 935 03ef A201     		.2byte	0x1a2
 936 03f1 03040000 		.4byte	0x403
 937 03f5 08       		.uleb128 0x8
 938 03f6 3F060000 		.4byte	.LASF75
 939 03fa 08       		.byte	0x8
 940 03fb AA01     		.2byte	0x1aa
 941 03fd F2060000 		.4byte	0x6f2
 942 0401 00       		.byte	0
 943 0402 00       		.byte	0
 944 0403 03       		.uleb128 0x3
 945 0404 D6020000 		.4byte	.LASF76
 946 0408 07       		.byte	0x7
 947 0409 70       		.byte	0x70
 948 040a 0E040000 		.4byte	0x40e
 949 040e 0E       		.uleb128 0xe
 950 040f 65010000 		.4byte	.LASF77
 951 0413 5802     		.2byte	0x258
 952 0415 08       		.byte	0x8
 953 0416 C201     		.2byte	0x1c2
 954 0418 6A040000 		.4byte	0x46a
 955 041c 08       		.uleb128 0x8
 956 041d AC060000 		.4byte	.LASF78
 957 0421 08       		.byte	0x8
 958 0422 C601     		.2byte	0x1c6
 959 0424 B1020000 		.4byte	0x2b1
 960 0428 00       		.byte	0
 961 0429 08       		.uleb128 0x8
 962 042a 35010000 		.4byte	.LASF79
 963 042e 08       		.byte	0x8
 964 042f CA01     		.2byte	0x1ca
 965 0431 90030000 		.4byte	0x390
 966 0435 1C       		.byte	0x1c
 967 0436 07       		.uleb128 0x7
 968 0437 64626700 		.ascii	"dbg\000"
 969 043b 08       		.byte	0x8
ARM GAS  /var/folders/m4/4md61f0s1_g0rzfghffqnxvr0000gn/T//cc85mpnE.s 			page 18


 970 043c CE01     		.2byte	0x1ce
 971 043e DD030000 		.4byte	0x3dd
 972 0442 2C       		.byte	0x2c
 973 0443 08       		.uleb128 0x8
 974 0444 90020000 		.4byte	.LASF80
 975 0448 08       		.byte	0x8
 976 0449 D201     		.2byte	0x1d2
 977 044b 3C010000 		.4byte	0x13c
 978 044f 30       		.byte	0x30
 979 0450 07       		.uleb128 0x7
 980 0451 746D00   		.ascii	"tm\000"
 981 0454 08       		.byte	0x8
 982 0455 D701     		.2byte	0x1d7
 983 0457 05060000 		.4byte	0x605
 984 045b 78       		.byte	0x78
 985 045c 08       		.uleb128 0x8
 986 045d 06020000 		.4byte	.LASF81
 987 0461 08       		.byte	0x8
 988 0462 E301     		.2byte	0x1e3
 989 0464 F7060000 		.4byte	0x6f7
 990 0468 80       		.byte	0x80
 991 0469 00       		.byte	0
 992 046a 04       		.uleb128 0x4
 993 046b 04       		.byte	0x4
 994 046c 07       		.byte	0x7
 995 046d 2F030000 		.4byte	.LASF82
 996 0471 03       		.uleb128 0x3
 997 0472 E1010000 		.4byte	.LASF83
 998 0476 09       		.byte	0x9
 999 0477 65       		.byte	0x65
 1000 0478 34030000 		.4byte	0x334
 1001 047c 03       		.uleb128 0x3
 1002 047d 1A030000 		.4byte	.LASF84
 1003 0481 09       		.byte	0x9
 1004 0482 6D       		.byte	0x6d
 1005 0483 C3000000 		.4byte	0xc3
 1006 0487 05       		.uleb128 0x5
 1007 0488 61060000 		.4byte	.LASF85
 1008 048c 04       		.byte	0x4
 1009 048d 09       		.byte	0x9
 1010 048e 89       		.byte	0x89
 1011 048f A0040000 		.4byte	0x4a0
 1012 0493 0F       		.uleb128 0xf
 1013 0494 72313300 		.ascii	"r13\000"
 1014 0498 09       		.byte	0x9
 1015 0499 8A       		.byte	0x8a
 1016 049a EA050000 		.4byte	0x5ea
 1017 049e 00       		.byte	0
 1018 049f 00       		.byte	0
 1019 04a0 05       		.uleb128 0x5
 1020 04a1 36000000 		.4byte	.LASF86
 1021 04a5 64       		.byte	0x64
 1022 04a6 0A       		.byte	0xa
 1023 04a7 FD       		.byte	0xfd
 1024 04a8 EA050000 		.4byte	0x5ea
 1025 04ac 0F       		.uleb128 0xf
 1026 04ad 73313600 		.ascii	"s16\000"
ARM GAS  /var/folders/m4/4md61f0s1_g0rzfghffqnxvr0000gn/T//cc85mpnE.s 			page 19


 1027 04b1 0A       		.byte	0xa
 1028 04b2 FF       		.byte	0xff
 1029 04b3 71040000 		.4byte	0x471
 1030 04b7 00       		.byte	0
 1031 04b8 07       		.uleb128 0x7
 1032 04b9 73313700 		.ascii	"s17\000"
 1033 04bd 0A       		.byte	0xa
 1034 04be 0001     		.2byte	0x100
 1035 04c0 71040000 		.4byte	0x471
 1036 04c4 04       		.byte	0x4
 1037 04c5 07       		.uleb128 0x7
 1038 04c6 73313800 		.ascii	"s18\000"
 1039 04ca 0A       		.byte	0xa
 1040 04cb 0101     		.2byte	0x101
 1041 04cd 71040000 		.4byte	0x471
 1042 04d1 08       		.byte	0x8
 1043 04d2 07       		.uleb128 0x7
 1044 04d3 73313900 		.ascii	"s19\000"
 1045 04d7 0A       		.byte	0xa
 1046 04d8 0201     		.2byte	0x102
 1047 04da 71040000 		.4byte	0x471
 1048 04de 0C       		.byte	0xc
 1049 04df 07       		.uleb128 0x7
 1050 04e0 73323000 		.ascii	"s20\000"
 1051 04e4 0A       		.byte	0xa
 1052 04e5 0301     		.2byte	0x103
 1053 04e7 71040000 		.4byte	0x471
 1054 04eb 10       		.byte	0x10
 1055 04ec 07       		.uleb128 0x7
 1056 04ed 73323100 		.ascii	"s21\000"
 1057 04f1 0A       		.byte	0xa
 1058 04f2 0401     		.2byte	0x104
 1059 04f4 71040000 		.4byte	0x471
 1060 04f8 14       		.byte	0x14
 1061 04f9 07       		.uleb128 0x7
 1062 04fa 73323200 		.ascii	"s22\000"
 1063 04fe 0A       		.byte	0xa
 1064 04ff 0501     		.2byte	0x105
 1065 0501 71040000 		.4byte	0x471
 1066 0505 18       		.byte	0x18
 1067 0506 07       		.uleb128 0x7
 1068 0507 73323300 		.ascii	"s23\000"
 1069 050b 0A       		.byte	0xa
 1070 050c 0601     		.2byte	0x106
 1071 050e 71040000 		.4byte	0x471
 1072 0512 1C       		.byte	0x1c
 1073 0513 07       		.uleb128 0x7
 1074 0514 73323400 		.ascii	"s24\000"
 1075 0518 0A       		.byte	0xa
 1076 0519 0701     		.2byte	0x107
 1077 051b 71040000 		.4byte	0x471
 1078 051f 20       		.byte	0x20
 1079 0520 07       		.uleb128 0x7
 1080 0521 73323500 		.ascii	"s25\000"
 1081 0525 0A       		.byte	0xa
 1082 0526 0801     		.2byte	0x108
 1083 0528 71040000 		.4byte	0x471
ARM GAS  /var/folders/m4/4md61f0s1_g0rzfghffqnxvr0000gn/T//cc85mpnE.s 			page 20


 1084 052c 24       		.byte	0x24
 1085 052d 07       		.uleb128 0x7
 1086 052e 73323600 		.ascii	"s26\000"
 1087 0532 0A       		.byte	0xa
 1088 0533 0901     		.2byte	0x109
 1089 0535 71040000 		.4byte	0x471
 1090 0539 28       		.byte	0x28
 1091 053a 07       		.uleb128 0x7
 1092 053b 73323700 		.ascii	"s27\000"
 1093 053f 0A       		.byte	0xa
 1094 0540 0A01     		.2byte	0x10a
 1095 0542 71040000 		.4byte	0x471
 1096 0546 2C       		.byte	0x2c
 1097 0547 07       		.uleb128 0x7
 1098 0548 73323800 		.ascii	"s28\000"
 1099 054c 0A       		.byte	0xa
 1100 054d 0B01     		.2byte	0x10b
 1101 054f 71040000 		.4byte	0x471
 1102 0553 30       		.byte	0x30
 1103 0554 07       		.uleb128 0x7
 1104 0555 73323900 		.ascii	"s29\000"
 1105 0559 0A       		.byte	0xa
 1106 055a 0C01     		.2byte	0x10c
 1107 055c 71040000 		.4byte	0x471
 1108 0560 34       		.byte	0x34
 1109 0561 07       		.uleb128 0x7
 1110 0562 73333000 		.ascii	"s30\000"
 1111 0566 0A       		.byte	0xa
 1112 0567 0D01     		.2byte	0x10d
 1113 0569 71040000 		.4byte	0x471
 1114 056d 38       		.byte	0x38
 1115 056e 07       		.uleb128 0x7
 1116 056f 73333100 		.ascii	"s31\000"
 1117 0573 0A       		.byte	0xa
 1118 0574 0E01     		.2byte	0x10e
 1119 0576 71040000 		.4byte	0x471
 1120 057a 3C       		.byte	0x3c
 1121 057b 07       		.uleb128 0x7
 1122 057c 723400   		.ascii	"r4\000"
 1123 057f 0A       		.byte	0xa
 1124 0580 1001     		.2byte	0x110
 1125 0582 71040000 		.4byte	0x471
 1126 0586 40       		.byte	0x40
 1127 0587 07       		.uleb128 0x7
 1128 0588 723500   		.ascii	"r5\000"
 1129 058b 0A       		.byte	0xa
 1130 058c 1101     		.2byte	0x111
 1131 058e 71040000 		.4byte	0x471
 1132 0592 44       		.byte	0x44
 1133 0593 07       		.uleb128 0x7
 1134 0594 723600   		.ascii	"r6\000"
 1135 0597 0A       		.byte	0xa
 1136 0598 1201     		.2byte	0x112
 1137 059a 71040000 		.4byte	0x471
 1138 059e 48       		.byte	0x48
 1139 059f 07       		.uleb128 0x7
 1140 05a0 723700   		.ascii	"r7\000"
ARM GAS  /var/folders/m4/4md61f0s1_g0rzfghffqnxvr0000gn/T//cc85mpnE.s 			page 21


 1141 05a3 0A       		.byte	0xa
 1142 05a4 1301     		.2byte	0x113
 1143 05a6 71040000 		.4byte	0x471
 1144 05aa 4C       		.byte	0x4c
 1145 05ab 07       		.uleb128 0x7
 1146 05ac 723800   		.ascii	"r8\000"
 1147 05af 0A       		.byte	0xa
 1148 05b0 1401     		.2byte	0x114
 1149 05b2 71040000 		.4byte	0x471
 1150 05b6 50       		.byte	0x50
 1151 05b7 07       		.uleb128 0x7
 1152 05b8 723900   		.ascii	"r9\000"
 1153 05bb 0A       		.byte	0xa
 1154 05bc 1501     		.2byte	0x115
 1155 05be 71040000 		.4byte	0x471
 1156 05c2 54       		.byte	0x54
 1157 05c3 07       		.uleb128 0x7
 1158 05c4 72313000 		.ascii	"r10\000"
 1159 05c8 0A       		.byte	0xa
 1160 05c9 1601     		.2byte	0x116
 1161 05cb 71040000 		.4byte	0x471
 1162 05cf 58       		.byte	0x58
 1163 05d0 07       		.uleb128 0x7
 1164 05d1 72313100 		.ascii	"r11\000"
 1165 05d5 0A       		.byte	0xa
 1166 05d6 1701     		.2byte	0x117
 1167 05d8 71040000 		.4byte	0x471
 1168 05dc 5C       		.byte	0x5c
 1169 05dd 07       		.uleb128 0x7
 1170 05de 6C7200   		.ascii	"lr\000"
 1171 05e1 0A       		.byte	0xa
 1172 05e2 1801     		.2byte	0x118
 1173 05e4 71040000 		.4byte	0x471
 1174 05e8 60       		.byte	0x60
 1175 05e9 00       		.byte	0
 1176 05ea 09       		.uleb128 0x9
 1177 05eb 04       		.byte	0x4
 1178 05ec A0040000 		.4byte	0x4a0
 1179 05f0 10       		.uleb128 0x10
 1180 05f1 04       		.byte	0x4
 1181 05f2 0B       		.byte	0xb
 1182 05f3 38       		.byte	0x38
 1183 05f4 05060000 		.4byte	0x605
 1184 05f8 06       		.uleb128 0x6
 1185 05f9 49060000 		.4byte	.LASF87
 1186 05fd 0B       		.byte	0xb
 1187 05fe 3C       		.byte	0x3c
 1188 05ff CE000000 		.4byte	0xce
 1189 0603 00       		.byte	0
 1190 0604 00       		.byte	0
 1191 0605 03       		.uleb128 0x3
 1192 0606 8E030000 		.4byte	.LASF88
 1193 060a 0B       		.byte	0xb
 1194 060b 3D       		.byte	0x3d
 1195 060c F0050000 		.4byte	0x5f0
 1196 0610 11       		.uleb128 0x11
 1197 0611 04       		.byte	0x4
ARM GAS  /var/folders/m4/4md61f0s1_g0rzfghffqnxvr0000gn/T//cc85mpnE.s 			page 22


 1198 0612 08       		.byte	0x8
 1199 0613 FA       		.byte	0xfa
 1200 0614 6D060000 		.4byte	0x66d
 1201 0618 12       		.uleb128 0x12
 1202 0619 1C000000 		.4byte	.LASF89
 1203 061d 08       		.byte	0x8
 1204 061e 0101     		.2byte	0x101
 1205 0620 10010000 		.4byte	0x110
 1206 0624 12       		.uleb128 0x12
 1207 0625 A4000000 		.4byte	.LASF90
 1208 0629 08       		.byte	0x8
 1209 062a 0801     		.2byte	0x108
 1210 062c 10010000 		.4byte	0x110
 1211 0630 12       		.uleb128 0x12
 1212 0631 DC060000 		.4byte	.LASF91
 1213 0635 08       		.byte	0x8
 1214 0636 0F01     		.2byte	0x10f
 1215 0638 34030000 		.4byte	0x334
 1216 063c 12       		.uleb128 0x12
 1217 063d 5F010000 		.4byte	.LASF92
 1218 0641 08       		.byte	0x8
 1219 0642 1601     		.2byte	0x116
 1220 0644 6D060000 		.4byte	0x66d
 1221 0648 12       		.uleb128 0x12
 1222 0649 37020000 		.4byte	.LASF93
 1223 064d 08       		.byte	0x8
 1224 064e 1E01     		.2byte	0x11e
 1225 0650 98060000 		.4byte	0x698
 1226 0654 12       		.uleb128 0x12
 1227 0655 AD040000 		.4byte	.LASF94
 1228 0659 08       		.byte	0x8
 1229 065a 2701     		.2byte	0x127
 1230 065c CF060000 		.4byte	0x6cf
 1231 0660 12       		.uleb128 0x12
 1232 0661 4A040000 		.4byte	.LASF95
 1233 0665 08       		.byte	0x8
 1234 0666 2F01     		.2byte	0x12f
 1235 0668 1B010000 		.4byte	0x11b
 1236 066c 00       		.byte	0
 1237 066d 09       		.uleb128 0x9
 1238 066e 04       		.byte	0x4
 1239 066f 4C020000 		.4byte	0x24c
 1240 0673 05       		.uleb128 0x5
 1241 0674 8C040000 		.4byte	.LASF96
 1242 0678 0C       		.byte	0xc
 1243 0679 0C       		.byte	0xc
 1244 067a 34       		.byte	0x34
 1245 067b 98060000 		.4byte	0x698
 1246 067f 06       		.uleb128 0x6
 1247 0680 AB010000 		.4byte	.LASF97
 1248 0684 0C       		.byte	0xc
 1249 0685 35       		.byte	0x35
 1250 0686 81020000 		.4byte	0x281
 1251 068a 00       		.byte	0
 1252 068b 06       		.uleb128 0x6
 1253 068c 60020000 		.4byte	.LASF98
 1254 0690 0C       		.byte	0xc
ARM GAS  /var/folders/m4/4md61f0s1_g0rzfghffqnxvr0000gn/T//cc85mpnE.s 			page 23


 1255 0691 37       		.byte	0x37
 1256 0692 26010000 		.4byte	0x126
 1257 0696 08       		.byte	0x8
 1258 0697 00       		.byte	0
 1259 0698 09       		.uleb128 0x9
 1260 0699 04       		.byte	0x4
 1261 069a 73060000 		.4byte	0x673
 1262 069e 05       		.uleb128 0x5
 1263 069f 50060000 		.4byte	.LASF99
 1264 06a3 10       		.byte	0x10
 1265 06a4 0D       		.byte	0xd
 1266 06a5 39       		.byte	0x39
 1267 06a6 CF060000 		.4byte	0x6cf
 1268 06aa 06       		.uleb128 0x6
 1269 06ab 22010000 		.4byte	.LASF100
 1270 06af 0D       		.byte	0xd
 1271 06b0 3A       		.byte	0x3a
 1272 06b1 81020000 		.4byte	0x281
 1273 06b5 00       		.byte	0
 1274 06b6 06       		.uleb128 0x6
 1275 06b7 0C070000 		.4byte	.LASF101
 1276 06bb 0D       		.byte	0xd
 1277 06bc 3C       		.byte	0x3c
 1278 06bd 57020000 		.4byte	0x257
 1279 06c1 08       		.byte	0x8
 1280 06c2 06       		.uleb128 0x6
 1281 06c3 01060000 		.4byte	.LASF102
 1282 06c7 0D       		.byte	0xd
 1283 06c8 3E       		.byte	0x3e
 1284 06c9 1D070000 		.4byte	0x71d
 1285 06cd 0C       		.byte	0xc
 1286 06ce 00       		.byte	0
 1287 06cf 09       		.uleb128 0x9
 1288 06d0 04       		.byte	0x4
 1289 06d1 9E060000 		.4byte	0x69e
 1290 06d5 09       		.uleb128 0x9
 1291 06d6 04       		.byte	0x4
 1292 06d7 E2060000 		.4byte	0x6e2
 1293 06db 04       		.uleb128 0x4
 1294 06dc 01       		.byte	0x1
 1295 06dd 08       		.byte	0x8
 1296 06de ED040000 		.4byte	.LASF103
 1297 06e2 13       		.uleb128 0x13
 1298 06e3 DB060000 		.4byte	0x6db
 1299 06e7 14       		.uleb128 0x14
 1300 06e8 31010000 		.4byte	0x131
 1301 06ec 09       		.uleb128 0x9
 1302 06ed 04       		.byte	0x4
 1303 06ee 36030000 		.4byte	0x336
 1304 06f2 14       		.uleb128 0x14
 1305 06f3 D5060000 		.4byte	0x6d5
 1306 06f7 15       		.uleb128 0x15
 1307 06f8 7C040000 		.4byte	0x47c
 1308 06fc 07070000 		.4byte	0x707
 1309 0700 16       		.uleb128 0x16
 1310 0701 6A040000 		.4byte	0x46a
 1311 0705 3A       		.byte	0x3a
ARM GAS  /var/folders/m4/4md61f0s1_g0rzfghffqnxvr0000gn/T//cc85mpnE.s 			page 24


 1312 0706 00       		.byte	0
 1313 0707 03       		.uleb128 0x3
 1314 0708 00000000 		.4byte	.LASF104
 1315 070c 0E       		.byte	0xe
 1316 070d 34       		.byte	0x34
 1317 070e 23030000 		.4byte	0x323
 1318 0712 03       		.uleb128 0x3
 1319 0713 F2010000 		.4byte	.LASF105
 1320 0717 0D       		.byte	0xd
 1321 0718 34       		.byte	0x34
 1322 0719 9E060000 		.4byte	0x69e
 1323 071d 09       		.uleb128 0x9
 1324 071e 04       		.byte	0x4
 1325 071f 12070000 		.4byte	0x712
 1326 0723 03       		.uleb128 0x3
 1327 0724 5B000000 		.4byte	.LASF106
 1328 0728 0F       		.byte	0xf
 1329 0729 34       		.byte	0x34
 1330 072a 2E070000 		.4byte	0x72e
 1331 072e 09       		.uleb128 0x9
 1332 072f 04       		.byte	0x4
 1333 0730 34070000 		.4byte	0x734
 1334 0734 17       		.uleb128 0x17
 1335 0735 34030000 		.4byte	0x334
 1336 0739 43070000 		.4byte	0x743
 1337 073d 0C       		.uleb128 0xc
 1338 073e 2C000000 		.4byte	0x2c
 1339 0742 00       		.byte	0
 1340 0743 03       		.uleb128 0x3
 1341 0744 95010000 		.4byte	.LASF107
 1342 0748 10       		.byte	0x10
 1343 0749 3C       		.byte	0x3c
 1344 074a 4E070000 		.4byte	0x74e
 1345 074e 05       		.uleb128 0x5
 1346 074f 22070000 		.4byte	.LASF108
 1347 0753 20       		.byte	0x20
 1348 0754 10       		.byte	0x10
 1349 0755 4F       		.byte	0x4f
 1350 0756 7F070000 		.4byte	0x77f
 1351 075a 06       		.uleb128 0x6
 1352 075b D1060000 		.4byte	.LASF109
 1353 075f 10       		.byte	0x10
 1354 0760 50       		.byte	0x50
 1355 0761 23070000 		.4byte	0x723
 1356 0765 00       		.byte	0
 1357 0766 06       		.uleb128 0x6
 1358 0767 AD000000 		.4byte	.LASF110
 1359 076b 10       		.byte	0x10
 1360 076c 52       		.byte	0x52
 1361 076d 9E070000 		.4byte	0x79e
 1362 0771 08       		.byte	0x8
 1363 0772 06       		.uleb128 0x6
 1364 0773 14010000 		.4byte	.LASF111
 1365 0777 10       		.byte	0x10
 1366 0778 54       		.byte	0x54
 1367 0779 12070000 		.4byte	0x712
 1368 077d 10       		.byte	0x10
ARM GAS  /var/folders/m4/4md61f0s1_g0rzfghffqnxvr0000gn/T//cc85mpnE.s 			page 25


 1369 077e 00       		.byte	0
 1370 077f 11       		.uleb128 0x11
 1371 0780 04       		.byte	0x4
 1372 0781 10       		.byte	0x10
 1373 0782 44       		.byte	0x44
 1374 0783 9E070000 		.4byte	0x79e
 1375 0787 18       		.uleb128 0x18
 1376 0788 DD000000 		.4byte	.LASF112
 1377 078c 10       		.byte	0x10
 1378 078d 45       		.byte	0x45
 1379 078e BF070000 		.4byte	0x7bf
 1380 0792 18       		.uleb128 0x18
 1381 0793 CC040000 		.4byte	.LASF113
 1382 0797 10       		.byte	0x10
 1383 0798 46       		.byte	0x46
 1384 0799 C5070000 		.4byte	0x7c5
 1385 079d 00       		.byte	0
 1386 079e 19       		.uleb128 0x19
 1387 079f 11040000 		.4byte	.LASF144
 1388 07a3 08       		.byte	0x8
 1389 07a4 10       		.byte	0x10
 1390 07a5 41       		.byte	0x41
 1391 07a6 BF070000 		.4byte	0x7bf
 1392 07aa 18       		.uleb128 0x18
 1393 07ab 00020000 		.4byte	.LASF114
 1394 07af 10       		.byte	0x10
 1395 07b0 42       		.byte	0x42
 1396 07b1 7C040000 		.4byte	0x47c
 1397 07b5 1A       		.uleb128 0x1a
 1398 07b6 6800     		.ascii	"h\000"
 1399 07b8 10       		.byte	0x10
 1400 07b9 49       		.byte	0x49
 1401 07ba CB070000 		.4byte	0x7cb
 1402 07be 00       		.byte	0
 1403 07bf 09       		.uleb128 0x9
 1404 07c0 04       		.byte	0x4
 1405 07c1 9E070000 		.4byte	0x79e
 1406 07c5 09       		.uleb128 0x9
 1407 07c6 04       		.byte	0x4
 1408 07c7 43070000 		.4byte	0x743
 1409 07cb 10       		.uleb128 0x10
 1410 07cc 08       		.byte	0x8
 1411 07cd 10       		.byte	0x10
 1412 07ce 43       		.byte	0x43
 1413 07cf EA070000 		.4byte	0x7ea
 1414 07d3 0F       		.uleb128 0xf
 1415 07d4 7500     		.ascii	"u\000"
 1416 07d6 10       		.byte	0x10
 1417 07d7 47       		.byte	0x47
 1418 07d8 7F070000 		.4byte	0x77f
 1419 07dc 00       		.byte	0
 1420 07dd 06       		.uleb128 0x6
 1421 07de EA060000 		.4byte	.LASF115
 1422 07e2 10       		.byte	0x10
 1423 07e3 48       		.byte	0x48
 1424 07e4 2C000000 		.4byte	0x2c
 1425 07e8 04       		.byte	0x4
ARM GAS  /var/folders/m4/4md61f0s1_g0rzfghffqnxvr0000gn/T//cc85mpnE.s 			page 26


 1426 07e9 00       		.byte	0
 1427 07ea 05       		.uleb128 0x5
 1428 07eb 99060000 		.4byte	.LASF116
 1429 07ef 04       		.byte	0x4
 1430 07f0 11       		.byte	0x11
 1431 07f1 38       		.byte	0x38
 1432 07f2 03080000 		.4byte	0x803
 1433 07f6 06       		.uleb128 0x6
 1434 07f7 B7030000 		.4byte	.LASF117
 1435 07fb 11       		.byte	0x11
 1436 07fc 39       		.byte	0x39
 1437 07fd 03080000 		.4byte	0x803
 1438 0801 00       		.byte	0
 1439 0802 00       		.byte	0
 1440 0803 09       		.uleb128 0x9
 1441 0804 04       		.byte	0x4
 1442 0805 EA070000 		.4byte	0x7ea
 1443 0809 10       		.uleb128 0x10
 1444 080a 0C       		.byte	0xc
 1445 080b 11       		.byte	0x11
 1446 080c 40       		.byte	0x40
 1447 080d 36080000 		.4byte	0x836
 1448 0811 06       		.uleb128 0x6
 1449 0812 59060000 		.4byte	.LASF118
 1450 0816 11       		.byte	0x11
 1451 0817 41       		.byte	0x41
 1452 0818 03080000 		.4byte	0x803
 1453 081c 00       		.byte	0
 1454 081d 06       		.uleb128 0x6
 1455 081e 7F030000 		.4byte	.LASF119
 1456 0822 11       		.byte	0x11
 1457 0823 42       		.byte	0x42
 1458 0824 2C000000 		.4byte	0x2c
 1459 0828 04       		.byte	0x4
 1460 0829 06       		.uleb128 0x6
 1461 082a D5010000 		.4byte	.LASF120
 1462 082e 11       		.byte	0x11
 1463 082f 44       		.byte	0x44
 1464 0830 23070000 		.4byte	0x723
 1465 0834 08       		.byte	0x8
 1466 0835 00       		.byte	0
 1467 0836 03       		.uleb128 0x3
 1468 0837 52020000 		.4byte	.LASF121
 1469 083b 11       		.byte	0x11
 1470 083c 46       		.byte	0x46
 1471 083d 09080000 		.4byte	0x809
 1472 0841 1B       		.uleb128 0x1b
 1473 0842 31060000 		.4byte	.LASF124
 1474 0846 02       		.byte	0x2
 1475 0847 2202     		.2byte	0x222
 1476 0849 03       		.byte	0x3
 1477 084a 5B080000 		.4byte	0x85b
 1478 084e 1C       		.uleb128 0x1c
 1479 084f FA010000 		.4byte	.LASF145
 1480 0853 02       		.byte	0x2
 1481 0854 2202     		.2byte	0x222
 1482 0856 B8000000 		.4byte	0xb8
ARM GAS  /var/folders/m4/4md61f0s1_g0rzfghffqnxvr0000gn/T//cc85mpnE.s 			page 27


 1483 085a 00       		.byte	0
 1484 085b 1D       		.uleb128 0x1d
 1485 085c 51000000 		.4byte	.LASF122
 1486 0860 0A       		.byte	0xa
 1487 0861 C801     		.2byte	0x1c8
 1488 0863 03       		.byte	0x3
 1489 0864 1D       		.uleb128 0x1d
 1490 0865 3C010000 		.4byte	.LASF123
 1491 0869 0A       		.byte	0xa
 1492 086a E001     		.2byte	0x1e0
 1493 086c 03       		.byte	0x3
 1494 086d 1B       		.uleb128 0x1b
 1495 086e FA060000 		.4byte	.LASF125
 1496 0872 12       		.byte	0x12
 1497 0873 6601     		.2byte	0x166
 1498 0875 03       		.byte	0x3
 1499 0876 88080000 		.4byte	0x888
 1500 087a 1E       		.uleb128 0x1e
 1501 087b 60040000 		.4byte	.LASF127
 1502 087f 98080000 		.4byte	0x898
 1503 0883 FA060000 		.4byte	.LASF125
 1504 0887 00       		.byte	0
 1505 0888 15       		.uleb128 0x15
 1506 0889 DB060000 		.4byte	0x6db
 1507 088d 98080000 		.4byte	0x898
 1508 0891 16       		.uleb128 0x16
 1509 0892 6A040000 		.4byte	0x46a
 1510 0896 0B       		.byte	0xb
 1511 0897 00       		.byte	0
 1512 0898 13       		.uleb128 0x13
 1513 0899 88080000 		.4byte	0x888
 1514 089d 1D       		.uleb128 0x1d
 1515 089e 69040000 		.4byte	.LASF126
 1516 08a2 12       		.byte	0x12
 1517 08a3 5A01     		.2byte	0x15a
 1518 08a5 03       		.byte	0x3
 1519 08a6 1F       		.uleb128 0x1f
 1520 08a7 0E030000 		.4byte	.LASF128
 1521 08ab 01       		.byte	0x1
 1522 08ac 44       		.byte	0x44
 1523 08ad 57020000 		.4byte	0x257
 1524 08b1 00000000 		.4byte	.LFB231
 1525 08b5 14000000 		.4byte	.LFE231-.LFB231
 1526 08b9 01       		.uleb128 0x1
 1527 08ba 9C       		.byte	0x9c
 1528 08bb 5E090000 		.4byte	0x95e
 1529 08bf 20       		.uleb128 0x20
 1530 08c0 747000   		.ascii	"tp\000"
 1531 08c3 01       		.byte	0x1
 1532 08c4 44       		.byte	0x44
 1533 08c5 57020000 		.4byte	0x257
 1534 08c9 01       		.uleb128 0x1
 1535 08ca 50       		.byte	0x50
 1536 08cb 21       		.uleb128 0x21
 1537 08cc 60040000 		.4byte	.LASF127
 1538 08d0 5E090000 		.4byte	0x95e
 1539 08d4 22       		.uleb128 0x22
ARM GAS  /var/folders/m4/4md61f0s1_g0rzfghffqnxvr0000gn/T//cc85mpnE.s 			page 28


 1540 08d5 9D080000 		.4byte	0x89d
 1541 08d9 00000000 		.4byte	.LBB64
 1542 08dd 06000000 		.4byte	.LBE64-.LBB64
 1543 08e1 01       		.byte	0x1
 1544 08e2 46       		.byte	0x46
 1545 08e3 13090000 		.4byte	0x913
 1546 08e7 23       		.uleb128 0x23
 1547 08e8 5B080000 		.4byte	0x85b
 1548 08ec 00000000 		.4byte	.LBB65
 1549 08f0 06000000 		.4byte	.LBE65-.LBB65
 1550 08f4 12       		.byte	0x12
 1551 08f5 5C01     		.2byte	0x15c
 1552 08f7 23       		.uleb128 0x23
 1553 08f8 41080000 		.4byte	0x841
 1554 08fc 00000000 		.4byte	.LBB66
 1555 0900 06000000 		.4byte	.LBE66-.LBB66
 1556 0904 0A       		.byte	0xa
 1557 0905 D001     		.2byte	0x1d0
 1558 0907 24       		.uleb128 0x24
 1559 0908 4E080000 		.4byte	0x84e
 1560 090c 00000000 		.4byte	.LLST0
 1561 0910 00       		.byte	0
 1562 0911 00       		.byte	0
 1563 0912 00       		.byte	0
 1564 0913 25       		.uleb128 0x25
 1565 0914 6D080000 		.4byte	0x86d
 1566 0918 0C000000 		.4byte	.LBB68
 1567 091c 06000000 		.4byte	.LBE68-.LBB68
 1568 0920 01       		.byte	0x1
 1569 0921 49       		.byte	0x49
 1570 0922 26       		.uleb128 0x26
 1571 0923 0C000000 		.4byte	.LBB69
 1572 0927 06000000 		.4byte	.LBE69-.LBB69
 1573 092b 27       		.uleb128 0x27
 1574 092c 7A080000 		.4byte	0x87a
 1575 0930 23       		.uleb128 0x23
 1576 0931 64080000 		.4byte	0x864
 1577 0935 0C000000 		.4byte	.LBB70
 1578 0939 06000000 		.4byte	.LBE70-.LBB70
 1579 093d 12       		.byte	0x12
 1580 093e 7301     		.2byte	0x173
 1581 0940 23       		.uleb128 0x23
 1582 0941 41080000 		.4byte	0x841
 1583 0945 0C000000 		.4byte	.LBB71
 1584 0949 06000000 		.4byte	.LBE71-.LBB71
 1585 094d 0A       		.byte	0xa
 1586 094e E301     		.2byte	0x1e3
 1587 0950 24       		.uleb128 0x24
 1588 0951 4E080000 		.4byte	0x84e
 1589 0955 15000000 		.4byte	.LLST1
 1590 0959 00       		.byte	0
 1591 095a 00       		.byte	0
 1592 095b 00       		.byte	0
 1593 095c 00       		.byte	0
 1594 095d 00       		.byte	0
 1595 095e 13       		.uleb128 0x13
 1596 095f 88080000 		.4byte	0x888
ARM GAS  /var/folders/m4/4md61f0s1_g0rzfghffqnxvr0000gn/T//cc85mpnE.s 			page 29


 1597 0963 28       		.uleb128 0x28
 1598 0964 73040000 		.4byte	.LASF146
 1599 0968 01       		.byte	0x1
 1600 0969 5B       		.byte	0x5b
 1601 096a 00000000 		.4byte	.LFB232
 1602 096e 5A000000 		.4byte	.LFE232-.LFB232
 1603 0972 01       		.uleb128 0x1
 1604 0973 9C       		.byte	0x9c
 1605 0974 EE0A0000 		.4byte	0xaee
 1606 0978 29       		.uleb128 0x29
 1607 0979 747000   		.ascii	"tp\000"
 1608 097c 01       		.byte	0x1
 1609 097d 5B       		.byte	0x5b
 1610 097e 57020000 		.4byte	0x257
 1611 0982 29000000 		.4byte	.LLST2
 1612 0986 2A       		.uleb128 0x2a
 1613 0987 C7030000 		.4byte	.LASF132
 1614 098b 01       		.byte	0x1
 1615 098c 5C       		.byte	0x5c
 1616 098d EF000000 		.4byte	0xef
 1617 0991 6E000000 		.4byte	.LLST3
 1618 0995 21       		.uleb128 0x21
 1619 0996 60040000 		.4byte	.LASF127
 1620 099a FE0A0000 		.4byte	0xafe
 1621 099e 22       		.uleb128 0x22
 1622 099f 9D080000 		.4byte	0x89d
 1623 09a3 00000000 		.4byte	.LBB73
 1624 09a7 06000000 		.4byte	.LBE73-.LBB73
 1625 09ab 01       		.byte	0x1
 1626 09ac 5E       		.byte	0x5e
 1627 09ad DD090000 		.4byte	0x9dd
 1628 09b1 23       		.uleb128 0x23
 1629 09b2 5B080000 		.4byte	0x85b
 1630 09b6 00000000 		.4byte	.LBB74
 1631 09ba 06000000 		.4byte	.LBE74-.LBB74
 1632 09be 12       		.byte	0x12
 1633 09bf 5C01     		.2byte	0x15c
 1634 09c1 23       		.uleb128 0x23
 1635 09c2 41080000 		.4byte	0x841
 1636 09c6 00000000 		.4byte	.LBB75
 1637 09ca 06000000 		.4byte	.LBE75-.LBB75
 1638 09ce 0A       		.byte	0xa
 1639 09cf D001     		.2byte	0x1d0
 1640 09d1 24       		.uleb128 0x24
 1641 09d2 4E080000 		.4byte	0x84e
 1642 09d6 A3000000 		.4byte	.LLST4
 1643 09da 00       		.byte	0
 1644 09db 00       		.byte	0
 1645 09dc 00       		.byte	0
 1646 09dd 22       		.uleb128 0x22
 1647 09de 6D080000 		.4byte	0x86d
 1648 09e2 18000000 		.4byte	.LBB77
 1649 09e6 08000000 		.4byte	.LBE77-.LBB77
 1650 09ea 01       		.byte	0x1
 1651 09eb 80       		.byte	0x80
 1652 09ec 2B0A0000 		.4byte	0xa2b
 1653 09f0 26       		.uleb128 0x26
ARM GAS  /var/folders/m4/4md61f0s1_g0rzfghffqnxvr0000gn/T//cc85mpnE.s 			page 30


 1654 09f1 18000000 		.4byte	.LBB78
 1655 09f5 08000000 		.4byte	.LBE78-.LBB78
 1656 09f9 27       		.uleb128 0x27
 1657 09fa 7A080000 		.4byte	0x87a
 1658 09fe 23       		.uleb128 0x23
 1659 09ff 64080000 		.4byte	0x864
 1660 0a03 18000000 		.4byte	.LBB79
 1661 0a07 08000000 		.4byte	.LBE79-.LBB79
 1662 0a0b 12       		.byte	0x12
 1663 0a0c 7301     		.2byte	0x173
 1664 0a0e 23       		.uleb128 0x23
 1665 0a0f 41080000 		.4byte	0x841
 1666 0a13 18000000 		.4byte	.LBB80
 1667 0a17 08000000 		.4byte	.LBE80-.LBB80
 1668 0a1b 0A       		.byte	0xa
 1669 0a1c E301     		.2byte	0x1e3
 1670 0a1e 24       		.uleb128 0x24
 1671 0a1f 4E080000 		.4byte	0x84e
 1672 0a23 B8000000 		.4byte	.LLST5
 1673 0a27 00       		.byte	0
 1674 0a28 00       		.byte	0
 1675 0a29 00       		.byte	0
 1676 0a2a 00       		.byte	0
 1677 0a2b 22       		.uleb128 0x22
 1678 0a2c 6D080000 		.4byte	0x86d
 1679 0a30 38000000 		.4byte	.LBB82
 1680 0a34 04000000 		.4byte	.LBE82-.LBB82
 1681 0a38 01       		.byte	0x1
 1682 0a39 76       		.byte	0x76
 1683 0a3a 790A0000 		.4byte	0xa79
 1684 0a3e 26       		.uleb128 0x26
 1685 0a3f 38000000 		.4byte	.LBB83
 1686 0a43 04000000 		.4byte	.LBE83-.LBB83
 1687 0a47 27       		.uleb128 0x27
 1688 0a48 7A080000 		.4byte	0x87a
 1689 0a4c 23       		.uleb128 0x23
 1690 0a4d 64080000 		.4byte	0x864
 1691 0a51 38000000 		.4byte	.LBB84
 1692 0a55 04000000 		.4byte	.LBE84-.LBB84
 1693 0a59 12       		.byte	0x12
 1694 0a5a 7301     		.2byte	0x173
 1695 0a5c 23       		.uleb128 0x23
 1696 0a5d 41080000 		.4byte	0x841
 1697 0a61 38000000 		.4byte	.LBB85
 1698 0a65 04000000 		.4byte	.LBE85-.LBB85
 1699 0a69 0A       		.byte	0xa
 1700 0a6a E301     		.2byte	0x1e3
 1701 0a6c 24       		.uleb128 0x24
 1702 0a6d 4E080000 		.4byte	0x84e
 1703 0a71 CC000000 		.4byte	.LLST6
 1704 0a75 00       		.byte	0
 1705 0a76 00       		.byte	0
 1706 0a77 00       		.byte	0
 1707 0a78 00       		.byte	0
 1708 0a79 22       		.uleb128 0x22
 1709 0a7a 6D080000 		.4byte	0x86d
 1710 0a7e 4E000000 		.4byte	.LBB87
ARM GAS  /var/folders/m4/4md61f0s1_g0rzfghffqnxvr0000gn/T//cc85mpnE.s 			page 31


 1711 0a82 04000000 		.4byte	.LBE87-.LBB87
 1712 0a86 01       		.byte	0x1
 1713 0a87 6D       		.byte	0x6d
 1714 0a88 C70A0000 		.4byte	0xac7
 1715 0a8c 26       		.uleb128 0x26
 1716 0a8d 4E000000 		.4byte	.LBB88
 1717 0a91 04000000 		.4byte	.LBE88-.LBB88
 1718 0a95 27       		.uleb128 0x27
 1719 0a96 7A080000 		.4byte	0x87a
 1720 0a9a 23       		.uleb128 0x23
 1721 0a9b 64080000 		.4byte	0x864
 1722 0a9f 4E000000 		.4byte	.LBB89
 1723 0aa3 04000000 		.4byte	.LBE89-.LBB89
 1724 0aa7 12       		.byte	0x12
 1725 0aa8 7301     		.2byte	0x173
 1726 0aaa 23       		.uleb128 0x23
 1727 0aab 41080000 		.4byte	0x841
 1728 0aaf 4E000000 		.4byte	.LBB90
 1729 0ab3 04000000 		.4byte	.LBE90-.LBB90
 1730 0ab7 0A       		.byte	0xa
 1731 0ab8 E301     		.2byte	0x1e3
 1732 0aba 24       		.uleb128 0x24
 1733 0abb 4E080000 		.4byte	0x84e
 1734 0abf E0000000 		.4byte	.LLST7
 1735 0ac3 00       		.byte	0
 1736 0ac4 00       		.byte	0
 1737 0ac5 00       		.byte	0
 1738 0ac6 00       		.byte	0
 1739 0ac7 2B       		.uleb128 0x2b
 1740 0ac8 42000000 		.4byte	.LVL14
 1741 0acc F00D0000 		.4byte	0xdf0
 1742 0ad0 DC0A0000 		.4byte	0xadc
 1743 0ad4 2C       		.uleb128 0x2c
 1744 0ad5 01       		.uleb128 0x1
 1745 0ad6 51       		.byte	0x51
 1746 0ad7 03       		.uleb128 0x3
 1747 0ad8 F3       		.byte	0xf3
 1748 0ad9 01       		.uleb128 0x1
 1749 0ada 50       		.byte	0x50
 1750 0adb 00       		.byte	0
 1751 0adc 2D       		.uleb128 0x2d
 1752 0add 5A000000 		.4byte	.LVL17
 1753 0ae1 FB0D0000 		.4byte	0xdfb
 1754 0ae5 2C       		.uleb128 0x2c
 1755 0ae6 01       		.uleb128 0x1
 1756 0ae7 50       		.byte	0x50
 1757 0ae8 03       		.uleb128 0x3
 1758 0ae9 F3       		.byte	0xf3
 1759 0aea 01       		.uleb128 0x1
 1760 0aeb 50       		.byte	0x50
 1761 0aec 00       		.byte	0
 1762 0aed 00       		.byte	0
 1763 0aee 15       		.uleb128 0x15
 1764 0aef DB060000 		.4byte	0x6db
 1765 0af3 FE0A0000 		.4byte	0xafe
 1766 0af7 16       		.uleb128 0x16
 1767 0af8 6A040000 		.4byte	0x46a
ARM GAS  /var/folders/m4/4md61f0s1_g0rzfghffqnxvr0000gn/T//cc85mpnE.s 			page 32


 1768 0afc 0C       		.byte	0xc
 1769 0afd 00       		.byte	0
 1770 0afe 13       		.uleb128 0x13
 1771 0aff EE0A0000 		.4byte	0xaee
 1772 0b03 1F       		.uleb128 0x1f
 1773 0b04 78010000 		.4byte	.LASF129
 1774 0b08 01       		.byte	0x1
 1775 0b09 9A       		.byte	0x9a
 1776 0b0a 57020000 		.4byte	0x257
 1777 0b0e 00000000 		.4byte	.LFB233
 1778 0b12 3C000000 		.4byte	.LFE233-.LFB233
 1779 0b16 01       		.uleb128 0x1
 1780 0b17 9C       		.byte	0x9c
 1781 0b18 680C0000 		.4byte	0xc68
 1782 0b1c 2E       		.uleb128 0x2e
 1783 0b1d D7000000 		.4byte	.LASF130
 1784 0b21 01       		.byte	0x1
 1785 0b22 9A       		.byte	0x9a
 1786 0b23 C5070000 		.4byte	0x7c5
 1787 0b27 F4000000 		.4byte	.LLST8
 1788 0b2b 2E       		.uleb128 0x2e
 1789 0b2c EA060000 		.4byte	.LASF115
 1790 0b30 01       		.byte	0x1
 1791 0b31 9A       		.byte	0x9a
 1792 0b32 2C000000 		.4byte	0x2c
 1793 0b36 15010000 		.4byte	.LLST9
 1794 0b3a 2E       		.uleb128 0x2e
 1795 0b3b 9F030000 		.4byte	.LASF131
 1796 0b3f 01       		.byte	0x1
 1797 0b40 9B       		.byte	0x9b
 1798 0b41 05010000 		.4byte	0x105
 1799 0b45 33010000 		.4byte	.LLST10
 1800 0b49 29       		.uleb128 0x29
 1801 0b4a 706600   		.ascii	"pf\000"
 1802 0b4d 01       		.byte	0x1
 1803 0b4e 9B       		.byte	0x9b
 1804 0b4f 07070000 		.4byte	0x707
 1805 0b53 51010000 		.4byte	.LLST11
 1806 0b57 20       		.uleb128 0x20
 1807 0b58 61726700 		.ascii	"arg\000"
 1808 0b5c 01       		.byte	0x1
 1809 0b5d 9B       		.byte	0x9b
 1810 0b5e 34030000 		.4byte	0x334
 1811 0b62 02       		.uleb128 0x2
 1812 0b63 91       		.byte	0x91
 1813 0b64 00       		.sleb128 0
 1814 0b65 2F       		.uleb128 0x2f
 1815 0b66 77737000 		.ascii	"wsp\000"
 1816 0b6a 01       		.byte	0x1
 1817 0b6b 9C       		.byte	0x9c
 1818 0b6c 34030000 		.4byte	0x334
 1819 0b70 6F010000 		.4byte	.LLST12
 1820 0b74 2F       		.uleb128 0x2f
 1821 0b75 747000   		.ascii	"tp\000"
 1822 0b78 01       		.byte	0x1
 1823 0b79 9D       		.byte	0x9d
 1824 0b7a 57020000 		.4byte	0x257
ARM GAS  /var/folders/m4/4md61f0s1_g0rzfghffqnxvr0000gn/T//cc85mpnE.s 			page 33


 1825 0b7e 82010000 		.4byte	.LLST13
 1826 0b82 22       		.uleb128 0x22
 1827 0b83 9D080000 		.4byte	0x89d
 1828 0b87 10000000 		.4byte	.LBB92
 1829 0b8b 06000000 		.4byte	.LBE92-.LBB92
 1830 0b8f 01       		.byte	0x1
 1831 0b90 AD       		.byte	0xad
 1832 0b91 C10B0000 		.4byte	0xbc1
 1833 0b95 23       		.uleb128 0x23
 1834 0b96 5B080000 		.4byte	0x85b
 1835 0b9a 10000000 		.4byte	.LBB93
 1836 0b9e 06000000 		.4byte	.LBE93-.LBB93
 1837 0ba2 12       		.byte	0x12
 1838 0ba3 5C01     		.2byte	0x15c
 1839 0ba5 23       		.uleb128 0x23
 1840 0ba6 41080000 		.4byte	0x841
 1841 0baa 10000000 		.4byte	.LBB94
 1842 0bae 06000000 		.4byte	.LBE94-.LBB94
 1843 0bb2 0A       		.byte	0xa
 1844 0bb3 D001     		.2byte	0x1d0
 1845 0bb5 24       		.uleb128 0x24
 1846 0bb6 4E080000 		.4byte	0x84e
 1847 0bba A0010000 		.4byte	.LLST14
 1848 0bbe 00       		.byte	0
 1849 0bbf 00       		.byte	0
 1850 0bc0 00       		.byte	0
 1851 0bc1 22       		.uleb128 0x22
 1852 0bc2 6D080000 		.4byte	0x86d
 1853 0bc6 30000000 		.4byte	.LBB96
 1854 0bca 06000000 		.4byte	.LBE96-.LBB96
 1855 0bce 01       		.byte	0x1
 1856 0bcf B1       		.byte	0xb1
 1857 0bd0 0F0C0000 		.4byte	0xc0f
 1858 0bd4 26       		.uleb128 0x26
 1859 0bd5 30000000 		.4byte	.LBB97
 1860 0bd9 06000000 		.4byte	.LBE97-.LBB97
 1861 0bdd 27       		.uleb128 0x27
 1862 0bde 7A080000 		.4byte	0x87a
 1863 0be2 23       		.uleb128 0x23
 1864 0be3 64080000 		.4byte	0x864
 1865 0be7 30000000 		.4byte	.LBB98
 1866 0beb 06000000 		.4byte	.LBE98-.LBB98
 1867 0bef 12       		.byte	0x12
 1868 0bf0 7301     		.2byte	0x173
 1869 0bf2 23       		.uleb128 0x23
 1870 0bf3 41080000 		.4byte	0x841
 1871 0bf7 30000000 		.4byte	.LBB99
 1872 0bfb 06000000 		.4byte	.LBE99-.LBB99
 1873 0bff 0A       		.byte	0xa
 1874 0c00 E301     		.2byte	0x1e3
 1875 0c02 24       		.uleb128 0x24
 1876 0c03 4E080000 		.4byte	0x84e
 1877 0c07 B5010000 		.4byte	.LLST15
 1878 0c0b 00       		.byte	0
 1879 0c0c 00       		.byte	0
 1880 0c0d 00       		.byte	0
 1881 0c0e 00       		.byte	0
ARM GAS  /var/folders/m4/4md61f0s1_g0rzfghffqnxvr0000gn/T//cc85mpnE.s 			page 34


 1882 0c0f 30       		.uleb128 0x30
 1883 0c10 0E000000 		.4byte	.LVL19
 1884 0c14 060E0000 		.4byte	0xe06
 1885 0c18 2A0C0000 		.4byte	0xc2a
 1886 0c1c 2C       		.uleb128 0x2c
 1887 0c1d 01       		.uleb128 0x1
 1888 0c1e 50       		.byte	0x50
 1889 0c1f 03       		.uleb128 0x3
 1890 0c20 F3       		.byte	0xf3
 1891 0c21 01       		.uleb128 0x1
 1892 0c22 50       		.byte	0x50
 1893 0c23 2C       		.uleb128 0x2c
 1894 0c24 01       		.uleb128 0x1
 1895 0c25 51       		.byte	0x51
 1896 0c26 02       		.uleb128 0x2
 1897 0c27 75       		.byte	0x75
 1898 0c28 00       		.sleb128 0
 1899 0c29 00       		.byte	0
 1900 0c2a 30       		.uleb128 0x30
 1901 0c2b 24000000 		.4byte	.LVL22
 1902 0c2f 110E0000 		.4byte	0xe11
 1903 0c33 520C0000 		.4byte	0xc52
 1904 0c37 2C       		.uleb128 0x2c
 1905 0c38 01       		.uleb128 0x1
 1906 0c39 51       		.byte	0x51
 1907 0c3a 02       		.uleb128 0x2
 1908 0c3b 75       		.byte	0x75
 1909 0c3c 00       		.sleb128 0
 1910 0c3d 2C       		.uleb128 0x2c
 1911 0c3e 01       		.uleb128 0x1
 1912 0c3f 52       		.byte	0x52
 1913 0c40 02       		.uleb128 0x2
 1914 0c41 76       		.byte	0x76
 1915 0c42 00       		.sleb128 0
 1916 0c43 2C       		.uleb128 0x2c
 1917 0c44 01       		.uleb128 0x1
 1918 0c45 53       		.byte	0x53
 1919 0c46 02       		.uleb128 0x2
 1920 0c47 77       		.byte	0x77
 1921 0c48 00       		.sleb128 0
 1922 0c49 2C       		.uleb128 0x2c
 1923 0c4a 02       		.uleb128 0x2
 1924 0c4b 7D       		.byte	0x7d
 1925 0c4c 00       		.sleb128 0
 1926 0c4d 03       		.uleb128 0x3
 1927 0c4e 91       		.byte	0x91
 1928 0c4f 00       		.sleb128 0
 1929 0c50 06       		.byte	0x6
 1930 0c51 00       		.byte	0
 1931 0c52 31       		.uleb128 0x31
 1932 0c53 30000000 		.4byte	.LVL24
 1933 0c57 1C0E0000 		.4byte	0xe1c
 1934 0c5b 2C       		.uleb128 0x2c
 1935 0c5c 01       		.uleb128 0x1
 1936 0c5d 50       		.byte	0x50
 1937 0c5e 02       		.uleb128 0x2
 1938 0c5f 74       		.byte	0x74
ARM GAS  /var/folders/m4/4md61f0s1_g0rzfghffqnxvr0000gn/T//cc85mpnE.s 			page 35


 1939 0c60 00       		.sleb128 0
 1940 0c61 2C       		.uleb128 0x2c
 1941 0c62 01       		.uleb128 0x1
 1942 0c63 51       		.byte	0x51
 1943 0c64 01       		.uleb128 0x1
 1944 0c65 30       		.byte	0x30
 1945 0c66 00       		.byte	0
 1946 0c67 00       		.byte	0
 1947 0c68 1F       		.uleb128 0x1f
 1948 0c69 B3010000 		.4byte	.LASF133
 1949 0c6d 01       		.byte	0x1
 1950 0c6e CE       		.byte	0xce
 1951 0c6f 57020000 		.4byte	0x257
 1952 0c73 00000000 		.4byte	.LFB234
 1953 0c77 44000000 		.4byte	.LFE234-.LFB234
 1954 0c7b 01       		.uleb128 0x1
 1955 0c7c 9C       		.byte	0x9c
 1956 0c7d B90D0000 		.4byte	0xdb9
 1957 0c81 29       		.uleb128 0x29
 1958 0c82 6D7000   		.ascii	"mp\000"
 1959 0c85 01       		.byte	0x1
 1960 0c86 CE       		.byte	0xce
 1961 0c87 B90D0000 		.4byte	0xdb9
 1962 0c8b C9010000 		.4byte	.LLST16
 1963 0c8f 2E       		.uleb128 0x2e
 1964 0c90 9F030000 		.4byte	.LASF131
 1965 0c94 01       		.byte	0x1
 1966 0c95 CE       		.byte	0xce
 1967 0c96 05010000 		.4byte	0x105
 1968 0c9a E7010000 		.4byte	.LLST17
 1969 0c9e 29       		.uleb128 0x29
 1970 0c9f 706600   		.ascii	"pf\000"
 1971 0ca2 01       		.byte	0x1
 1972 0ca3 CF       		.byte	0xcf
 1973 0ca4 07070000 		.4byte	0x707
 1974 0ca8 05020000 		.4byte	.LLST18
 1975 0cac 29       		.uleb128 0x29
 1976 0cad 61726700 		.ascii	"arg\000"
 1977 0cb1 01       		.byte	0x1
 1978 0cb2 CF       		.byte	0xcf
 1979 0cb3 34030000 		.4byte	0x334
 1980 0cb7 23020000 		.4byte	.LLST19
 1981 0cbb 2F       		.uleb128 0x2f
 1982 0cbc 77737000 		.ascii	"wsp\000"
 1983 0cc0 01       		.byte	0x1
 1984 0cc1 D0       		.byte	0xd0
 1985 0cc2 34030000 		.4byte	0x334
 1986 0cc6 41020000 		.4byte	.LLST20
 1987 0cca 2F       		.uleb128 0x2f
 1988 0ccb 747000   		.ascii	"tp\000"
 1989 0cce 01       		.byte	0x1
 1990 0ccf D1       		.byte	0xd1
 1991 0cd0 57020000 		.4byte	0x257
 1992 0cd4 54020000 		.4byte	.LLST21
 1993 0cd8 21       		.uleb128 0x21
 1994 0cd9 60040000 		.4byte	.LASF127
 1995 0cdd CF0D0000 		.4byte	0xdcf
ARM GAS  /var/folders/m4/4md61f0s1_g0rzfghffqnxvr0000gn/T//cc85mpnE.s 			page 36


 1996 0ce1 22       		.uleb128 0x22
 1997 0ce2 9D080000 		.4byte	0x89d
 1998 0ce6 14000000 		.4byte	.LBB101
 1999 0cea 06000000 		.4byte	.LBE101-.LBB101
 2000 0cee 01       		.byte	0x1
 2001 0cef E3       		.byte	0xe3
 2002 0cf0 200D0000 		.4byte	0xd20
 2003 0cf4 23       		.uleb128 0x23
 2004 0cf5 5B080000 		.4byte	0x85b
 2005 0cf9 14000000 		.4byte	.LBB102
 2006 0cfd 06000000 		.4byte	.LBE102-.LBB102
 2007 0d01 12       		.byte	0x12
 2008 0d02 5C01     		.2byte	0x15c
 2009 0d04 23       		.uleb128 0x23
 2010 0d05 41080000 		.4byte	0x841
 2011 0d09 14000000 		.4byte	.LBB103
 2012 0d0d 06000000 		.4byte	.LBE103-.LBB103
 2013 0d11 0A       		.byte	0xa
 2014 0d12 D001     		.2byte	0x1d0
 2015 0d14 24       		.uleb128 0x24
 2016 0d15 4E080000 		.4byte	0x84e
 2017 0d19 72020000 		.4byte	.LLST22
 2018 0d1d 00       		.byte	0
 2019 0d1e 00       		.byte	0
 2020 0d1f 00       		.byte	0
 2021 0d20 22       		.uleb128 0x22
 2022 0d21 6D080000 		.4byte	0x86d
 2023 0d25 36000000 		.4byte	.LBB105
 2024 0d29 06000000 		.4byte	.LBE105-.LBB105
 2025 0d2d 01       		.byte	0x1
 2026 0d2e E8       		.byte	0xe8
 2027 0d2f 6E0D0000 		.4byte	0xd6e
 2028 0d33 26       		.uleb128 0x26
 2029 0d34 36000000 		.4byte	.LBB106
 2030 0d38 06000000 		.4byte	.LBE106-.LBB106
 2031 0d3c 27       		.uleb128 0x27
 2032 0d3d 7A080000 		.4byte	0x87a
 2033 0d41 23       		.uleb128 0x23
 2034 0d42 64080000 		.4byte	0x864
 2035 0d46 36000000 		.4byte	.LBB107
 2036 0d4a 06000000 		.4byte	.LBE107-.LBB107
 2037 0d4e 12       		.byte	0x12
 2038 0d4f 7301     		.2byte	0x173
 2039 0d51 23       		.uleb128 0x23
 2040 0d52 41080000 		.4byte	0x841
 2041 0d56 36000000 		.4byte	.LBB108
 2042 0d5a 06000000 		.4byte	.LBE108-.LBB108
 2043 0d5e 0A       		.byte	0xa
 2044 0d5f E301     		.2byte	0x1e3
 2045 0d61 24       		.uleb128 0x24
 2046 0d62 4E080000 		.4byte	0x84e
 2047 0d66 87020000 		.4byte	.LLST23
 2048 0d6a 00       		.byte	0
 2049 0d6b 00       		.byte	0
 2050 0d6c 00       		.byte	0
 2051 0d6d 00       		.byte	0
 2052 0d6e 30       		.uleb128 0x30
ARM GAS  /var/folders/m4/4md61f0s1_g0rzfghffqnxvr0000gn/T//cc85mpnE.s 			page 37


 2053 0d6f 12000000 		.4byte	.LVL28
 2054 0d73 280E0000 		.4byte	0xe28
 2055 0d77 820D0000 		.4byte	0xd82
 2056 0d7b 2C       		.uleb128 0x2c
 2057 0d7c 01       		.uleb128 0x1
 2058 0d7d 50       		.byte	0x50
 2059 0d7e 02       		.uleb128 0x2
 2060 0d7f 75       		.byte	0x75
 2061 0d80 00       		.sleb128 0
 2062 0d81 00       		.byte	0
 2063 0d82 30       		.uleb128 0x30
 2064 0d83 28000000 		.4byte	.LVL31
 2065 0d87 110E0000 		.4byte	0xe11
 2066 0d8b A30D0000 		.4byte	0xda3
 2067 0d8f 2C       		.uleb128 0x2c
 2068 0d90 01       		.uleb128 0x1
 2069 0d91 52       		.byte	0x52
 2070 0d92 02       		.uleb128 0x2
 2071 0d93 76       		.byte	0x76
 2072 0d94 00       		.sleb128 0
 2073 0d95 2C       		.uleb128 0x2c
 2074 0d96 01       		.uleb128 0x1
 2075 0d97 53       		.byte	0x53
 2076 0d98 02       		.uleb128 0x2
 2077 0d99 77       		.byte	0x77
 2078 0d9a 00       		.sleb128 0
 2079 0d9b 2C       		.uleb128 0x2c
 2080 0d9c 02       		.uleb128 0x2
 2081 0d9d 7D       		.byte	0x7d
 2082 0d9e 00       		.sleb128 0
 2083 0d9f 02       		.uleb128 0x2
 2084 0da0 78       		.byte	0x78
 2085 0da1 00       		.sleb128 0
 2086 0da2 00       		.byte	0
 2087 0da3 31       		.uleb128 0x31
 2088 0da4 36000000 		.4byte	.LVL33
 2089 0da8 1C0E0000 		.4byte	0xe1c
 2090 0dac 2C       		.uleb128 0x2c
 2091 0dad 01       		.uleb128 0x1
 2092 0dae 50       		.byte	0x50
 2093 0daf 02       		.uleb128 0x2
 2094 0db0 74       		.byte	0x74
 2095 0db1 00       		.sleb128 0
 2096 0db2 2C       		.uleb128 0x2c
 2097 0db3 01       		.uleb128 0x1
 2098 0db4 51       		.byte	0x51
 2099 0db5 01       		.uleb128 0x1
 2100 0db6 30       		.byte	0x30
 2101 0db7 00       		.byte	0
 2102 0db8 00       		.byte	0
 2103 0db9 09       		.uleb128 0x9
 2104 0dba 04       		.byte	0x4
 2105 0dbb 36080000 		.4byte	0x836
 2106 0dbf 15       		.uleb128 0x15
 2107 0dc0 DB060000 		.4byte	0x6db
 2108 0dc4 CF0D0000 		.4byte	0xdcf
 2109 0dc8 16       		.uleb128 0x16
ARM GAS  /var/folders/m4/4md61f0s1_g0rzfghffqnxvr0000gn/T//cc85mpnE.s 			page 38


 2110 0dc9 6A040000 		.4byte	0x46a
 2111 0dcd 19       		.byte	0x19
 2112 0dce 00       		.byte	0
 2113 0dcf 13       		.uleb128 0x13
 2114 0dd0 BF0D0000 		.4byte	0xdbf
 2115 0dd4 32       		.uleb128 0x32
 2116 0dd5 CA000000 		.4byte	.LASF134
 2117 0dd9 13       		.byte	0x13
 2118 0dda FA06     		.2byte	0x6fa
 2119 0ddc E00D0000 		.4byte	0xde0
 2120 0de0 14       		.uleb128 0x14
 2121 0de1 AD000000 		.4byte	0xad
 2122 0de5 33       		.uleb128 0x33
 2123 0de6 636800   		.ascii	"ch\000"
 2124 0de9 08       		.byte	0x8
 2125 0dea 0902     		.2byte	0x209
 2126 0dec 03040000 		.4byte	0x403
 2127 0df0 34       		.uleb128 0x34
 2128 0df1 C6060000 		.4byte	.LASF135
 2129 0df5 C6060000 		.4byte	.LASF135
 2130 0df9 11       		.byte	0x11
 2131 0dfa 71       		.byte	0x71
 2132 0dfb 34       		.uleb128 0x34
 2133 0dfc 2A010000 		.4byte	.LASF136
 2134 0e00 2A010000 		.4byte	.LASF136
 2135 0e04 10       		.byte	0x10
 2136 0e05 68       		.byte	0x68
 2137 0e06 34       		.uleb128 0x34
 2138 0e07 80040000 		.4byte	.LASF137
 2139 0e0b 80040000 		.4byte	.LASF137
 2140 0e0f 10       		.byte	0x10
 2141 0e10 67       		.byte	0x67
 2142 0e11 34       		.uleb128 0x34
 2143 0e12 52010000 		.4byte	.LASF138
 2144 0e16 52010000 		.4byte	.LASF138
 2145 0e1a 0E       		.byte	0xe
 2146 0e1b 87       		.byte	0x87
 2147 0e1c 35       		.uleb128 0x35
 2148 0e1d 83020000 		.4byte	.LASF139
 2149 0e21 83020000 		.4byte	.LASF139
 2150 0e25 08       		.byte	0x8
 2151 0e26 1602     		.2byte	0x216
 2152 0e28 34       		.uleb128 0x34
 2153 0e29 BA060000 		.4byte	.LASF140
 2154 0e2d BA060000 		.4byte	.LASF140
 2155 0e31 11       		.byte	0x11
 2156 0e32 6F       		.byte	0x6f
 2157 0e33 00       		.byte	0
 2158              		.section	.debug_abbrev,"",%progbits
 2159              	.Ldebug_abbrev0:
 2160 0000 01       		.uleb128 0x1
 2161 0001 11       		.uleb128 0x11
 2162 0002 01       		.byte	0x1
 2163 0003 25       		.uleb128 0x25
 2164 0004 0E       		.uleb128 0xe
 2165 0005 13       		.uleb128 0x13
 2166 0006 0B       		.uleb128 0xb
ARM GAS  /var/folders/m4/4md61f0s1_g0rzfghffqnxvr0000gn/T//cc85mpnE.s 			page 39


 2167 0007 03       		.uleb128 0x3
 2168 0008 0E       		.uleb128 0xe
 2169 0009 1B       		.uleb128 0x1b
 2170 000a 0E       		.uleb128 0xe
 2171 000b 55       		.uleb128 0x55
 2172 000c 17       		.uleb128 0x17
 2173 000d 11       		.uleb128 0x11
 2174 000e 01       		.uleb128 0x1
 2175 000f 10       		.uleb128 0x10
 2176 0010 17       		.uleb128 0x17
 2177 0011 00       		.byte	0
 2178 0012 00       		.byte	0
 2179 0013 02       		.uleb128 0x2
 2180 0014 24       		.uleb128 0x24
 2181 0015 00       		.byte	0
 2182 0016 0B       		.uleb128 0xb
 2183 0017 0B       		.uleb128 0xb
 2184 0018 3E       		.uleb128 0x3e
 2185 0019 0B       		.uleb128 0xb
 2186 001a 03       		.uleb128 0x3
 2187 001b 08       		.uleb128 0x8
 2188 001c 00       		.byte	0
 2189 001d 00       		.byte	0
 2190 001e 03       		.uleb128 0x3
 2191 001f 16       		.uleb128 0x16
 2192 0020 00       		.byte	0
 2193 0021 03       		.uleb128 0x3
 2194 0022 0E       		.uleb128 0xe
 2195 0023 3A       		.uleb128 0x3a
 2196 0024 0B       		.uleb128 0xb
 2197 0025 3B       		.uleb128 0x3b
 2198 0026 0B       		.uleb128 0xb
 2199 0027 49       		.uleb128 0x49
 2200 0028 13       		.uleb128 0x13
 2201 0029 00       		.byte	0
 2202 002a 00       		.byte	0
 2203 002b 04       		.uleb128 0x4
 2204 002c 24       		.uleb128 0x24
 2205 002d 00       		.byte	0
 2206 002e 0B       		.uleb128 0xb
 2207 002f 0B       		.uleb128 0xb
 2208 0030 3E       		.uleb128 0x3e
 2209 0031 0B       		.uleb128 0xb
 2210 0032 03       		.uleb128 0x3
 2211 0033 0E       		.uleb128 0xe
 2212 0034 00       		.byte	0
 2213 0035 00       		.byte	0
 2214 0036 05       		.uleb128 0x5
 2215 0037 13       		.uleb128 0x13
 2216 0038 01       		.byte	0x1
 2217 0039 03       		.uleb128 0x3
 2218 003a 0E       		.uleb128 0xe
 2219 003b 0B       		.uleb128 0xb
 2220 003c 0B       		.uleb128 0xb
 2221 003d 3A       		.uleb128 0x3a
 2222 003e 0B       		.uleb128 0xb
 2223 003f 3B       		.uleb128 0x3b
ARM GAS  /var/folders/m4/4md61f0s1_g0rzfghffqnxvr0000gn/T//cc85mpnE.s 			page 40


 2224 0040 0B       		.uleb128 0xb
 2225 0041 01       		.uleb128 0x1
 2226 0042 13       		.uleb128 0x13
 2227 0043 00       		.byte	0
 2228 0044 00       		.byte	0
 2229 0045 06       		.uleb128 0x6
 2230 0046 0D       		.uleb128 0xd
 2231 0047 00       		.byte	0
 2232 0048 03       		.uleb128 0x3
 2233 0049 0E       		.uleb128 0xe
 2234 004a 3A       		.uleb128 0x3a
 2235 004b 0B       		.uleb128 0xb
 2236 004c 3B       		.uleb128 0x3b
 2237 004d 0B       		.uleb128 0xb
 2238 004e 49       		.uleb128 0x49
 2239 004f 13       		.uleb128 0x13
 2240 0050 38       		.uleb128 0x38
 2241 0051 0B       		.uleb128 0xb
 2242 0052 00       		.byte	0
 2243 0053 00       		.byte	0
 2244 0054 07       		.uleb128 0x7
 2245 0055 0D       		.uleb128 0xd
 2246 0056 00       		.byte	0
 2247 0057 03       		.uleb128 0x3
 2248 0058 08       		.uleb128 0x8
 2249 0059 3A       		.uleb128 0x3a
 2250 005a 0B       		.uleb128 0xb
 2251 005b 3B       		.uleb128 0x3b
 2252 005c 05       		.uleb128 0x5
 2253 005d 49       		.uleb128 0x49
 2254 005e 13       		.uleb128 0x13
 2255 005f 38       		.uleb128 0x38
 2256 0060 0B       		.uleb128 0xb
 2257 0061 00       		.byte	0
 2258 0062 00       		.byte	0
 2259 0063 08       		.uleb128 0x8
 2260 0064 0D       		.uleb128 0xd
 2261 0065 00       		.byte	0
 2262 0066 03       		.uleb128 0x3
 2263 0067 0E       		.uleb128 0xe
 2264 0068 3A       		.uleb128 0x3a
 2265 0069 0B       		.uleb128 0xb
 2266 006a 3B       		.uleb128 0x3b
 2267 006b 05       		.uleb128 0x5
 2268 006c 49       		.uleb128 0x49
 2269 006d 13       		.uleb128 0x13
 2270 006e 38       		.uleb128 0x38
 2271 006f 0B       		.uleb128 0xb
 2272 0070 00       		.byte	0
 2273 0071 00       		.byte	0
 2274 0072 09       		.uleb128 0x9
 2275 0073 0F       		.uleb128 0xf
 2276 0074 00       		.byte	0
 2277 0075 0B       		.uleb128 0xb
 2278 0076 0B       		.uleb128 0xb
 2279 0077 49       		.uleb128 0x49
 2280 0078 13       		.uleb128 0x13
ARM GAS  /var/folders/m4/4md61f0s1_g0rzfghffqnxvr0000gn/T//cc85mpnE.s 			page 41


 2281 0079 00       		.byte	0
 2282 007a 00       		.byte	0
 2283 007b 0A       		.uleb128 0xa
 2284 007c 13       		.uleb128 0x13
 2285 007d 01       		.byte	0x1
 2286 007e 03       		.uleb128 0x3
 2287 007f 0E       		.uleb128 0xe
 2288 0080 0B       		.uleb128 0xb
 2289 0081 0B       		.uleb128 0xb
 2290 0082 3A       		.uleb128 0x3a
 2291 0083 0B       		.uleb128 0xb
 2292 0084 3B       		.uleb128 0x3b
 2293 0085 05       		.uleb128 0x5
 2294 0086 01       		.uleb128 0x1
 2295 0087 13       		.uleb128 0x13
 2296 0088 00       		.byte	0
 2297 0089 00       		.byte	0
 2298 008a 0B       		.uleb128 0xb
 2299 008b 15       		.uleb128 0x15
 2300 008c 01       		.byte	0x1
 2301 008d 27       		.uleb128 0x27
 2302 008e 19       		.uleb128 0x19
 2303 008f 01       		.uleb128 0x1
 2304 0090 13       		.uleb128 0x13
 2305 0091 00       		.byte	0
 2306 0092 00       		.byte	0
 2307 0093 0C       		.uleb128 0xc
 2308 0094 05       		.uleb128 0x5
 2309 0095 00       		.byte	0
 2310 0096 49       		.uleb128 0x49
 2311 0097 13       		.uleb128 0x13
 2312 0098 00       		.byte	0
 2313 0099 00       		.byte	0
 2314 009a 0D       		.uleb128 0xd
 2315 009b 0F       		.uleb128 0xf
 2316 009c 00       		.byte	0
 2317 009d 0B       		.uleb128 0xb
 2318 009e 0B       		.uleb128 0xb
 2319 009f 00       		.byte	0
 2320 00a0 00       		.byte	0
 2321 00a1 0E       		.uleb128 0xe
 2322 00a2 13       		.uleb128 0x13
 2323 00a3 01       		.byte	0x1
 2324 00a4 03       		.uleb128 0x3
 2325 00a5 0E       		.uleb128 0xe
 2326 00a6 0B       		.uleb128 0xb
 2327 00a7 05       		.uleb128 0x5
 2328 00a8 3A       		.uleb128 0x3a
 2329 00a9 0B       		.uleb128 0xb
 2330 00aa 3B       		.uleb128 0x3b
 2331 00ab 05       		.uleb128 0x5
 2332 00ac 01       		.uleb128 0x1
 2333 00ad 13       		.uleb128 0x13
 2334 00ae 00       		.byte	0
 2335 00af 00       		.byte	0
 2336 00b0 0F       		.uleb128 0xf
 2337 00b1 0D       		.uleb128 0xd
ARM GAS  /var/folders/m4/4md61f0s1_g0rzfghffqnxvr0000gn/T//cc85mpnE.s 			page 42


 2338 00b2 00       		.byte	0
 2339 00b3 03       		.uleb128 0x3
 2340 00b4 08       		.uleb128 0x8
 2341 00b5 3A       		.uleb128 0x3a
 2342 00b6 0B       		.uleb128 0xb
 2343 00b7 3B       		.uleb128 0x3b
 2344 00b8 0B       		.uleb128 0xb
 2345 00b9 49       		.uleb128 0x49
 2346 00ba 13       		.uleb128 0x13
 2347 00bb 38       		.uleb128 0x38
 2348 00bc 0B       		.uleb128 0xb
 2349 00bd 00       		.byte	0
 2350 00be 00       		.byte	0
 2351 00bf 10       		.uleb128 0x10
 2352 00c0 13       		.uleb128 0x13
 2353 00c1 01       		.byte	0x1
 2354 00c2 0B       		.uleb128 0xb
 2355 00c3 0B       		.uleb128 0xb
 2356 00c4 3A       		.uleb128 0x3a
 2357 00c5 0B       		.uleb128 0xb
 2358 00c6 3B       		.uleb128 0x3b
 2359 00c7 0B       		.uleb128 0xb
 2360 00c8 01       		.uleb128 0x1
 2361 00c9 13       		.uleb128 0x13
 2362 00ca 00       		.byte	0
 2363 00cb 00       		.byte	0
 2364 00cc 11       		.uleb128 0x11
 2365 00cd 17       		.uleb128 0x17
 2366 00ce 01       		.byte	0x1
 2367 00cf 0B       		.uleb128 0xb
 2368 00d0 0B       		.uleb128 0xb
 2369 00d1 3A       		.uleb128 0x3a
 2370 00d2 0B       		.uleb128 0xb
 2371 00d3 3B       		.uleb128 0x3b
 2372 00d4 0B       		.uleb128 0xb
 2373 00d5 01       		.uleb128 0x1
 2374 00d6 13       		.uleb128 0x13
 2375 00d7 00       		.byte	0
 2376 00d8 00       		.byte	0
 2377 00d9 12       		.uleb128 0x12
 2378 00da 0D       		.uleb128 0xd
 2379 00db 00       		.byte	0
 2380 00dc 03       		.uleb128 0x3
 2381 00dd 0E       		.uleb128 0xe
 2382 00de 3A       		.uleb128 0x3a
 2383 00df 0B       		.uleb128 0xb
 2384 00e0 3B       		.uleb128 0x3b
 2385 00e1 05       		.uleb128 0x5
 2386 00e2 49       		.uleb128 0x49
 2387 00e3 13       		.uleb128 0x13
 2388 00e4 00       		.byte	0
 2389 00e5 00       		.byte	0
 2390 00e6 13       		.uleb128 0x13
 2391 00e7 26       		.uleb128 0x26
 2392 00e8 00       		.byte	0
 2393 00e9 49       		.uleb128 0x49
 2394 00ea 13       		.uleb128 0x13
ARM GAS  /var/folders/m4/4md61f0s1_g0rzfghffqnxvr0000gn/T//cc85mpnE.s 			page 43


 2395 00eb 00       		.byte	0
 2396 00ec 00       		.byte	0
 2397 00ed 14       		.uleb128 0x14
 2398 00ee 35       		.uleb128 0x35
 2399 00ef 00       		.byte	0
 2400 00f0 49       		.uleb128 0x49
 2401 00f1 13       		.uleb128 0x13
 2402 00f2 00       		.byte	0
 2403 00f3 00       		.byte	0
 2404 00f4 15       		.uleb128 0x15
 2405 00f5 01       		.uleb128 0x1
 2406 00f6 01       		.byte	0x1
 2407 00f7 49       		.uleb128 0x49
 2408 00f8 13       		.uleb128 0x13
 2409 00f9 01       		.uleb128 0x1
 2410 00fa 13       		.uleb128 0x13
 2411 00fb 00       		.byte	0
 2412 00fc 00       		.byte	0
 2413 00fd 16       		.uleb128 0x16
 2414 00fe 21       		.uleb128 0x21
 2415 00ff 00       		.byte	0
 2416 0100 49       		.uleb128 0x49
 2417 0101 13       		.uleb128 0x13
 2418 0102 2F       		.uleb128 0x2f
 2419 0103 0B       		.uleb128 0xb
 2420 0104 00       		.byte	0
 2421 0105 00       		.byte	0
 2422 0106 17       		.uleb128 0x17
 2423 0107 15       		.uleb128 0x15
 2424 0108 01       		.byte	0x1
 2425 0109 27       		.uleb128 0x27
 2426 010a 19       		.uleb128 0x19
 2427 010b 49       		.uleb128 0x49
 2428 010c 13       		.uleb128 0x13
 2429 010d 01       		.uleb128 0x1
 2430 010e 13       		.uleb128 0x13
 2431 010f 00       		.byte	0
 2432 0110 00       		.byte	0
 2433 0111 18       		.uleb128 0x18
 2434 0112 0D       		.uleb128 0xd
 2435 0113 00       		.byte	0
 2436 0114 03       		.uleb128 0x3
 2437 0115 0E       		.uleb128 0xe
 2438 0116 3A       		.uleb128 0x3a
 2439 0117 0B       		.uleb128 0xb
 2440 0118 3B       		.uleb128 0x3b
 2441 0119 0B       		.uleb128 0xb
 2442 011a 49       		.uleb128 0x49
 2443 011b 13       		.uleb128 0x13
 2444 011c 00       		.byte	0
 2445 011d 00       		.byte	0
 2446 011e 19       		.uleb128 0x19
 2447 011f 17       		.uleb128 0x17
 2448 0120 01       		.byte	0x1
 2449 0121 03       		.uleb128 0x3
 2450 0122 0E       		.uleb128 0xe
 2451 0123 0B       		.uleb128 0xb
ARM GAS  /var/folders/m4/4md61f0s1_g0rzfghffqnxvr0000gn/T//cc85mpnE.s 			page 44


 2452 0124 0B       		.uleb128 0xb
 2453 0125 3A       		.uleb128 0x3a
 2454 0126 0B       		.uleb128 0xb
 2455 0127 3B       		.uleb128 0x3b
 2456 0128 0B       		.uleb128 0xb
 2457 0129 01       		.uleb128 0x1
 2458 012a 13       		.uleb128 0x13
 2459 012b 00       		.byte	0
 2460 012c 00       		.byte	0
 2461 012d 1A       		.uleb128 0x1a
 2462 012e 0D       		.uleb128 0xd
 2463 012f 00       		.byte	0
 2464 0130 03       		.uleb128 0x3
 2465 0131 08       		.uleb128 0x8
 2466 0132 3A       		.uleb128 0x3a
 2467 0133 0B       		.uleb128 0xb
 2468 0134 3B       		.uleb128 0x3b
 2469 0135 0B       		.uleb128 0xb
 2470 0136 49       		.uleb128 0x49
 2471 0137 13       		.uleb128 0x13
 2472 0138 00       		.byte	0
 2473 0139 00       		.byte	0
 2474 013a 1B       		.uleb128 0x1b
 2475 013b 2E       		.uleb128 0x2e
 2476 013c 01       		.byte	0x1
 2477 013d 03       		.uleb128 0x3
 2478 013e 0E       		.uleb128 0xe
 2479 013f 3A       		.uleb128 0x3a
 2480 0140 0B       		.uleb128 0xb
 2481 0141 3B       		.uleb128 0x3b
 2482 0142 05       		.uleb128 0x5
 2483 0143 27       		.uleb128 0x27
 2484 0144 19       		.uleb128 0x19
 2485 0145 20       		.uleb128 0x20
 2486 0146 0B       		.uleb128 0xb
 2487 0147 01       		.uleb128 0x1
 2488 0148 13       		.uleb128 0x13
 2489 0149 00       		.byte	0
 2490 014a 00       		.byte	0
 2491 014b 1C       		.uleb128 0x1c
 2492 014c 05       		.uleb128 0x5
 2493 014d 00       		.byte	0
 2494 014e 03       		.uleb128 0x3
 2495 014f 0E       		.uleb128 0xe
 2496 0150 3A       		.uleb128 0x3a
 2497 0151 0B       		.uleb128 0xb
 2498 0152 3B       		.uleb128 0x3b
 2499 0153 05       		.uleb128 0x5
 2500 0154 49       		.uleb128 0x49
 2501 0155 13       		.uleb128 0x13
 2502 0156 00       		.byte	0
 2503 0157 00       		.byte	0
 2504 0158 1D       		.uleb128 0x1d
 2505 0159 2E       		.uleb128 0x2e
 2506 015a 00       		.byte	0
 2507 015b 03       		.uleb128 0x3
 2508 015c 0E       		.uleb128 0xe
ARM GAS  /var/folders/m4/4md61f0s1_g0rzfghffqnxvr0000gn/T//cc85mpnE.s 			page 45


 2509 015d 3A       		.uleb128 0x3a
 2510 015e 0B       		.uleb128 0xb
 2511 015f 3B       		.uleb128 0x3b
 2512 0160 05       		.uleb128 0x5
 2513 0161 27       		.uleb128 0x27
 2514 0162 19       		.uleb128 0x19
 2515 0163 20       		.uleb128 0x20
 2516 0164 0B       		.uleb128 0xb
 2517 0165 00       		.byte	0
 2518 0166 00       		.byte	0
 2519 0167 1E       		.uleb128 0x1e
 2520 0168 34       		.uleb128 0x34
 2521 0169 00       		.byte	0
 2522 016a 03       		.uleb128 0x3
 2523 016b 0E       		.uleb128 0xe
 2524 016c 49       		.uleb128 0x49
 2525 016d 13       		.uleb128 0x13
 2526 016e 34       		.uleb128 0x34
 2527 016f 19       		.uleb128 0x19
 2528 0170 1C       		.uleb128 0x1c
 2529 0171 0E       		.uleb128 0xe
 2530 0172 00       		.byte	0
 2531 0173 00       		.byte	0
 2532 0174 1F       		.uleb128 0x1f
 2533 0175 2E       		.uleb128 0x2e
 2534 0176 01       		.byte	0x1
 2535 0177 3F       		.uleb128 0x3f
 2536 0178 19       		.uleb128 0x19
 2537 0179 03       		.uleb128 0x3
 2538 017a 0E       		.uleb128 0xe
 2539 017b 3A       		.uleb128 0x3a
 2540 017c 0B       		.uleb128 0xb
 2541 017d 3B       		.uleb128 0x3b
 2542 017e 0B       		.uleb128 0xb
 2543 017f 27       		.uleb128 0x27
 2544 0180 19       		.uleb128 0x19
 2545 0181 49       		.uleb128 0x49
 2546 0182 13       		.uleb128 0x13
 2547 0183 11       		.uleb128 0x11
 2548 0184 01       		.uleb128 0x1
 2549 0185 12       		.uleb128 0x12
 2550 0186 06       		.uleb128 0x6
 2551 0187 40       		.uleb128 0x40
 2552 0188 18       		.uleb128 0x18
 2553 0189 9742     		.uleb128 0x2117
 2554 018b 19       		.uleb128 0x19
 2555 018c 01       		.uleb128 0x1
 2556 018d 13       		.uleb128 0x13
 2557 018e 00       		.byte	0
 2558 018f 00       		.byte	0
 2559 0190 20       		.uleb128 0x20
 2560 0191 05       		.uleb128 0x5
 2561 0192 00       		.byte	0
 2562 0193 03       		.uleb128 0x3
 2563 0194 08       		.uleb128 0x8
 2564 0195 3A       		.uleb128 0x3a
 2565 0196 0B       		.uleb128 0xb
ARM GAS  /var/folders/m4/4md61f0s1_g0rzfghffqnxvr0000gn/T//cc85mpnE.s 			page 46


 2566 0197 3B       		.uleb128 0x3b
 2567 0198 0B       		.uleb128 0xb
 2568 0199 49       		.uleb128 0x49
 2569 019a 13       		.uleb128 0x13
 2570 019b 02       		.uleb128 0x2
 2571 019c 18       		.uleb128 0x18
 2572 019d 00       		.byte	0
 2573 019e 00       		.byte	0
 2574 019f 21       		.uleb128 0x21
 2575 01a0 34       		.uleb128 0x34
 2576 01a1 00       		.byte	0
 2577 01a2 03       		.uleb128 0x3
 2578 01a3 0E       		.uleb128 0xe
 2579 01a4 49       		.uleb128 0x49
 2580 01a5 13       		.uleb128 0x13
 2581 01a6 34       		.uleb128 0x34
 2582 01a7 19       		.uleb128 0x19
 2583 01a8 00       		.byte	0
 2584 01a9 00       		.byte	0
 2585 01aa 22       		.uleb128 0x22
 2586 01ab 1D       		.uleb128 0x1d
 2587 01ac 01       		.byte	0x1
 2588 01ad 31       		.uleb128 0x31
 2589 01ae 13       		.uleb128 0x13
 2590 01af 11       		.uleb128 0x11
 2591 01b0 01       		.uleb128 0x1
 2592 01b1 12       		.uleb128 0x12
 2593 01b2 06       		.uleb128 0x6
 2594 01b3 58       		.uleb128 0x58
 2595 01b4 0B       		.uleb128 0xb
 2596 01b5 59       		.uleb128 0x59
 2597 01b6 0B       		.uleb128 0xb
 2598 01b7 01       		.uleb128 0x1
 2599 01b8 13       		.uleb128 0x13
 2600 01b9 00       		.byte	0
 2601 01ba 00       		.byte	0
 2602 01bb 23       		.uleb128 0x23
 2603 01bc 1D       		.uleb128 0x1d
 2604 01bd 01       		.byte	0x1
 2605 01be 31       		.uleb128 0x31
 2606 01bf 13       		.uleb128 0x13
 2607 01c0 11       		.uleb128 0x11
 2608 01c1 01       		.uleb128 0x1
 2609 01c2 12       		.uleb128 0x12
 2610 01c3 06       		.uleb128 0x6
 2611 01c4 58       		.uleb128 0x58
 2612 01c5 0B       		.uleb128 0xb
 2613 01c6 59       		.uleb128 0x59
 2614 01c7 05       		.uleb128 0x5
 2615 01c8 00       		.byte	0
 2616 01c9 00       		.byte	0
 2617 01ca 24       		.uleb128 0x24
 2618 01cb 05       		.uleb128 0x5
 2619 01cc 00       		.byte	0
 2620 01cd 31       		.uleb128 0x31
 2621 01ce 13       		.uleb128 0x13
 2622 01cf 02       		.uleb128 0x2
ARM GAS  /var/folders/m4/4md61f0s1_g0rzfghffqnxvr0000gn/T//cc85mpnE.s 			page 47


 2623 01d0 17       		.uleb128 0x17
 2624 01d1 00       		.byte	0
 2625 01d2 00       		.byte	0
 2626 01d3 25       		.uleb128 0x25
 2627 01d4 1D       		.uleb128 0x1d
 2628 01d5 01       		.byte	0x1
 2629 01d6 31       		.uleb128 0x31
 2630 01d7 13       		.uleb128 0x13
 2631 01d8 11       		.uleb128 0x11
 2632 01d9 01       		.uleb128 0x1
 2633 01da 12       		.uleb128 0x12
 2634 01db 06       		.uleb128 0x6
 2635 01dc 58       		.uleb128 0x58
 2636 01dd 0B       		.uleb128 0xb
 2637 01de 59       		.uleb128 0x59
 2638 01df 0B       		.uleb128 0xb
 2639 01e0 00       		.byte	0
 2640 01e1 00       		.byte	0
 2641 01e2 26       		.uleb128 0x26
 2642 01e3 0B       		.uleb128 0xb
 2643 01e4 01       		.byte	0x1
 2644 01e5 11       		.uleb128 0x11
 2645 01e6 01       		.uleb128 0x1
 2646 01e7 12       		.uleb128 0x12
 2647 01e8 06       		.uleb128 0x6
 2648 01e9 00       		.byte	0
 2649 01ea 00       		.byte	0
 2650 01eb 27       		.uleb128 0x27
 2651 01ec 34       		.uleb128 0x34
 2652 01ed 00       		.byte	0
 2653 01ee 31       		.uleb128 0x31
 2654 01ef 13       		.uleb128 0x13
 2655 01f0 00       		.byte	0
 2656 01f1 00       		.byte	0
 2657 01f2 28       		.uleb128 0x28
 2658 01f3 2E       		.uleb128 0x2e
 2659 01f4 01       		.byte	0x1
 2660 01f5 3F       		.uleb128 0x3f
 2661 01f6 19       		.uleb128 0x19
 2662 01f7 03       		.uleb128 0x3
 2663 01f8 0E       		.uleb128 0xe
 2664 01f9 3A       		.uleb128 0x3a
 2665 01fa 0B       		.uleb128 0xb
 2666 01fb 3B       		.uleb128 0x3b
 2667 01fc 0B       		.uleb128 0xb
 2668 01fd 27       		.uleb128 0x27
 2669 01fe 19       		.uleb128 0x19
 2670 01ff 11       		.uleb128 0x11
 2671 0200 01       		.uleb128 0x1
 2672 0201 12       		.uleb128 0x12
 2673 0202 06       		.uleb128 0x6
 2674 0203 40       		.uleb128 0x40
 2675 0204 18       		.uleb128 0x18
 2676 0205 9742     		.uleb128 0x2117
 2677 0207 19       		.uleb128 0x19
 2678 0208 01       		.uleb128 0x1
 2679 0209 13       		.uleb128 0x13
ARM GAS  /var/folders/m4/4md61f0s1_g0rzfghffqnxvr0000gn/T//cc85mpnE.s 			page 48


 2680 020a 00       		.byte	0
 2681 020b 00       		.byte	0
 2682 020c 29       		.uleb128 0x29
 2683 020d 05       		.uleb128 0x5
 2684 020e 00       		.byte	0
 2685 020f 03       		.uleb128 0x3
 2686 0210 08       		.uleb128 0x8
 2687 0211 3A       		.uleb128 0x3a
 2688 0212 0B       		.uleb128 0xb
 2689 0213 3B       		.uleb128 0x3b
 2690 0214 0B       		.uleb128 0xb
 2691 0215 49       		.uleb128 0x49
 2692 0216 13       		.uleb128 0x13
 2693 0217 02       		.uleb128 0x2
 2694 0218 17       		.uleb128 0x17
 2695 0219 00       		.byte	0
 2696 021a 00       		.byte	0
 2697 021b 2A       		.uleb128 0x2a
 2698 021c 34       		.uleb128 0x34
 2699 021d 00       		.byte	0
 2700 021e 03       		.uleb128 0x3
 2701 021f 0E       		.uleb128 0xe
 2702 0220 3A       		.uleb128 0x3a
 2703 0221 0B       		.uleb128 0xb
 2704 0222 3B       		.uleb128 0x3b
 2705 0223 0B       		.uleb128 0xb
 2706 0224 49       		.uleb128 0x49
 2707 0225 13       		.uleb128 0x13
 2708 0226 02       		.uleb128 0x2
 2709 0227 17       		.uleb128 0x17
 2710 0228 00       		.byte	0
 2711 0229 00       		.byte	0
 2712 022a 2B       		.uleb128 0x2b
 2713 022b 898201   		.uleb128 0x4109
 2714 022e 01       		.byte	0x1
 2715 022f 11       		.uleb128 0x11
 2716 0230 01       		.uleb128 0x1
 2717 0231 9542     		.uleb128 0x2115
 2718 0233 19       		.uleb128 0x19
 2719 0234 31       		.uleb128 0x31
 2720 0235 13       		.uleb128 0x13
 2721 0236 01       		.uleb128 0x1
 2722 0237 13       		.uleb128 0x13
 2723 0238 00       		.byte	0
 2724 0239 00       		.byte	0
 2725 023a 2C       		.uleb128 0x2c
 2726 023b 8A8201   		.uleb128 0x410a
 2727 023e 00       		.byte	0
 2728 023f 02       		.uleb128 0x2
 2729 0240 18       		.uleb128 0x18
 2730 0241 9142     		.uleb128 0x2111
 2731 0243 18       		.uleb128 0x18
 2732 0244 00       		.byte	0
 2733 0245 00       		.byte	0
 2734 0246 2D       		.uleb128 0x2d
 2735 0247 898201   		.uleb128 0x4109
 2736 024a 01       		.byte	0x1
ARM GAS  /var/folders/m4/4md61f0s1_g0rzfghffqnxvr0000gn/T//cc85mpnE.s 			page 49


 2737 024b 11       		.uleb128 0x11
 2738 024c 01       		.uleb128 0x1
 2739 024d 9542     		.uleb128 0x2115
 2740 024f 19       		.uleb128 0x19
 2741 0250 31       		.uleb128 0x31
 2742 0251 13       		.uleb128 0x13
 2743 0252 00       		.byte	0
 2744 0253 00       		.byte	0
 2745 0254 2E       		.uleb128 0x2e
 2746 0255 05       		.uleb128 0x5
 2747 0256 00       		.byte	0
 2748 0257 03       		.uleb128 0x3
 2749 0258 0E       		.uleb128 0xe
 2750 0259 3A       		.uleb128 0x3a
 2751 025a 0B       		.uleb128 0xb
 2752 025b 3B       		.uleb128 0x3b
 2753 025c 0B       		.uleb128 0xb
 2754 025d 49       		.uleb128 0x49
 2755 025e 13       		.uleb128 0x13
 2756 025f 02       		.uleb128 0x2
 2757 0260 17       		.uleb128 0x17
 2758 0261 00       		.byte	0
 2759 0262 00       		.byte	0
 2760 0263 2F       		.uleb128 0x2f
 2761 0264 34       		.uleb128 0x34
 2762 0265 00       		.byte	0
 2763 0266 03       		.uleb128 0x3
 2764 0267 08       		.uleb128 0x8
 2765 0268 3A       		.uleb128 0x3a
 2766 0269 0B       		.uleb128 0xb
 2767 026a 3B       		.uleb128 0x3b
 2768 026b 0B       		.uleb128 0xb
 2769 026c 49       		.uleb128 0x49
 2770 026d 13       		.uleb128 0x13
 2771 026e 02       		.uleb128 0x2
 2772 026f 17       		.uleb128 0x17
 2773 0270 00       		.byte	0
 2774 0271 00       		.byte	0
 2775 0272 30       		.uleb128 0x30
 2776 0273 898201   		.uleb128 0x4109
 2777 0276 01       		.byte	0x1
 2778 0277 11       		.uleb128 0x11
 2779 0278 01       		.uleb128 0x1
 2780 0279 31       		.uleb128 0x31
 2781 027a 13       		.uleb128 0x13
 2782 027b 01       		.uleb128 0x1
 2783 027c 13       		.uleb128 0x13
 2784 027d 00       		.byte	0
 2785 027e 00       		.byte	0
 2786 027f 31       		.uleb128 0x31
 2787 0280 898201   		.uleb128 0x4109
 2788 0283 01       		.byte	0x1
 2789 0284 11       		.uleb128 0x11
 2790 0285 01       		.uleb128 0x1
 2791 0286 31       		.uleb128 0x31
 2792 0287 13       		.uleb128 0x13
 2793 0288 00       		.byte	0
ARM GAS  /var/folders/m4/4md61f0s1_g0rzfghffqnxvr0000gn/T//cc85mpnE.s 			page 50


 2794 0289 00       		.byte	0
 2795 028a 32       		.uleb128 0x32
 2796 028b 34       		.uleb128 0x34
 2797 028c 00       		.byte	0
 2798 028d 03       		.uleb128 0x3
 2799 028e 0E       		.uleb128 0xe
 2800 028f 3A       		.uleb128 0x3a
 2801 0290 0B       		.uleb128 0xb
 2802 0291 3B       		.uleb128 0x3b
 2803 0292 05       		.uleb128 0x5
 2804 0293 49       		.uleb128 0x49
 2805 0294 13       		.uleb128 0x13
 2806 0295 3F       		.uleb128 0x3f
 2807 0296 19       		.uleb128 0x19
 2808 0297 3C       		.uleb128 0x3c
 2809 0298 19       		.uleb128 0x19
 2810 0299 00       		.byte	0
 2811 029a 00       		.byte	0
 2812 029b 33       		.uleb128 0x33
 2813 029c 34       		.uleb128 0x34
 2814 029d 00       		.byte	0
 2815 029e 03       		.uleb128 0x3
 2816 029f 08       		.uleb128 0x8
 2817 02a0 3A       		.uleb128 0x3a
 2818 02a1 0B       		.uleb128 0xb
 2819 02a2 3B       		.uleb128 0x3b
 2820 02a3 05       		.uleb128 0x5
 2821 02a4 49       		.uleb128 0x49
 2822 02a5 13       		.uleb128 0x13
 2823 02a6 3F       		.uleb128 0x3f
 2824 02a7 19       		.uleb128 0x19
 2825 02a8 3C       		.uleb128 0x3c
 2826 02a9 19       		.uleb128 0x19
 2827 02aa 00       		.byte	0
 2828 02ab 00       		.byte	0
 2829 02ac 34       		.uleb128 0x34
 2830 02ad 2E       		.uleb128 0x2e
 2831 02ae 00       		.byte	0
 2832 02af 3F       		.uleb128 0x3f
 2833 02b0 19       		.uleb128 0x19
 2834 02b1 3C       		.uleb128 0x3c
 2835 02b2 19       		.uleb128 0x19
 2836 02b3 6E       		.uleb128 0x6e
 2837 02b4 0E       		.uleb128 0xe
 2838 02b5 03       		.uleb128 0x3
 2839 02b6 0E       		.uleb128 0xe
 2840 02b7 3A       		.uleb128 0x3a
 2841 02b8 0B       		.uleb128 0xb
 2842 02b9 3B       		.uleb128 0x3b
 2843 02ba 0B       		.uleb128 0xb
 2844 02bb 00       		.byte	0
 2845 02bc 00       		.byte	0
 2846 02bd 35       		.uleb128 0x35
 2847 02be 2E       		.uleb128 0x2e
 2848 02bf 00       		.byte	0
 2849 02c0 3F       		.uleb128 0x3f
 2850 02c1 19       		.uleb128 0x19
ARM GAS  /var/folders/m4/4md61f0s1_g0rzfghffqnxvr0000gn/T//cc85mpnE.s 			page 51


 2851 02c2 3C       		.uleb128 0x3c
 2852 02c3 19       		.uleb128 0x19
 2853 02c4 6E       		.uleb128 0x6e
 2854 02c5 0E       		.uleb128 0xe
 2855 02c6 03       		.uleb128 0x3
 2856 02c7 0E       		.uleb128 0xe
 2857 02c8 3A       		.uleb128 0x3a
 2858 02c9 0B       		.uleb128 0xb
 2859 02ca 3B       		.uleb128 0x3b
 2860 02cb 05       		.uleb128 0x5
 2861 02cc 00       		.byte	0
 2862 02cd 00       		.byte	0
 2863 02ce 00       		.byte	0
 2864              		.section	.debug_loc,"",%progbits
 2865              	.Ldebug_loc0:
 2866              	.LLST0:
 2867 0000 00000000 		.4byte	.LVL0
 2868 0004 06000000 		.4byte	.LVL1
 2869 0008 0300     		.2byte	0x3
 2870 000a 08       		.byte	0x8
 2871 000b 20       		.byte	0x20
 2872 000c 9F       		.byte	0x9f
 2873 000d 00000000 		.4byte	0
 2874 0011 00000000 		.4byte	0
 2875              	.LLST1:
 2876 0015 0C000000 		.4byte	.LVL2
 2877 0019 12000000 		.4byte	.LVL3
 2878 001d 0200     		.2byte	0x2
 2879 001f 30       		.byte	0x30
 2880 0020 9F       		.byte	0x9f
 2881 0021 00000000 		.4byte	0
 2882 0025 00000000 		.4byte	0
 2883              	.LLST2:
 2884 0029 00000000 		.4byte	.LVL4
 2885 002d 32000000 		.4byte	.LVL11
 2886 0031 0100     		.2byte	0x1
 2887 0033 50       		.byte	0x50
 2888 0034 32000000 		.4byte	.LVL11
 2889 0038 41000000 		.4byte	.LVL14-1
 2890 003c 0100     		.2byte	0x1
 2891 003e 51       		.byte	0x51
 2892 003f 41000000 		.4byte	.LVL14-1
 2893 0043 42000000 		.4byte	.LVL14
 2894 0047 0400     		.2byte	0x4
 2895 0049 F3       		.byte	0xf3
 2896 004a 01       		.uleb128 0x1
 2897 004b 50       		.byte	0x50
 2898 004c 9F       		.byte	0x9f
 2899 004d 42000000 		.4byte	.LVL14
 2900 0051 59000000 		.4byte	.LVL17-1
 2901 0055 0100     		.2byte	0x1
 2902 0057 50       		.byte	0x50
 2903 0058 59000000 		.4byte	.LVL17-1
 2904 005c 5A000000 		.4byte	.LFE232
 2905 0060 0400     		.2byte	0x4
 2906 0062 F3       		.byte	0xf3
 2907 0063 01       		.uleb128 0x1
ARM GAS  /var/folders/m4/4md61f0s1_g0rzfghffqnxvr0000gn/T//cc85mpnE.s 			page 52


 2908 0064 50       		.byte	0x50
 2909 0065 9F       		.byte	0x9f
 2910 0066 00000000 		.4byte	0
 2911 006a 00000000 		.4byte	0
 2912              	.LLST3:
 2913 006e 0E000000 		.4byte	.LVL6
 2914 0072 1A000000 		.4byte	.LVL8
 2915 0076 0100     		.2byte	0x1
 2916 0078 53       		.byte	0x53
 2917 0079 1A000000 		.4byte	.LVL8
 2918 007d 20000000 		.4byte	.LVL10
 2919 0081 0200     		.2byte	0x2
 2920 0083 70       		.byte	0x70
 2921 0084 1E       		.sleb128 30
 2922 0085 20000000 		.4byte	.LVL10
 2923 0089 41000000 		.4byte	.LVL14-1
 2924 008d 0100     		.2byte	0x1
 2925 008f 53       		.byte	0x53
 2926 0090 42000000 		.4byte	.LVL14
 2927 0094 59000000 		.4byte	.LVL17-1
 2928 0098 0100     		.2byte	0x1
 2929 009a 53       		.byte	0x53
 2930 009b 00000000 		.4byte	0
 2931 009f 00000000 		.4byte	0
 2932              	.LLST4:
 2933 00a3 00000000 		.4byte	.LVL4
 2934 00a7 06000000 		.4byte	.LVL5
 2935 00ab 0300     		.2byte	0x3
 2936 00ad 08       		.byte	0x8
 2937 00ae 20       		.byte	0x20
 2938 00af 9F       		.byte	0x9f
 2939 00b0 00000000 		.4byte	0
 2940 00b4 00000000 		.4byte	0
 2941              	.LLST5:
 2942 00b8 18000000 		.4byte	.LVL7
 2943 00bc 1E000000 		.4byte	.LVL9
 2944 00c0 0200     		.2byte	0x2
 2945 00c2 30       		.byte	0x30
 2946 00c3 9F       		.byte	0x9f
 2947 00c4 00000000 		.4byte	0
 2948 00c8 00000000 		.4byte	0
 2949              	.LLST6:
 2950 00cc 38000000 		.4byte	.LVL12
 2951 00d0 3C000000 		.4byte	.LVL13
 2952 00d4 0200     		.2byte	0x2
 2953 00d6 30       		.byte	0x30
 2954 00d7 9F       		.byte	0x9f
 2955 00d8 00000000 		.4byte	0
 2956 00dc 00000000 		.4byte	0
 2957              	.LLST7:
 2958 00e0 4E000000 		.4byte	.LVL15
 2959 00e4 52000000 		.4byte	.LVL16
 2960 00e8 0200     		.2byte	0x2
 2961 00ea 30       		.byte	0x30
 2962 00eb 9F       		.byte	0x9f
 2963 00ec 00000000 		.4byte	0
 2964 00f0 00000000 		.4byte	0
ARM GAS  /var/folders/m4/4md61f0s1_g0rzfghffqnxvr0000gn/T//cc85mpnE.s 			page 53


 2965              	.LLST8:
 2966 00f4 00000000 		.4byte	.LVL18
 2967 00f8 0D000000 		.4byte	.LVL19-1
 2968 00fc 0100     		.2byte	0x1
 2969 00fe 50       		.byte	0x50
 2970 00ff 0D000000 		.4byte	.LVL19-1
 2971 0103 3C000000 		.4byte	.LFE233
 2972 0107 0400     		.2byte	0x4
 2973 0109 F3       		.byte	0xf3
 2974 010a 01       		.uleb128 0x1
 2975 010b 50       		.byte	0x50
 2976 010c 9F       		.byte	0x9f
 2977 010d 00000000 		.4byte	0
 2978 0111 00000000 		.4byte	0
 2979              	.LLST9:
 2980 0115 00000000 		.4byte	.LVL18
 2981 0119 0D000000 		.4byte	.LVL19-1
 2982 011d 0100     		.2byte	0x1
 2983 011f 51       		.byte	0x51
 2984 0120 0D000000 		.4byte	.LVL19-1
 2985 0124 3C000000 		.4byte	.LFE233
 2986 0128 0100     		.2byte	0x1
 2987 012a 55       		.byte	0x55
 2988 012b 00000000 		.4byte	0
 2989 012f 00000000 		.4byte	0
 2990              	.LLST10:
 2991 0133 00000000 		.4byte	.LVL18
 2992 0137 0D000000 		.4byte	.LVL19-1
 2993 013b 0100     		.2byte	0x1
 2994 013d 52       		.byte	0x52
 2995 013e 0D000000 		.4byte	.LVL19-1
 2996 0142 3C000000 		.4byte	.LFE233
 2997 0146 0100     		.2byte	0x1
 2998 0148 56       		.byte	0x56
 2999 0149 00000000 		.4byte	0
 3000 014d 00000000 		.4byte	0
 3001              	.LLST11:
 3002 0151 00000000 		.4byte	.LVL18
 3003 0155 0D000000 		.4byte	.LVL19-1
 3004 0159 0100     		.2byte	0x1
 3005 015b 53       		.byte	0x53
 3006 015c 0D000000 		.4byte	.LVL19-1
 3007 0160 3C000000 		.4byte	.LFE233
 3008 0164 0100     		.2byte	0x1
 3009 0166 57       		.byte	0x57
 3010 0167 00000000 		.4byte	0
 3011 016b 00000000 		.4byte	0
 3012              	.LLST12:
 3013 016f 0E000000 		.4byte	.LVL19
 3014 0173 23000000 		.4byte	.LVL22-1
 3015 0177 0100     		.2byte	0x1
 3016 0179 50       		.byte	0x50
 3017 017a 00000000 		.4byte	0
 3018 017e 00000000 		.4byte	0
 3019              	.LLST13:
 3020 0182 2C000000 		.4byte	.LVL23
 3021 0186 2F000000 		.4byte	.LVL24-1
ARM GAS  /var/folders/m4/4md61f0s1_g0rzfghffqnxvr0000gn/T//cc85mpnE.s 			page 54


 3022 018a 0100     		.2byte	0x1
 3023 018c 50       		.byte	0x50
 3024 018d 2F000000 		.4byte	.LVL24-1
 3025 0191 38000000 		.4byte	.LVL26
 3026 0195 0100     		.2byte	0x1
 3027 0197 54       		.byte	0x54
 3028 0198 00000000 		.4byte	0
 3029 019c 00000000 		.4byte	0
 3030              	.LLST14:
 3031 01a0 10000000 		.4byte	.LVL20
 3032 01a4 16000000 		.4byte	.LVL21
 3033 01a8 0300     		.2byte	0x3
 3034 01aa 08       		.byte	0x8
 3035 01ab 20       		.byte	0x20
 3036 01ac 9F       		.byte	0x9f
 3037 01ad 00000000 		.4byte	0
 3038 01b1 00000000 		.4byte	0
 3039              	.LLST15:
 3040 01b5 30000000 		.4byte	.LVL24
 3041 01b9 36000000 		.4byte	.LVL25
 3042 01bd 0200     		.2byte	0x2
 3043 01bf 30       		.byte	0x30
 3044 01c0 9F       		.byte	0x9f
 3045 01c1 00000000 		.4byte	0
 3046 01c5 00000000 		.4byte	0
 3047              	.LLST16:
 3048 01c9 00000000 		.4byte	.LVL27
 3049 01cd 11000000 		.4byte	.LVL28-1
 3050 01d1 0100     		.2byte	0x1
 3051 01d3 50       		.byte	0x50
 3052 01d4 11000000 		.4byte	.LVL28-1
 3053 01d8 44000000 		.4byte	.LFE234
 3054 01dc 0100     		.2byte	0x1
 3055 01de 55       		.byte	0x55
 3056 01df 00000000 		.4byte	0
 3057 01e3 00000000 		.4byte	0
 3058              	.LLST17:
 3059 01e7 00000000 		.4byte	.LVL27
 3060 01eb 11000000 		.4byte	.LVL28-1
 3061 01ef 0100     		.2byte	0x1
 3062 01f1 51       		.byte	0x51
 3063 01f2 11000000 		.4byte	.LVL28-1
 3064 01f6 44000000 		.4byte	.LFE234
 3065 01fa 0100     		.2byte	0x1
 3066 01fc 56       		.byte	0x56
 3067 01fd 00000000 		.4byte	0
 3068 0201 00000000 		.4byte	0
 3069              	.LLST18:
 3070 0205 00000000 		.4byte	.LVL27
 3071 0209 11000000 		.4byte	.LVL28-1
 3072 020d 0100     		.2byte	0x1
 3073 020f 52       		.byte	0x52
 3074 0210 11000000 		.4byte	.LVL28-1
 3075 0214 44000000 		.4byte	.LFE234
 3076 0218 0100     		.2byte	0x1
 3077 021a 57       		.byte	0x57
 3078 021b 00000000 		.4byte	0
ARM GAS  /var/folders/m4/4md61f0s1_g0rzfghffqnxvr0000gn/T//cc85mpnE.s 			page 55


 3079 021f 00000000 		.4byte	0
 3080              	.LLST19:
 3081 0223 00000000 		.4byte	.LVL27
 3082 0227 11000000 		.4byte	.LVL28-1
 3083 022b 0100     		.2byte	0x1
 3084 022d 53       		.byte	0x53
 3085 022e 11000000 		.4byte	.LVL28-1
 3086 0232 44000000 		.4byte	.LFE234
 3087 0236 0100     		.2byte	0x1
 3088 0238 58       		.byte	0x58
 3089 0239 00000000 		.4byte	0
 3090 023d 00000000 		.4byte	0
 3091              	.LLST20:
 3092 0241 12000000 		.4byte	.LVL28
 3093 0245 27000000 		.4byte	.LVL31-1
 3094 0249 0100     		.2byte	0x1
 3095 024b 50       		.byte	0x50
 3096 024c 00000000 		.4byte	0
 3097 0250 00000000 		.4byte	0
 3098              	.LLST21:
 3099 0254 32000000 		.4byte	.LVL32
 3100 0258 35000000 		.4byte	.LVL33-1
 3101 025c 0100     		.2byte	0x1
 3102 025e 50       		.byte	0x50
 3103 025f 35000000 		.4byte	.LVL33-1
 3104 0263 3E000000 		.4byte	.LVL35
 3105 0267 0100     		.2byte	0x1
 3106 0269 54       		.byte	0x54
 3107 026a 00000000 		.4byte	0
 3108 026e 00000000 		.4byte	0
 3109              	.LLST22:
 3110 0272 14000000 		.4byte	.LVL29
 3111 0276 1A000000 		.4byte	.LVL30
 3112 027a 0300     		.2byte	0x3
 3113 027c 08       		.byte	0x8
 3114 027d 20       		.byte	0x20
 3115 027e 9F       		.byte	0x9f
 3116 027f 00000000 		.4byte	0
 3117 0283 00000000 		.4byte	0
 3118              	.LLST23:
 3119 0287 36000000 		.4byte	.LVL33
 3120 028b 3C000000 		.4byte	.LVL34
 3121 028f 0200     		.2byte	0x2
 3122 0291 30       		.byte	0x30
 3123 0292 9F       		.byte	0x9f
 3124 0293 00000000 		.4byte	0
 3125 0297 00000000 		.4byte	0
 3126              		.section	.debug_aranges,"",%progbits
 3127 0000 34000000 		.4byte	0x34
 3128 0004 0200     		.2byte	0x2
 3129 0006 00000000 		.4byte	.Ldebug_info0
 3130 000a 04       		.byte	0x4
 3131 000b 00       		.byte	0
 3132 000c 0000     		.2byte	0
 3133 000e 0000     		.2byte	0
 3134 0010 00000000 		.4byte	.LFB231
 3135 0014 14000000 		.4byte	.LFE231-.LFB231
ARM GAS  /var/folders/m4/4md61f0s1_g0rzfghffqnxvr0000gn/T//cc85mpnE.s 			page 56


 3136 0018 00000000 		.4byte	.LFB232
 3137 001c 5A000000 		.4byte	.LFE232-.LFB232
 3138 0020 00000000 		.4byte	.LFB233
 3139 0024 3C000000 		.4byte	.LFE233-.LFB233
 3140 0028 00000000 		.4byte	.LFB234
 3141 002c 44000000 		.4byte	.LFE234-.LFB234
 3142 0030 00000000 		.4byte	0
 3143 0034 00000000 		.4byte	0
 3144              		.section	.debug_ranges,"",%progbits
 3145              	.Ldebug_ranges0:
 3146 0000 00000000 		.4byte	.LFB231
 3147 0004 14000000 		.4byte	.LFE231
 3148 0008 00000000 		.4byte	.LFB232
 3149 000c 5A000000 		.4byte	.LFE232
 3150 0010 00000000 		.4byte	.LFB233
 3151 0014 3C000000 		.4byte	.LFE233
 3152 0018 00000000 		.4byte	.LFB234
 3153 001c 44000000 		.4byte	.LFE234
 3154 0020 00000000 		.4byte	0
 3155 0024 00000000 		.4byte	0
 3156              		.section	.debug_line,"",%progbits
 3157              	.Ldebug_line0:
 3158 0000 20040000 		.section	.debug_str,"MS",%progbits,1
 3158      02003A03 
 3158      00000201 
 3158      FB0E0D00 
 3158      01010101 
 3159              	.LASF104:
 3160 0000 7466756E 		.ascii	"tfunc_t\000"
 3160      635F7400 
 3161              	.LASF54:
 3162 0008 72656164 		.ascii	"ready_list_t\000"
 3162      795F6C69 
 3162      73745F74 
 3162      00
 3163              	.LASF2:
 3164 0015 73697A65 		.ascii	"size_t\000"
 3164      5F7400
 3165              	.LASF89:
 3166 001c 7264796D 		.ascii	"rdymsg\000"
 3166      736700
 3167              	.LASF17:
 3168 0023 75696E74 		.ascii	"uint64_t\000"
 3168      36345F74 
 3168      00
 3169              	.LASF3:
 3170 002c 5F5F7569 		.ascii	"__uint8_t\000"
 3170      6E74385F 
 3170      7400
 3171              	.LASF86:
 3172 0036 706F7274 		.ascii	"port_intctx\000"
 3172      5F696E74 
 3172      63747800 
 3173              	.LASF73:
 3174 0042 73797374 		.ascii	"system_debug_t\000"
 3174      656D5F64 
 3174      65627567 
ARM GAS  /var/folders/m4/4md61f0s1_g0rzfghffqnxvr0000gn/T//cc85mpnE.s 			page 57


 3174      5F7400
 3175              	.LASF122:
 3176 0051 706F7274 		.ascii	"port_lock\000"
 3176      5F6C6F63 
 3176      6B00
 3177              	.LASF106:
 3178 005b 6D656D67 		.ascii	"memgetfunc_t\000"
 3178      65746675 
 3178      6E635F74 
 3178      00
 3179              	.LASF13:
 3180 0068 6C6F6E67 		.ascii	"long long unsigned int\000"
 3180      206C6F6E 
 3180      6720756E 
 3180      7369676E 
 3180      65642069 
 3181              	.LASF142:
 3182 007f 43686962 		.ascii	"ChibiOS_16.1.4/os/rt/src/chdynamic.c\000"
 3182      694F535F 
 3182      31362E31 
 3182      2E342F6F 
 3182      732F7274 
 3183              	.LASF90:
 3184 00a4 65786974 		.ascii	"exitcode\000"
 3184      636F6465 
 3184      00
 3185              	.LASF110:
 3186 00ad 685F6672 		.ascii	"h_free\000"
 3186      656500
 3187              	.LASF70:
 3188 00b4 76697274 		.ascii	"virtual_timers_list_t\000"
 3188      75616C5F 
 3188      74696D65 
 3188      72735F6C 
 3188      6973745F 
 3189              	.LASF134:
 3190 00ca 49544D5F 		.ascii	"ITM_RxBuffer\000"
 3190      52784275 
 3190      66666572 
 3190      00
 3191              	.LASF130:
 3192 00d7 68656170 		.ascii	"heapp\000"
 3192      7000
 3193              	.LASF112:
 3194 00dd 6E657874 		.ascii	"next\000"
 3194      00
 3195              	.LASF53:
 3196 00e2 63685F74 		.ascii	"ch_threads_queue\000"
 3196      68726561 
 3196      64735F71 
 3196      75657565 
 3196      00
 3197              	.LASF31:
 3198 00f3 705F7072 		.ascii	"p_prio\000"
 3198      696F00
 3199              	.LASF11:
 3200 00fa 6C6F6E67 		.ascii	"long long int\000"
ARM GAS  /var/folders/m4/4md61f0s1_g0rzfghffqnxvr0000gn/T//cc85mpnE.s 			page 58


 3200      206C6F6E 
 3200      6720696E 
 3200      7400
 3201              	.LASF1:
 3202 0108 7369676E 		.ascii	"signed char\000"
 3202      65642063 
 3202      68617200 
 3203              	.LASF111:
 3204 0114 685F6D74 		.ascii	"h_mtx\000"
 3204      7800
 3205              	.LASF47:
 3206 011a 705F6D70 		.ascii	"p_mpool\000"
 3206      6F6F6C00 
 3207              	.LASF100:
 3208 0122 6D5F7175 		.ascii	"m_queue\000"
 3208      65756500 
 3209              	.LASF136:
 3210 012a 63684865 		.ascii	"chHeapFree\000"
 3210      61704672 
 3210      656500
 3211              	.LASF79:
 3212 0135 76746C69 		.ascii	"vtlist\000"
 3212      737400
 3213              	.LASF123:
 3214 013c 706F7274 		.ascii	"port_unlock\000"
 3214      5F756E6C 
 3214      6F636B00 
 3215              	.LASF22:
 3216 0148 74736C69 		.ascii	"tslices_t\000"
 3216      6365735F 
 3216      7400
 3217              	.LASF138:
 3218 0152 63685468 		.ascii	"chThdCreateI\000"
 3218      64437265 
 3218      61746549 
 3218      00
 3219              	.LASF92:
 3220 015f 77747472 		.ascii	"wttrp\000"
 3220      7000
 3221              	.LASF77:
 3222 0165 63685F73 		.ascii	"ch_system\000"
 3222      79737465 
 3222      6D00
 3223              	.LASF8:
 3224 016f 6C6F6E67 		.ascii	"long int\000"
 3224      20696E74 
 3224      00
 3225              	.LASF129:
 3226 0178 63685468 		.ascii	"chThdCreateFromHeap\000"
 3226      64437265 
 3226      61746546 
 3226      726F6D48 
 3226      65617000 
 3227              	.LASF20:
 3228 018c 74737461 		.ascii	"tstate_t\000"
 3228      74655F74 
 3228      00
ARM GAS  /var/folders/m4/4md61f0s1_g0rzfghffqnxvr0000gn/T//cc85mpnE.s 			page 59


 3229              	.LASF107:
 3230 0195 6D656D6F 		.ascii	"memory_heap_t\000"
 3230      72795F68 
 3230      6561705F 
 3230      7400
 3231              	.LASF33:
 3232 01a3 705F6E65 		.ascii	"p_newer\000"
 3232      77657200 
 3233              	.LASF97:
 3234 01ab 735F7175 		.ascii	"s_queue\000"
 3234      65756500 
 3235              	.LASF133:
 3236 01b3 63685468 		.ascii	"chThdCreateFromMemoryPool\000"
 3236      64437265 
 3236      61746546 
 3236      726F6D4D 
 3236      656D6F72 
 3237              	.LASF59:
 3238 01cd 725F6E65 		.ascii	"r_newer\000"
 3238      77657200 
 3239              	.LASF120:
 3240 01d5 6D705F70 		.ascii	"mp_provider\000"
 3240      726F7669 
 3240      64657200 
 3241              	.LASF83:
 3242 01e1 72656761 		.ascii	"regarm_t\000"
 3242      726D5F74 
 3242      00
 3243              	.LASF66:
 3244 01ea 76745F70 		.ascii	"vt_prev\000"
 3244      72657600 
 3245              	.LASF105:
 3246 01f2 6D757465 		.ascii	"mutex_t\000"
 3246      785F7400 
 3247              	.LASF145:
 3248 01fa 76616C75 		.ascii	"value\000"
 3248      6500
 3249              	.LASF114:
 3250 0200 616C6967 		.ascii	"align\000"
 3250      6E00
 3251              	.LASF81:
 3252 0206 69646C65 		.ascii	"idle_thread_wa\000"
 3252      5F746872 
 3252      6561645F 
 3252      776100
 3253              	.LASF26:
 3254 0215 636E745F 		.ascii	"cnt_t\000"
 3254      7400
 3255              	.LASF0:
 3256 021b 756E7369 		.ascii	"unsigned int\000"
 3256      676E6564 
 3256      20696E74 
 3256      00
 3257              	.LASF65:
 3258 0228 76745F6E 		.ascii	"vt_next\000"
 3258      65787400 
 3259              	.LASF40:
ARM GAS  /var/folders/m4/4md61f0s1_g0rzfghffqnxvr0000gn/T//cc85mpnE.s 			page 60


 3260 0230 705F7469 		.ascii	"p_time\000"
 3260      6D6500
 3261              	.LASF93:
 3262 0237 77747365 		.ascii	"wtsemp\000"
 3262      6D7000
 3263              	.LASF67:
 3264 023e 76745F64 		.ascii	"vt_delta\000"
 3264      656C7461 
 3264      00
 3265              	.LASF42:
 3266 0247 705F6D73 		.ascii	"p_msgqueue\000"
 3266      67717565 
 3266      756500
 3267              	.LASF121:
 3268 0252 6D656D6F 		.ascii	"memory_pool_t\000"
 3268      72795F70 
 3268      6F6F6C5F 
 3268      7400
 3269              	.LASF98:
 3270 0260 735F636E 		.ascii	"s_cnt\000"
 3270      7400
 3271              	.LASF6:
 3272 0266 73686F72 		.ascii	"short unsigned int\000"
 3272      7420756E 
 3272      7369676E 
 3272      65642069 
 3272      6E7400
 3273              	.LASF50:
 3274 0279 63685F74 		.ascii	"ch_thread\000"
 3274      68726561 
 3274      6400
 3275              	.LASF139:
 3276 0283 63685363 		.ascii	"chSchWakeupS\000"
 3276      6857616B 
 3276      65757053 
 3276      00
 3277              	.LASF80:
 3278 0290 6D61696E 		.ascii	"mainthread\000"
 3278      74687265 
 3278      616400
 3279              	.LASF24:
 3280 029b 6D73675F 		.ascii	"msg_t\000"
 3280      7400
 3281              	.LASF143:
 3282 02a1 2F557365 		.ascii	"/Users/raphael/Documents/Projects/rESC/resc-firmwar"
 3282      72732F72 
 3282      61706861 
 3282      656C2F44 
 3282      6F63756D 
 3283 02d4 6500     		.ascii	"e\000"
 3284              	.LASF76:
 3285 02d6 63685F73 		.ascii	"ch_system_t\000"
 3285      79737465 
 3285      6D5F7400 
 3286              	.LASF19:
 3287 02e2 746D6F64 		.ascii	"tmode_t\000"
 3287      655F7400 
ARM GAS  /var/folders/m4/4md61f0s1_g0rzfghffqnxvr0000gn/T//cc85mpnE.s 			page 61


 3288              	.LASF55:
 3289 02ea 63685F72 		.ascii	"ch_ready_list\000"
 3289      65616479 
 3289      5F6C6973 
 3289      7400
 3290              	.LASF25:
 3291 02f8 6576656E 		.ascii	"eventmask_t\000"
 3291      746D6173 
 3291      6B5F7400 
 3292              	.LASF7:
 3293 0304 5F5F696E 		.ascii	"__int32_t\000"
 3293      7433325F 
 3293      7400
 3294              	.LASF128:
 3295 030e 63685468 		.ascii	"chThdAddRef\000"
 3295      64416464 
 3295      52656600 
 3296              	.LASF84:
 3297 031a 73746B61 		.ascii	"stkalign_t\000"
 3297      6C69676E 
 3297      5F7400
 3298              	.LASF41:
 3299 0325 705F7761 		.ascii	"p_waiting\000"
 3299      6974696E 
 3299      6700
 3300              	.LASF82:
 3301 032f 73697A65 		.ascii	"sizetype\000"
 3301      74797065 
 3301      00
 3302              	.LASF48:
 3303 0338 74687265 		.ascii	"thread_reference_t\000"
 3303      61645F72 
 3303      65666572 
 3303      656E6365 
 3303      5F7400
 3304              	.LASF71:
 3305 034b 63685F76 		.ascii	"ch_virtual_timers_list\000"
 3305      69727475 
 3305      616C5F74 
 3305      696D6572 
 3305      735F6C69 
 3306              	.LASF49:
 3307 0362 74687265 		.ascii	"threads_list_t\000"
 3307      6164735F 
 3307      6C697374 
 3307      5F7400
 3308              	.LASF34:
 3309 0371 705F6F6C 		.ascii	"p_older\000"
 3309      64657200 
 3310              	.LASF58:
 3311 0379 725F6374 		.ascii	"r_ctx\000"
 3311      7800
 3312              	.LASF119:
 3313 037f 6D705F6F 		.ascii	"mp_object_size\000"
 3313      626A6563 
 3313      745F7369 
 3313      7A6500
ARM GAS  /var/folders/m4/4md61f0s1_g0rzfghffqnxvr0000gn/T//cc85mpnE.s 			page 62


 3314              	.LASF88:
 3315 038e 746D5F63 		.ascii	"tm_calibration_t\000"
 3315      616C6962 
 3315      72617469 
 3315      6F6E5F74 
 3315      00
 3316              	.LASF131:
 3317 039f 7072696F 		.ascii	"prio\000"
 3317      00
 3318              	.LASF60:
 3319 03a4 725F6F6C 		.ascii	"r_older\000"
 3319      64657200 
 3320              	.LASF12:
 3321 03ac 5F5F7569 		.ascii	"__uint64_t\000"
 3321      6E743634 
 3321      5F7400
 3322              	.LASF117:
 3323 03b7 70685F6E 		.ascii	"ph_next\000"
 3323      65787400 
 3324              	.LASF21:
 3325 03bf 74726566 		.ascii	"trefs_t\000"
 3325      735F7400 
 3326              	.LASF132:
 3327 03c7 72656673 		.ascii	"refs\000"
 3327      00
 3328              	.LASF63:
 3329 03cc 76697274 		.ascii	"virtual_timer_t\000"
 3329      75616C5F 
 3329      74696D65 
 3329      725F7400 
 3330              	.LASF30:
 3331 03dc 705F7072 		.ascii	"p_prev\000"
 3331      657600
 3332              	.LASF23:
 3333 03e3 74707269 		.ascii	"tprio_t\000"
 3333      6F5F7400 
 3334              	.LASF74:
 3335 03eb 63685F73 		.ascii	"ch_system_debug\000"
 3335      79737465 
 3335      6D5F6465 
 3335      62756700 
 3336              	.LASF15:
 3337 03fb 696E7433 		.ascii	"int32_t\000"
 3337      325F7400 
 3338              	.LASF4:
 3339 0403 756E7369 		.ascii	"unsigned char\000"
 3339      676E6564 
 3339      20636861 
 3339      7200
 3340              	.LASF144:
 3341 0411 68656170 		.ascii	"heap_header\000"
 3341      5F686561 
 3341      64657200 
 3342              	.LASF45:
 3343 041d 705F6D74 		.ascii	"p_mtxlist\000"
 3343      786C6973 
 3343      7400
ARM GAS  /var/folders/m4/4md61f0s1_g0rzfghffqnxvr0000gn/T//cc85mpnE.s 			page 63


 3344              	.LASF5:
 3345 0427 73686F72 		.ascii	"short int\000"
 3345      7420696E 
 3345      7400
 3346              	.LASF36:
 3347 0431 705F7374 		.ascii	"p_state\000"
 3347      61746500 
 3348              	.LASF39:
 3349 0439 705F7072 		.ascii	"p_preempt\000"
 3349      65656D70 
 3349      7400
 3350              	.LASF57:
 3351 0443 725F7072 		.ascii	"r_prio\000"
 3351      696F00
 3352              	.LASF95:
 3353 044a 65776D61 		.ascii	"ewmask\000"
 3353      736B00
 3354              	.LASF29:
 3355 0451 705F6E65 		.ascii	"p_next\000"
 3355      787400
 3356              	.LASF37:
 3357 0458 705F666C 		.ascii	"p_flags\000"
 3357      61677300 
 3358              	.LASF127:
 3359 0460 5F5F6675 		.ascii	"__func__\000"
 3359      6E635F5F 
 3359      00
 3360              	.LASF126:
 3361 0469 63685379 		.ascii	"chSysLock\000"
 3361      734C6F63 
 3361      6B00
 3362              	.LASF146:
 3363 0473 63685468 		.ascii	"chThdRelease\000"
 3363      6452656C 
 3363      65617365 
 3363      00
 3364              	.LASF137:
 3365 0480 63684865 		.ascii	"chHeapAlloc\000"
 3365      6170416C 
 3365      6C6F6300 
 3366              	.LASF96:
 3367 048c 63685F73 		.ascii	"ch_semaphore\000"
 3367      656D6170 
 3367      686F7265 
 3367      00
 3368              	.LASF44:
 3369 0499 705F6570 		.ascii	"p_epending\000"
 3369      656E6469 
 3369      6E6700
 3370              	.LASF16:
 3371 04a4 75696E74 		.ascii	"uint32_t\000"
 3371      33325F74 
 3371      00
 3372              	.LASF94:
 3373 04ad 77746D74 		.ascii	"wtmtxp\000"
 3373      787000
 3374              	.LASF56:
ARM GAS  /var/folders/m4/4md61f0s1_g0rzfghffqnxvr0000gn/T//cc85mpnE.s 			page 64


 3375 04b4 725F7175 		.ascii	"r_queue\000"
 3375      65756500 
 3376              	.LASF51:
 3377 04bc 63685F74 		.ascii	"ch_threads_list\000"
 3377      68726561 
 3377      64735F6C 
 3377      69737400 
 3378              	.LASF113:
 3379 04cc 68656170 		.ascii	"heap\000"
 3379      00
 3380              	.LASF10:
 3381 04d1 6C6F6E67 		.ascii	"long unsigned int\000"
 3381      20756E73 
 3381      69676E65 
 3381      6420696E 
 3381      7400
 3382              	.LASF61:
 3383 04e3 725F6375 		.ascii	"r_current\000"
 3383      7272656E 
 3383      7400
 3384              	.LASF103:
 3385 04ed 63686172 		.ascii	"char\000"
 3385      00
 3386              	.LASF141:
 3387 04f2 474E5520 		.ascii	"GNU C99 5.2.1 20151202 (release) [ARM/embedded-5-br"
 3387      43393920 
 3387      352E322E 
 3387      31203230 
 3387      31353132 
 3388 0525 616E6368 		.ascii	"anch revision 231848] -mcpu=cortex-m4 -mfloat-abi=h"
 3388      20726576 
 3388      6973696F 
 3388      6E203233 
 3388      31383438 
 3389 0558 61726420 		.ascii	"ard -mfpu=fpv4-sp-d16 -mno-thumb-interwork -mthumb "
 3389      2D6D6670 
 3389      753D6670 
 3389      76342D73 
 3389      702D6431 
 3390 058b 2D676764 		.ascii	"-ggdb -O2 -std=c99 -fomit-frame-pointer -falign-fun"
 3390      62202D4F 
 3390      32202D73 
 3390      74643D63 
 3390      3939202D 
 3391 05be 6374696F 		.ascii	"ctions=16 -ffunction-sections -fdata-sections -fno-"
 3391      6E733D31 
 3391      36202D66 
 3391      66756E63 
 3391      74696F6E 
 3392 05f1 636F6D6D 		.ascii	"common\000"
 3392      6F6E00
 3393              	.LASF28:
 3394 05f8 74687265 		.ascii	"thread_t\000"
 3394      61645F74 
 3394      00
 3395              	.LASF102:
 3396 0601 6D5F6E65 		.ascii	"m_next\000"
ARM GAS  /var/folders/m4/4md61f0s1_g0rzfghffqnxvr0000gn/T//cc85mpnE.s 			page 65


 3396      787400
 3397              	.LASF27:
 3398 0608 73797374 		.ascii	"systime_t\000"
 3398      696D655F 
 3398      7400
 3399              	.LASF46:
 3400 0612 705F7265 		.ascii	"p_realprio\000"
 3400      616C7072 
 3400      696F00
 3401              	.LASF62:
 3402 061d 76746675 		.ascii	"vtfunc_t\000"
 3402      6E635F74 
 3402      00
 3403              	.LASF9:
 3404 0626 5F5F7569 		.ascii	"__uint32_t\000"
 3404      6E743332 
 3404      5F7400
 3405              	.LASF124:
 3406 0631 5F5F7365 		.ascii	"__set_BASEPRI\000"
 3406      745F4241 
 3406      53455052 
 3406      4900
 3407              	.LASF75:
 3408 063f 70616E69 		.ascii	"panic_msg\000"
 3408      635F6D73 
 3408      6700
 3409              	.LASF87:
 3410 0649 6F666673 		.ascii	"offset\000"
 3410      657400
 3411              	.LASF99:
 3412 0650 63685F6D 		.ascii	"ch_mutex\000"
 3412      75746578 
 3412      00
 3413              	.LASF118:
 3414 0659 6D705F6E 		.ascii	"mp_next\000"
 3414      65787400 
 3415              	.LASF85:
 3416 0661 636F6E74 		.ascii	"context\000"
 3416      65787400 
 3417              	.LASF64:
 3418 0669 63685F76 		.ascii	"ch_virtual_timer\000"
 3418      69727475 
 3418      616C5F74 
 3418      696D6572 
 3418      00
 3419              	.LASF18:
 3420 067a 7274636E 		.ascii	"rtcnt_t\000"
 3420      745F7400 
 3421              	.LASF69:
 3422 0682 76745F70 		.ascii	"vt_par\000"
 3422      617200
 3423              	.LASF52:
 3424 0689 74687265 		.ascii	"threads_queue_t\000"
 3424      6164735F 
 3424      71756575 
 3424      655F7400 
 3425              	.LASF116:
ARM GAS  /var/folders/m4/4md61f0s1_g0rzfghffqnxvr0000gn/T//cc85mpnE.s 			page 66


 3426 0699 706F6F6C 		.ascii	"pool_header\000"
 3426      5F686561 
 3426      64657200 
 3427              	.LASF38:
 3428 06a5 705F7265 		.ascii	"p_refs\000"
 3428      667300
 3429              	.LASF78:
 3430 06ac 726C6973 		.ascii	"rlist\000"
 3430      7400
 3431              	.LASF14:
 3432 06b2 75696E74 		.ascii	"uint8_t\000"
 3432      385F7400 
 3433              	.LASF140:
 3434 06ba 6368506F 		.ascii	"chPoolAlloc\000"
 3434      6F6C416C 
 3434      6C6F6300 
 3435              	.LASF135:
 3436 06c6 6368506F 		.ascii	"chPoolFree\000"
 3436      6F6C4672 
 3436      656500
 3437              	.LASF109:
 3438 06d1 685F7072 		.ascii	"h_provider\000"
 3438      6F766964 
 3438      657200
 3439              	.LASF91:
 3440 06dc 77746F62 		.ascii	"wtobjp\000"
 3440      6A7000
 3441              	.LASF35:
 3442 06e3 705F6E61 		.ascii	"p_name\000"
 3442      6D6500
 3443              	.LASF115:
 3444 06ea 73697A65 		.ascii	"size\000"
 3444      00
 3445              	.LASF72:
 3446 06ef 76745F73 		.ascii	"vt_systime\000"
 3446      79737469 
 3446      6D6500
 3447              	.LASF125:
 3448 06fa 63685379 		.ascii	"chSysUnlock\000"
 3448      73556E6C 
 3448      6F636B00 
 3449              	.LASF43:
 3450 0706 705F6D73 		.ascii	"p_msg\000"
 3450      6700
 3451              	.LASF101:
 3452 070c 6D5F6F77 		.ascii	"m_owner\000"
 3452      6E657200 
 3453              	.LASF32:
 3454 0714 705F6374 		.ascii	"p_ctx\000"
 3454      7800
 3455              	.LASF68:
 3456 071a 76745F66 		.ascii	"vt_func\000"
 3456      756E6300 
 3457              	.LASF108:
 3458 0722 6D656D6F 		.ascii	"memory_heap\000"
 3458      72795F68 
 3458      65617000 
ARM GAS  /var/folders/m4/4md61f0s1_g0rzfghffqnxvr0000gn/T//cc85mpnE.s 			page 67


 3459              		.ident	"GCC: (GNU Tools for ARM Embedded Processors) 5.2.1 20151202 (release) [ARM/embedded-5-bran
ARM GAS  /var/folders/m4/4md61f0s1_g0rzfghffqnxvr0000gn/T//cc85mpnE.s 			page 68


DEFINED SYMBOLS
                            *ABS*:0000000000000000 chdynamic.c
/var/folders/m4/4md61f0s1_g0rzfghffqnxvr0000gn/T//cc85mpnE.s:22     .text.chThdAddRef:0000000000000000 $t
/var/folders/m4/4md61f0s1_g0rzfghffqnxvr0000gn/T//cc85mpnE.s:28     .text.chThdAddRef:0000000000000000 chThdAddRef
/var/folders/m4/4md61f0s1_g0rzfghffqnxvr0000gn/T//cc85mpnE.s:85     .text.chThdRelease:0000000000000000 $t
/var/folders/m4/4md61f0s1_g0rzfghffqnxvr0000gn/T//cc85mpnE.s:91     .text.chThdRelease:0000000000000000 chThdRelease
/var/folders/m4/4md61f0s1_g0rzfghffqnxvr0000gn/T//cc85mpnE.s:233    .text.chThdCreateFromHeap:0000000000000000 $t
/var/folders/m4/4md61f0s1_g0rzfghffqnxvr0000gn/T//cc85mpnE.s:239    .text.chThdCreateFromHeap:0000000000000000 chThdCreateFromHeap
/var/folders/m4/4md61f0s1_g0rzfghffqnxvr0000gn/T//cc85mpnE.s:333    .text.chThdCreateFromMemoryPool:0000000000000000 $t
/var/folders/m4/4md61f0s1_g0rzfghffqnxvr0000gn/T//cc85mpnE.s:339    .text.chThdCreateFromMemoryPool:0000000000000000 chThdCreateFromMemoryPool
                     .debug_frame:0000000000000010 $d

UNDEFINED SYMBOLS
chPoolFree
chHeapFree
chHeapAlloc
chThdCreateI
chSchWakeupS
chPoolAlloc
