ARM GAS  /var/folders/m4/4md61f0s1_g0rzfghffqnxvr0000gn/T//cc85mpnE.s 			page 1


   1              		.syntax unified
   2              		.cpu cortex-m4
   3              		.eabi_attribute 27, 1
   4              		.eabi_attribute 28, 1
   5              		.fpu fpv4-sp-d16
   6              		.eabi_attribute 20, 1
   7              		.eabi_attribute 21, 1
   8              		.eabi_attribute 23, 3
   9              		.eabi_attribute 24, 1
  10              		.eabi_attribute 25, 1
  11              		.eabi_attribute 26, 1
  12              		.eabi_attribute 30, 2
  13              		.eabi_attribute 34, 1
  14              		.eabi_attribute 18, 4
  15              		.thumb
  16              		.syntax unified
  17              		.file	"chdynamic.c"
  18              		.text
  19              	.Ltext0:
  20              		.cfi_sections	.debug_frame
  21              		.section	.text.chThdAddRef,"ax",%progbits
  22              		.align	2
  23              		.p2align 4,,15
  24              		.global	chThdAddRef
  25              		.thumb
  26              		.thumb_func
  27              		.type	chThdAddRef, %function
  28              	chThdAddRef:
  29              	.LFB231:
  30              		.file 1 "ChibiOS_16.1.4/os/rt/src/chdynamic.c"
  31              		.loc 1 68 0
  32              		.cfi_startproc
  33              		@ args = 0, pretend = 0, frame = 0
  34              		@ frame_needed = 0, uses_anonymous_args = 0
  35              		@ link register save eliminated.
  36              	.LVL0:
  37              	.LBB64:
  38              	.LBB65:
  39              	.LBB66:
  40              	.LBB67:
  41              		.file 2 "ChibiOS_16.1.4/os/ext/CMSIS/include/core_cmFunc.h"
  42              		.loc 2 548 0
  43 0000 2023     		movs	r3, #32
  44              		.syntax unified
  45              	@ 548 "ChibiOS_16.1.4/os/ext/CMSIS/include/core_cmFunc.h" 1
  46 0002 83F31188 		MSR basepri, r3
  47              	@ 0 "" 2
  48              	.LVL1:
  49              		.thumb
  50              		.syntax unified
  51              	.LBE67:
  52              	.LBE66:
  53              	.LBE65:
  54              	.LBE64:
  55              		.loc 1 72 0
  56 0006 837F     		ldrb	r3, [r0, #30]	@ zero_extendqisi2
  57 0008 0133     		adds	r3, r3, #1
ARM GAS  /var/folders/m4/4md61f0s1_g0rzfghffqnxvr0000gn/T//cc85mpnE.s 			page 2


  58 000a 8377     		strb	r3, [r0, #30]
  59              	.LVL2:
  60              	.LBB68:
  61              	.LBB69:
  62              	.LBB70:
  63              	.LBB71:
  64              	.LBB72:
  65              		.loc 2 548 0
  66 000c 0023     		movs	r3, #0
  67              		.syntax unified
  68              	@ 548 "ChibiOS_16.1.4/os/ext/CMSIS/include/core_cmFunc.h" 1
  69 000e 83F31188 		MSR basepri, r3
  70              	@ 0 "" 2
  71              	.LVL3:
  72              		.thumb
  73              		.syntax unified
  74              	.LBE72:
  75              	.LBE71:
  76              	.LBE70:
  77              	.LBE69:
  78              	.LBE68:
  79              		.loc 1 76 0
  80 0012 7047     		bx	lr
  81              		.cfi_endproc
  82              	.LFE231:
  83              		.size	chThdAddRef, .-chThdAddRef
  84              		.section	.text.chThdRelease,"ax",%progbits
  85              		.align	2
  86              		.p2align 4,,15
  87              		.global	chThdRelease
  88              		.thumb
  89              		.thumb_func
  90              		.type	chThdRelease, %function
  91              	chThdRelease:
  92              	.LFB232:
  93              		.loc 1 91 0
  94              		.cfi_startproc
  95              		@ args = 0, pretend = 0, frame = 0
  96              		@ frame_needed = 0, uses_anonymous_args = 0
  97              		@ link register save eliminated.
  98              	.LVL4:
  99              	.LBB73:
 100              	.LBB74:
 101              	.LBB75:
 102              	.LBB76:
 103              		.loc 2 548 0
 104 0000 2023     		movs	r3, #32
 105              		.syntax unified
 106              	@ 548 "ChibiOS_16.1.4/os/ext/CMSIS/include/core_cmFunc.h" 1
 107 0002 83F31188 		MSR basepri, r3
 108              	@ 0 "" 2
 109              	.LVL5:
 110              		.thumb
 111              		.syntax unified
 112              	.LBE76:
 113              	.LBE75:
 114              	.LBE74:
ARM GAS  /var/folders/m4/4md61f0s1_g0rzfghffqnxvr0000gn/T//cc85mpnE.s 			page 3


 115              	.LBE73:
 116              		.loc 1 96 0
 117 0006 837F     		ldrb	r3, [r0, #30]	@ zero_extendqisi2
 118 0008 013B     		subs	r3, r3, #1
 119 000a DBB2     		uxtb	r3, r3
 120 000c 8377     		strb	r3, [r0, #30]
 121              	.LVL6:
 122              		.loc 1 102 0
 123 000e 1BB9     		cbnz	r3, .L3
 124              		.loc 1 102 0 is_stmt 0 discriminator 1
 125 0010 027F     		ldrb	r2, [r0, #28]	@ zero_extendqisi2
 126 0012 0F2A     		cmp	r2, #15
 127 0014 0146     		mov	r1, r0
 128 0016 03D0     		beq	.L8
 129              	.L3:
 130              	.LVL7:
 131              	.LBB77:
 132              	.LBB78:
 133              	.LBB79:
 134              	.LBB80:
 135              	.LBB81:
 136              		.loc 2 548 0 is_stmt 1
 137 0018 0023     		movs	r3, #0
 138              	.LVL8:
 139              		.syntax unified
 140              	@ 548 "ChibiOS_16.1.4/os/ext/CMSIS/include/core_cmFunc.h" 1
 141 001a 83F31188 		MSR basepri, r3
 142              	@ 0 "" 2
 143              	.LVL9:
 144              		.thumb
 145              		.syntax unified
 146 001e 7047     		bx	lr
 147              	.LVL10:
 148              	.L8:
 149              	.LBE81:
 150              	.LBE80:
 151              	.LBE79:
 152              	.LBE78:
 153              	.LBE77:
 154              		.loc 1 103 0
 155 0020 427F     		ldrb	r2, [r0, #29]	@ zero_extendqisi2
 156 0022 02F00302 		and	r2, r2, #3
 157 0026 012A     		cmp	r2, #1
 158 0028 0BD0     		beq	.L4
 159 002a 022A     		cmp	r2, #2
 160 002c F4D1     		bne	.L3
 161              		.loc 1 116 0
 162 002e 4269     		ldr	r2, [r0, #20]
 163 0030 0069     		ldr	r0, [r0, #16]
 164              	.LVL11:
 165 0032 1061     		str	r0, [r2, #16]
 166 0034 0869     		ldr	r0, [r1, #16]
 167 0036 4261     		str	r2, [r0, #20]
 168              	.LVL12:
 169              	.LBB82:
 170              	.LBB83:
 171              	.LBB84:
ARM GAS  /var/folders/m4/4md61f0s1_g0rzfghffqnxvr0000gn/T//cc85mpnE.s 			page 4


 172              	.LBB85:
 173              	.LBB86:
 174              		.loc 2 548 0
 175              		.syntax unified
 176              	@ 548 "ChibiOS_16.1.4/os/ext/CMSIS/include/core_cmFunc.h" 1
 177 0038 83F31188 		MSR basepri, r3
 178              	@ 0 "" 2
 179              	.LVL13:
 180              		.thumb
 181              		.syntax unified
 182              	.LBE86:
 183              	.LBE85:
 184              	.LBE84:
 185              	.LBE83:
 186              	.LBE82:
 187              		.loc 1 119 0
 188 003c 486C     		ldr	r0, [r1, #68]
 189 003e FFF7FEBF 		b	chPoolFree
 190              	.LVL14:
 191              	.L4:
 192              		.loc 1 107 0
 193 0042 4269     		ldr	r2, [r0, #20]
 194              		.loc 1 91 0
 195 0044 10B4     		push	{r4}
 196              		.cfi_def_cfa_offset 4
 197              		.cfi_offset 4, -4
 198              		.loc 1 107 0
 199 0046 0469     		ldr	r4, [r0, #16]
 200 0048 1461     		str	r4, [r2, #16]
 201 004a 0169     		ldr	r1, [r0, #16]
 202 004c 4A61     		str	r2, [r1, #20]
 203              	.LVL15:
 204              	.LBB87:
 205              	.LBB88:
 206              	.LBB89:
 207              	.LBB90:
 208              	.LBB91:
 209              		.loc 2 548 0
 210              		.syntax unified
 211              	@ 548 "ChibiOS_16.1.4/os/ext/CMSIS/include/core_cmFunc.h" 1
 212 004e 83F31188 		MSR basepri, r3
 213              	@ 0 "" 2
 214              	.LVL16:
 215              		.thumb
 216              		.syntax unified
 217              	.LBE91:
 218              	.LBE90:
 219              	.LBE89:
 220              	.LBE88:
 221              	.LBE87:
 222              		.loc 1 129 0
 223 0052 5DF8044B 		ldr	r4, [sp], #4
 224              		.cfi_restore 4
 225              		.cfi_def_cfa_offset 0
 226              		.loc 1 110 0
 227 0056 FFF7FEBF 		b	chHeapFree
 228              	.LVL17:
ARM GAS  /var/folders/m4/4md61f0s1_g0rzfghffqnxvr0000gn/T//cc85mpnE.s 			page 5


 229              		.cfi_endproc
 230              	.LFE232:
 231              		.size	chThdRelease, .-chThdRelease
 232 005a 00BF     		.section	.text.chThdCreateFromHeap,"ax",%progbits
 233              		.align	2
 234              		.p2align 4,,15
 235              		.global	chThdCreateFromHeap
 236              		.thumb
 237              		.thumb_func
 238              		.type	chThdCreateFromHeap, %function
 239              	chThdCreateFromHeap:
 240              	.LFB233:
 241              		.loc 1 155 0
 242              		.cfi_startproc
 243              		@ args = 4, pretend = 0, frame = 0
 244              		@ frame_needed = 0, uses_anonymous_args = 0
 245              	.LVL18:
 246 0000 F0B5     		push	{r4, r5, r6, r7, lr}
 247              		.cfi_def_cfa_offset 20
 248              		.cfi_offset 4, -20
 249              		.cfi_offset 5, -16
 250              		.cfi_offset 6, -12
 251              		.cfi_offset 7, -8
 252              		.cfi_offset 14, -4
 253 0002 83B0     		sub	sp, sp, #12
 254              		.cfi_def_cfa_offset 32
 255              		.loc 1 155 0
 256 0004 1646     		mov	r6, r2
 257 0006 1F46     		mov	r7, r3
 258 0008 0D46     		mov	r5, r1
 259              		.loc 1 159 0
 260 000a FFF7FEFF 		bl	chHeapAlloc
 261              	.LVL19:
 262              		.loc 1 160 0
 263 000e 98B1     		cbz	r0, .L10
 264              	.LVL20:
 265              	.LBB92:
 266              	.LBB93:
 267              	.LBB94:
 268              	.LBB95:
 269              		.loc 2 548 0
 270 0010 2023     		movs	r3, #32
 271              		.syntax unified
 272              	@ 548 "ChibiOS_16.1.4/os/ext/CMSIS/include/core_cmFunc.h" 1
 273 0012 83F31188 		MSR basepri, r3
 274              	@ 0 "" 2
 275              	.LVL21:
 276              		.thumb
 277              		.syntax unified
 278              	.LBE95:
 279              	.LBE94:
 280              	.LBE93:
 281              	.LBE92:
 282              		.loc 1 174 0
 283 0016 089B     		ldr	r3, [sp, #32]
 284 0018 0093     		str	r3, [sp]
 285 001a 3246     		mov	r2, r6
ARM GAS  /var/folders/m4/4md61f0s1_g0rzfghffqnxvr0000gn/T//cc85mpnE.s 			page 6


 286 001c 3B46     		mov	r3, r7
 287 001e 2946     		mov	r1, r5
 288 0020 FFF7FEFF 		bl	chThdCreateI
 289              	.LVL22:
 290              		.loc 1 175 0
 291 0024 0123     		movs	r3, #1
 292 0026 4377     		strb	r3, [r0, #29]
 293              		.loc 1 176 0
 294 0028 0021     		movs	r1, #0
 295              		.loc 1 174 0
 296 002a 0446     		mov	r4, r0
 297              	.LVL23:
 298              		.loc 1 176 0
 299 002c FFF7FEFF 		bl	chSchWakeupS
 300              	.LVL24:
 301              	.LBB96:
 302              	.LBB97:
 303              	.LBB98:
 304              	.LBB99:
 305              	.LBB100:
 306              		.loc 2 548 0
 307 0030 0023     		movs	r3, #0
 308              		.syntax unified
 309              	@ 548 "ChibiOS_16.1.4/os/ext/CMSIS/include/core_cmFunc.h" 1
 310 0032 83F31188 		MSR basepri, r3
 311              	@ 0 "" 2
 312              	.LVL25:
 313              		.thumb
 314              		.syntax unified
 315              	.LBE100:
 316              	.LBE99:
 317              	.LBE98:
 318              	.LBE97:
 319              	.LBE96:
 320              		.loc 1 179 0
 321 0036 2046     		mov	r0, r4
 322              	.LVL26:
 323              	.L10:
 324              		.loc 1 180 0
 325 0038 03B0     		add	sp, sp, #12
 326              		.cfi_def_cfa_offset 20
 327              		@ sp needed
 328 003a F0BD     		pop	{r4, r5, r6, r7, pc}
 329              		.cfi_endproc
 330              	.LFE233:
 331              		.size	chThdCreateFromHeap, .-chThdCreateFromHeap
 332              		.section	.text.chThdCreateFromMemoryPool,"ax",%progbits
 333              		.align	2
 334              		.p2align 4,,15
 335              		.global	chThdCreateFromMemoryPool
 336              		.thumb
 337              		.thumb_func
 338              		.type	chThdCreateFromMemoryPool, %function
 339              	chThdCreateFromMemoryPool:
 340              	.LFB234:
 341              		.loc 1 207 0
 342              		.cfi_startproc
ARM GAS  /var/folders/m4/4md61f0s1_g0rzfghffqnxvr0000gn/T//cc85mpnE.s 			page 7


 343              		@ args = 0, pretend = 0, frame = 0
 344              		@ frame_needed = 0, uses_anonymous_args = 0
 345              	.LVL27:
 346 0000 2DE9F041 		push	{r4, r5, r6, r7, r8, lr}
 347              		.cfi_def_cfa_offset 24
 348              		.cfi_offset 4, -24
 349              		.cfi_offset 5, -20
 350              		.cfi_offset 6, -16
 351              		.cfi_offset 7, -12
 352              		.cfi_offset 8, -8
 353              		.cfi_offset 14, -4
 354 0004 82B0     		sub	sp, sp, #8
 355              		.cfi_def_cfa_offset 32
 356              		.loc 1 207 0
 357 0006 0E46     		mov	r6, r1
 358 0008 1746     		mov	r7, r2
 359 000a 9846     		mov	r8, r3
 360 000c 0546     		mov	r5, r0
 361              		.loc 1 213 0
 362 000e FFF7FEFF 		bl	chPoolAlloc
 363              	.LVL28:
 364              		.loc 1 214 0
 365 0012 A0B1     		cbz	r0, .L14
 366              	.LVL29:
 367              	.LBB101:
 368              	.LBB102:
 369              	.LBB103:
 370              	.LBB104:
 371              		.loc 2 548 0
 372 0014 2023     		movs	r3, #32
 373              		.syntax unified
 374              	@ 548 "ChibiOS_16.1.4/os/ext/CMSIS/include/core_cmFunc.h" 1
 375 0016 83F31188 		MSR basepri, r3
 376              	@ 0 "" 2
 377              	.LVL30:
 378              		.thumb
 379              		.syntax unified
 380              	.LBE104:
 381              	.LBE103:
 382              	.LBE102:
 383              	.LBE101:
 384              		.loc 1 228 0
 385 001a 6968     		ldr	r1, [r5, #4]
 386 001c CDF80080 		str	r8, [sp]
 387 0020 3B46     		mov	r3, r7
 388 0022 3246     		mov	r2, r6
 389 0024 FFF7FEFF 		bl	chThdCreateI
 390              	.LVL31:
 391              		.loc 1 229 0
 392 0028 0223     		movs	r3, #2
 393 002a 4377     		strb	r3, [r0, #29]
 394              		.loc 1 230 0
 395 002c 4564     		str	r5, [r0, #68]
 396              		.loc 1 231 0
 397 002e 0021     		movs	r1, #0
 398              		.loc 1 228 0
 399 0030 0446     		mov	r4, r0
ARM GAS  /var/folders/m4/4md61f0s1_g0rzfghffqnxvr0000gn/T//cc85mpnE.s 			page 8


 400              	.LVL32:
 401              		.loc 1 231 0
 402 0032 FFF7FEFF 		bl	chSchWakeupS
 403              	.LVL33:
 404              	.LBB105:
 405              	.LBB106:
 406              	.LBB107:
 407              	.LBB108:
 408              	.LBB109:
 409              		.loc 2 548 0
 410 0036 0023     		movs	r3, #0
 411              		.syntax unified
 412              	@ 548 "ChibiOS_16.1.4/os/ext/CMSIS/include/core_cmFunc.h" 1
 413 0038 83F31188 		MSR basepri, r3
 414              	@ 0 "" 2
 415              	.LVL34:
 416              		.thumb
 417              		.syntax unified
 418              	.LBE109:
 419              	.LBE108:
 420              	.LBE107:
 421              	.LBE106:
 422              	.LBE105:
 423              		.loc 1 234 0
 424 003c 2046     		mov	r0, r4
 425              	.LVL35:
 426              	.L14:
 427              		.loc 1 235 0
 428 003e 02B0     		add	sp, sp, #8
 429              		.cfi_def_cfa_offset 24
 430              		@ sp needed
 431 0040 BDE8F081 		pop	{r4, r5, r6, r7, r8, pc}
 432              		.cfi_endproc
 433              	.LFE234:
 434              		.size	chThdCreateFromMemoryPool, .-chThdCreateFromMemoryPool
 435              		.text
 436              	.Letext0:
 437              		.file 3 "/opt/homebrew-cask/Caskroom/gcc-arm-embedded/5_2-2015q4,20151219/gcc-arm-none-eabi-5_2-20
 438              		.file 4 "/opt/homebrew-cask/Caskroom/gcc-arm-embedded/5_2-2015q4,20151219/gcc-arm-none-eabi-5_2-20
 439              		.file 5 "/opt/homebrew-cask/Caskroom/gcc-arm-embedded/5_2-2015q4,20151219/gcc-arm-none-eabi-5_2-20
 440              		.file 6 "ChibiOS_16.1.4/os/rt/ports/ARMCMx/compilers/GCC/chtypes.h"
 441              		.file 7 "ChibiOS_16.1.4/os/rt/include/chsystypes.h"
 442              		.file 8 "ChibiOS_16.1.4/os/rt/include/chschd.h"
 443              		.file 9 "ChibiOS_16.1.4/os/rt/ports/ARMCMx/chcore.h"
 444              		.file 10 "ChibiOS_16.1.4/os/rt/ports/ARMCMx/chcore_v7m.h"
 445              		.file 11 "ChibiOS_16.1.4/os/rt/include/chtm.h"
 446              		.file 12 "ChibiOS_16.1.4/os/rt/include/chsem.h"
 447              		.file 13 "ChibiOS_16.1.4/os/rt/include/chmtx.h"
 448              		.file 14 "ChibiOS_16.1.4/os/rt/include/chthreads.h"
 449              		.file 15 "ChibiOS_16.1.4/os/rt/include/chmemcore.h"
 450              		.file 16 "ChibiOS_16.1.4/os/rt/include/chheap.h"
 451              		.file 17 "ChibiOS_16.1.4/os/rt/include/chmempools.h"
 452              		.file 18 "ChibiOS_16.1.4/os/rt/include/chsys.h"
 453              		.file 19 "ChibiOS_16.1.4/os/ext/CMSIS/include/core_cm4.h"