ARM GAS  /var/folders/m4/4md61f0s1_g0rzfghffqnxvr0000gn/T//ccCjr2dC.s 			page 1


   1              		.syntax unified
   2              		.cpu cortex-m4
   3              		.eabi_attribute 27, 1
   4              		.eabi_attribute 28, 1
   5              		.fpu fpv4-sp-d16
   6              		.eabi_attribute 20, 1
   7              		.eabi_attribute 21, 1
   8              		.eabi_attribute 23, 3
   9              		.eabi_attribute 24, 1
  10              		.eabi_attribute 25, 1
  11              		.eabi_attribute 26, 1
  12              		.eabi_attribute 30, 2
  13              		.eabi_attribute 34, 1
  14              		.eabi_attribute 18, 4
  15              		.thumb
  16              		.syntax unified
  17              		.file	"chevents.c"
  18              		.text
  19              	.Ltext0:
  20              		.cfi_sections	.debug_frame
  21              		.section	.text.chEvtRegisterMaskWithFlags,"ax",%progbits
  22              		.align	2
  23              		.p2align 4,,15
  24              		.global	chEvtRegisterMaskWithFlags
  25              		.thumb
  26              		.thumb_func
  27              		.type	chEvtRegisterMaskWithFlags, %function
  28              	chEvtRegisterMaskWithFlags:
  29              	.LFB231:
  30              		.file 1 "ChibiOS_16.1.4/os/rt/src/chevents.c"
  31              		.loc 1 106 0
  32              		.cfi_startproc
  33              		@ args = 0, pretend = 0, frame = 0
  34              		@ frame_needed = 0, uses_anonymous_args = 0
  35              		@ link register save eliminated.
  36              	.LVL0:
  37 0000 30B4     		push	{r4, r5}
  38              		.cfi_def_cfa_offset 8
  39              		.cfi_offset 4, -8
  40              		.cfi_offset 5, -4
  41              	.LBB174:
  42              	.LBB175:
  43              	.LBB176:
  44              	.LBB177:
  45              		.file 2 "ChibiOS_16.1.4/os/ext/CMSIS/include/core_cmFunc.h"
  46              		.loc 2 548 0
  47 0002 2024     		movs	r4, #32
  48              		.syntax unified
  49              	@ 548 "ChibiOS_16.1.4/os/ext/CMSIS/include/core_cmFunc.h" 1
  50 0004 84F31188 		MSR basepri, r4
  51              	@ 0 "" 2
  52              	.LVL1:
  53              		.thumb
  54              		.syntax unified
  55              	.LBE177:
  56              	.LBE176:
  57              	.LBE175:
ARM GAS  /var/folders/m4/4md61f0s1_g0rzfghffqnxvr0000gn/T//ccCjr2dC.s 			page 2


  58              	.LBE174:
  59              		.loc 1 113 0
  60 0008 064D     		ldr	r5, .L3
  61              		.loc 1 111 0
  62 000a 0468     		ldr	r4, [r0]
  63              		.loc 1 113 0
  64 000c AD69     		ldr	r5, [r5, #24]
  65              		.loc 1 111 0
  66 000e 0C60     		str	r4, [r1]
  67              		.loc 1 115 0
  68 0010 0024     		movs	r4, #0
  69              		.loc 1 112 0
  70 0012 0160     		str	r1, [r0]
  71              		.loc 1 113 0
  72 0014 4D60     		str	r5, [r1, #4]
  73              		.loc 1 114 0
  74 0016 8A60     		str	r2, [r1, #8]
  75              		.loc 1 116 0
  76 0018 0B61     		str	r3, [r1, #16]
  77              	.LVL2:
  78              		.loc 1 115 0
  79 001a CC60     		str	r4, [r1, #12]
  80              	.LBB178:
  81              	.LBB179:
  82              	.LBB180:
  83              	.LBB181:
  84              	.LBB182:
  85              		.loc 2 548 0
  86              		.syntax unified
  87              	@ 548 "ChibiOS_16.1.4/os/ext/CMSIS/include/core_cmFunc.h" 1
  88 001c 84F31188 		MSR basepri, r4
  89              	@ 0 "" 2
  90              	.LVL3:
  91              		.thumb
  92              		.syntax unified
  93              	.LBE182:
  94              	.LBE181:
  95              	.LBE180:
  96              	.LBE179:
  97              	.LBE178:
  98              		.loc 1 118 0
  99 0020 30BC     		pop	{r4, r5}
 100              		.cfi_restore 5
 101              		.cfi_restore 4
 102              		.cfi_def_cfa_offset 0
 103 0022 7047     		bx	lr
 104              	.L4:
 105              		.align	2
 106              	.L3:
 107 0024 00000000 		.word	ch
 108              		.cfi_endproc
 109              	.LFE231:
 110              		.size	chEvtRegisterMaskWithFlags, .-chEvtRegisterMaskWithFlags
 111              		.section	.text.chEvtUnregister,"ax",%progbits
 112              		.align	2
 113              		.p2align 4,,15
 114              		.global	chEvtUnregister
ARM GAS  /var/folders/m4/4md61f0s1_g0rzfghffqnxvr0000gn/T//ccCjr2dC.s 			page 3


 115              		.thumb
 116              		.thumb_func
 117              		.type	chEvtUnregister, %function
 118              	chEvtUnregister:
 119              	.LFB232:
 120              		.loc 1 133 0
 121              		.cfi_startproc
 122              		@ args = 0, pretend = 0, frame = 0
 123              		@ frame_needed = 0, uses_anonymous_args = 0
 124              		@ link register save eliminated.
 125              	.LVL4:
 126              	.LBB183:
 127              	.LBB184:
 128              	.LBB185:
 129              	.LBB186:
 130              		.loc 2 548 0
 131 0000 2023     		movs	r3, #32
 132              		.syntax unified
 133              	@ 548 "ChibiOS_16.1.4/os/ext/CMSIS/include/core_cmFunc.h" 1
 134 0002 83F31188 		MSR basepri, r3
 135              	@ 0 "" 2
 136              	.LVL5:
 137              		.thumb
 138              		.syntax unified
 139              	.LBE186:
 140              	.LBE185:
 141              	.LBE184:
 142              	.LBE183:
 143              		.loc 1 139 0
 144 0006 0246     		mov	r2, r0
 145 0008 02E0     		b	.L6
 146              	.LVL6:
 147              	.L8:
 148              		.loc 1 145 0
 149 000a 8B42     		cmp	r3, r1
 150 000c 07D0     		beq	.L11
 151 000e 1A46     		mov	r2, r3
 152              	.LVL7:
 153              	.L6:
 154              		.loc 1 143 0
 155 0010 1368     		ldr	r3, [r2]
 156 0012 9842     		cmp	r0, r3
 157 0014 F9D1     		bne	.L8
 158              	.LVL8:
 159              	.LBB187:
 160              	.LBB188:
 161              	.LBB189:
 162              	.LBB190:
 163              	.LBB191:
 164              		.loc 2 548 0
 165 0016 0023     		movs	r3, #0
 166              		.syntax unified
 167              	@ 548 "ChibiOS_16.1.4/os/ext/CMSIS/include/core_cmFunc.h" 1
 168 0018 83F31188 		MSR basepri, r3
 169              	@ 0 "" 2
 170              	.LVL9:
 171              		.thumb
ARM GAS  /var/folders/m4/4md61f0s1_g0rzfghffqnxvr0000gn/T//ccCjr2dC.s 			page 4


 172              		.syntax unified
 173 001c 7047     		bx	lr
 174              	.L11:
 175              	.LBE191:
 176              	.LBE190:
 177              	.LBE189:
 178              	.LBE188:
 179              	.LBE187:
 180              		.loc 1 146 0
 181 001e 0B68     		ldr	r3, [r1]
 182 0020 1360     		str	r3, [r2]
 183              	.LVL10:
 184              	.LBB196:
 185              	.LBB195:
 186              	.LBB194:
 187              	.LBB193:
 188              	.LBB192:
 189              		.loc 2 548 0
 190 0022 0023     		movs	r3, #0
 191              		.syntax unified
 192              	@ 548 "ChibiOS_16.1.4/os/ext/CMSIS/include/core_cmFunc.h" 1
 193 0024 83F31188 		MSR basepri, r3
 194              	@ 0 "" 2
 195              	.LVL11:
 196              		.thumb
 197              		.syntax unified
 198 0028 7047     		bx	lr
 199              	.LBE192:
 200              	.LBE193:
 201              	.LBE194:
 202              	.LBE195:
 203              	.LBE196:
 204              		.cfi_endproc
 205              	.LFE232:
 206              		.size	chEvtUnregister, .-chEvtUnregister
 207 002a 00BF     		.section	.text.chEvtGetAndClearEvents,"ax",%progbits
 208              		.align	2
 209              		.p2align 4,,15
 210              		.global	chEvtGetAndClearEvents
 211              		.thumb
 212              		.thumb_func
 213              		.type	chEvtGetAndClearEvents, %function
 214              	chEvtGetAndClearEvents:
 215              	.LFB233:
 216              		.loc 1 162 0
 217              		.cfi_startproc
 218              		@ args = 0, pretend = 0, frame = 0
 219              		@ frame_needed = 0, uses_anonymous_args = 0
 220              		@ link register save eliminated.
 221              	.LVL12:
 222              	.LBB197:
 223              	.LBB198:
 224              	.LBB199:
 225              	.LBB200:
 226              		.loc 2 548 0
 227 0000 2023     		movs	r3, #32
 228              		.syntax unified
ARM GAS  /var/folders/m4/4md61f0s1_g0rzfghffqnxvr0000gn/T//ccCjr2dC.s 			page 5


 229              	@ 548 "ChibiOS_16.1.4/os/ext/CMSIS/include/core_cmFunc.h" 1
 230 0002 83F31188 		MSR basepri, r3
 231              	@ 0 "" 2
 232              	.LVL13:
 233              		.thumb
 234              		.syntax unified
 235              	.LBE200:
 236              	.LBE199:
 237              	.LBE198:
 238              	.LBE197:
 239              		.loc 1 166 0
 240 0006 054B     		ldr	r3, .L13
 241 0008 9A69     		ldr	r2, [r3, #24]
 242 000a 936B     		ldr	r3, [r2, #56]
 243              	.LVL14:
 244              		.loc 1 167 0
 245 000c 23EA0001 		bic	r1, r3, r0
 246 0010 9163     		str	r1, [r2, #56]
 247              	.LVL15:
 248              	.LBB201:
 249              	.LBB202:
 250              	.LBB203:
 251              	.LBB204:
 252              	.LBB205:
 253              		.loc 2 548 0
 254 0012 0022     		movs	r2, #0
 255              		.syntax unified
 256              	@ 548 "ChibiOS_16.1.4/os/ext/CMSIS/include/core_cmFunc.h" 1
 257 0014 82F31188 		MSR basepri, r2
 258              	@ 0 "" 2
 259              	.LVL16:
 260              		.thumb
 261              		.syntax unified
 262              	.LBE205:
 263              	.LBE204:
 264              	.LBE203:
 265              	.LBE202:
 266              	.LBE201:
 267              		.loc 1 171 0
 268 0018 1840     		ands	r0, r0, r3
 269              	.LVL17:
 270 001a 7047     		bx	lr
 271              	.L14:
 272              		.align	2
 273              	.L13:
 274 001c 00000000 		.word	ch
 275              		.cfi_endproc
 276              	.LFE233:
 277              		.size	chEvtGetAndClearEvents, .-chEvtGetAndClearEvents
 278              		.section	.text.chEvtAddEvents,"ax",%progbits
 279              		.align	2
 280              		.p2align 4,,15
 281              		.global	chEvtAddEvents
 282              		.thumb
 283              		.thumb_func
 284              		.type	chEvtAddEvents, %function
 285              	chEvtAddEvents:
ARM GAS  /var/folders/m4/4md61f0s1_g0rzfghffqnxvr0000gn/T//ccCjr2dC.s 			page 6


 286              	.LFB234:
 287              		.loc 1 182 0
 288              		.cfi_startproc
 289              		@ args = 0, pretend = 0, frame = 0
 290              		@ frame_needed = 0, uses_anonymous_args = 0
 291              		@ link register save eliminated.
 292              	.LVL18:
 293              	.LBB206:
 294              	.LBB207:
 295              	.LBB208:
 296              	.LBB209:
 297              		.loc 2 548 0
 298 0000 2023     		movs	r3, #32
 299              		.syntax unified
 300              	@ 548 "ChibiOS_16.1.4/os/ext/CMSIS/include/core_cmFunc.h" 1
 301 0002 83F31188 		MSR basepri, r3
 302              	@ 0 "" 2
 303              	.LVL19:
 304              		.thumb
 305              		.syntax unified
 306              	.LBE209:
 307              	.LBE208:
 308              	.LBE207:
 309              	.LBE206:
 310              		.loc 1 185 0
 311 0006 044B     		ldr	r3, .L16
 312 0008 9A69     		ldr	r2, [r3, #24]
 313 000a 936B     		ldr	r3, [r2, #56]
 314 000c 1843     		orrs	r0, r0, r3
 315              	.LVL20:
 316 000e 9063     		str	r0, [r2, #56]
 317              	.LVL21:
 318              	.LBB210:
 319              	.LBB211:
 320              	.LBB212:
 321              	.LBB213:
 322              	.LBB214:
 323              		.loc 2 548 0
 324 0010 0023     		movs	r3, #0
 325              		.syntax unified
 326              	@ 548 "ChibiOS_16.1.4/os/ext/CMSIS/include/core_cmFunc.h" 1
 327 0012 83F31188 		MSR basepri, r3
 328              	@ 0 "" 2
 329              	.LVL22:
 330              		.thumb
 331              		.syntax unified
 332              	.LBE214:
 333              	.LBE213:
 334              	.LBE212:
 335              	.LBE211:
 336              	.LBE210:
 337              		.loc 1 190 0
 338 0016 7047     		bx	lr
 339              	.L17:
 340              		.align	2
 341              	.L16:
 342 0018 00000000 		.word	ch
ARM GAS  /var/folders/m4/4md61f0s1_g0rzfghffqnxvr0000gn/T//ccCjr2dC.s 			page 7


 343              		.cfi_endproc
 344              	.LFE234:
 345              		.size	chEvtAddEvents, .-chEvtAddEvents
 346              		.section	.text.chEvtGetAndClearFlags,"ax",%progbits
 347              		.align	2
 348              		.p2align 4,,15
 349              		.global	chEvtGetAndClearFlags
 350              		.thumb
 351              		.thumb_func
 352              		.type	chEvtGetAndClearFlags, %function
 353              	chEvtGetAndClearFlags:
 354              	.LFB236:
 355              		.loc 1 241 0
 356              		.cfi_startproc
 357              		@ args = 0, pretend = 0, frame = 0
 358              		@ frame_needed = 0, uses_anonymous_args = 0
 359              		@ link register save eliminated.
 360              	.LVL23:
 361              		.loc 1 241 0
 362 0000 0246     		mov	r2, r0
 363              	.LBB215:
 364              	.LBB216:
 365              	.LBB217:
 366              	.LBB218:
 367              		.loc 2 548 0
 368 0002 2023     		movs	r3, #32
 369              		.syntax unified
 370              	@ 548 "ChibiOS_16.1.4/os/ext/CMSIS/include/core_cmFunc.h" 1
 371 0004 83F31188 		MSR basepri, r3
 372              	@ 0 "" 2
 373              	.LVL24:
 374              		.thumb
 375              		.syntax unified
 376              	.LBE218:
 377              	.LBE217:
 378              	.LBE216:
 379              	.LBE215:
 380              		.loc 1 246 0
 381 0008 0023     		movs	r3, #0
 382              		.loc 1 245 0
 383 000a C068     		ldr	r0, [r0, #12]
 384              	.LVL25:
 385              		.loc 1 246 0
 386 000c D360     		str	r3, [r2, #12]
 387              	.LVL26:
 388              	.LBB219:
 389              	.LBB220:
 390              	.LBB221:
 391              	.LBB222:
 392              	.LBB223:
 393              		.loc 2 548 0
 394              		.syntax unified
 395              	@ 548 "ChibiOS_16.1.4/os/ext/CMSIS/include/core_cmFunc.h" 1
 396 000e 83F31188 		MSR basepri, r3
 397              	@ 0 "" 2
 398              	.LVL27:
 399              		.thumb
ARM GAS  /var/folders/m4/4md61f0s1_g0rzfghffqnxvr0000gn/T//ccCjr2dC.s 			page 8


 400              		.syntax unified
 401              	.LBE223:
 402              	.LBE222:
 403              	.LBE221:
 404              	.LBE220:
 405              	.LBE219:
 406              		.loc 1 250 0
 407 0012 7047     		bx	lr
 408              		.cfi_endproc
 409              	.LFE236:
 410              		.size	chEvtGetAndClearFlags, .-chEvtGetAndClearFlags
 411              		.section	.text.chEvtSignalI,"ax",%progbits
 412              		.align	2
 413              		.p2align 4,,15
 414              		.global	chEvtSignalI
 415              		.thumb
 416              		.thumb_func
 417              		.type	chEvtSignalI, %function
 418              	chEvtSignalI:
 419              	.LFB238:
 420              		.loc 1 282 0
 421              		.cfi_startproc
 422              		@ args = 0, pretend = 0, frame = 0
 423              		@ frame_needed = 0, uses_anonymous_args = 0
 424              		@ link register save eliminated.
 425              	.LVL28:
 426              		.loc 1 287 0
 427 0000 836B     		ldr	r3, [r0, #56]
 428              		.loc 1 289 0
 429 0002 027F     		ldrb	r2, [r0, #28]	@ zero_extendqisi2
 430              		.loc 1 287 0
 431 0004 1943     		orrs	r1, r1, r3
 432              	.LVL29:
 433              		.loc 1 289 0
 434 0006 0A2A     		cmp	r2, #10
 435              		.loc 1 287 0
 436 0008 8163     		str	r1, [r0, #56]
 437              		.loc 1 289 0
 438 000a 09D0     		beq	.L23
 439              		.loc 1 290 0
 440 000c 0B2A     		cmp	r2, #11
 441 000e 00D0     		beq	.L24
 442              	.L19:
 443 0010 7047     		bx	lr
 444              	.L24:
 445              		.loc 1 292 0
 446 0012 436A     		ldr	r3, [r0, #36]
 447              		.loc 1 291 0
 448 0014 8B43     		bics	r3, r3, r1
 449 0016 FBD1     		bne	.L19
 450              	.L21:
 451              		.loc 1 293 0
 452 0018 0023     		movs	r3, #0
 453 001a 4362     		str	r3, [r0, #36]
 454              		.loc 1 294 0
 455 001c FFF7FEBF 		b	chSchReadyI
 456              	.LVL30:
ARM GAS  /var/folders/m4/4md61f0s1_g0rzfghffqnxvr0000gn/T//ccCjr2dC.s 			page 9


 457              	.L23:
 458              		.loc 1 289 0 discriminator 1
 459 0020 436A     		ldr	r3, [r0, #36]
 460 0022 1942     		tst	r1, r3
 461 0024 F8D1     		bne	.L21
 462 0026 7047     		bx	lr
 463              		.cfi_endproc
 464              	.LFE238:
 465              		.size	chEvtSignalI, .-chEvtSignalI
 466              		.section	.text.chEvtBroadcastFlagsI,"ax",%progbits
 467              		.align	2
 468              		.p2align 4,,15
 469              		.global	chEvtBroadcastFlagsI
 470              		.thumb
 471              		.thumb_func
 472              		.type	chEvtBroadcastFlagsI, %function
 473              	chEvtBroadcastFlagsI:
 474              	.LFB235:
 475              		.loc 1 209 0
 476              		.cfi_startproc
 477              		@ args = 0, pretend = 0, frame = 0
 478              		@ frame_needed = 0, uses_anonymous_args = 0
 479              	.LVL31:
 480 0000 70B5     		push	{r4, r5, r6, lr}
 481              		.cfi_def_cfa_offset 16
 482              		.cfi_offset 4, -16
 483              		.cfi_offset 5, -12
 484              		.cfi_offset 6, -8
 485              		.cfi_offset 14, -4
 486              		.loc 1 215 0
 487 0002 0468     		ldr	r4, [r0]
 488              	.LVL32:
 489              		.loc 1 217 0
 490 0004 A042     		cmp	r0, r4
 491 0006 0FD0     		beq	.L25
 492 0008 0646     		mov	r6, r0
 493 000a 0D46     		mov	r5, r1
 494              	.LVL33:
 495              	.L29:
 496              		.loc 1 219 0
 497 000c E368     		ldr	r3, [r4, #12]
 498 000e 2B43     		orrs	r3, r3, r5
 499 0010 E360     		str	r3, [r4, #12]
 500              		.loc 1 222 0
 501 0012 15B1     		cbz	r5, .L27
 502              		.loc 1 222 0 is_stmt 0 discriminator 1
 503 0014 2269     		ldr	r2, [r4, #16]
 504 0016 1342     		tst	r3, r2
 505 0018 03D0     		beq	.L28
 506              	.L27:
 507              		.loc 1 224 0 is_stmt 1
 508 001a A168     		ldr	r1, [r4, #8]
 509 001c 6068     		ldr	r0, [r4, #4]
 510 001e FFF7FEFF 		bl	chEvtSignalI
 511              	.LVL34:
 512              	.L28:
 513              		.loc 1 226 0
ARM GAS  /var/folders/m4/4md61f0s1_g0rzfghffqnxvr0000gn/T//ccCjr2dC.s 			page 10


 514 0022 2468     		ldr	r4, [r4]
 515              	.LVL35:
 516              		.loc 1 217 0
 517 0024 A642     		cmp	r6, r4
 518 0026 F1D1     		bne	.L29
 519              	.LVL36:
 520              	.L25:
 521 0028 70BD     		pop	{r4, r5, r6, pc}
 522              		.cfi_endproc
 523              	.LFE235:
 524              		.size	chEvtBroadcastFlagsI, .-chEvtBroadcastFlagsI
 525 002a 00BF     		.section	.text.chEvtSignal,"ax",%progbits
 526              		.align	2
 527              		.p2align 4,,15
 528              		.global	chEvtSignal
 529              		.thumb
 530              		.thumb_func
 531              		.type	chEvtSignal, %function
 532              	chEvtSignal:
 533              	.LFB237:
 534              		.loc 1 260 0
 535              		.cfi_startproc
 536              		@ args = 0, pretend = 0, frame = 0
 537              		@ frame_needed = 0, uses_anonymous_args = 0
 538              	.LVL37:
 539 0000 08B5     		push	{r3, lr}
 540              		.cfi_def_cfa_offset 8
 541              		.cfi_offset 3, -8
 542              		.cfi_offset 14, -4
 543              	.LBB224:
 544              	.LBB225:
 545              	.LBB226:
 546              	.LBB227:
 547              		.loc 2 548 0
 548 0002 2023     		movs	r3, #32
 549              		.syntax unified
 550              	@ 548 "ChibiOS_16.1.4/os/ext/CMSIS/include/core_cmFunc.h" 1
 551 0004 83F31188 		MSR basepri, r3
 552              	@ 0 "" 2
 553              	.LVL38:
 554              		.thumb
 555              		.syntax unified
 556              	.LBE227:
 557              	.LBE226:
 558              	.LBE225:
 559              	.LBE224:
 560              		.loc 1 265 0
 561 0008 FFF7FEFF 		bl	chEvtSignalI
 562              	.LVL39:
 563              		.loc 1 266 0
 564 000c FFF7FEFF 		bl	chSchRescheduleS
 565              	.LVL40:
 566              	.LBB228:
 567              	.LBB229:
 568              	.LBB230:
 569              	.LBB231:
 570              	.LBB232:
ARM GAS  /var/folders/m4/4md61f0s1_g0rzfghffqnxvr0000gn/T//ccCjr2dC.s 			page 11


 571              		.loc 2 548 0
 572 0010 0023     		movs	r3, #0
 573              		.syntax unified
 574              	@ 548 "ChibiOS_16.1.4/os/ext/CMSIS/include/core_cmFunc.h" 1
 575 0012 83F31188 		MSR basepri, r3
 576              	@ 0 "" 2
 577              	.LVL41:
 578              		.thumb
 579              		.syntax unified
 580 0016 08BD     		pop	{r3, pc}
 581              	.LBE232:
 582              	.LBE231:
 583              	.LBE230:
 584              	.LBE229:
 585              	.LBE228:
 586              		.cfi_endproc
 587              	.LFE237:
 588              		.size	chEvtSignal, .-chEvtSignal
 589              		.section	.text.chEvtBroadcastFlags,"ax",%progbits
 590              		.align	2
 591              		.p2align 4,,15
 592              		.global	chEvtBroadcastFlags
 593              		.thumb
 594              		.thumb_func
 595              		.type	chEvtBroadcastFlags, %function
 596              	chEvtBroadcastFlags:
 597              	.LFB239:
 598              		.loc 1 311 0
 599              		.cfi_startproc
 600              		@ args = 0, pretend = 0, frame = 0
 601              		@ frame_needed = 0, uses_anonymous_args = 0
 602              	.LVL42:
 603 0000 08B5     		push	{r3, lr}
 604              		.cfi_def_cfa_offset 8
 605              		.cfi_offset 3, -8
 606              		.cfi_offset 14, -4
 607              	.LBB233:
 608              	.LBB234:
 609              	.LBB235:
 610              	.LBB236:
 611              		.loc 2 548 0
 612 0002 2023     		movs	r3, #32
 613              		.syntax unified
 614              	@ 548 "ChibiOS_16.1.4/os/ext/CMSIS/include/core_cmFunc.h" 1
 615 0004 83F31188 		MSR basepri, r3
 616              	@ 0 "" 2
 617              	.LVL43:
 618              		.thumb
 619              		.syntax unified
 620              	.LBE236:
 621              	.LBE235:
 622              	.LBE234:
 623              	.LBE233:
 624              		.loc 1 314 0
 625 0008 FFF7FEFF 		bl	chEvtBroadcastFlagsI
 626              	.LVL44:
 627              		.loc 1 315 0
ARM GAS  /var/folders/m4/4md61f0s1_g0rzfghffqnxvr0000gn/T//ccCjr2dC.s 			page 12


 628 000c FFF7FEFF 		bl	chSchRescheduleS
 629              	.LVL45:
 630              	.LBB237:
 631              	.LBB238:
 632              	.LBB239:
 633              	.LBB240:
 634              	.LBB241:
 635              		.loc 2 548 0
 636 0010 0023     		movs	r3, #0
 637              		.syntax unified
 638              	@ 548 "ChibiOS_16.1.4/os/ext/CMSIS/include/core_cmFunc.h" 1
 639 0012 83F31188 		MSR basepri, r3
 640              	@ 0 "" 2
 641              	.LVL46:
 642              		.thumb
 643              		.syntax unified
 644 0016 08BD     		pop	{r3, pc}
 645              	.LBE241:
 646              	.LBE240:
 647              	.LBE239:
 648              	.LBE238:
 649              	.LBE237:
 650              		.cfi_endproc
 651              	.LFE239:
 652              		.size	chEvtBroadcastFlags, .-chEvtBroadcastFlags
 653              		.section	.text.chEvtGetAndClearFlagsI,"ax",%progbits
 654              		.align	2
 655              		.p2align 4,,15
 656              		.global	chEvtGetAndClearFlagsI
 657              		.thumb
 658              		.thumb_func
 659              		.type	chEvtGetAndClearFlagsI, %function
 660              	chEvtGetAndClearFlagsI:
 661              	.LFB240:
 662              		.loc 1 330 0
 663              		.cfi_startproc
 664              		@ args = 0, pretend = 0, frame = 0
 665              		@ frame_needed = 0, uses_anonymous_args = 0
 666              		@ link register save eliminated.
 667              	.LVL47:
 668              		.loc 1 330 0
 669 0000 0346     		mov	r3, r0
 670              		.loc 1 334 0
 671 0002 0022     		movs	r2, #0
 672              		.loc 1 333 0
 673 0004 C068     		ldr	r0, [r0, #12]
 674              	.LVL48:
 675              		.loc 1 334 0
 676 0006 DA60     		str	r2, [r3, #12]
 677              		.loc 1 337 0
 678 0008 7047     		bx	lr
 679              		.cfi_endproc
 680              	.LFE240:
 681              		.size	chEvtGetAndClearFlagsI, .-chEvtGetAndClearFlagsI
 682 000a 00BF     		.section	.text.chEvtDispatch,"ax",%progbits
 683              		.align	2
 684              		.p2align 4,,15
ARM GAS  /var/folders/m4/4md61f0s1_g0rzfghffqnxvr0000gn/T//ccCjr2dC.s 			page 13


 685              		.global	chEvtDispatch
 686              		.thumb
 687              		.thumb_func
 688              		.type	chEvtDispatch, %function
 689              	chEvtDispatch:
 690              	.LFB241:
 691              		.loc 1 348 0
 692              		.cfi_startproc
 693              		@ args = 0, pretend = 0, frame = 0
 694              		@ frame_needed = 0, uses_anonymous_args = 0
 695              	.LVL49:
 696              		.loc 1 354 0
 697 0000 C9B1     		cbz	r1, .L53
 698              		.loc 1 348 0
 699 0002 F8B5     		push	{r3, r4, r5, r6, r7, lr}
 700              		.cfi_def_cfa_offset 24
 701              		.cfi_offset 3, -24
 702              		.cfi_offset 4, -20
 703              		.cfi_offset 5, -16
 704              		.cfi_offset 6, -12
 705              		.cfi_offset 7, -8
 706              		.cfi_offset 14, -4
 707 0004 0646     		mov	r6, r0
 708 0006 0D46     		mov	r5, r1
 709              		.loc 1 354 0
 710 0008 0024     		movs	r4, #0
 711              		.loc 1 357 0
 712 000a 0127     		movs	r7, #1
 713              	.LVL50:
 714              	.L46:
 715              		.loc 1 355 0
 716 000c 25FA04F3 		lsr	r3, r5, r4
 717 0010 DB07     		lsls	r3, r3, #31
 718 0012 04D4     		bmi	.L54
 719              	.L47:
 720              		.loc 1 360 0
 721 0014 0134     		adds	r4, r4, #1
 722              	.LVL51:
 723              		.loc 1 355 0
 724 0016 25FA04F3 		lsr	r3, r5, r4
 725 001a DB07     		lsls	r3, r3, #31
 726 001c FAD5     		bpl	.L47
 727              	.L54:
 728              		.loc 1 357 0
 729 001e 07FA04F3 		lsl	r3, r7, r4
 730              		.loc 1 358 0
 731 0022 2046     		mov	r0, r4
 732              		.loc 1 357 0
 733 0024 25EA0305 		bic	r5, r5, r3
 734              	.LVL52:
 735              		.loc 1 358 0
 736 0028 56F82430 		ldr	r3, [r6, r4, lsl #2]
 737 002c 9847     		blx	r3
 738              	.LVL53:
 739              		.loc 1 360 0
 740 002e 0134     		adds	r4, r4, #1
 741              	.LVL54:
ARM GAS  /var/folders/m4/4md61f0s1_g0rzfghffqnxvr0000gn/T//ccCjr2dC.s 			page 14


 742              		.loc 1 354 0
 743 0030 002D     		cmp	r5, #0
 744 0032 EBD1     		bne	.L46
 745 0034 F8BD     		pop	{r3, r4, r5, r6, r7, pc}
 746              	.LVL55:
 747              	.L53:
 748              		.cfi_def_cfa_offset 0
 749              		.cfi_restore 3
 750              		.cfi_restore 4
 751              		.cfi_restore 5
 752              		.cfi_restore 6
 753              		.cfi_restore 7
 754              		.cfi_restore 14
 755 0036 7047     		bx	lr
 756              		.cfi_endproc
 757              	.LFE241:
 758              		.size	chEvtDispatch, .-chEvtDispatch
 759              		.section	.text.chEvtWaitOne,"ax",%progbits
 760              		.align	2
 761              		.p2align 4,,15
 762              		.global	chEvtWaitOne
 763              		.thumb
 764              		.thumb_func
 765              		.type	chEvtWaitOne, %function
 766              	chEvtWaitOne:
 767              	.LFB242:
 768              		.loc 1 383 0
 769              		.cfi_startproc
 770              		@ args = 0, pretend = 0, frame = 0
 771              		@ frame_needed = 0, uses_anonymous_args = 0
 772              	.LVL56:
 773 0000 38B5     		push	{r3, r4, r5, lr}
 774              		.cfi_def_cfa_offset 16
 775              		.cfi_offset 3, -16
 776              		.cfi_offset 4, -12
 777              		.cfi_offset 5, -8
 778              		.cfi_offset 14, -4
 779              		.loc 1 384 0
 780 0002 0D4B     		ldr	r3, .L58
 781 0004 9D69     		ldr	r5, [r3, #24]
 782              	.LVL57:
 783              	.LBB242:
 784              	.LBB243:
 785              	.LBB244:
 786              	.LBB245:
 787              		.loc 2 548 0
 788 0006 2023     		movs	r3, #32
 789              		.syntax unified
 790              	@ 548 "ChibiOS_16.1.4/os/ext/CMSIS/include/core_cmFunc.h" 1
 791 0008 83F31188 		MSR basepri, r3
 792              	@ 0 "" 2
 793              	.LVL58:
 794              		.thumb
 795              		.syntax unified
 796              	.LBE245:
 797              	.LBE244:
 798              	.LBE243:
ARM GAS  /var/folders/m4/4md61f0s1_g0rzfghffqnxvr0000gn/T//ccCjr2dC.s 			page 15


 799              	.LBE242:
 800              		.loc 1 388 0
 801 000c AB6B     		ldr	r3, [r5, #56]
 802              	.LVL59:
 803              		.loc 1 389 0
 804 000e 13EA0004 		ands	r4, r3, r0
 805              	.LVL60:
 806 0012 06D1     		bne	.L56
 807 0014 0446     		mov	r4, r0
 808              	.LVL61:
 809              		.loc 1 390 0
 810 0016 6862     		str	r0, [r5, #36]
 811              		.loc 1 391 0
 812 0018 0A20     		movs	r0, #10
 813              	.LVL62:
 814 001a FFF7FEFF 		bl	chSchGoSleepS
 815              	.LVL63:
 816              		.loc 1 392 0
 817 001e AB6B     		ldr	r3, [r5, #56]
 818 0020 1C40     		ands	r4, r4, r3
 819              	.LVL64:
 820              	.L56:
 821              		.loc 1 394 0
 822 0022 6242     		negs	r2, r4
 823 0024 04EA0200 		and	r0, r4, r2
 824              	.LVL65:
 825              		.loc 1 395 0
 826 0028 23EA0003 		bic	r3, r3, r0
 827 002c AB63     		str	r3, [r5, #56]
 828              	.LVL66:
 829              	.LBB246:
 830              	.LBB247:
 831              	.LBB248:
 832              	.LBB249:
 833              	.LBB250:
 834              		.loc 2 548 0
 835 002e 0023     		movs	r3, #0
 836              		.syntax unified
 837              	@ 548 "ChibiOS_16.1.4/os/ext/CMSIS/include/core_cmFunc.h" 1
 838 0030 83F31188 		MSR basepri, r3
 839              	@ 0 "" 2
 840              	.LVL67:
 841              		.thumb
 842              		.syntax unified
 843              	.LBE250:
 844              	.LBE249:
 845              	.LBE248:
 846              	.LBE247:
 847              	.LBE246:
 848              		.loc 1 399 0
 849 0034 38BD     		pop	{r3, r4, r5, pc}
 850              	.LVL68:
 851              	.L59:
 852 0036 00BF     		.align	2
 853              	.L58:
 854 0038 00000000 		.word	ch
 855              		.cfi_endproc
ARM GAS  /var/folders/m4/4md61f0s1_g0rzfghffqnxvr0000gn/T//ccCjr2dC.s 			page 16


 856              	.LFE242:
 857              		.size	chEvtWaitOne, .-chEvtWaitOne
 858              		.section	.text.chEvtWaitAny,"ax",%progbits
 859              		.align	2
 860              		.p2align 4,,15
 861              		.global	chEvtWaitAny
 862              		.thumb
 863              		.thumb_func
 864              		.type	chEvtWaitAny, %function
 865              	chEvtWaitAny:
 866              	.LFB243:
 867              		.loc 1 413 0
 868              		.cfi_startproc
 869              		@ args = 0, pretend = 0, frame = 0
 870              		@ frame_needed = 0, uses_anonymous_args = 0
 871              	.LVL69:
 872 0000 38B5     		push	{r3, r4, r5, lr}
 873              		.cfi_def_cfa_offset 16
 874              		.cfi_offset 3, -16
 875              		.cfi_offset 4, -12
 876              		.cfi_offset 5, -8
 877              		.cfi_offset 14, -4
 878              		.loc 1 414 0
 879 0002 0C4B     		ldr	r3, .L63
 880 0004 9D69     		ldr	r5, [r3, #24]
 881              	.LVL70:
 882              	.LBB251:
 883              	.LBB252:
 884              	.LBB253:
 885              	.LBB254:
 886              		.loc 2 548 0
 887 0006 2023     		movs	r3, #32
 888              		.syntax unified
 889              	@ 548 "ChibiOS_16.1.4/os/ext/CMSIS/include/core_cmFunc.h" 1
 890 0008 83F31188 		MSR basepri, r3
 891              	@ 0 "" 2
 892              	.LVL71:
 893              		.thumb
 894              		.syntax unified
 895              	.LBE254:
 896              	.LBE253:
 897              	.LBE252:
 898              	.LBE251:
 899              		.loc 1 418 0
 900 000c AB6B     		ldr	r3, [r5, #56]
 901              	.LVL72:
 902              		.loc 1 419 0
 903 000e 13EA0004 		ands	r4, r3, r0
 904              	.LVL73:
 905 0012 06D1     		bne	.L61
 906 0014 0446     		mov	r4, r0
 907              	.LVL74:
 908              		.loc 1 420 0
 909 0016 6862     		str	r0, [r5, #36]
 910              		.loc 1 421 0
 911 0018 0A20     		movs	r0, #10
 912              	.LVL75:
ARM GAS  /var/folders/m4/4md61f0s1_g0rzfghffqnxvr0000gn/T//ccCjr2dC.s 			page 17


 913 001a FFF7FEFF 		bl	chSchGoSleepS
 914              	.LVL76:
 915              		.loc 1 422 0
 916 001e AB6B     		ldr	r3, [r5, #56]
 917 0020 1C40     		ands	r4, r4, r3
 918              	.LVL77:
 919              	.L61:
 920              		.loc 1 424 0
 921 0022 23EA0403 		bic	r3, r3, r4
 922 0026 AB63     		str	r3, [r5, #56]
 923              	.LVL78:
 924              	.LBB255:
 925              	.LBB256:
 926              	.LBB257:
 927              	.LBB258:
 928              	.LBB259:
 929              		.loc 2 548 0
 930 0028 0023     		movs	r3, #0
 931              		.syntax unified
 932              	@ 548 "ChibiOS_16.1.4/os/ext/CMSIS/include/core_cmFunc.h" 1
 933 002a 83F31188 		MSR basepri, r3
 934              	@ 0 "" 2
 935              	.LVL79:
 936              		.thumb
 937              		.syntax unified
 938              	.LBE259:
 939              	.LBE258:
 940              	.LBE257:
 941              	.LBE256:
 942              	.LBE255:
 943              		.loc 1 428 0
 944 002e 2046     		mov	r0, r4
 945 0030 38BD     		pop	{r3, r4, r5, pc}
 946              	.LVL80:
 947              	.L64:
 948 0032 00BF     		.align	2
 949              	.L63:
 950 0034 00000000 		.word	ch
 951              		.cfi_endproc
 952              	.LFE243:
 953              		.size	chEvtWaitAny, .-chEvtWaitAny
 954              		.section	.text.chEvtWaitAll,"ax",%progbits
 955              		.align	2
 956              		.p2align 4,,15
 957              		.global	chEvtWaitAll
 958              		.thumb
 959              		.thumb_func
 960              		.type	chEvtWaitAll, %function
 961              	chEvtWaitAll:
 962              	.LFB244:
 963              		.loc 1 441 0
 964              		.cfi_startproc
 965              		@ args = 0, pretend = 0, frame = 0
 966              		@ frame_needed = 0, uses_anonymous_args = 0
 967              	.LVL81:
 968 0000 38B5     		push	{r3, r4, r5, lr}
 969              		.cfi_def_cfa_offset 16
ARM GAS  /var/folders/m4/4md61f0s1_g0rzfghffqnxvr0000gn/T//ccCjr2dC.s 			page 18


 970              		.cfi_offset 3, -16
 971              		.cfi_offset 4, -12
 972              		.cfi_offset 5, -8
 973              		.cfi_offset 14, -4
 974              		.loc 1 442 0
 975 0002 0B4B     		ldr	r3, .L68
 976              		.loc 1 441 0
 977 0004 0446     		mov	r4, r0
 978              		.loc 1 442 0
 979 0006 9D69     		ldr	r5, [r3, #24]
 980              	.LVL82:
 981              	.LBB260:
 982              	.LBB261:
 983              	.LBB262:
 984              	.LBB263:
 985              		.loc 2 548 0
 986 0008 2023     		movs	r3, #32
 987              		.syntax unified
 988              	@ 548 "ChibiOS_16.1.4/os/ext/CMSIS/include/core_cmFunc.h" 1
 989 000a 83F31188 		MSR basepri, r3
 990              	@ 0 "" 2
 991              	.LVL83:
 992              		.thumb
 993              		.syntax unified
 994              	.LBE263:
 995              	.LBE262:
 996              	.LBE261:
 997              	.LBE260:
 998              		.loc 1 445 0
 999 000e AB6B     		ldr	r3, [r5, #56]
 1000 0010 30EA0302 		bics	r2, r0, r3
 1001 0014 04D0     		beq	.L66
 1002              		.loc 1 446 0
 1003 0016 6862     		str	r0, [r5, #36]
 1004              		.loc 1 447 0
 1005 0018 0B20     		movs	r0, #11
 1006              	.LVL84:
 1007 001a FFF7FEFF 		bl	chSchGoSleepS
 1008              	.LVL85:
 1009 001e AB6B     		ldr	r3, [r5, #56]
 1010              	.L66:
 1011              		.loc 1 449 0
 1012 0020 23EA0403 		bic	r3, r3, r4
 1013 0024 AB63     		str	r3, [r5, #56]
 1014              	.LVL86:
 1015              	.LBB264:
 1016              	.LBB265:
 1017              	.LBB266:
 1018              	.LBB267:
 1019              	.LBB268:
 1020              		.loc 2 548 0
 1021 0026 0023     		movs	r3, #0
 1022              		.syntax unified
 1023              	@ 548 "ChibiOS_16.1.4/os/ext/CMSIS/include/core_cmFunc.h" 1
 1024 0028 83F31188 		MSR basepri, r3
 1025              	@ 0 "" 2
 1026              	.LVL87:
ARM GAS  /var/folders/m4/4md61f0s1_g0rzfghffqnxvr0000gn/T//ccCjr2dC.s 			page 19


 1027              		.thumb
 1028              		.syntax unified
 1029              	.LBE268:
 1030              	.LBE267:
 1031              	.LBE266:
 1032              	.LBE265:
 1033              	.LBE264:
 1034              		.loc 1 453 0
 1035 002c 2046     		mov	r0, r4
 1036 002e 38BD     		pop	{r3, r4, r5, pc}
 1037              	.LVL88:
 1038              	.L69:
 1039              		.align	2
 1040              	.L68:
 1041 0030 00000000 		.word	ch
 1042              		.cfi_endproc
 1043              	.LFE244:
 1044              		.size	chEvtWaitAll, .-chEvtWaitAll
 1045              		.section	.text.chEvtWaitOneTimeout,"ax",%progbits
 1046              		.align	2
 1047              		.p2align 4,,15
 1048              		.global	chEvtWaitOneTimeout
 1049              		.thumb
 1050              		.thumb_func
 1051              		.type	chEvtWaitOneTimeout, %function
 1052              	chEvtWaitOneTimeout:
 1053              	.LFB245:
 1054              		.loc 1 479 0
 1055              		.cfi_startproc
 1056              		@ args = 0, pretend = 0, frame = 0
 1057              		@ frame_needed = 0, uses_anonymous_args = 0
 1058              	.LVL89:
 1059              		.loc 1 480 0
 1060 0000 124B     		ldr	r3, .L77
 1061              		.loc 1 479 0
 1062 0002 70B5     		push	{r4, r5, r6, lr}
 1063              		.cfi_def_cfa_offset 16
 1064              		.cfi_offset 4, -16
 1065              		.cfi_offset 5, -12
 1066              		.cfi_offset 6, -8
 1067              		.cfi_offset 14, -4
 1068              	.LBB269:
 1069              	.LBB270:
 1070              	.LBB271:
 1071              	.LBB272:
 1072              		.loc 2 548 0
 1073 0004 2022     		movs	r2, #32
 1074              	.LBE272:
 1075              	.LBE271:
 1076              	.LBE270:
 1077              	.LBE269:
 1078              		.loc 1 480 0
 1079 0006 9D69     		ldr	r5, [r3, #24]
 1080              	.LVL90:
 1081              	.LBB276:
 1082              	.LBB275:
 1083              	.LBB274:
ARM GAS  /var/folders/m4/4md61f0s1_g0rzfghffqnxvr0000gn/T//ccCjr2dC.s 			page 20


 1084              	.LBB273:
 1085              		.loc 2 548 0
 1086              		.syntax unified
 1087              	@ 548 "ChibiOS_16.1.4/os/ext/CMSIS/include/core_cmFunc.h" 1
 1088 0008 82F31188 		MSR basepri, r2
 1089              	@ 0 "" 2
 1090              	.LVL91:
 1091              		.thumb
 1092              		.syntax unified
 1093              	.LBE273:
 1094              	.LBE274:
 1095              	.LBE275:
 1096              	.LBE276:
 1097              		.loc 1 484 0
 1098 000c AA6B     		ldr	r2, [r5, #56]
 1099              	.LVL92:
 1100              		.loc 1 485 0
 1101 000e 12EA0006 		ands	r6, r2, r0
 1102              	.LVL93:
 1103 0012 0ED1     		bne	.L71
 1104              		.loc 1 486 0
 1105 0014 19B9     		cbnz	r1, .L72
 1106              	.LVL94:
 1107              	.LBB277:
 1108              	.LBB278:
 1109              	.LBB279:
 1110              	.LBB280:
 1111              	.LBB281:
 1112              		.loc 2 548 0
 1113              		.syntax unified
 1114              	@ 548 "ChibiOS_16.1.4/os/ext/CMSIS/include/core_cmFunc.h" 1
 1115 0016 81F31188 		MSR basepri, r1
 1116              	@ 0 "" 2
 1117              	.LVL95:
 1118              		.thumb
 1119              		.syntax unified
 1120              	.LBE281:
 1121              	.LBE280:
 1122              	.LBE279:
 1123              	.LBE278:
 1124              	.LBE277:
 1125              		.loc 1 488 0
 1126 001a 0846     		mov	r0, r1
 1127              	.LVL96:
 1128 001c 70BD     		pop	{r4, r5, r6, pc}
 1129              	.LVL97:
 1130              	.L72:
 1131              		.loc 1 490 0
 1132 001e 6862     		str	r0, [r5, #36]
 1133 0020 0446     		mov	r4, r0
 1134              		.loc 1 491 0
 1135 0022 0A20     		movs	r0, #10
 1136              	.LVL98:
 1137 0024 FFF7FEFF 		bl	chSchGoSleepTimeoutS
 1138              	.LVL99:
 1139 0028 0028     		cmp	r0, #0
 1140 002a 0BDB     		blt	.L76
ARM GAS  /var/folders/m4/4md61f0s1_g0rzfghffqnxvr0000gn/T//ccCjr2dC.s 			page 21


 1141              		.loc 1 495 0
 1142 002c AA6B     		ldr	r2, [r5, #56]
 1143 002e 04EA0206 		and	r6, r4, r2
 1144              	.LVL100:
 1145              	.L71:
 1146              		.loc 1 497 0
 1147 0032 7042     		negs	r0, r6
 1148 0034 3040     		ands	r0, r0, r6
 1149              	.LVL101:
 1150              		.loc 1 498 0
 1151 0036 22EA0002 		bic	r2, r2, r0
 1152 003a AA63     		str	r2, [r5, #56]
 1153              	.LVL102:
 1154              	.LBB282:
 1155              	.LBB283:
 1156              	.LBB284:
 1157              	.LBB285:
 1158              	.LBB286:
 1159              		.loc 2 548 0
 1160 003c 0023     		movs	r3, #0
 1161              		.syntax unified
 1162              	@ 548 "ChibiOS_16.1.4/os/ext/CMSIS/include/core_cmFunc.h" 1
 1163 003e 83F31188 		MSR basepri, r3
 1164              	@ 0 "" 2
 1165              	.LVL103:
 1166              		.thumb
 1167              		.syntax unified
 1168              	.LBE286:
 1169              	.LBE285:
 1170              	.LBE284:
 1171              	.LBE283:
 1172              	.LBE282:
 1173              		.loc 1 502 0
 1174 0042 70BD     		pop	{r4, r5, r6, pc}
 1175              	.LVL104:
 1176              	.L76:
 1177              	.LBB287:
 1178              	.LBB288:
 1179              	.LBB289:
 1180              	.LBB290:
 1181              	.LBB291:
 1182              		.loc 2 548 0
 1183              		.syntax unified
 1184              	@ 548 "ChibiOS_16.1.4/os/ext/CMSIS/include/core_cmFunc.h" 1
 1185 0044 86F31188 		MSR basepri, r6
 1186              	@ 0 "" 2
 1187              	.LVL105:
 1188              		.thumb
 1189              		.syntax unified
 1190              	.LBE291:
 1191              	.LBE290:
 1192              	.LBE289:
 1193              	.LBE288:
 1194              	.LBE287:
 1195              		.loc 1 493 0
 1196 0048 3046     		mov	r0, r6
 1197 004a 70BD     		pop	{r4, r5, r6, pc}
ARM GAS  /var/folders/m4/4md61f0s1_g0rzfghffqnxvr0000gn/T//ccCjr2dC.s 			page 22


 1198              	.LVL106:
 1199              	.L78:
 1200              		.align	2
 1201              	.L77:
 1202 004c 00000000 		.word	ch
 1203              		.cfi_endproc
 1204              	.LFE245:
 1205              		.size	chEvtWaitOneTimeout, .-chEvtWaitOneTimeout
 1206              		.section	.text.chEvtWaitAnyTimeout,"ax",%progbits
 1207              		.align	2
 1208              		.p2align 4,,15
 1209              		.global	chEvtWaitAnyTimeout
 1210              		.thumb
 1211              		.thumb_func
 1212              		.type	chEvtWaitAnyTimeout, %function
 1213              	chEvtWaitAnyTimeout:
 1214              	.LFB246:
 1215              		.loc 1 522 0
 1216              		.cfi_startproc
 1217              		@ args = 0, pretend = 0, frame = 0
 1218              		@ frame_needed = 0, uses_anonymous_args = 0
 1219              	.LVL107:
 1220              		.loc 1 523 0
 1221 0000 124B     		ldr	r3, .L86
 1222              		.loc 1 522 0
 1223 0002 70B5     		push	{r4, r5, r6, lr}
 1224              		.cfi_def_cfa_offset 16
 1225              		.cfi_offset 4, -16
 1226              		.cfi_offset 5, -12
 1227              		.cfi_offset 6, -8
 1228              		.cfi_offset 14, -4
 1229              		.loc 1 523 0
 1230 0004 9E69     		ldr	r6, [r3, #24]
 1231              	.LVL108:
 1232              	.LBB292:
 1233              	.LBB293:
 1234              	.LBB294:
 1235              	.LBB295:
 1236              		.loc 2 548 0
 1237 0006 2023     		movs	r3, #32
 1238              		.syntax unified
 1239              	@ 548 "ChibiOS_16.1.4/os/ext/CMSIS/include/core_cmFunc.h" 1
 1240 0008 83F31188 		MSR basepri, r3
 1241              	@ 0 "" 2
 1242              	.LVL109:
 1243              		.thumb
 1244              		.syntax unified
 1245              	.LBE295:
 1246              	.LBE294:
 1247              	.LBE293:
 1248              	.LBE292:
 1249              		.loc 1 527 0
 1250 000c B36B     		ldr	r3, [r6, #56]
 1251              	.LVL110:
 1252              		.loc 1 528 0
 1253 000e 13EA0004 		ands	r4, r3, r0
 1254              	.LVL111:
ARM GAS  /var/folders/m4/4md61f0s1_g0rzfghffqnxvr0000gn/T//ccCjr2dC.s 			page 23


 1255 0012 0ED1     		bne	.L80
 1256              		.loc 1 529 0
 1257 0014 19B9     		cbnz	r1, .L81
 1258              	.LVL112:
 1259              	.LBB296:
 1260              	.LBB297:
 1261              	.LBB298:
 1262              	.LBB299:
 1263              	.LBB300:
 1264              		.loc 2 548 0
 1265              		.syntax unified
 1266              	@ 548 "ChibiOS_16.1.4/os/ext/CMSIS/include/core_cmFunc.h" 1
 1267 0016 81F31188 		MSR basepri, r1
 1268              	@ 0 "" 2
 1269              	.LVL113:
 1270              		.thumb
 1271              		.syntax unified
 1272              	.LBE300:
 1273              	.LBE299:
 1274              	.LBE298:
 1275              	.LBE297:
 1276              	.LBE296:
 1277              		.loc 1 531 0
 1278 001a 0846     		mov	r0, r1
 1279              	.LVL114:
 1280 001c 70BD     		pop	{r4, r5, r6, pc}
 1281              	.LVL115:
 1282              	.L81:
 1283              		.loc 1 533 0
 1284 001e 7062     		str	r0, [r6, #36]
 1285 0020 0546     		mov	r5, r0
 1286              		.loc 1 534 0
 1287 0022 0A20     		movs	r0, #10
 1288              	.LVL116:
 1289 0024 FFF7FEFF 		bl	chSchGoSleepTimeoutS
 1290              	.LVL117:
 1291 0028 0028     		cmp	r0, #0
 1292 002a 0ADB     		blt	.L85
 1293              		.loc 1 538 0
 1294 002c B36B     		ldr	r3, [r6, #56]
 1295 002e 05EA0304 		and	r4, r5, r3
 1296              	.LVL118:
 1297              	.L80:
 1298              		.loc 1 540 0
 1299 0032 23EA0403 		bic	r3, r3, r4
 1300 0036 B363     		str	r3, [r6, #56]
 1301              	.LVL119:
 1302              	.LBB301:
 1303              	.LBB302:
 1304              	.LBB303:
 1305              	.LBB304:
 1306              	.LBB305:
 1307              		.loc 2 548 0
 1308 0038 0023     		movs	r3, #0
 1309              		.syntax unified
 1310              	@ 548 "ChibiOS_16.1.4/os/ext/CMSIS/include/core_cmFunc.h" 1
 1311 003a 83F31188 		MSR basepri, r3
ARM GAS  /var/folders/m4/4md61f0s1_g0rzfghffqnxvr0000gn/T//ccCjr2dC.s 			page 24


 1312              	@ 0 "" 2
 1313              	.LVL120:
 1314              		.thumb
 1315              		.syntax unified
 1316              	.LBE305:
 1317              	.LBE304:
 1318              	.LBE303:
 1319              	.LBE302:
 1320              	.LBE301:
 1321              		.loc 1 543 0
 1322 003e 2046     		mov	r0, r4
 1323              		.loc 1 544 0
 1324 0040 70BD     		pop	{r4, r5, r6, pc}
 1325              	.LVL121:
 1326              	.L85:
 1327              	.LBB306:
 1328              	.LBB307:
 1329              	.LBB308:
 1330              	.LBB309:
 1331              	.LBB310:
 1332              		.loc 2 548 0
 1333              		.syntax unified
 1334              	@ 548 "ChibiOS_16.1.4/os/ext/CMSIS/include/core_cmFunc.h" 1
 1335 0042 84F31188 		MSR basepri, r4
 1336              	@ 0 "" 2
 1337              	.LVL122:
 1338              		.thumb
 1339              		.syntax unified
 1340              	.LBE310:
 1341              	.LBE309:
 1342              	.LBE308:
 1343              	.LBE307:
 1344              	.LBE306:
 1345              		.loc 1 536 0
 1346 0046 2046     		mov	r0, r4
 1347 0048 70BD     		pop	{r4, r5, r6, pc}
 1348              	.LVL123:
 1349              	.L87:
 1350 004a 00BF     		.align	2
 1351              	.L86:
 1352 004c 00000000 		.word	ch
 1353              		.cfi_endproc
 1354              	.LFE246:
 1355              		.size	chEvtWaitAnyTimeout, .-chEvtWaitAnyTimeout
 1356              		.section	.text.chEvtWaitAllTimeout,"ax",%progbits
 1357              		.align	2
 1358              		.p2align 4,,15
 1359              		.global	chEvtWaitAllTimeout
 1360              		.thumb
 1361              		.thumb_func
 1362              		.type	chEvtWaitAllTimeout, %function
 1363              	chEvtWaitAllTimeout:
 1364              	.LFB247:
 1365              		.loc 1 563 0
 1366              		.cfi_startproc
 1367              		@ args = 0, pretend = 0, frame = 0
 1368              		@ frame_needed = 0, uses_anonymous_args = 0
ARM GAS  /var/folders/m4/4md61f0s1_g0rzfghffqnxvr0000gn/T//ccCjr2dC.s 			page 25


 1369              	.LVL124:
 1370 0000 38B5     		push	{r3, r4, r5, lr}
 1371              		.cfi_def_cfa_offset 16
 1372              		.cfi_offset 3, -16
 1373              		.cfi_offset 4, -12
 1374              		.cfi_offset 5, -8
 1375              		.cfi_offset 14, -4
 1376              		.loc 1 564 0
 1377 0002 104B     		ldr	r3, .L96
 1378              		.loc 1 563 0
 1379 0004 0446     		mov	r4, r0
 1380              		.loc 1 564 0
 1381 0006 9D69     		ldr	r5, [r3, #24]
 1382              	.LVL125:
 1383              	.LBB311:
 1384              	.LBB312:
 1385              	.LBB313:
 1386              	.LBB314:
 1387              		.loc 2 548 0
 1388 0008 2023     		movs	r3, #32
 1389              		.syntax unified
 1390              	@ 548 "ChibiOS_16.1.4/os/ext/CMSIS/include/core_cmFunc.h" 1
 1391 000a 83F31188 		MSR basepri, r3
 1392              	@ 0 "" 2
 1393              	.LVL126:
 1394              		.thumb
 1395              		.syntax unified
 1396              	.LBE314:
 1397              	.LBE313:
 1398              	.LBE312:
 1399              	.LBE311:
 1400              		.loc 1 567 0
 1401 000e AB6B     		ldr	r3, [r5, #56]
 1402 0010 30EA0302 		bics	r2, r0, r3
 1403 0014 0BD0     		beq	.L89
 1404 0016 0846     		mov	r0, r1
 1405              	.LVL127:
 1406              		.loc 1 568 0
 1407 0018 11B9     		cbnz	r1, .L95
 1408              	.LVL128:
 1409              	.L94:
 1410              	.LBB315:
 1411              	.LBB316:
 1412              	.LBB317:
 1413              	.LBB318:
 1414              	.LBB319:
 1415              		.loc 2 548 0
 1416              		.syntax unified
 1417              	@ 548 "ChibiOS_16.1.4/os/ext/CMSIS/include/core_cmFunc.h" 1
 1418 001a 80F31188 		MSR basepri, r0
 1419              	@ 0 "" 2
 1420              		.thumb
 1421              		.syntax unified
 1422              	.LBE319:
 1423              	.LBE318:
 1424              	.LBE317:
 1425              	.LBE316:
ARM GAS  /var/folders/m4/4md61f0s1_g0rzfghffqnxvr0000gn/T//ccCjr2dC.s 			page 26


 1426              	.LBE315:
 1427              		.loc 1 575 0
 1428 001e 38BD     		pop	{r3, r4, r5, pc}
 1429              	.LVL129:
 1430              	.L95:
 1431              		.loc 1 572 0
 1432 0020 6C62     		str	r4, [r5, #36]
 1433              		.loc 1 573 0
 1434 0022 0B20     		movs	r0, #11
 1435              	.LVL130:
 1436 0024 FFF7FEFF 		bl	chSchGoSleepTimeoutS
 1437              	.LVL131:
 1438 0028 0028     		cmp	r0, #0
 1439 002a 08DB     		blt	.L92
 1440 002c AB6B     		ldr	r3, [r5, #56]
 1441              	.L89:
 1442              		.loc 1 578 0
 1443 002e 23EA0403 		bic	r3, r3, r4
 1444 0032 AB63     		str	r3, [r5, #56]
 1445              	.LVL132:
 1446              	.LBB324:
 1447              	.LBB325:
 1448              	.LBB326:
 1449              	.LBB327:
 1450              	.LBB328:
 1451              		.loc 2 548 0
 1452 0034 0023     		movs	r3, #0
 1453              		.syntax unified
 1454              	@ 548 "ChibiOS_16.1.4/os/ext/CMSIS/include/core_cmFunc.h" 1
 1455 0036 83F31188 		MSR basepri, r3
 1456              	@ 0 "" 2
 1457              	.LVL133:
 1458              		.thumb
 1459              		.syntax unified
 1460              	.LBE328:
 1461              	.LBE327:
 1462              	.LBE326:
 1463              	.LBE325:
 1464              	.LBE324:
 1465              		.loc 1 581 0
 1466 003a 2046     		mov	r0, r4
 1467              		.loc 1 582 0
 1468 003c 38BD     		pop	{r3, r4, r5, pc}
 1469              	.LVL134:
 1470              	.L92:
 1471              	.LBB329:
 1472              	.LBB323:
 1473              	.LBB322:
 1474              	.LBB321:
 1475              	.LBB320:
 1476              		.loc 2 548 0
 1477 003e 0020     		movs	r0, #0
 1478 0040 EBE7     		b	.L94
 1479              	.L97:
 1480 0042 00BF     		.align	2
 1481              	.L96:
 1482 0044 00000000 		.word	ch
ARM GAS  /var/folders/m4/4md61f0s1_g0rzfghffqnxvr0000gn/T//ccCjr2dC.s 			page 27


 1483              	.LBE320:
 1484              	.LBE321:
 1485              	.LBE322:
 1486              	.LBE323:
 1487              	.LBE329:
 1488              		.cfi_endproc
 1489              	.LFE247:
 1490              		.size	chEvtWaitAllTimeout, .-chEvtWaitAllTimeout
 1491              		.text
 1492              	.Letext0:
 1493              		.file 3 "/opt/homebrew-cask/Caskroom/gcc-arm-embedded/5_2-2015q4,20151219/gcc-arm-none-eabi-5_2-20
 1494              		.file 4 "/opt/homebrew-cask/Caskroom/gcc-arm-embedded/5_2-2015q4,20151219/gcc-arm-none-eabi-5_2-20
 1495              		.file 5 "ChibiOS_16.1.4/os/rt/ports/ARMCMx/compilers/GCC/chtypes.h"
 1496              		.file 6 "ChibiOS_16.1.4/os/rt/include/chsystypes.h"
 1497              		.file 7 "ChibiOS_16.1.4/os/rt/include/chschd.h"
 1498              		.file 8 "ChibiOS_16.1.4/os/rt/ports/ARMCMx/chcore.h"
 1499              		.file 9 "ChibiOS_16.1.4/os/rt/ports/ARMCMx/chcore_v7m.h"
 1500              		.file 10 "ChibiOS_16.1.4/os/rt/include/chtm.h"
 1501              		.file 11 "ChibiOS_16.1.4/os/rt/include/chsem.h"
 1502              		.file 12 "ChibiOS_16.1.4/os/rt/include/chmtx.h"
 1503              		.file 13 "ChibiOS_16.1.4/os/rt/include/chevents.h"
 1504              		.file 14 "ChibiOS_16.1.4/os/rt/include/chsys.h"
 1505              		.file 15 "ChibiOS_16.1.4/os/ext/CMSIS/include/core_cm4.h"