ARM GAS  /var/folders/m4/4md61f0s1_g0rzfghffqnxvr0000gn/T//ccizzNmz.s 			page 1


   1              		.syntax unified
   2              		.cpu cortex-m4
   3              		.eabi_attribute 27, 1
   4              		.eabi_attribute 28, 1
   5              		.fpu fpv4-sp-d16
   6              		.eabi_attribute 20, 1
   7              		.eabi_attribute 21, 1
   8              		.eabi_attribute 23, 3
   9              		.eabi_attribute 24, 1
  10              		.eabi_attribute 25, 1
  11              		.eabi_attribute 26, 1
  12              		.eabi_attribute 30, 2
  13              		.eabi_attribute 34, 1
  14              		.eabi_attribute 18, 4
  15              		.thumb
  16              		.syntax unified
  17              		.file	"chmemcore.c"
  18              		.text
  19              	.Ltext0:
  20              		.cfi_sections	.debug_frame
  21              		.section	.text._core_init,"ax",%progbits
  22              		.align	2
  23              		.p2align 4,,15
  24              		.global	_core_init
  25              		.thumb
  26              		.thumb_func
  27              		.type	_core_init, %function
  28              	_core_init:
  29              	.LFB231:
  30              		.file 1 "ChibiOS_16.1.4/os/rt/src/chmemcore.c"
  31              		.loc 1 78 0
  32              		.cfi_startproc
  33              		@ args = 0, pretend = 0, frame = 0
  34              		@ frame_needed = 0, uses_anonymous_args = 0
  35              		@ link register save eliminated.
  36              		.loc 1 84 0
  37 0000 054A     		ldr	r2, .L2
  38              		.loc 1 85 0
  39 0002 064B     		ldr	r3, .L2+4
  40              		.loc 1 84 0
  41 0004 0648     		ldr	r0, .L2+8
  42              		.loc 1 85 0
  43 0006 0749     		ldr	r1, .L2+12
  44              		.loc 1 84 0
  45 0008 22F00702 		bic	r2, r2, #7
  46              		.loc 1 85 0
  47 000c 23F00703 		bic	r3, r3, #7
  48              		.loc 1 84 0
  49 0010 0260     		str	r2, [r0]
  50              		.loc 1 85 0
  51 0012 0B60     		str	r3, [r1]
  52 0014 7047     		bx	lr
  53              	.L3:
  54 0016 00BF     		.align	2
  55              	.L2:
  56 0018 07000000 		.word	__heap_base__+7
  57 001c 00000000 		.word	__heap_end__
ARM GAS  /var/folders/m4/4md61f0s1_g0rzfghffqnxvr0000gn/T//ccizzNmz.s 			page 2


  58 0020 00000000 		.word	.LANCHOR0
  59 0024 00000000 		.word	.LANCHOR1
  60              		.cfi_endproc
  61              	.LFE231:
  62              		.size	_core_init, .-_core_init
  63              		.section	.text.chCoreAlloc,"ax",%progbits
  64              		.align	2
  65              		.p2align 4,,15
  66              		.global	chCoreAlloc
  67              		.thumb
  68              		.thumb_func
  69              		.type	chCoreAlloc, %function
  70              	chCoreAlloc:
  71              	.LFB232:
  72              		.loc 1 109 0
  73              		.cfi_startproc
  74              		@ args = 0, pretend = 0, frame = 0
  75              		@ frame_needed = 0, uses_anonymous_args = 0
  76              		@ link register save eliminated.
  77              	.LVL0:
  78 0000 10B4     		push	{r4}
  79              		.cfi_def_cfa_offset 4
  80              		.cfi_offset 4, -4
  81              	.LBB26:
  82              	.LBB27:
  83              	.LBB28:
  84              	.LBB29:
  85              		.file 2 "ChibiOS_16.1.4/os/ext/CMSIS/include/core_cmFunc.h"
  86              		.loc 2 548 0
  87 0002 2023     		movs	r3, #32
  88              		.syntax unified
  89              	@ 548 "ChibiOS_16.1.4/os/ext/CMSIS/include/core_cmFunc.h" 1
  90 0004 83F31188 		MSR basepri, r3
  91              	@ 0 "" 2
  92              	.LVL1:
  93              		.thumb
  94              		.syntax unified
  95              	.LBE29:
  96              	.LBE28:
  97              	.LBE27:
  98              	.LBE26:
  99              	.LBB30:
 100              	.LBB31:
 101              		.loc 1 138 0
 102 0008 094C     		ldr	r4, .L9
 103 000a 0A4B     		ldr	r3, .L9+4
 104 000c 2268     		ldr	r2, [r4]
 105 000e 1968     		ldr	r1, [r3]
 106              		.loc 1 136 0
 107 0010 C31D     		adds	r3, r0, #7
 108 0012 23F00703 		bic	r3, r3, #7
 109              	.LVL2:
 110              		.loc 1 138 0
 111 0016 891A     		subs	r1, r1, r2
 112 0018 8B42     		cmp	r3, r1
 113              	.LVL3:
 114              		.loc 1 143 0
ARM GAS  /var/folders/m4/4md61f0s1_g0rzfghffqnxvr0000gn/T//ccizzNmz.s 			page 3


 115 001a 9DBF     		ittte	ls
 116 001c 9B18     		addls	r3, r3, r2
 117              	.LVL4:
 118 001e 2360     		strls	r3, [r4]
 119              		.loc 1 145 0
 120 0020 1046     		movls	r0, r2
 121              	.LVL5:
 122              		.loc 1 140 0
 123 0022 0020     		movhi	r0, #0
 124              	.LVL6:
 125              	.LBE31:
 126              	.LBE30:
 127              	.LBB32:
 128              	.LBB33:
 129              	.LBB34:
 130              	.LBB35:
 131              	.LBB36:
 132              		.loc 2 548 0
 133 0024 0023     		movs	r3, #0
 134              		.syntax unified
 135              	@ 548 "ChibiOS_16.1.4/os/ext/CMSIS/include/core_cmFunc.h" 1
 136 0026 83F31188 		MSR basepri, r3
 137              	@ 0 "" 2
 138              	.LVL7:
 139              		.thumb
 140              		.syntax unified
 141              	.LBE36:
 142              	.LBE35:
 143              	.LBE34:
 144              	.LBE33:
 145              	.LBE32:
 146              		.loc 1 117 0
 147 002a 5DF8044B 		ldr	r4, [sp], #4
 148              		.cfi_restore 4
 149              		.cfi_def_cfa_offset 0
 150 002e 7047     		bx	lr
 151              	.L10:
 152              		.align	2
 153              	.L9:
 154 0030 00000000 		.word	.LANCHOR0
 155 0034 00000000 		.word	.LANCHOR1
 156              		.cfi_endproc
 157              	.LFE232:
 158              		.size	chCoreAlloc, .-chCoreAlloc
 159              		.section	.text.chCoreAllocI,"ax",%progbits
 160              		.align	2
 161              		.p2align 4,,15
 162              		.global	chCoreAllocI
 163              		.thumb
 164              		.thumb_func
 165              		.type	chCoreAllocI, %function
 166              	chCoreAllocI:
 167              	.LFB233:
 168              		.loc 1 131 0
 169              		.cfi_startproc
 170              		@ args = 0, pretend = 0, frame = 0
 171              		@ frame_needed = 0, uses_anonymous_args = 0
ARM GAS  /var/folders/m4/4md61f0s1_g0rzfghffqnxvr0000gn/T//ccizzNmz.s 			page 4


 172              		@ link register save eliminated.
 173              	.LVL8:
 174 0000 10B4     		push	{r4}
 175              		.cfi_def_cfa_offset 4
 176              		.cfi_offset 4, -4
 177              		.loc 1 138 0
 178 0002 084B     		ldr	r3, .L15
 179 0004 084C     		ldr	r4, .L15+4
 180 0006 1968     		ldr	r1, [r3]
 181 0008 2268     		ldr	r2, [r4]
 182              		.loc 1 136 0
 183 000a 0730     		adds	r0, r0, #7
 184              	.LVL9:
 185 000c 20F00703 		bic	r3, r0, #7
 186              	.LVL10:
 187              		.loc 1 138 0
 188 0010 891A     		subs	r1, r1, r2
 189 0012 8B42     		cmp	r3, r1
 190              	.LVL11:
 191              		.loc 1 143 0
 192 0014 9DBF     		ittte	ls
 193 0016 9B18     		addls	r3, r3, r2
 194              	.LVL12:
 195 0018 2360     		strls	r3, [r4]
 196              		.loc 1 145 0
 197 001a 1046     		movls	r0, r2
 198              	.LVL13:
 199              		.loc 1 140 0
 200 001c 0020     		movhi	r0, #0
 201              		.loc 1 146 0
 202 001e 5DF8044B 		ldr	r4, [sp], #4
 203              		.cfi_restore 4
 204              		.cfi_def_cfa_offset 0
 205 0022 7047     		bx	lr
 206              	.L16:
 207              		.align	2
 208              	.L15:
 209 0024 00000000 		.word	.LANCHOR1
 210 0028 00000000 		.word	.LANCHOR0
 211              		.cfi_endproc
 212              	.LFE233:
 213              		.size	chCoreAllocI, .-chCoreAllocI
 214              		.section	.text.chCoreGetStatusX,"ax",%progbits
 215              		.align	2
 216              		.p2align 4,,15
 217              		.global	chCoreGetStatusX
 218              		.thumb
 219              		.thumb_func
 220              		.type	chCoreGetStatusX, %function
 221              	chCoreGetStatusX:
 222              	.LFB234:
 223              		.loc 1 155 0
 224              		.cfi_startproc
 225              		@ args = 0, pretend = 0, frame = 0
 226              		@ frame_needed = 0, uses_anonymous_args = 0
 227              		@ link register save eliminated.
 228              		.loc 1 158 0
ARM GAS  /var/folders/m4/4md61f0s1_g0rzfghffqnxvr0000gn/T//ccizzNmz.s 			page 5


 229 0000 024A     		ldr	r2, .L18
 230 0002 034B     		ldr	r3, .L18+4
 231 0004 1068     		ldr	r0, [r2]
 232 0006 1B68     		ldr	r3, [r3]
 233              		.loc 1 160 0
 234 0008 C01A     		subs	r0, r0, r3
 235 000a 7047     		bx	lr
 236              	.L19:
 237              		.align	2
 238              	.L18:
 239 000c 00000000 		.word	.LANCHOR1
 240 0010 00000000 		.word	.LANCHOR0
 241              		.cfi_endproc
 242              	.LFE234:
 243              		.size	chCoreGetStatusX, .-chCoreGetStatusX
 244              		.section	.bss.endmem,"aw",%nobits
 245              		.align	2
 246              		.set	.LANCHOR1,. + 0
 247              		.type	endmem, %object
 248              		.size	endmem, 4
 249              	endmem:
 250 0000 00000000 		.space	4
 251              		.section	.bss.nextmem,"aw",%nobits
 252              		.align	2
 253              		.set	.LANCHOR0,. + 0
 254              		.type	nextmem, %object
 255              		.size	nextmem, 4
 256              	nextmem:
 257 0000 00000000 		.space	4
 258              		.text
 259              	.Letext0:
 260              		.file 3 "/opt/homebrew-cask/Caskroom/gcc-arm-embedded/5_2-2015q4,20151219/gcc-arm-none-eabi-5_2-20
 261              		.file 4 "/opt/homebrew-cask/Caskroom/gcc-arm-embedded/5_2-2015q4,20151219/gcc-arm-none-eabi-5_2-20
 262              		.file 5 "/opt/homebrew-cask/Caskroom/gcc-arm-embedded/5_2-2015q4,20151219/gcc-arm-none-eabi-5_2-20
 263              		.file 6 "ChibiOS_16.1.4/os/rt/ports/ARMCMx/compilers/GCC/chtypes.h"
 264              		.file 7 "ChibiOS_16.1.4/os/rt/include/chsystypes.h"
 265              		.file 8 "ChibiOS_16.1.4/os/rt/include/chschd.h"
 266              		.file 9 "ChibiOS_16.1.4/os/rt/ports/ARMCMx/chcore.h"
 267              		.file 10 "ChibiOS_16.1.4/os/rt/ports/ARMCMx/chcore_v7m.h"
 268              		.file 11 "ChibiOS_16.1.4/os/rt/include/chtm.h"
 269              		.file 12 "ChibiOS_16.1.4/os/rt/include/chsem.h"
 270              		.file 13 "ChibiOS_16.1.4/os/rt/include/chmtx.h"
 271              		.file 14 "ChibiOS_16.1.4/os/rt/include/chsys.h"
 272              		.file 15 "ChibiOS_16.1.4/os/ext/CMSIS/include/core_cm4.h"
 273              		.section	.debug_info,"",%progbits
 274              	.Ldebug_info0:
 275 0000 52090000 		.4byte	0x952
 276 0004 0400     		.2byte	0x4
 277 0006 00000000 		.4byte	.Ldebug_abbrev0
 278 000a 04       		.byte	0x4
 279 000b 01       		.uleb128 0x1
 280 000c 47040000 		.4byte	.LASF118
 281 0010 0C       		.byte	0xc
 282 0011 C2020000 		.4byte	.LASF119
 283 0015 FE010000 		.4byte	.LASF120
 284 0019 00000000 		.4byte	.Ldebug_ranges0+0
 285 001d 00000000 		.4byte	0
ARM GAS  /var/folders/m4/4md61f0s1_g0rzfghffqnxvr0000gn/T//ccizzNmz.s 			page 6


 286 0021 00000000 		.4byte	.Ldebug_line0
 287 0025 02       		.uleb128 0x2
 288 0026 04       		.byte	0x4
 289 0027 05       		.byte	0x5
 290 0028 696E7400 		.ascii	"int\000"
 291 002c 03       		.uleb128 0x3
 292 002d 14000000 		.4byte	.LASF2
 293 0031 03       		.byte	0x3
 294 0032 D8       		.byte	0xd8
 295 0033 37000000 		.4byte	0x37
 296 0037 04       		.uleb128 0x4
 297 0038 04       		.byte	0x4
 298 0039 07       		.byte	0x7
 299 003a 9E010000 		.4byte	.LASF0
 300 003e 04       		.uleb128 0x4
 301 003f 01       		.byte	0x1
 302 0040 06       		.byte	0x6
 303 0041 DA000000 		.4byte	.LASF1
 304 0045 03       		.uleb128 0x3
 305 0046 37000000 		.4byte	.LASF3
 306 004a 04       		.byte	0x4
 307 004b 1D       		.byte	0x1d
 308 004c 50000000 		.4byte	0x50
 309 0050 04       		.uleb128 0x4
 310 0051 01       		.byte	0x1
 311 0052 08       		.byte	0x8
 312 0053 63030000 		.4byte	.LASF4
 313 0057 04       		.uleb128 0x4
 314 0058 02       		.byte	0x2
 315 0059 05       		.byte	0x5
 316 005a 86030000 		.4byte	.LASF5
 317 005e 04       		.uleb128 0x4
 318 005f 02       		.byte	0x2
 319 0060 07       		.byte	0x7
 320 0061 DB010000 		.4byte	.LASF6
 321 0065 03       		.uleb128 0x3
 322 0066 61020000 		.4byte	.LASF7
 323 006a 04       		.byte	0x4
 324 006b 3F       		.byte	0x3f
 325 006c 70000000 		.4byte	0x70
 326 0070 04       		.uleb128 0x4
 327 0071 04       		.byte	0x4
 328 0072 05       		.byte	0x5
 329 0073 23010000 		.4byte	.LASF8
 330 0077 03       		.uleb128 0x3
 331 0078 83050000 		.4byte	.LASF9
 332 007c 04       		.byte	0x4
 333 007d 41       		.byte	0x41
 334 007e 82000000 		.4byte	0x82
 335 0082 04       		.uleb128 0x4
 336 0083 04       		.byte	0x4
 337 0084 07       		.byte	0x7
 338 0085 30040000 		.4byte	.LASF10
 339 0089 04       		.uleb128 0x4
 340 008a 08       		.byte	0x8
 341 008b 05       		.byte	0x5
 342 008c CC000000 		.4byte	.LASF11
ARM GAS  /var/folders/m4/4md61f0s1_g0rzfghffqnxvr0000gn/T//ccizzNmz.s 			page 7


 343 0090 03       		.uleb128 0x3
 344 0091 18030000 		.4byte	.LASF12
 345 0095 04       		.byte	0x4
 346 0096 5B       		.byte	0x5b
 347 0097 9B000000 		.4byte	0x9b
 348 009b 04       		.uleb128 0x4
 349 009c 08       		.byte	0x8
 350 009d 07       		.byte	0x7
 351 009e 66000000 		.4byte	.LASF13
 352 00a2 03       		.uleb128 0x3
 353 00a3 F8050000 		.4byte	.LASF14
 354 00a7 05       		.byte	0x5
 355 00a8 14       		.byte	0x14
 356 00a9 45000000 		.4byte	0x45
 357 00ad 03       		.uleb128 0x3
 358 00ae 5B030000 		.4byte	.LASF15
 359 00b2 05       		.byte	0x5
 360 00b3 1F       		.byte	0x1f
 361 00b4 65000000 		.4byte	0x65
 362 00b8 03       		.uleb128 0x3
 363 00b9 08040000 		.4byte	.LASF16
 364 00bd 05       		.byte	0x5
 365 00be 20       		.byte	0x20
 366 00bf 77000000 		.4byte	0x77
 367 00c3 03       		.uleb128 0x3
 368 00c4 22000000 		.4byte	.LASF17
 369 00c8 05       		.byte	0x5
 370 00c9 26       		.byte	0x26
 371 00ca 90000000 		.4byte	0x90
 372 00ce 03       		.uleb128 0x3
 373 00cf B5050000 		.4byte	.LASF18
 374 00d3 06       		.byte	0x6
 375 00d4 39       		.byte	0x39
 376 00d5 B8000000 		.4byte	0xb8
 377 00d9 03       		.uleb128 0x3
 378 00da 3F020000 		.4byte	.LASF19
 379 00de 06       		.byte	0x6
 380 00df 3C       		.byte	0x3c
 381 00e0 A2000000 		.4byte	0xa2
 382 00e4 03       		.uleb128 0x3
 383 00e5 2C010000 		.4byte	.LASF20
 384 00e9 06       		.byte	0x6
 385 00ea 3D       		.byte	0x3d
 386 00eb A2000000 		.4byte	0xa2
 387 00ef 03       		.uleb128 0x3
 388 00f0 23030000 		.4byte	.LASF21
 389 00f4 06       		.byte	0x6
 390 00f5 3E       		.byte	0x3e
 391 00f6 A2000000 		.4byte	0xa2
 392 00fa 03       		.uleb128 0x3
 393 00fb 09010000 		.4byte	.LASF22
 394 00ff 06       		.byte	0x6
 395 0100 3F       		.byte	0x3f
 396 0101 A2000000 		.4byte	0xa2
 397 0105 03       		.uleb128 0x3
 398 0106 42030000 		.4byte	.LASF23
 399 010a 06       		.byte	0x6
ARM GAS  /var/folders/m4/4md61f0s1_g0rzfghffqnxvr0000gn/T//ccizzNmz.s 			page 8


 400 010b 40       		.byte	0x40
 401 010c B8000000 		.4byte	0xb8
 402 0110 03       		.uleb128 0x3
 403 0111 F8010000 		.4byte	.LASF24
 404 0115 06       		.byte	0x6
 405 0116 41       		.byte	0x41
 406 0117 AD000000 		.4byte	0xad
 407 011b 03       		.uleb128 0x3
 408 011c 55020000 		.4byte	.LASF25
 409 0120 06       		.byte	0x6
 410 0121 43       		.byte	0x43
 411 0122 B8000000 		.4byte	0xb8
 412 0126 03       		.uleb128 0x3
 413 0127 98010000 		.4byte	.LASF26
 414 012b 06       		.byte	0x6
 415 012c 45       		.byte	0x45
 416 012d AD000000 		.4byte	0xad
 417 0131 03       		.uleb128 0x3
 418 0132 65050000 		.4byte	.LASF27
 419 0136 07       		.byte	0x7
 420 0137 33       		.byte	0x33
 421 0138 B8000000 		.4byte	0xb8
 422 013c 03       		.uleb128 0x3
 423 013d 4D050000 		.4byte	.LASF28
 424 0141 07       		.byte	0x7
 425 0142 3F       		.byte	0x3f
 426 0143 47010000 		.4byte	0x147
 427 0147 05       		.uleb128 0x5
 428 0148 EE010000 		.4byte	.LASF50
 429 014c 48       		.byte	0x48
 430 014d 08       		.byte	0x8
 431 014e C2       		.byte	0xc2
 432 014f 4C020000 		.4byte	0x24c
 433 0153 06       		.uleb128 0x6
 434 0154 BD030000 		.4byte	.LASF29
 435 0158 08       		.byte	0x8
 436 0159 C3       		.byte	0xc3
 437 015a 57020000 		.4byte	0x257
 438 015e 00       		.byte	0
 439 015f 06       		.uleb128 0x6
 440 0160 3B030000 		.4byte	.LASF30
 441 0164 08       		.byte	0x8
 442 0165 C5       		.byte	0xc5
 443 0166 57020000 		.4byte	0x257
 444 016a 04       		.byte	0x4
 445 016b 06       		.uleb128 0x6
 446 016c C5000000 		.4byte	.LASF31
 447 0170 08       		.byte	0x8
 448 0171 C7       		.byte	0xc7
 449 0172 05010000 		.4byte	0x105
 450 0176 08       		.byte	0x8
 451 0177 06       		.uleb128 0x6
 452 0178 38060000 		.4byte	.LASF32
 453 017c 08       		.byte	0x8
 454 017d C8       		.byte	0xc8
 455 017e 87040000 		.4byte	0x487
 456 0182 0C       		.byte	0xc
ARM GAS  /var/folders/m4/4md61f0s1_g0rzfghffqnxvr0000gn/T//ccizzNmz.s 			page 9


 457 0183 06       		.uleb128 0x6
 458 0184 35010000 		.4byte	.LASF33
 459 0188 08       		.byte	0x8
 460 0189 CA       		.byte	0xca
 461 018a 57020000 		.4byte	0x257
 462 018e 10       		.byte	0x10
 463 018f 06       		.uleb128 0x6
 464 0190 E7020000 		.4byte	.LASF34
 465 0194 08       		.byte	0x8
 466 0195 CB       		.byte	0xcb
 467 0196 57020000 		.4byte	0x257
 468 019a 14       		.byte	0x14
 469 019b 06       		.uleb128 0x6
 470 019c 07060000 		.4byte	.LASF35
 471 01a0 08       		.byte	0x8
 472 01a1 D2       		.byte	0xd2
 473 01a2 D5060000 		.4byte	0x6d5
 474 01a6 18       		.byte	0x18
 475 01a7 06       		.uleb128 0x6
 476 01a8 90030000 		.4byte	.LASF36
 477 01ac 08       		.byte	0x8
 478 01ad DD       		.byte	0xdd
 479 01ae E4000000 		.4byte	0xe4
 480 01b2 1C       		.byte	0x1c
 481 01b3 06       		.uleb128 0x6
 482 01b4 C4030000 		.4byte	.LASF37
 483 01b8 08       		.byte	0x8
 484 01b9 E1       		.byte	0xe1
 485 01ba D9000000 		.4byte	0xd9
 486 01be 1D       		.byte	0x1d
 487 01bf 06       		.uleb128 0x6
 488 01c0 EB050000 		.4byte	.LASF38
 489 01c4 08       		.byte	0x8
 490 01c5 E6       		.byte	0xe6
 491 01c6 EF000000 		.4byte	0xef
 492 01ca 1E       		.byte	0x1e
 493 01cb 06       		.uleb128 0x6
 494 01cc 98030000 		.4byte	.LASF39
 495 01d0 08       		.byte	0x8
 496 01d1 EC       		.byte	0xec
 497 01d2 FA000000 		.4byte	0xfa
 498 01d6 1F       		.byte	0x1f
 499 01d7 06       		.uleb128 0x6
 500 01d8 B3010000 		.4byte	.LASF40
 501 01dc 08       		.byte	0x8
 502 01dd F3       		.byte	0xf3
 503 01de E7060000 		.4byte	0x6e7
 504 01e2 20       		.byte	0x20
 505 01e3 07       		.uleb128 0x7
 506 01e4 705F7500 		.ascii	"p_u\000"
 507 01e8 08       		.byte	0x8
 508 01e9 3101     		.2byte	0x131
 509 01eb 10060000 		.4byte	0x610
 510 01ef 24       		.byte	0x24
 511 01f0 08       		.uleb128 0x8
 512 01f1 85020000 		.4byte	.LASF41
 513 01f5 08       		.byte	0x8
ARM GAS  /var/folders/m4/4md61f0s1_g0rzfghffqnxvr0000gn/T//ccizzNmz.s 			page 10


 514 01f6 3601     		.2byte	0x136
 515 01f8 5D020000 		.4byte	0x25d
 516 01fc 28       		.byte	0x28
 517 01fd 08       		.uleb128 0x8
 518 01fe CA010000 		.4byte	.LASF42
 519 0202 08       		.byte	0x8
 520 0203 3C01     		.2byte	0x13c
 521 0205 81020000 		.4byte	0x281
 522 0209 2C       		.byte	0x2c
 523 020a 08       		.uleb128 0x8
 524 020b 2A060000 		.4byte	.LASF43
 525 020f 08       		.byte	0x8
 526 0210 4001     		.2byte	0x140
 527 0212 10010000 		.4byte	0x110
 528 0216 34       		.byte	0x34
 529 0217 08       		.uleb128 0x8
 530 0218 FD030000 		.4byte	.LASF44
 531 021c 08       		.byte	0x8
 532 021d 4601     		.2byte	0x146
 533 021f 1B010000 		.4byte	0x11b
 534 0223 38       		.byte	0x38
 535 0224 08       		.uleb128 0x8
 536 0225 7C030000 		.4byte	.LASF45
 537 0229 08       		.byte	0x8
 538 022a 4D01     		.2byte	0x14d
 539 022c CF060000 		.4byte	0x6cf
 540 0230 3C       		.byte	0x3c
 541 0231 08       		.uleb128 0x8
 542 0232 6F050000 		.4byte	.LASF46
 543 0236 08       		.byte	0x8
 544 0237 5101     		.2byte	0x151
 545 0239 05010000 		.4byte	0x105
 546 023d 40       		.byte	0x40
 547 023e 08       		.uleb128 0x8
 548 023f E6000000 		.4byte	.LASF47
 549 0243 08       		.byte	0x8
 550 0244 5801     		.2byte	0x158
 551 0246 34030000 		.4byte	0x334
 552 024a 44       		.byte	0x44
 553 024b 00       		.byte	0
 554 024c 03       		.uleb128 0x3
 555 024d 98020000 		.4byte	.LASF48
 556 0251 07       		.byte	0x7
 557 0252 44       		.byte	0x44
 558 0253 57020000 		.4byte	0x257
 559 0257 09       		.uleb128 0x9
 560 0258 04       		.byte	0x4
 561 0259 3C010000 		.4byte	0x13c
 562 025d 03       		.uleb128 0x3
 563 025e 76020000 		.4byte	.LASF49
 564 0262 07       		.byte	0x7
 565 0263 49       		.byte	0x49
 566 0264 68020000 		.4byte	0x268
 567 0268 05       		.uleb128 0x5
 568 0269 20040000 		.4byte	.LASF51
 569 026d 04       		.byte	0x4
 570 026e 08       		.byte	0x8
ARM GAS  /var/folders/m4/4md61f0s1_g0rzfghffqnxvr0000gn/T//ccizzNmz.s 			page 11


 571 026f B0       		.byte	0xb0
 572 0270 81020000 		.4byte	0x281
 573 0274 06       		.uleb128 0x6
 574 0275 BD030000 		.4byte	.LASF29
 575 0279 08       		.byte	0x8
 576 027a B1       		.byte	0xb1
 577 027b 57020000 		.4byte	0x257
 578 027f 00       		.byte	0
 579 0280 00       		.byte	0
 580 0281 03       		.uleb128 0x3
 581 0282 D2050000 		.4byte	.LASF52
 582 0286 07       		.byte	0x7
 583 0287 50       		.byte	0x50
 584 0288 8C020000 		.4byte	0x28c
 585 028c 05       		.uleb128 0x5
 586 028d B4000000 		.4byte	.LASF53
 587 0291 08       		.byte	0x8
 588 0292 08       		.byte	0x8
 589 0293 B7       		.byte	0xb7
 590 0294 B1020000 		.4byte	0x2b1
 591 0298 06       		.uleb128 0x6
 592 0299 BD030000 		.4byte	.LASF29
 593 029d 08       		.byte	0x8
 594 029e B8       		.byte	0xb8
 595 029f 57020000 		.4byte	0x257
 596 02a3 00       		.byte	0
 597 02a4 06       		.uleb128 0x6
 598 02a5 3B030000 		.4byte	.LASF30
 599 02a9 08       		.byte	0x8
 600 02aa B9       		.byte	0xb9
 601 02ab 57020000 		.4byte	0x257
 602 02af 04       		.byte	0x4
 603 02b0 00       		.byte	0
 604 02b1 03       		.uleb128 0x3
 605 02b2 07000000 		.4byte	.LASF54
 606 02b6 07       		.byte	0x7
 607 02b7 57       		.byte	0x57
 608 02b8 BC020000 		.4byte	0x2bc
 609 02bc 0A       		.uleb128 0xa
 610 02bd 47020000 		.4byte	.LASF55
 611 02c1 1C       		.byte	0x1c
 612 02c2 08       		.byte	0x8
 613 02c3 9001     		.2byte	0x190
 614 02c5 18030000 		.4byte	0x318
 615 02c9 08       		.uleb128 0x8
 616 02ca 18040000 		.4byte	.LASF56
 617 02ce 08       		.byte	0x8
 618 02cf 9101     		.2byte	0x191
 619 02d1 81020000 		.4byte	0x281
 620 02d5 00       		.byte	0
 621 02d6 08       		.uleb128 0x8
 622 02d7 AF030000 		.4byte	.LASF57
 623 02db 08       		.byte	0x8
 624 02dc 9201     		.2byte	0x192
 625 02de 05010000 		.4byte	0x105
 626 02e2 08       		.byte	0x8
 627 02e3 08       		.uleb128 0x8
ARM GAS  /var/folders/m4/4md61f0s1_g0rzfghffqnxvr0000gn/T//ccizzNmz.s 			page 12


 628 02e4 EF020000 		.4byte	.LASF58
 629 02e8 08       		.byte	0x8
 630 02e9 9401     		.2byte	0x194
 631 02eb 87040000 		.4byte	0x487
 632 02ef 0C       		.byte	0xc
 633 02f0 08       		.uleb128 0x8
 634 02f1 52010000 		.4byte	.LASF59
 635 02f5 08       		.byte	0x8
 636 02f6 9701     		.2byte	0x197
 637 02f8 57020000 		.4byte	0x257
 638 02fc 10       		.byte	0x10
 639 02fd 08       		.uleb128 0x8
 640 02fe 10030000 		.4byte	.LASF60
 641 0302 08       		.byte	0x8
 642 0303 9801     		.2byte	0x198
 643 0305 57020000 		.4byte	0x257
 644 0309 14       		.byte	0x14
 645 030a 08       		.uleb128 0x8
 646 030b 06030000 		.4byte	.LASF61
 647 030f 08       		.byte	0x8
 648 0310 9B01     		.2byte	0x19b
 649 0312 57020000 		.4byte	0x257
 650 0316 18       		.byte	0x18
 651 0317 00       		.byte	0
 652 0318 03       		.uleb128 0x3
 653 0319 7A050000 		.4byte	.LASF62
 654 031d 07       		.byte	0x7
 655 031e 5C       		.byte	0x5c
 656 031f 23030000 		.4byte	0x323
 657 0323 09       		.uleb128 0x9
 658 0324 04       		.byte	0x4
 659 0325 29030000 		.4byte	0x329
 660 0329 0B       		.uleb128 0xb
 661 032a 34030000 		.4byte	0x334
 662 032e 0C       		.uleb128 0xc
 663 032f 34030000 		.4byte	0x334
 664 0333 00       		.byte	0
 665 0334 0D       		.uleb128 0xd
 666 0335 04       		.byte	0x4
 667 0336 03       		.uleb128 0x3
 668 0337 2B030000 		.4byte	.LASF63
 669 033b 07       		.byte	0x7
 670 033c 61       		.byte	0x61
 671 033d 41030000 		.4byte	0x341
 672 0341 0A       		.uleb128 0xa
 673 0342 DF030000 		.4byte	.LASF64
 674 0346 14       		.byte	0x14
 675 0347 08       		.byte	0x8
 676 0348 6B01     		.2byte	0x16b
 677 034a 90030000 		.4byte	0x390
 678 034e 08       		.uleb128 0x8
 679 034f AB010000 		.4byte	.LASF65
 680 0353 08       		.byte	0x8
 681 0354 6C01     		.2byte	0x16c
 682 0356 EC060000 		.4byte	0x6ec
 683 035a 00       		.byte	0
 684 035b 08       		.uleb128 0x8
ARM GAS  /var/folders/m4/4md61f0s1_g0rzfghffqnxvr0000gn/T//ccizzNmz.s 			page 13


 685 035c 63010000 		.4byte	.LASF66
 686 0360 08       		.byte	0x8
 687 0361 6D01     		.2byte	0x16d
 688 0363 EC060000 		.4byte	0x6ec
 689 0367 04       		.byte	0x4
 690 0368 08       		.uleb128 0x8
 691 0369 C1010000 		.4byte	.LASF67
 692 036d 08       		.byte	0x8
 693 036e 6E01     		.2byte	0x16e
 694 0370 31010000 		.4byte	0x131
 695 0374 08       		.byte	0x8
 696 0375 08       		.uleb128 0x8
 697 0376 3E060000 		.4byte	.LASF68
 698 037a 08       		.byte	0x8
 699 037b 6F01     		.2byte	0x16f
 700 037d 18030000 		.4byte	0x318
 701 0381 0C       		.byte	0xc
 702 0382 08       		.uleb128 0x8
 703 0383 BD050000 		.4byte	.LASF69
 704 0387 08       		.byte	0x8
 705 0388 7101     		.2byte	0x171
 706 038a 34030000 		.4byte	0x334
 707 038e 10       		.byte	0x10
 708 038f 00       		.byte	0
 709 0390 03       		.uleb128 0x3
 710 0391 91000000 		.4byte	.LASF70
 711 0395 07       		.byte	0x7
 712 0396 66       		.byte	0x66
 713 0397 9B030000 		.4byte	0x39b
 714 039b 0A       		.uleb128 0xa
 715 039c AB020000 		.4byte	.LASF71
 716 03a0 10       		.byte	0x10
 717 03a1 08       		.byte	0x8
 718 03a2 7B01     		.2byte	0x17b
 719 03a4 DD030000 		.4byte	0x3dd
 720 03a8 08       		.uleb128 0x8
 721 03a9 AB010000 		.4byte	.LASF65
 722 03ad 08       		.byte	0x8
 723 03ae 7C01     		.2byte	0x17c
 724 03b0 EC060000 		.4byte	0x6ec
 725 03b4 00       		.byte	0
 726 03b5 08       		.uleb128 0x8
 727 03b6 63010000 		.4byte	.LASF66
 728 03ba 08       		.byte	0x8
 729 03bb 7E01     		.2byte	0x17e
 730 03bd EC060000 		.4byte	0x6ec
 731 03c1 04       		.byte	0x4
 732 03c2 08       		.uleb128 0x8
 733 03c3 C1010000 		.4byte	.LASF67
 734 03c7 08       		.byte	0x8
 735 03c8 8001     		.2byte	0x180
 736 03ca 31010000 		.4byte	0x131
 737 03ce 08       		.byte	0x8
 738 03cf 08       		.uleb128 0x8
 739 03d0 13060000 		.4byte	.LASF72
 740 03d4 08       		.byte	0x8
 741 03d5 8201     		.2byte	0x182
ARM GAS  /var/folders/m4/4md61f0s1_g0rzfghffqnxvr0000gn/T//ccizzNmz.s 			page 14


 742 03d7 E7060000 		.4byte	0x6e7
 743 03db 0C       		.byte	0xc
 744 03dc 00       		.byte	0
 745 03dd 03       		.uleb128 0x3
 746 03de 4D000000 		.4byte	.LASF73
 747 03e2 07       		.byte	0x7
 748 03e3 6B       		.byte	0x6b
 749 03e4 E8030000 		.4byte	0x3e8
 750 03e8 0A       		.uleb128 0xa
 751 03e9 6B010000 		.4byte	.LASF74
 752 03ed 04       		.byte	0x4
 753 03ee 08       		.byte	0x8
 754 03ef A201     		.2byte	0x1a2
 755 03f1 03040000 		.4byte	0x403
 756 03f5 08       		.uleb128 0x8
 757 03f6 9C050000 		.4byte	.LASF75
 758 03fa 08       		.byte	0x8
 759 03fb AA01     		.2byte	0x1aa
 760 03fd F2060000 		.4byte	0x6f2
 761 0401 00       		.byte	0
 762 0402 00       		.byte	0
 763 0403 03       		.uleb128 0x3
 764 0404 33020000 		.4byte	.LASF76
 765 0408 07       		.byte	0x7
 766 0409 70       		.byte	0x70
 767 040a 0E040000 		.4byte	0x40e
 768 040e 0E       		.uleb128 0xe
 769 040f 19010000 		.4byte	.LASF77
 770 0413 5802     		.2byte	0x258
 771 0415 08       		.byte	0x8
 772 0416 C201     		.2byte	0x1c2
 773 0418 6A040000 		.4byte	0x46a
 774 041c 08       		.uleb128 0x8
 775 041d F2050000 		.4byte	.LASF78
 776 0421 08       		.byte	0x8
 777 0422 C601     		.2byte	0x1c6
 778 0424 B1020000 		.4byte	0x2b1
 779 0428 00       		.byte	0
 780 0429 08       		.uleb128 0x8
 781 042a F6000000 		.4byte	.LASF79
 782 042e 08       		.byte	0x8
 783 042f CA01     		.2byte	0x1ca
 784 0431 90030000 		.4byte	0x390
 785 0435 1C       		.byte	0x1c
 786 0436 07       		.uleb128 0x7
 787 0437 64626700 		.ascii	"dbg\000"
 788 043b 08       		.byte	0x8
 789 043c CE01     		.2byte	0x1ce
 790 043e DD030000 		.4byte	0x3dd
 791 0442 2C       		.byte	0x2c
 792 0443 08       		.uleb128 0x8
 793 0444 86000000 		.4byte	.LASF80
 794 0448 08       		.byte	0x8
 795 0449 D201     		.2byte	0x1d2
 796 044b 3C010000 		.4byte	0x13c
 797 044f 30       		.byte	0x30
 798 0450 07       		.uleb128 0x7
ARM GAS  /var/folders/m4/4md61f0s1_g0rzfghffqnxvr0000gn/T//ccizzNmz.s 			page 15


 799 0451 746D00   		.ascii	"tm\000"
 800 0454 08       		.byte	0x8
 801 0455 D701     		.2byte	0x1d7
 802 0457 05060000 		.4byte	0x605
 803 045b 78       		.byte	0x78
 804 045c 08       		.uleb128 0x8
 805 045d 89010000 		.4byte	.LASF81
 806 0461 08       		.byte	0x8
 807 0462 E301     		.2byte	0x1e3
 808 0464 F7060000 		.4byte	0x6f7
 809 0468 80       		.byte	0x80
 810 0469 00       		.byte	0
 811 046a 04       		.uleb128 0x4
 812 046b 04       		.byte	0x4
 813 046c 07       		.byte	0x7
 814 046d 8F020000 		.4byte	.LASF82
 815 0471 03       		.uleb128 0x3
 816 0472 5A010000 		.4byte	.LASF83
 817 0476 09       		.byte	0x9
 818 0477 65       		.byte	0x65
 819 0478 34030000 		.4byte	0x334
 820 047c 03       		.uleb128 0x3
 821 047d 6B020000 		.4byte	.LASF84
 822 0481 09       		.byte	0x9
 823 0482 6D       		.byte	0x6d
 824 0483 C3000000 		.4byte	0xc3
 825 0487 05       		.uleb128 0x5
 826 0488 AD050000 		.4byte	.LASF85
 827 048c 04       		.byte	0x4
 828 048d 09       		.byte	0x9
 829 048e 89       		.byte	0x89
 830 048f A0040000 		.4byte	0x4a0
 831 0493 0F       		.uleb128 0xf
 832 0494 72313300 		.ascii	"r13\000"
 833 0498 09       		.byte	0x9
 834 0499 8A       		.byte	0x8a
 835 049a EA050000 		.4byte	0x5ea
 836 049e 00       		.byte	0
 837 049f 00       		.byte	0
 838 04a0 05       		.uleb128 0x5
 839 04a1 41000000 		.4byte	.LASF86
 840 04a5 64       		.byte	0x64
 841 04a6 0A       		.byte	0xa
 842 04a7 FD       		.byte	0xfd
 843 04a8 EA050000 		.4byte	0x5ea
 844 04ac 0F       		.uleb128 0xf
 845 04ad 73313600 		.ascii	"s16\000"
 846 04b1 0A       		.byte	0xa
 847 04b2 FF       		.byte	0xff
 848 04b3 71040000 		.4byte	0x471
 849 04b7 00       		.byte	0
 850 04b8 07       		.uleb128 0x7
 851 04b9 73313700 		.ascii	"s17\000"
 852 04bd 0A       		.byte	0xa
 853 04be 0001     		.2byte	0x100
 854 04c0 71040000 		.4byte	0x471
 855 04c4 04       		.byte	0x4
ARM GAS  /var/folders/m4/4md61f0s1_g0rzfghffqnxvr0000gn/T//ccizzNmz.s 			page 16


 856 04c5 07       		.uleb128 0x7
 857 04c6 73313800 		.ascii	"s18\000"
 858 04ca 0A       		.byte	0xa
 859 04cb 0101     		.2byte	0x101
 860 04cd 71040000 		.4byte	0x471
 861 04d1 08       		.byte	0x8
 862 04d2 07       		.uleb128 0x7
 863 04d3 73313900 		.ascii	"s19\000"
 864 04d7 0A       		.byte	0xa
 865 04d8 0201     		.2byte	0x102
 866 04da 71040000 		.4byte	0x471
 867 04de 0C       		.byte	0xc
 868 04df 07       		.uleb128 0x7
 869 04e0 73323000 		.ascii	"s20\000"
 870 04e4 0A       		.byte	0xa
 871 04e5 0301     		.2byte	0x103
 872 04e7 71040000 		.4byte	0x471
 873 04eb 10       		.byte	0x10
 874 04ec 07       		.uleb128 0x7
 875 04ed 73323100 		.ascii	"s21\000"
 876 04f1 0A       		.byte	0xa
 877 04f2 0401     		.2byte	0x104
 878 04f4 71040000 		.4byte	0x471
 879 04f8 14       		.byte	0x14
 880 04f9 07       		.uleb128 0x7
 881 04fa 73323200 		.ascii	"s22\000"
 882 04fe 0A       		.byte	0xa
 883 04ff 0501     		.2byte	0x105
 884 0501 71040000 		.4byte	0x471
 885 0505 18       		.byte	0x18
 886 0506 07       		.uleb128 0x7
 887 0507 73323300 		.ascii	"s23\000"
 888 050b 0A       		.byte	0xa
 889 050c 0601     		.2byte	0x106
 890 050e 71040000 		.4byte	0x471
 891 0512 1C       		.byte	0x1c
 892 0513 07       		.uleb128 0x7
 893 0514 73323400 		.ascii	"s24\000"
 894 0518 0A       		.byte	0xa
 895 0519 0701     		.2byte	0x107
 896 051b 71040000 		.4byte	0x471
 897 051f 20       		.byte	0x20
 898 0520 07       		.uleb128 0x7
 899 0521 73323500 		.ascii	"s25\000"
 900 0525 0A       		.byte	0xa
 901 0526 0801     		.2byte	0x108
 902 0528 71040000 		.4byte	0x471
 903 052c 24       		.byte	0x24
 904 052d 07       		.uleb128 0x7
 905 052e 73323600 		.ascii	"s26\000"
 906 0532 0A       		.byte	0xa
 907 0533 0901     		.2byte	0x109
 908 0535 71040000 		.4byte	0x471
 909 0539 28       		.byte	0x28
 910 053a 07       		.uleb128 0x7
 911 053b 73323700 		.ascii	"s27\000"
 912 053f 0A       		.byte	0xa
ARM GAS  /var/folders/m4/4md61f0s1_g0rzfghffqnxvr0000gn/T//ccizzNmz.s 			page 17


 913 0540 0A01     		.2byte	0x10a
 914 0542 71040000 		.4byte	0x471
 915 0546 2C       		.byte	0x2c
 916 0547 07       		.uleb128 0x7
 917 0548 73323800 		.ascii	"s28\000"
 918 054c 0A       		.byte	0xa
 919 054d 0B01     		.2byte	0x10b
 920 054f 71040000 		.4byte	0x471
 921 0553 30       		.byte	0x30
 922 0554 07       		.uleb128 0x7
 923 0555 73323900 		.ascii	"s29\000"
 924 0559 0A       		.byte	0xa
 925 055a 0C01     		.2byte	0x10c
 926 055c 71040000 		.4byte	0x471
 927 0560 34       		.byte	0x34
 928 0561 07       		.uleb128 0x7
 929 0562 73333000 		.ascii	"s30\000"
 930 0566 0A       		.byte	0xa
 931 0567 0D01     		.2byte	0x10d
 932 0569 71040000 		.4byte	0x471
 933 056d 38       		.byte	0x38
 934 056e 07       		.uleb128 0x7
 935 056f 73333100 		.ascii	"s31\000"
 936 0573 0A       		.byte	0xa
 937 0574 0E01     		.2byte	0x10e
 938 0576 71040000 		.4byte	0x471
 939 057a 3C       		.byte	0x3c
 940 057b 07       		.uleb128 0x7
 941 057c 723400   		.ascii	"r4\000"
 942 057f 0A       		.byte	0xa
 943 0580 1001     		.2byte	0x110
 944 0582 71040000 		.4byte	0x471
 945 0586 40       		.byte	0x40
 946 0587 07       		.uleb128 0x7
 947 0588 723500   		.ascii	"r5\000"
 948 058b 0A       		.byte	0xa
 949 058c 1101     		.2byte	0x111
 950 058e 71040000 		.4byte	0x471
 951 0592 44       		.byte	0x44
 952 0593 07       		.uleb128 0x7
 953 0594 723600   		.ascii	"r6\000"
 954 0597 0A       		.byte	0xa
 955 0598 1201     		.2byte	0x112
 956 059a 71040000 		.4byte	0x471
 957 059e 48       		.byte	0x48
 958 059f 07       		.uleb128 0x7
 959 05a0 723700   		.ascii	"r7\000"
 960 05a3 0A       		.byte	0xa
 961 05a4 1301     		.2byte	0x113
 962 05a6 71040000 		.4byte	0x471
 963 05aa 4C       		.byte	0x4c
 964 05ab 07       		.uleb128 0x7
 965 05ac 723800   		.ascii	"r8\000"
 966 05af 0A       		.byte	0xa
 967 05b0 1401     		.2byte	0x114
 968 05b2 71040000 		.4byte	0x471
 969 05b6 50       		.byte	0x50
ARM GAS  /var/folders/m4/4md61f0s1_g0rzfghffqnxvr0000gn/T//ccizzNmz.s 			page 18


 970 05b7 07       		.uleb128 0x7
 971 05b8 723900   		.ascii	"r9\000"
 972 05bb 0A       		.byte	0xa
 973 05bc 1501     		.2byte	0x115
 974 05be 71040000 		.4byte	0x471
 975 05c2 54       		.byte	0x54
 976 05c3 07       		.uleb128 0x7
 977 05c4 72313000 		.ascii	"r10\000"
 978 05c8 0A       		.byte	0xa
 979 05c9 1601     		.2byte	0x116
 980 05cb 71040000 		.4byte	0x471
 981 05cf 58       		.byte	0x58
 982 05d0 07       		.uleb128 0x7
 983 05d1 72313100 		.ascii	"r11\000"
 984 05d5 0A       		.byte	0xa
 985 05d6 1701     		.2byte	0x117
 986 05d8 71040000 		.4byte	0x471
 987 05dc 5C       		.byte	0x5c
 988 05dd 07       		.uleb128 0x7
 989 05de 6C7200   		.ascii	"lr\000"
 990 05e1 0A       		.byte	0xa
 991 05e2 1801     		.2byte	0x118
 992 05e4 71040000 		.4byte	0x471
 993 05e8 60       		.byte	0x60
 994 05e9 00       		.byte	0
 995 05ea 09       		.uleb128 0x9
 996 05eb 04       		.byte	0x4
 997 05ec A0040000 		.4byte	0x4a0
 998 05f0 10       		.uleb128 0x10
 999 05f1 04       		.byte	0x4
 1000 05f2 0B       		.byte	0xb
 1001 05f3 38       		.byte	0x38
 1002 05f4 05060000 		.4byte	0x605
 1003 05f8 06       		.uleb128 0x6
 1004 05f9 A6050000 		.4byte	.LASF87
 1005 05fd 0B       		.byte	0xb
 1006 05fe 3C       		.byte	0x3c
 1007 05ff CE000000 		.4byte	0xce
 1008 0603 00       		.byte	0
 1009 0604 00       		.byte	0
 1010 0605 03       		.uleb128 0x3
 1011 0606 F5020000 		.4byte	.LASF88
 1012 060a 0B       		.byte	0xb
 1013 060b 3D       		.byte	0x3d
 1014 060c F0050000 		.4byte	0x5f0
 1015 0610 11       		.uleb128 0x11
 1016 0611 04       		.byte	0x4
 1017 0612 08       		.byte	0x8
 1018 0613 FA       		.byte	0xfa
 1019 0614 6D060000 		.4byte	0x66d
 1020 0618 12       		.uleb128 0x12
 1021 0619 1B000000 		.4byte	.LASF89
 1022 061d 08       		.byte	0x8
 1023 061e 0101     		.2byte	0x101
 1024 0620 10010000 		.4byte	0x110
 1025 0624 12       		.uleb128 0x12
 1026 0625 7D000000 		.4byte	.LASF90
ARM GAS  /var/folders/m4/4md61f0s1_g0rzfghffqnxvr0000gn/T//ccizzNmz.s 			page 19


 1027 0629 08       		.byte	0x8
 1028 062a 0801     		.2byte	0x108
 1029 062c 10010000 		.4byte	0x110
 1030 0630 12       		.uleb128 0x12
 1031 0631 00060000 		.4byte	.LASF91
 1032 0635 08       		.byte	0x8
 1033 0636 0F01     		.2byte	0x10f
 1034 0638 34030000 		.4byte	0x334
 1035 063c 12       		.uleb128 0x12
 1036 063d 13010000 		.4byte	.LASF92
 1037 0641 08       		.byte	0x8
 1038 0642 1601     		.2byte	0x116
 1039 0644 6D060000 		.4byte	0x66d
 1040 0648 12       		.uleb128 0x12
 1041 0649 BA010000 		.4byte	.LASF93
 1042 064d 08       		.byte	0x8
 1043 064e 1E01     		.2byte	0x11e
 1044 0650 98060000 		.4byte	0x698
 1045 0654 12       		.uleb128 0x12
 1046 0655 11040000 		.4byte	.LASF94
 1047 0659 08       		.byte	0x8
 1048 065a 2701     		.2byte	0x127
 1049 065c CF060000 		.4byte	0x6cf
 1050 0660 12       		.uleb128 0x12
 1051 0661 B6030000 		.4byte	.LASF95
 1052 0665 08       		.byte	0x8
 1053 0666 2F01     		.2byte	0x12f
 1054 0668 1B010000 		.4byte	0x11b
 1055 066c 00       		.byte	0
 1056 066d 09       		.uleb128 0x9
 1057 066e 04       		.byte	0x4
 1058 066f 4C020000 		.4byte	0x24c
 1059 0673 05       		.uleb128 0x5
 1060 0674 F0030000 		.4byte	.LASF96
 1061 0678 0C       		.byte	0xc
 1062 0679 0C       		.byte	0xc
 1063 067a 34       		.byte	0x34
 1064 067b 98060000 		.4byte	0x698
 1065 067f 06       		.uleb128 0x6
 1066 0680 3D010000 		.4byte	.LASF97
 1067 0684 0C       		.byte	0xc
 1068 0685 35       		.byte	0x35
 1069 0686 81020000 		.4byte	0x281
 1070 068a 00       		.byte	0
 1071 068b 06       		.uleb128 0x6
 1072 068c D5010000 		.4byte	.LASF98
 1073 0690 0C       		.byte	0xc
 1074 0691 37       		.byte	0x37
 1075 0692 26010000 		.4byte	0x126
 1076 0696 08       		.byte	0x8
 1077 0697 00       		.byte	0
 1078 0698 09       		.uleb128 0x9
 1079 0699 04       		.byte	0x4
 1080 069a 73060000 		.4byte	0x673
 1081 069e 05       		.uleb128 0x5
 1082 069f E2050000 		.4byte	.LASF99
 1083 06a3 10       		.byte	0x10
ARM GAS  /var/folders/m4/4md61f0s1_g0rzfghffqnxvr0000gn/T//ccizzNmz.s 			page 20


 1084 06a4 0D       		.byte	0xd
 1085 06a5 39       		.byte	0x39
 1086 06a6 CF060000 		.4byte	0x6cf
 1087 06aa 06       		.uleb128 0x6
 1088 06ab EE000000 		.4byte	.LASF100
 1089 06af 0D       		.byte	0xd
 1090 06b0 3A       		.byte	0x3a
 1091 06b1 81020000 		.4byte	0x281
 1092 06b5 00       		.byte	0
 1093 06b6 06       		.uleb128 0x6
 1094 06b7 30060000 		.4byte	.LASF101
 1095 06bb 0D       		.byte	0xd
 1096 06bc 3C       		.byte	0x3c
 1097 06bd 57020000 		.4byte	0x257
 1098 06c1 08       		.byte	0x8
 1099 06c2 06       		.uleb128 0x6
 1100 06c3 5E050000 		.4byte	.LASF102
 1101 06c7 0D       		.byte	0xd
 1102 06c8 3E       		.byte	0x3e
 1103 06c9 12070000 		.4byte	0x712
 1104 06cd 0C       		.byte	0xc
 1105 06ce 00       		.byte	0
 1106 06cf 09       		.uleb128 0x9
 1107 06d0 04       		.byte	0x4
 1108 06d1 9E060000 		.4byte	0x69e
 1109 06d5 09       		.uleb128 0x9
 1110 06d6 04       		.byte	0x4
 1111 06d7 E2060000 		.4byte	0x6e2
 1112 06db 04       		.uleb128 0x4
 1113 06dc 01       		.byte	0x1
 1114 06dd 08       		.byte	0x8
 1115 06de 42040000 		.4byte	.LASF103
 1116 06e2 13       		.uleb128 0x13
 1117 06e3 DB060000 		.4byte	0x6db
 1118 06e7 14       		.uleb128 0x14
 1119 06e8 31010000 		.4byte	0x131
 1120 06ec 09       		.uleb128 0x9
 1121 06ed 04       		.byte	0x4
 1122 06ee 36030000 		.4byte	0x336
 1123 06f2 14       		.uleb128 0x14
 1124 06f3 D5060000 		.4byte	0x6d5
 1125 06f7 15       		.uleb128 0x15
 1126 06f8 7C040000 		.4byte	0x47c
 1127 06fc 07070000 		.4byte	0x707
 1128 0700 16       		.uleb128 0x16
 1129 0701 6A040000 		.4byte	0x46a
 1130 0705 3A       		.byte	0x3a
 1131 0706 00       		.byte	0
 1132 0707 03       		.uleb128 0x3
 1133 0708 7B010000 		.4byte	.LASF104
 1134 070c 0D       		.byte	0xd
 1135 070d 34       		.byte	0x34
 1136 070e 9E060000 		.4byte	0x69e
 1137 0712 09       		.uleb128 0x9
 1138 0713 04       		.byte	0x4
 1139 0714 07070000 		.4byte	0x707
 1140 0718 09       		.uleb128 0x9
ARM GAS  /var/folders/m4/4md61f0s1_g0rzfghffqnxvr0000gn/T//ccizzNmz.s 			page 21


 1141 0719 04       		.byte	0x4
 1142 071a A2000000 		.4byte	0xa2
 1143 071e 17       		.uleb128 0x17
 1144 071f 8E050000 		.4byte	.LASF107
 1145 0723 02       		.byte	0x2
 1146 0724 2202     		.2byte	0x222
 1147 0726 03       		.byte	0x3
 1148 0727 38070000 		.4byte	0x738
 1149 072b 18       		.uleb128 0x18
 1150 072c 83010000 		.4byte	.LASF109
 1151 0730 02       		.byte	0x2
 1152 0731 2202     		.2byte	0x222
 1153 0733 B8000000 		.4byte	0xb8
 1154 0737 00       		.byte	0
 1155 0738 19       		.uleb128 0x19
 1156 0739 5C000000 		.4byte	.LASF105
 1157 073d 0A       		.byte	0xa
 1158 073e C801     		.2byte	0x1c8
 1159 0740 03       		.byte	0x3
 1160 0741 19       		.uleb128 0x19
 1161 0742 FD000000 		.4byte	.LASF106
 1162 0746 0A       		.byte	0xa
 1163 0747 E001     		.2byte	0x1e0
 1164 0749 03       		.byte	0x3
 1165 074a 17       		.uleb128 0x17
 1166 074b 1E060000 		.4byte	.LASF108
 1167 074f 0E       		.byte	0xe
 1168 0750 6601     		.2byte	0x166
 1169 0752 03       		.byte	0x3
 1170 0753 65070000 		.4byte	0x765
 1171 0757 1A       		.uleb128 0x1a
 1172 0758 CC030000 		.4byte	.LASF111
 1173 075c 75070000 		.4byte	0x775
 1174 0760 1E060000 		.4byte	.LASF108
 1175 0764 00       		.byte	0
 1176 0765 15       		.uleb128 0x15
 1177 0766 DB060000 		.4byte	0x6db
 1178 076a 75070000 		.4byte	0x775
 1179 076e 16       		.uleb128 0x16
 1180 076f 6A040000 		.4byte	0x46a
 1181 0773 0B       		.byte	0xb
 1182 0774 00       		.byte	0
 1183 0775 13       		.uleb128 0x13
 1184 0776 65070000 		.4byte	0x765
 1185 077a 1B       		.uleb128 0x1b
 1186 077b 45010000 		.4byte	.LASF121
 1187 077f 01       		.byte	0x1
 1188 0780 83       		.byte	0x83
 1189 0781 34030000 		.4byte	0x334
 1190 0785 01       		.byte	0x1
 1191 0786 9F070000 		.4byte	0x79f
 1192 078a 1C       		.uleb128 0x1c
 1193 078b 0E060000 		.4byte	.LASF110
 1194 078f 01       		.byte	0x1
 1195 0790 83       		.byte	0x83
 1196 0791 2C000000 		.4byte	0x2c
 1197 0795 1D       		.uleb128 0x1d
ARM GAS  /var/folders/m4/4md61f0s1_g0rzfghffqnxvr0000gn/T//ccizzNmz.s 			page 22


 1198 0796 7000     		.ascii	"p\000"
 1199 0798 01       		.byte	0x1
 1200 0799 84       		.byte	0x84
 1201 079a 34030000 		.4byte	0x334
 1202 079e 00       		.byte	0
 1203 079f 19       		.uleb128 0x19
 1204 07a0 D5030000 		.4byte	.LASF112
 1205 07a4 0E       		.byte	0xe
 1206 07a5 5A01     		.2byte	0x15a
 1207 07a7 03       		.byte	0x3
 1208 07a8 1E       		.uleb128 0x1e
 1209 07a9 71030000 		.4byte	.LASF122
 1210 07ad 01       		.byte	0x1
 1211 07ae 4E       		.byte	0x4e
 1212 07af 00000000 		.4byte	.LFB231
 1213 07b3 28000000 		.4byte	.LFE231-.LFB231
 1214 07b7 01       		.uleb128 0x1
 1215 07b8 9C       		.byte	0x9c
 1216 07b9 D4070000 		.4byte	0x7d4
 1217 07bd 1F       		.uleb128 0x1f
 1218 07be C4050000 		.4byte	.LASF113
 1219 07c2 01       		.byte	0x1
 1220 07c3 50       		.byte	0x50
 1221 07c4 D4070000 		.4byte	0x7d4
 1222 07c8 1F       		.uleb128 0x1f
 1223 07c9 A2030000 		.4byte	.LASF114
 1224 07cd 01       		.byte	0x1
 1225 07ce 51       		.byte	0x51
 1226 07cf D4070000 		.4byte	0x7d4
 1227 07d3 00       		.byte	0
 1228 07d4 15       		.uleb128 0x15
 1229 07d5 A2000000 		.4byte	0xa2
 1230 07d9 DF070000 		.4byte	0x7df
 1231 07dd 20       		.uleb128 0x20
 1232 07de 00       		.byte	0
 1233 07df 21       		.uleb128 0x21
 1234 07e0 2B000000 		.4byte	.LASF123
 1235 07e4 01       		.byte	0x1
 1236 07e5 6D       		.byte	0x6d
 1237 07e6 34030000 		.4byte	0x334
 1238 07ea 00000000 		.4byte	.LFB232
 1239 07ee 38000000 		.4byte	.LFE232-.LFB232
 1240 07f2 01       		.uleb128 0x1
 1241 07f3 9C       		.byte	0x9c
 1242 07f4 C8080000 		.4byte	0x8c8
 1243 07f8 22       		.uleb128 0x22
 1244 07f9 0E060000 		.4byte	.LASF110
 1245 07fd 01       		.byte	0x1
 1246 07fe 6D       		.byte	0x6d
 1247 07ff 2C000000 		.4byte	0x2c
 1248 0803 00000000 		.4byte	.LLST0
 1249 0807 1D       		.uleb128 0x1d
 1250 0808 7000     		.ascii	"p\000"
 1251 080a 01       		.byte	0x1
 1252 080b 6E       		.byte	0x6e
 1253 080c 34030000 		.4byte	0x334
 1254 0810 23       		.uleb128 0x23
ARM GAS  /var/folders/m4/4md61f0s1_g0rzfghffqnxvr0000gn/T//ccizzNmz.s 			page 23


 1255 0811 9F070000 		.4byte	0x79f
 1256 0815 02000000 		.4byte	.LBB26
 1257 0819 06000000 		.4byte	.LBE26-.LBB26
 1258 081d 01       		.byte	0x1
 1259 081e 70       		.byte	0x70
 1260 081f 4F080000 		.4byte	0x84f
 1261 0823 24       		.uleb128 0x24
 1262 0824 38070000 		.4byte	0x738
 1263 0828 02000000 		.4byte	.LBB27
 1264 082c 06000000 		.4byte	.LBE27-.LBB27
 1265 0830 0E       		.byte	0xe
 1266 0831 5C01     		.2byte	0x15c
 1267 0833 24       		.uleb128 0x24
 1268 0834 1E070000 		.4byte	0x71e
 1269 0838 02000000 		.4byte	.LBB28
 1270 083c 06000000 		.4byte	.LBE28-.LBB28
 1271 0840 0A       		.byte	0xa
 1272 0841 D001     		.2byte	0x1d0
 1273 0843 25       		.uleb128 0x25
 1274 0844 2B070000 		.4byte	0x72b
 1275 0848 21000000 		.4byte	.LLST1
 1276 084c 00       		.byte	0
 1277 084d 00       		.byte	0
 1278 084e 00       		.byte	0
 1279 084f 23       		.uleb128 0x23
 1280 0850 7A070000 		.4byte	0x77a
 1281 0854 08000000 		.4byte	.LBB30
 1282 0858 1C000000 		.4byte	.LBE30-.LBB30
 1283 085c 01       		.byte	0x1
 1284 085d 71       		.byte	0x71
 1285 085e 7D080000 		.4byte	0x87d
 1286 0862 25       		.uleb128 0x25
 1287 0863 8A070000 		.4byte	0x78a
 1288 0867 36000000 		.4byte	.LLST2
 1289 086b 26       		.uleb128 0x26
 1290 086c 08000000 		.4byte	.LBB31
 1291 0870 1C000000 		.4byte	.LBE31-.LBB31
 1292 0874 27       		.uleb128 0x27
 1293 0875 95070000 		.4byte	0x795
 1294 0879 01       		.uleb128 0x1
 1295 087a 52       		.byte	0x52
 1296 087b 00       		.byte	0
 1297 087c 00       		.byte	0
 1298 087d 28       		.uleb128 0x28
 1299 087e 4A070000 		.4byte	0x74a
 1300 0882 24000000 		.4byte	.LBB32
 1301 0886 06000000 		.4byte	.LBE32-.LBB32
 1302 088a 01       		.byte	0x1
 1303 088b 72       		.byte	0x72
 1304 088c 26       		.uleb128 0x26
 1305 088d 24000000 		.4byte	.LBB33
 1306 0891 06000000 		.4byte	.LBE33-.LBB33
 1307 0895 29       		.uleb128 0x29
 1308 0896 57070000 		.4byte	0x757
 1309 089a 24       		.uleb128 0x24
 1310 089b 41070000 		.4byte	0x741
 1311 089f 24000000 		.4byte	.LBB34
ARM GAS  /var/folders/m4/4md61f0s1_g0rzfghffqnxvr0000gn/T//ccizzNmz.s 			page 24


 1312 08a3 06000000 		.4byte	.LBE34-.LBB34
 1313 08a7 0E       		.byte	0xe
 1314 08a8 7301     		.2byte	0x173
 1315 08aa 24       		.uleb128 0x24
 1316 08ab 1E070000 		.4byte	0x71e
 1317 08af 24000000 		.4byte	.LBB35
 1318 08b3 06000000 		.4byte	.LBE35-.LBB35
 1319 08b7 0A       		.byte	0xa
 1320 08b8 E301     		.2byte	0x1e3
 1321 08ba 25       		.uleb128 0x25
 1322 08bb 2B070000 		.4byte	0x72b
 1323 08bf 77000000 		.4byte	.LLST3
 1324 08c3 00       		.byte	0
 1325 08c4 00       		.byte	0
 1326 08c5 00       		.byte	0
 1327 08c6 00       		.byte	0
 1328 08c7 00       		.byte	0
 1329 08c8 2A       		.uleb128 0x2a
 1330 08c9 7A070000 		.4byte	0x77a
 1331 08cd 00000000 		.4byte	.LFB233
 1332 08d1 2C000000 		.4byte	.LFE233-.LFB233
 1333 08d5 01       		.uleb128 0x1
 1334 08d6 9C       		.byte	0x9c
 1335 08d7 EC080000 		.4byte	0x8ec
 1336 08db 25       		.uleb128 0x25
 1337 08dc 8A070000 		.4byte	0x78a
 1338 08e0 8B000000 		.4byte	.LLST4
 1339 08e4 27       		.uleb128 0x27
 1340 08e5 95070000 		.4byte	0x795
 1341 08e9 01       		.uleb128 0x1
 1342 08ea 52       		.byte	0x52
 1343 08eb 00       		.byte	0
 1344 08ec 2B       		.uleb128 0x2b
 1345 08ed 4A030000 		.4byte	.LASF124
 1346 08f1 01       		.byte	0x1
 1347 08f2 9B       		.byte	0x9b
 1348 08f3 2C000000 		.4byte	0x2c
 1349 08f7 00000000 		.4byte	.LFB234
 1350 08fb 14000000 		.4byte	.LFE234-.LFB234
 1351 08ff 01       		.uleb128 0x1
 1352 0900 9C       		.byte	0x9c
 1353 0901 2C       		.uleb128 0x2c
 1354 0902 56050000 		.4byte	.LASF115
 1355 0906 01       		.byte	0x1
 1356 0907 3E       		.byte	0x3e
 1357 0908 18070000 		.4byte	0x718
 1358 090c 05       		.uleb128 0x5
 1359 090d 03       		.byte	0x3
 1360 090e 00000000 		.4byte	nextmem
 1361 0912 2C       		.uleb128 0x2c
 1362 0913 00000000 		.4byte	.LASF116
 1363 0917 01       		.byte	0x1
 1364 0918 3F       		.byte	0x3f
 1365 0919 18070000 		.4byte	0x718
 1366 091d 05       		.uleb128 0x5
 1367 091e 03       		.byte	0x3
 1368 091f 00000000 		.4byte	endmem
ARM GAS  /var/folders/m4/4md61f0s1_g0rzfghffqnxvr0000gn/T//ccizzNmz.s 			page 25


 1369 0923 2D       		.uleb128 0x2d
 1370 0924 A7000000 		.4byte	.LASF117
 1371 0928 0F       		.byte	0xf
 1372 0929 FA06     		.2byte	0x6fa
 1373 092b 2F090000 		.4byte	0x92f
 1374 092f 14       		.uleb128 0x14
 1375 0930 AD000000 		.4byte	0xad
 1376 0934 2E       		.uleb128 0x2e
 1377 0935 636800   		.ascii	"ch\000"
 1378 0938 08       		.byte	0x8
 1379 0939 0902     		.2byte	0x209
 1380 093b 03040000 		.4byte	0x403
 1381 093f 1F       		.uleb128 0x1f
 1382 0940 C4050000 		.4byte	.LASF113
 1383 0944 01       		.byte	0x1
 1384 0945 50       		.byte	0x50
 1385 0946 D4070000 		.4byte	0x7d4
 1386 094a 1F       		.uleb128 0x1f
 1387 094b A2030000 		.4byte	.LASF114
 1388 094f 01       		.byte	0x1
 1389 0950 51       		.byte	0x51
 1390 0951 D4070000 		.4byte	0x7d4
 1391 0955 00       		.byte	0
 1392              		.section	.debug_abbrev,"",%progbits
 1393              	.Ldebug_abbrev0:
 1394 0000 01       		.uleb128 0x1
 1395 0001 11       		.uleb128 0x11
 1396 0002 01       		.byte	0x1
 1397 0003 25       		.uleb128 0x25
 1398 0004 0E       		.uleb128 0xe
 1399 0005 13       		.uleb128 0x13
 1400 0006 0B       		.uleb128 0xb
 1401 0007 03       		.uleb128 0x3
 1402 0008 0E       		.uleb128 0xe
 1403 0009 1B       		.uleb128 0x1b
 1404 000a 0E       		.uleb128 0xe
 1405 000b 55       		.uleb128 0x55
 1406 000c 17       		.uleb128 0x17
 1407 000d 11       		.uleb128 0x11
 1408 000e 01       		.uleb128 0x1
 1409 000f 10       		.uleb128 0x10
 1410 0010 17       		.uleb128 0x17
 1411 0011 00       		.byte	0
 1412 0012 00       		.byte	0
 1413 0013 02       		.uleb128 0x2
 1414 0014 24       		.uleb128 0x24
 1415 0015 00       		.byte	0
 1416 0016 0B       		.uleb128 0xb
 1417 0017 0B       		.uleb128 0xb
 1418 0018 3E       		.uleb128 0x3e
 1419 0019 0B       		.uleb128 0xb
 1420 001a 03       		.uleb128 0x3
 1421 001b 08       		.uleb128 0x8
 1422 001c 00       		.byte	0
 1423 001d 00       		.byte	0
 1424 001e 03       		.uleb128 0x3
 1425 001f 16       		.uleb128 0x16
ARM GAS  /var/folders/m4/4md61f0s1_g0rzfghffqnxvr0000gn/T//ccizzNmz.s 			page 26


 1426 0020 00       		.byte	0
 1427 0021 03       		.uleb128 0x3
 1428 0022 0E       		.uleb128 0xe
 1429 0023 3A       		.uleb128 0x3a
 1430 0024 0B       		.uleb128 0xb
 1431 0025 3B       		.uleb128 0x3b
 1432 0026 0B       		.uleb128 0xb
 1433 0027 49       		.uleb128 0x49
 1434 0028 13       		.uleb128 0x13
 1435 0029 00       		.byte	0
 1436 002a 00       		.byte	0
 1437 002b 04       		.uleb128 0x4
 1438 002c 24       		.uleb128 0x24
 1439 002d 00       		.byte	0
 1440 002e 0B       		.uleb128 0xb
 1441 002f 0B       		.uleb128 0xb
 1442 0030 3E       		.uleb128 0x3e
 1443 0031 0B       		.uleb128 0xb
 1444 0032 03       		.uleb128 0x3
 1445 0033 0E       		.uleb128 0xe
 1446 0034 00       		.byte	0
 1447 0035 00       		.byte	0
 1448 0036 05       		.uleb128 0x5
 1449 0037 13       		.uleb128 0x13
 1450 0038 01       		.byte	0x1
 1451 0039 03       		.uleb128 0x3
 1452 003a 0E       		.uleb128 0xe
 1453 003b 0B       		.uleb128 0xb
 1454 003c 0B       		.uleb128 0xb
 1455 003d 3A       		.uleb128 0x3a
 1456 003e 0B       		.uleb128 0xb
 1457 003f 3B       		.uleb128 0x3b
 1458 0040 0B       		.uleb128 0xb
 1459 0041 01       		.uleb128 0x1
 1460 0042 13       		.uleb128 0x13
 1461 0043 00       		.byte	0
 1462 0044 00       		.byte	0
 1463 0045 06       		.uleb128 0x6
 1464 0046 0D       		.uleb128 0xd
 1465 0047 00       		.byte	0
 1466 0048 03       		.uleb128 0x3
 1467 0049 0E       		.uleb128 0xe
 1468 004a 3A       		.uleb128 0x3a
 1469 004b 0B       		.uleb128 0xb
 1470 004c 3B       		.uleb128 0x3b
 1471 004d 0B       		.uleb128 0xb
 1472 004e 49       		.uleb128 0x49
 1473 004f 13       		.uleb128 0x13
 1474 0050 38       		.uleb128 0x38
 1475 0051 0B       		.uleb128 0xb
 1476 0052 00       		.byte	0
 1477 0053 00       		.byte	0
 1478 0054 07       		.uleb128 0x7
 1479 0055 0D       		.uleb128 0xd
 1480 0056 00       		.byte	0
 1481 0057 03       		.uleb128 0x3
 1482 0058 08       		.uleb128 0x8
ARM GAS  /var/folders/m4/4md61f0s1_g0rzfghffqnxvr0000gn/T//ccizzNmz.s 			page 27


 1483 0059 3A       		.uleb128 0x3a
 1484 005a 0B       		.uleb128 0xb
 1485 005b 3B       		.uleb128 0x3b
 1486 005c 05       		.uleb128 0x5
 1487 005d 49       		.uleb128 0x49
 1488 005e 13       		.uleb128 0x13
 1489 005f 38       		.uleb128 0x38
 1490 0060 0B       		.uleb128 0xb
 1491 0061 00       		.byte	0
 1492 0062 00       		.byte	0
 1493 0063 08       		.uleb128 0x8
 1494 0064 0D       		.uleb128 0xd
 1495 0065 00       		.byte	0
 1496 0066 03       		.uleb128 0x3
 1497 0067 0E       		.uleb128 0xe
 1498 0068 3A       		.uleb128 0x3a
 1499 0069 0B       		.uleb128 0xb
 1500 006a 3B       		.uleb128 0x3b
 1501 006b 05       		.uleb128 0x5
 1502 006c 49       		.uleb128 0x49
 1503 006d 13       		.uleb128 0x13
 1504 006e 38       		.uleb128 0x38
 1505 006f 0B       		.uleb128 0xb
 1506 0070 00       		.byte	0
 1507 0071 00       		.byte	0
 1508 0072 09       		.uleb128 0x9
 1509 0073 0F       		.uleb128 0xf
 1510 0074 00       		.byte	0
 1511 0075 0B       		.uleb128 0xb
 1512 0076 0B       		.uleb128 0xb
 1513 0077 49       		.uleb128 0x49
 1514 0078 13       		.uleb128 0x13
 1515 0079 00       		.byte	0
 1516 007a 00       		.byte	0
 1517 007b 0A       		.uleb128 0xa
 1518 007c 13       		.uleb128 0x13
 1519 007d 01       		.byte	0x1
 1520 007e 03       		.uleb128 0x3
 1521 007f 0E       		.uleb128 0xe
 1522 0080 0B       		.uleb128 0xb
 1523 0081 0B       		.uleb128 0xb
 1524 0082 3A       		.uleb128 0x3a
 1525 0083 0B       		.uleb128 0xb
 1526 0084 3B       		.uleb128 0x3b
 1527 0085 05       		.uleb128 0x5
 1528 0086 01       		.uleb128 0x1
 1529 0087 13       		.uleb128 0x13
 1530 0088 00       		.byte	0
 1531 0089 00       		.byte	0
 1532 008a 0B       		.uleb128 0xb
 1533 008b 15       		.uleb128 0x15
 1534 008c 01       		.byte	0x1
 1535 008d 27       		.uleb128 0x27
 1536 008e 19       		.uleb128 0x19
 1537 008f 01       		.uleb128 0x1
 1538 0090 13       		.uleb128 0x13
 1539 0091 00       		.byte	0
ARM GAS  /var/folders/m4/4md61f0s1_g0rzfghffqnxvr0000gn/T//ccizzNmz.s 			page 28


 1540 0092 00       		.byte	0
 1541 0093 0C       		.uleb128 0xc
 1542 0094 05       		.uleb128 0x5
 1543 0095 00       		.byte	0
 1544 0096 49       		.uleb128 0x49
 1545 0097 13       		.uleb128 0x13
 1546 0098 00       		.byte	0
 1547 0099 00       		.byte	0
 1548 009a 0D       		.uleb128 0xd
 1549 009b 0F       		.uleb128 0xf
 1550 009c 00       		.byte	0
 1551 009d 0B       		.uleb128 0xb
 1552 009e 0B       		.uleb128 0xb
 1553 009f 00       		.byte	0
 1554 00a0 00       		.byte	0
 1555 00a1 0E       		.uleb128 0xe
 1556 00a2 13       		.uleb128 0x13
 1557 00a3 01       		.byte	0x1
 1558 00a4 03       		.uleb128 0x3
 1559 00a5 0E       		.uleb128 0xe
 1560 00a6 0B       		.uleb128 0xb
 1561 00a7 05       		.uleb128 0x5
 1562 00a8 3A       		.uleb128 0x3a
 1563 00a9 0B       		.uleb128 0xb
 1564 00aa 3B       		.uleb128 0x3b
 1565 00ab 05       		.uleb128 0x5
 1566 00ac 01       		.uleb128 0x1
 1567 00ad 13       		.uleb128 0x13
 1568 00ae 00       		.byte	0
 1569 00af 00       		.byte	0
 1570 00b0 0F       		.uleb128 0xf
 1571 00b1 0D       		.uleb128 0xd
 1572 00b2 00       		.byte	0
 1573 00b3 03       		.uleb128 0x3
 1574 00b4 08       		.uleb128 0x8
 1575 00b5 3A       		.uleb128 0x3a
 1576 00b6 0B       		.uleb128 0xb
 1577 00b7 3B       		.uleb128 0x3b
 1578 00b8 0B       		.uleb128 0xb
 1579 00b9 49       		.uleb128 0x49
 1580 00ba 13       		.uleb128 0x13
 1581 00bb 38       		.uleb128 0x38
 1582 00bc 0B       		.uleb128 0xb
 1583 00bd 00       		.byte	0
 1584 00be 00       		.byte	0
 1585 00bf 10       		.uleb128 0x10
 1586 00c0 13       		.uleb128 0x13
 1587 00c1 01       		.byte	0x1
 1588 00c2 0B       		.uleb128 0xb
 1589 00c3 0B       		.uleb128 0xb
 1590 00c4 3A       		.uleb128 0x3a
 1591 00c5 0B       		.uleb128 0xb
 1592 00c6 3B       		.uleb128 0x3b
 1593 00c7 0B       		.uleb128 0xb
 1594 00c8 01       		.uleb128 0x1
 1595 00c9 13       		.uleb128 0x13
 1596 00ca 00       		.byte	0
ARM GAS  /var/folders/m4/4md61f0s1_g0rzfghffqnxvr0000gn/T//ccizzNmz.s 			page 29


 1597 00cb 00       		.byte	0
 1598 00cc 11       		.uleb128 0x11
 1599 00cd 17       		.uleb128 0x17
 1600 00ce 01       		.byte	0x1
 1601 00cf 0B       		.uleb128 0xb
 1602 00d0 0B       		.uleb128 0xb
 1603 00d1 3A       		.uleb128 0x3a
 1604 00d2 0B       		.uleb128 0xb
 1605 00d3 3B       		.uleb128 0x3b
 1606 00d4 0B       		.uleb128 0xb
 1607 00d5 01       		.uleb128 0x1
 1608 00d6 13       		.uleb128 0x13
 1609 00d7 00       		.byte	0
 1610 00d8 00       		.byte	0
 1611 00d9 12       		.uleb128 0x12
 1612 00da 0D       		.uleb128 0xd
 1613 00db 00       		.byte	0
 1614 00dc 03       		.uleb128 0x3
 1615 00dd 0E       		.uleb128 0xe
 1616 00de 3A       		.uleb128 0x3a
 1617 00df 0B       		.uleb128 0xb
 1618 00e0 3B       		.uleb128 0x3b
 1619 00e1 05       		.uleb128 0x5
 1620 00e2 49       		.uleb128 0x49
 1621 00e3 13       		.uleb128 0x13
 1622 00e4 00       		.byte	0
 1623 00e5 00       		.byte	0
 1624 00e6 13       		.uleb128 0x13
 1625 00e7 26       		.uleb128 0x26
 1626 00e8 00       		.byte	0
 1627 00e9 49       		.uleb128 0x49
 1628 00ea 13       		.uleb128 0x13
 1629 00eb 00       		.byte	0
 1630 00ec 00       		.byte	0
 1631 00ed 14       		.uleb128 0x14
 1632 00ee 35       		.uleb128 0x35
 1633 00ef 00       		.byte	0
 1634 00f0 49       		.uleb128 0x49
 1635 00f1 13       		.uleb128 0x13
 1636 00f2 00       		.byte	0
 1637 00f3 00       		.byte	0
 1638 00f4 15       		.uleb128 0x15
 1639 00f5 01       		.uleb128 0x1
 1640 00f6 01       		.byte	0x1
 1641 00f7 49       		.uleb128 0x49
 1642 00f8 13       		.uleb128 0x13
 1643 00f9 01       		.uleb128 0x1
 1644 00fa 13       		.uleb128 0x13
 1645 00fb 00       		.byte	0
 1646 00fc 00       		.byte	0
 1647 00fd 16       		.uleb128 0x16
 1648 00fe 21       		.uleb128 0x21
 1649 00ff 00       		.byte	0
 1650 0100 49       		.uleb128 0x49
 1651 0101 13       		.uleb128 0x13
 1652 0102 2F       		.uleb128 0x2f
 1653 0103 0B       		.uleb128 0xb
ARM GAS  /var/folders/m4/4md61f0s1_g0rzfghffqnxvr0000gn/T//ccizzNmz.s 			page 30


 1654 0104 00       		.byte	0
 1655 0105 00       		.byte	0
 1656 0106 17       		.uleb128 0x17
 1657 0107 2E       		.uleb128 0x2e
 1658 0108 01       		.byte	0x1
 1659 0109 03       		.uleb128 0x3
 1660 010a 0E       		.uleb128 0xe
 1661 010b 3A       		.uleb128 0x3a
 1662 010c 0B       		.uleb128 0xb
 1663 010d 3B       		.uleb128 0x3b
 1664 010e 05       		.uleb128 0x5
 1665 010f 27       		.uleb128 0x27
 1666 0110 19       		.uleb128 0x19
 1667 0111 20       		.uleb128 0x20
 1668 0112 0B       		.uleb128 0xb
 1669 0113 01       		.uleb128 0x1
 1670 0114 13       		.uleb128 0x13
 1671 0115 00       		.byte	0
 1672 0116 00       		.byte	0
 1673 0117 18       		.uleb128 0x18
 1674 0118 05       		.uleb128 0x5
 1675 0119 00       		.byte	0
 1676 011a 03       		.uleb128 0x3
 1677 011b 0E       		.uleb128 0xe
 1678 011c 3A       		.uleb128 0x3a
 1679 011d 0B       		.uleb128 0xb
 1680 011e 3B       		.uleb128 0x3b
 1681 011f 05       		.uleb128 0x5
 1682 0120 49       		.uleb128 0x49
 1683 0121 13       		.uleb128 0x13
 1684 0122 00       		.byte	0
 1685 0123 00       		.byte	0
 1686 0124 19       		.uleb128 0x19
 1687 0125 2E       		.uleb128 0x2e
 1688 0126 00       		.byte	0
 1689 0127 03       		.uleb128 0x3
 1690 0128 0E       		.uleb128 0xe
 1691 0129 3A       		.uleb128 0x3a
 1692 012a 0B       		.uleb128 0xb
 1693 012b 3B       		.uleb128 0x3b
 1694 012c 05       		.uleb128 0x5
 1695 012d 27       		.uleb128 0x27
 1696 012e 19       		.uleb128 0x19
 1697 012f 20       		.uleb128 0x20
 1698 0130 0B       		.uleb128 0xb
 1699 0131 00       		.byte	0
 1700 0132 00       		.byte	0
 1701 0133 1A       		.uleb128 0x1a
 1702 0134 34       		.uleb128 0x34
 1703 0135 00       		.byte	0
 1704 0136 03       		.uleb128 0x3
 1705 0137 0E       		.uleb128 0xe
 1706 0138 49       		.uleb128 0x49
 1707 0139 13       		.uleb128 0x13
 1708 013a 34       		.uleb128 0x34
 1709 013b 19       		.uleb128 0x19
 1710 013c 1C       		.uleb128 0x1c
ARM GAS  /var/folders/m4/4md61f0s1_g0rzfghffqnxvr0000gn/T//ccizzNmz.s 			page 31


 1711 013d 0E       		.uleb128 0xe
 1712 013e 00       		.byte	0
 1713 013f 00       		.byte	0
 1714 0140 1B       		.uleb128 0x1b
 1715 0141 2E       		.uleb128 0x2e
 1716 0142 01       		.byte	0x1
 1717 0143 3F       		.uleb128 0x3f
 1718 0144 19       		.uleb128 0x19
 1719 0145 03       		.uleb128 0x3
 1720 0146 0E       		.uleb128 0xe
 1721 0147 3A       		.uleb128 0x3a
 1722 0148 0B       		.uleb128 0xb
 1723 0149 3B       		.uleb128 0x3b
 1724 014a 0B       		.uleb128 0xb
 1725 014b 27       		.uleb128 0x27
 1726 014c 19       		.uleb128 0x19
 1727 014d 49       		.uleb128 0x49
 1728 014e 13       		.uleb128 0x13
 1729 014f 20       		.uleb128 0x20
 1730 0150 0B       		.uleb128 0xb
 1731 0151 01       		.uleb128 0x1
 1732 0152 13       		.uleb128 0x13
 1733 0153 00       		.byte	0
 1734 0154 00       		.byte	0
 1735 0155 1C       		.uleb128 0x1c
 1736 0156 05       		.uleb128 0x5
 1737 0157 00       		.byte	0
 1738 0158 03       		.uleb128 0x3
 1739 0159 0E       		.uleb128 0xe
 1740 015a 3A       		.uleb128 0x3a
 1741 015b 0B       		.uleb128 0xb
 1742 015c 3B       		.uleb128 0x3b
 1743 015d 0B       		.uleb128 0xb
 1744 015e 49       		.uleb128 0x49
 1745 015f 13       		.uleb128 0x13
 1746 0160 00       		.byte	0
 1747 0161 00       		.byte	0
 1748 0162 1D       		.uleb128 0x1d
 1749 0163 34       		.uleb128 0x34
 1750 0164 00       		.byte	0
 1751 0165 03       		.uleb128 0x3
 1752 0166 08       		.uleb128 0x8
 1753 0167 3A       		.uleb128 0x3a
 1754 0168 0B       		.uleb128 0xb
 1755 0169 3B       		.uleb128 0x3b
 1756 016a 0B       		.uleb128 0xb
 1757 016b 49       		.uleb128 0x49
 1758 016c 13       		.uleb128 0x13
 1759 016d 00       		.byte	0
 1760 016e 00       		.byte	0
 1761 016f 1E       		.uleb128 0x1e
 1762 0170 2E       		.uleb128 0x2e
 1763 0171 01       		.byte	0x1
 1764 0172 3F       		.uleb128 0x3f
 1765 0173 19       		.uleb128 0x19
 1766 0174 03       		.uleb128 0x3
 1767 0175 0E       		.uleb128 0xe
ARM GAS  /var/folders/m4/4md61f0s1_g0rzfghffqnxvr0000gn/T//ccizzNmz.s 			page 32


 1768 0176 3A       		.uleb128 0x3a
 1769 0177 0B       		.uleb128 0xb
 1770 0178 3B       		.uleb128 0x3b
 1771 0179 0B       		.uleb128 0xb
 1772 017a 27       		.uleb128 0x27
 1773 017b 19       		.uleb128 0x19
 1774 017c 11       		.uleb128 0x11
 1775 017d 01       		.uleb128 0x1
 1776 017e 12       		.uleb128 0x12
 1777 017f 06       		.uleb128 0x6
 1778 0180 40       		.uleb128 0x40
 1779 0181 18       		.uleb128 0x18
 1780 0182 9742     		.uleb128 0x2117
 1781 0184 19       		.uleb128 0x19
 1782 0185 01       		.uleb128 0x1
 1783 0186 13       		.uleb128 0x13
 1784 0187 00       		.byte	0
 1785 0188 00       		.byte	0
 1786 0189 1F       		.uleb128 0x1f
 1787 018a 34       		.uleb128 0x34
 1788 018b 00       		.byte	0
 1789 018c 03       		.uleb128 0x3
 1790 018d 0E       		.uleb128 0xe
 1791 018e 3A       		.uleb128 0x3a
 1792 018f 0B       		.uleb128 0xb
 1793 0190 3B       		.uleb128 0x3b
 1794 0191 0B       		.uleb128 0xb
 1795 0192 49       		.uleb128 0x49
 1796 0193 13       		.uleb128 0x13
 1797 0194 3F       		.uleb128 0x3f
 1798 0195 19       		.uleb128 0x19
 1799 0196 3C       		.uleb128 0x3c
 1800 0197 19       		.uleb128 0x19
 1801 0198 00       		.byte	0
 1802 0199 00       		.byte	0
 1803 019a 20       		.uleb128 0x20
 1804 019b 21       		.uleb128 0x21
 1805 019c 00       		.byte	0
 1806 019d 00       		.byte	0
 1807 019e 00       		.byte	0
 1808 019f 21       		.uleb128 0x21
 1809 01a0 2E       		.uleb128 0x2e
 1810 01a1 01       		.byte	0x1
 1811 01a2 3F       		.uleb128 0x3f
 1812 01a3 19       		.uleb128 0x19
 1813 01a4 03       		.uleb128 0x3
 1814 01a5 0E       		.uleb128 0xe
 1815 01a6 3A       		.uleb128 0x3a
 1816 01a7 0B       		.uleb128 0xb
 1817 01a8 3B       		.uleb128 0x3b
 1818 01a9 0B       		.uleb128 0xb
 1819 01aa 27       		.uleb128 0x27
 1820 01ab 19       		.uleb128 0x19
 1821 01ac 49       		.uleb128 0x49
 1822 01ad 13       		.uleb128 0x13
 1823 01ae 11       		.uleb128 0x11
 1824 01af 01       		.uleb128 0x1
ARM GAS  /var/folders/m4/4md61f0s1_g0rzfghffqnxvr0000gn/T//ccizzNmz.s 			page 33


 1825 01b0 12       		.uleb128 0x12
 1826 01b1 06       		.uleb128 0x6
 1827 01b2 40       		.uleb128 0x40
 1828 01b3 18       		.uleb128 0x18
 1829 01b4 9742     		.uleb128 0x2117
 1830 01b6 19       		.uleb128 0x19
 1831 01b7 01       		.uleb128 0x1
 1832 01b8 13       		.uleb128 0x13
 1833 01b9 00       		.byte	0
 1834 01ba 00       		.byte	0
 1835 01bb 22       		.uleb128 0x22
 1836 01bc 05       		.uleb128 0x5
 1837 01bd 00       		.byte	0
 1838 01be 03       		.uleb128 0x3
 1839 01bf 0E       		.uleb128 0xe
 1840 01c0 3A       		.uleb128 0x3a
 1841 01c1 0B       		.uleb128 0xb
 1842 01c2 3B       		.uleb128 0x3b
 1843 01c3 0B       		.uleb128 0xb
 1844 01c4 49       		.uleb128 0x49
 1845 01c5 13       		.uleb128 0x13
 1846 01c6 02       		.uleb128 0x2
 1847 01c7 17       		.uleb128 0x17
 1848 01c8 00       		.byte	0
 1849 01c9 00       		.byte	0
 1850 01ca 23       		.uleb128 0x23
 1851 01cb 1D       		.uleb128 0x1d
 1852 01cc 01       		.byte	0x1
 1853 01cd 31       		.uleb128 0x31
 1854 01ce 13       		.uleb128 0x13
 1855 01cf 11       		.uleb128 0x11
 1856 01d0 01       		.uleb128 0x1
 1857 01d1 12       		.uleb128 0x12
 1858 01d2 06       		.uleb128 0x6
 1859 01d3 58       		.uleb128 0x58
 1860 01d4 0B       		.uleb128 0xb
 1861 01d5 59       		.uleb128 0x59
 1862 01d6 0B       		.uleb128 0xb
 1863 01d7 01       		.uleb128 0x1
 1864 01d8 13       		.uleb128 0x13
 1865 01d9 00       		.byte	0
 1866 01da 00       		.byte	0
 1867 01db 24       		.uleb128 0x24
 1868 01dc 1D       		.uleb128 0x1d
 1869 01dd 01       		.byte	0x1
 1870 01de 31       		.uleb128 0x31
 1871 01df 13       		.uleb128 0x13
 1872 01e0 11       		.uleb128 0x11
 1873 01e1 01       		.uleb128 0x1
 1874 01e2 12       		.uleb128 0x12
 1875 01e3 06       		.uleb128 0x6
 1876 01e4 58       		.uleb128 0x58
 1877 01e5 0B       		.uleb128 0xb
 1878 01e6 59       		.uleb128 0x59
 1879 01e7 05       		.uleb128 0x5
 1880 01e8 00       		.byte	0
 1881 01e9 00       		.byte	0
ARM GAS  /var/folders/m4/4md61f0s1_g0rzfghffqnxvr0000gn/T//ccizzNmz.s 			page 34


 1882 01ea 25       		.uleb128 0x25
 1883 01eb 05       		.uleb128 0x5
 1884 01ec 00       		.byte	0
 1885 01ed 31       		.uleb128 0x31
 1886 01ee 13       		.uleb128 0x13
 1887 01ef 02       		.uleb128 0x2
 1888 01f0 17       		.uleb128 0x17
 1889 01f1 00       		.byte	0
 1890 01f2 00       		.byte	0
 1891 01f3 26       		.uleb128 0x26
 1892 01f4 0B       		.uleb128 0xb
 1893 01f5 01       		.byte	0x1
 1894 01f6 11       		.uleb128 0x11
 1895 01f7 01       		.uleb128 0x1
 1896 01f8 12       		.uleb128 0x12
 1897 01f9 06       		.uleb128 0x6
 1898 01fa 00       		.byte	0
 1899 01fb 00       		.byte	0
 1900 01fc 27       		.uleb128 0x27
 1901 01fd 34       		.uleb128 0x34
 1902 01fe 00       		.byte	0
 1903 01ff 31       		.uleb128 0x31
 1904 0200 13       		.uleb128 0x13
 1905 0201 02       		.uleb128 0x2
 1906 0202 18       		.uleb128 0x18
 1907 0203 00       		.byte	0
 1908 0204 00       		.byte	0
 1909 0205 28       		.uleb128 0x28
 1910 0206 1D       		.uleb128 0x1d
 1911 0207 01       		.byte	0x1
 1912 0208 31       		.uleb128 0x31
 1913 0209 13       		.uleb128 0x13
 1914 020a 11       		.uleb128 0x11
 1915 020b 01       		.uleb128 0x1
 1916 020c 12       		.uleb128 0x12
 1917 020d 06       		.uleb128 0x6
 1918 020e 58       		.uleb128 0x58
 1919 020f 0B       		.uleb128 0xb
 1920 0210 59       		.uleb128 0x59
 1921 0211 0B       		.uleb128 0xb
 1922 0212 00       		.byte	0
 1923 0213 00       		.byte	0
 1924 0214 29       		.uleb128 0x29
 1925 0215 34       		.uleb128 0x34
 1926 0216 00       		.byte	0
 1927 0217 31       		.uleb128 0x31
 1928 0218 13       		.uleb128 0x13
 1929 0219 00       		.byte	0
 1930 021a 00       		.byte	0
 1931 021b 2A       		.uleb128 0x2a
 1932 021c 2E       		.uleb128 0x2e
 1933 021d 01       		.byte	0x1
 1934 021e 31       		.uleb128 0x31
 1935 021f 13       		.uleb128 0x13
 1936 0220 11       		.uleb128 0x11
 1937 0221 01       		.uleb128 0x1
 1938 0222 12       		.uleb128 0x12
ARM GAS  /var/folders/m4/4md61f0s1_g0rzfghffqnxvr0000gn/T//ccizzNmz.s 			page 35


 1939 0223 06       		.uleb128 0x6
 1940 0224 40       		.uleb128 0x40
 1941 0225 18       		.uleb128 0x18
 1942 0226 9742     		.uleb128 0x2117
 1943 0228 19       		.uleb128 0x19
 1944 0229 01       		.uleb128 0x1
 1945 022a 13       		.uleb128 0x13
 1946 022b 00       		.byte	0
 1947 022c 00       		.byte	0
 1948 022d 2B       		.uleb128 0x2b
 1949 022e 2E       		.uleb128 0x2e
 1950 022f 00       		.byte	0
 1951 0230 3F       		.uleb128 0x3f
 1952 0231 19       		.uleb128 0x19
 1953 0232 03       		.uleb128 0x3
 1954 0233 0E       		.uleb128 0xe
 1955 0234 3A       		.uleb128 0x3a
 1956 0235 0B       		.uleb128 0xb
 1957 0236 3B       		.uleb128 0x3b
 1958 0237 0B       		.uleb128 0xb
 1959 0238 27       		.uleb128 0x27
 1960 0239 19       		.uleb128 0x19
 1961 023a 49       		.uleb128 0x49
 1962 023b 13       		.uleb128 0x13
 1963 023c 11       		.uleb128 0x11
 1964 023d 01       		.uleb128 0x1
 1965 023e 12       		.uleb128 0x12
 1966 023f 06       		.uleb128 0x6
 1967 0240 40       		.uleb128 0x40
 1968 0241 18       		.uleb128 0x18
 1969 0242 9742     		.uleb128 0x2117
 1970 0244 19       		.uleb128 0x19
 1971 0245 00       		.byte	0
 1972 0246 00       		.byte	0
 1973 0247 2C       		.uleb128 0x2c
 1974 0248 34       		.uleb128 0x34
 1975 0249 00       		.byte	0
 1976 024a 03       		.uleb128 0x3
 1977 024b 0E       		.uleb128 0xe
 1978 024c 3A       		.uleb128 0x3a
 1979 024d 0B       		.uleb128 0xb
 1980 024e 3B       		.uleb128 0x3b
 1981 024f 0B       		.uleb128 0xb
 1982 0250 49       		.uleb128 0x49
 1983 0251 13       		.uleb128 0x13
 1984 0252 02       		.uleb128 0x2
 1985 0253 18       		.uleb128 0x18
 1986 0254 00       		.byte	0
 1987 0255 00       		.byte	0
 1988 0256 2D       		.uleb128 0x2d
 1989 0257 34       		.uleb128 0x34
 1990 0258 00       		.byte	0
 1991 0259 03       		.uleb128 0x3
 1992 025a 0E       		.uleb128 0xe
 1993 025b 3A       		.uleb128 0x3a
 1994 025c 0B       		.uleb128 0xb
 1995 025d 3B       		.uleb128 0x3b
ARM GAS  /var/folders/m4/4md61f0s1_g0rzfghffqnxvr0000gn/T//ccizzNmz.s 			page 36


 1996 025e 05       		.uleb128 0x5
 1997 025f 49       		.uleb128 0x49
 1998 0260 13       		.uleb128 0x13
 1999 0261 3F       		.uleb128 0x3f
 2000 0262 19       		.uleb128 0x19
 2001 0263 3C       		.uleb128 0x3c
 2002 0264 19       		.uleb128 0x19
 2003 0265 00       		.byte	0
 2004 0266 00       		.byte	0
 2005 0267 2E       		.uleb128 0x2e
 2006 0268 34       		.uleb128 0x34
 2007 0269 00       		.byte	0
 2008 026a 03       		.uleb128 0x3
 2009 026b 08       		.uleb128 0x8
 2010 026c 3A       		.uleb128 0x3a
 2011 026d 0B       		.uleb128 0xb
 2012 026e 3B       		.uleb128 0x3b
 2013 026f 05       		.uleb128 0x5
 2014 0270 49       		.uleb128 0x49
 2015 0271 13       		.uleb128 0x13
 2016 0272 3F       		.uleb128 0x3f
 2017 0273 19       		.uleb128 0x19
 2018 0274 3C       		.uleb128 0x3c
 2019 0275 19       		.uleb128 0x19
 2020 0276 00       		.byte	0
 2021 0277 00       		.byte	0
 2022 0278 00       		.byte	0
 2023              		.section	.debug_loc,"",%progbits
 2024              	.Ldebug_loc0:
 2025              	.LLST0:
 2026 0000 00000000 		.4byte	.LVL0
 2027 0004 22000000 		.4byte	.LVL5
 2028 0008 0100     		.2byte	0x1
 2029 000a 50       		.byte	0x50
 2030 000b 22000000 		.4byte	.LVL5
 2031 000f 38000000 		.4byte	.LFE232
 2032 0013 0400     		.2byte	0x4
 2033 0015 F3       		.byte	0xf3
 2034 0016 01       		.uleb128 0x1
 2035 0017 50       		.byte	0x50
 2036 0018 9F       		.byte	0x9f
 2037 0019 00000000 		.4byte	0
 2038 001d 00000000 		.4byte	0
 2039              	.LLST1:
 2040 0021 00000000 		.4byte	.LVL0
 2041 0025 08000000 		.4byte	.LVL1
 2042 0029 0300     		.2byte	0x3
 2043 002b 08       		.byte	0x8
 2044 002c 20       		.byte	0x20
 2045 002d 9F       		.byte	0x9f
 2046 002e 00000000 		.4byte	0
 2047 0032 00000000 		.4byte	0
 2048              	.LLST2:
 2049 0036 08000000 		.4byte	.LVL1
 2050 003a 16000000 		.4byte	.LVL2
 2051 003e 0100     		.2byte	0x1
 2052 0040 50       		.byte	0x50
ARM GAS  /var/folders/m4/4md61f0s1_g0rzfghffqnxvr0000gn/T//ccizzNmz.s 			page 37


 2053 0041 16000000 		.4byte	.LVL2
 2054 0045 1E000000 		.4byte	.LVL4
 2055 0049 0100     		.2byte	0x1
 2056 004b 53       		.byte	0x53
 2057 004c 1E000000 		.4byte	.LVL4
 2058 0050 22000000 		.4byte	.LVL5
 2059 0054 0600     		.2byte	0x6
 2060 0056 70       		.byte	0x70
 2061 0057 07       		.sleb128 7
 2062 0058 09       		.byte	0x9
 2063 0059 F8       		.byte	0xf8
 2064 005a 1A       		.byte	0x1a
 2065 005b 9F       		.byte	0x9f
 2066 005c 22000000 		.4byte	.LVL5
 2067 0060 24000000 		.4byte	.LVL6
 2068 0064 0900     		.2byte	0x9
 2069 0066 F3       		.byte	0xf3
 2070 0067 01       		.uleb128 0x1
 2071 0068 50       		.byte	0x50
 2072 0069 23       		.byte	0x23
 2073 006a 07       		.uleb128 0x7
 2074 006b 09       		.byte	0x9
 2075 006c F8       		.byte	0xf8
 2076 006d 1A       		.byte	0x1a
 2077 006e 9F       		.byte	0x9f
 2078 006f 00000000 		.4byte	0
 2079 0073 00000000 		.4byte	0
 2080              	.LLST3:
 2081 0077 24000000 		.4byte	.LVL6
 2082 007b 2A000000 		.4byte	.LVL7
 2083 007f 0200     		.2byte	0x2
 2084 0081 30       		.byte	0x30
 2085 0082 9F       		.byte	0x9f
 2086 0083 00000000 		.4byte	0
 2087 0087 00000000 		.4byte	0
 2088              	.LLST4:
 2089 008b 00000000 		.4byte	.LVL8
 2090 008f 0C000000 		.4byte	.LVL9
 2091 0093 0100     		.2byte	0x1
 2092 0095 50       		.byte	0x50
 2093 0096 0C000000 		.4byte	.LVL9
 2094 009a 10000000 		.4byte	.LVL10
 2095 009e 0300     		.2byte	0x3
 2096 00a0 70       		.byte	0x70
 2097 00a1 79       		.sleb128 -7
 2098 00a2 9F       		.byte	0x9f
 2099 00a3 10000000 		.4byte	.LVL10
 2100 00a7 18000000 		.4byte	.LVL12
 2101 00ab 0100     		.2byte	0x1
 2102 00ad 53       		.byte	0x53
 2103 00ae 18000000 		.4byte	.LVL12
 2104 00b2 1C000000 		.4byte	.LVL13
 2105 00b6 0600     		.2byte	0x6
 2106 00b8 70       		.byte	0x70
 2107 00b9 00       		.sleb128 0
 2108 00ba 09       		.byte	0x9
 2109 00bb F8       		.byte	0xf8
ARM GAS  /var/folders/m4/4md61f0s1_g0rzfghffqnxvr0000gn/T//ccizzNmz.s 			page 38


 2110 00bc 1A       		.byte	0x1a
 2111 00bd 9F       		.byte	0x9f
 2112 00be 1C000000 		.4byte	.LVL13
 2113 00c2 2C000000 		.4byte	.LFE233
 2114 00c6 0900     		.2byte	0x9
 2115 00c8 F3       		.byte	0xf3
 2116 00c9 01       		.uleb128 0x1
 2117 00ca 50       		.byte	0x50
 2118 00cb 23       		.byte	0x23
 2119 00cc 07       		.uleb128 0x7
 2120 00cd 09       		.byte	0x9
 2121 00ce F8       		.byte	0xf8
 2122 00cf 1A       		.byte	0x1a
 2123 00d0 9F       		.byte	0x9f
 2124 00d1 00000000 		.4byte	0
 2125 00d5 00000000 		.4byte	0
 2126              		.section	.debug_aranges,"",%progbits
 2127 0000 34000000 		.4byte	0x34
 2128 0004 0200     		.2byte	0x2
 2129 0006 00000000 		.4byte	.Ldebug_info0
 2130 000a 04       		.byte	0x4
 2131 000b 00       		.byte	0
 2132 000c 0000     		.2byte	0
 2133 000e 0000     		.2byte	0
 2134 0010 00000000 		.4byte	.LFB231
 2135 0014 28000000 		.4byte	.LFE231-.LFB231
 2136 0018 00000000 		.4byte	.LFB232
 2137 001c 38000000 		.4byte	.LFE232-.LFB232
 2138 0020 00000000 		.4byte	.LFB233
 2139 0024 2C000000 		.4byte	.LFE233-.LFB233
 2140 0028 00000000 		.4byte	.LFB234
 2141 002c 14000000 		.4byte	.LFE234-.LFB234
 2142 0030 00000000 		.4byte	0
 2143 0034 00000000 		.4byte	0
 2144              		.section	.debug_ranges,"",%progbits
 2145              	.Ldebug_ranges0:
 2146 0000 00000000 		.4byte	.LFB231
 2147 0004 28000000 		.4byte	.LFE231
 2148 0008 00000000 		.4byte	.LFB232
 2149 000c 38000000 		.4byte	.LFE232
 2150 0010 00000000 		.4byte	.LFB233
 2151 0014 2C000000 		.4byte	.LFE233
 2152 0018 00000000 		.4byte	.LFB234
 2153 001c 14000000 		.4byte	.LFE234
 2154 0020 00000000 		.4byte	0
 2155 0024 00000000 		.4byte	0
 2156              		.section	.debug_line,"",%progbits
 2157              	.Ldebug_line0:
 2158 0000 74030000 		.section	.debug_str,"MS",%progbits,1
 2158      02000003 
 2158      00000201 
 2158      FB0E0D00 
 2158      01010101 
 2159              	.LASF116:
 2160 0000 656E646D 		.ascii	"endmem\000"
 2160      656D00
 2161              	.LASF54:
ARM GAS  /var/folders/m4/4md61f0s1_g0rzfghffqnxvr0000gn/T//ccizzNmz.s 			page 39


 2162 0007 72656164 		.ascii	"ready_list_t\000"
 2162      795F6C69 
 2162      73745F74 
 2162      00
 2163              	.LASF2:
 2164 0014 73697A65 		.ascii	"size_t\000"
 2164      5F7400
 2165              	.LASF89:
 2166 001b 7264796D 		.ascii	"rdymsg\000"
 2166      736700
 2167              	.LASF17:
 2168 0022 75696E74 		.ascii	"uint64_t\000"
 2168      36345F74 
 2168      00
 2169              	.LASF123:
 2170 002b 6368436F 		.ascii	"chCoreAlloc\000"
 2170      7265416C 
 2170      6C6F6300 
 2171              	.LASF3:
 2172 0037 5F5F7569 		.ascii	"__uint8_t\000"
 2172      6E74385F 
 2172      7400
 2173              	.LASF86:
 2174 0041 706F7274 		.ascii	"port_intctx\000"
 2174      5F696E74 
 2174      63747800 
 2175              	.LASF73:
 2176 004d 73797374 		.ascii	"system_debug_t\000"
 2176      656D5F64 
 2176      65627567 
 2176      5F7400
 2177              	.LASF105:
 2178 005c 706F7274 		.ascii	"port_lock\000"
 2178      5F6C6F63 
 2178      6B00
 2179              	.LASF13:
 2180 0066 6C6F6E67 		.ascii	"long long unsigned int\000"
 2180      206C6F6E 
 2180      6720756E 
 2180      7369676E 
 2180      65642069 
 2181              	.LASF90:
 2182 007d 65786974 		.ascii	"exitcode\000"
 2182      636F6465 
 2182      00
 2183              	.LASF80:
 2184 0086 6D61696E 		.ascii	"mainthread\000"
 2184      74687265 
 2184      616400
 2185              	.LASF70:
 2186 0091 76697274 		.ascii	"virtual_timers_list_t\000"
 2186      75616C5F 
 2186      74696D65 
 2186      72735F6C 
 2186      6973745F 
 2187              	.LASF117:
 2188 00a7 49544D5F 		.ascii	"ITM_RxBuffer\000"
ARM GAS  /var/folders/m4/4md61f0s1_g0rzfghffqnxvr0000gn/T//ccizzNmz.s 			page 40


 2188      52784275 
 2188      66666572 
 2188      00
 2189              	.LASF53:
 2190 00b4 63685F74 		.ascii	"ch_threads_queue\000"
 2190      68726561 
 2190      64735F71 
 2190      75657565 
 2190      00
 2191              	.LASF31:
 2192 00c5 705F7072 		.ascii	"p_prio\000"
 2192      696F00
 2193              	.LASF11:
 2194 00cc 6C6F6E67 		.ascii	"long long int\000"
 2194      206C6F6E 
 2194      6720696E 
 2194      7400
 2195              	.LASF1:
 2196 00da 7369676E 		.ascii	"signed char\000"
 2196      65642063 
 2196      68617200 
 2197              	.LASF47:
 2198 00e6 705F6D70 		.ascii	"p_mpool\000"
 2198      6F6F6C00 
 2199              	.LASF100:
 2200 00ee 6D5F7175 		.ascii	"m_queue\000"
 2200      65756500 
 2201              	.LASF79:
 2202 00f6 76746C69 		.ascii	"vtlist\000"
 2202      737400
 2203              	.LASF106:
 2204 00fd 706F7274 		.ascii	"port_unlock\000"
 2204      5F756E6C 
 2204      6F636B00 
 2205              	.LASF22:
 2206 0109 74736C69 		.ascii	"tslices_t\000"
 2206      6365735F 
 2206      7400
 2207              	.LASF92:
 2208 0113 77747472 		.ascii	"wttrp\000"
 2208      7000
 2209              	.LASF77:
 2210 0119 63685F73 		.ascii	"ch_system\000"
 2210      79737465 
 2210      6D00
 2211              	.LASF8:
 2212 0123 6C6F6E67 		.ascii	"long int\000"
 2212      20696E74 
 2212      00
 2213              	.LASF20:
 2214 012c 74737461 		.ascii	"tstate_t\000"
 2214      74655F74 
 2214      00
 2215              	.LASF33:
 2216 0135 705F6E65 		.ascii	"p_newer\000"
 2216      77657200 
 2217              	.LASF97:
ARM GAS  /var/folders/m4/4md61f0s1_g0rzfghffqnxvr0000gn/T//ccizzNmz.s 			page 41


 2218 013d 735F7175 		.ascii	"s_queue\000"
 2218      65756500 
 2219              	.LASF121:
 2220 0145 6368436F 		.ascii	"chCoreAllocI\000"
 2220      7265416C 
 2220      6C6F6349 
 2220      00
 2221              	.LASF59:
 2222 0152 725F6E65 		.ascii	"r_newer\000"
 2222      77657200 
 2223              	.LASF83:
 2224 015a 72656761 		.ascii	"regarm_t\000"
 2224      726D5F74 
 2224      00
 2225              	.LASF66:
 2226 0163 76745F70 		.ascii	"vt_prev\000"
 2226      72657600 
 2227              	.LASF74:
 2228 016b 63685F73 		.ascii	"ch_system_debug\000"
 2228      79737465 
 2228      6D5F6465 
 2228      62756700 
 2229              	.LASF104:
 2230 017b 6D757465 		.ascii	"mutex_t\000"
 2230      785F7400 
 2231              	.LASF109:
 2232 0183 76616C75 		.ascii	"value\000"
 2232      6500
 2233              	.LASF81:
 2234 0189 69646C65 		.ascii	"idle_thread_wa\000"
 2234      5F746872 
 2234      6561645F 
 2234      776100
 2235              	.LASF26:
 2236 0198 636E745F 		.ascii	"cnt_t\000"
 2236      7400
 2237              	.LASF0:
 2238 019e 756E7369 		.ascii	"unsigned int\000"
 2238      676E6564 
 2238      20696E74 
 2238      00
 2239              	.LASF65:
 2240 01ab 76745F6E 		.ascii	"vt_next\000"
 2240      65787400 
 2241              	.LASF40:
 2242 01b3 705F7469 		.ascii	"p_time\000"
 2242      6D6500
 2243              	.LASF93:
 2244 01ba 77747365 		.ascii	"wtsemp\000"
 2244      6D7000
 2245              	.LASF67:
 2246 01c1 76745F64 		.ascii	"vt_delta\000"
 2246      656C7461 
 2246      00
 2247              	.LASF42:
 2248 01ca 705F6D73 		.ascii	"p_msgqueue\000"
 2248      67717565 
ARM GAS  /var/folders/m4/4md61f0s1_g0rzfghffqnxvr0000gn/T//ccizzNmz.s 			page 42


 2248      756500
 2249              	.LASF98:
 2250 01d5 735F636E 		.ascii	"s_cnt\000"
 2250      7400
 2251              	.LASF6:
 2252 01db 73686F72 		.ascii	"short unsigned int\000"
 2252      7420756E 
 2252      7369676E 
 2252      65642069 
 2252      6E7400
 2253              	.LASF50:
 2254 01ee 63685F74 		.ascii	"ch_thread\000"
 2254      68726561 
 2254      6400
 2255              	.LASF24:
 2256 01f8 6D73675F 		.ascii	"msg_t\000"
 2256      7400
 2257              	.LASF120:
 2258 01fe 2F557365 		.ascii	"/Users/raphael/Documents/Projects/rESC/resc-firmwar"
 2258      72732F72 
 2258      61706861 
 2258      656C2F44 
 2258      6F63756D 
 2259 0231 6500     		.ascii	"e\000"
 2260              	.LASF76:
 2261 0233 63685F73 		.ascii	"ch_system_t\000"
 2261      79737465 
 2261      6D5F7400 
 2262              	.LASF19:
 2263 023f 746D6F64 		.ascii	"tmode_t\000"
 2263      655F7400 
 2264              	.LASF55:
 2265 0247 63685F72 		.ascii	"ch_ready_list\000"
 2265      65616479 
 2265      5F6C6973 
 2265      7400
 2266              	.LASF25:
 2267 0255 6576656E 		.ascii	"eventmask_t\000"
 2267      746D6173 
 2267      6B5F7400 
 2268              	.LASF7:
 2269 0261 5F5F696E 		.ascii	"__int32_t\000"
 2269      7433325F 
 2269      7400
 2270              	.LASF84:
 2271 026b 73746B61 		.ascii	"stkalign_t\000"
 2271      6C69676E 
 2271      5F7400
 2272              	.LASF49:
 2273 0276 74687265 		.ascii	"threads_list_t\000"
 2273      6164735F 
 2273      6C697374 
 2273      5F7400
 2274              	.LASF41:
 2275 0285 705F7761 		.ascii	"p_waiting\000"
 2275      6974696E 
 2275      6700
ARM GAS  /var/folders/m4/4md61f0s1_g0rzfghffqnxvr0000gn/T//ccizzNmz.s 			page 43


 2276              	.LASF82:
 2277 028f 73697A65 		.ascii	"sizetype\000"
 2277      74797065 
 2277      00
 2278              	.LASF48:
 2279 0298 74687265 		.ascii	"thread_reference_t\000"
 2279      61645F72 
 2279      65666572 
 2279      656E6365 
 2279      5F7400
 2280              	.LASF71:
 2281 02ab 63685F76 		.ascii	"ch_virtual_timers_list\000"
 2281      69727475 
 2281      616C5F74 
 2281      696D6572 
 2281      735F6C69 
 2282              	.LASF119:
 2283 02c2 43686962 		.ascii	"ChibiOS_16.1.4/os/rt/src/chmemcore.c\000"
 2283      694F535F 
 2283      31362E31 
 2283      2E342F6F 
 2283      732F7274 
 2284              	.LASF34:
 2285 02e7 705F6F6C 		.ascii	"p_older\000"
 2285      64657200 
 2286              	.LASF58:
 2287 02ef 725F6374 		.ascii	"r_ctx\000"
 2287      7800
 2288              	.LASF88:
 2289 02f5 746D5F63 		.ascii	"tm_calibration_t\000"
 2289      616C6962 
 2289      72617469 
 2289      6F6E5F74 
 2289      00
 2290              	.LASF61:
 2291 0306 725F6375 		.ascii	"r_current\000"
 2291      7272656E 
 2291      7400
 2292              	.LASF60:
 2293 0310 725F6F6C 		.ascii	"r_older\000"
 2293      64657200 
 2294              	.LASF12:
 2295 0318 5F5F7569 		.ascii	"__uint64_t\000"
 2295      6E743634 
 2295      5F7400
 2296              	.LASF21:
 2297 0323 74726566 		.ascii	"trefs_t\000"
 2297      735F7400 
 2298              	.LASF63:
 2299 032b 76697274 		.ascii	"virtual_timer_t\000"
 2299      75616C5F 
 2299      74696D65 
 2299      725F7400 
 2300              	.LASF30:
 2301 033b 705F7072 		.ascii	"p_prev\000"
 2301      657600
 2302              	.LASF23:
ARM GAS  /var/folders/m4/4md61f0s1_g0rzfghffqnxvr0000gn/T//ccizzNmz.s 			page 44


 2303 0342 74707269 		.ascii	"tprio_t\000"
 2303      6F5F7400 
 2304              	.LASF124:
 2305 034a 6368436F 		.ascii	"chCoreGetStatusX\000"
 2305      72654765 
 2305      74537461 
 2305      74757358 
 2305      00
 2306              	.LASF15:
 2307 035b 696E7433 		.ascii	"int32_t\000"
 2307      325F7400 
 2308              	.LASF4:
 2309 0363 756E7369 		.ascii	"unsigned char\000"
 2309      676E6564 
 2309      20636861 
 2309      7200
 2310              	.LASF122:
 2311 0371 5F636F72 		.ascii	"_core_init\000"
 2311      655F696E 
 2311      697400
 2312              	.LASF45:
 2313 037c 705F6D74 		.ascii	"p_mtxlist\000"
 2313      786C6973 
 2313      7400
 2314              	.LASF5:
 2315 0386 73686F72 		.ascii	"short int\000"
 2315      7420696E 
 2315      7400
 2316              	.LASF36:
 2317 0390 705F7374 		.ascii	"p_state\000"
 2317      61746500 
 2318              	.LASF39:
 2319 0398 705F7072 		.ascii	"p_preempt\000"
 2319      65656D70 
 2319      7400
 2320              	.LASF114:
 2321 03a2 5F5F6865 		.ascii	"__heap_end__\000"
 2321      61705F65 
 2321      6E645F5F 
 2321      00
 2322              	.LASF57:
 2323 03af 725F7072 		.ascii	"r_prio\000"
 2323      696F00
 2324              	.LASF95:
 2325 03b6 65776D61 		.ascii	"ewmask\000"
 2325      736B00
 2326              	.LASF29:
 2327 03bd 705F6E65 		.ascii	"p_next\000"
 2327      787400
 2328              	.LASF37:
 2329 03c4 705F666C 		.ascii	"p_flags\000"
 2329      61677300 
 2330              	.LASF111:
 2331 03cc 5F5F6675 		.ascii	"__func__\000"
 2331      6E635F5F 
 2331      00
 2332              	.LASF112:
ARM GAS  /var/folders/m4/4md61f0s1_g0rzfghffqnxvr0000gn/T//ccizzNmz.s 			page 45


 2333 03d5 63685379 		.ascii	"chSysLock\000"
 2333      734C6F63 
 2333      6B00
 2334              	.LASF64:
 2335 03df 63685F76 		.ascii	"ch_virtual_timer\000"
 2335      69727475 
 2335      616C5F74 
 2335      696D6572 
 2335      00
 2336              	.LASF96:
 2337 03f0 63685F73 		.ascii	"ch_semaphore\000"
 2337      656D6170 
 2337      686F7265 
 2337      00
 2338              	.LASF44:
 2339 03fd 705F6570 		.ascii	"p_epending\000"
 2339      656E6469 
 2339      6E6700
 2340              	.LASF16:
 2341 0408 75696E74 		.ascii	"uint32_t\000"
 2341      33325F74 
 2341      00
 2342              	.LASF94:
 2343 0411 77746D74 		.ascii	"wtmtxp\000"
 2343      787000
 2344              	.LASF56:
 2345 0418 725F7175 		.ascii	"r_queue\000"
 2345      65756500 
 2346              	.LASF51:
 2347 0420 63685F74 		.ascii	"ch_threads_list\000"
 2347      68726561 
 2347      64735F6C 
 2347      69737400 
 2348              	.LASF10:
 2349 0430 6C6F6E67 		.ascii	"long unsigned int\000"
 2349      20756E73 
 2349      69676E65 
 2349      6420696E 
 2349      7400
 2350              	.LASF103:
 2351 0442 63686172 		.ascii	"char\000"
 2351      00
 2352              	.LASF118:
 2353 0447 474E5520 		.ascii	"GNU C99 5.2.1 20151202 (release) [ARM/embedded-5-br"
 2353      43393920 
 2353      352E322E 
 2353      31203230 
 2353      31353132 
 2354 047a 616E6368 		.ascii	"anch revision 231848] -mcpu=cortex-m4 -mfloat-abi=h"
 2354      20726576 
 2354      6973696F 
 2354      6E203233 
 2354      31383438 
 2355 04ad 61726420 		.ascii	"ard -mfpu=fpv4-sp-d16 -mno-thumb-interwork -mthumb "
 2355      2D6D6670 
 2355      753D6670 
 2355      76342D73 
ARM GAS  /var/folders/m4/4md61f0s1_g0rzfghffqnxvr0000gn/T//ccizzNmz.s 			page 46


 2355      702D6431 
 2356 04e0 2D676764 		.ascii	"-ggdb -O2 -std=c99 -fomit-frame-pointer -falign-fun"
 2356      62202D4F 
 2356      32202D73 
 2356      74643D63 
 2356      3939202D 
 2357 0513 6374696F 		.ascii	"ctions=16 -ffunction-sections -fdata-sections -fno-"
 2357      6E733D31 
 2357      36202D66 
 2357      66756E63 
 2357      74696F6E 
 2358 0546 636F6D6D 		.ascii	"common\000"
 2358      6F6E00
 2359              	.LASF28:
 2360 054d 74687265 		.ascii	"thread_t\000"
 2360      61645F74 
 2360      00
 2361              	.LASF115:
 2362 0556 6E657874 		.ascii	"nextmem\000"
 2362      6D656D00 
 2363              	.LASF102:
 2364 055e 6D5F6E65 		.ascii	"m_next\000"
 2364      787400
 2365              	.LASF27:
 2366 0565 73797374 		.ascii	"systime_t\000"
 2366      696D655F 
 2366      7400
 2367              	.LASF46:
 2368 056f 705F7265 		.ascii	"p_realprio\000"
 2368      616C7072 
 2368      696F00
 2369              	.LASF62:
 2370 057a 76746675 		.ascii	"vtfunc_t\000"
 2370      6E635F74 
 2370      00
 2371              	.LASF9:
 2372 0583 5F5F7569 		.ascii	"__uint32_t\000"
 2372      6E743332 
 2372      5F7400
 2373              	.LASF107:
 2374 058e 5F5F7365 		.ascii	"__set_BASEPRI\000"
 2374      745F4241 
 2374      53455052 
 2374      4900
 2375              	.LASF75:
 2376 059c 70616E69 		.ascii	"panic_msg\000"
 2376      635F6D73 
 2376      6700
 2377              	.LASF87:
 2378 05a6 6F666673 		.ascii	"offset\000"
 2378      657400
 2379              	.LASF85:
 2380 05ad 636F6E74 		.ascii	"context\000"
 2380      65787400 
 2381              	.LASF18:
 2382 05b5 7274636E 		.ascii	"rtcnt_t\000"
 2382      745F7400 
ARM GAS  /var/folders/m4/4md61f0s1_g0rzfghffqnxvr0000gn/T//ccizzNmz.s 			page 47


 2383              	.LASF69:
 2384 05bd 76745F70 		.ascii	"vt_par\000"
 2384      617200
 2385              	.LASF113:
 2386 05c4 5F5F6865 		.ascii	"__heap_base__\000"
 2386      61705F62 
 2386      6173655F 
 2386      5F00
 2387              	.LASF52:
 2388 05d2 74687265 		.ascii	"threads_queue_t\000"
 2388      6164735F 
 2388      71756575 
 2388      655F7400 
 2389              	.LASF99:
 2390 05e2 63685F6D 		.ascii	"ch_mutex\000"
 2390      75746578 
 2390      00
 2391              	.LASF38:
 2392 05eb 705F7265 		.ascii	"p_refs\000"
 2392      667300
 2393              	.LASF78:
 2394 05f2 726C6973 		.ascii	"rlist\000"
 2394      7400
 2395              	.LASF14:
 2396 05f8 75696E74 		.ascii	"uint8_t\000"
 2396      385F7400 
 2397              	.LASF91:
 2398 0600 77746F62 		.ascii	"wtobjp\000"
 2398      6A7000
 2399              	.LASF35:
 2400 0607 705F6E61 		.ascii	"p_name\000"
 2400      6D6500
 2401              	.LASF110:
 2402 060e 73697A65 		.ascii	"size\000"
 2402      00
 2403              	.LASF72:
 2404 0613 76745F73 		.ascii	"vt_systime\000"
 2404      79737469 
 2404      6D6500
 2405              	.LASF108:
 2406 061e 63685379 		.ascii	"chSysUnlock\000"
 2406      73556E6C 
 2406      6F636B00 
 2407              	.LASF43:
 2408 062a 705F6D73 		.ascii	"p_msg\000"
 2408      6700
 2409              	.LASF101:
 2410 0630 6D5F6F77 		.ascii	"m_owner\000"
 2410      6E657200 
 2411              	.LASF32:
 2412 0638 705F6374 		.ascii	"p_ctx\000"
 2412      7800
 2413              	.LASF68:
 2414 063e 76745F66 		.ascii	"vt_func\000"
 2414      756E6300 
 2415              		.ident	"GCC: (GNU Tools for ARM Embedded Processors) 5.2.1 20151202 (release) [ARM/embedded-5-bran
ARM GAS  /var/folders/m4/4md61f0s1_g0rzfghffqnxvr0000gn/T//ccizzNmz.s 			page 48


DEFINED SYMBOLS
                            *ABS*:0000000000000000 chmemcore.c
/var/folders/m4/4md61f0s1_g0rzfghffqnxvr0000gn/T//ccizzNmz.s:22     .text._core_init:0000000000000000 $t
/var/folders/m4/4md61f0s1_g0rzfghffqnxvr0000gn/T//ccizzNmz.s:28     .text._core_init:0000000000000000 _core_init
/var/folders/m4/4md61f0s1_g0rzfghffqnxvr0000gn/T//ccizzNmz.s:56     .text._core_init:0000000000000018 $d
/var/folders/m4/4md61f0s1_g0rzfghffqnxvr0000gn/T//ccizzNmz.s:64     .text.chCoreAlloc:0000000000000000 $t
/var/folders/m4/4md61f0s1_g0rzfghffqnxvr0000gn/T//ccizzNmz.s:70     .text.chCoreAlloc:0000000000000000 chCoreAlloc
/var/folders/m4/4md61f0s1_g0rzfghffqnxvr0000gn/T//ccizzNmz.s:154    .text.chCoreAlloc:0000000000000030 $d
/var/folders/m4/4md61f0s1_g0rzfghffqnxvr0000gn/T//ccizzNmz.s:160    .text.chCoreAllocI:0000000000000000 $t
/var/folders/m4/4md61f0s1_g0rzfghffqnxvr0000gn/T//ccizzNmz.s:166    .text.chCoreAllocI:0000000000000000 chCoreAllocI
/var/folders/m4/4md61f0s1_g0rzfghffqnxvr0000gn/T//ccizzNmz.s:209    .text.chCoreAllocI:0000000000000024 $d
/var/folders/m4/4md61f0s1_g0rzfghffqnxvr0000gn/T//ccizzNmz.s:215    .text.chCoreGetStatusX:0000000000000000 $t
/var/folders/m4/4md61f0s1_g0rzfghffqnxvr0000gn/T//ccizzNmz.s:221    .text.chCoreGetStatusX:0000000000000000 chCoreGetStatusX
/var/folders/m4/4md61f0s1_g0rzfghffqnxvr0000gn/T//ccizzNmz.s:239    .text.chCoreGetStatusX:000000000000000c $d
/var/folders/m4/4md61f0s1_g0rzfghffqnxvr0000gn/T//ccizzNmz.s:245    .bss.endmem:0000000000000000 $d
/var/folders/m4/4md61f0s1_g0rzfghffqnxvr0000gn/T//ccizzNmz.s:249    .bss.endmem:0000000000000000 endmem
/var/folders/m4/4md61f0s1_g0rzfghffqnxvr0000gn/T//ccizzNmz.s:252    .bss.nextmem:0000000000000000 $d
/var/folders/m4/4md61f0s1_g0rzfghffqnxvr0000gn/T//ccizzNmz.s:256    .bss.nextmem:0000000000000000 nextmem
                     .debug_frame:0000000000000010 $d

UNDEFINED SYMBOLS
__heap_base__
__heap_end__
