ARM GAS  /var/folders/m4/4md61f0s1_g0rzfghffqnxvr0000gn/T//ccfPZNxl.s 			page 1


   1              		.syntax unified
   2              		.cpu cortex-m4
   3              		.eabi_attribute 27, 1
   4              		.eabi_attribute 28, 1
   5              		.fpu fpv4-sp-d16
   6              		.eabi_attribute 20, 1
   7              		.eabi_attribute 21, 1
   8              		.eabi_attribute 23, 3
   9              		.eabi_attribute 24, 1
  10              		.eabi_attribute 25, 1
  11              		.eabi_attribute 26, 1
  12              		.eabi_attribute 30, 2
  13              		.eabi_attribute 34, 1
  14              		.eabi_attribute 18, 4
  15              		.thumb
  16              		.syntax unified
  17              		.file	"chmempools.c"
  18              		.text
  19              	.Ltext0:
  20              		.cfi_sections	.debug_frame
  21              		.section	.text.chPoolObjectInit,"ax",%progbits
  22              		.align	2
  23              		.p2align 4,,15
  24              		.global	chPoolObjectInit
  25              		.thumb
  26              		.thumb_func
  27              		.type	chPoolObjectInit, %function
  28              	chPoolObjectInit:
  29              	.LFB231:
  30              		.file 1 "ChibiOS_16.1.4/os/rt/src/chmempools.c"
  31              		.loc 1 75 0
  32              		.cfi_startproc
  33              		@ args = 0, pretend = 0, frame = 0
  34              		@ frame_needed = 0, uses_anonymous_args = 0
  35              		@ link register save eliminated.
  36              	.LVL0:
  37              		.loc 1 79 0
  38 0000 0023     		movs	r3, #0
  39              		.loc 1 80 0
  40 0002 4160     		str	r1, [r0, #4]
  41              		.loc 1 81 0
  42 0004 8260     		str	r2, [r0, #8]
  43              		.loc 1 79 0
  44 0006 0360     		str	r3, [r0]
  45 0008 7047     		bx	lr
  46              		.cfi_endproc
  47              	.LFE231:
  48              		.size	chPoolObjectInit, .-chPoolObjectInit
  49 000a 00BF     		.section	.text.chPoolLoadArray,"ax",%progbits
  50              		.align	2
  51              		.p2align 4,,15
  52              		.global	chPoolLoadArray
  53              		.thumb
  54              		.thumb_func
  55              		.type	chPoolLoadArray, %function
  56              	chPoolLoadArray:
  57              	.LFB232:
ARM GAS  /var/folders/m4/4md61f0s1_g0rzfghffqnxvr0000gn/T//ccfPZNxl.s 			page 2


  58              		.loc 1 97 0
  59              		.cfi_startproc
  60              		@ args = 0, pretend = 0, frame = 0
  61              		@ frame_needed = 0, uses_anonymous_args = 0
  62              		@ link register save eliminated.
  63              	.LVL1:
  64              		.loc 1 101 0
  65 0000 72B1     		cbz	r2, .L9
  66              		.loc 1 97 0
  67 0002 30B4     		push	{r4, r5}
  68              		.cfi_def_cfa_offset 8
  69              		.cfi_offset 4, -8
  70              		.cfi_offset 5, -4
  71              	.LBB77:
  72              	.LBB78:
  73              	.LBB79:
  74              	.LBB80:
  75              	.LBB81:
  76              	.LBB82:
  77              		.file 2 "ChibiOS_16.1.4/os/ext/CMSIS/include/core_cmFunc.h"
  78              		.loc 2 548 0
  79 0004 2025     		movs	r5, #32
  80              	.LBE82:
  81              	.LBE81:
  82              	.LBE80:
  83              	.LBE79:
  84              	.LBB86:
  85              	.LBB87:
  86              	.LBB88:
  87              	.LBB89:
  88              	.LBB90:
  89 0006 0024     		movs	r4, #0
  90              	.LVL2:
  91              	.L4:
  92              	.LBE90:
  93              	.LBE89:
  94              	.LBE88:
  95              	.LBE87:
  96              	.LBE86:
  97              	.LBB95:
  98              	.LBB85:
  99              	.LBB84:
 100              	.LBB83:
 101              		.syntax unified
 102              	@ 548 "ChibiOS_16.1.4/os/ext/CMSIS/include/core_cmFunc.h" 1
 103 0008 85F31188 		MSR basepri, r5
 104              	@ 0 "" 2
 105              	.LVL3:
 106              		.thumb
 107              		.syntax unified
 108              	.LBE83:
 109              	.LBE84:
 110              	.LBE85:
 111              	.LBE95:
 112              	.LBB96:
 113              	.LBB97:
 114              		.loc 1 177 0
ARM GAS  /var/folders/m4/4md61f0s1_g0rzfghffqnxvr0000gn/T//ccfPZNxl.s 			page 3


 115 000c 0368     		ldr	r3, [r0]
 116 000e 0B60     		str	r3, [r1]
 117              		.loc 1 178 0
 118 0010 0160     		str	r1, [r0]
 119              	.LVL4:
 120              	.LBE97:
 121              	.LBE96:
 122              	.LBB98:
 123              	.LBB94:
 124              	.LBB93:
 125              	.LBB92:
 126              	.LBB91:
 127              		.loc 2 548 0
 128              		.syntax unified
 129              	@ 548 "ChibiOS_16.1.4/os/ext/CMSIS/include/core_cmFunc.h" 1
 130 0012 84F31188 		MSR basepri, r4
 131              	@ 0 "" 2
 132              	.LVL5:
 133              		.thumb
 134              		.syntax unified
 135              	.LBE91:
 136              	.LBE92:
 137              	.LBE93:
 138              	.LBE94:
 139              	.LBE98:
 140              	.LBE78:
 141              	.LBE77:
 142              		.loc 1 104 0
 143 0016 4368     		ldr	r3, [r0, #4]
 144              		.loc 1 101 0
 145 0018 013A     		subs	r2, r2, #1
 146              	.LVL6:
 147              		.loc 1 104 0
 148 001a 1944     		add	r1, r1, r3
 149              	.LVL7:
 150              		.loc 1 101 0
 151 001c F4D1     		bne	.L4
 152              		.loc 1 108 0
 153 001e 30BC     		pop	{r4, r5}
 154              		.cfi_restore 5
 155              		.cfi_restore 4
 156              		.cfi_def_cfa_offset 0
 157              	.LVL8:
 158              	.L9:
 159 0020 7047     		bx	lr
 160              		.cfi_endproc
 161              	.LFE232:
 162              		.size	chPoolLoadArray, .-chPoolLoadArray
 163 0022 00BF     		.section	.text.chPoolAllocI,"ax",%progbits
 164              		.align	2
 165              		.p2align 4,,15
 166              		.global	chPoolAllocI
 167              		.thumb
 168              		.thumb_func
 169              		.type	chPoolAllocI, %function
 170              	chPoolAllocI:
 171              	.LFB233:
ARM GAS  /var/folders/m4/4md61f0s1_g0rzfghffqnxvr0000gn/T//ccfPZNxl.s 			page 4


 172              		.loc 1 120 0
 173              		.cfi_startproc
 174              		@ args = 0, pretend = 0, frame = 0
 175              		@ frame_needed = 0, uses_anonymous_args = 0
 176              		@ link register save eliminated.
 177              	.LVL9:
 178              		.loc 1 126 0
 179 0000 0368     		ldr	r3, [r0]
 180              	.LVL10:
 181              		.loc 1 128 0
 182 0002 1BB1     		cbz	r3, .L12
 183              		.loc 1 129 0
 184 0004 1A68     		ldr	r2, [r3]
 185 0006 0260     		str	r2, [r0]
 186              	.L13:
 187              		.loc 1 137 0
 188 0008 1846     		mov	r0, r3
 189              	.LVL11:
 190 000a 7047     		bx	lr
 191              	.LVL12:
 192              	.L12:
 193              		.loc 1 131 0
 194 000c 8268     		ldr	r2, [r0, #8]
 195 000e 002A     		cmp	r2, #0
 196 0010 FAD0     		beq	.L13
 197              		.loc 1 132 0
 198 0012 4068     		ldr	r0, [r0, #4]
 199              	.LVL13:
 200 0014 1047     		bx	r2
 201              	.LVL14:
 202              		.cfi_endproc
 203              	.LFE233:
 204              		.size	chPoolAllocI, .-chPoolAllocI
 205 0016 00BF     		.section	.text.chPoolAlloc,"ax",%progbits
 206              		.align	2
 207              		.p2align 4,,15
 208              		.global	chPoolAlloc
 209              		.thumb
 210              		.thumb_func
 211              		.type	chPoolAlloc, %function
 212              	chPoolAlloc:
 213              	.LFB234:
 214              		.loc 1 149 0
 215              		.cfi_startproc
 216              		@ args = 0, pretend = 0, frame = 0
 217              		@ frame_needed = 0, uses_anonymous_args = 0
 218              	.LVL15:
 219 0000 08B5     		push	{r3, lr}
 220              		.cfi_def_cfa_offset 8
 221              		.cfi_offset 3, -8
 222              		.cfi_offset 14, -4
 223              	.LBB99:
 224              	.LBB100:
 225              	.LBB101:
 226              	.LBB102:
 227              		.loc 2 548 0
 228 0002 2022     		movs	r2, #32
ARM GAS  /var/folders/m4/4md61f0s1_g0rzfghffqnxvr0000gn/T//ccfPZNxl.s 			page 5


 229              	.LBE102:
 230              	.LBE101:
 231              	.LBE100:
 232              	.LBE99:
 233              		.loc 1 149 0
 234 0004 0346     		mov	r3, r0
 235              	.LBB106:
 236              	.LBB105:
 237              	.LBB104:
 238              	.LBB103:
 239              		.loc 2 548 0
 240              		.syntax unified
 241              	@ 548 "ChibiOS_16.1.4/os/ext/CMSIS/include/core_cmFunc.h" 1
 242 0006 82F31188 		MSR basepri, r2
 243              	@ 0 "" 2
 244              	.LVL16:
 245              		.thumb
 246              		.syntax unified
 247              	.LBE103:
 248              	.LBE104:
 249              	.LBE105:
 250              	.LBE106:
 251              	.LBB107:
 252              	.LBB108:
 253              		.loc 1 126 0
 254 000a 0068     		ldr	r0, [r0]
 255              	.LVL17:
 256              		.loc 1 128 0
 257 000c 28B1     		cbz	r0, .L18
 258              		.loc 1 129 0
 259 000e 0268     		ldr	r2, [r0]
 260 0010 1A60     		str	r2, [r3]
 261              	.L19:
 262              	.LVL18:
 263              	.LBE108:
 264              	.LBE107:
 265              	.LBB110:
 266              	.LBB111:
 267              	.LBB112:
 268              	.LBB113:
 269              	.LBB114:
 270              		.loc 2 548 0
 271 0012 0023     		movs	r3, #0
 272              	.LVL19:
 273              		.syntax unified
 274              	@ 548 "ChibiOS_16.1.4/os/ext/CMSIS/include/core_cmFunc.h" 1
 275 0014 83F31188 		MSR basepri, r3
 276              	@ 0 "" 2
 277              	.LVL20:
 278              		.thumb
 279              		.syntax unified
 280              	.LBE114:
 281              	.LBE113:
 282              	.LBE112:
 283              	.LBE111:
 284              	.LBE110:
 285              		.loc 1 157 0
ARM GAS  /var/folders/m4/4md61f0s1_g0rzfghffqnxvr0000gn/T//ccfPZNxl.s 			page 6


 286 0018 08BD     		pop	{r3, pc}
 287              	.LVL21:
 288              	.L18:
 289              	.LBB119:
 290              	.LBB109:
 291              		.loc 1 131 0
 292 001a 9A68     		ldr	r2, [r3, #8]
 293 001c 002A     		cmp	r2, #0
 294 001e F8D0     		beq	.L19
 295              		.loc 1 132 0
 296 0020 5868     		ldr	r0, [r3, #4]
 297              	.LVL22:
 298 0022 9047     		blx	r2
 299              	.LVL23:
 300              	.LBE109:
 301              	.LBE119:
 302              	.LBB120:
 303              	.LBB118:
 304              	.LBB117:
 305              	.LBB116:
 306              	.LBB115:
 307              		.loc 2 548 0
 308 0024 0023     		movs	r3, #0
 309              		.syntax unified
 310              	@ 548 "ChibiOS_16.1.4/os/ext/CMSIS/include/core_cmFunc.h" 1
 311 0026 83F31188 		MSR basepri, r3
 312              	@ 0 "" 2
 313              	.LVL24:
 314              		.thumb
 315              		.syntax unified
 316              	.LBE115:
 317              	.LBE116:
 318              	.LBE117:
 319              	.LBE118:
 320              	.LBE120:
 321              		.loc 1 157 0
 322 002a 08BD     		pop	{r3, pc}
 323              		.cfi_endproc
 324              	.LFE234:
 325              		.size	chPoolAlloc, .-chPoolAlloc
 326              		.section	.text.chPoolFreeI,"ax",%progbits
 327              		.align	2
 328              		.p2align 4,,15
 329              		.global	chPoolFreeI
 330              		.thumb
 331              		.thumb_func
 332              		.type	chPoolFreeI, %function
 333              	chPoolFreeI:
 334              	.LFB235:
 335              		.loc 1 171 0
 336              		.cfi_startproc
 337              		@ args = 0, pretend = 0, frame = 0
 338              		@ frame_needed = 0, uses_anonymous_args = 0
 339              		@ link register save eliminated.
 340              	.LVL25:
 341              		.loc 1 177 0
 342 0000 0368     		ldr	r3, [r0]
ARM GAS  /var/folders/m4/4md61f0s1_g0rzfghffqnxvr0000gn/T//ccfPZNxl.s 			page 7


 343 0002 0B60     		str	r3, [r1]
 344              		.loc 1 178 0
 345 0004 0160     		str	r1, [r0]
 346 0006 7047     		bx	lr
 347              		.cfi_endproc
 348              	.LFE235:
 349              		.size	chPoolFreeI, .-chPoolFreeI
 350              		.section	.text.chPoolFree,"ax",%progbits
 351              		.align	2
 352              		.p2align 4,,15
 353              		.global	chPoolFree
 354              		.thumb
 355              		.thumb_func
 356              		.type	chPoolFree, %function
 357              	chPoolFree:
 358              	.LFB236:
 359              		.loc 1 193 0
 360              		.cfi_startproc
 361              		@ args = 0, pretend = 0, frame = 0
 362              		@ frame_needed = 0, uses_anonymous_args = 0
 363              		@ link register save eliminated.
 364              	.LVL26:
 365              	.LBB121:
 366              	.LBB122:
 367              	.LBB123:
 368              	.LBB124:
 369              		.loc 2 548 0
 370 0000 2023     		movs	r3, #32
 371              		.syntax unified
 372              	@ 548 "ChibiOS_16.1.4/os/ext/CMSIS/include/core_cmFunc.h" 1
 373 0002 83F31188 		MSR basepri, r3
 374              	@ 0 "" 2
 375              	.LVL27:
 376              		.thumb
 377              		.syntax unified
 378              	.LBE124:
 379              	.LBE123:
 380              	.LBE122:
 381              	.LBE121:
 382              	.LBB125:
 383              	.LBB126:
 384              		.loc 1 177 0
 385 0006 0368     		ldr	r3, [r0]
 386 0008 0B60     		str	r3, [r1]
 387              	.LBE126:
 388              	.LBE125:
 389              	.LBB128:
 390              	.LBB129:
 391              	.LBB130:
 392              	.LBB131:
 393              	.LBB132:
 394              		.loc 2 548 0
 395 000a 0023     		movs	r3, #0
 396              	.LBE132:
 397              	.LBE131:
 398              	.LBE130:
 399              	.LBE129:
ARM GAS  /var/folders/m4/4md61f0s1_g0rzfghffqnxvr0000gn/T//ccfPZNxl.s 			page 8


 400              	.LBE128:
 401              	.LBB137:
 402              	.LBB127:
 403              		.loc 1 178 0
 404 000c 0160     		str	r1, [r0]
 405              	.LVL28:
 406              	.LBE127:
 407              	.LBE137:
 408              	.LBB138:
 409              	.LBB136:
 410              	.LBB135:
 411              	.LBB134:
 412              	.LBB133:
 413              		.loc 2 548 0
 414              		.syntax unified
 415              	@ 548 "ChibiOS_16.1.4/os/ext/CMSIS/include/core_cmFunc.h" 1
 416 000e 83F31188 		MSR basepri, r3
 417              	@ 0 "" 2
 418              	.LVL29:
 419              		.thumb
 420              		.syntax unified
 421 0012 7047     		bx	lr
 422              	.LBE133:
 423              	.LBE134:
 424              	.LBE135:
 425              	.LBE136:
 426              	.LBE138:
 427              		.cfi_endproc
 428              	.LFE236:
 429              		.size	chPoolFree, .-chPoolFree
 430              		.text
 431              	.Letext0:
 432              		.file 3 "/opt/homebrew-cask/Caskroom/gcc-arm-embedded/5_2-2015q4,20151219/gcc-arm-none-eabi-5_2-20
 433              		.file 4 "/opt/homebrew-cask/Caskroom/gcc-arm-embedded/5_2-2015q4,20151219/gcc-arm-none-eabi-5_2-20
 434              		.file 5 "/opt/homebrew-cask/Caskroom/gcc-arm-embedded/5_2-2015q4,20151219/gcc-arm-none-eabi-5_2-20
 435              		.file 6 "ChibiOS_16.1.4/os/rt/ports/ARMCMx/compilers/GCC/chtypes.h"
 436              		.file 7 "ChibiOS_16.1.4/os/rt/include/chsystypes.h"
 437              		.file 8 "ChibiOS_16.1.4/os/rt/include/chschd.h"
 438              		.file 9 "ChibiOS_16.1.4/os/rt/ports/ARMCMx/chcore.h"
 439              		.file 10 "ChibiOS_16.1.4/os/rt/ports/ARMCMx/chcore_v7m.h"
 440              		.file 11 "ChibiOS_16.1.4/os/rt/include/chtm.h"
 441              		.file 12 "ChibiOS_16.1.4/os/rt/include/chsem.h"
 442              		.file 13 "ChibiOS_16.1.4/os/rt/include/chmtx.h"
 443              		.file 14 "ChibiOS_16.1.4/os/rt/include/chmemcore.h"
 444              		.file 15 "ChibiOS_16.1.4/os/rt/include/chmempools.h"
 445              		.file 16 "ChibiOS_16.1.4/os/rt/include/chsys.h"
 446              		.file 17 "ChibiOS_16.1.4/os/ext/CMSIS/include/core_cm4.h"