ARM GAS  /var/folders/m4/4md61f0s1_g0rzfghffqnxvr0000gn/T//ccfPZNxl.s 			page 1


   1              		.syntax unified
   2              		.cpu cortex-m4
   3              		.eabi_attribute 27, 1
   4              		.eabi_attribute 28, 1
   5              		.fpu fpv4-sp-d16
   6              		.eabi_attribute 20, 1
   7              		.eabi_attribute 21, 1
   8              		.eabi_attribute 23, 3
   9              		.eabi_attribute 24, 1
  10              		.eabi_attribute 25, 1
  11              		.eabi_attribute 26, 1
  12              		.eabi_attribute 30, 2
  13              		.eabi_attribute 34, 1
  14              		.eabi_attribute 18, 4
  15              		.thumb
  16              		.syntax unified
  17              		.file	"chmempools.c"
  18              		.text
  19              	.Ltext0:
  20              		.cfi_sections	.debug_frame
  21              		.section	.text.chPoolObjectInit,"ax",%progbits
  22              		.align	2
  23              		.p2align 4,,15
  24              		.global	chPoolObjectInit
  25              		.thumb
  26              		.thumb_func
  27              		.type	chPoolObjectInit, %function
  28              	chPoolObjectInit:
  29              	.LFB231:
  30              		.file 1 "ChibiOS_16.1.4/os/rt/src/chmempools.c"
  31              		.loc 1 75 0
  32              		.cfi_startproc
  33              		@ args = 0, pretend = 0, frame = 0
  34              		@ frame_needed = 0, uses_anonymous_args = 0
  35              		@ link register save eliminated.
  36              	.LVL0:
  37              		.loc 1 79 0
  38 0000 0023     		movs	r3, #0
  39              		.loc 1 80 0
  40 0002 4160     		str	r1, [r0, #4]
  41              		.loc 1 81 0
  42 0004 8260     		str	r2, [r0, #8]
  43              		.loc 1 79 0
  44 0006 0360     		str	r3, [r0]
  45 0008 7047     		bx	lr
  46              		.cfi_endproc
  47              	.LFE231:
  48              		.size	chPoolObjectInit, .-chPoolObjectInit
  49 000a 00BF     		.section	.text.chPoolLoadArray,"ax",%progbits
  50              		.align	2
  51              		.p2align 4,,15
  52              		.global	chPoolLoadArray
  53              		.thumb
  54              		.thumb_func
  55              		.type	chPoolLoadArray, %function
  56              	chPoolLoadArray:
  57              	.LFB232:
ARM GAS  /var/folders/m4/4md61f0s1_g0rzfghffqnxvr0000gn/T//ccfPZNxl.s 			page 2


  58              		.loc 1 97 0
  59              		.cfi_startproc
  60              		@ args = 0, pretend = 0, frame = 0
  61              		@ frame_needed = 0, uses_anonymous_args = 0
  62              		@ link register save eliminated.
  63              	.LVL1:
  64              		.loc 1 101 0
  65 0000 72B1     		cbz	r2, .L9
  66              		.loc 1 97 0
  67 0002 30B4     		push	{r4, r5}
  68              		.cfi_def_cfa_offset 8
  69              		.cfi_offset 4, -8
  70              		.cfi_offset 5, -4
  71              	.LBB77:
  72              	.LBB78:
  73              	.LBB79:
  74              	.LBB80:
  75              	.LBB81:
  76              	.LBB82:
  77              		.file 2 "ChibiOS_16.1.4/os/ext/CMSIS/include/core_cmFunc.h"
  78              		.loc 2 548 0
  79 0004 2025     		movs	r5, #32
  80              	.LBE82:
  81              	.LBE81:
  82              	.LBE80:
  83              	.LBE79:
  84              	.LBB86:
  85              	.LBB87:
  86              	.LBB88:
  87              	.LBB89:
  88              	.LBB90:
  89 0006 0024     		movs	r4, #0
  90              	.LVL2:
  91              	.L4:
  92              	.LBE90:
  93              	.LBE89:
  94              	.LBE88:
  95              	.LBE87:
  96              	.LBE86:
  97              	.LBB95:
  98              	.LBB85:
  99              	.LBB84:
 100              	.LBB83:
 101              		.syntax unified
 102              	@ 548 "ChibiOS_16.1.4/os/ext/CMSIS/include/core_cmFunc.h" 1
 103 0008 85F31188 		MSR basepri, r5
 104              	@ 0 "" 2
 105              	.LVL3:
 106              		.thumb
 107              		.syntax unified
 108              	.LBE83:
 109              	.LBE84:
 110              	.LBE85:
 111              	.LBE95:
 112              	.LBB96:
 113              	.LBB97:
 114              		.loc 1 177 0
ARM GAS  /var/folders/m4/4md61f0s1_g0rzfghffqnxvr0000gn/T//ccfPZNxl.s 			page 3


 115 000c 0368     		ldr	r3, [r0]
 116 000e 0B60     		str	r3, [r1]
 117              		.loc 1 178 0
 118 0010 0160     		str	r1, [r0]
 119              	.LVL4:
 120              	.LBE97:
 121              	.LBE96:
 122              	.LBB98:
 123              	.LBB94:
 124              	.LBB93:
 125              	.LBB92:
 126              	.LBB91:
 127              		.loc 2 548 0
 128              		.syntax unified
 129              	@ 548 "ChibiOS_16.1.4/os/ext/CMSIS/include/core_cmFunc.h" 1
 130 0012 84F31188 		MSR basepri, r4
 131              	@ 0 "" 2
 132              	.LVL5:
 133              		.thumb
 134              		.syntax unified
 135              	.LBE91:
 136              	.LBE92:
 137              	.LBE93:
 138              	.LBE94:
 139              	.LBE98:
 140              	.LBE78:
 141              	.LBE77:
 142              		.loc 1 104 0
 143 0016 4368     		ldr	r3, [r0, #4]
 144              		.loc 1 101 0
 145 0018 013A     		subs	r2, r2, #1
 146              	.LVL6:
 147              		.loc 1 104 0
 148 001a 1944     		add	r1, r1, r3
 149              	.LVL7:
 150              		.loc 1 101 0
 151 001c F4D1     		bne	.L4
 152              		.loc 1 108 0
 153 001e 30BC     		pop	{r4, r5}
 154              		.cfi_restore 5
 155              		.cfi_restore 4
 156              		.cfi_def_cfa_offset 0
 157              	.LVL8:
 158              	.L9:
 159 0020 7047     		bx	lr
 160              		.cfi_endproc
 161              	.LFE232:
 162              		.size	chPoolLoadArray, .-chPoolLoadArray
 163 0022 00BF     		.section	.text.chPoolAllocI,"ax",%progbits
 164              		.align	2
 165              		.p2align 4,,15
 166              		.global	chPoolAllocI
 167              		.thumb
 168              		.thumb_func
 169              		.type	chPoolAllocI, %function
 170              	chPoolAllocI:
 171              	.LFB233:
ARM GAS  /var/folders/m4/4md61f0s1_g0rzfghffqnxvr0000gn/T//ccfPZNxl.s 			page 4


 172              		.loc 1 120 0
 173              		.cfi_startproc
 174              		@ args = 0, pretend = 0, frame = 0
 175              		@ frame_needed = 0, uses_anonymous_args = 0
 176              		@ link register save eliminated.
 177              	.LVL9:
 178              		.loc 1 126 0
 179 0000 0368     		ldr	r3, [r0]
 180              	.LVL10:
 181              		.loc 1 128 0
 182 0002 1BB1     		cbz	r3, .L12
 183              		.loc 1 129 0
 184 0004 1A68     		ldr	r2, [r3]
 185 0006 0260     		str	r2, [r0]
 186              	.L13:
 187              		.loc 1 137 0
 188 0008 1846     		mov	r0, r3
 189              	.LVL11:
 190 000a 7047     		bx	lr
 191              	.LVL12:
 192              	.L12:
 193              		.loc 1 131 0
 194 000c 8268     		ldr	r2, [r0, #8]
 195 000e 002A     		cmp	r2, #0
 196 0010 FAD0     		beq	.L13
 197              		.loc 1 132 0
 198 0012 4068     		ldr	r0, [r0, #4]
 199              	.LVL13:
 200 0014 1047     		bx	r2
 201              	.LVL14:
 202              		.cfi_endproc
 203              	.LFE233:
 204              		.size	chPoolAllocI, .-chPoolAllocI
 205 0016 00BF     		.section	.text.chPoolAlloc,"ax",%progbits
 206              		.align	2
 207              		.p2align 4,,15
 208              		.global	chPoolAlloc
 209              		.thumb
 210              		.thumb_func
 211              		.type	chPoolAlloc, %function
 212              	chPoolAlloc:
 213              	.LFB234:
 214              		.loc 1 149 0
 215              		.cfi_startproc
 216              		@ args = 0, pretend = 0, frame = 0
 217              		@ frame_needed = 0, uses_anonymous_args = 0
 218              	.LVL15:
 219 0000 08B5     		push	{r3, lr}
 220              		.cfi_def_cfa_offset 8
 221              		.cfi_offset 3, -8
 222              		.cfi_offset 14, -4
 223              	.LBB99:
 224              	.LBB100:
 225              	.LBB101:
 226              	.LBB102:
 227              		.loc 2 548 0
 228 0002 2022     		movs	r2, #32
ARM GAS  /var/folders/m4/4md61f0s1_g0rzfghffqnxvr0000gn/T//ccfPZNxl.s 			page 5


 229              	.LBE102:
 230              	.LBE101:
 231              	.LBE100:
 232              	.LBE99:
 233              		.loc 1 149 0
 234 0004 0346     		mov	r3, r0
 235              	.LBB106:
 236              	.LBB105:
 237              	.LBB104:
 238              	.LBB103:
 239              		.loc 2 548 0
 240              		.syntax unified
 241              	@ 548 "ChibiOS_16.1.4/os/ext/CMSIS/include/core_cmFunc.h" 1
 242 0006 82F31188 		MSR basepri, r2
 243              	@ 0 "" 2
 244              	.LVL16:
 245              		.thumb
 246              		.syntax unified
 247              	.LBE103:
 248              	.LBE104:
 249              	.LBE105:
 250              	.LBE106:
 251              	.LBB107:
 252              	.LBB108:
 253              		.loc 1 126 0
 254 000a 0068     		ldr	r0, [r0]
 255              	.LVL17:
 256              		.loc 1 128 0
 257 000c 28B1     		cbz	r0, .L18
 258              		.loc 1 129 0
 259 000e 0268     		ldr	r2, [r0]
 260 0010 1A60     		str	r2, [r3]
 261              	.L19:
 262              	.LVL18:
 263              	.LBE108:
 264              	.LBE107:
 265              	.LBB110:
 266              	.LBB111:
 267              	.LBB112:
 268              	.LBB113:
 269              	.LBB114:
 270              		.loc 2 548 0
 271 0012 0023     		movs	r3, #0
 272              	.LVL19:
 273              		.syntax unified
 274              	@ 548 "ChibiOS_16.1.4/os/ext/CMSIS/include/core_cmFunc.h" 1
 275 0014 83F31188 		MSR basepri, r3
 276              	@ 0 "" 2
 277              	.LVL20:
 278              		.thumb
 279              		.syntax unified
 280              	.LBE114:
 281              	.LBE113:
 282              	.LBE112:
 283              	.LBE111:
 284              	.LBE110:
 285              		.loc 1 157 0
ARM GAS  /var/folders/m4/4md61f0s1_g0rzfghffqnxvr0000gn/T//ccfPZNxl.s 			page 6


 286 0018 08BD     		pop	{r3, pc}
 287              	.LVL21:
 288              	.L18:
 289              	.LBB119:
 290              	.LBB109:
 291              		.loc 1 131 0
 292 001a 9A68     		ldr	r2, [r3, #8]
 293 001c 002A     		cmp	r2, #0
 294 001e F8D0     		beq	.L19
 295              		.loc 1 132 0
 296 0020 5868     		ldr	r0, [r3, #4]
 297              	.LVL22:
 298 0022 9047     		blx	r2
 299              	.LVL23:
 300              	.LBE109:
 301              	.LBE119:
 302              	.LBB120:
 303              	.LBB118:
 304              	.LBB117:
 305              	.LBB116:
 306              	.LBB115:
 307              		.loc 2 548 0
 308 0024 0023     		movs	r3, #0
 309              		.syntax unified
 310              	@ 548 "ChibiOS_16.1.4/os/ext/CMSIS/include/core_cmFunc.h" 1
 311 0026 83F31188 		MSR basepri, r3
 312              	@ 0 "" 2
 313              	.LVL24:
 314              		.thumb
 315              		.syntax unified
 316              	.LBE115:
 317              	.LBE116:
 318              	.LBE117:
 319              	.LBE118:
 320              	.LBE120:
 321              		.loc 1 157 0
 322 002a 08BD     		pop	{r3, pc}
 323              		.cfi_endproc
 324              	.LFE234:
 325              		.size	chPoolAlloc, .-chPoolAlloc
 326              		.section	.text.chPoolFreeI,"ax",%progbits
 327              		.align	2
 328              		.p2align 4,,15
 329              		.global	chPoolFreeI
 330              		.thumb
 331              		.thumb_func
 332              		.type	chPoolFreeI, %function
 333              	chPoolFreeI:
 334              	.LFB235:
 335              		.loc 1 171 0
 336              		.cfi_startproc
 337              		@ args = 0, pretend = 0, frame = 0
 338              		@ frame_needed = 0, uses_anonymous_args = 0
 339              		@ link register save eliminated.
 340              	.LVL25:
 341              		.loc 1 177 0
 342 0000 0368     		ldr	r3, [r0]
ARM GAS  /var/folders/m4/4md61f0s1_g0rzfghffqnxvr0000gn/T//ccfPZNxl.s 			page 7


 343 0002 0B60     		str	r3, [r1]
 344              		.loc 1 178 0
 345 0004 0160     		str	r1, [r0]
 346 0006 7047     		bx	lr
 347              		.cfi_endproc
 348              	.LFE235:
 349              		.size	chPoolFreeI, .-chPoolFreeI
 350              		.section	.text.chPoolFree,"ax",%progbits
 351              		.align	2
 352              		.p2align 4,,15
 353              		.global	chPoolFree
 354              		.thumb
 355              		.thumb_func
 356              		.type	chPoolFree, %function
 357              	chPoolFree:
 358              	.LFB236:
 359              		.loc 1 193 0
 360              		.cfi_startproc
 361              		@ args = 0, pretend = 0, frame = 0
 362              		@ frame_needed = 0, uses_anonymous_args = 0
 363              		@ link register save eliminated.
 364              	.LVL26:
 365              	.LBB121:
 366              	.LBB122:
 367              	.LBB123:
 368              	.LBB124:
 369              		.loc 2 548 0
 370 0000 2023     		movs	r3, #32
 371              		.syntax unified
 372              	@ 548 "ChibiOS_16.1.4/os/ext/CMSIS/include/core_cmFunc.h" 1
 373 0002 83F31188 		MSR basepri, r3
 374              	@ 0 "" 2
 375              	.LVL27:
 376              		.thumb
 377              		.syntax unified
 378              	.LBE124:
 379              	.LBE123:
 380              	.LBE122:
 381              	.LBE121:
 382              	.LBB125:
 383              	.LBB126:
 384              		.loc 1 177 0
 385 0006 0368     		ldr	r3, [r0]
 386 0008 0B60     		str	r3, [r1]
 387              	.LBE126:
 388              	.LBE125:
 389              	.LBB128:
 390              	.LBB129:
 391              	.LBB130:
 392              	.LBB131:
 393              	.LBB132:
 394              		.loc 2 548 0
 395 000a 0023     		movs	r3, #0
 396              	.LBE132:
 397              	.LBE131:
 398              	.LBE130:
 399              	.LBE129:
ARM GAS  /var/folders/m4/4md61f0s1_g0rzfghffqnxvr0000gn/T//ccfPZNxl.s 			page 8


 400              	.LBE128:
 401              	.LBB137:
 402              	.LBB127:
 403              		.loc 1 178 0
 404 000c 0160     		str	r1, [r0]
 405              	.LVL28:
 406              	.LBE127:
 407              	.LBE137:
 408              	.LBB138:
 409              	.LBB136:
 410              	.LBB135:
 411              	.LBB134:
 412              	.LBB133:
 413              		.loc 2 548 0
 414              		.syntax unified
 415              	@ 548 "ChibiOS_16.1.4/os/ext/CMSIS/include/core_cmFunc.h" 1
 416 000e 83F31188 		MSR basepri, r3
 417              	@ 0 "" 2
 418              	.LVL29:
 419              		.thumb
 420              		.syntax unified
 421 0012 7047     		bx	lr
 422              	.LBE133:
 423              	.LBE134:
 424              	.LBE135:
 425              	.LBE136:
 426              	.LBE138:
 427              		.cfi_endproc
 428              	.LFE236:
 429              		.size	chPoolFree, .-chPoolFree
 430              		.text
 431              	.Letext0:
 432              		.file 3 "/opt/homebrew-cask/Caskroom/gcc-arm-embedded/5_2-2015q4,20151219/gcc-arm-none-eabi-5_2-20
 433              		.file 4 "/opt/homebrew-cask/Caskroom/gcc-arm-embedded/5_2-2015q4,20151219/gcc-arm-none-eabi-5_2-20
 434              		.file 5 "/opt/homebrew-cask/Caskroom/gcc-arm-embedded/5_2-2015q4,20151219/gcc-arm-none-eabi-5_2-20
 435              		.file 6 "ChibiOS_16.1.4/os/rt/ports/ARMCMx/compilers/GCC/chtypes.h"
 436              		.file 7 "ChibiOS_16.1.4/os/rt/include/chsystypes.h"
 437              		.file 8 "ChibiOS_16.1.4/os/rt/include/chschd.h"
 438              		.file 9 "ChibiOS_16.1.4/os/rt/ports/ARMCMx/chcore.h"
 439              		.file 10 "ChibiOS_16.1.4/os/rt/ports/ARMCMx/chcore_v7m.h"
 440              		.file 11 "ChibiOS_16.1.4/os/rt/include/chtm.h"
 441              		.file 12 "ChibiOS_16.1.4/os/rt/include/chsem.h"
 442              		.file 13 "ChibiOS_16.1.4/os/rt/include/chmtx.h"
 443              		.file 14 "ChibiOS_16.1.4/os/rt/include/chmemcore.h"
 444              		.file 15 "ChibiOS_16.1.4/os/rt/include/chmempools.h"
 445              		.file 16 "ChibiOS_16.1.4/os/rt/include/chsys.h"
 446              		.file 17 "ChibiOS_16.1.4/os/ext/CMSIS/include/core_cm4.h"
 447              		.section	.debug_info,"",%progbits
 448              	.Ldebug_info0:
 449 0000 BC0C0000 		.4byte	0xcbc
 450 0004 0400     		.2byte	0x4
 451 0006 00000000 		.4byte	.Ldebug_abbrev0
 452 000a 04       		.byte	0x4
 453 000b 01       		.uleb128 0x1
 454 000c 77040000 		.4byte	.LASF129
 455 0010 0C       		.byte	0xc
 456 0011 FE010000 		.4byte	.LASF130
ARM GAS  /var/folders/m4/4md61f0s1_g0rzfghffqnxvr0000gn/T//ccfPZNxl.s 			page 9


 457 0015 24020000 		.4byte	.LASF131
 458 0019 A8000000 		.4byte	.Ldebug_ranges0+0xa8
 459 001d 00000000 		.4byte	0
 460 0021 00000000 		.4byte	.Ldebug_line0
 461 0025 02       		.uleb128 0x2
 462 0026 04       		.byte	0x4
 463 0027 05       		.byte	0x5
 464 0028 696E7400 		.ascii	"int\000"
 465 002c 03       		.uleb128 0x3
 466 002d 0D000000 		.4byte	.LASF2
 467 0031 03       		.byte	0x3
 468 0032 D8       		.byte	0xd8
 469 0033 37000000 		.4byte	0x37
 470 0037 04       		.uleb128 0x4
 471 0038 04       		.byte	0x4
 472 0039 07       		.byte	0x7
 473 003a 90010000 		.4byte	.LASF0
 474 003e 04       		.uleb128 0x4
 475 003f 01       		.byte	0x1
 476 0040 06       		.byte	0x6
 477 0041 DD000000 		.4byte	.LASF1
 478 0045 03       		.uleb128 0x3
 479 0046 24000000 		.4byte	.LASF3
 480 004a 04       		.byte	0x4
 481 004b 1D       		.byte	0x1d
 482 004c 50000000 		.4byte	0x50
 483 0050 04       		.uleb128 0x4
 484 0051 01       		.byte	0x1
 485 0052 08       		.byte	0x8
 486 0053 AE030000 		.4byte	.LASF4
 487 0057 04       		.uleb128 0x4
 488 0058 02       		.byte	0x2
 489 0059 05       		.byte	0x5
 490 005a C6030000 		.4byte	.LASF5
 491 005e 04       		.uleb128 0x4
 492 005f 02       		.byte	0x2
 493 0060 07       		.byte	0x7
 494 0061 DB010000 		.4byte	.LASF6
 495 0065 03       		.uleb128 0x3
 496 0066 A2020000 		.4byte	.LASF7
 497 006a 04       		.byte	0x4
 498 006b 3F       		.byte	0x3f
 499 006c 70000000 		.4byte	0x70
 500 0070 04       		.uleb128 0x4
 501 0071 04       		.byte	0x4
 502 0072 05       		.byte	0x5
 503 0073 26010000 		.4byte	.LASF8
 504 0077 03       		.uleb128 0x3
 505 0078 AB050000 		.4byte	.LASF9
 506 007c 04       		.byte	0x4
 507 007d 41       		.byte	0x41
 508 007e 82000000 		.4byte	0x82
 509 0082 04       		.uleb128 0x4
 510 0083 04       		.byte	0x4
 511 0084 07       		.byte	0x7
 512 0085 60040000 		.4byte	.LASF10
 513 0089 04       		.uleb128 0x4
ARM GAS  /var/folders/m4/4md61f0s1_g0rzfghffqnxvr0000gn/T//ccfPZNxl.s 			page 10


 514 008a 08       		.byte	0x8
 515 008b 05       		.byte	0x5
 516 008c CF000000 		.4byte	.LASF11
 517 0090 03       		.uleb128 0x3
 518 0091 5C030000 		.4byte	.LASF12
 519 0095 04       		.byte	0x4
 520 0096 5B       		.byte	0x5b
 521 0097 9B000000 		.4byte	0x9b
 522 009b 04       		.uleb128 0x4
 523 009c 08       		.byte	0x8
 524 009d 07       		.byte	0x7
 525 009e 69000000 		.4byte	.LASF13
 526 00a2 03       		.uleb128 0x3
 527 00a3 2C060000 		.4byte	.LASF14
 528 00a7 05       		.byte	0x5
 529 00a8 14       		.byte	0x14
 530 00a9 45000000 		.4byte	0x45
 531 00ad 03       		.uleb128 0x3
 532 00ae A6030000 		.4byte	.LASF15
 533 00b2 05       		.byte	0x5
 534 00b3 1F       		.byte	0x1f
 535 00b4 65000000 		.4byte	0x65
 536 00b8 03       		.uleb128 0x3
 537 00b9 38040000 		.4byte	.LASF16
 538 00bd 05       		.byte	0x5
 539 00be 20       		.byte	0x20
 540 00bf 77000000 		.4byte	0x77
 541 00c3 03       		.uleb128 0x3
 542 00c4 1B000000 		.4byte	.LASF17
 543 00c8 05       		.byte	0x5
 544 00c9 26       		.byte	0x26
 545 00ca 90000000 		.4byte	0x90
 546 00ce 03       		.uleb128 0x3
 547 00cf F4050000 		.4byte	.LASF18
 548 00d3 06       		.byte	0x6
 549 00d4 39       		.byte	0x39
 550 00d5 B8000000 		.4byte	0xb8
 551 00d9 03       		.uleb128 0x3
 552 00da 6F020000 		.4byte	.LASF19
 553 00de 06       		.byte	0x6
 554 00df 3C       		.byte	0x3c
 555 00e0 A2000000 		.4byte	0xa2
 556 00e4 03       		.uleb128 0x3
 557 00e5 2F010000 		.4byte	.LASF20
 558 00e9 06       		.byte	0x6
 559 00ea 3D       		.byte	0x3d
 560 00eb A2000000 		.4byte	0xa2
 561 00ef 03       		.uleb128 0x3
 562 00f0 6F030000 		.4byte	.LASF21
 563 00f4 06       		.byte	0x6
 564 00f5 3E       		.byte	0x3e
 565 00f6 A2000000 		.4byte	0xa2
 566 00fa 03       		.uleb128 0x3
 567 00fb 0C010000 		.4byte	.LASF22
 568 00ff 06       		.byte	0x6
 569 0100 3F       		.byte	0x3f
 570 0101 A2000000 		.4byte	0xa2
ARM GAS  /var/folders/m4/4md61f0s1_g0rzfghffqnxvr0000gn/T//ccfPZNxl.s 			page 11


 571 0105 03       		.uleb128 0x3
 572 0106 8E030000 		.4byte	.LASF23
 573 010a 06       		.byte	0x6
 574 010b 40       		.byte	0x40
 575 010c B8000000 		.4byte	0xb8
 576 0110 03       		.uleb128 0x3
 577 0111 F8010000 		.4byte	.LASF24
 578 0115 06       		.byte	0x6
 579 0116 41       		.byte	0x41
 580 0117 AD000000 		.4byte	0xad
 581 011b 03       		.uleb128 0x3
 582 011c 96020000 		.4byte	.LASF25
 583 0120 06       		.byte	0x6
 584 0121 43       		.byte	0x43
 585 0122 B8000000 		.4byte	0xb8
 586 0126 03       		.uleb128 0x3
 587 0127 8A010000 		.4byte	.LASF26
 588 012b 06       		.byte	0x6
 589 012c 45       		.byte	0x45
 590 012d AD000000 		.4byte	0xad
 591 0131 03       		.uleb128 0x3
 592 0132 8D050000 		.4byte	.LASF27
 593 0136 07       		.byte	0x7
 594 0137 33       		.byte	0x33
 595 0138 B8000000 		.4byte	0xb8
 596 013c 03       		.uleb128 0x3
 597 013d 7D050000 		.4byte	.LASF28
 598 0141 07       		.byte	0x7
 599 0142 3F       		.byte	0x3f
 600 0143 47010000 		.4byte	0x147
 601 0147 05       		.uleb128 0x5
 602 0148 EE010000 		.4byte	.LASF50
 603 014c 48       		.byte	0x48
 604 014d 08       		.byte	0x8
 605 014e C2       		.byte	0xc2
 606 014f 4C020000 		.4byte	0x24c
 607 0153 06       		.uleb128 0x6
 608 0154 F0030000 		.4byte	.LASF29
 609 0158 08       		.byte	0x8
 610 0159 C3       		.byte	0xc3
 611 015a 57020000 		.4byte	0x257
 612 015e 00       		.byte	0
 613 015f 06       		.uleb128 0x6
 614 0160 87030000 		.4byte	.LASF30
 615 0164 08       		.byte	0x8
 616 0165 C5       		.byte	0xc5
 617 0166 57020000 		.4byte	0x257
 618 016a 04       		.byte	0x4
 619 016b 06       		.uleb128 0x6
 620 016c C8000000 		.4byte	.LASF31
 621 0170 08       		.byte	0x8
 622 0171 C7       		.byte	0xc7
 623 0172 05010000 		.4byte	0x105
 624 0176 08       		.byte	0x8
 625 0177 06       		.uleb128 0x6
 626 0178 95060000 		.4byte	.LASF32
 627 017c 08       		.byte	0x8
ARM GAS  /var/folders/m4/4md61f0s1_g0rzfghffqnxvr0000gn/T//ccfPZNxl.s 			page 12


 628 017d C8       		.byte	0xc8
 629 017e 87040000 		.4byte	0x487
 630 0182 0C       		.byte	0xc
 631 0183 06       		.uleb128 0x6
 632 0184 38010000 		.4byte	.LASF33
 633 0188 08       		.byte	0x8
 634 0189 CA       		.byte	0xca
 635 018a 57020000 		.4byte	0x257
 636 018e 10       		.byte	0x10
 637 018f 06       		.uleb128 0x6
 638 0190 1C030000 		.4byte	.LASF34
 639 0194 08       		.byte	0x8
 640 0195 CB       		.byte	0xcb
 641 0196 57020000 		.4byte	0x257
 642 019a 14       		.byte	0x14
 643 019b 06       		.uleb128 0x6
 644 019c 52060000 		.4byte	.LASF35
 645 01a0 08       		.byte	0x8
 646 01a1 D2       		.byte	0xd2
 647 01a2 D5060000 		.4byte	0x6d5
 648 01a6 18       		.byte	0x18
 649 01a7 06       		.uleb128 0x6
 650 01a8 D0030000 		.4byte	.LASF36
 651 01ac 08       		.byte	0x8
 652 01ad DD       		.byte	0xdd
 653 01ae E4000000 		.4byte	0xe4
 654 01b2 1C       		.byte	0x1c
 655 01b3 06       		.uleb128 0x6
 656 01b4 69060000 		.4byte	.LASF37
 657 01b8 08       		.byte	0x8
 658 01b9 E1       		.byte	0xe1
 659 01ba D9000000 		.4byte	0xd9
 660 01be 1D       		.byte	0x1d
 661 01bf 06       		.uleb128 0x6
 662 01c0 1F060000 		.4byte	.LASF38
 663 01c4 08       		.byte	0x8
 664 01c5 E6       		.byte	0xe6
 665 01c6 EF000000 		.4byte	0xef
 666 01ca 1E       		.byte	0x1e
 667 01cb 06       		.uleb128 0x6
 668 01cc D8030000 		.4byte	.LASF39
 669 01d0 08       		.byte	0x8
 670 01d1 EC       		.byte	0xec
 671 01d2 FA000000 		.4byte	0xfa
 672 01d6 1F       		.byte	0x1f
 673 01d7 06       		.uleb128 0x6
 674 01d8 A5010000 		.4byte	.LASF40
 675 01dc 08       		.byte	0x8
 676 01dd F3       		.byte	0xf3
 677 01de E7060000 		.4byte	0x6e7
 678 01e2 20       		.byte	0x20
 679 01e3 07       		.uleb128 0x7
 680 01e4 705F7500 		.ascii	"p_u\000"
 681 01e8 08       		.byte	0x8
 682 01e9 3101     		.2byte	0x131
 683 01eb 10060000 		.4byte	0x610
 684 01ef 24       		.byte	0x24
ARM GAS  /var/folders/m4/4md61f0s1_g0rzfghffqnxvr0000gn/T//ccfPZNxl.s 			page 13


 685 01f0 08       		.uleb128 0x8
 686 01f1 C6020000 		.4byte	.LASF41
 687 01f5 08       		.byte	0x8
 688 01f6 3601     		.2byte	0x136
 689 01f8 5D020000 		.4byte	0x25d
 690 01fc 28       		.byte	0x28
 691 01fd 08       		.uleb128 0x8
 692 01fe BC010000 		.4byte	.LASF42
 693 0202 08       		.byte	0x8
 694 0203 3C01     		.2byte	0x13c
 695 0205 81020000 		.4byte	0x281
 696 0209 2C       		.byte	0x2c
 697 020a 08       		.uleb128 0x8
 698 020b EE050000 		.4byte	.LASF43
 699 020f 08       		.byte	0x8
 700 0210 4001     		.2byte	0x140
 701 0212 10010000 		.4byte	0x110
 702 0216 34       		.byte	0x34
 703 0217 08       		.uleb128 0x8
 704 0218 2D040000 		.4byte	.LASF44
 705 021c 08       		.byte	0x8
 706 021d 4601     		.2byte	0x146
 707 021f 1B010000 		.4byte	0x11b
 708 0223 38       		.byte	0x38
 709 0224 08       		.uleb128 0x8
 710 0225 BC030000 		.4byte	.LASF45
 711 0229 08       		.byte	0x8
 712 022a 4D01     		.2byte	0x14d
 713 022c CF060000 		.4byte	0x6cf
 714 0230 3C       		.byte	0x3c
 715 0231 08       		.uleb128 0x8
 716 0232 97050000 		.4byte	.LASF46
 717 0236 08       		.byte	0x8
 718 0237 5101     		.2byte	0x151
 719 0239 05010000 		.4byte	0x105
 720 023d 40       		.byte	0x40
 721 023e 08       		.uleb128 0x8
 722 023f E9000000 		.4byte	.LASF47
 723 0243 08       		.byte	0x8
 724 0244 5801     		.2byte	0x158
 725 0246 34030000 		.4byte	0x334
 726 024a 44       		.byte	0x44
 727 024b 00       		.byte	0
 728 024c 03       		.uleb128 0x3
 729 024d D9020000 		.4byte	.LASF48
 730 0251 07       		.byte	0x7
 731 0252 44       		.byte	0x44
 732 0253 57020000 		.4byte	0x257
 733 0257 09       		.uleb128 0x9
 734 0258 04       		.byte	0x4
 735 0259 3C010000 		.4byte	0x13c
 736 025d 03       		.uleb128 0x3
 737 025e B7020000 		.4byte	.LASF49
 738 0262 07       		.byte	0x7
 739 0263 49       		.byte	0x49
 740 0264 68020000 		.4byte	0x268
 741 0268 05       		.uleb128 0x5
ARM GAS  /var/folders/m4/4md61f0s1_g0rzfghffqnxvr0000gn/T//ccfPZNxl.s 			page 14


 742 0269 50040000 		.4byte	.LASF51
 743 026d 04       		.byte	0x4
 744 026e 08       		.byte	0x8
 745 026f B0       		.byte	0xb0
 746 0270 81020000 		.4byte	0x281
 747 0274 06       		.uleb128 0x6
 748 0275 F0030000 		.4byte	.LASF29
 749 0279 08       		.byte	0x8
 750 027a B1       		.byte	0xb1
 751 027b 57020000 		.4byte	0x257
 752 027f 00       		.byte	0
 753 0280 00       		.byte	0
 754 0281 03       		.uleb128 0x3
 755 0282 03060000 		.4byte	.LASF52
 756 0286 07       		.byte	0x7
 757 0287 50       		.byte	0x50
 758 0288 8C020000 		.4byte	0x28c
 759 028c 05       		.uleb128 0x5
 760 028d B7000000 		.4byte	.LASF53
 761 0291 08       		.byte	0x8
 762 0292 08       		.byte	0x8
 763 0293 B7       		.byte	0xb7
 764 0294 B1020000 		.4byte	0x2b1
 765 0298 06       		.uleb128 0x6
 766 0299 F0030000 		.4byte	.LASF29
 767 029d 08       		.byte	0x8
 768 029e B8       		.byte	0xb8
 769 029f 57020000 		.4byte	0x257
 770 02a3 00       		.byte	0
 771 02a4 06       		.uleb128 0x6
 772 02a5 87030000 		.4byte	.LASF30
 773 02a9 08       		.byte	0x8
 774 02aa B9       		.byte	0xb9
 775 02ab 57020000 		.4byte	0x257
 776 02af 04       		.byte	0x4
 777 02b0 00       		.byte	0
 778 02b1 03       		.uleb128 0x3
 779 02b2 00000000 		.4byte	.LASF54
 780 02b6 07       		.byte	0x7
 781 02b7 57       		.byte	0x57
 782 02b8 BC020000 		.4byte	0x2bc
 783 02bc 0A       		.uleb128 0xa
 784 02bd 88020000 		.4byte	.LASF55
 785 02c1 1C       		.byte	0x1c
 786 02c2 08       		.byte	0x8
 787 02c3 9001     		.2byte	0x190
 788 02c5 18030000 		.4byte	0x318
 789 02c9 08       		.uleb128 0x8
 790 02ca 48040000 		.4byte	.LASF56
 791 02ce 08       		.byte	0x8
 792 02cf 9101     		.2byte	0x191
 793 02d1 81020000 		.4byte	0x281
 794 02d5 00       		.byte	0
 795 02d6 08       		.uleb128 0x8
 796 02d7 E2030000 		.4byte	.LASF57
 797 02db 08       		.byte	0x8
 798 02dc 9201     		.2byte	0x192
ARM GAS  /var/folders/m4/4md61f0s1_g0rzfghffqnxvr0000gn/T//ccfPZNxl.s 			page 15


 799 02de 05010000 		.4byte	0x105
 800 02e2 08       		.byte	0x8
 801 02e3 08       		.uleb128 0x8
 802 02e4 24030000 		.4byte	.LASF58
 803 02e8 08       		.byte	0x8
 804 02e9 9401     		.2byte	0x194
 805 02eb 87040000 		.4byte	0x487
 806 02ef 0C       		.byte	0xc
 807 02f0 08       		.uleb128 0x8
 808 02f1 48010000 		.4byte	.LASF59
 809 02f5 08       		.byte	0x8
 810 02f6 9701     		.2byte	0x197
 811 02f8 57020000 		.4byte	0x257
 812 02fc 10       		.byte	0x10
 813 02fd 08       		.uleb128 0x8
 814 02fe 54030000 		.4byte	.LASF60
 815 0302 08       		.byte	0x8
 816 0303 9801     		.2byte	0x198
 817 0305 57020000 		.4byte	0x257
 818 0309 14       		.byte	0x14
 819 030a 08       		.uleb128 0x8
 820 030b 4A030000 		.4byte	.LASF61
 821 030f 08       		.byte	0x8
 822 0310 9B01     		.2byte	0x19b
 823 0312 57020000 		.4byte	0x257
 824 0316 18       		.byte	0x18
 825 0317 00       		.byte	0
 826 0318 03       		.uleb128 0x3
 827 0319 A2050000 		.4byte	.LASF62
 828 031d 07       		.byte	0x7
 829 031e 5C       		.byte	0x5c
 830 031f 23030000 		.4byte	0x323
 831 0323 09       		.uleb128 0x9
 832 0324 04       		.byte	0x4
 833 0325 29030000 		.4byte	0x329
 834 0329 0B       		.uleb128 0xb
 835 032a 34030000 		.4byte	0x334
 836 032e 0C       		.uleb128 0xc
 837 032f 34030000 		.4byte	0x334
 838 0333 00       		.byte	0
 839 0334 0D       		.uleb128 0xd
 840 0335 04       		.byte	0x4
 841 0336 03       		.uleb128 0x3
 842 0337 77030000 		.4byte	.LASF63
 843 033b 07       		.byte	0x7
 844 033c 61       		.byte	0x61
 845 033d 41030000 		.4byte	0x341
 846 0341 0A       		.uleb128 0xa
 847 0342 0F040000 		.4byte	.LASF64
 848 0346 14       		.byte	0x14
 849 0347 08       		.byte	0x8
 850 0348 6B01     		.2byte	0x16b
 851 034a 90030000 		.4byte	0x390
 852 034e 08       		.uleb128 0x8
 853 034f 9D010000 		.4byte	.LASF65
 854 0353 08       		.byte	0x8
 855 0354 6C01     		.2byte	0x16c
ARM GAS  /var/folders/m4/4md61f0s1_g0rzfghffqnxvr0000gn/T//ccfPZNxl.s 			page 16


 856 0356 EC060000 		.4byte	0x6ec
 857 035a 00       		.byte	0
 858 035b 08       		.uleb128 0x8
 859 035c 65010000 		.4byte	.LASF66
 860 0360 08       		.byte	0x8
 861 0361 6D01     		.2byte	0x16d
 862 0363 EC060000 		.4byte	0x6ec
 863 0367 04       		.byte	0x4
 864 0368 08       		.uleb128 0x8
 865 0369 B3010000 		.4byte	.LASF67
 866 036d 08       		.byte	0x8
 867 036e 6E01     		.2byte	0x16e
 868 0370 31010000 		.4byte	0x131
 869 0374 08       		.byte	0x8
 870 0375 08       		.uleb128 0x8
 871 0376 9B060000 		.4byte	.LASF68
 872 037a 08       		.byte	0x8
 873 037b 6F01     		.2byte	0x16f
 874 037d 18030000 		.4byte	0x318
 875 0381 0C       		.byte	0xc
 876 0382 08       		.uleb128 0x8
 877 0383 FC050000 		.4byte	.LASF69
 878 0387 08       		.byte	0x8
 879 0388 7101     		.2byte	0x171
 880 038a 34030000 		.4byte	0x334
 881 038e 10       		.byte	0x10
 882 038f 00       		.byte	0
 883 0390 03       		.uleb128 0x3
 884 0391 94000000 		.4byte	.LASF70
 885 0395 07       		.byte	0x7
 886 0396 66       		.byte	0x66
 887 0397 9B030000 		.4byte	0x39b
 888 039b 0A       		.uleb128 0xa
 889 039c EC020000 		.4byte	.LASF71
 890 03a0 10       		.byte	0x10
 891 03a1 08       		.byte	0x8
 892 03a2 7B01     		.2byte	0x17b
 893 03a4 DD030000 		.4byte	0x3dd
 894 03a8 08       		.uleb128 0x8
 895 03a9 9D010000 		.4byte	.LASF65
 896 03ad 08       		.byte	0x8
 897 03ae 7C01     		.2byte	0x17c
 898 03b0 EC060000 		.4byte	0x6ec
 899 03b4 00       		.byte	0
 900 03b5 08       		.uleb128 0x8
 901 03b6 65010000 		.4byte	.LASF66
 902 03ba 08       		.byte	0x8
 903 03bb 7E01     		.2byte	0x17e
 904 03bd EC060000 		.4byte	0x6ec
 905 03c1 04       		.byte	0x4
 906 03c2 08       		.uleb128 0x8
 907 03c3 B3010000 		.4byte	.LASF67
 908 03c7 08       		.byte	0x8
 909 03c8 8001     		.2byte	0x180
 910 03ca 31010000 		.4byte	0x131
 911 03ce 08       		.byte	0x8
 912 03cf 08       		.uleb128 0x8
ARM GAS  /var/folders/m4/4md61f0s1_g0rzfghffqnxvr0000gn/T//ccfPZNxl.s 			page 17


 913 03d0 5E060000 		.4byte	.LASF72
 914 03d4 08       		.byte	0x8
 915 03d5 8201     		.2byte	0x182
 916 03d7 E7060000 		.4byte	0x6e7
 917 03db 0C       		.byte	0xc
 918 03dc 00       		.byte	0
 919 03dd 03       		.uleb128 0x3
 920 03de 3A000000 		.4byte	.LASF73
 921 03e2 07       		.byte	0x7
 922 03e3 6B       		.byte	0x6b
 923 03e4 E8030000 		.4byte	0x3e8
 924 03e8 0A       		.uleb128 0xa
 925 03e9 96030000 		.4byte	.LASF74
 926 03ed 04       		.byte	0x4
 927 03ee 08       		.byte	0x8
 928 03ef A201     		.2byte	0x1a2
 929 03f1 03040000 		.4byte	0x403
 930 03f5 08       		.uleb128 0x8
 931 03f6 C4050000 		.4byte	.LASF75
 932 03fa 08       		.byte	0x8
 933 03fb AA01     		.2byte	0x1aa
 934 03fd F2060000 		.4byte	0x6f2
 935 0401 00       		.byte	0
 936 0402 00       		.byte	0
 937 0403 03       		.uleb128 0x3
 938 0404 59020000 		.4byte	.LASF76
 939 0408 07       		.byte	0x7
 940 0409 70       		.byte	0x70
 941 040a 0E040000 		.4byte	0x40e
 942 040e 0E       		.uleb128 0xe
 943 040f 1C010000 		.4byte	.LASF77
 944 0413 5802     		.2byte	0x258
 945 0415 08       		.byte	0x8
 946 0416 C201     		.2byte	0x1c2
 947 0418 6A040000 		.4byte	0x46a
 948 041c 08       		.uleb128 0x8
 949 041d 26060000 		.4byte	.LASF78
 950 0421 08       		.byte	0x8
 951 0422 C601     		.2byte	0x1c6
 952 0424 B1020000 		.4byte	0x2b1
 953 0428 00       		.byte	0
 954 0429 08       		.uleb128 0x8
 955 042a F9000000 		.4byte	.LASF79
 956 042e 08       		.byte	0x8
 957 042f CA01     		.2byte	0x1ca
 958 0431 90030000 		.4byte	0x390
 959 0435 1C       		.byte	0x1c
 960 0436 07       		.uleb128 0x7
 961 0437 64626700 		.ascii	"dbg\000"
 962 043b 08       		.byte	0x8
 963 043c CE01     		.2byte	0x1ce
 964 043e DD030000 		.4byte	0x3dd
 965 0442 2C       		.byte	0x2c
 966 0443 08       		.uleb128 0x8
 967 0444 89000000 		.4byte	.LASF80
 968 0448 08       		.byte	0x8
 969 0449 D201     		.2byte	0x1d2
ARM GAS  /var/folders/m4/4md61f0s1_g0rzfghffqnxvr0000gn/T//ccfPZNxl.s 			page 18


 970 044b 3C010000 		.4byte	0x13c
 971 044f 30       		.byte	0x30
 972 0450 07       		.uleb128 0x7
 973 0451 746D00   		.ascii	"tm\000"
 974 0454 08       		.byte	0x8
 975 0455 D701     		.2byte	0x1d7
 976 0457 05060000 		.4byte	0x605
 977 045b 78       		.byte	0x78
 978 045c 08       		.uleb128 0x8
 979 045d 7B010000 		.4byte	.LASF81
 980 0461 08       		.byte	0x8
 981 0462 E301     		.2byte	0x1e3
 982 0464 F7060000 		.4byte	0x6f7
 983 0468 80       		.byte	0x80
 984 0469 00       		.byte	0
 985 046a 04       		.uleb128 0x4
 986 046b 04       		.byte	0x4
 987 046c 07       		.byte	0x7
 988 046d D0020000 		.4byte	.LASF82
 989 0471 03       		.uleb128 0x3
 990 0472 5C010000 		.4byte	.LASF83
 991 0476 09       		.byte	0x9
 992 0477 65       		.byte	0x65
 993 0478 34030000 		.4byte	0x334
 994 047c 03       		.uleb128 0x3
 995 047d AC020000 		.4byte	.LASF84
 996 0481 09       		.byte	0x9
 997 0482 6D       		.byte	0x6d
 998 0483 C3000000 		.4byte	0xc3
 999 0487 05       		.uleb128 0x5
 1000 0488 E6050000 		.4byte	.LASF85
 1001 048c 04       		.byte	0x4
 1002 048d 09       		.byte	0x9
 1003 048e 89       		.byte	0x89
 1004 048f A0040000 		.4byte	0x4a0
 1005 0493 0F       		.uleb128 0xf
 1006 0494 72313300 		.ascii	"r13\000"
 1007 0498 09       		.byte	0x9
 1008 0499 8A       		.byte	0x8a
 1009 049a EA050000 		.4byte	0x5ea
 1010 049e 00       		.byte	0
 1011 049f 00       		.byte	0
 1012 04a0 05       		.uleb128 0x5
 1013 04a1 2E000000 		.4byte	.LASF86
 1014 04a5 64       		.byte	0x64
 1015 04a6 0A       		.byte	0xa
 1016 04a7 FD       		.byte	0xfd
 1017 04a8 EA050000 		.4byte	0x5ea
 1018 04ac 0F       		.uleb128 0xf
 1019 04ad 73313600 		.ascii	"s16\000"
 1020 04b1 0A       		.byte	0xa
 1021 04b2 FF       		.byte	0xff
 1022 04b3 71040000 		.4byte	0x471
 1023 04b7 00       		.byte	0
 1024 04b8 07       		.uleb128 0x7
 1025 04b9 73313700 		.ascii	"s17\000"
 1026 04bd 0A       		.byte	0xa
ARM GAS  /var/folders/m4/4md61f0s1_g0rzfghffqnxvr0000gn/T//ccfPZNxl.s 			page 19


 1027 04be 0001     		.2byte	0x100
 1028 04c0 71040000 		.4byte	0x471
 1029 04c4 04       		.byte	0x4
 1030 04c5 07       		.uleb128 0x7
 1031 04c6 73313800 		.ascii	"s18\000"
 1032 04ca 0A       		.byte	0xa
 1033 04cb 0101     		.2byte	0x101
 1034 04cd 71040000 		.4byte	0x471
 1035 04d1 08       		.byte	0x8
 1036 04d2 07       		.uleb128 0x7
 1037 04d3 73313900 		.ascii	"s19\000"
 1038 04d7 0A       		.byte	0xa
 1039 04d8 0201     		.2byte	0x102
 1040 04da 71040000 		.4byte	0x471
 1041 04de 0C       		.byte	0xc
 1042 04df 07       		.uleb128 0x7
 1043 04e0 73323000 		.ascii	"s20\000"
 1044 04e4 0A       		.byte	0xa
 1045 04e5 0301     		.2byte	0x103
 1046 04e7 71040000 		.4byte	0x471
 1047 04eb 10       		.byte	0x10
 1048 04ec 07       		.uleb128 0x7
 1049 04ed 73323100 		.ascii	"s21\000"
 1050 04f1 0A       		.byte	0xa
 1051 04f2 0401     		.2byte	0x104
 1052 04f4 71040000 		.4byte	0x471
 1053 04f8 14       		.byte	0x14
 1054 04f9 07       		.uleb128 0x7
 1055 04fa 73323200 		.ascii	"s22\000"
 1056 04fe 0A       		.byte	0xa
 1057 04ff 0501     		.2byte	0x105
 1058 0501 71040000 		.4byte	0x471
 1059 0505 18       		.byte	0x18
 1060 0506 07       		.uleb128 0x7
 1061 0507 73323300 		.ascii	"s23\000"
 1062 050b 0A       		.byte	0xa
 1063 050c 0601     		.2byte	0x106
 1064 050e 71040000 		.4byte	0x471
 1065 0512 1C       		.byte	0x1c
 1066 0513 07       		.uleb128 0x7
 1067 0514 73323400 		.ascii	"s24\000"
 1068 0518 0A       		.byte	0xa
 1069 0519 0701     		.2byte	0x107
 1070 051b 71040000 		.4byte	0x471
 1071 051f 20       		.byte	0x20
 1072 0520 07       		.uleb128 0x7
 1073 0521 73323500 		.ascii	"s25\000"
 1074 0525 0A       		.byte	0xa
 1075 0526 0801     		.2byte	0x108
 1076 0528 71040000 		.4byte	0x471
 1077 052c 24       		.byte	0x24
 1078 052d 07       		.uleb128 0x7
 1079 052e 73323600 		.ascii	"s26\000"
 1080 0532 0A       		.byte	0xa
 1081 0533 0901     		.2byte	0x109
 1082 0535 71040000 		.4byte	0x471
 1083 0539 28       		.byte	0x28
ARM GAS  /var/folders/m4/4md61f0s1_g0rzfghffqnxvr0000gn/T//ccfPZNxl.s 			page 20


 1084 053a 07       		.uleb128 0x7
 1085 053b 73323700 		.ascii	"s27\000"
 1086 053f 0A       		.byte	0xa
 1087 0540 0A01     		.2byte	0x10a
 1088 0542 71040000 		.4byte	0x471
 1089 0546 2C       		.byte	0x2c
 1090 0547 07       		.uleb128 0x7
 1091 0548 73323800 		.ascii	"s28\000"
 1092 054c 0A       		.byte	0xa
 1093 054d 0B01     		.2byte	0x10b
 1094 054f 71040000 		.4byte	0x471
 1095 0553 30       		.byte	0x30
 1096 0554 07       		.uleb128 0x7
 1097 0555 73323900 		.ascii	"s29\000"
 1098 0559 0A       		.byte	0xa
 1099 055a 0C01     		.2byte	0x10c
 1100 055c 71040000 		.4byte	0x471
 1101 0560 34       		.byte	0x34
 1102 0561 07       		.uleb128 0x7
 1103 0562 73333000 		.ascii	"s30\000"
 1104 0566 0A       		.byte	0xa
 1105 0567 0D01     		.2byte	0x10d
 1106 0569 71040000 		.4byte	0x471
 1107 056d 38       		.byte	0x38
 1108 056e 07       		.uleb128 0x7
 1109 056f 73333100 		.ascii	"s31\000"
 1110 0573 0A       		.byte	0xa
 1111 0574 0E01     		.2byte	0x10e
 1112 0576 71040000 		.4byte	0x471
 1113 057a 3C       		.byte	0x3c
 1114 057b 07       		.uleb128 0x7
 1115 057c 723400   		.ascii	"r4\000"
 1116 057f 0A       		.byte	0xa
 1117 0580 1001     		.2byte	0x110
 1118 0582 71040000 		.4byte	0x471
 1119 0586 40       		.byte	0x40
 1120 0587 07       		.uleb128 0x7
 1121 0588 723500   		.ascii	"r5\000"
 1122 058b 0A       		.byte	0xa
 1123 058c 1101     		.2byte	0x111
 1124 058e 71040000 		.4byte	0x471
 1125 0592 44       		.byte	0x44
 1126 0593 07       		.uleb128 0x7
 1127 0594 723600   		.ascii	"r6\000"
 1128 0597 0A       		.byte	0xa
 1129 0598 1201     		.2byte	0x112
 1130 059a 71040000 		.4byte	0x471
 1131 059e 48       		.byte	0x48
 1132 059f 07       		.uleb128 0x7
 1133 05a0 723700   		.ascii	"r7\000"
 1134 05a3 0A       		.byte	0xa
 1135 05a4 1301     		.2byte	0x113
 1136 05a6 71040000 		.4byte	0x471
 1137 05aa 4C       		.byte	0x4c
 1138 05ab 07       		.uleb128 0x7
 1139 05ac 723800   		.ascii	"r8\000"
 1140 05af 0A       		.byte	0xa
ARM GAS  /var/folders/m4/4md61f0s1_g0rzfghffqnxvr0000gn/T//ccfPZNxl.s 			page 21


 1141 05b0 1401     		.2byte	0x114
 1142 05b2 71040000 		.4byte	0x471
 1143 05b6 50       		.byte	0x50
 1144 05b7 07       		.uleb128 0x7
 1145 05b8 723900   		.ascii	"r9\000"
 1146 05bb 0A       		.byte	0xa
 1147 05bc 1501     		.2byte	0x115
 1148 05be 71040000 		.4byte	0x471
 1149 05c2 54       		.byte	0x54
 1150 05c3 07       		.uleb128 0x7
 1151 05c4 72313000 		.ascii	"r10\000"
 1152 05c8 0A       		.byte	0xa
 1153 05c9 1601     		.2byte	0x116
 1154 05cb 71040000 		.4byte	0x471
 1155 05cf 58       		.byte	0x58
 1156 05d0 07       		.uleb128 0x7
 1157 05d1 72313100 		.ascii	"r11\000"
 1158 05d5 0A       		.byte	0xa
 1159 05d6 1701     		.2byte	0x117
 1160 05d8 71040000 		.4byte	0x471
 1161 05dc 5C       		.byte	0x5c
 1162 05dd 07       		.uleb128 0x7
 1163 05de 6C7200   		.ascii	"lr\000"
 1164 05e1 0A       		.byte	0xa
 1165 05e2 1801     		.2byte	0x118
 1166 05e4 71040000 		.4byte	0x471
 1167 05e8 60       		.byte	0x60
 1168 05e9 00       		.byte	0
 1169 05ea 09       		.uleb128 0x9
 1170 05eb 04       		.byte	0x4
 1171 05ec A0040000 		.4byte	0x4a0
 1172 05f0 10       		.uleb128 0x10
 1173 05f1 04       		.byte	0x4
 1174 05f2 0B       		.byte	0xb
 1175 05f3 38       		.byte	0x38
 1176 05f4 05060000 		.4byte	0x605
 1177 05f8 06       		.uleb128 0x6
 1178 05f9 CE050000 		.4byte	.LASF87
 1179 05fd 0B       		.byte	0xb
 1180 05fe 3C       		.byte	0x3c
 1181 05ff CE000000 		.4byte	0xce
 1182 0603 00       		.byte	0
 1183 0604 00       		.byte	0
 1184 0605 03       		.uleb128 0x3
 1185 0606 39030000 		.4byte	.LASF88
 1186 060a 0B       		.byte	0xb
 1187 060b 3D       		.byte	0x3d
 1188 060c F0050000 		.4byte	0x5f0
 1189 0610 11       		.uleb128 0x11
 1190 0611 04       		.byte	0x4
 1191 0612 08       		.byte	0x8
 1192 0613 FA       		.byte	0xfa
 1193 0614 6D060000 		.4byte	0x66d
 1194 0618 12       		.uleb128 0x12
 1195 0619 14000000 		.4byte	.LASF89
 1196 061d 08       		.byte	0x8
 1197 061e 0101     		.2byte	0x101
ARM GAS  /var/folders/m4/4md61f0s1_g0rzfghffqnxvr0000gn/T//ccfPZNxl.s 			page 22


 1198 0620 10010000 		.4byte	0x110
 1199 0624 12       		.uleb128 0x12
 1200 0625 80000000 		.4byte	.LASF90
 1201 0629 08       		.byte	0x8
 1202 062a 0801     		.2byte	0x108
 1203 062c 10010000 		.4byte	0x110
 1204 0630 12       		.uleb128 0x12
 1205 0631 4B060000 		.4byte	.LASF91
 1206 0635 08       		.byte	0x8
 1207 0636 0F01     		.2byte	0x10f
 1208 0638 34030000 		.4byte	0x334
 1209 063c 12       		.uleb128 0x12
 1210 063d 16010000 		.4byte	.LASF92
 1211 0641 08       		.byte	0x8
 1212 0642 1601     		.2byte	0x116
 1213 0644 6D060000 		.4byte	0x66d
 1214 0648 12       		.uleb128 0x12
 1215 0649 AC010000 		.4byte	.LASF93
 1216 064d 08       		.byte	0x8
 1217 064e 1E01     		.2byte	0x11e
 1218 0650 98060000 		.4byte	0x698
 1219 0654 12       		.uleb128 0x12
 1220 0655 41040000 		.4byte	.LASF94
 1221 0659 08       		.byte	0x8
 1222 065a 2701     		.2byte	0x127
 1223 065c CF060000 		.4byte	0x6cf
 1224 0660 12       		.uleb128 0x12
 1225 0661 E9030000 		.4byte	.LASF95
 1226 0665 08       		.byte	0x8
 1227 0666 2F01     		.2byte	0x12f
 1228 0668 1B010000 		.4byte	0x11b
 1229 066c 00       		.byte	0
 1230 066d 09       		.uleb128 0x9
 1231 066e 04       		.byte	0x4
 1232 066f 4C020000 		.4byte	0x24c
 1233 0673 05       		.uleb128 0x5
 1234 0674 20040000 		.4byte	.LASF96
 1235 0678 0C       		.byte	0xc
 1236 0679 0C       		.byte	0xc
 1237 067a 34       		.byte	0x34
 1238 067b 98060000 		.4byte	0x698
 1239 067f 06       		.uleb128 0x6
 1240 0680 40010000 		.4byte	.LASF97
 1241 0684 0C       		.byte	0xc
 1242 0685 35       		.byte	0x35
 1243 0686 81020000 		.4byte	0x281
 1244 068a 00       		.byte	0
 1245 068b 06       		.uleb128 0x6
 1246 068c D5010000 		.4byte	.LASF98
 1247 0690 0C       		.byte	0xc
 1248 0691 37       		.byte	0x37
 1249 0692 26010000 		.4byte	0x126
 1250 0696 08       		.byte	0x8
 1251 0697 00       		.byte	0
 1252 0698 09       		.uleb128 0x9
 1253 0699 04       		.byte	0x4
 1254 069a 73060000 		.4byte	0x673
ARM GAS  /var/folders/m4/4md61f0s1_g0rzfghffqnxvr0000gn/T//ccfPZNxl.s 			page 23


 1255 069e 05       		.uleb128 0x5
 1256 069f D5050000 		.4byte	.LASF99
 1257 06a3 10       		.byte	0x10
 1258 06a4 0D       		.byte	0xd
 1259 06a5 39       		.byte	0x39
 1260 06a6 CF060000 		.4byte	0x6cf
 1261 06aa 06       		.uleb128 0x6
 1262 06ab F1000000 		.4byte	.LASF100
 1263 06af 0D       		.byte	0xd
 1264 06b0 3A       		.byte	0x3a
 1265 06b1 81020000 		.4byte	0x281
 1266 06b5 00       		.byte	0
 1267 06b6 06       		.uleb128 0x6
 1268 06b7 8D060000 		.4byte	.LASF101
 1269 06bb 0D       		.byte	0xd
 1270 06bc 3C       		.byte	0x3c
 1271 06bd 57020000 		.4byte	0x257
 1272 06c1 08       		.byte	0x8
 1273 06c2 06       		.uleb128 0x6
 1274 06c3 86050000 		.4byte	.LASF102
 1275 06c7 0D       		.byte	0xd
 1276 06c8 3E       		.byte	0x3e
 1277 06c9 12070000 		.4byte	0x712
 1278 06cd 0C       		.byte	0xc
 1279 06ce 00       		.byte	0
 1280 06cf 09       		.uleb128 0x9
 1281 06d0 04       		.byte	0x4
 1282 06d1 9E060000 		.4byte	0x69e
 1283 06d5 09       		.uleb128 0x9
 1284 06d6 04       		.byte	0x4
 1285 06d7 E2060000 		.4byte	0x6e2
 1286 06db 04       		.uleb128 0x4
 1287 06dc 01       		.byte	0x1
 1288 06dd 08       		.byte	0x8
 1289 06de 72040000 		.4byte	.LASF103
 1290 06e2 13       		.uleb128 0x13
 1291 06e3 DB060000 		.4byte	0x6db
 1292 06e7 14       		.uleb128 0x14
 1293 06e8 31010000 		.4byte	0x131
 1294 06ec 09       		.uleb128 0x9
 1295 06ed 04       		.byte	0x4
 1296 06ee 36030000 		.4byte	0x336
 1297 06f2 14       		.uleb128 0x14
 1298 06f3 D5060000 		.4byte	0x6d5
 1299 06f7 15       		.uleb128 0x15
 1300 06f8 7C040000 		.4byte	0x47c
 1301 06fc 07070000 		.4byte	0x707
 1302 0700 16       		.uleb128 0x16
 1303 0701 6A040000 		.4byte	0x46a
 1304 0705 3A       		.byte	0x3a
 1305 0706 00       		.byte	0
 1306 0707 03       		.uleb128 0x3
 1307 0708 6D010000 		.4byte	.LASF104
 1308 070c 0D       		.byte	0xd
 1309 070d 34       		.byte	0x34
 1310 070e 9E060000 		.4byte	0x69e
 1311 0712 09       		.uleb128 0x9
ARM GAS  /var/folders/m4/4md61f0s1_g0rzfghffqnxvr0000gn/T//ccfPZNxl.s 			page 24


 1312 0713 04       		.byte	0x4
 1313 0714 07070000 		.4byte	0x707
 1314 0718 03       		.uleb128 0x3
 1315 0719 5C000000 		.4byte	.LASF105
 1316 071d 0E       		.byte	0xe
 1317 071e 34       		.byte	0x34
 1318 071f 23070000 		.4byte	0x723
 1319 0723 09       		.uleb128 0x9
 1320 0724 04       		.byte	0x4
 1321 0725 29070000 		.4byte	0x729
 1322 0729 17       		.uleb128 0x17
 1323 072a 34030000 		.4byte	0x334
 1324 072e 38070000 		.4byte	0x738
 1325 0732 0C       		.uleb128 0xc
 1326 0733 2C000000 		.4byte	0x2c
 1327 0737 00       		.byte	0
 1328 0738 05       		.uleb128 0x5
 1329 0739 13060000 		.4byte	.LASF106
 1330 073d 04       		.byte	0x4
 1331 073e 0F       		.byte	0xf
 1332 073f 38       		.byte	0x38
 1333 0740 51070000 		.4byte	0x751
 1334 0744 06       		.uleb128 0x6
 1335 0745 67030000 		.4byte	.LASF107
 1336 0749 0F       		.byte	0xf
 1337 074a 39       		.byte	0x39
 1338 074b 51070000 		.4byte	0x751
 1339 074f 00       		.byte	0
 1340 0750 00       		.byte	0
 1341 0751 09       		.uleb128 0x9
 1342 0752 04       		.byte	0x4
 1343 0753 38070000 		.4byte	0x738
 1344 0757 10       		.uleb128 0x10
 1345 0758 0C       		.byte	0xc
 1346 0759 0F       		.byte	0xf
 1347 075a 40       		.byte	0x40
 1348 075b 84070000 		.4byte	0x784
 1349 075f 06       		.uleb128 0x6
 1350 0760 DE050000 		.4byte	.LASF108
 1351 0764 0F       		.byte	0xf
 1352 0765 41       		.byte	0x41
 1353 0766 51070000 		.4byte	0x751
 1354 076a 00       		.byte	0
 1355 076b 06       		.uleb128 0x6
 1356 076c 2A030000 		.4byte	.LASF109
 1357 0770 0F       		.byte	0xf
 1358 0771 42       		.byte	0x42
 1359 0772 2C000000 		.4byte	0x2c
 1360 0776 04       		.byte	0x4
 1361 0777 06       		.uleb128 0x6
 1362 0778 50010000 		.4byte	.LASF110
 1363 077c 0F       		.byte	0xf
 1364 077d 44       		.byte	0x44
 1365 077e 18070000 		.4byte	0x718
 1366 0782 08       		.byte	0x8
 1367 0783 00       		.byte	0
 1368 0784 03       		.uleb128 0x3
ARM GAS  /var/folders/m4/4md61f0s1_g0rzfghffqnxvr0000gn/T//ccfPZNxl.s 			page 25


 1369 0785 C7010000 		.4byte	.LASF111
 1370 0789 0F       		.byte	0xf
 1371 078a 46       		.byte	0x46
 1372 078b 57070000 		.4byte	0x757
 1373 078f 18       		.uleb128 0x18
 1374 0790 B6050000 		.4byte	.LASF114
 1375 0794 02       		.byte	0x2
 1376 0795 2202     		.2byte	0x222
 1377 0797 03       		.byte	0x3
 1378 0798 A9070000 		.4byte	0x7a9
 1379 079c 19       		.uleb128 0x19
 1380 079d 75010000 		.4byte	.LASF116
 1381 07a1 02       		.byte	0x2
 1382 07a2 2202     		.2byte	0x222
 1383 07a4 B8000000 		.4byte	0xb8
 1384 07a8 00       		.byte	0
 1385 07a9 1A       		.uleb128 0x1a
 1386 07aa 52000000 		.4byte	.LASF112
 1387 07ae 0A       		.byte	0xa
 1388 07af C801     		.2byte	0x1c8
 1389 07b1 03       		.byte	0x3
 1390 07b2 1A       		.uleb128 0x1a
 1391 07b3 00010000 		.4byte	.LASF113
 1392 07b7 0A       		.byte	0xa
 1393 07b8 E001     		.2byte	0x1e0
 1394 07ba 03       		.byte	0x3
 1395 07bb 18       		.uleb128 0x18
 1396 07bc 71060000 		.4byte	.LASF115
 1397 07c0 10       		.byte	0x10
 1398 07c1 6601     		.2byte	0x166
 1399 07c3 03       		.byte	0x3
 1400 07c4 D6070000 		.4byte	0x7d6
 1401 07c8 1B       		.uleb128 0x1b
 1402 07c9 F7030000 		.4byte	.LASF117
 1403 07cd E6070000 		.4byte	0x7e6
 1404 07d1 71060000 		.4byte	.LASF115
 1405 07d5 00       		.byte	0
 1406 07d6 15       		.uleb128 0x15
 1407 07d7 DB060000 		.4byte	0x6db
 1408 07db E6070000 		.4byte	0x7e6
 1409 07df 16       		.uleb128 0x16
 1410 07e0 6A040000 		.4byte	0x46a
 1411 07e4 0B       		.byte	0xb
 1412 07e5 00       		.byte	0
 1413 07e6 13       		.uleb128 0x13
 1414 07e7 D6070000 		.4byte	0x7d6
 1415 07eb 1C       		.uleb128 0x1c
 1416 07ec 03030000 		.4byte	.LASF119
 1417 07f0 01       		.byte	0x1
 1418 07f1 78       		.byte	0x78
 1419 07f2 34030000 		.4byte	0x334
 1420 07f6 01       		.byte	0x1
 1421 07f7 1E080000 		.4byte	0x81e
 1422 07fb 1D       		.uleb128 0x1d
 1423 07fc 6D7000   		.ascii	"mp\000"
 1424 07ff 01       		.byte	0x1
 1425 0800 78       		.byte	0x78
ARM GAS  /var/folders/m4/4md61f0s1_g0rzfghffqnxvr0000gn/T//ccfPZNxl.s 			page 26


 1426 0801 1E080000 		.4byte	0x81e
 1427 0805 1E       		.uleb128 0x1e
 1428 0806 0A040000 		.4byte	.LASF118
 1429 080a 01       		.byte	0x1
 1430 080b 79       		.byte	0x79
 1431 080c 34030000 		.4byte	0x334
 1432 0810 1B       		.uleb128 0x1b
 1433 0811 F7030000 		.4byte	.LASF117
 1434 0815 34080000 		.4byte	0x834
 1435 0819 03030000 		.4byte	.LASF119
 1436 081d 00       		.byte	0
 1437 081e 09       		.uleb128 0x9
 1438 081f 04       		.byte	0x4
 1439 0820 84070000 		.4byte	0x784
 1440 0824 15       		.uleb128 0x15
 1441 0825 DB060000 		.4byte	0x6db
 1442 0829 34080000 		.4byte	0x834
 1443 082d 16       		.uleb128 0x16
 1444 082e 6A040000 		.4byte	0x46a
 1445 0832 0C       		.byte	0xc
 1446 0833 00       		.byte	0
 1447 0834 13       		.uleb128 0x13
 1448 0835 24080000 		.4byte	0x824
 1449 0839 1A       		.uleb128 0x1a
 1450 083a 00040000 		.4byte	.LASF120
 1451 083e 10       		.byte	0x10
 1452 083f 5A01     		.2byte	0x15a
 1453 0841 03       		.byte	0x3
 1454 0842 1F       		.uleb128 0x1f
 1455 0843 10030000 		.4byte	.LASF121
 1456 0847 01       		.byte	0x1
 1457 0848 AB       		.byte	0xab
 1458 0849 01       		.byte	0x1
 1459 084a 7C080000 		.4byte	0x87c
 1460 084e 1D       		.uleb128 0x1d
 1461 084f 6D7000   		.ascii	"mp\000"
 1462 0852 01       		.byte	0x1
 1463 0853 AB       		.byte	0xab
 1464 0854 1E080000 		.4byte	0x81e
 1465 0858 20       		.uleb128 0x20
 1466 0859 0A040000 		.4byte	.LASF118
 1467 085d 01       		.byte	0x1
 1468 085e AB       		.byte	0xab
 1469 085f 34030000 		.4byte	0x334
 1470 0863 21       		.uleb128 0x21
 1471 0864 70687000 		.ascii	"php\000"
 1472 0868 01       		.byte	0x1
 1473 0869 AC       		.byte	0xac
 1474 086a 51070000 		.4byte	0x751
 1475 086e 1B       		.uleb128 0x1b
 1476 086f F7030000 		.4byte	.LASF117
 1477 0873 7C080000 		.4byte	0x87c
 1478 0877 10030000 		.4byte	.LASF121
 1479 087b 00       		.byte	0
 1480 087c 13       		.uleb128 0x13
 1481 087d D6070000 		.4byte	0x7d6
 1482 0881 1F       		.uleb128 0x1f
ARM GAS  /var/folders/m4/4md61f0s1_g0rzfghffqnxvr0000gn/T//ccfPZNxl.s 			page 27


 1483 0882 40060000 		.4byte	.LASF122
 1484 0886 01       		.byte	0x1
 1485 0887 C1       		.byte	0xc1
 1486 0888 01       		.byte	0x1
 1487 0889 A3080000 		.4byte	0x8a3
 1488 088d 1D       		.uleb128 0x1d
 1489 088e 6D7000   		.ascii	"mp\000"
 1490 0891 01       		.byte	0x1
 1491 0892 C1       		.byte	0xc1
 1492 0893 1E080000 		.4byte	0x81e
 1493 0897 20       		.uleb128 0x20
 1494 0898 0A040000 		.4byte	.LASF118
 1495 089c 01       		.byte	0x1
 1496 089d C1       		.byte	0xc1
 1497 089e 34030000 		.4byte	0x334
 1498 08a2 00       		.byte	0
 1499 08a3 22       		.uleb128 0x22
 1500 08a4 65020000 		.4byte	.LASF123
 1501 08a8 0F       		.byte	0xf
 1502 08a9 89       		.byte	0x89
 1503 08aa 03       		.byte	0x3
 1504 08ab C5080000 		.4byte	0x8c5
 1505 08af 1D       		.uleb128 0x1d
 1506 08b0 6D7000   		.ascii	"mp\000"
 1507 08b3 0F       		.byte	0xf
 1508 08b4 89       		.byte	0x89
 1509 08b5 1E080000 		.4byte	0x81e
 1510 08b9 20       		.uleb128 0x20
 1511 08ba 0A040000 		.4byte	.LASF118
 1512 08be 0F       		.byte	0xf
 1513 08bf 89       		.byte	0x89
 1514 08c0 34030000 		.4byte	0x334
 1515 08c4 00       		.byte	0
 1516 08c5 23       		.uleb128 0x23
 1517 08c6 77020000 		.4byte	.LASF126
 1518 08ca 01       		.byte	0x1
 1519 08cb 4B       		.byte	0x4b
 1520 08cc 00000000 		.4byte	.LFB231
 1521 08d0 0A000000 		.4byte	.LFE231-.LFB231
 1522 08d4 01       		.uleb128 0x1
 1523 08d5 9C       		.byte	0x9c
 1524 08d6 0A090000 		.4byte	0x90a
 1525 08da 24       		.uleb128 0x24
 1526 08db 6D7000   		.ascii	"mp\000"
 1527 08de 01       		.byte	0x1
 1528 08df 4B       		.byte	0x4b
 1529 08e0 1E080000 		.4byte	0x81e
 1530 08e4 01       		.uleb128 0x1
 1531 08e5 50       		.byte	0x50
 1532 08e6 25       		.uleb128 0x25
 1533 08e7 59060000 		.4byte	.LASF124
 1534 08eb 01       		.byte	0x1
 1535 08ec 4B       		.byte	0x4b
 1536 08ed 2C000000 		.4byte	0x2c
 1537 08f1 01       		.uleb128 0x1
 1538 08f2 51       		.byte	0x51
 1539 08f3 25       		.uleb128 0x25
ARM GAS  /var/folders/m4/4md61f0s1_g0rzfghffqnxvr0000gn/T//ccfPZNxl.s 			page 28


 1540 08f4 49000000 		.4byte	.LASF125
 1541 08f8 01       		.byte	0x1
 1542 08f9 4B       		.byte	0x4b
 1543 08fa 18070000 		.4byte	0x718
 1544 08fe 01       		.uleb128 0x1
 1545 08ff 52       		.byte	0x52
 1546 0900 26       		.uleb128 0x26
 1547 0901 F7030000 		.4byte	.LASF117
 1548 0905 1A090000 		.4byte	0x91a
 1549 0909 00       		.byte	0
 1550 090a 15       		.uleb128 0x15
 1551 090b DB060000 		.4byte	0x6db
 1552 090f 1A090000 		.4byte	0x91a
 1553 0913 16       		.uleb128 0x16
 1554 0914 6A040000 		.4byte	0x46a
 1555 0918 10       		.byte	0x10
 1556 0919 00       		.byte	0
 1557 091a 13       		.uleb128 0x13
 1558 091b 0A090000 		.4byte	0x90a
 1559 091f 23       		.uleb128 0x23
 1560 0920 7D060000 		.4byte	.LASF127
 1561 0924 01       		.byte	0x1
 1562 0925 61       		.byte	0x61
 1563 0926 00000000 		.4byte	.LFB232
 1564 092a 22000000 		.4byte	.LFE232-.LFB232
 1565 092e 01       		.uleb128 0x1
 1566 092f 9C       		.byte	0x9c
 1567 0930 6B0A0000 		.4byte	0xa6b
 1568 0934 24       		.uleb128 0x24
 1569 0935 6D7000   		.ascii	"mp\000"
 1570 0938 01       		.byte	0x1
 1571 0939 61       		.byte	0x61
 1572 093a 1E080000 		.4byte	0x81e
 1573 093e 01       		.uleb128 0x1
 1574 093f 50       		.byte	0x50
 1575 0940 27       		.uleb128 0x27
 1576 0941 7000     		.ascii	"p\000"
 1577 0943 01       		.byte	0x1
 1578 0944 61       		.byte	0x61
 1579 0945 34030000 		.4byte	0x334
 1580 0949 00000000 		.4byte	.LLST0
 1581 094d 27       		.uleb128 0x27
 1582 094e 6E00     		.ascii	"n\000"
 1583 0950 01       		.byte	0x1
 1584 0951 61       		.byte	0x61
 1585 0952 2C000000 		.4byte	0x2c
 1586 0956 1E000000 		.4byte	.LLST1
 1587 095a 26       		.uleb128 0x26
 1588 095b F7030000 		.4byte	.LASF117
 1589 095f 7B0A0000 		.4byte	0xa7b
 1590 0963 28       		.uleb128 0x28
 1591 0964 A3080000 		.4byte	0x8a3
 1592 0968 04000000 		.4byte	.LBB77
 1593 096c 12000000 		.4byte	.LBE77-.LBB77
 1594 0970 01       		.byte	0x1
 1595 0971 66       		.byte	0x66
 1596 0972 29       		.uleb128 0x29
ARM GAS  /var/folders/m4/4md61f0s1_g0rzfghffqnxvr0000gn/T//ccfPZNxl.s 			page 29


 1597 0973 AF080000 		.4byte	0x8af
 1598 0977 49000000 		.4byte	.LLST2
 1599 097b 29       		.uleb128 0x29
 1600 097c B9080000 		.4byte	0x8b9
 1601 0980 5C000000 		.4byte	.LLST3
 1602 0984 28       		.uleb128 0x28
 1603 0985 81080000 		.4byte	0x881
 1604 0989 04000000 		.4byte	.LBB78
 1605 098d 12000000 		.4byte	.LBE78-.LBB78
 1606 0991 0F       		.byte	0xf
 1607 0992 8B       		.byte	0x8b
 1608 0993 29       		.uleb128 0x29
 1609 0994 97080000 		.4byte	0x897
 1610 0998 5C000000 		.4byte	.LLST3
 1611 099c 29       		.uleb128 0x29
 1612 099d 8D080000 		.4byte	0x88d
 1613 09a1 6F000000 		.4byte	.LLST5
 1614 09a5 2A       		.uleb128 0x2a
 1615 09a6 39080000 		.4byte	0x839
 1616 09aa 04000000 		.4byte	.LBB79
 1617 09ae 00000000 		.4byte	.Ldebug_ranges0+0
 1618 09b2 01       		.byte	0x1
 1619 09b3 C3       		.byte	0xc3
 1620 09b4 E4090000 		.4byte	0x9e4
 1621 09b8 2B       		.uleb128 0x2b
 1622 09b9 A9070000 		.4byte	0x7a9
 1623 09bd 04000000 		.4byte	.LBB80
 1624 09c1 00000000 		.4byte	.Ldebug_ranges0+0
 1625 09c5 10       		.byte	0x10
 1626 09c6 5C01     		.2byte	0x15c
 1627 09c8 2B       		.uleb128 0x2b
 1628 09c9 8F070000 		.4byte	0x78f
 1629 09cd 04000000 		.4byte	.LBB81
 1630 09d1 00000000 		.4byte	.Ldebug_ranges0+0
 1631 09d5 0A       		.byte	0xa
 1632 09d6 D001     		.2byte	0x1d0
 1633 09d8 29       		.uleb128 0x29
 1634 09d9 9C070000 		.4byte	0x79c
 1635 09dd 82000000 		.4byte	.LLST6
 1636 09e1 00       		.byte	0
 1637 09e2 00       		.byte	0
 1638 09e3 00       		.byte	0
 1639 09e4 2A       		.uleb128 0x2a
 1640 09e5 BB070000 		.4byte	0x7bb
 1641 09e9 06000000 		.4byte	.LBB86
 1642 09ed 18000000 		.4byte	.Ldebug_ranges0+0x18
 1643 09f1 01       		.byte	0x1
 1644 09f2 C5       		.byte	0xc5
 1645 09f3 2E0A0000 		.4byte	0xa2e
 1646 09f7 2C       		.uleb128 0x2c
 1647 09f8 18000000 		.4byte	.Ldebug_ranges0+0x18
 1648 09fc 2D       		.uleb128 0x2d
 1649 09fd C8070000 		.4byte	0x7c8
 1650 0a01 2B       		.uleb128 0x2b
 1651 0a02 B2070000 		.4byte	0x7b2
 1652 0a06 06000000 		.4byte	.LBB88
 1653 0a0a 18000000 		.4byte	.Ldebug_ranges0+0x18
ARM GAS  /var/folders/m4/4md61f0s1_g0rzfghffqnxvr0000gn/T//ccfPZNxl.s 			page 30


 1654 0a0e 10       		.byte	0x10
 1655 0a0f 7301     		.2byte	0x173
 1656 0a11 2B       		.uleb128 0x2b
 1657 0a12 8F070000 		.4byte	0x78f
 1658 0a16 06000000 		.4byte	.LBB89
 1659 0a1a 18000000 		.4byte	.Ldebug_ranges0+0x18
 1660 0a1e 0A       		.byte	0xa
 1661 0a1f E301     		.2byte	0x1e3
 1662 0a21 29       		.uleb128 0x29
 1663 0a22 9C070000 		.4byte	0x79c
 1664 0a26 97000000 		.4byte	.LLST7
 1665 0a2a 00       		.byte	0
 1666 0a2b 00       		.byte	0
 1667 0a2c 00       		.byte	0
 1668 0a2d 00       		.byte	0
 1669 0a2e 28       		.uleb128 0x28
 1670 0a2f 42080000 		.4byte	0x842
 1671 0a33 0C000000 		.4byte	.LBB96
 1672 0a37 06000000 		.4byte	.LBE96-.LBB96
 1673 0a3b 01       		.byte	0x1
 1674 0a3c C4       		.byte	0xc4
 1675 0a3d 29       		.uleb128 0x29
 1676 0a3e 58080000 		.4byte	0x858
 1677 0a42 AB000000 		.4byte	.LLST8
 1678 0a46 29       		.uleb128 0x29
 1679 0a47 4E080000 		.4byte	0x84e
 1680 0a4b BE000000 		.4byte	.LLST9
 1681 0a4f 2E       		.uleb128 0x2e
 1682 0a50 0C000000 		.4byte	.LBB97
 1683 0a54 06000000 		.4byte	.LBE97-.LBB97
 1684 0a58 2F       		.uleb128 0x2f
 1685 0a59 63080000 		.4byte	0x863
 1686 0a5d D1000000 		.4byte	.LLST10
 1687 0a61 2D       		.uleb128 0x2d
 1688 0a62 6E080000 		.4byte	0x86e
 1689 0a66 00       		.byte	0
 1690 0a67 00       		.byte	0
 1691 0a68 00       		.byte	0
 1692 0a69 00       		.byte	0
 1693 0a6a 00       		.byte	0
 1694 0a6b 15       		.uleb128 0x15
 1695 0a6c DB060000 		.4byte	0x6db
 1696 0a70 7B0A0000 		.4byte	0xa7b
 1697 0a74 16       		.uleb128 0x16
 1698 0a75 6A040000 		.4byte	0x46a
 1699 0a79 0F       		.byte	0xf
 1700 0a7a 00       		.byte	0
 1701 0a7b 13       		.uleb128 0x13
 1702 0a7c 6B0A0000 		.4byte	0xa6b
 1703 0a80 30       		.uleb128 0x30
 1704 0a81 EB070000 		.4byte	0x7eb
 1705 0a85 00000000 		.4byte	.LFB233
 1706 0a89 16000000 		.4byte	.LFE233-.LFB233
 1707 0a8d 01       		.uleb128 0x1
 1708 0a8e 9C       		.byte	0x9c
 1709 0a8f AB0A0000 		.4byte	0xaab
 1710 0a93 29       		.uleb128 0x29
ARM GAS  /var/folders/m4/4md61f0s1_g0rzfghffqnxvr0000gn/T//ccfPZNxl.s 			page 31


 1711 0a94 FB070000 		.4byte	0x7fb
 1712 0a98 F0000000 		.4byte	.LLST11
 1713 0a9c 2F       		.uleb128 0x2f
 1714 0a9d 05080000 		.4byte	0x805
 1715 0aa1 2A010000 		.4byte	.LLST12
 1716 0aa5 2D       		.uleb128 0x2d
 1717 0aa6 10080000 		.4byte	0x810
 1718 0aaa 00       		.byte	0
 1719 0aab 31       		.uleb128 0x31
 1720 0aac 34060000 		.4byte	.LASF132
 1721 0ab0 01       		.byte	0x1
 1722 0ab1 95       		.byte	0x95
 1723 0ab2 34030000 		.4byte	0x334
 1724 0ab6 00000000 		.4byte	.LFB234
 1725 0aba 2C000000 		.4byte	.LFE234-.LFB234
 1726 0abe 01       		.uleb128 0x1
 1727 0abf 9C       		.byte	0x9c
 1728 0ac0 960B0000 		.4byte	0xb96
 1729 0ac4 27       		.uleb128 0x27
 1730 0ac5 6D7000   		.ascii	"mp\000"
 1731 0ac8 01       		.byte	0x1
 1732 0ac9 95       		.byte	0x95
 1733 0aca 1E080000 		.4byte	0x81e
 1734 0ace 3D010000 		.4byte	.LLST13
 1735 0ad2 32       		.uleb128 0x32
 1736 0ad3 0A040000 		.4byte	.LASF118
 1737 0ad7 01       		.byte	0x1
 1738 0ad8 96       		.byte	0x96
 1739 0ad9 34030000 		.4byte	0x334
 1740 0add 01       		.uleb128 0x1
 1741 0ade 50       		.byte	0x50
 1742 0adf 2A       		.uleb128 0x2a
 1743 0ae0 39080000 		.4byte	0x839
 1744 0ae4 02000000 		.4byte	.LBB99
 1745 0ae8 30000000 		.4byte	.Ldebug_ranges0+0x30
 1746 0aec 01       		.byte	0x1
 1747 0aed 98       		.byte	0x98
 1748 0aee 1E0B0000 		.4byte	0xb1e
 1749 0af2 2B       		.uleb128 0x2b
 1750 0af3 A9070000 		.4byte	0x7a9
 1751 0af7 02000000 		.4byte	.LBB100
 1752 0afb 30000000 		.4byte	.Ldebug_ranges0+0x30
 1753 0aff 10       		.byte	0x10
 1754 0b00 5C01     		.2byte	0x15c
 1755 0b02 2B       		.uleb128 0x2b
 1756 0b03 8F070000 		.4byte	0x78f
 1757 0b07 02000000 		.4byte	.LBB101
 1758 0b0b 30000000 		.4byte	.Ldebug_ranges0+0x30
 1759 0b0f 0A       		.byte	0xa
 1760 0b10 D001     		.2byte	0x1d0
 1761 0b12 29       		.uleb128 0x29
 1762 0b13 9C070000 		.4byte	0x79c
 1763 0b17 82010000 		.4byte	.LLST14
 1764 0b1b 00       		.byte	0
 1765 0b1c 00       		.byte	0
 1766 0b1d 00       		.byte	0
 1767 0b1e 2A       		.uleb128 0x2a
ARM GAS  /var/folders/m4/4md61f0s1_g0rzfghffqnxvr0000gn/T//ccfPZNxl.s 			page 32


 1768 0b1f EB070000 		.4byte	0x7eb
 1769 0b23 0A000000 		.4byte	.LBB107
 1770 0b27 48000000 		.4byte	.Ldebug_ranges0+0x48
 1771 0b2b 01       		.byte	0x1
 1772 0b2c 99       		.byte	0x99
 1773 0b2d 4F0B0000 		.4byte	0xb4f
 1774 0b31 29       		.uleb128 0x29
 1775 0b32 FB070000 		.4byte	0x7fb
 1776 0b36 97010000 		.4byte	.LLST15
 1777 0b3a 2C       		.uleb128 0x2c
 1778 0b3b 48000000 		.4byte	.Ldebug_ranges0+0x48
 1779 0b3f 2F       		.uleb128 0x2f
 1780 0b40 05080000 		.4byte	0x805
 1781 0b44 CE010000 		.4byte	.LLST16
 1782 0b48 2D       		.uleb128 0x2d
 1783 0b49 10080000 		.4byte	0x810
 1784 0b4d 00       		.byte	0
 1785 0b4e 00       		.byte	0
 1786 0b4f 33       		.uleb128 0x33
 1787 0b50 BB070000 		.4byte	0x7bb
 1788 0b54 12000000 		.4byte	.LBB110
 1789 0b58 60000000 		.4byte	.Ldebug_ranges0+0x60
 1790 0b5c 01       		.byte	0x1
 1791 0b5d 9A       		.byte	0x9a
 1792 0b5e 2C       		.uleb128 0x2c
 1793 0b5f 60000000 		.4byte	.Ldebug_ranges0+0x60
 1794 0b63 2D       		.uleb128 0x2d
 1795 0b64 C8070000 		.4byte	0x7c8
 1796 0b68 2B       		.uleb128 0x2b
 1797 0b69 B2070000 		.4byte	0x7b2
 1798 0b6d 12000000 		.4byte	.LBB112
 1799 0b71 60000000 		.4byte	.Ldebug_ranges0+0x60
 1800 0b75 10       		.byte	0x10
 1801 0b76 7301     		.2byte	0x173
 1802 0b78 2B       		.uleb128 0x2b
 1803 0b79 8F070000 		.4byte	0x78f
 1804 0b7d 12000000 		.4byte	.LBB113
 1805 0b81 60000000 		.4byte	.Ldebug_ranges0+0x60
 1806 0b85 0A       		.byte	0xa
 1807 0b86 E301     		.2byte	0x1e3
 1808 0b88 29       		.uleb128 0x29
 1809 0b89 9C070000 		.4byte	0x79c
 1810 0b8d F8010000 		.4byte	.LLST17
 1811 0b91 00       		.byte	0
 1812 0b92 00       		.byte	0
 1813 0b93 00       		.byte	0
 1814 0b94 00       		.byte	0
 1815 0b95 00       		.byte	0
 1816 0b96 34       		.uleb128 0x34
 1817 0b97 42080000 		.4byte	0x842
 1818 0b9b 00000000 		.4byte	.LFB235
 1819 0b9f 08000000 		.4byte	.LFE235-.LFB235
 1820 0ba3 01       		.uleb128 0x1
 1821 0ba4 9C       		.byte	0x9c
 1822 0ba5 C40B0000 		.4byte	0xbc4
 1823 0ba9 35       		.uleb128 0x35
 1824 0baa 4E080000 		.4byte	0x84e
ARM GAS  /var/folders/m4/4md61f0s1_g0rzfghffqnxvr0000gn/T//ccfPZNxl.s 			page 33


 1825 0bae 01       		.uleb128 0x1
 1826 0baf 50       		.byte	0x50
 1827 0bb0 35       		.uleb128 0x35
 1828 0bb1 58080000 		.4byte	0x858
 1829 0bb5 01       		.uleb128 0x1
 1830 0bb6 51       		.byte	0x51
 1831 0bb7 36       		.uleb128 0x36
 1832 0bb8 63080000 		.4byte	0x863
 1833 0bbc 01       		.uleb128 0x1
 1834 0bbd 51       		.byte	0x51
 1835 0bbe 2D       		.uleb128 0x2d
 1836 0bbf 6E080000 		.4byte	0x86e
 1837 0bc3 00       		.byte	0
 1838 0bc4 34       		.uleb128 0x34
 1839 0bc5 81080000 		.4byte	0x881
 1840 0bc9 00000000 		.4byte	.LFB236
 1841 0bcd 14000000 		.4byte	.LFE236-.LFB236
 1842 0bd1 01       		.uleb128 0x1
 1843 0bd2 9C       		.byte	0x9c
 1844 0bd3 A30C0000 		.4byte	0xca3
 1845 0bd7 35       		.uleb128 0x35
 1846 0bd8 8D080000 		.4byte	0x88d
 1847 0bdc 01       		.uleb128 0x1
 1848 0bdd 50       		.byte	0x50
 1849 0bde 35       		.uleb128 0x35
 1850 0bdf 97080000 		.4byte	0x897
 1851 0be3 01       		.uleb128 0x1
 1852 0be4 51       		.byte	0x51
 1853 0be5 37       		.uleb128 0x37
 1854 0be6 39080000 		.4byte	0x839
 1855 0bea 00000000 		.4byte	.LBB121
 1856 0bee 06000000 		.4byte	.LBE121-.LBB121
 1857 0bf2 01       		.byte	0x1
 1858 0bf3 C3       		.byte	0xc3
 1859 0bf4 240C0000 		.4byte	0xc24
 1860 0bf8 38       		.uleb128 0x38
 1861 0bf9 A9070000 		.4byte	0x7a9
 1862 0bfd 00000000 		.4byte	.LBB122
 1863 0c01 06000000 		.4byte	.LBE122-.LBB122
 1864 0c05 10       		.byte	0x10
 1865 0c06 5C01     		.2byte	0x15c
 1866 0c08 38       		.uleb128 0x38
 1867 0c09 8F070000 		.4byte	0x78f
 1868 0c0d 00000000 		.4byte	.LBB123
 1869 0c11 06000000 		.4byte	.LBE123-.LBB123
 1870 0c15 0A       		.byte	0xa
 1871 0c16 D001     		.2byte	0x1d0
 1872 0c18 29       		.uleb128 0x29
 1873 0c19 9C070000 		.4byte	0x79c
 1874 0c1d 18020000 		.4byte	.LLST18
 1875 0c21 00       		.byte	0
 1876 0c22 00       		.byte	0
 1877 0c23 00       		.byte	0
 1878 0c24 2A       		.uleb128 0x2a
 1879 0c25 42080000 		.4byte	0x842
 1880 0c29 06000000 		.4byte	.LBB125
 1881 0c2d 78000000 		.4byte	.Ldebug_ranges0+0x78
ARM GAS  /var/folders/m4/4md61f0s1_g0rzfghffqnxvr0000gn/T//ccfPZNxl.s 			page 34


 1882 0c31 01       		.byte	0x1
 1883 0c32 C4       		.byte	0xc4
 1884 0c33 5C0C0000 		.4byte	0xc5c
 1885 0c37 29       		.uleb128 0x29
 1886 0c38 58080000 		.4byte	0x858
 1887 0c3c 2D020000 		.4byte	.LLST19
 1888 0c40 29       		.uleb128 0x29
 1889 0c41 4E080000 		.4byte	0x84e
 1890 0c45 40020000 		.4byte	.LLST20
 1891 0c49 2C       		.uleb128 0x2c
 1892 0c4a 78000000 		.4byte	.Ldebug_ranges0+0x78
 1893 0c4e 36       		.uleb128 0x36
 1894 0c4f 63080000 		.4byte	0x863
 1895 0c53 01       		.uleb128 0x1
 1896 0c54 51       		.byte	0x51
 1897 0c55 2D       		.uleb128 0x2d
 1898 0c56 6E080000 		.4byte	0x86e
 1899 0c5a 00       		.byte	0
 1900 0c5b 00       		.byte	0
 1901 0c5c 33       		.uleb128 0x33
 1902 0c5d BB070000 		.4byte	0x7bb
 1903 0c61 0A000000 		.4byte	.LBB128
 1904 0c65 90000000 		.4byte	.Ldebug_ranges0+0x90
 1905 0c69 01       		.byte	0x1
 1906 0c6a C5       		.byte	0xc5
 1907 0c6b 2C       		.uleb128 0x2c
 1908 0c6c 90000000 		.4byte	.Ldebug_ranges0+0x90
 1909 0c70 2D       		.uleb128 0x2d
 1910 0c71 C8070000 		.4byte	0x7c8
 1911 0c75 2B       		.uleb128 0x2b
 1912 0c76 B2070000 		.4byte	0x7b2
 1913 0c7a 0A000000 		.4byte	.LBB130
 1914 0c7e 90000000 		.4byte	.Ldebug_ranges0+0x90
 1915 0c82 10       		.byte	0x10
 1916 0c83 7301     		.2byte	0x173
 1917 0c85 2B       		.uleb128 0x2b
 1918 0c86 8F070000 		.4byte	0x78f
 1919 0c8a 0A000000 		.4byte	.LBB131
 1920 0c8e 90000000 		.4byte	.Ldebug_ranges0+0x90
 1921 0c92 0A       		.byte	0xa
 1922 0c93 E301     		.2byte	0x1e3
 1923 0c95 29       		.uleb128 0x29
 1924 0c96 9C070000 		.4byte	0x79c
 1925 0c9a 53020000 		.4byte	.LLST21
 1926 0c9e 00       		.byte	0
 1927 0c9f 00       		.byte	0
 1928 0ca0 00       		.byte	0
 1929 0ca1 00       		.byte	0
 1930 0ca2 00       		.byte	0
 1931 0ca3 39       		.uleb128 0x39
 1932 0ca4 AA000000 		.4byte	.LASF128
 1933 0ca8 11       		.byte	0x11
 1934 0ca9 FA06     		.2byte	0x6fa
 1935 0cab AF0C0000 		.4byte	0xcaf
 1936 0caf 14       		.uleb128 0x14
 1937 0cb0 AD000000 		.4byte	0xad
 1938 0cb4 3A       		.uleb128 0x3a
ARM GAS  /var/folders/m4/4md61f0s1_g0rzfghffqnxvr0000gn/T//ccfPZNxl.s 			page 35


 1939 0cb5 636800   		.ascii	"ch\000"
 1940 0cb8 08       		.byte	0x8
 1941 0cb9 0902     		.2byte	0x209
 1942 0cbb 03040000 		.4byte	0x403
 1943 0cbf 00       		.byte	0
 1944              		.section	.debug_abbrev,"",%progbits
 1945              	.Ldebug_abbrev0:
 1946 0000 01       		.uleb128 0x1
 1947 0001 11       		.uleb128 0x11
 1948 0002 01       		.byte	0x1
 1949 0003 25       		.uleb128 0x25
 1950 0004 0E       		.uleb128 0xe
 1951 0005 13       		.uleb128 0x13
 1952 0006 0B       		.uleb128 0xb
 1953 0007 03       		.uleb128 0x3
 1954 0008 0E       		.uleb128 0xe
 1955 0009 1B       		.uleb128 0x1b
 1956 000a 0E       		.uleb128 0xe
 1957 000b 55       		.uleb128 0x55
 1958 000c 17       		.uleb128 0x17
 1959 000d 11       		.uleb128 0x11
 1960 000e 01       		.uleb128 0x1
 1961 000f 10       		.uleb128 0x10
 1962 0010 17       		.uleb128 0x17
 1963 0011 00       		.byte	0
 1964 0012 00       		.byte	0
 1965 0013 02       		.uleb128 0x2
 1966 0014 24       		.uleb128 0x24
 1967 0015 00       		.byte	0
 1968 0016 0B       		.uleb128 0xb
 1969 0017 0B       		.uleb128 0xb
 1970 0018 3E       		.uleb128 0x3e
 1971 0019 0B       		.uleb128 0xb
 1972 001a 03       		.uleb128 0x3
 1973 001b 08       		.uleb128 0x8
 1974 001c 00       		.byte	0
 1975 001d 00       		.byte	0
 1976 001e 03       		.uleb128 0x3
 1977 001f 16       		.uleb128 0x16
 1978 0020 00       		.byte	0
 1979 0021 03       		.uleb128 0x3
 1980 0022 0E       		.uleb128 0xe
 1981 0023 3A       		.uleb128 0x3a
 1982 0024 0B       		.uleb128 0xb
 1983 0025 3B       		.uleb128 0x3b
 1984 0026 0B       		.uleb128 0xb
 1985 0027 49       		.uleb128 0x49
 1986 0028 13       		.uleb128 0x13
 1987 0029 00       		.byte	0
 1988 002a 00       		.byte	0
 1989 002b 04       		.uleb128 0x4
 1990 002c 24       		.uleb128 0x24
 1991 002d 00       		.byte	0
 1992 002e 0B       		.uleb128 0xb
 1993 002f 0B       		.uleb128 0xb
 1994 0030 3E       		.uleb128 0x3e
 1995 0031 0B       		.uleb128 0xb
ARM GAS  /var/folders/m4/4md61f0s1_g0rzfghffqnxvr0000gn/T//ccfPZNxl.s 			page 36


 1996 0032 03       		.uleb128 0x3
 1997 0033 0E       		.uleb128 0xe
 1998 0034 00       		.byte	0
 1999 0035 00       		.byte	0
 2000 0036 05       		.uleb128 0x5
 2001 0037 13       		.uleb128 0x13
 2002 0038 01       		.byte	0x1
 2003 0039 03       		.uleb128 0x3
 2004 003a 0E       		.uleb128 0xe
 2005 003b 0B       		.uleb128 0xb
 2006 003c 0B       		.uleb128 0xb
 2007 003d 3A       		.uleb128 0x3a
 2008 003e 0B       		.uleb128 0xb
 2009 003f 3B       		.uleb128 0x3b
 2010 0040 0B       		.uleb128 0xb
 2011 0041 01       		.uleb128 0x1
 2012 0042 13       		.uleb128 0x13
 2013 0043 00       		.byte	0
 2014 0044 00       		.byte	0
 2015 0045 06       		.uleb128 0x6
 2016 0046 0D       		.uleb128 0xd
 2017 0047 00       		.byte	0
 2018 0048 03       		.uleb128 0x3
 2019 0049 0E       		.uleb128 0xe
 2020 004a 3A       		.uleb128 0x3a
 2021 004b 0B       		.uleb128 0xb
 2022 004c 3B       		.uleb128 0x3b
 2023 004d 0B       		.uleb128 0xb
 2024 004e 49       		.uleb128 0x49
 2025 004f 13       		.uleb128 0x13
 2026 0050 38       		.uleb128 0x38
 2027 0051 0B       		.uleb128 0xb
 2028 0052 00       		.byte	0
 2029 0053 00       		.byte	0
 2030 0054 07       		.uleb128 0x7
 2031 0055 0D       		.uleb128 0xd
 2032 0056 00       		.byte	0
 2033 0057 03       		.uleb128 0x3
 2034 0058 08       		.uleb128 0x8
 2035 0059 3A       		.uleb128 0x3a
 2036 005a 0B       		.uleb128 0xb
 2037 005b 3B       		.uleb128 0x3b
 2038 005c 05       		.uleb128 0x5
 2039 005d 49       		.uleb128 0x49
 2040 005e 13       		.uleb128 0x13
 2041 005f 38       		.uleb128 0x38
 2042 0060 0B       		.uleb128 0xb
 2043 0061 00       		.byte	0
 2044 0062 00       		.byte	0
 2045 0063 08       		.uleb128 0x8
 2046 0064 0D       		.uleb128 0xd
 2047 0065 00       		.byte	0
 2048 0066 03       		.uleb128 0x3
 2049 0067 0E       		.uleb128 0xe
 2050 0068 3A       		.uleb128 0x3a
 2051 0069 0B       		.uleb128 0xb
 2052 006a 3B       		.uleb128 0x3b
ARM GAS  /var/folders/m4/4md61f0s1_g0rzfghffqnxvr0000gn/T//ccfPZNxl.s 			page 37


 2053 006b 05       		.uleb128 0x5
 2054 006c 49       		.uleb128 0x49
 2055 006d 13       		.uleb128 0x13
 2056 006e 38       		.uleb128 0x38
 2057 006f 0B       		.uleb128 0xb
 2058 0070 00       		.byte	0
 2059 0071 00       		.byte	0
 2060 0072 09       		.uleb128 0x9
 2061 0073 0F       		.uleb128 0xf
 2062 0074 00       		.byte	0
 2063 0075 0B       		.uleb128 0xb
 2064 0076 0B       		.uleb128 0xb
 2065 0077 49       		.uleb128 0x49
 2066 0078 13       		.uleb128 0x13
 2067 0079 00       		.byte	0
 2068 007a 00       		.byte	0
 2069 007b 0A       		.uleb128 0xa
 2070 007c 13       		.uleb128 0x13
 2071 007d 01       		.byte	0x1
 2072 007e 03       		.uleb128 0x3
 2073 007f 0E       		.uleb128 0xe
 2074 0080 0B       		.uleb128 0xb
 2075 0081 0B       		.uleb128 0xb
 2076 0082 3A       		.uleb128 0x3a
 2077 0083 0B       		.uleb128 0xb
 2078 0084 3B       		.uleb128 0x3b
 2079 0085 05       		.uleb128 0x5
 2080 0086 01       		.uleb128 0x1
 2081 0087 13       		.uleb128 0x13
 2082 0088 00       		.byte	0
 2083 0089 00       		.byte	0
 2084 008a 0B       		.uleb128 0xb
 2085 008b 15       		.uleb128 0x15
 2086 008c 01       		.byte	0x1
 2087 008d 27       		.uleb128 0x27
 2088 008e 19       		.uleb128 0x19
 2089 008f 01       		.uleb128 0x1
 2090 0090 13       		.uleb128 0x13
 2091 0091 00       		.byte	0
 2092 0092 00       		.byte	0
 2093 0093 0C       		.uleb128 0xc
 2094 0094 05       		.uleb128 0x5
 2095 0095 00       		.byte	0
 2096 0096 49       		.uleb128 0x49
 2097 0097 13       		.uleb128 0x13
 2098 0098 00       		.byte	0
 2099 0099 00       		.byte	0
 2100 009a 0D       		.uleb128 0xd
 2101 009b 0F       		.uleb128 0xf
 2102 009c 00       		.byte	0
 2103 009d 0B       		.uleb128 0xb
 2104 009e 0B       		.uleb128 0xb
 2105 009f 00       		.byte	0
 2106 00a0 00       		.byte	0
 2107 00a1 0E       		.uleb128 0xe
 2108 00a2 13       		.uleb128 0x13
 2109 00a3 01       		.byte	0x1
ARM GAS  /var/folders/m4/4md61f0s1_g0rzfghffqnxvr0000gn/T//ccfPZNxl.s 			page 38


 2110 00a4 03       		.uleb128 0x3
 2111 00a5 0E       		.uleb128 0xe
 2112 00a6 0B       		.uleb128 0xb
 2113 00a7 05       		.uleb128 0x5
 2114 00a8 3A       		.uleb128 0x3a
 2115 00a9 0B       		.uleb128 0xb
 2116 00aa 3B       		.uleb128 0x3b
 2117 00ab 05       		.uleb128 0x5
 2118 00ac 01       		.uleb128 0x1
 2119 00ad 13       		.uleb128 0x13
 2120 00ae 00       		.byte	0
 2121 00af 00       		.byte	0
 2122 00b0 0F       		.uleb128 0xf
 2123 00b1 0D       		.uleb128 0xd
 2124 00b2 00       		.byte	0
 2125 00b3 03       		.uleb128 0x3
 2126 00b4 08       		.uleb128 0x8
 2127 00b5 3A       		.uleb128 0x3a
 2128 00b6 0B       		.uleb128 0xb
 2129 00b7 3B       		.uleb128 0x3b
 2130 00b8 0B       		.uleb128 0xb
 2131 00b9 49       		.uleb128 0x49
 2132 00ba 13       		.uleb128 0x13
 2133 00bb 38       		.uleb128 0x38
 2134 00bc 0B       		.uleb128 0xb
 2135 00bd 00       		.byte	0
 2136 00be 00       		.byte	0
 2137 00bf 10       		.uleb128 0x10
 2138 00c0 13       		.uleb128 0x13
 2139 00c1 01       		.byte	0x1
 2140 00c2 0B       		.uleb128 0xb
 2141 00c3 0B       		.uleb128 0xb
 2142 00c4 3A       		.uleb128 0x3a
 2143 00c5 0B       		.uleb128 0xb
 2144 00c6 3B       		.uleb128 0x3b
 2145 00c7 0B       		.uleb128 0xb
 2146 00c8 01       		.uleb128 0x1
 2147 00c9 13       		.uleb128 0x13
 2148 00ca 00       		.byte	0
 2149 00cb 00       		.byte	0
 2150 00cc 11       		.uleb128 0x11
 2151 00cd 17       		.uleb128 0x17
 2152 00ce 01       		.byte	0x1
 2153 00cf 0B       		.uleb128 0xb
 2154 00d0 0B       		.uleb128 0xb
 2155 00d1 3A       		.uleb128 0x3a
 2156 00d2 0B       		.uleb128 0xb
 2157 00d3 3B       		.uleb128 0x3b
 2158 00d4 0B       		.uleb128 0xb
 2159 00d5 01       		.uleb128 0x1
 2160 00d6 13       		.uleb128 0x13
 2161 00d7 00       		.byte	0
 2162 00d8 00       		.byte	0
 2163 00d9 12       		.uleb128 0x12
 2164 00da 0D       		.uleb128 0xd
 2165 00db 00       		.byte	0
 2166 00dc 03       		.uleb128 0x3
ARM GAS  /var/folders/m4/4md61f0s1_g0rzfghffqnxvr0000gn/T//ccfPZNxl.s 			page 39


 2167 00dd 0E       		.uleb128 0xe
 2168 00de 3A       		.uleb128 0x3a
 2169 00df 0B       		.uleb128 0xb
 2170 00e0 3B       		.uleb128 0x3b
 2171 00e1 05       		.uleb128 0x5
 2172 00e2 49       		.uleb128 0x49
 2173 00e3 13       		.uleb128 0x13
 2174 00e4 00       		.byte	0
 2175 00e5 00       		.byte	0
 2176 00e6 13       		.uleb128 0x13
 2177 00e7 26       		.uleb128 0x26
 2178 00e8 00       		.byte	0
 2179 00e9 49       		.uleb128 0x49
 2180 00ea 13       		.uleb128 0x13
 2181 00eb 00       		.byte	0
 2182 00ec 00       		.byte	0
 2183 00ed 14       		.uleb128 0x14
 2184 00ee 35       		.uleb128 0x35
 2185 00ef 00       		.byte	0
 2186 00f0 49       		.uleb128 0x49
 2187 00f1 13       		.uleb128 0x13
 2188 00f2 00       		.byte	0
 2189 00f3 00       		.byte	0
 2190 00f4 15       		.uleb128 0x15
 2191 00f5 01       		.uleb128 0x1
 2192 00f6 01       		.byte	0x1
 2193 00f7 49       		.uleb128 0x49
 2194 00f8 13       		.uleb128 0x13
 2195 00f9 01       		.uleb128 0x1
 2196 00fa 13       		.uleb128 0x13
 2197 00fb 00       		.byte	0
 2198 00fc 00       		.byte	0
 2199 00fd 16       		.uleb128 0x16
 2200 00fe 21       		.uleb128 0x21
 2201 00ff 00       		.byte	0
 2202 0100 49       		.uleb128 0x49
 2203 0101 13       		.uleb128 0x13
 2204 0102 2F       		.uleb128 0x2f
 2205 0103 0B       		.uleb128 0xb
 2206 0104 00       		.byte	0
 2207 0105 00       		.byte	0
 2208 0106 17       		.uleb128 0x17
 2209 0107 15       		.uleb128 0x15
 2210 0108 01       		.byte	0x1
 2211 0109 27       		.uleb128 0x27
 2212 010a 19       		.uleb128 0x19
 2213 010b 49       		.uleb128 0x49
 2214 010c 13       		.uleb128 0x13
 2215 010d 01       		.uleb128 0x1
 2216 010e 13       		.uleb128 0x13
 2217 010f 00       		.byte	0
 2218 0110 00       		.byte	0
 2219 0111 18       		.uleb128 0x18
 2220 0112 2E       		.uleb128 0x2e
 2221 0113 01       		.byte	0x1
 2222 0114 03       		.uleb128 0x3
 2223 0115 0E       		.uleb128 0xe
ARM GAS  /var/folders/m4/4md61f0s1_g0rzfghffqnxvr0000gn/T//ccfPZNxl.s 			page 40


 2224 0116 3A       		.uleb128 0x3a
 2225 0117 0B       		.uleb128 0xb
 2226 0118 3B       		.uleb128 0x3b
 2227 0119 05       		.uleb128 0x5
 2228 011a 27       		.uleb128 0x27
 2229 011b 19       		.uleb128 0x19
 2230 011c 20       		.uleb128 0x20
 2231 011d 0B       		.uleb128 0xb
 2232 011e 01       		.uleb128 0x1
 2233 011f 13       		.uleb128 0x13
 2234 0120 00       		.byte	0
 2235 0121 00       		.byte	0
 2236 0122 19       		.uleb128 0x19
 2237 0123 05       		.uleb128 0x5
 2238 0124 00       		.byte	0
 2239 0125 03       		.uleb128 0x3
 2240 0126 0E       		.uleb128 0xe
 2241 0127 3A       		.uleb128 0x3a
 2242 0128 0B       		.uleb128 0xb
 2243 0129 3B       		.uleb128 0x3b
 2244 012a 05       		.uleb128 0x5
 2245 012b 49       		.uleb128 0x49
 2246 012c 13       		.uleb128 0x13
 2247 012d 00       		.byte	0
 2248 012e 00       		.byte	0
 2249 012f 1A       		.uleb128 0x1a
 2250 0130 2E       		.uleb128 0x2e
 2251 0131 00       		.byte	0
 2252 0132 03       		.uleb128 0x3
 2253 0133 0E       		.uleb128 0xe
 2254 0134 3A       		.uleb128 0x3a
 2255 0135 0B       		.uleb128 0xb
 2256 0136 3B       		.uleb128 0x3b
 2257 0137 05       		.uleb128 0x5
 2258 0138 27       		.uleb128 0x27
 2259 0139 19       		.uleb128 0x19
 2260 013a 20       		.uleb128 0x20
 2261 013b 0B       		.uleb128 0xb
 2262 013c 00       		.byte	0
 2263 013d 00       		.byte	0
 2264 013e 1B       		.uleb128 0x1b
 2265 013f 34       		.uleb128 0x34
 2266 0140 00       		.byte	0
 2267 0141 03       		.uleb128 0x3
 2268 0142 0E       		.uleb128 0xe
 2269 0143 49       		.uleb128 0x49
 2270 0144 13       		.uleb128 0x13
 2271 0145 34       		.uleb128 0x34
 2272 0146 19       		.uleb128 0x19
 2273 0147 1C       		.uleb128 0x1c
 2274 0148 0E       		.uleb128 0xe
 2275 0149 00       		.byte	0
 2276 014a 00       		.byte	0
 2277 014b 1C       		.uleb128 0x1c
 2278 014c 2E       		.uleb128 0x2e
 2279 014d 01       		.byte	0x1
 2280 014e 3F       		.uleb128 0x3f
ARM GAS  /var/folders/m4/4md61f0s1_g0rzfghffqnxvr0000gn/T//ccfPZNxl.s 			page 41


 2281 014f 19       		.uleb128 0x19
 2282 0150 03       		.uleb128 0x3
 2283 0151 0E       		.uleb128 0xe
 2284 0152 3A       		.uleb128 0x3a
 2285 0153 0B       		.uleb128 0xb
 2286 0154 3B       		.uleb128 0x3b
 2287 0155 0B       		.uleb128 0xb
 2288 0156 27       		.uleb128 0x27
 2289 0157 19       		.uleb128 0x19
 2290 0158 49       		.uleb128 0x49
 2291 0159 13       		.uleb128 0x13
 2292 015a 20       		.uleb128 0x20
 2293 015b 0B       		.uleb128 0xb
 2294 015c 01       		.uleb128 0x1
 2295 015d 13       		.uleb128 0x13
 2296 015e 00       		.byte	0
 2297 015f 00       		.byte	0
 2298 0160 1D       		.uleb128 0x1d
 2299 0161 05       		.uleb128 0x5
 2300 0162 00       		.byte	0
 2301 0163 03       		.uleb128 0x3
 2302 0164 08       		.uleb128 0x8
 2303 0165 3A       		.uleb128 0x3a
 2304 0166 0B       		.uleb128 0xb
 2305 0167 3B       		.uleb128 0x3b
 2306 0168 0B       		.uleb128 0xb
 2307 0169 49       		.uleb128 0x49
 2308 016a 13       		.uleb128 0x13
 2309 016b 00       		.byte	0
 2310 016c 00       		.byte	0
 2311 016d 1E       		.uleb128 0x1e
 2312 016e 34       		.uleb128 0x34
 2313 016f 00       		.byte	0
 2314 0170 03       		.uleb128 0x3
 2315 0171 0E       		.uleb128 0xe
 2316 0172 3A       		.uleb128 0x3a
 2317 0173 0B       		.uleb128 0xb
 2318 0174 3B       		.uleb128 0x3b
 2319 0175 0B       		.uleb128 0xb
 2320 0176 49       		.uleb128 0x49
 2321 0177 13       		.uleb128 0x13
 2322 0178 00       		.byte	0
 2323 0179 00       		.byte	0
 2324 017a 1F       		.uleb128 0x1f
 2325 017b 2E       		.uleb128 0x2e
 2326 017c 01       		.byte	0x1
 2327 017d 3F       		.uleb128 0x3f
 2328 017e 19       		.uleb128 0x19
 2329 017f 03       		.uleb128 0x3
 2330 0180 0E       		.uleb128 0xe
 2331 0181 3A       		.uleb128 0x3a
 2332 0182 0B       		.uleb128 0xb
 2333 0183 3B       		.uleb128 0x3b
 2334 0184 0B       		.uleb128 0xb
 2335 0185 27       		.uleb128 0x27
 2336 0186 19       		.uleb128 0x19
 2337 0187 20       		.uleb128 0x20
ARM GAS  /var/folders/m4/4md61f0s1_g0rzfghffqnxvr0000gn/T//ccfPZNxl.s 			page 42


 2338 0188 0B       		.uleb128 0xb
 2339 0189 01       		.uleb128 0x1
 2340 018a 13       		.uleb128 0x13
 2341 018b 00       		.byte	0
 2342 018c 00       		.byte	0
 2343 018d 20       		.uleb128 0x20
 2344 018e 05       		.uleb128 0x5
 2345 018f 00       		.byte	0
 2346 0190 03       		.uleb128 0x3
 2347 0191 0E       		.uleb128 0xe
 2348 0192 3A       		.uleb128 0x3a
 2349 0193 0B       		.uleb128 0xb
 2350 0194 3B       		.uleb128 0x3b
 2351 0195 0B       		.uleb128 0xb
 2352 0196 49       		.uleb128 0x49
 2353 0197 13       		.uleb128 0x13
 2354 0198 00       		.byte	0
 2355 0199 00       		.byte	0
 2356 019a 21       		.uleb128 0x21
 2357 019b 34       		.uleb128 0x34
 2358 019c 00       		.byte	0
 2359 019d 03       		.uleb128 0x3
 2360 019e 08       		.uleb128 0x8
 2361 019f 3A       		.uleb128 0x3a
 2362 01a0 0B       		.uleb128 0xb
 2363 01a1 3B       		.uleb128 0x3b
 2364 01a2 0B       		.uleb128 0xb
 2365 01a3 49       		.uleb128 0x49
 2366 01a4 13       		.uleb128 0x13
 2367 01a5 00       		.byte	0
 2368 01a6 00       		.byte	0
 2369 01a7 22       		.uleb128 0x22
 2370 01a8 2E       		.uleb128 0x2e
 2371 01a9 01       		.byte	0x1
 2372 01aa 03       		.uleb128 0x3
 2373 01ab 0E       		.uleb128 0xe
 2374 01ac 3A       		.uleb128 0x3a
 2375 01ad 0B       		.uleb128 0xb
 2376 01ae 3B       		.uleb128 0x3b
 2377 01af 0B       		.uleb128 0xb
 2378 01b0 27       		.uleb128 0x27
 2379 01b1 19       		.uleb128 0x19
 2380 01b2 20       		.uleb128 0x20
 2381 01b3 0B       		.uleb128 0xb
 2382 01b4 01       		.uleb128 0x1
 2383 01b5 13       		.uleb128 0x13
 2384 01b6 00       		.byte	0
 2385 01b7 00       		.byte	0
 2386 01b8 23       		.uleb128 0x23
 2387 01b9 2E       		.uleb128 0x2e
 2388 01ba 01       		.byte	0x1
 2389 01bb 3F       		.uleb128 0x3f
 2390 01bc 19       		.uleb128 0x19
 2391 01bd 03       		.uleb128 0x3
 2392 01be 0E       		.uleb128 0xe
 2393 01bf 3A       		.uleb128 0x3a
 2394 01c0 0B       		.uleb128 0xb
ARM GAS  /var/folders/m4/4md61f0s1_g0rzfghffqnxvr0000gn/T//ccfPZNxl.s 			page 43


 2395 01c1 3B       		.uleb128 0x3b
 2396 01c2 0B       		.uleb128 0xb
 2397 01c3 27       		.uleb128 0x27
 2398 01c4 19       		.uleb128 0x19
 2399 01c5 11       		.uleb128 0x11
 2400 01c6 01       		.uleb128 0x1
 2401 01c7 12       		.uleb128 0x12
 2402 01c8 06       		.uleb128 0x6
 2403 01c9 40       		.uleb128 0x40
 2404 01ca 18       		.uleb128 0x18
 2405 01cb 9742     		.uleb128 0x2117
 2406 01cd 19       		.uleb128 0x19
 2407 01ce 01       		.uleb128 0x1
 2408 01cf 13       		.uleb128 0x13
 2409 01d0 00       		.byte	0
 2410 01d1 00       		.byte	0
 2411 01d2 24       		.uleb128 0x24
 2412 01d3 05       		.uleb128 0x5
 2413 01d4 00       		.byte	0
 2414 01d5 03       		.uleb128 0x3
 2415 01d6 08       		.uleb128 0x8
 2416 01d7 3A       		.uleb128 0x3a
 2417 01d8 0B       		.uleb128 0xb
 2418 01d9 3B       		.uleb128 0x3b
 2419 01da 0B       		.uleb128 0xb
 2420 01db 49       		.uleb128 0x49
 2421 01dc 13       		.uleb128 0x13
 2422 01dd 02       		.uleb128 0x2
 2423 01de 18       		.uleb128 0x18
 2424 01df 00       		.byte	0
 2425 01e0 00       		.byte	0
 2426 01e1 25       		.uleb128 0x25
 2427 01e2 05       		.uleb128 0x5
 2428 01e3 00       		.byte	0
 2429 01e4 03       		.uleb128 0x3
 2430 01e5 0E       		.uleb128 0xe
 2431 01e6 3A       		.uleb128 0x3a
 2432 01e7 0B       		.uleb128 0xb
 2433 01e8 3B       		.uleb128 0x3b
 2434 01e9 0B       		.uleb128 0xb
 2435 01ea 49       		.uleb128 0x49
 2436 01eb 13       		.uleb128 0x13
 2437 01ec 02       		.uleb128 0x2
 2438 01ed 18       		.uleb128 0x18
 2439 01ee 00       		.byte	0
 2440 01ef 00       		.byte	0
 2441 01f0 26       		.uleb128 0x26
 2442 01f1 34       		.uleb128 0x34
 2443 01f2 00       		.byte	0
 2444 01f3 03       		.uleb128 0x3
 2445 01f4 0E       		.uleb128 0xe
 2446 01f5 49       		.uleb128 0x49
 2447 01f6 13       		.uleb128 0x13
 2448 01f7 34       		.uleb128 0x34
 2449 01f8 19       		.uleb128 0x19
 2450 01f9 00       		.byte	0
 2451 01fa 00       		.byte	0
ARM GAS  /var/folders/m4/4md61f0s1_g0rzfghffqnxvr0000gn/T//ccfPZNxl.s 			page 44


 2452 01fb 27       		.uleb128 0x27
 2453 01fc 05       		.uleb128 0x5
 2454 01fd 00       		.byte	0
 2455 01fe 03       		.uleb128 0x3
 2456 01ff 08       		.uleb128 0x8
 2457 0200 3A       		.uleb128 0x3a
 2458 0201 0B       		.uleb128 0xb
 2459 0202 3B       		.uleb128 0x3b
 2460 0203 0B       		.uleb128 0xb
 2461 0204 49       		.uleb128 0x49
 2462 0205 13       		.uleb128 0x13
 2463 0206 02       		.uleb128 0x2
 2464 0207 17       		.uleb128 0x17
 2465 0208 00       		.byte	0
 2466 0209 00       		.byte	0
 2467 020a 28       		.uleb128 0x28
 2468 020b 1D       		.uleb128 0x1d
 2469 020c 01       		.byte	0x1
 2470 020d 31       		.uleb128 0x31
 2471 020e 13       		.uleb128 0x13
 2472 020f 11       		.uleb128 0x11
 2473 0210 01       		.uleb128 0x1
 2474 0211 12       		.uleb128 0x12
 2475 0212 06       		.uleb128 0x6
 2476 0213 58       		.uleb128 0x58
 2477 0214 0B       		.uleb128 0xb
 2478 0215 59       		.uleb128 0x59
 2479 0216 0B       		.uleb128 0xb
 2480 0217 00       		.byte	0
 2481 0218 00       		.byte	0
 2482 0219 29       		.uleb128 0x29
 2483 021a 05       		.uleb128 0x5
 2484 021b 00       		.byte	0
 2485 021c 31       		.uleb128 0x31
 2486 021d 13       		.uleb128 0x13
 2487 021e 02       		.uleb128 0x2
 2488 021f 17       		.uleb128 0x17
 2489 0220 00       		.byte	0
 2490 0221 00       		.byte	0
 2491 0222 2A       		.uleb128 0x2a
 2492 0223 1D       		.uleb128 0x1d
 2493 0224 01       		.byte	0x1
 2494 0225 31       		.uleb128 0x31
 2495 0226 13       		.uleb128 0x13
 2496 0227 52       		.uleb128 0x52
 2497 0228 01       		.uleb128 0x1
 2498 0229 55       		.uleb128 0x55
 2499 022a 17       		.uleb128 0x17
 2500 022b 58       		.uleb128 0x58
 2501 022c 0B       		.uleb128 0xb
 2502 022d 59       		.uleb128 0x59
 2503 022e 0B       		.uleb128 0xb
 2504 022f 01       		.uleb128 0x1
 2505 0230 13       		.uleb128 0x13
 2506 0231 00       		.byte	0
 2507 0232 00       		.byte	0
 2508 0233 2B       		.uleb128 0x2b
ARM GAS  /var/folders/m4/4md61f0s1_g0rzfghffqnxvr0000gn/T//ccfPZNxl.s 			page 45


 2509 0234 1D       		.uleb128 0x1d
 2510 0235 01       		.byte	0x1
 2511 0236 31       		.uleb128 0x31
 2512 0237 13       		.uleb128 0x13
 2513 0238 52       		.uleb128 0x52
 2514 0239 01       		.uleb128 0x1
 2515 023a 55       		.uleb128 0x55
 2516 023b 17       		.uleb128 0x17
 2517 023c 58       		.uleb128 0x58
 2518 023d 0B       		.uleb128 0xb
 2519 023e 59       		.uleb128 0x59
 2520 023f 05       		.uleb128 0x5
 2521 0240 00       		.byte	0
 2522 0241 00       		.byte	0
 2523 0242 2C       		.uleb128 0x2c
 2524 0243 0B       		.uleb128 0xb
 2525 0244 01       		.byte	0x1
 2526 0245 55       		.uleb128 0x55
 2527 0246 17       		.uleb128 0x17
 2528 0247 00       		.byte	0
 2529 0248 00       		.byte	0
 2530 0249 2D       		.uleb128 0x2d
 2531 024a 34       		.uleb128 0x34
 2532 024b 00       		.byte	0
 2533 024c 31       		.uleb128 0x31
 2534 024d 13       		.uleb128 0x13
 2535 024e 00       		.byte	0
 2536 024f 00       		.byte	0
 2537 0250 2E       		.uleb128 0x2e
 2538 0251 0B       		.uleb128 0xb
 2539 0252 01       		.byte	0x1
 2540 0253 11       		.uleb128 0x11
 2541 0254 01       		.uleb128 0x1
 2542 0255 12       		.uleb128 0x12
 2543 0256 06       		.uleb128 0x6
 2544 0257 00       		.byte	0
 2545 0258 00       		.byte	0
 2546 0259 2F       		.uleb128 0x2f
 2547 025a 34       		.uleb128 0x34
 2548 025b 00       		.byte	0
 2549 025c 31       		.uleb128 0x31
 2550 025d 13       		.uleb128 0x13
 2551 025e 02       		.uleb128 0x2
 2552 025f 17       		.uleb128 0x17
 2553 0260 00       		.byte	0
 2554 0261 00       		.byte	0
 2555 0262 30       		.uleb128 0x30
 2556 0263 2E       		.uleb128 0x2e
 2557 0264 01       		.byte	0x1
 2558 0265 31       		.uleb128 0x31
 2559 0266 13       		.uleb128 0x13
 2560 0267 11       		.uleb128 0x11
 2561 0268 01       		.uleb128 0x1
 2562 0269 12       		.uleb128 0x12
 2563 026a 06       		.uleb128 0x6
 2564 026b 40       		.uleb128 0x40
 2565 026c 18       		.uleb128 0x18
ARM GAS  /var/folders/m4/4md61f0s1_g0rzfghffqnxvr0000gn/T//ccfPZNxl.s 			page 46


 2566 026d 01       		.uleb128 0x1
 2567 026e 13       		.uleb128 0x13
 2568 026f 00       		.byte	0
 2569 0270 00       		.byte	0
 2570 0271 31       		.uleb128 0x31
 2571 0272 2E       		.uleb128 0x2e
 2572 0273 01       		.byte	0x1
 2573 0274 3F       		.uleb128 0x3f
 2574 0275 19       		.uleb128 0x19
 2575 0276 03       		.uleb128 0x3
 2576 0277 0E       		.uleb128 0xe
 2577 0278 3A       		.uleb128 0x3a
 2578 0279 0B       		.uleb128 0xb
 2579 027a 3B       		.uleb128 0x3b
 2580 027b 0B       		.uleb128 0xb
 2581 027c 27       		.uleb128 0x27
 2582 027d 19       		.uleb128 0x19
 2583 027e 49       		.uleb128 0x49
 2584 027f 13       		.uleb128 0x13
 2585 0280 11       		.uleb128 0x11
 2586 0281 01       		.uleb128 0x1
 2587 0282 12       		.uleb128 0x12
 2588 0283 06       		.uleb128 0x6
 2589 0284 40       		.uleb128 0x40
 2590 0285 18       		.uleb128 0x18
 2591 0286 9642     		.uleb128 0x2116
 2592 0288 19       		.uleb128 0x19
 2593 0289 01       		.uleb128 0x1
 2594 028a 13       		.uleb128 0x13
 2595 028b 00       		.byte	0
 2596 028c 00       		.byte	0
 2597 028d 32       		.uleb128 0x32
 2598 028e 34       		.uleb128 0x34
 2599 028f 00       		.byte	0
 2600 0290 03       		.uleb128 0x3
 2601 0291 0E       		.uleb128 0xe
 2602 0292 3A       		.uleb128 0x3a
 2603 0293 0B       		.uleb128 0xb
 2604 0294 3B       		.uleb128 0x3b
 2605 0295 0B       		.uleb128 0xb
 2606 0296 49       		.uleb128 0x49
 2607 0297 13       		.uleb128 0x13
 2608 0298 02       		.uleb128 0x2
 2609 0299 18       		.uleb128 0x18
 2610 029a 00       		.byte	0
 2611 029b 00       		.byte	0
 2612 029c 33       		.uleb128 0x33
 2613 029d 1D       		.uleb128 0x1d
 2614 029e 01       		.byte	0x1
 2615 029f 31       		.uleb128 0x31
 2616 02a0 13       		.uleb128 0x13
 2617 02a1 52       		.uleb128 0x52
 2618 02a2 01       		.uleb128 0x1
 2619 02a3 55       		.uleb128 0x55
 2620 02a4 17       		.uleb128 0x17
 2621 02a5 58       		.uleb128 0x58
 2622 02a6 0B       		.uleb128 0xb
ARM GAS  /var/folders/m4/4md61f0s1_g0rzfghffqnxvr0000gn/T//ccfPZNxl.s 			page 47


 2623 02a7 59       		.uleb128 0x59
 2624 02a8 0B       		.uleb128 0xb
 2625 02a9 00       		.byte	0
 2626 02aa 00       		.byte	0
 2627 02ab 34       		.uleb128 0x34
 2628 02ac 2E       		.uleb128 0x2e
 2629 02ad 01       		.byte	0x1
 2630 02ae 31       		.uleb128 0x31
 2631 02af 13       		.uleb128 0x13
 2632 02b0 11       		.uleb128 0x11
 2633 02b1 01       		.uleb128 0x1
 2634 02b2 12       		.uleb128 0x12
 2635 02b3 06       		.uleb128 0x6
 2636 02b4 40       		.uleb128 0x40
 2637 02b5 18       		.uleb128 0x18
 2638 02b6 9742     		.uleb128 0x2117
 2639 02b8 19       		.uleb128 0x19
 2640 02b9 01       		.uleb128 0x1
 2641 02ba 13       		.uleb128 0x13
 2642 02bb 00       		.byte	0
 2643 02bc 00       		.byte	0
 2644 02bd 35       		.uleb128 0x35
 2645 02be 05       		.uleb128 0x5
 2646 02bf 00       		.byte	0
 2647 02c0 31       		.uleb128 0x31
 2648 02c1 13       		.uleb128 0x13
 2649 02c2 02       		.uleb128 0x2
 2650 02c3 18       		.uleb128 0x18
 2651 02c4 00       		.byte	0
 2652 02c5 00       		.byte	0
 2653 02c6 36       		.uleb128 0x36
 2654 02c7 34       		.uleb128 0x34
 2655 02c8 00       		.byte	0
 2656 02c9 31       		.uleb128 0x31
 2657 02ca 13       		.uleb128 0x13
 2658 02cb 02       		.uleb128 0x2
 2659 02cc 18       		.uleb128 0x18
 2660 02cd 00       		.byte	0
 2661 02ce 00       		.byte	0
 2662 02cf 37       		.uleb128 0x37
 2663 02d0 1D       		.uleb128 0x1d
 2664 02d1 01       		.byte	0x1
 2665 02d2 31       		.uleb128 0x31
 2666 02d3 13       		.uleb128 0x13
 2667 02d4 11       		.uleb128 0x11
 2668 02d5 01       		.uleb128 0x1
 2669 02d6 12       		.uleb128 0x12
 2670 02d7 06       		.uleb128 0x6
 2671 02d8 58       		.uleb128 0x58
 2672 02d9 0B       		.uleb128 0xb
 2673 02da 59       		.uleb128 0x59
 2674 02db 0B       		.uleb128 0xb
 2675 02dc 01       		.uleb128 0x1
 2676 02dd 13       		.uleb128 0x13
 2677 02de 00       		.byte	0
 2678 02df 00       		.byte	0
 2679 02e0 38       		.uleb128 0x38
ARM GAS  /var/folders/m4/4md61f0s1_g0rzfghffqnxvr0000gn/T//ccfPZNxl.s 			page 48


 2680 02e1 1D       		.uleb128 0x1d
 2681 02e2 01       		.byte	0x1
 2682 02e3 31       		.uleb128 0x31
 2683 02e4 13       		.uleb128 0x13
 2684 02e5 11       		.uleb128 0x11
 2685 02e6 01       		.uleb128 0x1
 2686 02e7 12       		.uleb128 0x12
 2687 02e8 06       		.uleb128 0x6
 2688 02e9 58       		.uleb128 0x58
 2689 02ea 0B       		.uleb128 0xb
 2690 02eb 59       		.uleb128 0x59
 2691 02ec 05       		.uleb128 0x5
 2692 02ed 00       		.byte	0
 2693 02ee 00       		.byte	0
 2694 02ef 39       		.uleb128 0x39
 2695 02f0 34       		.uleb128 0x34
 2696 02f1 00       		.byte	0
 2697 02f2 03       		.uleb128 0x3
 2698 02f3 0E       		.uleb128 0xe
 2699 02f4 3A       		.uleb128 0x3a
 2700 02f5 0B       		.uleb128 0xb
 2701 02f6 3B       		.uleb128 0x3b
 2702 02f7 05       		.uleb128 0x5
 2703 02f8 49       		.uleb128 0x49
 2704 02f9 13       		.uleb128 0x13
 2705 02fa 3F       		.uleb128 0x3f
 2706 02fb 19       		.uleb128 0x19
 2707 02fc 3C       		.uleb128 0x3c
 2708 02fd 19       		.uleb128 0x19
 2709 02fe 00       		.byte	0
 2710 02ff 00       		.byte	0
 2711 0300 3A       		.uleb128 0x3a
 2712 0301 34       		.uleb128 0x34
 2713 0302 00       		.byte	0
 2714 0303 03       		.uleb128 0x3
 2715 0304 08       		.uleb128 0x8
 2716 0305 3A       		.uleb128 0x3a
 2717 0306 0B       		.uleb128 0xb
 2718 0307 3B       		.uleb128 0x3b
 2719 0308 05       		.uleb128 0x5
 2720 0309 49       		.uleb128 0x49
 2721 030a 13       		.uleb128 0x13
 2722 030b 3F       		.uleb128 0x3f
 2723 030c 19       		.uleb128 0x19
 2724 030d 3C       		.uleb128 0x3c
 2725 030e 19       		.uleb128 0x19
 2726 030f 00       		.byte	0
 2727 0310 00       		.byte	0
 2728 0311 00       		.byte	0
 2729              		.section	.debug_loc,"",%progbits
 2730              	.Ldebug_loc0:
 2731              	.LLST0:
 2732 0000 00000000 		.4byte	.LVL1
 2733 0004 1C000000 		.4byte	.LVL7
 2734 0008 0100     		.2byte	0x1
 2735 000a 51       		.byte	0x51
 2736 000b 1C000000 		.4byte	.LVL7
ARM GAS  /var/folders/m4/4md61f0s1_g0rzfghffqnxvr0000gn/T//ccfPZNxl.s 			page 49


 2737 000f 22000000 		.4byte	.LFE232
 2738 0013 0100     		.2byte	0x1
 2739 0015 51       		.byte	0x51
 2740 0016 00000000 		.4byte	0
 2741 001a 00000000 		.4byte	0
 2742              	.LLST1:
 2743 001e 00000000 		.4byte	.LVL1
 2744 0022 08000000 		.4byte	.LVL2
 2745 0026 0100     		.2byte	0x1
 2746 0028 52       		.byte	0x52
 2747 0029 08000000 		.4byte	.LVL2
 2748 002d 1A000000 		.4byte	.LVL6
 2749 0031 0100     		.2byte	0x1
 2750 0033 52       		.byte	0x52
 2751 0034 1A000000 		.4byte	.LVL6
 2752 0038 1C000000 		.4byte	.LVL7
 2753 003c 0300     		.2byte	0x3
 2754 003e 72       		.byte	0x72
 2755 003f 01       		.sleb128 1
 2756 0040 9F       		.byte	0x9f
 2757 0041 00000000 		.4byte	0
 2758 0045 00000000 		.4byte	0
 2759              	.LLST2:
 2760 0049 08000000 		.4byte	.LVL2
 2761 004d 20000000 		.4byte	.LVL8
 2762 0051 0100     		.2byte	0x1
 2763 0053 50       		.byte	0x50
 2764 0054 00000000 		.4byte	0
 2765 0058 00000000 		.4byte	0
 2766              	.LLST3:
 2767 005c 08000000 		.4byte	.LVL2
 2768 0060 16000000 		.4byte	.LVL5
 2769 0064 0100     		.2byte	0x1
 2770 0066 51       		.byte	0x51
 2771 0067 00000000 		.4byte	0
 2772 006b 00000000 		.4byte	0
 2773              	.LLST5:
 2774 006f 08000000 		.4byte	.LVL2
 2775 0073 16000000 		.4byte	.LVL5
 2776 0077 0100     		.2byte	0x1
 2777 0079 50       		.byte	0x50
 2778 007a 00000000 		.4byte	0
 2779 007e 00000000 		.4byte	0
 2780              	.LLST6:
 2781 0082 08000000 		.4byte	.LVL2
 2782 0086 0C000000 		.4byte	.LVL3
 2783 008a 0300     		.2byte	0x3
 2784 008c 08       		.byte	0x8
 2785 008d 20       		.byte	0x20
 2786 008e 9F       		.byte	0x9f
 2787 008f 00000000 		.4byte	0
 2788 0093 00000000 		.4byte	0
 2789              	.LLST7:
 2790 0097 12000000 		.4byte	.LVL4
 2791 009b 16000000 		.4byte	.LVL5
 2792 009f 0200     		.2byte	0x2
 2793 00a1 30       		.byte	0x30
ARM GAS  /var/folders/m4/4md61f0s1_g0rzfghffqnxvr0000gn/T//ccfPZNxl.s 			page 50


 2794 00a2 9F       		.byte	0x9f
 2795 00a3 00000000 		.4byte	0
 2796 00a7 00000000 		.4byte	0
 2797              	.LLST8:
 2798 00ab 0C000000 		.4byte	.LVL3
 2799 00af 12000000 		.4byte	.LVL4
 2800 00b3 0100     		.2byte	0x1
 2801 00b5 51       		.byte	0x51
 2802 00b6 00000000 		.4byte	0
 2803 00ba 00000000 		.4byte	0
 2804              	.LLST9:
 2805 00be 0C000000 		.4byte	.LVL3
 2806 00c2 12000000 		.4byte	.LVL4
 2807 00c6 0100     		.2byte	0x1
 2808 00c8 50       		.byte	0x50
 2809 00c9 00000000 		.4byte	0
 2810 00cd 00000000 		.4byte	0
 2811              	.LLST10:
 2812 00d1 0C000000 		.4byte	.LVL3
 2813 00d5 1C000000 		.4byte	.LVL7
 2814 00d9 0100     		.2byte	0x1
 2815 00db 51       		.byte	0x51
 2816 00dc 1C000000 		.4byte	.LVL7
 2817 00e0 20000000 		.4byte	.LVL8
 2818 00e4 0200     		.2byte	0x2
 2819 00e6 70       		.byte	0x70
 2820 00e7 00       		.sleb128 0
 2821 00e8 00000000 		.4byte	0
 2822 00ec 00000000 		.4byte	0
 2823              	.LLST11:
 2824 00f0 00000000 		.4byte	.LVL9
 2825 00f4 0A000000 		.4byte	.LVL11
 2826 00f8 0100     		.2byte	0x1
 2827 00fa 50       		.byte	0x50
 2828 00fb 0A000000 		.4byte	.LVL11
 2829 00ff 0C000000 		.4byte	.LVL12
 2830 0103 0400     		.2byte	0x4
 2831 0105 F3       		.byte	0xf3
 2832 0106 01       		.uleb128 0x1
 2833 0107 50       		.byte	0x50
 2834 0108 9F       		.byte	0x9f
 2835 0109 0C000000 		.4byte	.LVL12
 2836 010d 14000000 		.4byte	.LVL13
 2837 0111 0100     		.2byte	0x1
 2838 0113 50       		.byte	0x50
 2839 0114 14000000 		.4byte	.LVL13
 2840 0118 16000000 		.4byte	.LFE233
 2841 011c 0400     		.2byte	0x4
 2842 011e F3       		.byte	0xf3
 2843 011f 01       		.uleb128 0x1
 2844 0120 50       		.byte	0x50
 2845 0121 9F       		.byte	0x9f
 2846 0122 00000000 		.4byte	0
 2847 0126 00000000 		.4byte	0
 2848              	.LLST12:
 2849 012a 02000000 		.4byte	.LVL10
 2850 012e 15000000 		.4byte	.LVL14-1
ARM GAS  /var/folders/m4/4md61f0s1_g0rzfghffqnxvr0000gn/T//ccfPZNxl.s 			page 51


 2851 0132 0100     		.2byte	0x1
 2852 0134 53       		.byte	0x53
 2853 0135 00000000 		.4byte	0
 2854 0139 00000000 		.4byte	0
 2855              	.LLST13:
 2856 013d 00000000 		.4byte	.LVL15
 2857 0141 0C000000 		.4byte	.LVL17
 2858 0145 0100     		.2byte	0x1
 2859 0147 50       		.byte	0x50
 2860 0148 0C000000 		.4byte	.LVL17
 2861 014c 14000000 		.4byte	.LVL19
 2862 0150 0100     		.2byte	0x1
 2863 0152 53       		.byte	0x53
 2864 0153 14000000 		.4byte	.LVL19
 2865 0157 1A000000 		.4byte	.LVL21
 2866 015b 0400     		.2byte	0x4
 2867 015d F3       		.byte	0xf3
 2868 015e 01       		.uleb128 0x1
 2869 015f 50       		.byte	0x50
 2870 0160 9F       		.byte	0x9f
 2871 0161 1A000000 		.4byte	.LVL21
 2872 0165 23000000 		.4byte	.LVL23-1
 2873 0169 0100     		.2byte	0x1
 2874 016b 53       		.byte	0x53
 2875 016c 23000000 		.4byte	.LVL23-1
 2876 0170 2C000000 		.4byte	.LFE234
 2877 0174 0400     		.2byte	0x4
 2878 0176 F3       		.byte	0xf3
 2879 0177 01       		.uleb128 0x1
 2880 0178 50       		.byte	0x50
 2881 0179 9F       		.byte	0x9f
 2882 017a 00000000 		.4byte	0
 2883 017e 00000000 		.4byte	0
 2884              	.LLST14:
 2885 0182 00000000 		.4byte	.LVL15
 2886 0186 0A000000 		.4byte	.LVL16
 2887 018a 0300     		.2byte	0x3
 2888 018c 08       		.byte	0x8
 2889 018d 20       		.byte	0x20
 2890 018e 9F       		.byte	0x9f
 2891 018f 00000000 		.4byte	0
 2892 0193 00000000 		.4byte	0
 2893              	.LLST15:
 2894 0197 0A000000 		.4byte	.LVL16
 2895 019b 0C000000 		.4byte	.LVL17
 2896 019f 0100     		.2byte	0x1
 2897 01a1 50       		.byte	0x50
 2898 01a2 0C000000 		.4byte	.LVL17
 2899 01a6 12000000 		.4byte	.LVL18
 2900 01aa 0100     		.2byte	0x1
 2901 01ac 53       		.byte	0x53
 2902 01ad 1A000000 		.4byte	.LVL21
 2903 01b1 23000000 		.4byte	.LVL23-1
 2904 01b5 0100     		.2byte	0x1
 2905 01b7 53       		.byte	0x53
 2906 01b8 23000000 		.4byte	.LVL23-1
 2907 01bc 24000000 		.4byte	.LVL23
ARM GAS  /var/folders/m4/4md61f0s1_g0rzfghffqnxvr0000gn/T//ccfPZNxl.s 			page 52


 2908 01c0 0400     		.2byte	0x4
 2909 01c2 F3       		.byte	0xf3
 2910 01c3 01       		.uleb128 0x1
 2911 01c4 50       		.byte	0x50
 2912 01c5 9F       		.byte	0x9f
 2913 01c6 00000000 		.4byte	0
 2914 01ca 00000000 		.4byte	0
 2915              	.LLST16:
 2916 01ce 0C000000 		.4byte	.LVL17
 2917 01d2 12000000 		.4byte	.LVL18
 2918 01d6 0100     		.2byte	0x1
 2919 01d8 50       		.byte	0x50
 2920 01d9 1A000000 		.4byte	.LVL21
 2921 01dd 22000000 		.4byte	.LVL22
 2922 01e1 0100     		.2byte	0x1
 2923 01e3 50       		.byte	0x50
 2924 01e4 22000000 		.4byte	.LVL22
 2925 01e8 23000000 		.4byte	.LVL23-1
 2926 01ec 0200     		.2byte	0x2
 2927 01ee 73       		.byte	0x73
 2928 01ef 00       		.sleb128 0
 2929 01f0 00000000 		.4byte	0
 2930 01f4 00000000 		.4byte	0
 2931              	.LLST17:
 2932 01f8 12000000 		.4byte	.LVL18
 2933 01fc 18000000 		.4byte	.LVL20
 2934 0200 0200     		.2byte	0x2
 2935 0202 30       		.byte	0x30
 2936 0203 9F       		.byte	0x9f
 2937 0204 24000000 		.4byte	.LVL23
 2938 0208 2A000000 		.4byte	.LVL24
 2939 020c 0200     		.2byte	0x2
 2940 020e 30       		.byte	0x30
 2941 020f 9F       		.byte	0x9f
 2942 0210 00000000 		.4byte	0
 2943 0214 00000000 		.4byte	0
 2944              	.LLST18:
 2945 0218 00000000 		.4byte	.LVL26
 2946 021c 06000000 		.4byte	.LVL27
 2947 0220 0300     		.2byte	0x3
 2948 0222 08       		.byte	0x8
 2949 0223 20       		.byte	0x20
 2950 0224 9F       		.byte	0x9f
 2951 0225 00000000 		.4byte	0
 2952 0229 00000000 		.4byte	0
 2953              	.LLST19:
 2954 022d 06000000 		.4byte	.LVL27
 2955 0231 0E000000 		.4byte	.LVL28
 2956 0235 0100     		.2byte	0x1
 2957 0237 51       		.byte	0x51
 2958 0238 00000000 		.4byte	0
 2959 023c 00000000 		.4byte	0
 2960              	.LLST20:
 2961 0240 06000000 		.4byte	.LVL27
 2962 0244 0E000000 		.4byte	.LVL28
 2963 0248 0100     		.2byte	0x1
 2964 024a 50       		.byte	0x50
ARM GAS  /var/folders/m4/4md61f0s1_g0rzfghffqnxvr0000gn/T//ccfPZNxl.s 			page 53


 2965 024b 00000000 		.4byte	0
 2966 024f 00000000 		.4byte	0
 2967              	.LLST21:
 2968 0253 0E000000 		.4byte	.LVL28
 2969 0257 12000000 		.4byte	.LVL29
 2970 025b 0200     		.2byte	0x2
 2971 025d 30       		.byte	0x30
 2972 025e 9F       		.byte	0x9f
 2973 025f 00000000 		.4byte	0
 2974 0263 00000000 		.4byte	0
 2975              		.section	.debug_aranges,"",%progbits
 2976 0000 44000000 		.4byte	0x44
 2977 0004 0200     		.2byte	0x2
 2978 0006 00000000 		.4byte	.Ldebug_info0
 2979 000a 04       		.byte	0x4
 2980 000b 00       		.byte	0
 2981 000c 0000     		.2byte	0
 2982 000e 0000     		.2byte	0
 2983 0010 00000000 		.4byte	.LFB231
 2984 0014 0A000000 		.4byte	.LFE231-.LFB231
 2985 0018 00000000 		.4byte	.LFB232
 2986 001c 22000000 		.4byte	.LFE232-.LFB232
 2987 0020 00000000 		.4byte	.LFB233
 2988 0024 16000000 		.4byte	.LFE233-.LFB233
 2989 0028 00000000 		.4byte	.LFB234
 2990 002c 2C000000 		.4byte	.LFE234-.LFB234
 2991 0030 00000000 		.4byte	.LFB235
 2992 0034 08000000 		.4byte	.LFE235-.LFB235
 2993 0038 00000000 		.4byte	.LFB236
 2994 003c 14000000 		.4byte	.LFE236-.LFB236
 2995 0040 00000000 		.4byte	0
 2996 0044 00000000 		.4byte	0
 2997              		.section	.debug_ranges,"",%progbits
 2998              	.Ldebug_ranges0:
 2999 0000 04000000 		.4byte	.LBB79
 3000 0004 06000000 		.4byte	.LBE79
 3001 0008 08000000 		.4byte	.LBB95
 3002 000c 0C000000 		.4byte	.LBE95
 3003 0010 00000000 		.4byte	0
 3004 0014 00000000 		.4byte	0
 3005 0018 06000000 		.4byte	.LBB86
 3006 001c 08000000 		.4byte	.LBE86
 3007 0020 12000000 		.4byte	.LBB98
 3008 0024 16000000 		.4byte	.LBE98
 3009 0028 00000000 		.4byte	0
 3010 002c 00000000 		.4byte	0
 3011 0030 02000000 		.4byte	.LBB99
 3012 0034 04000000 		.4byte	.LBE99
 3013 0038 06000000 		.4byte	.LBB106
 3014 003c 0A000000 		.4byte	.LBE106
 3015 0040 00000000 		.4byte	0
 3016 0044 00000000 		.4byte	0
 3017 0048 0A000000 		.4byte	.LBB107
 3018 004c 12000000 		.4byte	.LBE107
 3019 0050 1A000000 		.4byte	.LBB119
 3020 0054 24000000 		.4byte	.LBE119
 3021 0058 00000000 		.4byte	0
ARM GAS  /var/folders/m4/4md61f0s1_g0rzfghffqnxvr0000gn/T//ccfPZNxl.s 			page 54


 3022 005c 00000000 		.4byte	0
 3023 0060 12000000 		.4byte	.LBB110
 3024 0064 18000000 		.4byte	.LBE110
 3025 0068 24000000 		.4byte	.LBB120
 3026 006c 2A000000 		.4byte	.LBE120
 3027 0070 00000000 		.4byte	0
 3028 0074 00000000 		.4byte	0
 3029 0078 06000000 		.4byte	.LBB125
 3030 007c 0A000000 		.4byte	.LBE125
 3031 0080 0C000000 		.4byte	.LBB137
 3032 0084 0E000000 		.4byte	.LBE137
 3033 0088 00000000 		.4byte	0
 3034 008c 00000000 		.4byte	0
 3035 0090 0A000000 		.4byte	.LBB128
 3036 0094 0C000000 		.4byte	.LBE128
 3037 0098 0E000000 		.4byte	.LBB138
 3038 009c 14000000 		.4byte	.LBE138
 3039 00a0 00000000 		.4byte	0
 3040 00a4 00000000 		.4byte	0
 3041 00a8 00000000 		.4byte	.LFB231
 3042 00ac 0A000000 		.4byte	.LFE231
 3043 00b0 00000000 		.4byte	.LFB232
 3044 00b4 22000000 		.4byte	.LFE232
 3045 00b8 00000000 		.4byte	.LFB233
 3046 00bc 16000000 		.4byte	.LFE233
 3047 00c0 00000000 		.4byte	.LFB234
 3048 00c4 2C000000 		.4byte	.LFE234
 3049 00c8 00000000 		.4byte	.LFB235
 3050 00cc 08000000 		.4byte	.LFE235
 3051 00d0 00000000 		.4byte	.LFB236
 3052 00d4 14000000 		.4byte	.LFE236
 3053 00d8 00000000 		.4byte	0
 3054 00dc 00000000 		.4byte	0
 3055              		.section	.debug_line,"",%progbits
 3056              	.Ldebug_line0:
 3057 0000 07040000 		.section	.debug_str,"MS",%progbits,1
 3057      02002003 
 3057      00000201 
 3057      FB0E0D00 
 3057      01010101 
 3058              	.LASF54:
 3059 0000 72656164 		.ascii	"ready_list_t\000"
 3059      795F6C69 
 3059      73745F74 
 3059      00
 3060              	.LASF2:
 3061 000d 73697A65 		.ascii	"size_t\000"
 3061      5F7400
 3062              	.LASF89:
 3063 0014 7264796D 		.ascii	"rdymsg\000"
 3063      736700
 3064              	.LASF17:
 3065 001b 75696E74 		.ascii	"uint64_t\000"
 3065      36345F74 
 3065      00
 3066              	.LASF3:
 3067 0024 5F5F7569 		.ascii	"__uint8_t\000"
ARM GAS  /var/folders/m4/4md61f0s1_g0rzfghffqnxvr0000gn/T//ccfPZNxl.s 			page 55


 3067      6E74385F 
 3067      7400
 3068              	.LASF86:
 3069 002e 706F7274 		.ascii	"port_intctx\000"
 3069      5F696E74 
 3069      63747800 
 3070              	.LASF73:
 3071 003a 73797374 		.ascii	"system_debug_t\000"
 3071      656D5F64 
 3071      65627567 
 3071      5F7400
 3072              	.LASF125:
 3073 0049 70726F76 		.ascii	"provider\000"
 3073      69646572 
 3073      00
 3074              	.LASF112:
 3075 0052 706F7274 		.ascii	"port_lock\000"
 3075      5F6C6F63 
 3075      6B00
 3076              	.LASF105:
 3077 005c 6D656D67 		.ascii	"memgetfunc_t\000"
 3077      65746675 
 3077      6E635F74 
 3077      00
 3078              	.LASF13:
 3079 0069 6C6F6E67 		.ascii	"long long unsigned int\000"
 3079      206C6F6E 
 3079      6720756E 
 3079      7369676E 
 3079      65642069 
 3080              	.LASF90:
 3081 0080 65786974 		.ascii	"exitcode\000"
 3081      636F6465 
 3081      00
 3082              	.LASF80:
 3083 0089 6D61696E 		.ascii	"mainthread\000"
 3083      74687265 
 3083      616400
 3084              	.LASF70:
 3085 0094 76697274 		.ascii	"virtual_timers_list_t\000"
 3085      75616C5F 
 3085      74696D65 
 3085      72735F6C 
 3085      6973745F 
 3086              	.LASF128:
 3087 00aa 49544D5F 		.ascii	"ITM_RxBuffer\000"
 3087      52784275 
 3087      66666572 
 3087      00
 3088              	.LASF53:
 3089 00b7 63685F74 		.ascii	"ch_threads_queue\000"
 3089      68726561 
 3089      64735F71 
 3089      75657565 
 3089      00
 3090              	.LASF31:
 3091 00c8 705F7072 		.ascii	"p_prio\000"
ARM GAS  /var/folders/m4/4md61f0s1_g0rzfghffqnxvr0000gn/T//ccfPZNxl.s 			page 56


 3091      696F00
 3092              	.LASF11:
 3093 00cf 6C6F6E67 		.ascii	"long long int\000"
 3093      206C6F6E 
 3093      6720696E 
 3093      7400
 3094              	.LASF1:
 3095 00dd 7369676E 		.ascii	"signed char\000"
 3095      65642063 
 3095      68617200 
 3096              	.LASF47:
 3097 00e9 705F6D70 		.ascii	"p_mpool\000"
 3097      6F6F6C00 
 3098              	.LASF100:
 3099 00f1 6D5F7175 		.ascii	"m_queue\000"
 3099      65756500 
 3100              	.LASF79:
 3101 00f9 76746C69 		.ascii	"vtlist\000"
 3101      737400
 3102              	.LASF113:
 3103 0100 706F7274 		.ascii	"port_unlock\000"
 3103      5F756E6C 
 3103      6F636B00 
 3104              	.LASF22:
 3105 010c 74736C69 		.ascii	"tslices_t\000"
 3105      6365735F 
 3105      7400
 3106              	.LASF92:
 3107 0116 77747472 		.ascii	"wttrp\000"
 3107      7000
 3108              	.LASF77:
 3109 011c 63685F73 		.ascii	"ch_system\000"
 3109      79737465 
 3109      6D00
 3110              	.LASF8:
 3111 0126 6C6F6E67 		.ascii	"long int\000"
 3111      20696E74 
 3111      00
 3112              	.LASF20:
 3113 012f 74737461 		.ascii	"tstate_t\000"
 3113      74655F74 
 3113      00
 3114              	.LASF33:
 3115 0138 705F6E65 		.ascii	"p_newer\000"
 3115      77657200 
 3116              	.LASF97:
 3117 0140 735F7175 		.ascii	"s_queue\000"
 3117      65756500 
 3118              	.LASF59:
 3119 0148 725F6E65 		.ascii	"r_newer\000"
 3119      77657200 
 3120              	.LASF110:
 3121 0150 6D705F70 		.ascii	"mp_provider\000"
 3121      726F7669 
 3121      64657200 
 3122              	.LASF83:
 3123 015c 72656761 		.ascii	"regarm_t\000"
ARM GAS  /var/folders/m4/4md61f0s1_g0rzfghffqnxvr0000gn/T//ccfPZNxl.s 			page 57


 3123      726D5F74 
 3123      00
 3124              	.LASF66:
 3125 0165 76745F70 		.ascii	"vt_prev\000"
 3125      72657600 
 3126              	.LASF104:
 3127 016d 6D757465 		.ascii	"mutex_t\000"
 3127      785F7400 
 3128              	.LASF116:
 3129 0175 76616C75 		.ascii	"value\000"
 3129      6500
 3130              	.LASF81:
 3131 017b 69646C65 		.ascii	"idle_thread_wa\000"
 3131      5F746872 
 3131      6561645F 
 3131      776100
 3132              	.LASF26:
 3133 018a 636E745F 		.ascii	"cnt_t\000"
 3133      7400
 3134              	.LASF0:
 3135 0190 756E7369 		.ascii	"unsigned int\000"
 3135      676E6564 
 3135      20696E74 
 3135      00
 3136              	.LASF65:
 3137 019d 76745F6E 		.ascii	"vt_next\000"
 3137      65787400 
 3138              	.LASF40:
 3139 01a5 705F7469 		.ascii	"p_time\000"
 3139      6D6500
 3140              	.LASF93:
 3141 01ac 77747365 		.ascii	"wtsemp\000"
 3141      6D7000
 3142              	.LASF67:
 3143 01b3 76745F64 		.ascii	"vt_delta\000"
 3143      656C7461 
 3143      00
 3144              	.LASF42:
 3145 01bc 705F6D73 		.ascii	"p_msgqueue\000"
 3145      67717565 
 3145      756500
 3146              	.LASF111:
 3147 01c7 6D656D6F 		.ascii	"memory_pool_t\000"
 3147      72795F70 
 3147      6F6F6C5F 
 3147      7400
 3148              	.LASF98:
 3149 01d5 735F636E 		.ascii	"s_cnt\000"
 3149      7400
 3150              	.LASF6:
 3151 01db 73686F72 		.ascii	"short unsigned int\000"
 3151      7420756E 
 3151      7369676E 
 3151      65642069 
 3151      6E7400
 3152              	.LASF50:
 3153 01ee 63685F74 		.ascii	"ch_thread\000"
ARM GAS  /var/folders/m4/4md61f0s1_g0rzfghffqnxvr0000gn/T//ccfPZNxl.s 			page 58


 3153      68726561 
 3153      6400
 3154              	.LASF24:
 3155 01f8 6D73675F 		.ascii	"msg_t\000"
 3155      7400
 3156              	.LASF130:
 3157 01fe 43686962 		.ascii	"ChibiOS_16.1.4/os/rt/src/chmempools.c\000"
 3157      694F535F 
 3157      31362E31 
 3157      2E342F6F 
 3157      732F7274 
 3158              	.LASF131:
 3159 0224 2F557365 		.ascii	"/Users/raphael/Documents/Projects/rESC/resc-firmwar"
 3159      72732F72 
 3159      61706861 
 3159      656C2F44 
 3159      6F63756D 
 3160 0257 6500     		.ascii	"e\000"
 3161              	.LASF76:
 3162 0259 63685F73 		.ascii	"ch_system_t\000"
 3162      79737465 
 3162      6D5F7400 
 3163              	.LASF123:
 3164 0265 6368506F 		.ascii	"chPoolAdd\000"
 3164      6F6C4164 
 3164      6400
 3165              	.LASF19:
 3166 026f 746D6F64 		.ascii	"tmode_t\000"
 3166      655F7400 
 3167              	.LASF126:
 3168 0277 6368506F 		.ascii	"chPoolObjectInit\000"
 3168      6F6C4F62 
 3168      6A656374 
 3168      496E6974 
 3168      00
 3169              	.LASF55:
 3170 0288 63685F72 		.ascii	"ch_ready_list\000"
 3170      65616479 
 3170      5F6C6973 
 3170      7400
 3171              	.LASF25:
 3172 0296 6576656E 		.ascii	"eventmask_t\000"
 3172      746D6173 
 3172      6B5F7400 
 3173              	.LASF7:
 3174 02a2 5F5F696E 		.ascii	"__int32_t\000"
 3174      7433325F 
 3174      7400
 3175              	.LASF84:
 3176 02ac 73746B61 		.ascii	"stkalign_t\000"
 3176      6C69676E 
 3176      5F7400
 3177              	.LASF49:
 3178 02b7 74687265 		.ascii	"threads_list_t\000"
 3178      6164735F 
 3178      6C697374 
 3178      5F7400
ARM GAS  /var/folders/m4/4md61f0s1_g0rzfghffqnxvr0000gn/T//ccfPZNxl.s 			page 59


 3179              	.LASF41:
 3180 02c6 705F7761 		.ascii	"p_waiting\000"
 3180      6974696E 
 3180      6700
 3181              	.LASF82:
 3182 02d0 73697A65 		.ascii	"sizetype\000"
 3182      74797065 
 3182      00
 3183              	.LASF48:
 3184 02d9 74687265 		.ascii	"thread_reference_t\000"
 3184      61645F72 
 3184      65666572 
 3184      656E6365 
 3184      5F7400
 3185              	.LASF71:
 3186 02ec 63685F76 		.ascii	"ch_virtual_timers_list\000"
 3186      69727475 
 3186      616C5F74 
 3186      696D6572 
 3186      735F6C69 
 3187              	.LASF119:
 3188 0303 6368506F 		.ascii	"chPoolAllocI\000"
 3188      6F6C416C 
 3188      6C6F6349 
 3188      00
 3189              	.LASF121:
 3190 0310 6368506F 		.ascii	"chPoolFreeI\000"
 3190      6F6C4672 
 3190      65654900 
 3191              	.LASF34:
 3192 031c 705F6F6C 		.ascii	"p_older\000"
 3192      64657200 
 3193              	.LASF58:
 3194 0324 725F6374 		.ascii	"r_ctx\000"
 3194      7800
 3195              	.LASF109:
 3196 032a 6D705F6F 		.ascii	"mp_object_size\000"
 3196      626A6563 
 3196      745F7369 
 3196      7A6500
 3197              	.LASF88:
 3198 0339 746D5F63 		.ascii	"tm_calibration_t\000"
 3198      616C6962 
 3198      72617469 
 3198      6F6E5F74 
 3198      00
 3199              	.LASF61:
 3200 034a 725F6375 		.ascii	"r_current\000"
 3200      7272656E 
 3200      7400
 3201              	.LASF60:
 3202 0354 725F6F6C 		.ascii	"r_older\000"
 3202      64657200 
 3203              	.LASF12:
 3204 035c 5F5F7569 		.ascii	"__uint64_t\000"
 3204      6E743634 
 3204      5F7400
ARM GAS  /var/folders/m4/4md61f0s1_g0rzfghffqnxvr0000gn/T//ccfPZNxl.s 			page 60


 3205              	.LASF107:
 3206 0367 70685F6E 		.ascii	"ph_next\000"
 3206      65787400 
 3207              	.LASF21:
 3208 036f 74726566 		.ascii	"trefs_t\000"
 3208      735F7400 
 3209              	.LASF63:
 3210 0377 76697274 		.ascii	"virtual_timer_t\000"
 3210      75616C5F 
 3210      74696D65 
 3210      725F7400 
 3211              	.LASF30:
 3212 0387 705F7072 		.ascii	"p_prev\000"
 3212      657600
 3213              	.LASF23:
 3214 038e 74707269 		.ascii	"tprio_t\000"
 3214      6F5F7400 
 3215              	.LASF74:
 3216 0396 63685F73 		.ascii	"ch_system_debug\000"
 3216      79737465 
 3216      6D5F6465 
 3216      62756700 
 3217              	.LASF15:
 3218 03a6 696E7433 		.ascii	"int32_t\000"
 3218      325F7400 
 3219              	.LASF4:
 3220 03ae 756E7369 		.ascii	"unsigned char\000"
 3220      676E6564 
 3220      20636861 
 3220      7200
 3221              	.LASF45:
 3222 03bc 705F6D74 		.ascii	"p_mtxlist\000"
 3222      786C6973 
 3222      7400
 3223              	.LASF5:
 3224 03c6 73686F72 		.ascii	"short int\000"
 3224      7420696E 
 3224      7400
 3225              	.LASF36:
 3226 03d0 705F7374 		.ascii	"p_state\000"
 3226      61746500 
 3227              	.LASF39:
 3228 03d8 705F7072 		.ascii	"p_preempt\000"
 3228      65656D70 
 3228      7400
 3229              	.LASF57:
 3230 03e2 725F7072 		.ascii	"r_prio\000"
 3230      696F00
 3231              	.LASF95:
 3232 03e9 65776D61 		.ascii	"ewmask\000"
 3232      736B00
 3233              	.LASF29:
 3234 03f0 705F6E65 		.ascii	"p_next\000"
 3234      787400
 3235              	.LASF117:
 3236 03f7 5F5F6675 		.ascii	"__func__\000"
 3236      6E635F5F 
ARM GAS  /var/folders/m4/4md61f0s1_g0rzfghffqnxvr0000gn/T//ccfPZNxl.s 			page 61


 3236      00
 3237              	.LASF120:
 3238 0400 63685379 		.ascii	"chSysLock\000"
 3238      734C6F63 
 3238      6B00
 3239              	.LASF118:
 3240 040a 6F626A70 		.ascii	"objp\000"
 3240      00
 3241              	.LASF64:
 3242 040f 63685F76 		.ascii	"ch_virtual_timer\000"
 3242      69727475 
 3242      616C5F74 
 3242      696D6572 
 3242      00
 3243              	.LASF96:
 3244 0420 63685F73 		.ascii	"ch_semaphore\000"
 3244      656D6170 
 3244      686F7265 
 3244      00
 3245              	.LASF44:
 3246 042d 705F6570 		.ascii	"p_epending\000"
 3246      656E6469 
 3246      6E6700
 3247              	.LASF16:
 3248 0438 75696E74 		.ascii	"uint32_t\000"
 3248      33325F74 
 3248      00
 3249              	.LASF94:
 3250 0441 77746D74 		.ascii	"wtmtxp\000"
 3250      787000
 3251              	.LASF56:
 3252 0448 725F7175 		.ascii	"r_queue\000"
 3252      65756500 
 3253              	.LASF51:
 3254 0450 63685F74 		.ascii	"ch_threads_list\000"
 3254      68726561 
 3254      64735F6C 
 3254      69737400 
 3255              	.LASF10:
 3256 0460 6C6F6E67 		.ascii	"long unsigned int\000"
 3256      20756E73 
 3256      69676E65 
 3256      6420696E 
 3256      7400
 3257              	.LASF103:
 3258 0472 63686172 		.ascii	"char\000"
 3258      00
 3259              	.LASF129:
 3260 0477 474E5520 		.ascii	"GNU C99 5.2.1 20151202 (release) [ARM/embedded-5-br"
 3260      43393920 
 3260      352E322E 
 3260      31203230 
 3260      31353132 
 3261 04aa 616E6368 		.ascii	"anch revision 231848] -mcpu=cortex-m4 -mfloat-abi=h"
 3261      20726576 
 3261      6973696F 
 3261      6E203233 
ARM GAS  /var/folders/m4/4md61f0s1_g0rzfghffqnxvr0000gn/T//ccfPZNxl.s 			page 62


 3261      31383438 
 3262 04dd 61726420 		.ascii	"ard -mfpu=fpv4-sp-d16 -mno-thumb-interwork -mthumb "
 3262      2D6D6670 
 3262      753D6670 
 3262      76342D73 
 3262      702D6431 
 3263 0510 2D676764 		.ascii	"-ggdb -O2 -std=c99 -fomit-frame-pointer -falign-fun"
 3263      62202D4F 
 3263      32202D73 
 3263      74643D63 
 3263      3939202D 
 3264 0543 6374696F 		.ascii	"ctions=16 -ffunction-sections -fdata-sections -fno-"
 3264      6E733D31 
 3264      36202D66 
 3264      66756E63 
 3264      74696F6E 
 3265 0576 636F6D6D 		.ascii	"common\000"
 3265      6F6E00
 3266              	.LASF28:
 3267 057d 74687265 		.ascii	"thread_t\000"
 3267      61645F74 
 3267      00
 3268              	.LASF102:
 3269 0586 6D5F6E65 		.ascii	"m_next\000"
 3269      787400
 3270              	.LASF27:
 3271 058d 73797374 		.ascii	"systime_t\000"
 3271      696D655F 
 3271      7400
 3272              	.LASF46:
 3273 0597 705F7265 		.ascii	"p_realprio\000"
 3273      616C7072 
 3273      696F00
 3274              	.LASF62:
 3275 05a2 76746675 		.ascii	"vtfunc_t\000"
 3275      6E635F74 
 3275      00
 3276              	.LASF9:
 3277 05ab 5F5F7569 		.ascii	"__uint32_t\000"
 3277      6E743332 
 3277      5F7400
 3278              	.LASF114:
 3279 05b6 5F5F7365 		.ascii	"__set_BASEPRI\000"
 3279      745F4241 
 3279      53455052 
 3279      4900
 3280              	.LASF75:
 3281 05c4 70616E69 		.ascii	"panic_msg\000"
 3281      635F6D73 
 3281      6700
 3282              	.LASF87:
 3283 05ce 6F666673 		.ascii	"offset\000"
 3283      657400
 3284              	.LASF99:
 3285 05d5 63685F6D 		.ascii	"ch_mutex\000"
 3285      75746578 
 3285      00
ARM GAS  /var/folders/m4/4md61f0s1_g0rzfghffqnxvr0000gn/T//ccfPZNxl.s 			page 63


 3286              	.LASF108:
 3287 05de 6D705F6E 		.ascii	"mp_next\000"
 3287      65787400 
 3288              	.LASF85:
 3289 05e6 636F6E74 		.ascii	"context\000"
 3289      65787400 
 3290              	.LASF43:
 3291 05ee 705F6D73 		.ascii	"p_msg\000"
 3291      6700
 3292              	.LASF18:
 3293 05f4 7274636E 		.ascii	"rtcnt_t\000"
 3293      745F7400 
 3294              	.LASF69:
 3295 05fc 76745F70 		.ascii	"vt_par\000"
 3295      617200
 3296              	.LASF52:
 3297 0603 74687265 		.ascii	"threads_queue_t\000"
 3297      6164735F 
 3297      71756575 
 3297      655F7400 
 3298              	.LASF106:
 3299 0613 706F6F6C 		.ascii	"pool_header\000"
 3299      5F686561 
 3299      64657200 
 3300              	.LASF38:
 3301 061f 705F7265 		.ascii	"p_refs\000"
 3301      667300
 3302              	.LASF78:
 3303 0626 726C6973 		.ascii	"rlist\000"
 3303      7400
 3304              	.LASF14:
 3305 062c 75696E74 		.ascii	"uint8_t\000"
 3305      385F7400 
 3306              	.LASF132:
 3307 0634 6368506F 		.ascii	"chPoolAlloc\000"
 3307      6F6C416C 
 3307      6C6F6300 
 3308              	.LASF122:
 3309 0640 6368506F 		.ascii	"chPoolFree\000"
 3309      6F6C4672 
 3309      656500
 3310              	.LASF91:
 3311 064b 77746F62 		.ascii	"wtobjp\000"
 3311      6A7000
 3312              	.LASF35:
 3313 0652 705F6E61 		.ascii	"p_name\000"
 3313      6D6500
 3314              	.LASF124:
 3315 0659 73697A65 		.ascii	"size\000"
 3315      00
 3316              	.LASF72:
 3317 065e 76745F73 		.ascii	"vt_systime\000"
 3317      79737469 
 3317      6D6500
 3318              	.LASF37:
 3319 0669 705F666C 		.ascii	"p_flags\000"
 3319      61677300 
ARM GAS  /var/folders/m4/4md61f0s1_g0rzfghffqnxvr0000gn/T//ccfPZNxl.s 			page 64


 3320              	.LASF115:
 3321 0671 63685379 		.ascii	"chSysUnlock\000"
 3321      73556E6C 
 3321      6F636B00 
 3322              	.LASF127:
 3323 067d 6368506F 		.ascii	"chPoolLoadArray\000"
 3323      6F6C4C6F 
 3323      61644172 
 3323      72617900 
 3324              	.LASF101:
 3325 068d 6D5F6F77 		.ascii	"m_owner\000"
 3325      6E657200 
 3326              	.LASF32:
 3327 0695 705F6374 		.ascii	"p_ctx\000"
 3327      7800
 3328              	.LASF68:
 3329 069b 76745F66 		.ascii	"vt_func\000"
 3329      756E6300 
 3330              		.ident	"GCC: (GNU Tools for ARM Embedded Processors) 5.2.1 20151202 (release) [ARM/embedded-5-bran
ARM GAS  /var/folders/m4/4md61f0s1_g0rzfghffqnxvr0000gn/T//ccfPZNxl.s 			page 65


DEFINED SYMBOLS
                            *ABS*:0000000000000000 chmempools.c
/var/folders/m4/4md61f0s1_g0rzfghffqnxvr0000gn/T//ccfPZNxl.s:22     .text.chPoolObjectInit:0000000000000000 $t
/var/folders/m4/4md61f0s1_g0rzfghffqnxvr0000gn/T//ccfPZNxl.s:28     .text.chPoolObjectInit:0000000000000000 chPoolObjectInit
/var/folders/m4/4md61f0s1_g0rzfghffqnxvr0000gn/T//ccfPZNxl.s:50     .text.chPoolLoadArray:0000000000000000 $t
/var/folders/m4/4md61f0s1_g0rzfghffqnxvr0000gn/T//ccfPZNxl.s:56     .text.chPoolLoadArray:0000000000000000 chPoolLoadArray
/var/folders/m4/4md61f0s1_g0rzfghffqnxvr0000gn/T//ccfPZNxl.s:164    .text.chPoolAllocI:0000000000000000 $t
/var/folders/m4/4md61f0s1_g0rzfghffqnxvr0000gn/T//ccfPZNxl.s:170    .text.chPoolAllocI:0000000000000000 chPoolAllocI
/var/folders/m4/4md61f0s1_g0rzfghffqnxvr0000gn/T//ccfPZNxl.s:206    .text.chPoolAlloc:0000000000000000 $t
/var/folders/m4/4md61f0s1_g0rzfghffqnxvr0000gn/T//ccfPZNxl.s:212    .text.chPoolAlloc:0000000000000000 chPoolAlloc
/var/folders/m4/4md61f0s1_g0rzfghffqnxvr0000gn/T//ccfPZNxl.s:327    .text.chPoolFreeI:0000000000000000 $t
/var/folders/m4/4md61f0s1_g0rzfghffqnxvr0000gn/T//ccfPZNxl.s:333    .text.chPoolFreeI:0000000000000000 chPoolFreeI
/var/folders/m4/4md61f0s1_g0rzfghffqnxvr0000gn/T//ccfPZNxl.s:351    .text.chPoolFree:0000000000000000 $t
/var/folders/m4/4md61f0s1_g0rzfghffqnxvr0000gn/T//ccfPZNxl.s:357    .text.chPoolFree:0000000000000000 chPoolFree
                     .debug_frame:0000000000000010 $d

NO UNDEFINED SYMBOLS
