ARM GAS  /var/folders/m4/4md61f0s1_g0rzfghffqnxvr0000gn/T//cco5YJlY.s 			page 1


   1              		.syntax unified
   2              		.cpu cortex-m4
   3              		.eabi_attribute 27, 1
   4              		.eabi_attribute 28, 1
   5              		.fpu fpv4-sp-d16
   6              		.eabi_attribute 20, 1
   7              		.eabi_attribute 21, 1
   8              		.eabi_attribute 23, 3
   9              		.eabi_attribute 24, 1
  10              		.eabi_attribute 25, 1
  11              		.eabi_attribute 26, 1
  12              		.eabi_attribute 30, 2
  13              		.eabi_attribute 34, 1
  14              		.eabi_attribute 18, 4
  15              		.thumb
  16              		.syntax unified
  17              		.file	"chmtx.c"
  18              		.text
  19              	.Ltext0:
  20              		.cfi_sections	.debug_frame
  21              		.section	.text.chMtxObjectInit,"ax",%progbits
  22              		.align	2
  23              		.p2align 4,,15
  24              		.global	chMtxObjectInit
  25              		.thumb
  26              		.thumb_func
  27              		.type	chMtxObjectInit, %function
  28              	chMtxObjectInit:
  29              	.LFB231:
  30              		.file 1 "ChibiOS_16.1.4/os/rt/src/chmtx.c"
  31              		.loc 1 103 0
  32              		.cfi_startproc
  33              		@ args = 0, pretend = 0, frame = 0
  34              		@ frame_needed = 0, uses_anonymous_args = 0
  35              		@ link register save eliminated.
  36              	.LVL0:
  37              		.loc 1 108 0
  38 0000 0023     		movs	r3, #0
  39              	.LBB103:
  40              	.LBB104:
  41              		.file 2 "ChibiOS_16.1.4/os/rt/include/chschd.h"
  42              		.loc 2 604 0
  43 0002 0060     		str	r0, [r0]
  44              		.loc 2 605 0
  45 0004 4060     		str	r0, [r0, #4]
  46              	.LVL1:
  47              	.LBE104:
  48              	.LBE103:
  49              		.loc 1 108 0
  50 0006 8360     		str	r3, [r0, #8]
  51 0008 7047     		bx	lr
  52              		.cfi_endproc
  53              	.LFE231:
  54              		.size	chMtxObjectInit, .-chMtxObjectInit
  55 000a 00BF     		.section	.text.chMtxLockS,"ax",%progbits
  56              		.align	2
  57              		.p2align 4,,15
ARM GAS  /var/folders/m4/4md61f0s1_g0rzfghffqnxvr0000gn/T//cco5YJlY.s 			page 2


  58              		.global	chMtxLockS
  59              		.thumb
  60              		.thumb_func
  61              		.type	chMtxLockS, %function
  62              	chMtxLockS:
  63              	.LFB233:
  64              		.loc 1 139 0
  65              		.cfi_startproc
  66              		@ args = 0, pretend = 0, frame = 0
  67              		@ frame_needed = 0, uses_anonymous_args = 0
  68              	.LVL2:
  69              		.loc 1 140 0
  70 0000 304B     		ldr	r3, .L28
  71              		.loc 1 146 0
  72 0002 8268     		ldr	r2, [r0, #8]
  73              		.loc 1 139 0
  74 0004 70B5     		push	{r4, r5, r6, lr}
  75              		.cfi_def_cfa_offset 16
  76              		.cfi_offset 4, -16
  77              		.cfi_offset 5, -12
  78              		.cfi_offset 6, -8
  79              		.cfi_offset 14, -4
  80              		.loc 1 140 0
  81 0006 9C69     		ldr	r4, [r3, #24]
  82              	.LVL3:
  83              		.loc 1 146 0
  84 0008 002A     		cmp	r2, #0
  85 000a 55D0     		beq	.L3
  86              	.LBB105:
  87              		.loc 1 165 0
  88 000c A168     		ldr	r1, [r4, #8]
  89 000e 9368     		ldr	r3, [r2, #8]
  90 0010 8B42     		cmp	r3, r1
  91 0012 0546     		mov	r5, r0
  92              	.LVL4:
  93 0014 06D2     		bcs	.L5
  94              	.LVL5:
  95              	.L10:
  96              		.loc 1 170 0
  97 0016 137F     		ldrb	r3, [r2, #28]	@ zero_extendqisi2
  98              		.loc 1 167 0
  99 0018 9160     		str	r1, [r2, #8]
 100              		.loc 1 170 0
 101 001a 062B     		cmp	r3, #6
 102 001c 33D0     		beq	.L6
 103 001e 072B     		cmp	r3, #7
 104 0020 1DD0     		beq	.L7
 105 0022 9BB1     		cbz	r3, .L27
 106              	.LVL6:
 107              	.L5:
 108              	.LBB106:
 109              	.LBB107:
 110              		.loc 2 653 0
 111 0024 2B46     		mov	r3, r5
 112 0026 03E0     		b	.L18
 113              	.LVL7:
 114              	.L17:
ARM GAS  /var/folders/m4/4md61f0s1_g0rzfghffqnxvr0000gn/T//cco5YJlY.s 			page 3


 115              		.loc 2 656 0
 116 0028 9968     		ldr	r1, [r3, #8]
 117 002a A268     		ldr	r2, [r4, #8]
 118 002c 9142     		cmp	r1, r2
 119 002e 02D3     		bcc	.L19
 120              	.L18:
 121              		.loc 2 655 0
 122 0030 1B68     		ldr	r3, [r3]
 123              	.LVL8:
 124              		.loc 2 656 0
 125 0032 9D42     		cmp	r5, r3
 126 0034 F8D1     		bne	.L17
 127              	.L19:
 128              		.loc 2 658 0
 129 0036 5A68     		ldr	r2, [r3, #4]
 130 0038 6260     		str	r2, [r4, #4]
 131              		.loc 2 657 0
 132 003a 2360     		str	r3, [r4]
 133              		.loc 2 659 0
 134 003c 1460     		str	r4, [r2]
 135              		.loc 2 660 0
 136 003e 5C60     		str	r4, [r3, #4]
 137              	.LVL9:
 138              	.LBE107:
 139              	.LBE106:
 140              		.loc 1 213 0
 141 0040 6562     		str	r5, [r4, #36]
 142              		.loc 1 214 0
 143 0042 0620     		movs	r0, #6
 144              	.LBE105:
 145              		.loc 1 236 0
 146 0044 BDE87040 		pop	{r4, r5, r6, lr}
 147              		.cfi_remember_state
 148              		.cfi_restore 14
 149              		.cfi_restore 6
 150              		.cfi_restore 5
 151              		.cfi_restore 4
 152              		.cfi_def_cfa_offset 0
 153              	.LVL10:
 154              	.LBB120:
 155              		.loc 1 214 0
 156 0048 FFF7FEBF 		b	chSchGoSleepS
 157              	.LVL11:
 158              	.L27:
 159              		.cfi_restore_state
 160              	.LBB108:
 161              	.LBB109:
 162              		.loc 2 691 0
 163 004c 92E80A00 		ldmia	r2, {r1, r3}
 164 0050 1960     		str	r1, [r3]
 165              		.loc 2 692 0
 166 0052 1168     		ldr	r1, [r2]
 167              	.LBE109:
 168              	.LBE108:
 169              		.loc 1 202 0
 170 0054 1046     		mov	r0, r2
 171              	.LBB111:
ARM GAS  /var/folders/m4/4md61f0s1_g0rzfghffqnxvr0000gn/T//cco5YJlY.s 			page 4


 172              	.LBB110:
 173              		.loc 2 692 0
 174 0056 4B60     		str	r3, [r1, #4]
 175              	.LVL12:
 176              	.LBE110:
 177              	.LBE111:
 178              		.loc 1 202 0
 179 0058 FFF7FEFF 		bl	chSchReadyI
 180              	.LVL13:
 181              		.loc 1 203 0
 182 005c E2E7     		b	.L5
 183              	.LVL14:
 184              	.L7:
 185              	.LBB112:
 186              	.LBB113:
 187              		.loc 2 691 0
 188 005e 92E80900 		ldmia	r2, {r0, r3}
 189 0062 1860     		str	r0, [r3]
 190              		.loc 2 692 0
 191 0064 1068     		ldr	r0, [r2]
 192 0066 4360     		str	r3, [r0, #4]
 193              	.LVL15:
 194              	.LBE113:
 195              	.LBE112:
 196              		.loc 1 193 0
 197 0068 566A     		ldr	r6, [r2, #36]
 198              	.LVL16:
 199              	.LBB114:
 200              	.LBB115:
 201              		.loc 2 653 0
 202 006a 3346     		mov	r3, r6
 203 006c 02E0     		b	.L15
 204              	.LVL17:
 205              	.L14:
 206              		.loc 2 656 0
 207 006e 9868     		ldr	r0, [r3, #8]
 208 0070 8842     		cmp	r0, r1
 209 0072 02D3     		bcc	.L16
 210              	.LVL18:
 211              	.L15:
 212              		.loc 2 655 0
 213 0074 1B68     		ldr	r3, [r3]
 214              	.LVL19:
 215              		.loc 2 656 0
 216 0076 9E42     		cmp	r6, r3
 217 0078 F9D1     		bne	.L14
 218              	.L16:
 219              		.loc 2 658 0
 220 007a 5968     		ldr	r1, [r3, #4]
 221 007c 5160     		str	r1, [r2, #4]
 222              		.loc 2 657 0
 223 007e 1360     		str	r3, [r2]
 224              		.loc 2 659 0
 225 0080 0A60     		str	r2, [r1]
 226              		.loc 2 660 0
 227 0082 5A60     		str	r2, [r3, #4]
 228 0084 CEE7     		b	.L5
ARM GAS  /var/folders/m4/4md61f0s1_g0rzfghffqnxvr0000gn/T//cco5YJlY.s 			page 5


 229              	.LVL20:
 230              	.L6:
 231              	.LBE115:
 232              	.LBE114:
 233              	.LBB116:
 234              	.LBB117:
 235              		.loc 2 691 0
 236 0086 92E80900 		ldmia	r2, {r0, r3}
 237 008a 1860     		str	r0, [r3]
 238              		.loc 2 692 0
 239 008c 1068     		ldr	r0, [r2]
 240 008e 4360     		str	r3, [r0, #4]
 241              	.LVL21:
 242              	.LBE117:
 243              	.LBE116:
 244              		.loc 1 173 0
 245 0090 566A     		ldr	r6, [r2, #36]
 246              	.LVL22:
 247              	.LBB118:
 248              	.LBB119:
 249              		.loc 2 653 0
 250 0092 3346     		mov	r3, r6
 251 0094 02E0     		b	.L12
 252              	.LVL23:
 253              	.L9:
 254              		.loc 2 656 0
 255 0096 9868     		ldr	r0, [r3, #8]
 256 0098 8842     		cmp	r0, r1
 257 009a 02D3     		bcc	.L13
 258              	.LVL24:
 259              	.L12:
 260              		.loc 2 655 0
 261 009c 1B68     		ldr	r3, [r3]
 262              	.LVL25:
 263              		.loc 2 656 0
 264 009e 9E42     		cmp	r6, r3
 265 00a0 F9D1     		bne	.L9
 266              	.L13:
 267              		.loc 2 658 0
 268 00a2 5968     		ldr	r1, [r3, #4]
 269 00a4 5160     		str	r1, [r2, #4]
 270              		.loc 2 657 0
 271 00a6 1360     		str	r3, [r2]
 272              		.loc 2 659 0
 273 00a8 0A60     		str	r2, [r1]
 274              		.loc 2 660 0
 275 00aa 5A60     		str	r2, [r3, #4]
 276              	.LVL26:
 277              	.LBE119:
 278              	.LBE118:
 279              		.loc 1 174 0
 280 00ac B268     		ldr	r2, [r6, #8]
 281              	.LVL27:
 282              		.loc 1 165 0
 283 00ae A168     		ldr	r1, [r4, #8]
 284 00b0 9368     		ldr	r3, [r2, #8]
 285              	.LVL28:
ARM GAS  /var/folders/m4/4md61f0s1_g0rzfghffqnxvr0000gn/T//cco5YJlY.s 			page 6


 286 00b2 8B42     		cmp	r3, r1
 287 00b4 AFD3     		bcc	.L10
 288 00b6 B5E7     		b	.L5
 289              	.LVL29:
 290              	.L3:
 291              	.LBE120:
 292              		.loc 1 233 0
 293 00b8 E36B     		ldr	r3, [r4, #60]
 294 00ba C360     		str	r3, [r0, #12]
 295              		.loc 1 232 0
 296 00bc 8460     		str	r4, [r0, #8]
 297              		.loc 1 234 0
 298 00be E063     		str	r0, [r4, #60]
 299 00c0 70BD     		pop	{r4, r5, r6, pc}
 300              	.LVL30:
 301              	.L29:
 302 00c2 00BF     		.align	2
 303              	.L28:
 304 00c4 00000000 		.word	ch
 305              		.cfi_endproc
 306              	.LFE233:
 307              		.size	chMtxLockS, .-chMtxLockS
 308              		.section	.text.chMtxLock,"ax",%progbits
 309              		.align	2
 310              		.p2align 4,,15
 311              		.global	chMtxLock
 312              		.thumb
 313              		.thumb_func
 314              		.type	chMtxLock, %function
 315              	chMtxLock:
 316              	.LFB232:
 317              		.loc 1 123 0
 318              		.cfi_startproc
 319              		@ args = 0, pretend = 0, frame = 0
 320              		@ frame_needed = 0, uses_anonymous_args = 0
 321              	.LVL31:
 322 0000 08B5     		push	{r3, lr}
 323              		.cfi_def_cfa_offset 8
 324              		.cfi_offset 3, -8
 325              		.cfi_offset 14, -4
 326              	.LBB121:
 327              	.LBB122:
 328              	.LBB123:
 329              	.LBB124:
 330              		.file 3 "ChibiOS_16.1.4/os/ext/CMSIS/include/core_cmFunc.h"
 331              		.loc 3 548 0
 332 0002 2023     		movs	r3, #32
 333              		.syntax unified
 334              	@ 548 "ChibiOS_16.1.4/os/ext/CMSIS/include/core_cmFunc.h" 1
 335 0004 83F31188 		MSR basepri, r3
 336              	@ 0 "" 2
 337              	.LVL32:
 338              		.thumb
 339              		.syntax unified
 340              	.LBE124:
 341              	.LBE123:
 342              	.LBE122:
ARM GAS  /var/folders/m4/4md61f0s1_g0rzfghffqnxvr0000gn/T//cco5YJlY.s 			page 7


 343              	.LBE121:
 344              		.loc 1 126 0
 345 0008 FFF7FEFF 		bl	chMtxLockS
 346              	.LVL33:
 347              	.LBB125:
 348              	.LBB126:
 349              	.LBB127:
 350              	.LBB128:
 351              	.LBB129:
 352              		.loc 3 548 0
 353 000c 0023     		movs	r3, #0
 354              		.syntax unified
 355              	@ 548 "ChibiOS_16.1.4/os/ext/CMSIS/include/core_cmFunc.h" 1
 356 000e 83F31188 		MSR basepri, r3
 357              	@ 0 "" 2
 358              	.LVL34:
 359              		.thumb
 360              		.syntax unified
 361 0012 08BD     		pop	{r3, pc}
 362              	.LBE129:
 363              	.LBE128:
 364              	.LBE127:
 365              	.LBE126:
 366              	.LBE125:
 367              		.cfi_endproc
 368              	.LFE232:
 369              		.size	chMtxLock, .-chMtxLock
 370              		.section	.text.chMtxTryLock,"ax",%progbits
 371              		.align	2
 372              		.p2align 4,,15
 373              		.global	chMtxTryLock
 374              		.thumb
 375              		.thumb_func
 376              		.type	chMtxTryLock, %function
 377              	chMtxTryLock:
 378              	.LFB234:
 379              		.loc 1 255 0
 380              		.cfi_startproc
 381              		@ args = 0, pretend = 0, frame = 0
 382              		@ frame_needed = 0, uses_anonymous_args = 0
 383              		@ link register save eliminated.
 384              	.LVL35:
 385              		.loc 1 255 0
 386 0000 0346     		mov	r3, r0
 387              	.LBB143:
 388              	.LBB144:
 389              	.LBB145:
 390              	.LBB146:
 391              		.loc 3 548 0
 392 0002 2022     		movs	r2, #32
 393              		.syntax unified
 394              	@ 548 "ChibiOS_16.1.4/os/ext/CMSIS/include/core_cmFunc.h" 1
 395 0004 82F31188 		MSR basepri, r2
 396              	@ 0 "" 2
 397              	.LVL36:
 398              		.thumb
 399              		.syntax unified
ARM GAS  /var/folders/m4/4md61f0s1_g0rzfghffqnxvr0000gn/T//cco5YJlY.s 			page 8


 400              	.LBE146:
 401              	.LBE145:
 402              	.LBE144:
 403              	.LBE143:
 404              	.LBB147:
 405              	.LBB148:
 406              		.loc 1 287 0
 407 0008 8268     		ldr	r2, [r0, #8]
 408              		.loc 1 297 0
 409 000a 0020     		movs	r0, #0
 410              	.LVL37:
 411              		.loc 1 287 0
 412 000c 1AB1     		cbz	r2, .L35
 413              	.LVL38:
 414              	.LBE148:
 415              	.LBE147:
 416              	.LBB152:
 417              	.LBB153:
 418              	.LBB154:
 419              	.LBB155:
 420              	.LBB156:
 421              		.loc 3 548 0
 422 000e 0023     		movs	r3, #0
 423              	.LVL39:
 424              		.syntax unified
 425              	@ 548 "ChibiOS_16.1.4/os/ext/CMSIS/include/core_cmFunc.h" 1
 426 0010 83F31188 		MSR basepri, r3
 427              	@ 0 "" 2
 428              	.LVL40:
 429              		.thumb
 430              		.syntax unified
 431              	.LBE156:
 432              	.LBE155:
 433              	.LBE154:
 434              	.LBE153:
 435              	.LBE152:
 436              		.loc 1 263 0
 437 0014 7047     		bx	lr
 438              	.LVL41:
 439              	.L35:
 440              	.LBB161:
 441              	.LBB151:
 442              	.LBB149:
 443              	.LBB150:
 444              		.loc 1 305 0
 445 0016 054A     		ldr	r2, .L36
 446 0018 9269     		ldr	r2, [r2, #24]
 447 001a 9A60     		str	r2, [r3, #8]
 448              		.loc 1 306 0
 449 001c D16B     		ldr	r1, [r2, #60]
 450 001e D960     		str	r1, [r3, #12]
 451              		.loc 1 307 0
 452 0020 0120     		movs	r0, #1
 453 0022 D363     		str	r3, [r2, #60]
 454              	.LVL42:
 455              	.LBE150:
 456              	.LBE149:
ARM GAS  /var/folders/m4/4md61f0s1_g0rzfghffqnxvr0000gn/T//cco5YJlY.s 			page 9


 457              	.LBE151:
 458              	.LBE161:
 459              	.LBB162:
 460              	.LBB160:
 461              	.LBB159:
 462              	.LBB158:
 463              	.LBB157:
 464              		.loc 3 548 0
 465 0024 0023     		movs	r3, #0
 466              	.LVL43:
 467              		.syntax unified
 468              	@ 548 "ChibiOS_16.1.4/os/ext/CMSIS/include/core_cmFunc.h" 1
 469 0026 83F31188 		MSR basepri, r3
 470              	@ 0 "" 2
 471              	.LVL44:
 472              		.thumb
 473              		.syntax unified
 474              	.LBE157:
 475              	.LBE158:
 476              	.LBE159:
 477              	.LBE160:
 478              	.LBE162:
 479              		.loc 1 263 0
 480 002a 7047     		bx	lr
 481              	.L37:
 482              		.align	2
 483              	.L36:
 484 002c 00000000 		.word	ch
 485              		.cfi_endproc
 486              	.LFE234:
 487              		.size	chMtxTryLock, .-chMtxTryLock
 488              		.section	.text.chMtxTryLockS,"ax",%progbits
 489              		.align	2
 490              		.p2align 4,,15
 491              		.global	chMtxTryLockS
 492              		.thumb
 493              		.thumb_func
 494              		.type	chMtxTryLockS, %function
 495              	chMtxTryLockS:
 496              	.LFB235:
 497              		.loc 1 282 0
 498              		.cfi_startproc
 499              		@ args = 0, pretend = 0, frame = 0
 500              		@ frame_needed = 0, uses_anonymous_args = 0
 501              		@ link register save eliminated.
 502              	.LVL45:
 503              		.loc 1 287 0
 504 0000 8268     		ldr	r2, [r0, #8]
 505              		.loc 1 282 0
 506 0002 0346     		mov	r3, r0
 507              		.loc 1 287 0
 508 0004 0AB1     		cbz	r2, .L41
 509              		.loc 1 297 0
 510 0006 0020     		movs	r0, #0
 511              	.LVL46:
 512              		.loc 1 309 0
 513 0008 7047     		bx	lr
ARM GAS  /var/folders/m4/4md61f0s1_g0rzfghffqnxvr0000gn/T//cco5YJlY.s 			page 10


 514              	.LVL47:
 515              	.L41:
 516              	.LBB165:
 517              	.LBB166:
 518              		.loc 1 305 0
 519 000a 044A     		ldr	r2, .L42
 520 000c 9269     		ldr	r2, [r2, #24]
 521 000e 8260     		str	r2, [r0, #8]
 522              		.loc 1 306 0
 523 0010 D16B     		ldr	r1, [r2, #60]
 524 0012 C160     		str	r1, [r0, #12]
 525              		.loc 1 307 0
 526 0014 0120     		movs	r0, #1
 527              	.LVL48:
 528 0016 D363     		str	r3, [r2, #60]
 529              	.LVL49:
 530 0018 7047     		bx	lr
 531              	.L43:
 532 001a 00BF     		.align	2
 533              	.L42:
 534 001c 00000000 		.word	ch
 535              	.LBE166:
 536              	.LBE165:
 537              		.cfi_endproc
 538              	.LFE235:
 539              		.size	chMtxTryLockS, .-chMtxTryLockS
 540              		.section	.text.chMtxUnlock,"ax",%progbits
 541              		.align	2
 542              		.p2align 4,,15
 543              		.global	chMtxUnlock
 544              		.thumb
 545              		.thumb_func
 546              		.type	chMtxUnlock, %function
 547              	chMtxUnlock:
 548              	.LFB236:
 549              		.loc 1 323 0
 550              		.cfi_startproc
 551              		@ args = 0, pretend = 0, frame = 0
 552              		@ frame_needed = 0, uses_anonymous_args = 0
 553              	.LVL50:
 554              		.loc 1 324 0
 555 0000 174B     		ldr	r3, .L55
 556              		.loc 1 323 0
 557 0002 70B5     		push	{r4, r5, r6, lr}
 558              		.cfi_def_cfa_offset 16
 559              		.cfi_offset 4, -16
 560              		.cfi_offset 5, -12
 561              		.cfi_offset 6, -8
 562              		.cfi_offset 14, -4
 563              		.loc 1 324 0
 564 0004 9D69     		ldr	r5, [r3, #24]
 565              	.LVL51:
 566              	.LBB167:
 567              	.LBB168:
 568              	.LBB169:
 569              	.LBB170:
 570              		.loc 3 548 0
ARM GAS  /var/folders/m4/4md61f0s1_g0rzfghffqnxvr0000gn/T//cco5YJlY.s 			page 11


 571 0006 2023     		movs	r3, #32
 572              		.syntax unified
 573              	@ 548 "ChibiOS_16.1.4/os/ext/CMSIS/include/core_cmFunc.h" 1
 574 0008 83F31188 		MSR basepri, r3
 575              	@ 0 "" 2
 576              	.LVL52:
 577              		.thumb
 578              		.syntax unified
 579              	.LBE170:
 580              	.LBE169:
 581              	.LBE168:
 582              	.LBE167:
 583              	.LBB171:
 584              	.LBB172:
 585              	.LBB173:
 586              	.LBB174:
 587              		.loc 2 631 0
 588 000c 0468     		ldr	r4, [r0]
 589              	.LBE174:
 590              	.LBE173:
 591              	.LBE172:
 592              	.LBE171:
 593              		.loc 1 344 0
 594 000e C368     		ldr	r3, [r0, #12]
 595 0010 EB63     		str	r3, [r5, #60]
 596              		.loc 1 347 0
 597 0012 8442     		cmp	r4, r0
 598 0014 1DD0     		beq	.L45
 599              	.LBB175:
 600              		.loc 1 352 0
 601 0016 296C     		ldr	r1, [r5, #64]
 602              	.LVL53:
 603              		.loc 1 354 0
 604 0018 4BB1     		cbz	r3, .L46
 605              	.L48:
 606              	.LVL54:
 607              	.LBB176:
 608              	.LBB177:
 609              	.LBB178:
 610              	.LBB179:
 611              		.loc 2 631 0
 612 001a 1A68     		ldr	r2, [r3]
 613              	.LVL55:
 614              	.LBE179:
 615              	.LBE178:
 616              	.LBE177:
 617              	.LBE176:
 618              		.loc 1 358 0
 619 001c 9342     		cmp	r3, r2
 620 001e 03D0     		beq	.L47
 621              		.loc 1 359 0 discriminator 1
 622 0020 9268     		ldr	r2, [r2, #8]
 623 0022 9142     		cmp	r1, r2
 624 0024 38BF     		it	cc
 625 0026 1146     		movcc	r1, r2
 626              	.LVL56:
 627              	.L47:
ARM GAS  /var/folders/m4/4md61f0s1_g0rzfghffqnxvr0000gn/T//cco5YJlY.s 			page 12


 628              		.loc 1 362 0
 629 0028 DB68     		ldr	r3, [r3, #12]
 630              	.LVL57:
 631              		.loc 1 354 0
 632 002a 002B     		cmp	r3, #0
 633 002c F5D1     		bne	.L48
 634              	.L46:
 635 002e 0346     		mov	r3, r0
 636              	.LVL58:
 637              	.LBB180:
 638              	.LBB181:
 639              		.loc 2 674 0
 640 0030 2268     		ldr	r2, [r4]
 641              	.LBE181:
 642              	.LBE180:
 643              		.loc 1 376 0
 644 0032 E66B     		ldr	r6, [r4, #60]
 645              		.loc 1 367 0
 646 0034 A960     		str	r1, [r5, #8]
 647              	.LVL59:
 648              		.loc 1 383 0
 649 0036 2046     		mov	r0, r4
 650              	.LVL60:
 651              	.LBB183:
 652              	.LBB182:
 653              		.loc 2 674 0
 654 0038 1A60     		str	r2, [r3]
 655              		.loc 2 675 0
 656 003a 5360     		str	r3, [r2, #4]
 657              	.LVL61:
 658              	.LBE182:
 659              	.LBE183:
 660              		.loc 1 375 0
 661 003c 9C60     		str	r4, [r3, #8]
 662              		.loc 1 376 0
 663 003e DE60     		str	r6, [r3, #12]
 664              		.loc 1 377 0
 665 0040 E363     		str	r3, [r4, #60]
 666              		.loc 1 383 0
 667 0042 FFF7FEFF 		bl	chSchReadyI
 668              	.LVL62:
 669              		.loc 1 384 0
 670 0046 FFF7FEFF 		bl	chSchRescheduleS
 671              	.LVL63:
 672              	.LBE175:
 673              	.LBB184:
 674              	.LBB185:
 675              	.LBB186:
 676              	.LBB187:
 677              	.LBB188:
 678              		.loc 3 548 0
 679 004a 0023     		movs	r3, #0
 680              		.syntax unified
 681              	@ 548 "ChibiOS_16.1.4/os/ext/CMSIS/include/core_cmFunc.h" 1
 682 004c 83F31188 		MSR basepri, r3
 683              	@ 0 "" 2
 684              	.LVL64:
ARM GAS  /var/folders/m4/4md61f0s1_g0rzfghffqnxvr0000gn/T//cco5YJlY.s 			page 13


 685              		.thumb
 686              		.syntax unified
 687 0050 70BD     		pop	{r4, r5, r6, pc}
 688              	.LVL65:
 689              	.L45:
 690              	.LBE188:
 691              	.LBE187:
 692              	.LBE186:
 693              	.LBE185:
 694              	.LBE184:
 695              		.loc 1 387 0
 696 0052 0023     		movs	r3, #0
 697 0054 A360     		str	r3, [r4, #8]
 698              	.LVL66:
 699              	.LBB193:
 700              	.LBB192:
 701              	.LBB191:
 702              	.LBB190:
 703              	.LBB189:
 704              		.loc 3 548 0
 705 0056 0023     		movs	r3, #0
 706              		.syntax unified
 707              	@ 548 "ChibiOS_16.1.4/os/ext/CMSIS/include/core_cmFunc.h" 1
 708 0058 83F31188 		MSR basepri, r3
 709              	@ 0 "" 2
 710              	.LVL67:
 711              		.thumb
 712              		.syntax unified
 713 005c 70BD     		pop	{r4, r5, r6, pc}
 714              	.LVL68:
 715              	.L56:
 716 005e 00BF     		.align	2
 717              	.L55:
 718 0060 00000000 		.word	ch
 719              	.LBE189:
 720              	.LBE190:
 721              	.LBE191:
 722              	.LBE192:
 723              	.LBE193:
 724              		.cfi_endproc
 725              	.LFE236:
 726              		.size	chMtxUnlock, .-chMtxUnlock
 727              		.section	.text.chMtxUnlockS,"ax",%progbits
 728              		.align	2
 729              		.p2align 4,,15
 730              		.global	chMtxUnlockS
 731              		.thumb
 732              		.thumb_func
 733              		.type	chMtxUnlockS, %function
 734              	chMtxUnlockS:
 735              	.LFB237:
 736              		.loc 1 410 0
 737              		.cfi_startproc
 738              		@ args = 0, pretend = 0, frame = 0
 739              		@ frame_needed = 0, uses_anonymous_args = 0
 740              		@ link register save eliminated.
 741              	.LVL69:
ARM GAS  /var/folders/m4/4md61f0s1_g0rzfghffqnxvr0000gn/T//cco5YJlY.s 			page 14


 742              		.loc 1 411 0
 743 0000 124B     		ldr	r3, .L67
 744              		.loc 1 410 0
 745 0002 30B4     		push	{r4, r5}
 746              		.cfi_def_cfa_offset 8
 747              		.cfi_offset 4, -8
 748              		.cfi_offset 5, -4
 749              		.loc 1 410 0
 750 0004 0446     		mov	r4, r0
 751              	.LBB194:
 752              	.LBB195:
 753              	.LBB196:
 754              	.LBB197:
 755              		.loc 2 631 0
 756 0006 0568     		ldr	r5, [r0]
 757              	.LBE197:
 758              	.LBE196:
 759              	.LBE195:
 760              	.LBE194:
 761              		.loc 1 411 0
 762 0008 9869     		ldr	r0, [r3, #24]
 763              	.LVL70:
 764              		.loc 1 430 0
 765 000a E368     		ldr	r3, [r4, #12]
 766 000c C363     		str	r3, [r0, #60]
 767              		.loc 1 433 0
 768 000e A542     		cmp	r5, r4
 769 0010 17D0     		beq	.L58
 770              	.LBB198:
 771              		.loc 1 438 0
 772 0012 016C     		ldr	r1, [r0, #64]
 773              	.LVL71:
 774              		.loc 1 440 0
 775 0014 4BB1     		cbz	r3, .L59
 776              	.L61:
 777              	.LVL72:
 778              	.LBB199:
 779              	.LBB200:
 780              	.LBB201:
 781              	.LBB202:
 782              		.loc 2 631 0
 783 0016 1A68     		ldr	r2, [r3]
 784              	.LVL73:
 785              	.LBE202:
 786              	.LBE201:
 787              	.LBE200:
 788              	.LBE199:
 789              		.loc 1 444 0
 790 0018 9342     		cmp	r3, r2
 791 001a 03D0     		beq	.L60
 792              		.loc 1 445 0 discriminator 1
 793 001c 9268     		ldr	r2, [r2, #8]
 794 001e 9142     		cmp	r1, r2
 795 0020 38BF     		it	cc
 796 0022 1146     		movcc	r1, r2
 797              	.LVL74:
 798              	.L60:
ARM GAS  /var/folders/m4/4md61f0s1_g0rzfghffqnxvr0000gn/T//cco5YJlY.s 			page 15


 799              		.loc 1 448 0
 800 0024 DB68     		ldr	r3, [r3, #12]
 801              	.LVL75:
 802              		.loc 1 440 0
 803 0026 002B     		cmp	r3, #0
 804 0028 F5D1     		bne	.L61
 805              	.L59:
 806              	.LBB203:
 807              	.LBB204:
 808              		.loc 2 674 0
 809 002a 2B68     		ldr	r3, [r5]
 810              	.LVL76:
 811              	.LBE204:
 812              	.LBE203:
 813              		.loc 1 462 0
 814 002c EA6B     		ldr	r2, [r5, #60]
 815              		.loc 1 453 0
 816 002e 8160     		str	r1, [r0, #8]
 817              	.LVL77:
 818              	.LBB207:
 819              	.LBB205:
 820              		.loc 2 674 0
 821 0030 2360     		str	r3, [r4]
 822              	.LBE205:
 823              	.LBE207:
 824              		.loc 1 464 0
 825 0032 2846     		mov	r0, r5
 826              	.LVL78:
 827              	.LBB208:
 828              	.LBB206:
 829              		.loc 2 675 0
 830 0034 5C60     		str	r4, [r3, #4]
 831              	.LVL79:
 832              	.LBE206:
 833              	.LBE208:
 834              		.loc 1 461 0
 835 0036 A560     		str	r5, [r4, #8]
 836              		.loc 1 462 0
 837 0038 E260     		str	r2, [r4, #12]
 838              		.loc 1 463 0
 839 003a EC63     		str	r4, [r5, #60]
 840              	.LBE198:
 841              		.loc 1 472 0
 842 003c 30BC     		pop	{r4, r5}
 843              		.cfi_remember_state
 844              		.cfi_restore 5
 845              		.cfi_restore 4
 846              		.cfi_def_cfa_offset 0
 847              	.LVL80:
 848              	.LBB209:
 849              		.loc 1 464 0
 850 003e FFF7FEBF 		b	chSchReadyI
 851              	.LVL81:
 852              	.L58:
 853              		.cfi_restore_state
 854              	.LBE209:
 855              		.loc 1 467 0
ARM GAS  /var/folders/m4/4md61f0s1_g0rzfghffqnxvr0000gn/T//cco5YJlY.s 			page 16


 856 0042 0023     		movs	r3, #0
 857 0044 AB60     		str	r3, [r5, #8]
 858              		.loc 1 472 0
 859 0046 30BC     		pop	{r4, r5}
 860              		.cfi_restore 5
 861              		.cfi_restore 4
 862              		.cfi_def_cfa_offset 0
 863              	.LVL82:
 864 0048 7047     		bx	lr
 865              	.L68:
 866 004a 00BF     		.align	2
 867              	.L67:
 868 004c 00000000 		.word	ch
 869              		.cfi_endproc
 870              	.LFE237:
 871              		.size	chMtxUnlockS, .-chMtxUnlockS
 872              		.section	.text.chMtxUnlockAll,"ax",%progbits
 873              		.align	2
 874              		.p2align 4,,15
 875              		.global	chMtxUnlockAll
 876              		.thumb
 877              		.thumb_func
 878              		.type	chMtxUnlockAll, %function
 879              	chMtxUnlockAll:
 880              	.LFB238:
 881              		.loc 1 485 0
 882              		.cfi_startproc
 883              		@ args = 0, pretend = 0, frame = 0
 884              		@ frame_needed = 0, uses_anonymous_args = 0
 885              		.loc 1 486 0
 886 0000 134A     		ldr	r2, .L81
 887              		.loc 1 485 0
 888 0002 70B5     		push	{r4, r5, r6, lr}
 889              		.cfi_def_cfa_offset 16
 890              		.cfi_offset 4, -16
 891              		.cfi_offset 5, -12
 892              		.cfi_offset 6, -8
 893              		.cfi_offset 14, -4
 894              	.LBB210:
 895              	.LBB211:
 896              	.LBB212:
 897              	.LBB213:
 898              		.loc 3 548 0
 899 0004 2023     		movs	r3, #32
 900              	.LBE213:
 901              	.LBE212:
 902              	.LBE211:
 903              	.LBE210:
 904              		.loc 1 486 0
 905 0006 9469     		ldr	r4, [r2, #24]
 906              	.LVL83:
 907              	.LBB217:
 908              	.LBB216:
 909              	.LBB215:
 910              	.LBB214:
 911              		.loc 3 548 0
 912              		.syntax unified
ARM GAS  /var/folders/m4/4md61f0s1_g0rzfghffqnxvr0000gn/T//cco5YJlY.s 			page 17


 913              	@ 548 "ChibiOS_16.1.4/os/ext/CMSIS/include/core_cmFunc.h" 1
 914 0008 83F31188 		MSR basepri, r3
 915              	@ 0 "" 2
 916              	.LVL84:
 917              		.thumb
 918              		.syntax unified
 919              	.LBE214:
 920              	.LBE215:
 921              	.LBE216:
 922              	.LBE217:
 923              		.loc 1 489 0
 924 000c E36B     		ldr	r3, [r4, #60]
 925 000e D3B1     		cbz	r3, .L70
 926              	.LBB218:
 927              		.loc 1 507 0
 928 0010 0026     		movs	r6, #0
 929 0012 0AE0     		b	.L73
 930              	.LVL85:
 931              	.L80:
 932              	.LBB219:
 933              	.LBB220:
 934              	.LBB221:
 935              		.loc 2 674 0
 936 0014 1168     		ldr	r1, [r2]
 937              	.LBE221:
 938              	.LBE220:
 939              		.loc 1 499 0
 940 0016 D56B     		ldr	r5, [r2, #60]
 941              	.LBB223:
 942              	.LBB222:
 943              		.loc 2 674 0
 944 0018 1960     		str	r1, [r3]
 945              		.loc 2 675 0
 946 001a 4B60     		str	r3, [r1, #4]
 947              	.LVL86:
 948              	.LBE222:
 949              	.LBE223:
 950              		.loc 1 498 0
 951 001c 9A60     		str	r2, [r3, #8]
 952              		.loc 1 499 0
 953 001e DD60     		str	r5, [r3, #12]
 954              		.loc 1 500 0
 955 0020 D363     		str	r3, [r2, #60]
 956              		.loc 1 501 0
 957 0022 FFF7FEFF 		bl	chSchReadyI
 958              	.LVL87:
 959              	.LBE219:
 960              	.LBE218:
 961              		.loc 1 509 0
 962 0026 E36B     		ldr	r3, [r4, #60]
 963 0028 4BB1     		cbz	r3, .L79
 964              	.L73:
 965              	.LVL88:
 966              	.LBB229:
 967              	.LBB224:
 968              	.LBB225:
 969              	.LBB226:
ARM GAS  /var/folders/m4/4md61f0s1_g0rzfghffqnxvr0000gn/T//cco5YJlY.s 			page 18


 970              	.LBB227:
 971              		.loc 2 631 0
 972 002a 1A68     		ldr	r2, [r3]
 973              	.LVL89:
 974              	.LBE227:
 975              	.LBE226:
 976              	.LBE225:
 977              	.LBE224:
 978              		.loc 1 492 0
 979 002c D968     		ldr	r1, [r3, #12]
 980 002e E163     		str	r1, [r4, #60]
 981              	.LVL90:
 982              		.loc 1 493 0
 983 0030 9342     		cmp	r3, r2
 984              	.LBB228:
 985              		.loc 1 501 0
 986 0032 1046     		mov	r0, r2
 987              	.LBE228:
 988              		.loc 1 493 0
 989 0034 EED1     		bne	.L80
 990              		.loc 1 507 0
 991 0036 9E60     		str	r6, [r3, #8]
 992              	.LBE229:
 993              		.loc 1 509 0
 994 0038 E36B     		ldr	r3, [r4, #60]
 995              	.LVL91:
 996 003a 002B     		cmp	r3, #0
 997 003c F5D1     		bne	.L73
 998              	.LVL92:
 999              	.L79:
 1000              		.loc 1 510 0
 1001 003e 236C     		ldr	r3, [r4, #64]
 1002 0040 A360     		str	r3, [r4, #8]
 1003              		.loc 1 511 0
 1004 0042 FFF7FEFF 		bl	chSchRescheduleS
 1005              	.LVL93:
 1006              	.L70:
 1007              	.LBB230:
 1008              	.LBB231:
 1009              	.LBB232:
 1010              	.LBB233:
 1011              	.LBB234:
 1012              		.loc 3 548 0
 1013 0046 0023     		movs	r3, #0
 1014              		.syntax unified
 1015              	@ 548 "ChibiOS_16.1.4/os/ext/CMSIS/include/core_cmFunc.h" 1
 1016 0048 83F31188 		MSR basepri, r3
 1017              	@ 0 "" 2
 1018              	.LVL94:
 1019              		.thumb
 1020              		.syntax unified
 1021 004c 70BD     		pop	{r4, r5, r6, pc}
 1022              	.LVL95:
 1023              	.L82:
 1024 004e 00BF     		.align	2
 1025              	.L81:
 1026 0050 00000000 		.word	ch
ARM GAS  /var/folders/m4/4md61f0s1_g0rzfghffqnxvr0000gn/T//cco5YJlY.s 			page 19


 1027              	.LBE234:
 1028              	.LBE233:
 1029              	.LBE232:
 1030              	.LBE231:
 1031              	.LBE230:
 1032              		.cfi_endproc
 1033              	.LFE238:
 1034              		.size	chMtxUnlockAll, .-chMtxUnlockAll
 1035              		.text
 1036              	.Letext0:
 1037              		.file 4 "/opt/homebrew-cask/Caskroom/gcc-arm-embedded/5_2-2015q4,20151219/gcc-arm-none-eabi-5_2-20
 1038              		.file 5 "/opt/homebrew-cask/Caskroom/gcc-arm-embedded/5_2-2015q4,20151219/gcc-arm-none-eabi-5_2-20
 1039              		.file 6 "ChibiOS_16.1.4/os/rt/ports/ARMCMx/compilers/GCC/chtypes.h"
 1040              		.file 7 "ChibiOS_16.1.4/os/rt/include/chsystypes.h"
 1041              		.file 8 "ChibiOS_16.1.4/os/rt/ports/ARMCMx/chcore.h"
 1042              		.file 9 "ChibiOS_16.1.4/os/rt/ports/ARMCMx/chcore_v7m.h"
 1043              		.file 10 "ChibiOS_16.1.4/os/rt/include/chtm.h"
 1044              		.file 11 "ChibiOS_16.1.4/os/rt/include/chsem.h"
 1045              		.file 12 "ChibiOS_16.1.4/os/rt/include/chmtx.h"
 1046              		.file 13 "ChibiOS_16.1.4/os/rt/include/chsys.h"
 1047              		.file 14 "ChibiOS_16.1.4/os/ext/CMSIS/include/core_cm4.h"