ARM GAS  /var/folders/m4/4md61f0s1_g0rzfghffqnxvr0000gn/T//cco5YJlY.s 			page 1


   1              		.syntax unified
   2              		.cpu cortex-m4
   3              		.eabi_attribute 27, 1
   4              		.eabi_attribute 28, 1
   5              		.fpu fpv4-sp-d16
   6              		.eabi_attribute 20, 1
   7              		.eabi_attribute 21, 1
   8              		.eabi_attribute 23, 3
   9              		.eabi_attribute 24, 1
  10              		.eabi_attribute 25, 1
  11              		.eabi_attribute 26, 1
  12              		.eabi_attribute 30, 2
  13              		.eabi_attribute 34, 1
  14              		.eabi_attribute 18, 4
  15              		.thumb
  16              		.syntax unified
  17              		.file	"chmtx.c"
  18              		.text
  19              	.Ltext0:
  20              		.cfi_sections	.debug_frame
  21              		.section	.text.chMtxObjectInit,"ax",%progbits
  22              		.align	2
  23              		.p2align 4,,15
  24              		.global	chMtxObjectInit
  25              		.thumb
  26              		.thumb_func
  27              		.type	chMtxObjectInit, %function
  28              	chMtxObjectInit:
  29              	.LFB231:
  30              		.file 1 "ChibiOS_16.1.4/os/rt/src/chmtx.c"
  31              		.loc 1 103 0
  32              		.cfi_startproc
  33              		@ args = 0, pretend = 0, frame = 0
  34              		@ frame_needed = 0, uses_anonymous_args = 0
  35              		@ link register save eliminated.
  36              	.LVL0:
  37              		.loc 1 108 0
  38 0000 0023     		movs	r3, #0
  39              	.LBB103:
  40              	.LBB104:
  41              		.file 2 "ChibiOS_16.1.4/os/rt/include/chschd.h"
  42              		.loc 2 604 0
  43 0002 0060     		str	r0, [r0]
  44              		.loc 2 605 0
  45 0004 4060     		str	r0, [r0, #4]
  46              	.LVL1:
  47              	.LBE104:
  48              	.LBE103:
  49              		.loc 1 108 0
  50 0006 8360     		str	r3, [r0, #8]
  51 0008 7047     		bx	lr
  52              		.cfi_endproc
  53              	.LFE231:
  54              		.size	chMtxObjectInit, .-chMtxObjectInit
  55 000a 00BF     		.section	.text.chMtxLockS,"ax",%progbits
  56              		.align	2
  57              		.p2align 4,,15
ARM GAS  /var/folders/m4/4md61f0s1_g0rzfghffqnxvr0000gn/T//cco5YJlY.s 			page 2


  58              		.global	chMtxLockS
  59              		.thumb
  60              		.thumb_func
  61              		.type	chMtxLockS, %function
  62              	chMtxLockS:
  63              	.LFB233:
  64              		.loc 1 139 0
  65              		.cfi_startproc
  66              		@ args = 0, pretend = 0, frame = 0
  67              		@ frame_needed = 0, uses_anonymous_args = 0
  68              	.LVL2:
  69              		.loc 1 140 0
  70 0000 304B     		ldr	r3, .L28
  71              		.loc 1 146 0
  72 0002 8268     		ldr	r2, [r0, #8]
  73              		.loc 1 139 0
  74 0004 70B5     		push	{r4, r5, r6, lr}
  75              		.cfi_def_cfa_offset 16
  76              		.cfi_offset 4, -16
  77              		.cfi_offset 5, -12
  78              		.cfi_offset 6, -8
  79              		.cfi_offset 14, -4
  80              		.loc 1 140 0
  81 0006 9C69     		ldr	r4, [r3, #24]
  82              	.LVL3:
  83              		.loc 1 146 0
  84 0008 002A     		cmp	r2, #0
  85 000a 55D0     		beq	.L3
  86              	.LBB105:
  87              		.loc 1 165 0
  88 000c A168     		ldr	r1, [r4, #8]
  89 000e 9368     		ldr	r3, [r2, #8]
  90 0010 8B42     		cmp	r3, r1
  91 0012 0546     		mov	r5, r0
  92              	.LVL4:
  93 0014 06D2     		bcs	.L5
  94              	.LVL5:
  95              	.L10:
  96              		.loc 1 170 0
  97 0016 137F     		ldrb	r3, [r2, #28]	@ zero_extendqisi2
  98              		.loc 1 167 0
  99 0018 9160     		str	r1, [r2, #8]
 100              		.loc 1 170 0
 101 001a 062B     		cmp	r3, #6
 102 001c 33D0     		beq	.L6
 103 001e 072B     		cmp	r3, #7
 104 0020 1DD0     		beq	.L7
 105 0022 9BB1     		cbz	r3, .L27
 106              	.LVL6:
 107              	.L5:
 108              	.LBB106:
 109              	.LBB107:
 110              		.loc 2 653 0
 111 0024 2B46     		mov	r3, r5
 112 0026 03E0     		b	.L18
 113              	.LVL7:
 114              	.L17:
ARM GAS  /var/folders/m4/4md61f0s1_g0rzfghffqnxvr0000gn/T//cco5YJlY.s 			page 3


 115              		.loc 2 656 0
 116 0028 9968     		ldr	r1, [r3, #8]
 117 002a A268     		ldr	r2, [r4, #8]
 118 002c 9142     		cmp	r1, r2
 119 002e 02D3     		bcc	.L19
 120              	.L18:
 121              		.loc 2 655 0
 122 0030 1B68     		ldr	r3, [r3]
 123              	.LVL8:
 124              		.loc 2 656 0
 125 0032 9D42     		cmp	r5, r3
 126 0034 F8D1     		bne	.L17
 127              	.L19:
 128              		.loc 2 658 0
 129 0036 5A68     		ldr	r2, [r3, #4]
 130 0038 6260     		str	r2, [r4, #4]
 131              		.loc 2 657 0
 132 003a 2360     		str	r3, [r4]
 133              		.loc 2 659 0
 134 003c 1460     		str	r4, [r2]
 135              		.loc 2 660 0
 136 003e 5C60     		str	r4, [r3, #4]
 137              	.LVL9:
 138              	.LBE107:
 139              	.LBE106:
 140              		.loc 1 213 0
 141 0040 6562     		str	r5, [r4, #36]
 142              		.loc 1 214 0
 143 0042 0620     		movs	r0, #6
 144              	.LBE105:
 145              		.loc 1 236 0
 146 0044 BDE87040 		pop	{r4, r5, r6, lr}
 147              		.cfi_remember_state
 148              		.cfi_restore 14
 149              		.cfi_restore 6
 150              		.cfi_restore 5
 151              		.cfi_restore 4
 152              		.cfi_def_cfa_offset 0
 153              	.LVL10:
 154              	.LBB120:
 155              		.loc 1 214 0
 156 0048 FFF7FEBF 		b	chSchGoSleepS
 157              	.LVL11:
 158              	.L27:
 159              		.cfi_restore_state
 160              	.LBB108:
 161              	.LBB109:
 162              		.loc 2 691 0
 163 004c 92E80A00 		ldmia	r2, {r1, r3}
 164 0050 1960     		str	r1, [r3]
 165              		.loc 2 692 0
 166 0052 1168     		ldr	r1, [r2]
 167              	.LBE109:
 168              	.LBE108:
 169              		.loc 1 202 0
 170 0054 1046     		mov	r0, r2
 171              	.LBB111:
ARM GAS  /var/folders/m4/4md61f0s1_g0rzfghffqnxvr0000gn/T//cco5YJlY.s 			page 4


 172              	.LBB110:
 173              		.loc 2 692 0
 174 0056 4B60     		str	r3, [r1, #4]
 175              	.LVL12:
 176              	.LBE110:
 177              	.LBE111:
 178              		.loc 1 202 0
 179 0058 FFF7FEFF 		bl	chSchReadyI
 180              	.LVL13:
 181              		.loc 1 203 0
 182 005c E2E7     		b	.L5
 183              	.LVL14:
 184              	.L7:
 185              	.LBB112:
 186              	.LBB113:
 187              		.loc 2 691 0
 188 005e 92E80900 		ldmia	r2, {r0, r3}
 189 0062 1860     		str	r0, [r3]
 190              		.loc 2 692 0
 191 0064 1068     		ldr	r0, [r2]
 192 0066 4360     		str	r3, [r0, #4]
 193              	.LVL15:
 194              	.LBE113:
 195              	.LBE112:
 196              		.loc 1 193 0
 197 0068 566A     		ldr	r6, [r2, #36]
 198              	.LVL16:
 199              	.LBB114:
 200              	.LBB115:
 201              		.loc 2 653 0
 202 006a 3346     		mov	r3, r6
 203 006c 02E0     		b	.L15
 204              	.LVL17:
 205              	.L14:
 206              		.loc 2 656 0
 207 006e 9868     		ldr	r0, [r3, #8]
 208 0070 8842     		cmp	r0, r1
 209 0072 02D3     		bcc	.L16
 210              	.LVL18:
 211              	.L15:
 212              		.loc 2 655 0
 213 0074 1B68     		ldr	r3, [r3]
 214              	.LVL19:
 215              		.loc 2 656 0
 216 0076 9E42     		cmp	r6, r3
 217 0078 F9D1     		bne	.L14
 218              	.L16:
 219              		.loc 2 658 0
 220 007a 5968     		ldr	r1, [r3, #4]
 221 007c 5160     		str	r1, [r2, #4]
 222              		.loc 2 657 0
 223 007e 1360     		str	r3, [r2]
 224              		.loc 2 659 0
 225 0080 0A60     		str	r2, [r1]
 226              		.loc 2 660 0
 227 0082 5A60     		str	r2, [r3, #4]
 228 0084 CEE7     		b	.L5
ARM GAS  /var/folders/m4/4md61f0s1_g0rzfghffqnxvr0000gn/T//cco5YJlY.s 			page 5


 229              	.LVL20:
 230              	.L6:
 231              	.LBE115:
 232              	.LBE114:
 233              	.LBB116:
 234              	.LBB117:
 235              		.loc 2 691 0
 236 0086 92E80900 		ldmia	r2, {r0, r3}
 237 008a 1860     		str	r0, [r3]
 238              		.loc 2 692 0
 239 008c 1068     		ldr	r0, [r2]
 240 008e 4360     		str	r3, [r0, #4]
 241              	.LVL21:
 242              	.LBE117:
 243              	.LBE116:
 244              		.loc 1 173 0
 245 0090 566A     		ldr	r6, [r2, #36]
 246              	.LVL22:
 247              	.LBB118:
 248              	.LBB119:
 249              		.loc 2 653 0
 250 0092 3346     		mov	r3, r6
 251 0094 02E0     		b	.L12
 252              	.LVL23:
 253              	.L9:
 254              		.loc 2 656 0
 255 0096 9868     		ldr	r0, [r3, #8]
 256 0098 8842     		cmp	r0, r1
 257 009a 02D3     		bcc	.L13
 258              	.LVL24:
 259              	.L12:
 260              		.loc 2 655 0
 261 009c 1B68     		ldr	r3, [r3]
 262              	.LVL25:
 263              		.loc 2 656 0
 264 009e 9E42     		cmp	r6, r3
 265 00a0 F9D1     		bne	.L9
 266              	.L13:
 267              		.loc 2 658 0
 268 00a2 5968     		ldr	r1, [r3, #4]
 269 00a4 5160     		str	r1, [r2, #4]
 270              		.loc 2 657 0
 271 00a6 1360     		str	r3, [r2]
 272              		.loc 2 659 0
 273 00a8 0A60     		str	r2, [r1]
 274              		.loc 2 660 0
 275 00aa 5A60     		str	r2, [r3, #4]
 276              	.LVL26:
 277              	.LBE119:
 278              	.LBE118:
 279              		.loc 1 174 0
 280 00ac B268     		ldr	r2, [r6, #8]
 281              	.LVL27:
 282              		.loc 1 165 0
 283 00ae A168     		ldr	r1, [r4, #8]
 284 00b0 9368     		ldr	r3, [r2, #8]
 285              	.LVL28:
ARM GAS  /var/folders/m4/4md61f0s1_g0rzfghffqnxvr0000gn/T//cco5YJlY.s 			page 6


 286 00b2 8B42     		cmp	r3, r1
 287 00b4 AFD3     		bcc	.L10
 288 00b6 B5E7     		b	.L5
 289              	.LVL29:
 290              	.L3:
 291              	.LBE120:
 292              		.loc 1 233 0
 293 00b8 E36B     		ldr	r3, [r4, #60]
 294 00ba C360     		str	r3, [r0, #12]
 295              		.loc 1 232 0
 296 00bc 8460     		str	r4, [r0, #8]
 297              		.loc 1 234 0
 298 00be E063     		str	r0, [r4, #60]
 299 00c0 70BD     		pop	{r4, r5, r6, pc}
 300              	.LVL30:
 301              	.L29:
 302 00c2 00BF     		.align	2
 303              	.L28:
 304 00c4 00000000 		.word	ch
 305              		.cfi_endproc
 306              	.LFE233:
 307              		.size	chMtxLockS, .-chMtxLockS
 308              		.section	.text.chMtxLock,"ax",%progbits
 309              		.align	2
 310              		.p2align 4,,15
 311              		.global	chMtxLock
 312              		.thumb
 313              		.thumb_func
 314              		.type	chMtxLock, %function
 315              	chMtxLock:
 316              	.LFB232:
 317              		.loc 1 123 0
 318              		.cfi_startproc
 319              		@ args = 0, pretend = 0, frame = 0
 320              		@ frame_needed = 0, uses_anonymous_args = 0
 321              	.LVL31:
 322 0000 08B5     		push	{r3, lr}
 323              		.cfi_def_cfa_offset 8
 324              		.cfi_offset 3, -8
 325              		.cfi_offset 14, -4
 326              	.LBB121:
 327              	.LBB122:
 328              	.LBB123:
 329              	.LBB124:
 330              		.file 3 "ChibiOS_16.1.4/os/ext/CMSIS/include/core_cmFunc.h"
 331              		.loc 3 548 0
 332 0002 2023     		movs	r3, #32
 333              		.syntax unified
 334              	@ 548 "ChibiOS_16.1.4/os/ext/CMSIS/include/core_cmFunc.h" 1
 335 0004 83F31188 		MSR basepri, r3
 336              	@ 0 "" 2
 337              	.LVL32:
 338              		.thumb
 339              		.syntax unified
 340              	.LBE124:
 341              	.LBE123:
 342              	.LBE122:
ARM GAS  /var/folders/m4/4md61f0s1_g0rzfghffqnxvr0000gn/T//cco5YJlY.s 			page 7


 343              	.LBE121:
 344              		.loc 1 126 0
 345 0008 FFF7FEFF 		bl	chMtxLockS
 346              	.LVL33:
 347              	.LBB125:
 348              	.LBB126:
 349              	.LBB127:
 350              	.LBB128:
 351              	.LBB129:
 352              		.loc 3 548 0
 353 000c 0023     		movs	r3, #0
 354              		.syntax unified
 355              	@ 548 "ChibiOS_16.1.4/os/ext/CMSIS/include/core_cmFunc.h" 1
 356 000e 83F31188 		MSR basepri, r3
 357              	@ 0 "" 2
 358              	.LVL34:
 359              		.thumb
 360              		.syntax unified
 361 0012 08BD     		pop	{r3, pc}
 362              	.LBE129:
 363              	.LBE128:
 364              	.LBE127:
 365              	.LBE126:
 366              	.LBE125:
 367              		.cfi_endproc
 368              	.LFE232:
 369              		.size	chMtxLock, .-chMtxLock
 370              		.section	.text.chMtxTryLock,"ax",%progbits
 371              		.align	2
 372              		.p2align 4,,15
 373              		.global	chMtxTryLock
 374              		.thumb
 375              		.thumb_func
 376              		.type	chMtxTryLock, %function
 377              	chMtxTryLock:
 378              	.LFB234:
 379              		.loc 1 255 0
 380              		.cfi_startproc
 381              		@ args = 0, pretend = 0, frame = 0
 382              		@ frame_needed = 0, uses_anonymous_args = 0
 383              		@ link register save eliminated.
 384              	.LVL35:
 385              		.loc 1 255 0
 386 0000 0346     		mov	r3, r0
 387              	.LBB143:
 388              	.LBB144:
 389              	.LBB145:
 390              	.LBB146:
 391              		.loc 3 548 0
 392 0002 2022     		movs	r2, #32
 393              		.syntax unified
 394              	@ 548 "ChibiOS_16.1.4/os/ext/CMSIS/include/core_cmFunc.h" 1
 395 0004 82F31188 		MSR basepri, r2
 396              	@ 0 "" 2
 397              	.LVL36:
 398              		.thumb
 399              		.syntax unified
ARM GAS  /var/folders/m4/4md61f0s1_g0rzfghffqnxvr0000gn/T//cco5YJlY.s 			page 8


 400              	.LBE146:
 401              	.LBE145:
 402              	.LBE144:
 403              	.LBE143:
 404              	.LBB147:
 405              	.LBB148:
 406              		.loc 1 287 0
 407 0008 8268     		ldr	r2, [r0, #8]
 408              		.loc 1 297 0
 409 000a 0020     		movs	r0, #0
 410              	.LVL37:
 411              		.loc 1 287 0
 412 000c 1AB1     		cbz	r2, .L35
 413              	.LVL38:
 414              	.LBE148:
 415              	.LBE147:
 416              	.LBB152:
 417              	.LBB153:
 418              	.LBB154:
 419              	.LBB155:
 420              	.LBB156:
 421              		.loc 3 548 0
 422 000e 0023     		movs	r3, #0
 423              	.LVL39:
 424              		.syntax unified
 425              	@ 548 "ChibiOS_16.1.4/os/ext/CMSIS/include/core_cmFunc.h" 1
 426 0010 83F31188 		MSR basepri, r3
 427              	@ 0 "" 2
 428              	.LVL40:
 429              		.thumb
 430              		.syntax unified
 431              	.LBE156:
 432              	.LBE155:
 433              	.LBE154:
 434              	.LBE153:
 435              	.LBE152:
 436              		.loc 1 263 0
 437 0014 7047     		bx	lr
 438              	.LVL41:
 439              	.L35:
 440              	.LBB161:
 441              	.LBB151:
 442              	.LBB149:
 443              	.LBB150:
 444              		.loc 1 305 0
 445 0016 054A     		ldr	r2, .L36
 446 0018 9269     		ldr	r2, [r2, #24]
 447 001a 9A60     		str	r2, [r3, #8]
 448              		.loc 1 306 0
 449 001c D16B     		ldr	r1, [r2, #60]
 450 001e D960     		str	r1, [r3, #12]
 451              		.loc 1 307 0
 452 0020 0120     		movs	r0, #1
 453 0022 D363     		str	r3, [r2, #60]
 454              	.LVL42:
 455              	.LBE150:
 456              	.LBE149:
ARM GAS  /var/folders/m4/4md61f0s1_g0rzfghffqnxvr0000gn/T//cco5YJlY.s 			page 9


 457              	.LBE151:
 458              	.LBE161:
 459              	.LBB162:
 460              	.LBB160:
 461              	.LBB159:
 462              	.LBB158:
 463              	.LBB157:
 464              		.loc 3 548 0
 465 0024 0023     		movs	r3, #0
 466              	.LVL43:
 467              		.syntax unified
 468              	@ 548 "ChibiOS_16.1.4/os/ext/CMSIS/include/core_cmFunc.h" 1
 469 0026 83F31188 		MSR basepri, r3
 470              	@ 0 "" 2
 471              	.LVL44:
 472              		.thumb
 473              		.syntax unified
 474              	.LBE157:
 475              	.LBE158:
 476              	.LBE159:
 477              	.LBE160:
 478              	.LBE162:
 479              		.loc 1 263 0
 480 002a 7047     		bx	lr
 481              	.L37:
 482              		.align	2
 483              	.L36:
 484 002c 00000000 		.word	ch
 485              		.cfi_endproc
 486              	.LFE234:
 487              		.size	chMtxTryLock, .-chMtxTryLock
 488              		.section	.text.chMtxTryLockS,"ax",%progbits
 489              		.align	2
 490              		.p2align 4,,15
 491              		.global	chMtxTryLockS
 492              		.thumb
 493              		.thumb_func
 494              		.type	chMtxTryLockS, %function
 495              	chMtxTryLockS:
 496              	.LFB235:
 497              		.loc 1 282 0
 498              		.cfi_startproc
 499              		@ args = 0, pretend = 0, frame = 0
 500              		@ frame_needed = 0, uses_anonymous_args = 0
 501              		@ link register save eliminated.
 502              	.LVL45:
 503              		.loc 1 287 0
 504 0000 8268     		ldr	r2, [r0, #8]
 505              		.loc 1 282 0
 506 0002 0346     		mov	r3, r0
 507              		.loc 1 287 0
 508 0004 0AB1     		cbz	r2, .L41
 509              		.loc 1 297 0
 510 0006 0020     		movs	r0, #0
 511              	.LVL46:
 512              		.loc 1 309 0
 513 0008 7047     		bx	lr
ARM GAS  /var/folders/m4/4md61f0s1_g0rzfghffqnxvr0000gn/T//cco5YJlY.s 			page 10


 514              	.LVL47:
 515              	.L41:
 516              	.LBB165:
 517              	.LBB166:
 518              		.loc 1 305 0
 519 000a 044A     		ldr	r2, .L42
 520 000c 9269     		ldr	r2, [r2, #24]
 521 000e 8260     		str	r2, [r0, #8]
 522              		.loc 1 306 0
 523 0010 D16B     		ldr	r1, [r2, #60]
 524 0012 C160     		str	r1, [r0, #12]
 525              		.loc 1 307 0
 526 0014 0120     		movs	r0, #1
 527              	.LVL48:
 528 0016 D363     		str	r3, [r2, #60]
 529              	.LVL49:
 530 0018 7047     		bx	lr
 531              	.L43:
 532 001a 00BF     		.align	2
 533              	.L42:
 534 001c 00000000 		.word	ch
 535              	.LBE166:
 536              	.LBE165:
 537              		.cfi_endproc
 538              	.LFE235:
 539              		.size	chMtxTryLockS, .-chMtxTryLockS
 540              		.section	.text.chMtxUnlock,"ax",%progbits
 541              		.align	2
 542              		.p2align 4,,15
 543              		.global	chMtxUnlock
 544              		.thumb
 545              		.thumb_func
 546              		.type	chMtxUnlock, %function
 547              	chMtxUnlock:
 548              	.LFB236:
 549              		.loc 1 323 0
 550              		.cfi_startproc
 551              		@ args = 0, pretend = 0, frame = 0
 552              		@ frame_needed = 0, uses_anonymous_args = 0
 553              	.LVL50:
 554              		.loc 1 324 0
 555 0000 174B     		ldr	r3, .L55
 556              		.loc 1 323 0
 557 0002 70B5     		push	{r4, r5, r6, lr}
 558              		.cfi_def_cfa_offset 16
 559              		.cfi_offset 4, -16
 560              		.cfi_offset 5, -12
 561              		.cfi_offset 6, -8
 562              		.cfi_offset 14, -4
 563              		.loc 1 324 0
 564 0004 9D69     		ldr	r5, [r3, #24]
 565              	.LVL51:
 566              	.LBB167:
 567              	.LBB168:
 568              	.LBB169:
 569              	.LBB170:
 570              		.loc 3 548 0
ARM GAS  /var/folders/m4/4md61f0s1_g0rzfghffqnxvr0000gn/T//cco5YJlY.s 			page 11


 571 0006 2023     		movs	r3, #32
 572              		.syntax unified
 573              	@ 548 "ChibiOS_16.1.4/os/ext/CMSIS/include/core_cmFunc.h" 1
 574 0008 83F31188 		MSR basepri, r3
 575              	@ 0 "" 2
 576              	.LVL52:
 577              		.thumb
 578              		.syntax unified
 579              	.LBE170:
 580              	.LBE169:
 581              	.LBE168:
 582              	.LBE167:
 583              	.LBB171:
 584              	.LBB172:
 585              	.LBB173:
 586              	.LBB174:
 587              		.loc 2 631 0
 588 000c 0468     		ldr	r4, [r0]
 589              	.LBE174:
 590              	.LBE173:
 591              	.LBE172:
 592              	.LBE171:
 593              		.loc 1 344 0
 594 000e C368     		ldr	r3, [r0, #12]
 595 0010 EB63     		str	r3, [r5, #60]
 596              		.loc 1 347 0
 597 0012 8442     		cmp	r4, r0
 598 0014 1DD0     		beq	.L45
 599              	.LBB175:
 600              		.loc 1 352 0
 601 0016 296C     		ldr	r1, [r5, #64]
 602              	.LVL53:
 603              		.loc 1 354 0
 604 0018 4BB1     		cbz	r3, .L46
 605              	.L48:
 606              	.LVL54:
 607              	.LBB176:
 608              	.LBB177:
 609              	.LBB178:
 610              	.LBB179:
 611              		.loc 2 631 0
 612 001a 1A68     		ldr	r2, [r3]
 613              	.LVL55:
 614              	.LBE179:
 615              	.LBE178:
 616              	.LBE177:
 617              	.LBE176:
 618              		.loc 1 358 0
 619 001c 9342     		cmp	r3, r2
 620 001e 03D0     		beq	.L47
 621              		.loc 1 359 0 discriminator 1
 622 0020 9268     		ldr	r2, [r2, #8]
 623 0022 9142     		cmp	r1, r2
 624 0024 38BF     		it	cc
 625 0026 1146     		movcc	r1, r2
 626              	.LVL56:
 627              	.L47:
ARM GAS  /var/folders/m4/4md61f0s1_g0rzfghffqnxvr0000gn/T//cco5YJlY.s 			page 12


 628              		.loc 1 362 0
 629 0028 DB68     		ldr	r3, [r3, #12]
 630              	.LVL57:
 631              		.loc 1 354 0
 632 002a 002B     		cmp	r3, #0
 633 002c F5D1     		bne	.L48
 634              	.L46:
 635 002e 0346     		mov	r3, r0
 636              	.LVL58:
 637              	.LBB180:
 638              	.LBB181:
 639              		.loc 2 674 0
 640 0030 2268     		ldr	r2, [r4]
 641              	.LBE181:
 642              	.LBE180:
 643              		.loc 1 376 0
 644 0032 E66B     		ldr	r6, [r4, #60]
 645              		.loc 1 367 0
 646 0034 A960     		str	r1, [r5, #8]
 647              	.LVL59:
 648              		.loc 1 383 0
 649 0036 2046     		mov	r0, r4
 650              	.LVL60:
 651              	.LBB183:
 652              	.LBB182:
 653              		.loc 2 674 0
 654 0038 1A60     		str	r2, [r3]
 655              		.loc 2 675 0
 656 003a 5360     		str	r3, [r2, #4]
 657              	.LVL61:
 658              	.LBE182:
 659              	.LBE183:
 660              		.loc 1 375 0
 661 003c 9C60     		str	r4, [r3, #8]
 662              		.loc 1 376 0
 663 003e DE60     		str	r6, [r3, #12]
 664              		.loc 1 377 0
 665 0040 E363     		str	r3, [r4, #60]
 666              		.loc 1 383 0
 667 0042 FFF7FEFF 		bl	chSchReadyI
 668              	.LVL62:
 669              		.loc 1 384 0
 670 0046 FFF7FEFF 		bl	chSchRescheduleS
 671              	.LVL63:
 672              	.LBE175:
 673              	.LBB184:
 674              	.LBB185:
 675              	.LBB186:
 676              	.LBB187:
 677              	.LBB188:
 678              		.loc 3 548 0
 679 004a 0023     		movs	r3, #0
 680              		.syntax unified
 681              	@ 548 "ChibiOS_16.1.4/os/ext/CMSIS/include/core_cmFunc.h" 1
 682 004c 83F31188 		MSR basepri, r3
 683              	@ 0 "" 2
 684              	.LVL64:
ARM GAS  /var/folders/m4/4md61f0s1_g0rzfghffqnxvr0000gn/T//cco5YJlY.s 			page 13


 685              		.thumb
 686              		.syntax unified
 687 0050 70BD     		pop	{r4, r5, r6, pc}
 688              	.LVL65:
 689              	.L45:
 690              	.LBE188:
 691              	.LBE187:
 692              	.LBE186:
 693              	.LBE185:
 694              	.LBE184:
 695              		.loc 1 387 0
 696 0052 0023     		movs	r3, #0
 697 0054 A360     		str	r3, [r4, #8]
 698              	.LVL66:
 699              	.LBB193:
 700              	.LBB192:
 701              	.LBB191:
 702              	.LBB190:
 703              	.LBB189:
 704              		.loc 3 548 0
 705 0056 0023     		movs	r3, #0
 706              		.syntax unified
 707              	@ 548 "ChibiOS_16.1.4/os/ext/CMSIS/include/core_cmFunc.h" 1
 708 0058 83F31188 		MSR basepri, r3
 709              	@ 0 "" 2
 710              	.LVL67:
 711              		.thumb
 712              		.syntax unified
 713 005c 70BD     		pop	{r4, r5, r6, pc}
 714              	.LVL68:
 715              	.L56:
 716 005e 00BF     		.align	2
 717              	.L55:
 718 0060 00000000 		.word	ch
 719              	.LBE189:
 720              	.LBE190:
 721              	.LBE191:
 722              	.LBE192:
 723              	.LBE193:
 724              		.cfi_endproc
 725              	.LFE236:
 726              		.size	chMtxUnlock, .-chMtxUnlock
 727              		.section	.text.chMtxUnlockS,"ax",%progbits
 728              		.align	2
 729              		.p2align 4,,15
 730              		.global	chMtxUnlockS
 731              		.thumb
 732              		.thumb_func
 733              		.type	chMtxUnlockS, %function
 734              	chMtxUnlockS:
 735              	.LFB237:
 736              		.loc 1 410 0
 737              		.cfi_startproc
 738              		@ args = 0, pretend = 0, frame = 0
 739              		@ frame_needed = 0, uses_anonymous_args = 0
 740              		@ link register save eliminated.
 741              	.LVL69:
ARM GAS  /var/folders/m4/4md61f0s1_g0rzfghffqnxvr0000gn/T//cco5YJlY.s 			page 14


 742              		.loc 1 411 0
 743 0000 124B     		ldr	r3, .L67
 744              		.loc 1 410 0
 745 0002 30B4     		push	{r4, r5}
 746              		.cfi_def_cfa_offset 8
 747              		.cfi_offset 4, -8
 748              		.cfi_offset 5, -4
 749              		.loc 1 410 0
 750 0004 0446     		mov	r4, r0
 751              	.LBB194:
 752              	.LBB195:
 753              	.LBB196:
 754              	.LBB197:
 755              		.loc 2 631 0
 756 0006 0568     		ldr	r5, [r0]
 757              	.LBE197:
 758              	.LBE196:
 759              	.LBE195:
 760              	.LBE194:
 761              		.loc 1 411 0
 762 0008 9869     		ldr	r0, [r3, #24]
 763              	.LVL70:
 764              		.loc 1 430 0
 765 000a E368     		ldr	r3, [r4, #12]
 766 000c C363     		str	r3, [r0, #60]
 767              		.loc 1 433 0
 768 000e A542     		cmp	r5, r4
 769 0010 17D0     		beq	.L58
 770              	.LBB198:
 771              		.loc 1 438 0
 772 0012 016C     		ldr	r1, [r0, #64]
 773              	.LVL71:
 774              		.loc 1 440 0
 775 0014 4BB1     		cbz	r3, .L59
 776              	.L61:
 777              	.LVL72:
 778              	.LBB199:
 779              	.LBB200:
 780              	.LBB201:
 781              	.LBB202:
 782              		.loc 2 631 0
 783 0016 1A68     		ldr	r2, [r3]
 784              	.LVL73:
 785              	.LBE202:
 786              	.LBE201:
 787              	.LBE200:
 788              	.LBE199:
 789              		.loc 1 444 0
 790 0018 9342     		cmp	r3, r2
 791 001a 03D0     		beq	.L60
 792              		.loc 1 445 0 discriminator 1
 793 001c 9268     		ldr	r2, [r2, #8]
 794 001e 9142     		cmp	r1, r2
 795 0020 38BF     		it	cc
 796 0022 1146     		movcc	r1, r2
 797              	.LVL74:
 798              	.L60:
ARM GAS  /var/folders/m4/4md61f0s1_g0rzfghffqnxvr0000gn/T//cco5YJlY.s 			page 15


 799              		.loc 1 448 0
 800 0024 DB68     		ldr	r3, [r3, #12]
 801              	.LVL75:
 802              		.loc 1 440 0
 803 0026 002B     		cmp	r3, #0
 804 0028 F5D1     		bne	.L61
 805              	.L59:
 806              	.LBB203:
 807              	.LBB204:
 808              		.loc 2 674 0
 809 002a 2B68     		ldr	r3, [r5]
 810              	.LVL76:
 811              	.LBE204:
 812              	.LBE203:
 813              		.loc 1 462 0
 814 002c EA6B     		ldr	r2, [r5, #60]
 815              		.loc 1 453 0
 816 002e 8160     		str	r1, [r0, #8]
 817              	.LVL77:
 818              	.LBB207:
 819              	.LBB205:
 820              		.loc 2 674 0
 821 0030 2360     		str	r3, [r4]
 822              	.LBE205:
 823              	.LBE207:
 824              		.loc 1 464 0
 825 0032 2846     		mov	r0, r5
 826              	.LVL78:
 827              	.LBB208:
 828              	.LBB206:
 829              		.loc 2 675 0
 830 0034 5C60     		str	r4, [r3, #4]
 831              	.LVL79:
 832              	.LBE206:
 833              	.LBE208:
 834              		.loc 1 461 0
 835 0036 A560     		str	r5, [r4, #8]
 836              		.loc 1 462 0
 837 0038 E260     		str	r2, [r4, #12]
 838              		.loc 1 463 0
 839 003a EC63     		str	r4, [r5, #60]
 840              	.LBE198:
 841              		.loc 1 472 0
 842 003c 30BC     		pop	{r4, r5}
 843              		.cfi_remember_state
 844              		.cfi_restore 5
 845              		.cfi_restore 4
 846              		.cfi_def_cfa_offset 0
 847              	.LVL80:
 848              	.LBB209:
 849              		.loc 1 464 0
 850 003e FFF7FEBF 		b	chSchReadyI
 851              	.LVL81:
 852              	.L58:
 853              		.cfi_restore_state
 854              	.LBE209:
 855              		.loc 1 467 0
ARM GAS  /var/folders/m4/4md61f0s1_g0rzfghffqnxvr0000gn/T//cco5YJlY.s 			page 16


 856 0042 0023     		movs	r3, #0
 857 0044 AB60     		str	r3, [r5, #8]
 858              		.loc 1 472 0
 859 0046 30BC     		pop	{r4, r5}
 860              		.cfi_restore 5
 861              		.cfi_restore 4
 862              		.cfi_def_cfa_offset 0
 863              	.LVL82:
 864 0048 7047     		bx	lr
 865              	.L68:
 866 004a 00BF     		.align	2
 867              	.L67:
 868 004c 00000000 		.word	ch
 869              		.cfi_endproc
 870              	.LFE237:
 871              		.size	chMtxUnlockS, .-chMtxUnlockS
 872              		.section	.text.chMtxUnlockAll,"ax",%progbits
 873              		.align	2
 874              		.p2align 4,,15
 875              		.global	chMtxUnlockAll
 876              		.thumb
 877              		.thumb_func
 878              		.type	chMtxUnlockAll, %function
 879              	chMtxUnlockAll:
 880              	.LFB238:
 881              		.loc 1 485 0
 882              		.cfi_startproc
 883              		@ args = 0, pretend = 0, frame = 0
 884              		@ frame_needed = 0, uses_anonymous_args = 0
 885              		.loc 1 486 0
 886 0000 134A     		ldr	r2, .L81
 887              		.loc 1 485 0
 888 0002 70B5     		push	{r4, r5, r6, lr}
 889              		.cfi_def_cfa_offset 16
 890              		.cfi_offset 4, -16
 891              		.cfi_offset 5, -12
 892              		.cfi_offset 6, -8
 893              		.cfi_offset 14, -4
 894              	.LBB210:
 895              	.LBB211:
 896              	.LBB212:
 897              	.LBB213:
 898              		.loc 3 548 0
 899 0004 2023     		movs	r3, #32
 900              	.LBE213:
 901              	.LBE212:
 902              	.LBE211:
 903              	.LBE210:
 904              		.loc 1 486 0
 905 0006 9469     		ldr	r4, [r2, #24]
 906              	.LVL83:
 907              	.LBB217:
 908              	.LBB216:
 909              	.LBB215:
 910              	.LBB214:
 911              		.loc 3 548 0
 912              		.syntax unified
ARM GAS  /var/folders/m4/4md61f0s1_g0rzfghffqnxvr0000gn/T//cco5YJlY.s 			page 17


 913              	@ 548 "ChibiOS_16.1.4/os/ext/CMSIS/include/core_cmFunc.h" 1
 914 0008 83F31188 		MSR basepri, r3
 915              	@ 0 "" 2
 916              	.LVL84:
 917              		.thumb
 918              		.syntax unified
 919              	.LBE214:
 920              	.LBE215:
 921              	.LBE216:
 922              	.LBE217:
 923              		.loc 1 489 0
 924 000c E36B     		ldr	r3, [r4, #60]
 925 000e D3B1     		cbz	r3, .L70
 926              	.LBB218:
 927              		.loc 1 507 0
 928 0010 0026     		movs	r6, #0
 929 0012 0AE0     		b	.L73
 930              	.LVL85:
 931              	.L80:
 932              	.LBB219:
 933              	.LBB220:
 934              	.LBB221:
 935              		.loc 2 674 0
 936 0014 1168     		ldr	r1, [r2]
 937              	.LBE221:
 938              	.LBE220:
 939              		.loc 1 499 0
 940 0016 D56B     		ldr	r5, [r2, #60]
 941              	.LBB223:
 942              	.LBB222:
 943              		.loc 2 674 0
 944 0018 1960     		str	r1, [r3]
 945              		.loc 2 675 0
 946 001a 4B60     		str	r3, [r1, #4]
 947              	.LVL86:
 948              	.LBE222:
 949              	.LBE223:
 950              		.loc 1 498 0
 951 001c 9A60     		str	r2, [r3, #8]
 952              		.loc 1 499 0
 953 001e DD60     		str	r5, [r3, #12]
 954              		.loc 1 500 0
 955 0020 D363     		str	r3, [r2, #60]
 956              		.loc 1 501 0
 957 0022 FFF7FEFF 		bl	chSchReadyI
 958              	.LVL87:
 959              	.LBE219:
 960              	.LBE218:
 961              		.loc 1 509 0
 962 0026 E36B     		ldr	r3, [r4, #60]
 963 0028 4BB1     		cbz	r3, .L79
 964              	.L73:
 965              	.LVL88:
 966              	.LBB229:
 967              	.LBB224:
 968              	.LBB225:
 969              	.LBB226:
ARM GAS  /var/folders/m4/4md61f0s1_g0rzfghffqnxvr0000gn/T//cco5YJlY.s 			page 18


 970              	.LBB227:
 971              		.loc 2 631 0
 972 002a 1A68     		ldr	r2, [r3]
 973              	.LVL89:
 974              	.LBE227:
 975              	.LBE226:
 976              	.LBE225:
 977              	.LBE224:
 978              		.loc 1 492 0
 979 002c D968     		ldr	r1, [r3, #12]
 980 002e E163     		str	r1, [r4, #60]
 981              	.LVL90:
 982              		.loc 1 493 0
 983 0030 9342     		cmp	r3, r2
 984              	.LBB228:
 985              		.loc 1 501 0
 986 0032 1046     		mov	r0, r2
 987              	.LBE228:
 988              		.loc 1 493 0
 989 0034 EED1     		bne	.L80
 990              		.loc 1 507 0
 991 0036 9E60     		str	r6, [r3, #8]
 992              	.LBE229:
 993              		.loc 1 509 0
 994 0038 E36B     		ldr	r3, [r4, #60]
 995              	.LVL91:
 996 003a 002B     		cmp	r3, #0
 997 003c F5D1     		bne	.L73
 998              	.LVL92:
 999              	.L79:
 1000              		.loc 1 510 0
 1001 003e 236C     		ldr	r3, [r4, #64]
 1002 0040 A360     		str	r3, [r4, #8]
 1003              		.loc 1 511 0
 1004 0042 FFF7FEFF 		bl	chSchRescheduleS
 1005              	.LVL93:
 1006              	.L70:
 1007              	.LBB230:
 1008              	.LBB231:
 1009              	.LBB232:
 1010              	.LBB233:
 1011              	.LBB234:
 1012              		.loc 3 548 0
 1013 0046 0023     		movs	r3, #0
 1014              		.syntax unified
 1015              	@ 548 "ChibiOS_16.1.4/os/ext/CMSIS/include/core_cmFunc.h" 1
 1016 0048 83F31188 		MSR basepri, r3
 1017              	@ 0 "" 2
 1018              	.LVL94:
 1019              		.thumb
 1020              		.syntax unified
 1021 004c 70BD     		pop	{r4, r5, r6, pc}
 1022              	.LVL95:
 1023              	.L82:
 1024 004e 00BF     		.align	2
 1025              	.L81:
 1026 0050 00000000 		.word	ch
ARM GAS  /var/folders/m4/4md61f0s1_g0rzfghffqnxvr0000gn/T//cco5YJlY.s 			page 19


 1027              	.LBE234:
 1028              	.LBE233:
 1029              	.LBE232:
 1030              	.LBE231:
 1031              	.LBE230:
 1032              		.cfi_endproc
 1033              	.LFE238:
 1034              		.size	chMtxUnlockAll, .-chMtxUnlockAll
 1035              		.text
 1036              	.Letext0:
 1037              		.file 4 "/opt/homebrew-cask/Caskroom/gcc-arm-embedded/5_2-2015q4,20151219/gcc-arm-none-eabi-5_2-20
 1038              		.file 5 "/opt/homebrew-cask/Caskroom/gcc-arm-embedded/5_2-2015q4,20151219/gcc-arm-none-eabi-5_2-20
 1039              		.file 6 "ChibiOS_16.1.4/os/rt/ports/ARMCMx/compilers/GCC/chtypes.h"
 1040              		.file 7 "ChibiOS_16.1.4/os/rt/include/chsystypes.h"
 1041              		.file 8 "ChibiOS_16.1.4/os/rt/ports/ARMCMx/chcore.h"
 1042              		.file 9 "ChibiOS_16.1.4/os/rt/ports/ARMCMx/chcore_v7m.h"
 1043              		.file 10 "ChibiOS_16.1.4/os/rt/include/chtm.h"
 1044              		.file 11 "ChibiOS_16.1.4/os/rt/include/chsem.h"
 1045              		.file 12 "ChibiOS_16.1.4/os/rt/include/chmtx.h"
 1046              		.file 13 "ChibiOS_16.1.4/os/rt/include/chsys.h"
 1047              		.file 14 "ChibiOS_16.1.4/os/ext/CMSIS/include/core_cm4.h"
 1048              		.section	.debug_info,"",%progbits
 1049              	.Ldebug_info0:
 1050 0000 D0100000 		.4byte	0x10d0
 1051 0004 0400     		.2byte	0x4
 1052 0006 00000000 		.4byte	.Ldebug_abbrev0
 1053 000a 04       		.byte	0x4
 1054 000b 01       		.uleb128 0x1
 1055 000c 53000000 		.4byte	.LASF130
 1056 0010 0C       		.byte	0xc
 1057 0011 47040000 		.4byte	.LASF131
 1058 0015 3F030000 		.4byte	.LASF132
 1059 0019 28010000 		.4byte	.Ldebug_ranges0+0x128
 1060 001d 00000000 		.4byte	0
 1061 0021 00000000 		.4byte	.Ldebug_line0
 1062 0025 02       		.uleb128 0x2
 1063 0026 04       		.byte	0x4
 1064 0027 05       		.byte	0x5
 1065 0028 696E7400 		.ascii	"int\000"
 1066 002c 03       		.uleb128 0x3
 1067 002d 04       		.byte	0x4
 1068 002e 07       		.byte	0x7
 1069 002f DF020000 		.4byte	.LASF0
 1070 0033 03       		.uleb128 0x3
 1071 0034 01       		.byte	0x1
 1072 0035 06       		.byte	0x6
 1073 0036 EF010000 		.4byte	.LASF1
 1074 003a 04       		.uleb128 0x4
 1075 003b 23000000 		.4byte	.LASF5
 1076 003f 04       		.byte	0x4
 1077 0040 1D       		.byte	0x1d
 1078 0041 45000000 		.4byte	0x45
 1079 0045 03       		.uleb128 0x3
 1080 0046 01       		.byte	0x1
 1081 0047 08       		.byte	0x8
 1082 0048 F8040000 		.4byte	.LASF2
 1083 004c 03       		.uleb128 0x3
ARM GAS  /var/folders/m4/4md61f0s1_g0rzfghffqnxvr0000gn/T//cco5YJlY.s 			page 20


 1084 004d 02       		.byte	0x2
 1085 004e 05       		.byte	0x5
 1086 004f 18050000 		.4byte	.LASF3
 1087 0053 03       		.uleb128 0x3
 1088 0054 02       		.byte	0x2
 1089 0055 07       		.byte	0x7
 1090 0056 1C030000 		.4byte	.LASF4
 1091 005a 04       		.uleb128 0x4
 1092 005b C6030000 		.4byte	.LASF6
 1093 005f 04       		.byte	0x4
 1094 0060 3F       		.byte	0x3f
 1095 0061 65000000 		.4byte	0x65
 1096 0065 03       		.uleb128 0x3
 1097 0066 04       		.byte	0x4
 1098 0067 05       		.byte	0x5
 1099 0068 32020000 		.4byte	.LASF7
 1100 006c 04       		.uleb128 0x4
 1101 006d 17060000 		.4byte	.LASF8
 1102 0071 04       		.byte	0x4
 1103 0072 41       		.byte	0x41
 1104 0073 77000000 		.4byte	0x77
 1105 0077 03       		.uleb128 0x3
 1106 0078 04       		.byte	0x4
 1107 0079 07       		.byte	0x7
 1108 007a C7050000 		.4byte	.LASF9
 1109 007e 03       		.uleb128 0x3
 1110 007f 08       		.byte	0x8
 1111 0080 05       		.byte	0x5
 1112 0081 A9020000 		.4byte	.LASF10
 1113 0085 04       		.uleb128 0x4
 1114 0086 98040000 		.4byte	.LASF11
 1115 008a 04       		.byte	0x4
 1116 008b 5B       		.byte	0x5b
 1117 008c 90000000 		.4byte	0x90
 1118 0090 03       		.uleb128 0x3
 1119 0091 08       		.byte	0x8
 1120 0092 07       		.byte	0x7
 1121 0093 75010000 		.4byte	.LASF12
 1122 0097 04       		.uleb128 0x4
 1123 0098 84060000 		.4byte	.LASF13
 1124 009c 05       		.byte	0x5
 1125 009d 14       		.byte	0x14
 1126 009e 3A000000 		.4byte	0x3a
 1127 00a2 04       		.uleb128 0x4
 1128 00a3 F0040000 		.4byte	.LASF14
 1129 00a7 05       		.byte	0x5
 1130 00a8 1F       		.byte	0x1f
 1131 00a9 5A000000 		.4byte	0x5a
 1132 00ad 04       		.uleb128 0x4
 1133 00ae 93050000 		.4byte	.LASF15
 1134 00b2 05       		.byte	0x5
 1135 00b3 20       		.byte	0x20
 1136 00b4 6C000000 		.4byte	0x6c
 1137 00b8 04       		.uleb128 0x4
 1138 00b9 1A000000 		.4byte	.LASF16
 1139 00bd 05       		.byte	0x5
 1140 00be 26       		.byte	0x26
ARM GAS  /var/folders/m4/4md61f0s1_g0rzfghffqnxvr0000gn/T//cco5YJlY.s 			page 21


 1141 00bf 85000000 		.4byte	0x85
 1142 00c3 04       		.uleb128 0x4
 1143 00c4 4F060000 		.4byte	.LASF17
 1144 00c8 06       		.byte	0x6
 1145 00c9 39       		.byte	0x39
 1146 00ca AD000000 		.4byte	0xad
 1147 00ce 04       		.uleb128 0x4
 1148 00cf 97030000 		.4byte	.LASF18
 1149 00d3 06       		.byte	0x6
 1150 00d4 3C       		.byte	0x3c
 1151 00d5 97000000 		.4byte	0x97
 1152 00d9 04       		.uleb128 0x4
 1153 00da 49020000 		.4byte	.LASF19
 1154 00de 06       		.byte	0x6
 1155 00df 3D       		.byte	0x3d
 1156 00e0 97000000 		.4byte	0x97
 1157 00e4 04       		.uleb128 0x4
 1158 00e5 A3040000 		.4byte	.LASF20
 1159 00e9 06       		.byte	0x6
 1160 00ea 3E       		.byte	0x3e
 1161 00eb 97000000 		.4byte	0x97
 1162 00ef 04       		.uleb128 0x4
 1163 00f0 1E020000 		.4byte	.LASF21
 1164 00f4 06       		.byte	0x6
 1165 00f5 3F       		.byte	0x3f
 1166 00f6 97000000 		.4byte	0x97
 1167 00fa 04       		.uleb128 0x4
 1168 00fb C2040000 		.4byte	.LASF22
 1169 00ff 06       		.byte	0x6
 1170 0100 40       		.byte	0x40
 1171 0101 AD000000 		.4byte	0xad
 1172 0105 04       		.uleb128 0x4
 1173 0106 39030000 		.4byte	.LASF23
 1174 010a 06       		.byte	0x6
 1175 010b 41       		.byte	0x41
 1176 010c A2000000 		.4byte	0xa2
 1177 0110 04       		.uleb128 0x4
 1178 0111 AD030000 		.4byte	.LASF24
 1179 0115 06       		.byte	0x6
 1180 0116 43       		.byte	0x43
 1181 0117 AD000000 		.4byte	0xad
 1182 011b 04       		.uleb128 0x4
 1183 011c CC020000 		.4byte	.LASF25
 1184 0120 06       		.byte	0x6
 1185 0121 45       		.byte	0x45
 1186 0122 A2000000 		.4byte	0xa2
 1187 0126 04       		.uleb128 0x4
 1188 0127 F9050000 		.4byte	.LASF26
 1189 012b 07       		.byte	0x7
 1190 012c 33       		.byte	0x33
 1191 012d AD000000 		.4byte	0xad
 1192 0131 04       		.uleb128 0x4
 1193 0132 DE050000 		.4byte	.LASF27
 1194 0136 07       		.byte	0x7
 1195 0137 3F       		.byte	0x3f
 1196 0138 3C010000 		.4byte	0x13c
 1197 013c 05       		.uleb128 0x5
ARM GAS  /var/folders/m4/4md61f0s1_g0rzfghffqnxvr0000gn/T//cco5YJlY.s 			page 22


 1198 013d 2F030000 		.4byte	.LASF49
 1199 0141 48       		.byte	0x48
 1200 0142 02       		.byte	0x2
 1201 0143 C2       		.byte	0xc2
 1202 0144 41020000 		.4byte	0x241
 1203 0148 06       		.uleb128 0x6
 1204 0149 3A050000 		.4byte	.LASF28
 1205 014d 02       		.byte	0x2
 1206 014e C3       		.byte	0xc3
 1207 014f 4C020000 		.4byte	0x24c
 1208 0153 00       		.byte	0
 1209 0154 06       		.uleb128 0x6
 1210 0155 BB040000 		.4byte	.LASF29
 1211 0159 02       		.byte	0x2
 1212 015a C5       		.byte	0xc5
 1213 015b 4C020000 		.4byte	0x24c
 1214 015f 04       		.byte	0x4
 1215 0160 06       		.uleb128 0x6
 1216 0161 D4010000 		.4byte	.LASF30
 1217 0165 02       		.byte	0x2
 1218 0166 C7       		.byte	0xc7
 1219 0167 FA000000 		.4byte	0xfa
 1220 016b 08       		.byte	0x8
 1221 016c 06       		.uleb128 0x6
 1222 016d E6060000 		.4byte	.LASF31
 1223 0171 02       		.byte	0x2
 1224 0172 C8       		.byte	0xc8
 1225 0173 7C040000 		.4byte	0x47c
 1226 0177 0C       		.byte	0xc
 1227 0178 06       		.uleb128 0x6
 1228 0179 6F020000 		.4byte	.LASF32
 1229 017d 02       		.byte	0x2
 1230 017e CA       		.byte	0xca
 1231 017f 4C020000 		.4byte	0x24c
 1232 0183 10       		.byte	0x10
 1233 0184 06       		.uleb128 0x6
 1234 0185 3F040000 		.4byte	.LASF33
 1235 0189 02       		.byte	0x2
 1236 018a CB       		.byte	0xcb
 1237 018b 4C020000 		.4byte	0x24c
 1238 018f 14       		.byte	0x14
 1239 0190 06       		.uleb128 0x6
 1240 0191 93060000 		.4byte	.LASF34
 1241 0195 02       		.byte	0x2
 1242 0196 D2       		.byte	0xd2
 1243 0197 CA060000 		.4byte	0x6ca
 1244 019b 18       		.byte	0x18
 1245 019c 06       		.uleb128 0x6
 1246 019d 06050000 		.4byte	.LASF35
 1247 01a1 02       		.byte	0x2
 1248 01a2 DD       		.byte	0xdd
 1249 01a3 D9000000 		.4byte	0xd9
 1250 01a7 1C       		.byte	0x1c
 1251 01a8 06       		.uleb128 0x6
 1252 01a9 41050000 		.4byte	.LASF36
 1253 01ad 02       		.byte	0x2
 1254 01ae E1       		.byte	0xe1
ARM GAS  /var/folders/m4/4md61f0s1_g0rzfghffqnxvr0000gn/T//cco5YJlY.s 			page 23


 1255 01af CE000000 		.4byte	0xce
 1256 01b3 1D       		.byte	0x1d
 1257 01b4 06       		.uleb128 0x6
 1258 01b5 77060000 		.4byte	.LASF37
 1259 01b9 02       		.byte	0x2
 1260 01ba E6       		.byte	0xe6
 1261 01bb E4000000 		.4byte	0xe4
 1262 01bf 1E       		.byte	0x1e
 1263 01c0 06       		.uleb128 0x6
 1264 01c1 22050000 		.4byte	.LASF38
 1265 01c5 02       		.byte	0x2
 1266 01c6 EC       		.byte	0xec
 1267 01c7 EF000000 		.4byte	0xef
 1268 01cb 1F       		.byte	0x1f
 1269 01cc 06       		.uleb128 0x6
 1270 01cd F4020000 		.4byte	.LASF39
 1271 01d1 02       		.byte	0x2
 1272 01d2 F3       		.byte	0xf3
 1273 01d3 DC060000 		.4byte	0x6dc
 1274 01d7 20       		.byte	0x20
 1275 01d8 07       		.uleb128 0x7
 1276 01d9 705F7500 		.ascii	"p_u\000"
 1277 01dd 02       		.byte	0x2
 1278 01de 3101     		.2byte	0x131
 1279 01e0 05060000 		.4byte	0x605
 1280 01e4 24       		.byte	0x24
 1281 01e5 08       		.uleb128 0x8
 1282 01e6 EA030000 		.4byte	.LASF40
 1283 01ea 02       		.byte	0x2
 1284 01eb 3601     		.2byte	0x136
 1285 01ed 52020000 		.4byte	0x252
 1286 01f1 28       		.byte	0x28
 1287 01f2 08       		.uleb128 0x8
 1288 01f3 0B030000 		.4byte	.LASF41
 1289 01f7 02       		.byte	0x2
 1290 01f8 3C01     		.2byte	0x13c
 1291 01fa 76020000 		.4byte	0x276
 1292 01fe 2C       		.byte	0x2c
 1293 01ff 08       		.uleb128 0x8
 1294 0200 B1060000 		.4byte	.LASF42
 1295 0204 02       		.byte	0x2
 1296 0205 4001     		.2byte	0x140
 1297 0207 05010000 		.4byte	0x105
 1298 020b 34       		.byte	0x34
 1299 020c 08       		.uleb128 0x8
 1300 020d 88050000 		.4byte	.LASF43
 1301 0211 02       		.byte	0x2
 1302 0212 4601     		.2byte	0x146
 1303 0214 10010000 		.4byte	0x110
 1304 0218 38       		.byte	0x38
 1305 0219 08       		.uleb128 0x8
 1306 021a 0E050000 		.4byte	.LASF44
 1307 021e 02       		.byte	0x2
 1308 021f 4D01     		.2byte	0x14d
 1309 0221 C4060000 		.4byte	0x6c4
 1310 0225 3C       		.byte	0x3c
 1311 0226 08       		.uleb128 0x8
ARM GAS  /var/folders/m4/4md61f0s1_g0rzfghffqnxvr0000gn/T//cco5YJlY.s 			page 24


 1312 0227 03060000 		.4byte	.LASF45
 1313 022b 02       		.byte	0x2
 1314 022c 5101     		.2byte	0x151
 1315 022e FA000000 		.4byte	0xfa
 1316 0232 40       		.byte	0x40
 1317 0233 08       		.uleb128 0x8
 1318 0234 FB010000 		.4byte	.LASF46
 1319 0238 02       		.byte	0x2
 1320 0239 5801     		.2byte	0x158
 1321 023b 29030000 		.4byte	0x329
 1322 023f 44       		.byte	0x44
 1323 0240 00       		.byte	0
 1324 0241 04       		.uleb128 0x4
 1325 0242 FD030000 		.4byte	.LASF47
 1326 0246 07       		.byte	0x7
 1327 0247 44       		.byte	0x44
 1328 0248 4C020000 		.4byte	0x24c
 1329 024c 09       		.uleb128 0x9
 1330 024d 04       		.byte	0x4
 1331 024e 31010000 		.4byte	0x131
 1332 0252 04       		.uleb128 0x4
 1333 0253 DB030000 		.4byte	.LASF48
 1334 0257 07       		.byte	0x7
 1335 0258 49       		.byte	0x49
 1336 0259 5D020000 		.4byte	0x25d
 1337 025d 05       		.uleb128 0x5
 1338 025e B7050000 		.4byte	.LASF50
 1339 0262 04       		.byte	0x4
 1340 0263 02       		.byte	0x2
 1341 0264 B0       		.byte	0xb0
 1342 0265 76020000 		.4byte	0x276
 1343 0269 06       		.uleb128 0x6
 1344 026a 3A050000 		.4byte	.LASF28
 1345 026e 02       		.byte	0x2
 1346 026f B1       		.byte	0xb1
 1347 0270 4C020000 		.4byte	0x24c
 1348 0274 00       		.byte	0
 1349 0275 00       		.byte	0
 1350 0276 04       		.uleb128 0x4
 1351 0277 5E060000 		.4byte	.LASF51
 1352 027b 07       		.byte	0x7
 1353 027c 50       		.byte	0x50
 1354 027d 81020000 		.4byte	0x281
 1355 0281 05       		.uleb128 0x5
 1356 0282 C3010000 		.4byte	.LASF52
 1357 0286 08       		.byte	0x8
 1358 0287 02       		.byte	0x2
 1359 0288 B7       		.byte	0xb7
 1360 0289 A6020000 		.4byte	0x2a6
 1361 028d 06       		.uleb128 0x6
 1362 028e 3A050000 		.4byte	.LASF28
 1363 0292 02       		.byte	0x2
 1364 0293 B8       		.byte	0xb8
 1365 0294 4C020000 		.4byte	0x24c
 1366 0298 00       		.byte	0
 1367 0299 06       		.uleb128 0x6
 1368 029a BB040000 		.4byte	.LASF29
ARM GAS  /var/folders/m4/4md61f0s1_g0rzfghffqnxvr0000gn/T//cco5YJlY.s 			page 25


 1369 029e 02       		.byte	0x2
 1370 029f B9       		.byte	0xb9
 1371 02a0 4C020000 		.4byte	0x24c
 1372 02a4 04       		.byte	0x4
 1373 02a5 00       		.byte	0
 1374 02a6 04       		.uleb128 0x4
 1375 02a7 00000000 		.4byte	.LASF53
 1376 02ab 07       		.byte	0x7
 1377 02ac 57       		.byte	0x57
 1378 02ad B1020000 		.4byte	0x2b1
 1379 02b1 0A       		.uleb128 0xa
 1380 02b2 9F030000 		.4byte	.LASF54
 1381 02b6 1C       		.byte	0x1c
 1382 02b7 02       		.byte	0x2
 1383 02b8 9001     		.2byte	0x190
 1384 02ba 0D030000 		.4byte	0x30d
 1385 02be 08       		.uleb128 0x8
 1386 02bf A3050000 		.4byte	.LASF55
 1387 02c3 02       		.byte	0x2
 1388 02c4 9101     		.2byte	0x191
 1389 02c6 76020000 		.4byte	0x276
 1390 02ca 00       		.byte	0
 1391 02cb 08       		.uleb128 0x8
 1392 02cc 2C050000 		.4byte	.LASF56
 1393 02d0 02       		.byte	0x2
 1394 02d1 9201     		.2byte	0x192
 1395 02d3 FA000000 		.4byte	0xfa
 1396 02d7 08       		.byte	0x8
 1397 02d8 08       		.uleb128 0x8
 1398 02d9 68040000 		.4byte	.LASF57
 1399 02dd 02       		.byte	0x2
 1400 02de 9401     		.2byte	0x194
 1401 02e0 7C040000 		.4byte	0x47c
 1402 02e4 0C       		.byte	0xc
 1403 02e5 08       		.uleb128 0x8
 1404 02e6 90020000 		.4byte	.LASF58
 1405 02ea 02       		.byte	0x2
 1406 02eb 9701     		.2byte	0x197
 1407 02ed 4C020000 		.4byte	0x24c
 1408 02f1 10       		.byte	0x10
 1409 02f2 08       		.uleb128 0x8
 1410 02f3 90040000 		.4byte	.LASF59
 1411 02f7 02       		.byte	0x2
 1412 02f8 9801     		.2byte	0x198
 1413 02fa 4C020000 		.4byte	0x24c
 1414 02fe 14       		.byte	0x14
 1415 02ff 08       		.uleb128 0x8
 1416 0300 86040000 		.4byte	.LASF60
 1417 0304 02       		.byte	0x2
 1418 0305 9B01     		.2byte	0x19b
 1419 0307 4C020000 		.4byte	0x24c
 1420 030b 18       		.byte	0x18
 1421 030c 00       		.byte	0
 1422 030d 04       		.uleb128 0x4
 1423 030e 0E060000 		.4byte	.LASF61
 1424 0312 07       		.byte	0x7
 1425 0313 5C       		.byte	0x5c
ARM GAS  /var/folders/m4/4md61f0s1_g0rzfghffqnxvr0000gn/T//cco5YJlY.s 			page 26


 1426 0314 18030000 		.4byte	0x318
 1427 0318 09       		.uleb128 0x9
 1428 0319 04       		.byte	0x4
 1429 031a 1E030000 		.4byte	0x31e
 1430 031e 0B       		.uleb128 0xb
 1431 031f 29030000 		.4byte	0x329
 1432 0323 0C       		.uleb128 0xc
 1433 0324 29030000 		.4byte	0x329
 1434 0328 00       		.byte	0
 1435 0329 0D       		.uleb128 0xd
 1436 032a 04       		.byte	0x4
 1437 032b 04       		.uleb128 0x4
 1438 032c AB040000 		.4byte	.LASF62
 1439 0330 07       		.byte	0x7
 1440 0331 61       		.byte	0x61
 1441 0332 36030000 		.4byte	0x336
 1442 0336 0A       		.uleb128 0xa
 1443 0337 5C050000 		.4byte	.LASF63
 1444 033b 14       		.byte	0x14
 1445 033c 02       		.byte	0x2
 1446 033d 6B01     		.2byte	0x16b
 1447 033f 85030000 		.4byte	0x385
 1448 0343 08       		.uleb128 0x8
 1449 0344 EC020000 		.4byte	.LASF64
 1450 0348 02       		.byte	0x2
 1451 0349 6C01     		.2byte	0x16c
 1452 034b E1060000 		.4byte	0x6e1
 1453 034f 00       		.byte	0
 1454 0350 08       		.uleb128 0x8
 1455 0351 A1020000 		.4byte	.LASF65
 1456 0355 02       		.byte	0x2
 1457 0356 6D01     		.2byte	0x16d
 1458 0358 E1060000 		.4byte	0x6e1
 1459 035c 04       		.byte	0x4
 1460 035d 08       		.uleb128 0x8
 1461 035e 02030000 		.4byte	.LASF66
 1462 0362 02       		.byte	0x2
 1463 0363 6E01     		.2byte	0x16e
 1464 0365 26010000 		.4byte	0x126
 1465 0369 08       		.byte	0x8
 1466 036a 08       		.uleb128 0x8
 1467 036b EC060000 		.4byte	.LASF67
 1468 036f 02       		.byte	0x2
 1469 0370 6F01     		.2byte	0x16f
 1470 0372 0D030000 		.4byte	0x30d
 1471 0376 0C       		.byte	0xc
 1472 0377 08       		.uleb128 0x8
 1473 0378 57060000 		.4byte	.LASF68
 1474 037c 02       		.byte	0x2
 1475 037d 7101     		.2byte	0x171
 1476 037f 29030000 		.4byte	0x329
 1477 0383 10       		.byte	0x10
 1478 0384 00       		.byte	0
 1479 0385 04       		.uleb128 0x4
 1480 0386 A0010000 		.4byte	.LASF69
 1481 038a 07       		.byte	0x7
 1482 038b 66       		.byte	0x66
ARM GAS  /var/folders/m4/4md61f0s1_g0rzfghffqnxvr0000gn/T//cco5YJlY.s 			page 27


 1483 038c 90030000 		.4byte	0x390
 1484 0390 0A       		.uleb128 0xa
 1485 0391 10040000 		.4byte	.LASF70
 1486 0395 10       		.byte	0x10
 1487 0396 02       		.byte	0x2
 1488 0397 7B01     		.2byte	0x17b
 1489 0399 D2030000 		.4byte	0x3d2
 1490 039d 08       		.uleb128 0x8
 1491 039e EC020000 		.4byte	.LASF64
 1492 03a2 02       		.byte	0x2
 1493 03a3 7C01     		.2byte	0x17c
 1494 03a5 E1060000 		.4byte	0x6e1
 1495 03a9 00       		.byte	0
 1496 03aa 08       		.uleb128 0x8
 1497 03ab A1020000 		.4byte	.LASF65
 1498 03af 02       		.byte	0x2
 1499 03b0 7E01     		.2byte	0x17e
 1500 03b2 E1060000 		.4byte	0x6e1
 1501 03b6 04       		.byte	0x4
 1502 03b7 08       		.uleb128 0x8
 1503 03b8 02030000 		.4byte	.LASF66
 1504 03bc 02       		.byte	0x2
 1505 03bd 8001     		.2byte	0x180
 1506 03bf 26010000 		.4byte	0x126
 1507 03c3 08       		.byte	0x8
 1508 03c4 08       		.uleb128 0x8
 1509 03c5 9A060000 		.4byte	.LASF71
 1510 03c9 02       		.byte	0x2
 1511 03ca 8201     		.2byte	0x182
 1512 03cc DC060000 		.4byte	0x6dc
 1513 03d0 0C       		.byte	0xc
 1514 03d1 00       		.byte	0
 1515 03d2 04       		.uleb128 0x4
 1516 03d3 39000000 		.4byte	.LASF72
 1517 03d7 07       		.byte	0x7
 1518 03d8 6B       		.byte	0x6b
 1519 03d9 DD030000 		.4byte	0x3dd
 1520 03dd 0A       		.uleb128 0xa
 1521 03de DA040000 		.4byte	.LASF73
 1522 03e2 04       		.byte	0x4
 1523 03e3 02       		.byte	0x2
 1524 03e4 A201     		.2byte	0x1a2
 1525 03e6 F8030000 		.4byte	0x3f8
 1526 03ea 08       		.uleb128 0x8
 1527 03eb 36060000 		.4byte	.LASF74
 1528 03ef 02       		.byte	0x2
 1529 03f0 AA01     		.2byte	0x1aa
 1530 03f2 E7060000 		.4byte	0x6e7
 1531 03f6 00       		.byte	0
 1532 03f7 00       		.byte	0
 1533 03f8 04       		.uleb128 0x4
 1534 03f9 74030000 		.4byte	.LASF75
 1535 03fd 07       		.byte	0x7
 1536 03fe 70       		.byte	0x70
 1537 03ff 03040000 		.4byte	0x403
 1538 0403 0E       		.uleb128 0xe
 1539 0404 28020000 		.4byte	.LASF76
ARM GAS  /var/folders/m4/4md61f0s1_g0rzfghffqnxvr0000gn/T//cco5YJlY.s 			page 28


 1540 0408 5802     		.2byte	0x258
 1541 040a 02       		.byte	0x2
 1542 040b C201     		.2byte	0x1c2
 1543 040d 5F040000 		.4byte	0x45f
 1544 0411 08       		.uleb128 0x8
 1545 0412 7E060000 		.4byte	.LASF77
 1546 0416 02       		.byte	0x2
 1547 0417 C601     		.2byte	0x1c6
 1548 0419 A6020000 		.4byte	0x2a6
 1549 041d 00       		.byte	0
 1550 041e 08       		.uleb128 0x8
 1551 041f 0B020000 		.4byte	.LASF78
 1552 0423 02       		.byte	0x2
 1553 0424 CA01     		.2byte	0x1ca
 1554 0426 85030000 		.4byte	0x385
 1555 042a 1C       		.byte	0x1c
 1556 042b 07       		.uleb128 0x7
 1557 042c 64626700 		.ascii	"dbg\000"
 1558 0430 02       		.byte	0x2
 1559 0431 CE01     		.2byte	0x1ce
 1560 0433 D2030000 		.4byte	0x3d2
 1561 0437 2C       		.byte	0x2c
 1562 0438 08       		.uleb128 0x8
 1563 0439 95010000 		.4byte	.LASF79
 1564 043d 02       		.byte	0x2
 1565 043e D201     		.2byte	0x1d2
 1566 0440 31010000 		.4byte	0x131
 1567 0444 30       		.byte	0x30
 1568 0445 07       		.uleb128 0x7
 1569 0446 746D00   		.ascii	"tm\000"
 1570 0449 02       		.byte	0x2
 1571 044a D701     		.2byte	0x1d7
 1572 044c FA050000 		.4byte	0x5fa
 1573 0450 78       		.byte	0x78
 1574 0451 08       		.uleb128 0x8
 1575 0452 BD020000 		.4byte	.LASF80
 1576 0456 02       		.byte	0x2
 1577 0457 E301     		.2byte	0x1e3
 1578 0459 EC060000 		.4byte	0x6ec
 1579 045d 80       		.byte	0x80
 1580 045e 00       		.byte	0
 1581 045f 03       		.uleb128 0x3
 1582 0460 04       		.byte	0x4
 1583 0461 07       		.byte	0x7
 1584 0462 F4030000 		.4byte	.LASF81
 1585 0466 04       		.uleb128 0x4
 1586 0467 98020000 		.4byte	.LASF82
 1587 046b 08       		.byte	0x8
 1588 046c 65       		.byte	0x65
 1589 046d 29030000 		.4byte	0x329
 1590 0471 04       		.uleb128 0x4
 1591 0472 D0030000 		.4byte	.LASF83
 1592 0476 08       		.byte	0x8
 1593 0477 6D       		.byte	0x6d
 1594 0478 B8000000 		.4byte	0xb8
 1595 047c 05       		.uleb128 0x5
 1596 047d 47060000 		.4byte	.LASF84
ARM GAS  /var/folders/m4/4md61f0s1_g0rzfghffqnxvr0000gn/T//cco5YJlY.s 			page 29


 1597 0481 04       		.byte	0x4
 1598 0482 08       		.byte	0x8
 1599 0483 89       		.byte	0x89
 1600 0484 95040000 		.4byte	0x495
 1601 0488 0F       		.uleb128 0xf
 1602 0489 72313300 		.ascii	"r13\000"
 1603 048d 08       		.byte	0x8
 1604 048e 8A       		.byte	0x8a
 1605 048f DF050000 		.4byte	0x5df
 1606 0493 00       		.byte	0
 1607 0494 00       		.byte	0
 1608 0495 05       		.uleb128 0x5
 1609 0496 2D000000 		.4byte	.LASF85
 1610 049a 64       		.byte	0x64
 1611 049b 09       		.byte	0x9
 1612 049c FD       		.byte	0xfd
 1613 049d DF050000 		.4byte	0x5df
 1614 04a1 0F       		.uleb128 0xf
 1615 04a2 73313600 		.ascii	"s16\000"
 1616 04a6 09       		.byte	0x9
 1617 04a7 FF       		.byte	0xff
 1618 04a8 66040000 		.4byte	0x466
 1619 04ac 00       		.byte	0
 1620 04ad 07       		.uleb128 0x7
 1621 04ae 73313700 		.ascii	"s17\000"
 1622 04b2 09       		.byte	0x9
 1623 04b3 0001     		.2byte	0x100
 1624 04b5 66040000 		.4byte	0x466
 1625 04b9 04       		.byte	0x4
 1626 04ba 07       		.uleb128 0x7
 1627 04bb 73313800 		.ascii	"s18\000"
 1628 04bf 09       		.byte	0x9
 1629 04c0 0101     		.2byte	0x101
 1630 04c2 66040000 		.4byte	0x466
 1631 04c6 08       		.byte	0x8
 1632 04c7 07       		.uleb128 0x7
 1633 04c8 73313900 		.ascii	"s19\000"
 1634 04cc 09       		.byte	0x9
 1635 04cd 0201     		.2byte	0x102
 1636 04cf 66040000 		.4byte	0x466
 1637 04d3 0C       		.byte	0xc
 1638 04d4 07       		.uleb128 0x7
 1639 04d5 73323000 		.ascii	"s20\000"
 1640 04d9 09       		.byte	0x9
 1641 04da 0301     		.2byte	0x103
 1642 04dc 66040000 		.4byte	0x466
 1643 04e0 10       		.byte	0x10
 1644 04e1 07       		.uleb128 0x7
 1645 04e2 73323100 		.ascii	"s21\000"
 1646 04e6 09       		.byte	0x9
 1647 04e7 0401     		.2byte	0x104
 1648 04e9 66040000 		.4byte	0x466
 1649 04ed 14       		.byte	0x14
 1650 04ee 07       		.uleb128 0x7
 1651 04ef 73323200 		.ascii	"s22\000"
 1652 04f3 09       		.byte	0x9
 1653 04f4 0501     		.2byte	0x105
ARM GAS  /var/folders/m4/4md61f0s1_g0rzfghffqnxvr0000gn/T//cco5YJlY.s 			page 30


 1654 04f6 66040000 		.4byte	0x466
 1655 04fa 18       		.byte	0x18
 1656 04fb 07       		.uleb128 0x7
 1657 04fc 73323300 		.ascii	"s23\000"
 1658 0500 09       		.byte	0x9
 1659 0501 0601     		.2byte	0x106
 1660 0503 66040000 		.4byte	0x466
 1661 0507 1C       		.byte	0x1c
 1662 0508 07       		.uleb128 0x7
 1663 0509 73323400 		.ascii	"s24\000"
 1664 050d 09       		.byte	0x9
 1665 050e 0701     		.2byte	0x107
 1666 0510 66040000 		.4byte	0x466
 1667 0514 20       		.byte	0x20
 1668 0515 07       		.uleb128 0x7
 1669 0516 73323500 		.ascii	"s25\000"
 1670 051a 09       		.byte	0x9
 1671 051b 0801     		.2byte	0x108
 1672 051d 66040000 		.4byte	0x466
 1673 0521 24       		.byte	0x24
 1674 0522 07       		.uleb128 0x7
 1675 0523 73323600 		.ascii	"s26\000"
 1676 0527 09       		.byte	0x9
 1677 0528 0901     		.2byte	0x109
 1678 052a 66040000 		.4byte	0x466
 1679 052e 28       		.byte	0x28
 1680 052f 07       		.uleb128 0x7
 1681 0530 73323700 		.ascii	"s27\000"
 1682 0534 09       		.byte	0x9
 1683 0535 0A01     		.2byte	0x10a
 1684 0537 66040000 		.4byte	0x466
 1685 053b 2C       		.byte	0x2c
 1686 053c 07       		.uleb128 0x7
 1687 053d 73323800 		.ascii	"s28\000"
 1688 0541 09       		.byte	0x9
 1689 0542 0B01     		.2byte	0x10b
 1690 0544 66040000 		.4byte	0x466
 1691 0548 30       		.byte	0x30
 1692 0549 07       		.uleb128 0x7
 1693 054a 73323900 		.ascii	"s29\000"
 1694 054e 09       		.byte	0x9
 1695 054f 0C01     		.2byte	0x10c
 1696 0551 66040000 		.4byte	0x466
 1697 0555 34       		.byte	0x34
 1698 0556 07       		.uleb128 0x7
 1699 0557 73333000 		.ascii	"s30\000"
 1700 055b 09       		.byte	0x9
 1701 055c 0D01     		.2byte	0x10d
 1702 055e 66040000 		.4byte	0x466
 1703 0562 38       		.byte	0x38
 1704 0563 07       		.uleb128 0x7
 1705 0564 73333100 		.ascii	"s31\000"
 1706 0568 09       		.byte	0x9
 1707 0569 0E01     		.2byte	0x10e
 1708 056b 66040000 		.4byte	0x466
 1709 056f 3C       		.byte	0x3c
 1710 0570 07       		.uleb128 0x7
ARM GAS  /var/folders/m4/4md61f0s1_g0rzfghffqnxvr0000gn/T//cco5YJlY.s 			page 31


 1711 0571 723400   		.ascii	"r4\000"
 1712 0574 09       		.byte	0x9
 1713 0575 1001     		.2byte	0x110
 1714 0577 66040000 		.4byte	0x466
 1715 057b 40       		.byte	0x40
 1716 057c 07       		.uleb128 0x7
 1717 057d 723500   		.ascii	"r5\000"
 1718 0580 09       		.byte	0x9
 1719 0581 1101     		.2byte	0x111
 1720 0583 66040000 		.4byte	0x466
 1721 0587 44       		.byte	0x44
 1722 0588 07       		.uleb128 0x7
 1723 0589 723600   		.ascii	"r6\000"
 1724 058c 09       		.byte	0x9
 1725 058d 1201     		.2byte	0x112
 1726 058f 66040000 		.4byte	0x466
 1727 0593 48       		.byte	0x48
 1728 0594 07       		.uleb128 0x7
 1729 0595 723700   		.ascii	"r7\000"
 1730 0598 09       		.byte	0x9
 1731 0599 1301     		.2byte	0x113
 1732 059b 66040000 		.4byte	0x466
 1733 059f 4C       		.byte	0x4c
 1734 05a0 07       		.uleb128 0x7
 1735 05a1 723800   		.ascii	"r8\000"
 1736 05a4 09       		.byte	0x9
 1737 05a5 1401     		.2byte	0x114
 1738 05a7 66040000 		.4byte	0x466
 1739 05ab 50       		.byte	0x50
 1740 05ac 07       		.uleb128 0x7
 1741 05ad 723900   		.ascii	"r9\000"
 1742 05b0 09       		.byte	0x9
 1743 05b1 1501     		.2byte	0x115
 1744 05b3 66040000 		.4byte	0x466
 1745 05b7 54       		.byte	0x54
 1746 05b8 07       		.uleb128 0x7
 1747 05b9 72313000 		.ascii	"r10\000"
 1748 05bd 09       		.byte	0x9
 1749 05be 1601     		.2byte	0x116
 1750 05c0 66040000 		.4byte	0x466
 1751 05c4 58       		.byte	0x58
 1752 05c5 07       		.uleb128 0x7
 1753 05c6 72313100 		.ascii	"r11\000"
 1754 05ca 09       		.byte	0x9
 1755 05cb 1701     		.2byte	0x117
 1756 05cd 66040000 		.4byte	0x466
 1757 05d1 5C       		.byte	0x5c
 1758 05d2 07       		.uleb128 0x7
 1759 05d3 6C7200   		.ascii	"lr\000"
 1760 05d6 09       		.byte	0x9
 1761 05d7 1801     		.2byte	0x118
 1762 05d9 66040000 		.4byte	0x466
 1763 05dd 60       		.byte	0x60
 1764 05de 00       		.byte	0
 1765 05df 09       		.uleb128 0x9
 1766 05e0 04       		.byte	0x4
 1767 05e1 95040000 		.4byte	0x495
ARM GAS  /var/folders/m4/4md61f0s1_g0rzfghffqnxvr0000gn/T//cco5YJlY.s 			page 32


 1768 05e5 10       		.uleb128 0x10
 1769 05e6 04       		.byte	0x4
 1770 05e7 0A       		.byte	0xa
 1771 05e8 38       		.byte	0x38
 1772 05e9 FA050000 		.4byte	0x5fa
 1773 05ed 06       		.uleb128 0x6
 1774 05ee 40060000 		.4byte	.LASF86
 1775 05f2 0A       		.byte	0xa
 1776 05f3 3C       		.byte	0x3c
 1777 05f4 C3000000 		.4byte	0xc3
 1778 05f8 00       		.byte	0
 1779 05f9 00       		.byte	0
 1780 05fa 04       		.uleb128 0x4
 1781 05fb 6E040000 		.4byte	.LASF87
 1782 05ff 0A       		.byte	0xa
 1783 0600 3D       		.byte	0x3d
 1784 0601 E5050000 		.4byte	0x5e5
 1785 0605 11       		.uleb128 0x11
 1786 0606 04       		.byte	0x4
 1787 0607 02       		.byte	0x2
 1788 0608 FA       		.byte	0xfa
 1789 0609 62060000 		.4byte	0x662
 1790 060d 12       		.uleb128 0x12
 1791 060e 13000000 		.4byte	.LASF88
 1792 0612 02       		.byte	0x2
 1793 0613 0101     		.2byte	0x101
 1794 0615 05010000 		.4byte	0x105
 1795 0619 12       		.uleb128 0x12
 1796 061a 8C010000 		.4byte	.LASF89
 1797 061e 02       		.byte	0x2
 1798 061f 0801     		.2byte	0x108
 1799 0621 05010000 		.4byte	0x105
 1800 0625 12       		.uleb128 0x12
 1801 0626 8C060000 		.4byte	.LASF90
 1802 062a 02       		.byte	0x2
 1803 062b 0F01     		.2byte	0x10f
 1804 062d 29030000 		.4byte	0x329
 1805 0631 12       		.uleb128 0x12
 1806 0632 0D000000 		.4byte	.LASF91
 1807 0636 02       		.byte	0x2
 1808 0637 1601     		.2byte	0x116
 1809 0639 62060000 		.4byte	0x662
 1810 063d 12       		.uleb128 0x12
 1811 063e FB020000 		.4byte	.LASF92
 1812 0642 02       		.byte	0x2
 1813 0643 1E01     		.2byte	0x11e
 1814 0645 8D060000 		.4byte	0x68d
 1815 0649 12       		.uleb128 0x12
 1816 064a 9C050000 		.4byte	.LASF93
 1817 064e 02       		.byte	0x2
 1818 064f 2701     		.2byte	0x127
 1819 0651 C4060000 		.4byte	0x6c4
 1820 0655 12       		.uleb128 0x12
 1821 0656 33050000 		.4byte	.LASF94
 1822 065a 02       		.byte	0x2
 1823 065b 2F01     		.2byte	0x12f
 1824 065d 10010000 		.4byte	0x110
ARM GAS  /var/folders/m4/4md61f0s1_g0rzfghffqnxvr0000gn/T//cco5YJlY.s 			page 33


 1825 0661 00       		.byte	0
 1826 0662 09       		.uleb128 0x9
 1827 0663 04       		.byte	0x4
 1828 0664 41020000 		.4byte	0x241
 1829 0668 05       		.uleb128 0x5
 1830 0669 6D050000 		.4byte	.LASF95
 1831 066d 0C       		.byte	0xc
 1832 066e 0B       		.byte	0xb
 1833 066f 34       		.byte	0x34
 1834 0670 8D060000 		.4byte	0x68d
 1835 0674 06       		.uleb128 0x6
 1836 0675 77020000 		.4byte	.LASF96
 1837 0679 0B       		.byte	0xb
 1838 067a 35       		.byte	0x35
 1839 067b 76020000 		.4byte	0x276
 1840 067f 00       		.byte	0
 1841 0680 06       		.uleb128 0x6
 1842 0681 16030000 		.4byte	.LASF97
 1843 0685 0B       		.byte	0xb
 1844 0686 37       		.byte	0x37
 1845 0687 1B010000 		.4byte	0x11b
 1846 068b 08       		.byte	0x8
 1847 068c 00       		.byte	0
 1848 068d 09       		.uleb128 0x9
 1849 068e 04       		.byte	0x4
 1850 068f 68060000 		.4byte	0x668
 1851 0693 05       		.uleb128 0x5
 1852 0694 6E060000 		.4byte	.LASF98
 1853 0698 10       		.byte	0x10
 1854 0699 0C       		.byte	0xc
 1855 069a 39       		.byte	0x39
 1856 069b C4060000 		.4byte	0x6c4
 1857 069f 06       		.uleb128 0x6
 1858 06a0 03020000 		.4byte	.LASF99
 1859 06a4 0C       		.byte	0xc
 1860 06a5 3A       		.byte	0x3a
 1861 06a6 76020000 		.4byte	0x276
 1862 06aa 00       		.byte	0
 1863 06ab 06       		.uleb128 0x6
 1864 06ac DE060000 		.4byte	.LASF100
 1865 06b0 0C       		.byte	0xc
 1866 06b1 3C       		.byte	0x3c
 1867 06b2 4C020000 		.4byte	0x24c
 1868 06b6 08       		.byte	0x8
 1869 06b7 06       		.uleb128 0x6
 1870 06b8 7F040000 		.4byte	.LASF101
 1871 06bc 0C       		.byte	0xc
 1872 06bd 3E       		.byte	0x3e
 1873 06be 07070000 		.4byte	0x707
 1874 06c2 0C       		.byte	0xc
 1875 06c3 00       		.byte	0
 1876 06c4 09       		.uleb128 0x9
 1877 06c5 04       		.byte	0x4
 1878 06c6 93060000 		.4byte	0x693
 1879 06ca 09       		.uleb128 0x9
 1880 06cb 04       		.byte	0x4
 1881 06cc D7060000 		.4byte	0x6d7
ARM GAS  /var/folders/m4/4md61f0s1_g0rzfghffqnxvr0000gn/T//cco5YJlY.s 			page 34


 1882 06d0 03       		.uleb128 0x3
 1883 06d1 01       		.byte	0x1
 1884 06d2 08       		.byte	0x8
 1885 06d3 D9050000 		.4byte	.LASF102
 1886 06d7 13       		.uleb128 0x13
 1887 06d8 D0060000 		.4byte	0x6d0
 1888 06dc 14       		.uleb128 0x14
 1889 06dd 26010000 		.4byte	0x126
 1890 06e1 09       		.uleb128 0x9
 1891 06e2 04       		.byte	0x4
 1892 06e3 2B030000 		.4byte	0x32b
 1893 06e7 14       		.uleb128 0x14
 1894 06e8 CA060000 		.4byte	0x6ca
 1895 06ec 15       		.uleb128 0x15
 1896 06ed 71040000 		.4byte	0x471
 1897 06f1 FC060000 		.4byte	0x6fc
 1898 06f5 16       		.uleb128 0x16
 1899 06f6 5F040000 		.4byte	0x45f
 1900 06fa 3A       		.byte	0x3a
 1901 06fb 00       		.byte	0
 1902 06fc 04       		.uleb128 0x4
 1903 06fd DB010000 		.4byte	.LASF103
 1904 0701 0C       		.byte	0xc
 1905 0702 34       		.byte	0x34
 1906 0703 93060000 		.4byte	0x693
 1907 0707 09       		.uleb128 0x9
 1908 0708 04       		.byte	0x4
 1909 0709 FC060000 		.4byte	0x6fc
 1910 070d 17       		.uleb128 0x17
 1911 070e 27040000 		.4byte	.LASF108
 1912 0712 03       		.byte	0x3
 1913 0713 2202     		.2byte	0x222
 1914 0715 03       		.byte	0x3
 1915 0716 27070000 		.4byte	0x727
 1916 071a 18       		.uleb128 0x18
 1917 071b B7020000 		.4byte	.LASF106
 1918 071f 03       		.byte	0x3
 1919 0720 2202     		.2byte	0x222
 1920 0722 AD000000 		.4byte	0xad
 1921 0726 00       		.byte	0
 1922 0727 19       		.uleb128 0x19
 1923 0728 D4060000 		.4byte	.LASF104
 1924 072c 09       		.byte	0x9
 1925 072d C801     		.2byte	0x1c8
 1926 072f 03       		.byte	0x3
 1927 0730 19       		.uleb128 0x19
 1928 0731 12020000 		.4byte	.LASF105
 1929 0735 09       		.byte	0x9
 1930 0736 E001     		.2byte	0x1e0
 1931 0738 03       		.byte	0x3
 1932 0739 1A       		.uleb128 0x1a
 1933 073a 52020000 		.4byte	.LASF111
 1934 073e 02       		.byte	0x2
 1935 073f 7502     		.2byte	0x275
 1936 0741 57070000 		.4byte	0x757
 1937 0745 03       		.byte	0x3
 1938 0746 57070000 		.4byte	0x757
ARM GAS  /var/folders/m4/4md61f0s1_g0rzfghffqnxvr0000gn/T//cco5YJlY.s 			page 35


 1939 074a 1B       		.uleb128 0x1b
 1940 074b 74717000 		.ascii	"tqp\000"
 1941 074f 02       		.byte	0x2
 1942 0750 7502     		.2byte	0x275
 1943 0752 5E070000 		.4byte	0x75e
 1944 0756 00       		.byte	0
 1945 0757 03       		.uleb128 0x3
 1946 0758 01       		.byte	0x1
 1947 0759 02       		.byte	0x2
 1948 075a EA040000 		.4byte	.LASF107
 1949 075e 09       		.uleb128 0x9
 1950 075f 04       		.byte	0x4
 1951 0760 64070000 		.4byte	0x764
 1952 0764 13       		.uleb128 0x13
 1953 0765 76020000 		.4byte	0x276
 1954 0769 17       		.uleb128 0x17
 1955 076a 48000000 		.4byte	.LASF109
 1956 076e 02       		.byte	0x2
 1957 076f 5A02     		.2byte	0x25a
 1958 0771 03       		.byte	0x3
 1959 0772 83070000 		.4byte	0x783
 1960 0776 1B       		.uleb128 0x1b
 1961 0777 74717000 		.ascii	"tqp\000"
 1962 077b 02       		.byte	0x2
 1963 077c 5A02     		.2byte	0x25a
 1964 077e 83070000 		.4byte	0x783
 1965 0782 00       		.byte	0
 1966 0783 09       		.uleb128 0x9
 1967 0784 04       		.byte	0x4
 1968 0785 76020000 		.4byte	0x276
 1969 0789 17       		.uleb128 0x17
 1970 078a C2060000 		.4byte	.LASF110
 1971 078e 02       		.byte	0x2
 1972 078f 8B02     		.2byte	0x28b
 1973 0791 03       		.byte	0x3
 1974 0792 B9070000 		.4byte	0x7b9
 1975 0796 1B       		.uleb128 0x1b
 1976 0797 747000   		.ascii	"tp\000"
 1977 079a 02       		.byte	0x2
 1978 079b 8B02     		.2byte	0x28b
 1979 079d 4C020000 		.4byte	0x24c
 1980 07a1 1B       		.uleb128 0x1b
 1981 07a2 74717000 		.ascii	"tqp\000"
 1982 07a6 02       		.byte	0x2
 1983 07a7 8B02     		.2byte	0x28b
 1984 07a9 83070000 		.4byte	0x783
 1985 07ad 1C       		.uleb128 0x1c
 1986 07ae 637000   		.ascii	"cp\000"
 1987 07b1 02       		.byte	0x2
 1988 07b2 8D02     		.2byte	0x28d
 1989 07b4 4C020000 		.4byte	0x24c
 1990 07b8 00       		.byte	0
 1991 07b9 1A       		.uleb128 0x1a
 1992 07ba 3B020000 		.4byte	.LASF112
 1993 07be 02       		.byte	0x2
 1994 07bf B102     		.2byte	0x2b1
 1995 07c1 4C020000 		.4byte	0x24c
ARM GAS  /var/folders/m4/4md61f0s1_g0rzfghffqnxvr0000gn/T//cco5YJlY.s 			page 36


 1996 07c5 03       		.byte	0x3
 1997 07c6 D6070000 		.4byte	0x7d6
 1998 07ca 1B       		.uleb128 0x1b
 1999 07cb 747000   		.ascii	"tp\000"
 2000 07ce 02       		.byte	0x2
 2001 07cf B102     		.2byte	0x2b1
 2002 07d1 4C020000 		.4byte	0x24c
 2003 07d5 00       		.byte	0
 2004 07d6 17       		.uleb128 0x17
 2005 07d7 A5060000 		.4byte	.LASF113
 2006 07db 0D       		.byte	0xd
 2007 07dc 6601     		.2byte	0x166
 2008 07de 03       		.byte	0x3
 2009 07df F1070000 		.4byte	0x7f1
 2010 07e3 1D       		.uleb128 0x1d
 2011 07e4 49050000 		.4byte	.LASF114
 2012 07e8 01080000 		.4byte	0x801
 2013 07ec A5060000 		.4byte	.LASF113
 2014 07f0 00       		.byte	0
 2015 07f1 15       		.uleb128 0x15
 2016 07f2 D0060000 		.4byte	0x6d0
 2017 07f6 01080000 		.4byte	0x801
 2018 07fa 16       		.uleb128 0x16
 2019 07fb 5F040000 		.4byte	0x45f
 2020 07ff 0B       		.byte	0xb
 2021 0800 00       		.byte	0
 2022 0801 13       		.uleb128 0x13
 2023 0802 F1070000 		.4byte	0x7f1
 2024 0806 19       		.uleb128 0x19
 2025 0807 52050000 		.4byte	.LASF115
 2026 080b 0D       		.byte	0xd
 2027 080c 5A01     		.2byte	0x15a
 2028 080e 03       		.byte	0x3
 2029 080f 1E       		.uleb128 0x1e
 2030 0810 61020000 		.4byte	.LASF116
 2031 0814 01       		.byte	0x1
 2032 0815 1A01     		.2byte	0x11a
 2033 0817 57070000 		.4byte	0x757
 2034 081b 01       		.byte	0x1
 2035 081c 39080000 		.4byte	0x839
 2036 0820 1B       		.uleb128 0x1b
 2037 0821 6D7000   		.ascii	"mp\000"
 2038 0824 01       		.byte	0x1
 2039 0825 1A01     		.2byte	0x11a
 2040 0827 07070000 		.4byte	0x707
 2041 082b 1D       		.uleb128 0x1d
 2042 082c 49050000 		.4byte	.LASF114
 2043 0830 49080000 		.4byte	0x849
 2044 0834 61020000 		.4byte	.LASF116
 2045 0838 00       		.byte	0
 2046 0839 15       		.uleb128 0x15
 2047 083a D0060000 		.4byte	0x6d0
 2048 083e 49080000 		.4byte	0x849
 2049 0842 16       		.uleb128 0x16
 2050 0843 5F040000 		.4byte	0x45f
 2051 0847 0D       		.byte	0xd
 2052 0848 00       		.byte	0
ARM GAS  /var/folders/m4/4md61f0s1_g0rzfghffqnxvr0000gn/T//cco5YJlY.s 			page 37


 2053 0849 13       		.uleb128 0x13
 2054 084a 39080000 		.4byte	0x839
 2055 084e 1F       		.uleb128 0x1f
 2056 084f 22060000 		.4byte	.LASF117
 2057 0853 0C       		.byte	0xc
 2058 0854 81       		.byte	0x81
 2059 0855 57070000 		.4byte	0x757
 2060 0859 03       		.byte	0x3
 2061 085a 69080000 		.4byte	0x869
 2062 085e 20       		.uleb128 0x20
 2063 085f 6D7000   		.ascii	"mp\000"
 2064 0862 0C       		.byte	0xc
 2065 0863 81       		.byte	0x81
 2066 0864 07070000 		.4byte	0x707
 2067 0868 00       		.byte	0
 2068 0869 1A       		.uleb128 0x1a
 2069 086a E7050000 		.4byte	.LASF118
 2070 086e 02       		.byte	0x2
 2071 086f 9F02     		.2byte	0x29f
 2072 0871 4C020000 		.4byte	0x24c
 2073 0875 03       		.byte	0x3
 2074 0876 92080000 		.4byte	0x892
 2075 087a 1B       		.uleb128 0x1b
 2076 087b 74717000 		.ascii	"tqp\000"
 2077 087f 02       		.byte	0x2
 2078 0880 9F02     		.2byte	0x29f
 2079 0882 83070000 		.4byte	0x783
 2080 0886 1C       		.uleb128 0x1c
 2081 0887 747000   		.ascii	"tp\000"
 2082 088a 02       		.byte	0x2
 2083 088b A002     		.2byte	0x2a0
 2084 088d 4C020000 		.4byte	0x24c
 2085 0891 00       		.byte	0
 2086 0892 21       		.uleb128 0x21
 2087 0893 CA040000 		.4byte	.LASF119
 2088 0897 01       		.byte	0x1
 2089 0898 67       		.byte	0x67
 2090 0899 00000000 		.4byte	.LFB231
 2091 089d 0A000000 		.4byte	.LFE231-.LFB231
 2092 08a1 01       		.uleb128 0x1
 2093 08a2 9C       		.byte	0x9c
 2094 08a3 D6080000 		.4byte	0x8d6
 2095 08a7 22       		.uleb128 0x22
 2096 08a8 6D7000   		.ascii	"mp\000"
 2097 08ab 01       		.byte	0x1
 2098 08ac 67       		.byte	0x67
 2099 08ad 07070000 		.4byte	0x707
 2100 08b1 01       		.uleb128 0x1
 2101 08b2 50       		.byte	0x50
 2102 08b3 23       		.uleb128 0x23
 2103 08b4 49050000 		.4byte	.LASF114
 2104 08b8 E6080000 		.4byte	0x8e6
 2105 08bc 24       		.uleb128 0x24
 2106 08bd 69070000 		.4byte	0x769
 2107 08c1 02000000 		.4byte	.LBB103
 2108 08c5 04000000 		.4byte	.LBE103-.LBB103
 2109 08c9 01       		.byte	0x1
ARM GAS  /var/folders/m4/4md61f0s1_g0rzfghffqnxvr0000gn/T//cco5YJlY.s 			page 38


 2110 08ca 6B       		.byte	0x6b
 2111 08cb 25       		.uleb128 0x25
 2112 08cc 76070000 		.4byte	0x776
 2113 08d0 00000000 		.4byte	.LLST0
 2114 08d4 00       		.byte	0
 2115 08d5 00       		.byte	0
 2116 08d6 15       		.uleb128 0x15
 2117 08d7 D0060000 		.4byte	0x6d0
 2118 08db E6080000 		.4byte	0x8e6
 2119 08df 16       		.uleb128 0x16
 2120 08e0 5F040000 		.4byte	0x45f
 2121 08e4 0F       		.byte	0xf
 2122 08e5 00       		.byte	0
 2123 08e6 13       		.uleb128 0x13
 2124 08e7 D6080000 		.4byte	0x8d6
 2125 08eb 21       		.uleb128 0x21
 2126 08ec B7060000 		.4byte	.LASF120
 2127 08f0 01       		.byte	0x1
 2128 08f1 8B       		.byte	0x8b
 2129 08f2 00000000 		.4byte	.LFB233
 2130 08f6 C8000000 		.4byte	.LFE233-.LFB233
 2131 08fa 01       		.uleb128 0x1
 2132 08fb 9C       		.byte	0x9c
 2133 08fc 510A0000 		.4byte	0xa51
 2134 0900 26       		.uleb128 0x26
 2135 0901 6D7000   		.ascii	"mp\000"
 2136 0904 01       		.byte	0x1
 2137 0905 8B       		.byte	0x8b
 2138 0906 07070000 		.4byte	0x707
 2139 090a 13000000 		.4byte	.LLST1
 2140 090e 27       		.uleb128 0x27
 2141 090f 63747000 		.ascii	"ctp\000"
 2142 0913 01       		.byte	0x1
 2143 0914 8C       		.byte	0x8c
 2144 0915 4C020000 		.4byte	0x24c
 2145 0919 55000000 		.4byte	.LLST2
 2146 091d 23       		.uleb128 0x23
 2147 091e 49050000 		.4byte	.LASF114
 2148 0922 610A0000 		.4byte	0xa61
 2149 0926 28       		.uleb128 0x28
 2150 0927 00000000 		.4byte	.Ldebug_ranges0+0
 2151 092b 27       		.uleb128 0x27
 2152 092c 747000   		.ascii	"tp\000"
 2153 092f 01       		.byte	0x1
 2154 0930 A1       		.byte	0xa1
 2155 0931 4C020000 		.4byte	0x24c
 2156 0935 73000000 		.4byte	.LLST3
 2157 0939 29       		.uleb128 0x29
 2158 093a 89070000 		.4byte	0x789
 2159 093e 24000000 		.4byte	.LBB106
 2160 0942 1C000000 		.4byte	.LBE106-.LBB106
 2161 0946 01       		.byte	0x1
 2162 0947 D4       		.byte	0xd4
 2163 0948 72090000 		.4byte	0x972
 2164 094c 25       		.uleb128 0x25
 2165 094d A1070000 		.4byte	0x7a1
 2166 0951 9C000000 		.4byte	.LLST4
ARM GAS  /var/folders/m4/4md61f0s1_g0rzfghffqnxvr0000gn/T//cco5YJlY.s 			page 39


 2167 0955 25       		.uleb128 0x25
 2168 0956 96070000 		.4byte	0x796
 2169 095a AF000000 		.4byte	.LLST5
 2170 095e 2A       		.uleb128 0x2a
 2171 095f 24000000 		.4byte	.LBB107
 2172 0963 1C000000 		.4byte	.LBE107-.LBB107
 2173 0967 2B       		.uleb128 0x2b
 2174 0968 AD070000 		.4byte	0x7ad
 2175 096c C2000000 		.4byte	.LLST6
 2176 0970 00       		.byte	0
 2177 0971 00       		.byte	0
 2178 0972 2C       		.uleb128 0x2c
 2179 0973 B9070000 		.4byte	0x7b9
 2180 0977 4C000000 		.4byte	.LBB108
 2181 097b 18000000 		.4byte	.Ldebug_ranges0+0x18
 2182 097f 01       		.byte	0x1
 2183 0980 CA       		.byte	0xca
 2184 0981 8F090000 		.4byte	0x98f
 2185 0985 25       		.uleb128 0x25
 2186 0986 CA070000 		.4byte	0x7ca
 2187 098a E0000000 		.4byte	.LLST7
 2188 098e 00       		.byte	0
 2189 098f 29       		.uleb128 0x29
 2190 0990 B9070000 		.4byte	0x7b9
 2191 0994 5E000000 		.4byte	.LBB112
 2192 0998 0A000000 		.4byte	.LBE112-.LBB112
 2193 099c 01       		.byte	0x1
 2194 099d C1       		.byte	0xc1
 2195 099e AC090000 		.4byte	0x9ac
 2196 09a2 25       		.uleb128 0x25
 2197 09a3 CA070000 		.4byte	0x7ca
 2198 09a7 F3000000 		.4byte	.LLST8
 2199 09ab 00       		.byte	0
 2200 09ac 29       		.uleb128 0x29
 2201 09ad 89070000 		.4byte	0x789
 2202 09b1 6A000000 		.4byte	.LBB114
 2203 09b5 1C000000 		.4byte	.LBE114-.LBB114
 2204 09b9 01       		.byte	0x1
 2205 09ba C1       		.byte	0xc1
 2206 09bb E1090000 		.4byte	0x9e1
 2207 09bf 25       		.uleb128 0x25
 2208 09c0 A1070000 		.4byte	0x7a1
 2209 09c4 06010000 		.4byte	.LLST9
 2210 09c8 2D       		.uleb128 0x2d
 2211 09c9 96070000 		.4byte	0x796
 2212 09cd 2A       		.uleb128 0x2a
 2213 09ce 6A000000 		.4byte	.LBB115
 2214 09d2 1C000000 		.4byte	.LBE115-.LBB115
 2215 09d6 2B       		.uleb128 0x2b
 2216 09d7 AD070000 		.4byte	0x7ad
 2217 09db 19010000 		.4byte	.LLST10
 2218 09df 00       		.byte	0
 2219 09e0 00       		.byte	0
 2220 09e1 29       		.uleb128 0x29
 2221 09e2 B9070000 		.4byte	0x7b9
 2222 09e6 86000000 		.4byte	.LBB116
 2223 09ea 0A000000 		.4byte	.LBE116-.LBB116
ARM GAS  /var/folders/m4/4md61f0s1_g0rzfghffqnxvr0000gn/T//cco5YJlY.s 			page 40


 2224 09ee 01       		.byte	0x1
 2225 09ef AD       		.byte	0xad
 2226 09f0 FE090000 		.4byte	0x9fe
 2227 09f4 25       		.uleb128 0x25
 2228 09f5 CA070000 		.4byte	0x7ca
 2229 09f9 2C010000 		.4byte	.LLST11
 2230 09fd 00       		.byte	0
 2231 09fe 29       		.uleb128 0x29
 2232 09ff 89070000 		.4byte	0x789
 2233 0a03 92000000 		.4byte	.LBB118
 2234 0a07 1A000000 		.4byte	.LBE118-.LBB118
 2235 0a0b 01       		.byte	0x1
 2236 0a0c AD       		.byte	0xad
 2237 0a0d 330A0000 		.4byte	0xa33
 2238 0a11 25       		.uleb128 0x25
 2239 0a12 A1070000 		.4byte	0x7a1
 2240 0a16 3F010000 		.4byte	.LLST12
 2241 0a1a 2D       		.uleb128 0x2d
 2242 0a1b 96070000 		.4byte	0x796
 2243 0a1f 2A       		.uleb128 0x2a
 2244 0a20 92000000 		.4byte	.LBB119
 2245 0a24 1A000000 		.4byte	.LBE119-.LBB119
 2246 0a28 2B       		.uleb128 0x2b
 2247 0a29 AD070000 		.4byte	0x7ad
 2248 0a2d 52010000 		.4byte	.LLST13
 2249 0a31 00       		.byte	0
 2250 0a32 00       		.byte	0
 2251 0a33 2E       		.uleb128 0x2e
 2252 0a34 4C000000 		.4byte	.LVL11
 2253 0a38 AF100000 		.4byte	0x10af
 2254 0a3c 460A0000 		.4byte	0xa46
 2255 0a40 2F       		.uleb128 0x2f
 2256 0a41 01       		.uleb128 0x1
 2257 0a42 50       		.byte	0x50
 2258 0a43 01       		.uleb128 0x1
 2259 0a44 36       		.byte	0x36
 2260 0a45 00       		.byte	0
 2261 0a46 30       		.uleb128 0x30
 2262 0a47 5C000000 		.4byte	.LVL13
 2263 0a4b BB100000 		.4byte	0x10bb
 2264 0a4f 00       		.byte	0
 2265 0a50 00       		.byte	0
 2266 0a51 15       		.uleb128 0x15
 2267 0a52 D0060000 		.4byte	0x6d0
 2268 0a56 610A0000 		.4byte	0xa61
 2269 0a5a 16       		.uleb128 0x16
 2270 0a5b 5F040000 		.4byte	0x45f
 2271 0a5f 0A       		.byte	0xa
 2272 0a60 00       		.byte	0
 2273 0a61 13       		.uleb128 0x13
 2274 0a62 510A0000 		.4byte	0xa51
 2275 0a66 21       		.uleb128 0x21
 2276 0a67 35040000 		.4byte	.LASF121
 2277 0a6b 01       		.byte	0x1
 2278 0a6c 7B       		.byte	0x7b
 2279 0a6d 00000000 		.4byte	.LFB232
 2280 0a71 14000000 		.4byte	.LFE232-.LFB232
ARM GAS  /var/folders/m4/4md61f0s1_g0rzfghffqnxvr0000gn/T//cco5YJlY.s 			page 41


 2281 0a75 01       		.uleb128 0x1
 2282 0a76 9C       		.byte	0x9c
 2283 0a77 280B0000 		.4byte	0xb28
 2284 0a7b 26       		.uleb128 0x26
 2285 0a7c 6D7000   		.ascii	"mp\000"
 2286 0a7f 01       		.byte	0x1
 2287 0a80 7B       		.byte	0x7b
 2288 0a81 07070000 		.4byte	0x707
 2289 0a85 65010000 		.4byte	.LLST14
 2290 0a89 29       		.uleb128 0x29
 2291 0a8a 06080000 		.4byte	0x806
 2292 0a8e 02000000 		.4byte	.LBB121
 2293 0a92 06000000 		.4byte	.LBE121-.LBB121
 2294 0a96 01       		.byte	0x1
 2295 0a97 7D       		.byte	0x7d
 2296 0a98 C80A0000 		.4byte	0xac8
 2297 0a9c 31       		.uleb128 0x31
 2298 0a9d 27070000 		.4byte	0x727
 2299 0aa1 02000000 		.4byte	.LBB122
 2300 0aa5 06000000 		.4byte	.LBE122-.LBB122
 2301 0aa9 0D       		.byte	0xd
 2302 0aaa 5C01     		.2byte	0x15c
 2303 0aac 31       		.uleb128 0x31
 2304 0aad 0D070000 		.4byte	0x70d
 2305 0ab1 02000000 		.4byte	.LBB123
 2306 0ab5 06000000 		.4byte	.LBE123-.LBB123
 2307 0ab9 09       		.byte	0x9
 2308 0aba D001     		.2byte	0x1d0
 2309 0abc 25       		.uleb128 0x25
 2310 0abd 1A070000 		.4byte	0x71a
 2311 0ac1 86010000 		.4byte	.LLST15
 2312 0ac5 00       		.byte	0
 2313 0ac6 00       		.byte	0
 2314 0ac7 00       		.byte	0
 2315 0ac8 29       		.uleb128 0x29
 2316 0ac9 D6070000 		.4byte	0x7d6
 2317 0acd 0C000000 		.4byte	.LBB125
 2318 0ad1 08000000 		.4byte	.LBE125-.LBB125
 2319 0ad5 01       		.byte	0x1
 2320 0ad6 7F       		.byte	0x7f
 2321 0ad7 160B0000 		.4byte	0xb16
 2322 0adb 2A       		.uleb128 0x2a
 2323 0adc 0C000000 		.4byte	.LBB126
 2324 0ae0 08000000 		.4byte	.LBE126-.LBB126
 2325 0ae4 32       		.uleb128 0x32
 2326 0ae5 E3070000 		.4byte	0x7e3
 2327 0ae9 31       		.uleb128 0x31
 2328 0aea 30070000 		.4byte	0x730
 2329 0aee 0C000000 		.4byte	.LBB127
 2330 0af2 08000000 		.4byte	.LBE127-.LBB127
 2331 0af6 0D       		.byte	0xd
 2332 0af7 7301     		.2byte	0x173
 2333 0af9 31       		.uleb128 0x31
 2334 0afa 0D070000 		.4byte	0x70d
 2335 0afe 0C000000 		.4byte	.LBB128
 2336 0b02 08000000 		.4byte	.LBE128-.LBB128
 2337 0b06 09       		.byte	0x9
ARM GAS  /var/folders/m4/4md61f0s1_g0rzfghffqnxvr0000gn/T//cco5YJlY.s 			page 42


 2338 0b07 E301     		.2byte	0x1e3
 2339 0b09 25       		.uleb128 0x25
 2340 0b0a 1A070000 		.4byte	0x71a
 2341 0b0e 9B010000 		.4byte	.LLST16
 2342 0b12 00       		.byte	0
 2343 0b13 00       		.byte	0
 2344 0b14 00       		.byte	0
 2345 0b15 00       		.byte	0
 2346 0b16 33       		.uleb128 0x33
 2347 0b17 0C000000 		.4byte	.LVL33
 2348 0b1b EB080000 		.4byte	0x8eb
 2349 0b1f 2F       		.uleb128 0x2f
 2350 0b20 01       		.uleb128 0x1
 2351 0b21 50       		.byte	0x50
 2352 0b22 03       		.uleb128 0x3
 2353 0b23 F3       		.byte	0xf3
 2354 0b24 01       		.uleb128 0x1
 2355 0b25 50       		.byte	0x50
 2356 0b26 00       		.byte	0
 2357 0b27 00       		.byte	0
 2358 0b28 34       		.uleb128 0x34
 2359 0b29 B9030000 		.4byte	.LASF133
 2360 0b2d 01       		.byte	0x1
 2361 0b2e FF       		.byte	0xff
 2362 0b2f 57070000 		.4byte	0x757
 2363 0b33 00000000 		.4byte	.LFB234
 2364 0b37 30000000 		.4byte	.LFE234-.LFB234
 2365 0b3b 01       		.uleb128 0x1
 2366 0b3c 9C       		.byte	0x9c
 2367 0b3d 2C0C0000 		.4byte	0xc2c
 2368 0b41 26       		.uleb128 0x26
 2369 0b42 6D7000   		.ascii	"mp\000"
 2370 0b45 01       		.byte	0x1
 2371 0b46 FF       		.byte	0xff
 2372 0b47 07070000 		.4byte	0x707
 2373 0b4b AF010000 		.4byte	.LLST17
 2374 0b4f 1C       		.uleb128 0x1c
 2375 0b50 6200     		.ascii	"b\000"
 2376 0b52 01       		.byte	0x1
 2377 0b53 0001     		.2byte	0x100
 2378 0b55 57070000 		.4byte	0x757
 2379 0b59 35       		.uleb128 0x35
 2380 0b5a 06080000 		.4byte	0x806
 2381 0b5e 02000000 		.4byte	.LBB143
 2382 0b62 06000000 		.4byte	.LBE143-.LBB143
 2383 0b66 01       		.byte	0x1
 2384 0b67 0201     		.2byte	0x102
 2385 0b69 990B0000 		.4byte	0xb99
 2386 0b6d 31       		.uleb128 0x31
 2387 0b6e 27070000 		.4byte	0x727
 2388 0b72 02000000 		.4byte	.LBB144
 2389 0b76 06000000 		.4byte	.LBE144-.LBB144
 2390 0b7a 0D       		.byte	0xd
 2391 0b7b 5C01     		.2byte	0x15c
 2392 0b7d 31       		.uleb128 0x31
 2393 0b7e 0D070000 		.4byte	0x70d
 2394 0b82 02000000 		.4byte	.LBB145
ARM GAS  /var/folders/m4/4md61f0s1_g0rzfghffqnxvr0000gn/T//cco5YJlY.s 			page 43


 2395 0b86 06000000 		.4byte	.LBE145-.LBB145
 2396 0b8a 09       		.byte	0x9
 2397 0b8b D001     		.2byte	0x1d0
 2398 0b8d 25       		.uleb128 0x25
 2399 0b8e 1A070000 		.4byte	0x71a
 2400 0b92 F2010000 		.4byte	.LLST18
 2401 0b96 00       		.byte	0
 2402 0b97 00       		.byte	0
 2403 0b98 00       		.byte	0
 2404 0b99 36       		.uleb128 0x36
 2405 0b9a 0F080000 		.4byte	0x80f
 2406 0b9e 08000000 		.4byte	.LBB147
 2407 0ba2 30000000 		.4byte	.Ldebug_ranges0+0x30
 2408 0ba6 01       		.byte	0x1
 2409 0ba7 0301     		.2byte	0x103
 2410 0ba9 E40B0000 		.4byte	0xbe4
 2411 0bad 25       		.uleb128 0x25
 2412 0bae 20080000 		.4byte	0x820
 2413 0bb2 07020000 		.4byte	.LLST19
 2414 0bb6 28       		.uleb128 0x28
 2415 0bb7 30000000 		.4byte	.Ldebug_ranges0+0x30
 2416 0bbb 32       		.uleb128 0x32
 2417 0bbc 2B080000 		.4byte	0x82b
 2418 0bc0 2A       		.uleb128 0x2a
 2419 0bc1 16000000 		.4byte	.LBB149
 2420 0bc5 0E000000 		.4byte	.LBE149-.LBB149
 2421 0bc9 25       		.uleb128 0x25
 2422 0bca 20080000 		.4byte	0x820
 2423 0bce 30020000 		.4byte	.LLST20
 2424 0bd2 2A       		.uleb128 0x2a
 2425 0bd3 16000000 		.4byte	.LBB150
 2426 0bd7 0E000000 		.4byte	.LBE150-.LBB150
 2427 0bdb 32       		.uleb128 0x32
 2428 0bdc 2B080000 		.4byte	0x82b
 2429 0be0 00       		.byte	0
 2430 0be1 00       		.byte	0
 2431 0be2 00       		.byte	0
 2432 0be3 00       		.byte	0
 2433 0be4 37       		.uleb128 0x37
 2434 0be5 D6070000 		.4byte	0x7d6
 2435 0be9 0E000000 		.4byte	.LBB152
 2436 0bed 48000000 		.4byte	.Ldebug_ranges0+0x48
 2437 0bf1 01       		.byte	0x1
 2438 0bf2 0401     		.2byte	0x104
 2439 0bf4 28       		.uleb128 0x28
 2440 0bf5 48000000 		.4byte	.Ldebug_ranges0+0x48
 2441 0bf9 32       		.uleb128 0x32
 2442 0bfa E3070000 		.4byte	0x7e3
 2443 0bfe 37       		.uleb128 0x37
 2444 0bff 30070000 		.4byte	0x730
 2445 0c03 0E000000 		.4byte	.LBB154
 2446 0c07 48000000 		.4byte	.Ldebug_ranges0+0x48
 2447 0c0b 0D       		.byte	0xd
 2448 0c0c 7301     		.2byte	0x173
 2449 0c0e 37       		.uleb128 0x37
 2450 0c0f 0D070000 		.4byte	0x70d
 2451 0c13 0E000000 		.4byte	.LBB155
ARM GAS  /var/folders/m4/4md61f0s1_g0rzfghffqnxvr0000gn/T//cco5YJlY.s 			page 44


 2452 0c17 48000000 		.4byte	.Ldebug_ranges0+0x48
 2453 0c1b 09       		.byte	0x9
 2454 0c1c E301     		.2byte	0x1e3
 2455 0c1e 25       		.uleb128 0x25
 2456 0c1f 1A070000 		.4byte	0x71a
 2457 0c23 43020000 		.4byte	.LLST21
 2458 0c27 00       		.byte	0
 2459 0c28 00       		.byte	0
 2460 0c29 00       		.byte	0
 2461 0c2a 00       		.byte	0
 2462 0c2b 00       		.byte	0
 2463 0c2c 38       		.uleb128 0x38
 2464 0c2d 0F080000 		.4byte	0x80f
 2465 0c31 00000000 		.4byte	.LFB235
 2466 0c35 20000000 		.4byte	.LFE235-.LFB235
 2467 0c39 01       		.uleb128 0x1
 2468 0c3a 9C       		.byte	0x9c
 2469 0c3b 700C0000 		.4byte	0xc70
 2470 0c3f 25       		.uleb128 0x25
 2471 0c40 20080000 		.4byte	0x820
 2472 0c44 63020000 		.4byte	.LLST22
 2473 0c48 32       		.uleb128 0x32
 2474 0c49 2B080000 		.4byte	0x82b
 2475 0c4d 2A       		.uleb128 0x2a
 2476 0c4e 0A000000 		.4byte	.LBB165
 2477 0c52 16000000 		.4byte	.LBE165-.LBB165
 2478 0c56 25       		.uleb128 0x25
 2479 0c57 20080000 		.4byte	0x820
 2480 0c5b 97020000 		.4byte	.LLST23
 2481 0c5f 2A       		.uleb128 0x2a
 2482 0c60 0A000000 		.4byte	.LBB166
 2483 0c64 16000000 		.4byte	.LBE166-.LBB166
 2484 0c68 32       		.uleb128 0x32
 2485 0c69 2B080000 		.4byte	0x82b
 2486 0c6d 00       		.byte	0
 2487 0c6e 00       		.byte	0
 2488 0c6f 00       		.byte	0
 2489 0c70 39       		.uleb128 0x39
 2490 0c71 E3010000 		.4byte	.LASF122
 2491 0c75 01       		.byte	0x1
 2492 0c76 4301     		.2byte	0x143
 2493 0c78 00000000 		.4byte	.LFB236
 2494 0c7c 64000000 		.4byte	.LFE236-.LFB236
 2495 0c80 01       		.uleb128 0x1
 2496 0c81 9C       		.byte	0x9c
 2497 0c82 1F0E0000 		.4byte	0xe1f
 2498 0c86 3A       		.uleb128 0x3a
 2499 0c87 6D7000   		.ascii	"mp\000"
 2500 0c8a 01       		.byte	0x1
 2501 0c8b 4301     		.2byte	0x143
 2502 0c8d 07070000 		.4byte	0x707
 2503 0c91 B5020000 		.4byte	.LLST24
 2504 0c95 3B       		.uleb128 0x3b
 2505 0c96 63747000 		.ascii	"ctp\000"
 2506 0c9a 01       		.byte	0x1
 2507 0c9b 4401     		.2byte	0x144
 2508 0c9d 4C020000 		.4byte	0x24c
ARM GAS  /var/folders/m4/4md61f0s1_g0rzfghffqnxvr0000gn/T//cco5YJlY.s 			page 45


 2509 0ca1 EC020000 		.4byte	.LLST25
 2510 0ca5 3B       		.uleb128 0x3b
 2511 0ca6 6C6D7000 		.ascii	"lmp\000"
 2512 0caa 01       		.byte	0x1
 2513 0cab 4501     		.2byte	0x145
 2514 0cad 07070000 		.4byte	0x707
 2515 0cb1 FF020000 		.4byte	.LLST26
 2516 0cb5 23       		.uleb128 0x23
 2517 0cb6 49050000 		.4byte	.LASF114
 2518 0cba 1F0E0000 		.4byte	0xe1f
 2519 0cbe 35       		.uleb128 0x35
 2520 0cbf 06080000 		.4byte	0x806
 2521 0cc3 06000000 		.4byte	.LBB167
 2522 0cc7 06000000 		.4byte	.LBE167-.LBB167
 2523 0ccb 01       		.byte	0x1
 2524 0ccc 4901     		.2byte	0x149
 2525 0cce FE0C0000 		.4byte	0xcfe
 2526 0cd2 31       		.uleb128 0x31
 2527 0cd3 27070000 		.4byte	0x727
 2528 0cd7 06000000 		.4byte	.LBB168
 2529 0cdb 06000000 		.4byte	.LBE168-.LBB168
 2530 0cdf 0D       		.byte	0xd
 2531 0ce0 5C01     		.2byte	0x15c
 2532 0ce2 31       		.uleb128 0x31
 2533 0ce3 0D070000 		.4byte	0x70d
 2534 0ce7 06000000 		.4byte	.LBB169
 2535 0ceb 06000000 		.4byte	.LBE169-.LBB169
 2536 0cef 09       		.byte	0x9
 2537 0cf0 D001     		.2byte	0x1d0
 2538 0cf2 25       		.uleb128 0x25
 2539 0cf3 1A070000 		.4byte	0x71a
 2540 0cf7 12030000 		.4byte	.LLST27
 2541 0cfb 00       		.byte	0
 2542 0cfc 00       		.byte	0
 2543 0cfd 00       		.byte	0
 2544 0cfe 35       		.uleb128 0x35
 2545 0cff 4E080000 		.4byte	0x84e
 2546 0d03 0C000000 		.4byte	.LBB171
 2547 0d07 02000000 		.4byte	.LBE171-.LBB171
 2548 0d0b 01       		.byte	0x1
 2549 0d0c 5B01     		.2byte	0x15b
 2550 0d0e 2D0D0000 		.4byte	0xd2d
 2551 0d12 2D       		.uleb128 0x2d
 2552 0d13 5E080000 		.4byte	0x85e
 2553 0d17 24       		.uleb128 0x24
 2554 0d18 39070000 		.4byte	0x739
 2555 0d1c 0C000000 		.4byte	.LBB173
 2556 0d20 02000000 		.4byte	.LBE173-.LBB173
 2557 0d24 0C       		.byte	0xc
 2558 0d25 85       		.byte	0x85
 2559 0d26 2D       		.uleb128 0x2d
 2560 0d27 4A070000 		.4byte	0x74a
 2561 0d2b 00       		.byte	0
 2562 0d2c 00       		.byte	0
 2563 0d2d 3C       		.uleb128 0x3c
 2564 0d2e 16000000 		.4byte	.LBB175
 2565 0d32 34000000 		.4byte	.LBE175-.LBB175
ARM GAS  /var/folders/m4/4md61f0s1_g0rzfghffqnxvr0000gn/T//cco5YJlY.s 			page 46


 2566 0d36 D70D0000 		.4byte	0xdd7
 2567 0d3a 1C       		.uleb128 0x1c
 2568 0d3b 747000   		.ascii	"tp\000"
 2569 0d3e 01       		.byte	0x1
 2570 0d3f 5C01     		.2byte	0x15c
 2571 0d41 4C020000 		.4byte	0x24c
 2572 0d45 3D       		.uleb128 0x3d
 2573 0d46 8F030000 		.4byte	.LASF123
 2574 0d4a 01       		.byte	0x1
 2575 0d4b 6001     		.2byte	0x160
 2576 0d4d FA000000 		.4byte	0xfa
 2577 0d51 27030000 		.4byte	.LLST28
 2578 0d55 35       		.uleb128 0x35
 2579 0d56 4E080000 		.4byte	0x84e
 2580 0d5a 1A000000 		.4byte	.LBB176
 2581 0d5e 02000000 		.4byte	.LBE176-.LBB176
 2582 0d62 01       		.byte	0x1
 2583 0d63 6601     		.2byte	0x166
 2584 0d65 8C0D0000 		.4byte	0xd8c
 2585 0d69 25       		.uleb128 0x25
 2586 0d6a 5E080000 		.4byte	0x85e
 2587 0d6e 3A030000 		.4byte	.LLST29
 2588 0d72 24       		.uleb128 0x24
 2589 0d73 39070000 		.4byte	0x739
 2590 0d77 1A000000 		.4byte	.LBB178
 2591 0d7b 02000000 		.4byte	.LBE178-.LBB178
 2592 0d7f 0C       		.byte	0xc
 2593 0d80 85       		.byte	0x85
 2594 0d81 25       		.uleb128 0x25
 2595 0d82 4A070000 		.4byte	0x74a
 2596 0d86 3A030000 		.4byte	.LLST29
 2597 0d8a 00       		.byte	0
 2598 0d8b 00       		.byte	0
 2599 0d8c 36       		.uleb128 0x36
 2600 0d8d 69080000 		.4byte	0x869
 2601 0d91 30000000 		.4byte	.LBB180
 2602 0d95 60000000 		.4byte	.Ldebug_ranges0+0x60
 2603 0d99 01       		.byte	0x1
 2604 0d9a 7601     		.2byte	0x176
 2605 0d9c B90D0000 		.4byte	0xdb9
 2606 0da0 25       		.uleb128 0x25
 2607 0da1 7A080000 		.4byte	0x87a
 2608 0da5 4D030000 		.4byte	.LLST31
 2609 0da9 28       		.uleb128 0x28
 2610 0daa 60000000 		.4byte	.Ldebug_ranges0+0x60
 2611 0dae 2B       		.uleb128 0x2b
 2612 0daf 86080000 		.4byte	0x886
 2613 0db3 60030000 		.4byte	.LLST32
 2614 0db7 00       		.byte	0
 2615 0db8 00       		.byte	0
 2616 0db9 3E       		.uleb128 0x3e
 2617 0dba 46000000 		.4byte	.LVL62
 2618 0dbe BB100000 		.4byte	0x10bb
 2619 0dc2 CD0D0000 		.4byte	0xdcd
 2620 0dc6 2F       		.uleb128 0x2f
 2621 0dc7 01       		.uleb128 0x1
 2622 0dc8 50       		.byte	0x50
ARM GAS  /var/folders/m4/4md61f0s1_g0rzfghffqnxvr0000gn/T//cco5YJlY.s 			page 47


 2623 0dc9 02       		.uleb128 0x2
 2624 0dca 74       		.byte	0x74
 2625 0dcb 00       		.sleb128 0
 2626 0dcc 00       		.byte	0
 2627 0dcd 30       		.uleb128 0x30
 2628 0dce 4A000000 		.4byte	.LVL63
 2629 0dd2 C7100000 		.4byte	0x10c7
 2630 0dd6 00       		.byte	0
 2631 0dd7 37       		.uleb128 0x37
 2632 0dd8 D6070000 		.4byte	0x7d6
 2633 0ddc 4A000000 		.4byte	.LBB184
 2634 0de0 78000000 		.4byte	.Ldebug_ranges0+0x78
 2635 0de4 01       		.byte	0x1
 2636 0de5 8901     		.2byte	0x189
 2637 0de7 28       		.uleb128 0x28
 2638 0de8 78000000 		.4byte	.Ldebug_ranges0+0x78
 2639 0dec 32       		.uleb128 0x32
 2640 0ded E3070000 		.4byte	0x7e3
 2641 0df1 37       		.uleb128 0x37
 2642 0df2 30070000 		.4byte	0x730
 2643 0df6 4A000000 		.4byte	.LBB186
 2644 0dfa 78000000 		.4byte	.Ldebug_ranges0+0x78
 2645 0dfe 0D       		.byte	0xd
 2646 0dff 7301     		.2byte	0x173
 2647 0e01 37       		.uleb128 0x37
 2648 0e02 0D070000 		.4byte	0x70d
 2649 0e06 4A000000 		.4byte	.LBB187
 2650 0e0a 78000000 		.4byte	.Ldebug_ranges0+0x78
 2651 0e0e 09       		.byte	0x9
 2652 0e0f E301     		.2byte	0x1e3
 2653 0e11 25       		.uleb128 0x25
 2654 0e12 1A070000 		.4byte	0x71a
 2655 0e16 73030000 		.4byte	.LLST33
 2656 0e1a 00       		.byte	0
 2657 0e1b 00       		.byte	0
 2658 0e1c 00       		.byte	0
 2659 0e1d 00       		.byte	0
 2660 0e1e 00       		.byte	0
 2661 0e1f 13       		.uleb128 0x13
 2662 0e20 F1070000 		.4byte	0x7f1
 2663 0e24 39       		.uleb128 0x39
 2664 0e25 D2020000 		.4byte	.LASF124
 2665 0e29 01       		.byte	0x1
 2666 0e2a 9A01     		.2byte	0x19a
 2667 0e2c 00000000 		.4byte	.LFB237
 2668 0e30 50000000 		.4byte	.LFE237-.LFB237
 2669 0e34 01       		.uleb128 0x1
 2670 0e35 9C       		.byte	0x9c
 2671 0e36 300F0000 		.4byte	0xf30
 2672 0e3a 3A       		.uleb128 0x3a
 2673 0e3b 6D7000   		.ascii	"mp\000"
 2674 0e3e 01       		.byte	0x1
 2675 0e3f 9A01     		.2byte	0x19a
 2676 0e41 07070000 		.4byte	0x707
 2677 0e45 93030000 		.4byte	.LLST34
 2678 0e49 3B       		.uleb128 0x3b
 2679 0e4a 63747000 		.ascii	"ctp\000"
ARM GAS  /var/folders/m4/4md61f0s1_g0rzfghffqnxvr0000gn/T//cco5YJlY.s 			page 48


 2680 0e4e 01       		.byte	0x1
 2681 0e4f 9B01     		.2byte	0x19b
 2682 0e51 4C020000 		.4byte	0x24c
 2683 0e55 E4030000 		.4byte	.LLST35
 2684 0e59 3B       		.uleb128 0x3b
 2685 0e5a 6C6D7000 		.ascii	"lmp\000"
 2686 0e5e 01       		.byte	0x1
 2687 0e5f 9C01     		.2byte	0x19c
 2688 0e61 07070000 		.4byte	0x707
 2689 0e65 02040000 		.4byte	.LLST36
 2690 0e69 23       		.uleb128 0x23
 2691 0e6a 49050000 		.4byte	.LASF114
 2692 0e6e 400F0000 		.4byte	0xf40
 2693 0e72 35       		.uleb128 0x35
 2694 0e73 4E080000 		.4byte	0x84e
 2695 0e77 06000000 		.4byte	.LBB194
 2696 0e7b 02000000 		.4byte	.LBE194-.LBB194
 2697 0e7f 01       		.byte	0x1
 2698 0e80 B101     		.2byte	0x1b1
 2699 0e82 A10E0000 		.4byte	0xea1
 2700 0e86 2D       		.uleb128 0x2d
 2701 0e87 5E080000 		.4byte	0x85e
 2702 0e8b 24       		.uleb128 0x24
 2703 0e8c 39070000 		.4byte	0x739
 2704 0e90 06000000 		.4byte	.LBB196
 2705 0e94 02000000 		.4byte	.LBE196-.LBB196
 2706 0e98 0C       		.byte	0xc
 2707 0e99 85       		.byte	0x85
 2708 0e9a 2D       		.uleb128 0x2d
 2709 0e9b 4A070000 		.4byte	0x74a
 2710 0e9f 00       		.byte	0
 2711 0ea0 00       		.byte	0
 2712 0ea1 28       		.uleb128 0x28
 2713 0ea2 90000000 		.4byte	.Ldebug_ranges0+0x90
 2714 0ea6 1C       		.uleb128 0x1c
 2715 0ea7 747000   		.ascii	"tp\000"
 2716 0eaa 01       		.byte	0x1
 2717 0eab B201     		.2byte	0x1b2
 2718 0ead 4C020000 		.4byte	0x24c
 2719 0eb1 3D       		.uleb128 0x3d
 2720 0eb2 8F030000 		.4byte	.LASF123
 2721 0eb6 01       		.byte	0x1
 2722 0eb7 B601     		.2byte	0x1b6
 2723 0eb9 FA000000 		.4byte	0xfa
 2724 0ebd 15040000 		.4byte	.LLST37
 2725 0ec1 35       		.uleb128 0x35
 2726 0ec2 4E080000 		.4byte	0x84e
 2727 0ec6 16000000 		.4byte	.LBB199
 2728 0eca 02000000 		.4byte	.LBE199-.LBB199
 2729 0ece 01       		.byte	0x1
 2730 0ecf BC01     		.2byte	0x1bc
 2731 0ed1 F80E0000 		.4byte	0xef8
 2732 0ed5 25       		.uleb128 0x25
 2733 0ed6 5E080000 		.4byte	0x85e
 2734 0eda 28040000 		.4byte	.LLST38
 2735 0ede 24       		.uleb128 0x24
 2736 0edf 39070000 		.4byte	0x739
ARM GAS  /var/folders/m4/4md61f0s1_g0rzfghffqnxvr0000gn/T//cco5YJlY.s 			page 49


 2737 0ee3 16000000 		.4byte	.LBB201
 2738 0ee7 02000000 		.4byte	.LBE201-.LBB201
 2739 0eeb 0C       		.byte	0xc
 2740 0eec 85       		.byte	0x85
 2741 0eed 25       		.uleb128 0x25
 2742 0eee 4A070000 		.4byte	0x74a
 2743 0ef2 28040000 		.4byte	.LLST38
 2744 0ef6 00       		.byte	0
 2745 0ef7 00       		.byte	0
 2746 0ef8 36       		.uleb128 0x36
 2747 0ef9 69080000 		.4byte	0x869
 2748 0efd 2A000000 		.4byte	.LBB203
 2749 0f01 A8000000 		.4byte	.Ldebug_ranges0+0xa8
 2750 0f05 01       		.byte	0x1
 2751 0f06 CC01     		.2byte	0x1cc
 2752 0f08 250F0000 		.4byte	0xf25
 2753 0f0c 25       		.uleb128 0x25
 2754 0f0d 7A080000 		.4byte	0x87a
 2755 0f11 3B040000 		.4byte	.LLST40
 2756 0f15 28       		.uleb128 0x28
 2757 0f16 A8000000 		.4byte	.Ldebug_ranges0+0xa8
 2758 0f1a 2B       		.uleb128 0x2b
 2759 0f1b 86080000 		.4byte	0x886
 2760 0f1f 4E040000 		.4byte	.LLST41
 2761 0f23 00       		.byte	0
 2762 0f24 00       		.byte	0
 2763 0f25 3F       		.uleb128 0x3f
 2764 0f26 42000000 		.4byte	.LVL81
 2765 0f2a BB100000 		.4byte	0x10bb
 2766 0f2e 00       		.byte	0
 2767 0f2f 00       		.byte	0
 2768 0f30 15       		.uleb128 0x15
 2769 0f31 D0060000 		.4byte	0x6d0
 2770 0f35 400F0000 		.4byte	0xf40
 2771 0f39 16       		.uleb128 0x16
 2772 0f3a 5F040000 		.4byte	0x45f
 2773 0f3e 0C       		.byte	0xc
 2774 0f3f 00       		.byte	0
 2775 0f40 13       		.uleb128 0x13
 2776 0f41 300F0000 		.4byte	0xf30
 2777 0f45 39       		.uleb128 0x39
 2778 0f46 80030000 		.4byte	.LASF125
 2779 0f4a 01       		.byte	0x1
 2780 0f4b E501     		.2byte	0x1e5
 2781 0f4d 00000000 		.4byte	.LFB238
 2782 0f51 54000000 		.4byte	.LFE238-.LFB238
 2783 0f55 01       		.uleb128 0x1
 2784 0f56 9C       		.byte	0x9c
 2785 0f57 93100000 		.4byte	0x1093
 2786 0f5b 3B       		.uleb128 0x3b
 2787 0f5c 63747000 		.ascii	"ctp\000"
 2788 0f60 01       		.byte	0x1
 2789 0f61 E601     		.2byte	0x1e6
 2790 0f63 4C020000 		.4byte	0x24c
 2791 0f67 61040000 		.4byte	.LLST42
 2792 0f6b 36       		.uleb128 0x36
 2793 0f6c 06080000 		.4byte	0x806
ARM GAS  /var/folders/m4/4md61f0s1_g0rzfghffqnxvr0000gn/T//cco5YJlY.s 			page 50


 2794 0f70 04000000 		.4byte	.LBB210
 2795 0f74 C8000000 		.4byte	.Ldebug_ranges0+0xc8
 2796 0f78 01       		.byte	0x1
 2797 0f79 E801     		.2byte	0x1e8
 2798 0f7b AB0F0000 		.4byte	0xfab
 2799 0f7f 37       		.uleb128 0x37
 2800 0f80 27070000 		.4byte	0x727
 2801 0f84 04000000 		.4byte	.LBB211
 2802 0f88 C8000000 		.4byte	.Ldebug_ranges0+0xc8
 2803 0f8c 0D       		.byte	0xd
 2804 0f8d 5C01     		.2byte	0x15c
 2805 0f8f 37       		.uleb128 0x37
 2806 0f90 0D070000 		.4byte	0x70d
 2807 0f94 04000000 		.4byte	.LBB212
 2808 0f98 C8000000 		.4byte	.Ldebug_ranges0+0xc8
 2809 0f9c 09       		.byte	0x9
 2810 0f9d D001     		.2byte	0x1d0
 2811 0f9f 25       		.uleb128 0x25
 2812 0fa0 1A070000 		.4byte	0x71a
 2813 0fa4 74040000 		.4byte	.LLST43
 2814 0fa8 00       		.byte	0
 2815 0fa9 00       		.byte	0
 2816 0faa 00       		.byte	0
 2817 0fab 40       		.uleb128 0x40
 2818 0fac E0000000 		.4byte	.Ldebug_ranges0+0xe0
 2819 0fb0 3A100000 		.4byte	0x103a
 2820 0fb4 3B       		.uleb128 0x3b
 2821 0fb5 6D7000   		.ascii	"mp\000"
 2822 0fb8 01       		.byte	0x1
 2823 0fb9 EB01     		.2byte	0x1eb
 2824 0fbb 07070000 		.4byte	0x707
 2825 0fbf 89040000 		.4byte	.LLST44
 2826 0fc3 40       		.uleb128 0x40
 2827 0fc4 F8000000 		.4byte	.Ldebug_ranges0+0xf8
 2828 0fc8 0E100000 		.4byte	0x100e
 2829 0fcc 1C       		.uleb128 0x1c
 2830 0fcd 747000   		.ascii	"tp\000"
 2831 0fd0 01       		.byte	0x1
 2832 0fd1 F101     		.2byte	0x1f1
 2833 0fd3 4C020000 		.4byte	0x24c
 2834 0fd7 36       		.uleb128 0x36
 2835 0fd8 69080000 		.4byte	0x869
 2836 0fdc 14000000 		.4byte	.LBB220
 2837 0fe0 10010000 		.4byte	.Ldebug_ranges0+0x110
 2838 0fe4 01       		.byte	0x1
 2839 0fe5 F101     		.2byte	0x1f1
 2840 0fe7 04100000 		.4byte	0x1004
 2841 0feb 25       		.uleb128 0x25
 2842 0fec 7A080000 		.4byte	0x87a
 2843 0ff0 9D040000 		.4byte	.LLST45
 2844 0ff4 28       		.uleb128 0x28
 2845 0ff5 10010000 		.4byte	.Ldebug_ranges0+0x110
 2846 0ff9 2B       		.uleb128 0x2b
 2847 0ffa 86080000 		.4byte	0x886
 2848 0ffe BB040000 		.4byte	.LLST46
 2849 1002 00       		.byte	0
 2850 1003 00       		.byte	0
ARM GAS  /var/folders/m4/4md61f0s1_g0rzfghffqnxvr0000gn/T//cco5YJlY.s 			page 51


 2851 1004 30       		.uleb128 0x30
 2852 1005 26000000 		.4byte	.LVL87
 2853 1009 BB100000 		.4byte	0x10bb
 2854 100d 00       		.byte	0
 2855 100e 31       		.uleb128 0x31
 2856 100f 4E080000 		.4byte	0x84e
 2857 1013 2A000000 		.4byte	.LBB224
 2858 1017 02000000 		.4byte	.LBE224-.LBB224
 2859 101b 01       		.byte	0x1
 2860 101c ED01     		.2byte	0x1ed
 2861 101e 2D       		.uleb128 0x2d
 2862 101f 5E080000 		.4byte	0x85e
 2863 1023 24       		.uleb128 0x24
 2864 1024 39070000 		.4byte	0x739
 2865 1028 2A000000 		.4byte	.LBB226
 2866 102c 02000000 		.4byte	.LBE226-.LBB226
 2867 1030 0C       		.byte	0xc
 2868 1031 85       		.byte	0x85
 2869 1032 2D       		.uleb128 0x2d
 2870 1033 4A070000 		.4byte	0x74a
 2871 1037 00       		.byte	0
 2872 1038 00       		.byte	0
 2873 1039 00       		.byte	0
 2874 103a 35       		.uleb128 0x35
 2875 103b D6070000 		.4byte	0x7d6
 2876 103f 46000000 		.4byte	.LBB230
 2877 1043 0E000000 		.4byte	.LBE230-.LBB230
 2878 1047 01       		.byte	0x1
 2879 1048 0102     		.2byte	0x201
 2880 104a 89100000 		.4byte	0x1089
 2881 104e 2A       		.uleb128 0x2a
 2882 104f 46000000 		.4byte	.LBB231
 2883 1053 0E000000 		.4byte	.LBE231-.LBB231
 2884 1057 32       		.uleb128 0x32
 2885 1058 E3070000 		.4byte	0x7e3
 2886 105c 31       		.uleb128 0x31
 2887 105d 30070000 		.4byte	0x730
 2888 1061 46000000 		.4byte	.LBB232
 2889 1065 0E000000 		.4byte	.LBE232-.LBB232
 2890 1069 0D       		.byte	0xd
 2891 106a 7301     		.2byte	0x173
 2892 106c 31       		.uleb128 0x31
 2893 106d 0D070000 		.4byte	0x70d
 2894 1071 46000000 		.4byte	.LBB233
 2895 1075 0E000000 		.4byte	.LBE233-.LBB233
 2896 1079 09       		.byte	0x9
 2897 107a E301     		.2byte	0x1e3
 2898 107c 25       		.uleb128 0x25
 2899 107d 1A070000 		.4byte	0x71a
 2900 1081 D9040000 		.4byte	.LLST47
 2901 1085 00       		.byte	0
 2902 1086 00       		.byte	0
 2903 1087 00       		.byte	0
 2904 1088 00       		.byte	0
 2905 1089 30       		.uleb128 0x30
 2906 108a 46000000 		.4byte	.LVL93
 2907 108e C7100000 		.4byte	0x10c7
ARM GAS  /var/folders/m4/4md61f0s1_g0rzfghffqnxvr0000gn/T//cco5YJlY.s 			page 52


 2908 1092 00       		.byte	0
 2909 1093 41       		.uleb128 0x41
 2910 1094 B6010000 		.4byte	.LASF126
 2911 1098 0E       		.byte	0xe
 2912 1099 FA06     		.2byte	0x6fa
 2913 109b 9F100000 		.4byte	0x109f
 2914 109f 14       		.uleb128 0x14
 2915 10a0 A2000000 		.4byte	0xa2
 2916 10a4 42       		.uleb128 0x42
 2917 10a5 636800   		.ascii	"ch\000"
 2918 10a8 02       		.byte	0x2
 2919 10a9 0902     		.2byte	0x209
 2920 10ab F8030000 		.4byte	0x3f8
 2921 10af 43       		.uleb128 0x43
 2922 10b0 7A050000 		.4byte	.LASF127
 2923 10b4 7A050000 		.4byte	.LASF127
 2924 10b8 02       		.byte	0x2
 2925 10b9 1402     		.2byte	0x214
 2926 10bb 43       		.uleb128 0x43
 2927 10bc AB050000 		.4byte	.LASF128
 2928 10c0 AB050000 		.4byte	.LASF128
 2929 10c4 02       		.byte	0x2
 2930 10c5 1302     		.2byte	0x213
 2931 10c7 43       		.uleb128 0x43
 2932 10c8 7F020000 		.4byte	.LASF129
 2933 10cc 7F020000 		.4byte	.LASF129
 2934 10d0 02       		.byte	0x2
 2935 10d1 1702     		.2byte	0x217
 2936 10d3 00       		.byte	0
 2937              		.section	.debug_abbrev,"",%progbits
 2938              	.Ldebug_abbrev0:
 2939 0000 01       		.uleb128 0x1
 2940 0001 11       		.uleb128 0x11
 2941 0002 01       		.byte	0x1
 2942 0003 25       		.uleb128 0x25
 2943 0004 0E       		.uleb128 0xe
 2944 0005 13       		.uleb128 0x13
 2945 0006 0B       		.uleb128 0xb
 2946 0007 03       		.uleb128 0x3
 2947 0008 0E       		.uleb128 0xe
 2948 0009 1B       		.uleb128 0x1b
 2949 000a 0E       		.uleb128 0xe
 2950 000b 55       		.uleb128 0x55
 2951 000c 17       		.uleb128 0x17
 2952 000d 11       		.uleb128 0x11
 2953 000e 01       		.uleb128 0x1
 2954 000f 10       		.uleb128 0x10
 2955 0010 17       		.uleb128 0x17
 2956 0011 00       		.byte	0
 2957 0012 00       		.byte	0
 2958 0013 02       		.uleb128 0x2
 2959 0014 24       		.uleb128 0x24
 2960 0015 00       		.byte	0
 2961 0016 0B       		.uleb128 0xb
 2962 0017 0B       		.uleb128 0xb
 2963 0018 3E       		.uleb128 0x3e
 2964 0019 0B       		.uleb128 0xb
ARM GAS  /var/folders/m4/4md61f0s1_g0rzfghffqnxvr0000gn/T//cco5YJlY.s 			page 53


 2965 001a 03       		.uleb128 0x3
 2966 001b 08       		.uleb128 0x8
 2967 001c 00       		.byte	0
 2968 001d 00       		.byte	0
 2969 001e 03       		.uleb128 0x3
 2970 001f 24       		.uleb128 0x24
 2971 0020 00       		.byte	0
 2972 0021 0B       		.uleb128 0xb
 2973 0022 0B       		.uleb128 0xb
 2974 0023 3E       		.uleb128 0x3e
 2975 0024 0B       		.uleb128 0xb
 2976 0025 03       		.uleb128 0x3
 2977 0026 0E       		.uleb128 0xe
 2978 0027 00       		.byte	0
 2979 0028 00       		.byte	0
 2980 0029 04       		.uleb128 0x4
 2981 002a 16       		.uleb128 0x16
 2982 002b 00       		.byte	0
 2983 002c 03       		.uleb128 0x3
 2984 002d 0E       		.uleb128 0xe
 2985 002e 3A       		.uleb128 0x3a
 2986 002f 0B       		.uleb128 0xb
 2987 0030 3B       		.uleb128 0x3b
 2988 0031 0B       		.uleb128 0xb
 2989 0032 49       		.uleb128 0x49
 2990 0033 13       		.uleb128 0x13
 2991 0034 00       		.byte	0
 2992 0035 00       		.byte	0
 2993 0036 05       		.uleb128 0x5
 2994 0037 13       		.uleb128 0x13
 2995 0038 01       		.byte	0x1
 2996 0039 03       		.uleb128 0x3
 2997 003a 0E       		.uleb128 0xe
 2998 003b 0B       		.uleb128 0xb
 2999 003c 0B       		.uleb128 0xb
 3000 003d 3A       		.uleb128 0x3a
 3001 003e 0B       		.uleb128 0xb
 3002 003f 3B       		.uleb128 0x3b
 3003 0040 0B       		.uleb128 0xb
 3004 0041 01       		.uleb128 0x1
 3005 0042 13       		.uleb128 0x13
 3006 0043 00       		.byte	0
 3007 0044 00       		.byte	0
 3008 0045 06       		.uleb128 0x6
 3009 0046 0D       		.uleb128 0xd
 3010 0047 00       		.byte	0
 3011 0048 03       		.uleb128 0x3
 3012 0049 0E       		.uleb128 0xe
 3013 004a 3A       		.uleb128 0x3a
 3014 004b 0B       		.uleb128 0xb
 3015 004c 3B       		.uleb128 0x3b
 3016 004d 0B       		.uleb128 0xb
 3017 004e 49       		.uleb128 0x49
 3018 004f 13       		.uleb128 0x13
 3019 0050 38       		.uleb128 0x38
 3020 0051 0B       		.uleb128 0xb
 3021 0052 00       		.byte	0
ARM GAS  /var/folders/m4/4md61f0s1_g0rzfghffqnxvr0000gn/T//cco5YJlY.s 			page 54


 3022 0053 00       		.byte	0
 3023 0054 07       		.uleb128 0x7
 3024 0055 0D       		.uleb128 0xd
 3025 0056 00       		.byte	0
 3026 0057 03       		.uleb128 0x3
 3027 0058 08       		.uleb128 0x8
 3028 0059 3A       		.uleb128 0x3a
 3029 005a 0B       		.uleb128 0xb
 3030 005b 3B       		.uleb128 0x3b
 3031 005c 05       		.uleb128 0x5
 3032 005d 49       		.uleb128 0x49
 3033 005e 13       		.uleb128 0x13
 3034 005f 38       		.uleb128 0x38
 3035 0060 0B       		.uleb128 0xb
 3036 0061 00       		.byte	0
 3037 0062 00       		.byte	0
 3038 0063 08       		.uleb128 0x8
 3039 0064 0D       		.uleb128 0xd
 3040 0065 00       		.byte	0
 3041 0066 03       		.uleb128 0x3
 3042 0067 0E       		.uleb128 0xe
 3043 0068 3A       		.uleb128 0x3a
 3044 0069 0B       		.uleb128 0xb
 3045 006a 3B       		.uleb128 0x3b
 3046 006b 05       		.uleb128 0x5
 3047 006c 49       		.uleb128 0x49
 3048 006d 13       		.uleb128 0x13
 3049 006e 38       		.uleb128 0x38
 3050 006f 0B       		.uleb128 0xb
 3051 0070 00       		.byte	0
 3052 0071 00       		.byte	0
 3053 0072 09       		.uleb128 0x9
 3054 0073 0F       		.uleb128 0xf
 3055 0074 00       		.byte	0
 3056 0075 0B       		.uleb128 0xb
 3057 0076 0B       		.uleb128 0xb
 3058 0077 49       		.uleb128 0x49
 3059 0078 13       		.uleb128 0x13
 3060 0079 00       		.byte	0
 3061 007a 00       		.byte	0
 3062 007b 0A       		.uleb128 0xa
 3063 007c 13       		.uleb128 0x13
 3064 007d 01       		.byte	0x1
 3065 007e 03       		.uleb128 0x3
 3066 007f 0E       		.uleb128 0xe
 3067 0080 0B       		.uleb128 0xb
 3068 0081 0B       		.uleb128 0xb
 3069 0082 3A       		.uleb128 0x3a
 3070 0083 0B       		.uleb128 0xb
 3071 0084 3B       		.uleb128 0x3b
 3072 0085 05       		.uleb128 0x5
 3073 0086 01       		.uleb128 0x1
 3074 0087 13       		.uleb128 0x13
 3075 0088 00       		.byte	0
 3076 0089 00       		.byte	0
 3077 008a 0B       		.uleb128 0xb
 3078 008b 15       		.uleb128 0x15
ARM GAS  /var/folders/m4/4md61f0s1_g0rzfghffqnxvr0000gn/T//cco5YJlY.s 			page 55


 3079 008c 01       		.byte	0x1
 3080 008d 27       		.uleb128 0x27
 3081 008e 19       		.uleb128 0x19
 3082 008f 01       		.uleb128 0x1
 3083 0090 13       		.uleb128 0x13
 3084 0091 00       		.byte	0
 3085 0092 00       		.byte	0
 3086 0093 0C       		.uleb128 0xc
 3087 0094 05       		.uleb128 0x5
 3088 0095 00       		.byte	0
 3089 0096 49       		.uleb128 0x49
 3090 0097 13       		.uleb128 0x13
 3091 0098 00       		.byte	0
 3092 0099 00       		.byte	0
 3093 009a 0D       		.uleb128 0xd
 3094 009b 0F       		.uleb128 0xf
 3095 009c 00       		.byte	0
 3096 009d 0B       		.uleb128 0xb
 3097 009e 0B       		.uleb128 0xb
 3098 009f 00       		.byte	0
 3099 00a0 00       		.byte	0
 3100 00a1 0E       		.uleb128 0xe
 3101 00a2 13       		.uleb128 0x13
 3102 00a3 01       		.byte	0x1
 3103 00a4 03       		.uleb128 0x3
 3104 00a5 0E       		.uleb128 0xe
 3105 00a6 0B       		.uleb128 0xb
 3106 00a7 05       		.uleb128 0x5
 3107 00a8 3A       		.uleb128 0x3a
 3108 00a9 0B       		.uleb128 0xb
 3109 00aa 3B       		.uleb128 0x3b
 3110 00ab 05       		.uleb128 0x5
 3111 00ac 01       		.uleb128 0x1
 3112 00ad 13       		.uleb128 0x13
 3113 00ae 00       		.byte	0
 3114 00af 00       		.byte	0
 3115 00b0 0F       		.uleb128 0xf
 3116 00b1 0D       		.uleb128 0xd
 3117 00b2 00       		.byte	0
 3118 00b3 03       		.uleb128 0x3
 3119 00b4 08       		.uleb128 0x8
 3120 00b5 3A       		.uleb128 0x3a
 3121 00b6 0B       		.uleb128 0xb
 3122 00b7 3B       		.uleb128 0x3b
 3123 00b8 0B       		.uleb128 0xb
 3124 00b9 49       		.uleb128 0x49
 3125 00ba 13       		.uleb128 0x13
 3126 00bb 38       		.uleb128 0x38
 3127 00bc 0B       		.uleb128 0xb
 3128 00bd 00       		.byte	0
 3129 00be 00       		.byte	0
 3130 00bf 10       		.uleb128 0x10
 3131 00c0 13       		.uleb128 0x13
 3132 00c1 01       		.byte	0x1
 3133 00c2 0B       		.uleb128 0xb
 3134 00c3 0B       		.uleb128 0xb
 3135 00c4 3A       		.uleb128 0x3a
ARM GAS  /var/folders/m4/4md61f0s1_g0rzfghffqnxvr0000gn/T//cco5YJlY.s 			page 56


 3136 00c5 0B       		.uleb128 0xb
 3137 00c6 3B       		.uleb128 0x3b
 3138 00c7 0B       		.uleb128 0xb
 3139 00c8 01       		.uleb128 0x1
 3140 00c9 13       		.uleb128 0x13
 3141 00ca 00       		.byte	0
 3142 00cb 00       		.byte	0
 3143 00cc 11       		.uleb128 0x11
 3144 00cd 17       		.uleb128 0x17
 3145 00ce 01       		.byte	0x1
 3146 00cf 0B       		.uleb128 0xb
 3147 00d0 0B       		.uleb128 0xb
 3148 00d1 3A       		.uleb128 0x3a
 3149 00d2 0B       		.uleb128 0xb
 3150 00d3 3B       		.uleb128 0x3b
 3151 00d4 0B       		.uleb128 0xb
 3152 00d5 01       		.uleb128 0x1
 3153 00d6 13       		.uleb128 0x13
 3154 00d7 00       		.byte	0
 3155 00d8 00       		.byte	0
 3156 00d9 12       		.uleb128 0x12
 3157 00da 0D       		.uleb128 0xd
 3158 00db 00       		.byte	0
 3159 00dc 03       		.uleb128 0x3
 3160 00dd 0E       		.uleb128 0xe
 3161 00de 3A       		.uleb128 0x3a
 3162 00df 0B       		.uleb128 0xb
 3163 00e0 3B       		.uleb128 0x3b
 3164 00e1 05       		.uleb128 0x5
 3165 00e2 49       		.uleb128 0x49
 3166 00e3 13       		.uleb128 0x13
 3167 00e4 00       		.byte	0
 3168 00e5 00       		.byte	0
 3169 00e6 13       		.uleb128 0x13
 3170 00e7 26       		.uleb128 0x26
 3171 00e8 00       		.byte	0
 3172 00e9 49       		.uleb128 0x49
 3173 00ea 13       		.uleb128 0x13
 3174 00eb 00       		.byte	0
 3175 00ec 00       		.byte	0
 3176 00ed 14       		.uleb128 0x14
 3177 00ee 35       		.uleb128 0x35
 3178 00ef 00       		.byte	0
 3179 00f0 49       		.uleb128 0x49
 3180 00f1 13       		.uleb128 0x13
 3181 00f2 00       		.byte	0
 3182 00f3 00       		.byte	0
 3183 00f4 15       		.uleb128 0x15
 3184 00f5 01       		.uleb128 0x1
 3185 00f6 01       		.byte	0x1
 3186 00f7 49       		.uleb128 0x49
 3187 00f8 13       		.uleb128 0x13
 3188 00f9 01       		.uleb128 0x1
 3189 00fa 13       		.uleb128 0x13
 3190 00fb 00       		.byte	0
 3191 00fc 00       		.byte	0
 3192 00fd 16       		.uleb128 0x16
ARM GAS  /var/folders/m4/4md61f0s1_g0rzfghffqnxvr0000gn/T//cco5YJlY.s 			page 57


 3193 00fe 21       		.uleb128 0x21
 3194 00ff 00       		.byte	0
 3195 0100 49       		.uleb128 0x49
 3196 0101 13       		.uleb128 0x13
 3197 0102 2F       		.uleb128 0x2f
 3198 0103 0B       		.uleb128 0xb
 3199 0104 00       		.byte	0
 3200 0105 00       		.byte	0
 3201 0106 17       		.uleb128 0x17
 3202 0107 2E       		.uleb128 0x2e
 3203 0108 01       		.byte	0x1
 3204 0109 03       		.uleb128 0x3
 3205 010a 0E       		.uleb128 0xe
 3206 010b 3A       		.uleb128 0x3a
 3207 010c 0B       		.uleb128 0xb
 3208 010d 3B       		.uleb128 0x3b
 3209 010e 05       		.uleb128 0x5
 3210 010f 27       		.uleb128 0x27
 3211 0110 19       		.uleb128 0x19
 3212 0111 20       		.uleb128 0x20
 3213 0112 0B       		.uleb128 0xb
 3214 0113 01       		.uleb128 0x1
 3215 0114 13       		.uleb128 0x13
 3216 0115 00       		.byte	0
 3217 0116 00       		.byte	0
 3218 0117 18       		.uleb128 0x18
 3219 0118 05       		.uleb128 0x5
 3220 0119 00       		.byte	0
 3221 011a 03       		.uleb128 0x3
 3222 011b 0E       		.uleb128 0xe
 3223 011c 3A       		.uleb128 0x3a
 3224 011d 0B       		.uleb128 0xb
 3225 011e 3B       		.uleb128 0x3b
 3226 011f 05       		.uleb128 0x5
 3227 0120 49       		.uleb128 0x49
 3228 0121 13       		.uleb128 0x13
 3229 0122 00       		.byte	0
 3230 0123 00       		.byte	0
 3231 0124 19       		.uleb128 0x19
 3232 0125 2E       		.uleb128 0x2e
 3233 0126 00       		.byte	0
 3234 0127 03       		.uleb128 0x3
 3235 0128 0E       		.uleb128 0xe
 3236 0129 3A       		.uleb128 0x3a
 3237 012a 0B       		.uleb128 0xb
 3238 012b 3B       		.uleb128 0x3b
 3239 012c 05       		.uleb128 0x5
 3240 012d 27       		.uleb128 0x27
 3241 012e 19       		.uleb128 0x19
 3242 012f 20       		.uleb128 0x20
 3243 0130 0B       		.uleb128 0xb
 3244 0131 00       		.byte	0
 3245 0132 00       		.byte	0
 3246 0133 1A       		.uleb128 0x1a
 3247 0134 2E       		.uleb128 0x2e
 3248 0135 01       		.byte	0x1
 3249 0136 03       		.uleb128 0x3
ARM GAS  /var/folders/m4/4md61f0s1_g0rzfghffqnxvr0000gn/T//cco5YJlY.s 			page 58


 3250 0137 0E       		.uleb128 0xe
 3251 0138 3A       		.uleb128 0x3a
 3252 0139 0B       		.uleb128 0xb
 3253 013a 3B       		.uleb128 0x3b
 3254 013b 05       		.uleb128 0x5
 3255 013c 27       		.uleb128 0x27
 3256 013d 19       		.uleb128 0x19
 3257 013e 49       		.uleb128 0x49
 3258 013f 13       		.uleb128 0x13
 3259 0140 20       		.uleb128 0x20
 3260 0141 0B       		.uleb128 0xb
 3261 0142 01       		.uleb128 0x1
 3262 0143 13       		.uleb128 0x13
 3263 0144 00       		.byte	0
 3264 0145 00       		.byte	0
 3265 0146 1B       		.uleb128 0x1b
 3266 0147 05       		.uleb128 0x5
 3267 0148 00       		.byte	0
 3268 0149 03       		.uleb128 0x3
 3269 014a 08       		.uleb128 0x8
 3270 014b 3A       		.uleb128 0x3a
 3271 014c 0B       		.uleb128 0xb
 3272 014d 3B       		.uleb128 0x3b
 3273 014e 05       		.uleb128 0x5
 3274 014f 49       		.uleb128 0x49
 3275 0150 13       		.uleb128 0x13
 3276 0151 00       		.byte	0
 3277 0152 00       		.byte	0
 3278 0153 1C       		.uleb128 0x1c
 3279 0154 34       		.uleb128 0x34
 3280 0155 00       		.byte	0
 3281 0156 03       		.uleb128 0x3
 3282 0157 08       		.uleb128 0x8
 3283 0158 3A       		.uleb128 0x3a
 3284 0159 0B       		.uleb128 0xb
 3285 015a 3B       		.uleb128 0x3b
 3286 015b 05       		.uleb128 0x5
 3287 015c 49       		.uleb128 0x49
 3288 015d 13       		.uleb128 0x13
 3289 015e 00       		.byte	0
 3290 015f 00       		.byte	0
 3291 0160 1D       		.uleb128 0x1d
 3292 0161 34       		.uleb128 0x34
 3293 0162 00       		.byte	0
 3294 0163 03       		.uleb128 0x3
 3295 0164 0E       		.uleb128 0xe
 3296 0165 49       		.uleb128 0x49
 3297 0166 13       		.uleb128 0x13
 3298 0167 34       		.uleb128 0x34
 3299 0168 19       		.uleb128 0x19
 3300 0169 1C       		.uleb128 0x1c
 3301 016a 0E       		.uleb128 0xe
 3302 016b 00       		.byte	0
 3303 016c 00       		.byte	0
 3304 016d 1E       		.uleb128 0x1e
 3305 016e 2E       		.uleb128 0x2e
 3306 016f 01       		.byte	0x1
ARM GAS  /var/folders/m4/4md61f0s1_g0rzfghffqnxvr0000gn/T//cco5YJlY.s 			page 59


 3307 0170 3F       		.uleb128 0x3f
 3308 0171 19       		.uleb128 0x19
 3309 0172 03       		.uleb128 0x3
 3310 0173 0E       		.uleb128 0xe
 3311 0174 3A       		.uleb128 0x3a
 3312 0175 0B       		.uleb128 0xb
 3313 0176 3B       		.uleb128 0x3b
 3314 0177 05       		.uleb128 0x5
 3315 0178 27       		.uleb128 0x27
 3316 0179 19       		.uleb128 0x19
 3317 017a 49       		.uleb128 0x49
 3318 017b 13       		.uleb128 0x13
 3319 017c 20       		.uleb128 0x20
 3320 017d 0B       		.uleb128 0xb
 3321 017e 01       		.uleb128 0x1
 3322 017f 13       		.uleb128 0x13
 3323 0180 00       		.byte	0
 3324 0181 00       		.byte	0
 3325 0182 1F       		.uleb128 0x1f
 3326 0183 2E       		.uleb128 0x2e
 3327 0184 01       		.byte	0x1
 3328 0185 03       		.uleb128 0x3
 3329 0186 0E       		.uleb128 0xe
 3330 0187 3A       		.uleb128 0x3a
 3331 0188 0B       		.uleb128 0xb
 3332 0189 3B       		.uleb128 0x3b
 3333 018a 0B       		.uleb128 0xb
 3334 018b 27       		.uleb128 0x27
 3335 018c 19       		.uleb128 0x19
 3336 018d 49       		.uleb128 0x49
 3337 018e 13       		.uleb128 0x13
 3338 018f 20       		.uleb128 0x20
 3339 0190 0B       		.uleb128 0xb
 3340 0191 01       		.uleb128 0x1
 3341 0192 13       		.uleb128 0x13
 3342 0193 00       		.byte	0
 3343 0194 00       		.byte	0
 3344 0195 20       		.uleb128 0x20
 3345 0196 05       		.uleb128 0x5
 3346 0197 00       		.byte	0
 3347 0198 03       		.uleb128 0x3
 3348 0199 08       		.uleb128 0x8
 3349 019a 3A       		.uleb128 0x3a
 3350 019b 0B       		.uleb128 0xb
 3351 019c 3B       		.uleb128 0x3b
 3352 019d 0B       		.uleb128 0xb
 3353 019e 49       		.uleb128 0x49
 3354 019f 13       		.uleb128 0x13
 3355 01a0 00       		.byte	0
 3356 01a1 00       		.byte	0
 3357 01a2 21       		.uleb128 0x21
 3358 01a3 2E       		.uleb128 0x2e
 3359 01a4 01       		.byte	0x1
 3360 01a5 3F       		.uleb128 0x3f
 3361 01a6 19       		.uleb128 0x19
 3362 01a7 03       		.uleb128 0x3
 3363 01a8 0E       		.uleb128 0xe
ARM GAS  /var/folders/m4/4md61f0s1_g0rzfghffqnxvr0000gn/T//cco5YJlY.s 			page 60


 3364 01a9 3A       		.uleb128 0x3a
 3365 01aa 0B       		.uleb128 0xb
 3366 01ab 3B       		.uleb128 0x3b
 3367 01ac 0B       		.uleb128 0xb
 3368 01ad 27       		.uleb128 0x27
 3369 01ae 19       		.uleb128 0x19
 3370 01af 11       		.uleb128 0x11
 3371 01b0 01       		.uleb128 0x1
 3372 01b1 12       		.uleb128 0x12
 3373 01b2 06       		.uleb128 0x6
 3374 01b3 40       		.uleb128 0x40
 3375 01b4 18       		.uleb128 0x18
 3376 01b5 9742     		.uleb128 0x2117
 3377 01b7 19       		.uleb128 0x19
 3378 01b8 01       		.uleb128 0x1
 3379 01b9 13       		.uleb128 0x13
 3380 01ba 00       		.byte	0
 3381 01bb 00       		.byte	0
 3382 01bc 22       		.uleb128 0x22
 3383 01bd 05       		.uleb128 0x5
 3384 01be 00       		.byte	0
 3385 01bf 03       		.uleb128 0x3
 3386 01c0 08       		.uleb128 0x8
 3387 01c1 3A       		.uleb128 0x3a
 3388 01c2 0B       		.uleb128 0xb
 3389 01c3 3B       		.uleb128 0x3b
 3390 01c4 0B       		.uleb128 0xb
 3391 01c5 49       		.uleb128 0x49
 3392 01c6 13       		.uleb128 0x13
 3393 01c7 02       		.uleb128 0x2
 3394 01c8 18       		.uleb128 0x18
 3395 01c9 00       		.byte	0
 3396 01ca 00       		.byte	0
 3397 01cb 23       		.uleb128 0x23
 3398 01cc 34       		.uleb128 0x34
 3399 01cd 00       		.byte	0
 3400 01ce 03       		.uleb128 0x3
 3401 01cf 0E       		.uleb128 0xe
 3402 01d0 49       		.uleb128 0x49
 3403 01d1 13       		.uleb128 0x13
 3404 01d2 34       		.uleb128 0x34
 3405 01d3 19       		.uleb128 0x19
 3406 01d4 00       		.byte	0
 3407 01d5 00       		.byte	0
 3408 01d6 24       		.uleb128 0x24
 3409 01d7 1D       		.uleb128 0x1d
 3410 01d8 01       		.byte	0x1
 3411 01d9 31       		.uleb128 0x31
 3412 01da 13       		.uleb128 0x13
 3413 01db 11       		.uleb128 0x11
 3414 01dc 01       		.uleb128 0x1
 3415 01dd 12       		.uleb128 0x12
 3416 01de 06       		.uleb128 0x6
 3417 01df 58       		.uleb128 0x58
 3418 01e0 0B       		.uleb128 0xb
 3419 01e1 59       		.uleb128 0x59
 3420 01e2 0B       		.uleb128 0xb
ARM GAS  /var/folders/m4/4md61f0s1_g0rzfghffqnxvr0000gn/T//cco5YJlY.s 			page 61


 3421 01e3 00       		.byte	0
 3422 01e4 00       		.byte	0
 3423 01e5 25       		.uleb128 0x25
 3424 01e6 05       		.uleb128 0x5
 3425 01e7 00       		.byte	0
 3426 01e8 31       		.uleb128 0x31
 3427 01e9 13       		.uleb128 0x13
 3428 01ea 02       		.uleb128 0x2
 3429 01eb 17       		.uleb128 0x17
 3430 01ec 00       		.byte	0
 3431 01ed 00       		.byte	0
 3432 01ee 26       		.uleb128 0x26
 3433 01ef 05       		.uleb128 0x5
 3434 01f0 00       		.byte	0
 3435 01f1 03       		.uleb128 0x3
 3436 01f2 08       		.uleb128 0x8
 3437 01f3 3A       		.uleb128 0x3a
 3438 01f4 0B       		.uleb128 0xb
 3439 01f5 3B       		.uleb128 0x3b
 3440 01f6 0B       		.uleb128 0xb
 3441 01f7 49       		.uleb128 0x49
 3442 01f8 13       		.uleb128 0x13
 3443 01f9 02       		.uleb128 0x2
 3444 01fa 17       		.uleb128 0x17
 3445 01fb 00       		.byte	0
 3446 01fc 00       		.byte	0
 3447 01fd 27       		.uleb128 0x27
 3448 01fe 34       		.uleb128 0x34
 3449 01ff 00       		.byte	0
 3450 0200 03       		.uleb128 0x3
 3451 0201 08       		.uleb128 0x8
 3452 0202 3A       		.uleb128 0x3a
 3453 0203 0B       		.uleb128 0xb
 3454 0204 3B       		.uleb128 0x3b
 3455 0205 0B       		.uleb128 0xb
 3456 0206 49       		.uleb128 0x49
 3457 0207 13       		.uleb128 0x13
 3458 0208 02       		.uleb128 0x2
 3459 0209 17       		.uleb128 0x17
 3460 020a 00       		.byte	0
 3461 020b 00       		.byte	0
 3462 020c 28       		.uleb128 0x28
 3463 020d 0B       		.uleb128 0xb
 3464 020e 01       		.byte	0x1
 3465 020f 55       		.uleb128 0x55
 3466 0210 17       		.uleb128 0x17
 3467 0211 00       		.byte	0
 3468 0212 00       		.byte	0
 3469 0213 29       		.uleb128 0x29
 3470 0214 1D       		.uleb128 0x1d
 3471 0215 01       		.byte	0x1
 3472 0216 31       		.uleb128 0x31
 3473 0217 13       		.uleb128 0x13
 3474 0218 11       		.uleb128 0x11
 3475 0219 01       		.uleb128 0x1
 3476 021a 12       		.uleb128 0x12
 3477 021b 06       		.uleb128 0x6
ARM GAS  /var/folders/m4/4md61f0s1_g0rzfghffqnxvr0000gn/T//cco5YJlY.s 			page 62


 3478 021c 58       		.uleb128 0x58
 3479 021d 0B       		.uleb128 0xb
 3480 021e 59       		.uleb128 0x59
 3481 021f 0B       		.uleb128 0xb
 3482 0220 01       		.uleb128 0x1
 3483 0221 13       		.uleb128 0x13
 3484 0222 00       		.byte	0
 3485 0223 00       		.byte	0
 3486 0224 2A       		.uleb128 0x2a
 3487 0225 0B       		.uleb128 0xb
 3488 0226 01       		.byte	0x1
 3489 0227 11       		.uleb128 0x11
 3490 0228 01       		.uleb128 0x1
 3491 0229 12       		.uleb128 0x12
 3492 022a 06       		.uleb128 0x6
 3493 022b 00       		.byte	0
 3494 022c 00       		.byte	0
 3495 022d 2B       		.uleb128 0x2b
 3496 022e 34       		.uleb128 0x34
 3497 022f 00       		.byte	0
 3498 0230 31       		.uleb128 0x31
 3499 0231 13       		.uleb128 0x13
 3500 0232 02       		.uleb128 0x2
 3501 0233 17       		.uleb128 0x17
 3502 0234 00       		.byte	0
 3503 0235 00       		.byte	0
 3504 0236 2C       		.uleb128 0x2c
 3505 0237 1D       		.uleb128 0x1d
 3506 0238 01       		.byte	0x1
 3507 0239 31       		.uleb128 0x31
 3508 023a 13       		.uleb128 0x13
 3509 023b 52       		.uleb128 0x52
 3510 023c 01       		.uleb128 0x1
 3511 023d 55       		.uleb128 0x55
 3512 023e 17       		.uleb128 0x17
 3513 023f 58       		.uleb128 0x58
 3514 0240 0B       		.uleb128 0xb
 3515 0241 59       		.uleb128 0x59
 3516 0242 0B       		.uleb128 0xb
 3517 0243 01       		.uleb128 0x1
 3518 0244 13       		.uleb128 0x13
 3519 0245 00       		.byte	0
 3520 0246 00       		.byte	0
 3521 0247 2D       		.uleb128 0x2d
 3522 0248 05       		.uleb128 0x5
 3523 0249 00       		.byte	0
 3524 024a 31       		.uleb128 0x31
 3525 024b 13       		.uleb128 0x13
 3526 024c 00       		.byte	0
 3527 024d 00       		.byte	0
 3528 024e 2E       		.uleb128 0x2e
 3529 024f 898201   		.uleb128 0x4109
 3530 0252 01       		.byte	0x1
 3531 0253 11       		.uleb128 0x11
 3532 0254 01       		.uleb128 0x1
 3533 0255 9542     		.uleb128 0x2115
 3534 0257 19       		.uleb128 0x19
ARM GAS  /var/folders/m4/4md61f0s1_g0rzfghffqnxvr0000gn/T//cco5YJlY.s 			page 63


 3535 0258 31       		.uleb128 0x31
 3536 0259 13       		.uleb128 0x13
 3537 025a 01       		.uleb128 0x1
 3538 025b 13       		.uleb128 0x13
 3539 025c 00       		.byte	0
 3540 025d 00       		.byte	0
 3541 025e 2F       		.uleb128 0x2f
 3542 025f 8A8201   		.uleb128 0x410a
 3543 0262 00       		.byte	0
 3544 0263 02       		.uleb128 0x2
 3545 0264 18       		.uleb128 0x18
 3546 0265 9142     		.uleb128 0x2111
 3547 0267 18       		.uleb128 0x18
 3548 0268 00       		.byte	0
 3549 0269 00       		.byte	0
 3550 026a 30       		.uleb128 0x30
 3551 026b 898201   		.uleb128 0x4109
 3552 026e 00       		.byte	0
 3553 026f 11       		.uleb128 0x11
 3554 0270 01       		.uleb128 0x1
 3555 0271 31       		.uleb128 0x31
 3556 0272 13       		.uleb128 0x13
 3557 0273 00       		.byte	0
 3558 0274 00       		.byte	0
 3559 0275 31       		.uleb128 0x31
 3560 0276 1D       		.uleb128 0x1d
 3561 0277 01       		.byte	0x1
 3562 0278 31       		.uleb128 0x31
 3563 0279 13       		.uleb128 0x13
 3564 027a 11       		.uleb128 0x11
 3565 027b 01       		.uleb128 0x1
 3566 027c 12       		.uleb128 0x12
 3567 027d 06       		.uleb128 0x6
 3568 027e 58       		.uleb128 0x58
 3569 027f 0B       		.uleb128 0xb
 3570 0280 59       		.uleb128 0x59
 3571 0281 05       		.uleb128 0x5
 3572 0282 00       		.byte	0
 3573 0283 00       		.byte	0
 3574 0284 32       		.uleb128 0x32
 3575 0285 34       		.uleb128 0x34
 3576 0286 00       		.byte	0
 3577 0287 31       		.uleb128 0x31
 3578 0288 13       		.uleb128 0x13
 3579 0289 00       		.byte	0
 3580 028a 00       		.byte	0
 3581 028b 33       		.uleb128 0x33
 3582 028c 898201   		.uleb128 0x4109
 3583 028f 01       		.byte	0x1
 3584 0290 11       		.uleb128 0x11
 3585 0291 01       		.uleb128 0x1
 3586 0292 31       		.uleb128 0x31
 3587 0293 13       		.uleb128 0x13
 3588 0294 00       		.byte	0
 3589 0295 00       		.byte	0
 3590 0296 34       		.uleb128 0x34
 3591 0297 2E       		.uleb128 0x2e
ARM GAS  /var/folders/m4/4md61f0s1_g0rzfghffqnxvr0000gn/T//cco5YJlY.s 			page 64


 3592 0298 01       		.byte	0x1
 3593 0299 3F       		.uleb128 0x3f
 3594 029a 19       		.uleb128 0x19
 3595 029b 03       		.uleb128 0x3
 3596 029c 0E       		.uleb128 0xe
 3597 029d 3A       		.uleb128 0x3a
 3598 029e 0B       		.uleb128 0xb
 3599 029f 3B       		.uleb128 0x3b
 3600 02a0 0B       		.uleb128 0xb
 3601 02a1 27       		.uleb128 0x27
 3602 02a2 19       		.uleb128 0x19
 3603 02a3 49       		.uleb128 0x49
 3604 02a4 13       		.uleb128 0x13
 3605 02a5 11       		.uleb128 0x11
 3606 02a6 01       		.uleb128 0x1
 3607 02a7 12       		.uleb128 0x12
 3608 02a8 06       		.uleb128 0x6
 3609 02a9 40       		.uleb128 0x40
 3610 02aa 18       		.uleb128 0x18
 3611 02ab 9742     		.uleb128 0x2117
 3612 02ad 19       		.uleb128 0x19
 3613 02ae 01       		.uleb128 0x1
 3614 02af 13       		.uleb128 0x13
 3615 02b0 00       		.byte	0
 3616 02b1 00       		.byte	0
 3617 02b2 35       		.uleb128 0x35
 3618 02b3 1D       		.uleb128 0x1d
 3619 02b4 01       		.byte	0x1
 3620 02b5 31       		.uleb128 0x31
 3621 02b6 13       		.uleb128 0x13
 3622 02b7 11       		.uleb128 0x11
 3623 02b8 01       		.uleb128 0x1
 3624 02b9 12       		.uleb128 0x12
 3625 02ba 06       		.uleb128 0x6
 3626 02bb 58       		.uleb128 0x58
 3627 02bc 0B       		.uleb128 0xb
 3628 02bd 59       		.uleb128 0x59
 3629 02be 05       		.uleb128 0x5
 3630 02bf 01       		.uleb128 0x1
 3631 02c0 13       		.uleb128 0x13
 3632 02c1 00       		.byte	0
 3633 02c2 00       		.byte	0
 3634 02c3 36       		.uleb128 0x36
 3635 02c4 1D       		.uleb128 0x1d
 3636 02c5 01       		.byte	0x1
 3637 02c6 31       		.uleb128 0x31
 3638 02c7 13       		.uleb128 0x13
 3639 02c8 52       		.uleb128 0x52
 3640 02c9 01       		.uleb128 0x1
 3641 02ca 55       		.uleb128 0x55
 3642 02cb 17       		.uleb128 0x17
 3643 02cc 58       		.uleb128 0x58
 3644 02cd 0B       		.uleb128 0xb
 3645 02ce 59       		.uleb128 0x59
 3646 02cf 05       		.uleb128 0x5
 3647 02d0 01       		.uleb128 0x1
 3648 02d1 13       		.uleb128 0x13
ARM GAS  /var/folders/m4/4md61f0s1_g0rzfghffqnxvr0000gn/T//cco5YJlY.s 			page 65


 3649 02d2 00       		.byte	0
 3650 02d3 00       		.byte	0
 3651 02d4 37       		.uleb128 0x37
 3652 02d5 1D       		.uleb128 0x1d
 3653 02d6 01       		.byte	0x1
 3654 02d7 31       		.uleb128 0x31
 3655 02d8 13       		.uleb128 0x13
 3656 02d9 52       		.uleb128 0x52
 3657 02da 01       		.uleb128 0x1
 3658 02db 55       		.uleb128 0x55
 3659 02dc 17       		.uleb128 0x17
 3660 02dd 58       		.uleb128 0x58
 3661 02de 0B       		.uleb128 0xb
 3662 02df 59       		.uleb128 0x59
 3663 02e0 05       		.uleb128 0x5
 3664 02e1 00       		.byte	0
 3665 02e2 00       		.byte	0
 3666 02e3 38       		.uleb128 0x38
 3667 02e4 2E       		.uleb128 0x2e
 3668 02e5 01       		.byte	0x1
 3669 02e6 31       		.uleb128 0x31
 3670 02e7 13       		.uleb128 0x13
 3671 02e8 11       		.uleb128 0x11
 3672 02e9 01       		.uleb128 0x1
 3673 02ea 12       		.uleb128 0x12
 3674 02eb 06       		.uleb128 0x6
 3675 02ec 40       		.uleb128 0x40
 3676 02ed 18       		.uleb128 0x18
 3677 02ee 9742     		.uleb128 0x2117
 3678 02f0 19       		.uleb128 0x19
 3679 02f1 01       		.uleb128 0x1
 3680 02f2 13       		.uleb128 0x13
 3681 02f3 00       		.byte	0
 3682 02f4 00       		.byte	0
 3683 02f5 39       		.uleb128 0x39
 3684 02f6 2E       		.uleb128 0x2e
 3685 02f7 01       		.byte	0x1
 3686 02f8 3F       		.uleb128 0x3f
 3687 02f9 19       		.uleb128 0x19
 3688 02fa 03       		.uleb128 0x3
 3689 02fb 0E       		.uleb128 0xe
 3690 02fc 3A       		.uleb128 0x3a
 3691 02fd 0B       		.uleb128 0xb
 3692 02fe 3B       		.uleb128 0x3b
 3693 02ff 05       		.uleb128 0x5
 3694 0300 27       		.uleb128 0x27
 3695 0301 19       		.uleb128 0x19
 3696 0302 11       		.uleb128 0x11
 3697 0303 01       		.uleb128 0x1
 3698 0304 12       		.uleb128 0x12
 3699 0305 06       		.uleb128 0x6
 3700 0306 40       		.uleb128 0x40
 3701 0307 18       		.uleb128 0x18
 3702 0308 9742     		.uleb128 0x2117
 3703 030a 19       		.uleb128 0x19
 3704 030b 01       		.uleb128 0x1
 3705 030c 13       		.uleb128 0x13
ARM GAS  /var/folders/m4/4md61f0s1_g0rzfghffqnxvr0000gn/T//cco5YJlY.s 			page 66


 3706 030d 00       		.byte	0
 3707 030e 00       		.byte	0
 3708 030f 3A       		.uleb128 0x3a
 3709 0310 05       		.uleb128 0x5
 3710 0311 00       		.byte	0
 3711 0312 03       		.uleb128 0x3
 3712 0313 08       		.uleb128 0x8
 3713 0314 3A       		.uleb128 0x3a
 3714 0315 0B       		.uleb128 0xb
 3715 0316 3B       		.uleb128 0x3b
 3716 0317 05       		.uleb128 0x5
 3717 0318 49       		.uleb128 0x49
 3718 0319 13       		.uleb128 0x13
 3719 031a 02       		.uleb128 0x2
 3720 031b 17       		.uleb128 0x17
 3721 031c 00       		.byte	0
 3722 031d 00       		.byte	0
 3723 031e 3B       		.uleb128 0x3b
 3724 031f 34       		.uleb128 0x34
 3725 0320 00       		.byte	0
 3726 0321 03       		.uleb128 0x3
 3727 0322 08       		.uleb128 0x8
 3728 0323 3A       		.uleb128 0x3a
 3729 0324 0B       		.uleb128 0xb
 3730 0325 3B       		.uleb128 0x3b
 3731 0326 05       		.uleb128 0x5
 3732 0327 49       		.uleb128 0x49
 3733 0328 13       		.uleb128 0x13
 3734 0329 02       		.uleb128 0x2
 3735 032a 17       		.uleb128 0x17
 3736 032b 00       		.byte	0
 3737 032c 00       		.byte	0
 3738 032d 3C       		.uleb128 0x3c
 3739 032e 0B       		.uleb128 0xb
 3740 032f 01       		.byte	0x1
 3741 0330 11       		.uleb128 0x11
 3742 0331 01       		.uleb128 0x1
 3743 0332 12       		.uleb128 0x12
 3744 0333 06       		.uleb128 0x6
 3745 0334 01       		.uleb128 0x1
 3746 0335 13       		.uleb128 0x13
 3747 0336 00       		.byte	0
 3748 0337 00       		.byte	0
 3749 0338 3D       		.uleb128 0x3d
 3750 0339 34       		.uleb128 0x34
 3751 033a 00       		.byte	0
 3752 033b 03       		.uleb128 0x3
 3753 033c 0E       		.uleb128 0xe
 3754 033d 3A       		.uleb128 0x3a
 3755 033e 0B       		.uleb128 0xb
 3756 033f 3B       		.uleb128 0x3b
 3757 0340 05       		.uleb128 0x5
 3758 0341 49       		.uleb128 0x49
 3759 0342 13       		.uleb128 0x13
 3760 0343 02       		.uleb128 0x2
 3761 0344 17       		.uleb128 0x17
 3762 0345 00       		.byte	0
ARM GAS  /var/folders/m4/4md61f0s1_g0rzfghffqnxvr0000gn/T//cco5YJlY.s 			page 67


 3763 0346 00       		.byte	0
 3764 0347 3E       		.uleb128 0x3e
 3765 0348 898201   		.uleb128 0x4109
 3766 034b 01       		.byte	0x1
 3767 034c 11       		.uleb128 0x11
 3768 034d 01       		.uleb128 0x1
 3769 034e 31       		.uleb128 0x31
 3770 034f 13       		.uleb128 0x13
 3771 0350 01       		.uleb128 0x1
 3772 0351 13       		.uleb128 0x13
 3773 0352 00       		.byte	0
 3774 0353 00       		.byte	0
 3775 0354 3F       		.uleb128 0x3f
 3776 0355 898201   		.uleb128 0x4109
 3777 0358 00       		.byte	0
 3778 0359 11       		.uleb128 0x11
 3779 035a 01       		.uleb128 0x1
 3780 035b 9542     		.uleb128 0x2115
 3781 035d 19       		.uleb128 0x19
 3782 035e 31       		.uleb128 0x31
 3783 035f 13       		.uleb128 0x13
 3784 0360 00       		.byte	0
 3785 0361 00       		.byte	0
 3786 0362 40       		.uleb128 0x40
 3787 0363 0B       		.uleb128 0xb
 3788 0364 01       		.byte	0x1
 3789 0365 55       		.uleb128 0x55
 3790 0366 17       		.uleb128 0x17
 3791 0367 01       		.uleb128 0x1
 3792 0368 13       		.uleb128 0x13
 3793 0369 00       		.byte	0
 3794 036a 00       		.byte	0
 3795 036b 41       		.uleb128 0x41
 3796 036c 34       		.uleb128 0x34
 3797 036d 00       		.byte	0
 3798 036e 03       		.uleb128 0x3
 3799 036f 0E       		.uleb128 0xe
 3800 0370 3A       		.uleb128 0x3a
 3801 0371 0B       		.uleb128 0xb
 3802 0372 3B       		.uleb128 0x3b
 3803 0373 05       		.uleb128 0x5
 3804 0374 49       		.uleb128 0x49
 3805 0375 13       		.uleb128 0x13
 3806 0376 3F       		.uleb128 0x3f
 3807 0377 19       		.uleb128 0x19
 3808 0378 3C       		.uleb128 0x3c
 3809 0379 19       		.uleb128 0x19
 3810 037a 00       		.byte	0
 3811 037b 00       		.byte	0
 3812 037c 42       		.uleb128 0x42
 3813 037d 34       		.uleb128 0x34
 3814 037e 00       		.byte	0
 3815 037f 03       		.uleb128 0x3
 3816 0380 08       		.uleb128 0x8
 3817 0381 3A       		.uleb128 0x3a
 3818 0382 0B       		.uleb128 0xb
 3819 0383 3B       		.uleb128 0x3b
ARM GAS  /var/folders/m4/4md61f0s1_g0rzfghffqnxvr0000gn/T//cco5YJlY.s 			page 68


 3820 0384 05       		.uleb128 0x5
 3821 0385 49       		.uleb128 0x49
 3822 0386 13       		.uleb128 0x13
 3823 0387 3F       		.uleb128 0x3f
 3824 0388 19       		.uleb128 0x19
 3825 0389 3C       		.uleb128 0x3c
 3826 038a 19       		.uleb128 0x19
 3827 038b 00       		.byte	0
 3828 038c 00       		.byte	0
 3829 038d 43       		.uleb128 0x43
 3830 038e 2E       		.uleb128 0x2e
 3831 038f 00       		.byte	0
 3832 0390 3F       		.uleb128 0x3f
 3833 0391 19       		.uleb128 0x19
 3834 0392 3C       		.uleb128 0x3c
 3835 0393 19       		.uleb128 0x19
 3836 0394 6E       		.uleb128 0x6e
 3837 0395 0E       		.uleb128 0xe
 3838 0396 03       		.uleb128 0x3
 3839 0397 0E       		.uleb128 0xe
 3840 0398 3A       		.uleb128 0x3a
 3841 0399 0B       		.uleb128 0xb
 3842 039a 3B       		.uleb128 0x3b
 3843 039b 05       		.uleb128 0x5
 3844 039c 00       		.byte	0
 3845 039d 00       		.byte	0
 3846 039e 00       		.byte	0
 3847              		.section	.debug_loc,"",%progbits
 3848              	.Ldebug_loc0:
 3849              	.LLST0:
 3850 0000 00000000 		.4byte	.LVL0
 3851 0004 06000000 		.4byte	.LVL1
 3852 0008 0100     		.2byte	0x1
 3853 000a 50       		.byte	0x50
 3854 000b 00000000 		.4byte	0
 3855 000f 00000000 		.4byte	0
 3856              	.LLST1:
 3857 0013 00000000 		.4byte	.LVL2
 3858 0017 16000000 		.4byte	.LVL5
 3859 001b 0100     		.2byte	0x1
 3860 001d 50       		.byte	0x50
 3861 001e 16000000 		.4byte	.LVL5
 3862 0022 48000000 		.4byte	.LVL10
 3863 0026 0100     		.2byte	0x1
 3864 0028 55       		.byte	0x55
 3865 0029 48000000 		.4byte	.LVL10
 3866 002d 4C000000 		.4byte	.LVL11
 3867 0031 0400     		.2byte	0x4
 3868 0033 F3       		.byte	0xf3
 3869 0034 01       		.uleb128 0x1
 3870 0035 50       		.byte	0x50
 3871 0036 9F       		.byte	0x9f
 3872 0037 4C000000 		.4byte	.LVL11
 3873 003b B8000000 		.4byte	.LVL29
 3874 003f 0100     		.2byte	0x1
 3875 0041 55       		.byte	0x55
 3876 0042 B8000000 		.4byte	.LVL29
ARM GAS  /var/folders/m4/4md61f0s1_g0rzfghffqnxvr0000gn/T//cco5YJlY.s 			page 69


 3877 0046 C8000000 		.4byte	.LFE233
 3878 004a 0100     		.2byte	0x1
 3879 004c 50       		.byte	0x50
 3880 004d 00000000 		.4byte	0
 3881 0051 00000000 		.4byte	0
 3882              	.LLST2:
 3883 0055 08000000 		.4byte	.LVL3
 3884 0059 48000000 		.4byte	.LVL10
 3885 005d 0100     		.2byte	0x1
 3886 005f 54       		.byte	0x54
 3887 0060 4C000000 		.4byte	.LVL11
 3888 0064 C2000000 		.4byte	.LVL30
 3889 0068 0100     		.2byte	0x1
 3890 006a 54       		.byte	0x54
 3891 006b 00000000 		.4byte	0
 3892 006f 00000000 		.4byte	0
 3893              	.LLST3:
 3894 0073 14000000 		.4byte	.LVL4
 3895 0077 24000000 		.4byte	.LVL6
 3896 007b 0100     		.2byte	0x1
 3897 007d 52       		.byte	0x52
 3898 007e 4C000000 		.4byte	.LVL11
 3899 0082 5B000000 		.4byte	.LVL13-1
 3900 0086 0100     		.2byte	0x1
 3901 0088 52       		.byte	0x52
 3902 0089 5E000000 		.4byte	.LVL14
 3903 008d B8000000 		.4byte	.LVL29
 3904 0091 0100     		.2byte	0x1
 3905 0093 52       		.byte	0x52
 3906 0094 00000000 		.4byte	0
 3907 0098 00000000 		.4byte	0
 3908              	.LLST4:
 3909 009c 24000000 		.4byte	.LVL6
 3910 00a0 40000000 		.4byte	.LVL9
 3911 00a4 0100     		.2byte	0x1
 3912 00a6 55       		.byte	0x55
 3913 00a7 00000000 		.4byte	0
 3914 00ab 00000000 		.4byte	0
 3915              	.LLST5:
 3916 00af 24000000 		.4byte	.LVL6
 3917 00b3 40000000 		.4byte	.LVL9
 3918 00b7 0100     		.2byte	0x1
 3919 00b9 54       		.byte	0x54
 3920 00ba 00000000 		.4byte	0
 3921 00be 00000000 		.4byte	0
 3922              	.LLST6:
 3923 00c2 24000000 		.4byte	.LVL6
 3924 00c6 28000000 		.4byte	.LVL7
 3925 00ca 0100     		.2byte	0x1
 3926 00cc 55       		.byte	0x55
 3927 00cd 28000000 		.4byte	.LVL7
 3928 00d1 4B000000 		.4byte	.LVL11-1
 3929 00d5 0100     		.2byte	0x1
 3930 00d7 53       		.byte	0x53
 3931 00d8 00000000 		.4byte	0
 3932 00dc 00000000 		.4byte	0
 3933              	.LLST7:
ARM GAS  /var/folders/m4/4md61f0s1_g0rzfghffqnxvr0000gn/T//cco5YJlY.s 			page 70


 3934 00e0 4C000000 		.4byte	.LVL11
 3935 00e4 58000000 		.4byte	.LVL12
 3936 00e8 0100     		.2byte	0x1
 3937 00ea 52       		.byte	0x52
 3938 00eb 00000000 		.4byte	0
 3939 00ef 00000000 		.4byte	0
 3940              	.LLST8:
 3941 00f3 5E000000 		.4byte	.LVL14
 3942 00f7 68000000 		.4byte	.LVL15
 3943 00fb 0100     		.2byte	0x1
 3944 00fd 52       		.byte	0x52
 3945 00fe 00000000 		.4byte	0
 3946 0102 00000000 		.4byte	0
 3947              	.LLST9:
 3948 0106 6A000000 		.4byte	.LVL16
 3949 010a 86000000 		.4byte	.LVL20
 3950 010e 0100     		.2byte	0x1
 3951 0110 56       		.byte	0x56
 3952 0111 00000000 		.4byte	0
 3953 0115 00000000 		.4byte	0
 3954              	.LLST10:
 3955 0119 6E000000 		.4byte	.LVL17
 3956 011d 86000000 		.4byte	.LVL20
 3957 0121 0100     		.2byte	0x1
 3958 0123 53       		.byte	0x53
 3959 0124 00000000 		.4byte	0
 3960 0128 00000000 		.4byte	0
 3961              	.LLST11:
 3962 012c 86000000 		.4byte	.LVL20
 3963 0130 90000000 		.4byte	.LVL21
 3964 0134 0100     		.2byte	0x1
 3965 0136 52       		.byte	0x52
 3966 0137 00000000 		.4byte	0
 3967 013b 00000000 		.4byte	0
 3968              	.LLST12:
 3969 013f 92000000 		.4byte	.LVL22
 3970 0143 AC000000 		.4byte	.LVL26
 3971 0147 0100     		.2byte	0x1
 3972 0149 56       		.byte	0x56
 3973 014a 00000000 		.4byte	0
 3974 014e 00000000 		.4byte	0
 3975              	.LLST13:
 3976 0152 96000000 		.4byte	.LVL23
 3977 0156 B2000000 		.4byte	.LVL28
 3978 015a 0100     		.2byte	0x1
 3979 015c 53       		.byte	0x53
 3980 015d 00000000 		.4byte	0
 3981 0161 00000000 		.4byte	0
 3982              	.LLST14:
 3983 0165 00000000 		.4byte	.LVL31
 3984 0169 0B000000 		.4byte	.LVL33-1
 3985 016d 0100     		.2byte	0x1
 3986 016f 50       		.byte	0x50
 3987 0170 0B000000 		.4byte	.LVL33-1
 3988 0174 14000000 		.4byte	.LFE232
 3989 0178 0400     		.2byte	0x4
 3990 017a F3       		.byte	0xf3
ARM GAS  /var/folders/m4/4md61f0s1_g0rzfghffqnxvr0000gn/T//cco5YJlY.s 			page 71


 3991 017b 01       		.uleb128 0x1
 3992 017c 50       		.byte	0x50
 3993 017d 9F       		.byte	0x9f
 3994 017e 00000000 		.4byte	0
 3995 0182 00000000 		.4byte	0
 3996              	.LLST15:
 3997 0186 00000000 		.4byte	.LVL31
 3998 018a 08000000 		.4byte	.LVL32
 3999 018e 0300     		.2byte	0x3
 4000 0190 08       		.byte	0x8
 4001 0191 20       		.byte	0x20
 4002 0192 9F       		.byte	0x9f
 4003 0193 00000000 		.4byte	0
 4004 0197 00000000 		.4byte	0
 4005              	.LLST16:
 4006 019b 0C000000 		.4byte	.LVL33
 4007 019f 12000000 		.4byte	.LVL34
 4008 01a3 0200     		.2byte	0x2
 4009 01a5 30       		.byte	0x30
 4010 01a6 9F       		.byte	0x9f
 4011 01a7 00000000 		.4byte	0
 4012 01ab 00000000 		.4byte	0
 4013              	.LLST17:
 4014 01af 00000000 		.4byte	.LVL35
 4015 01b3 0C000000 		.4byte	.LVL37
 4016 01b7 0100     		.2byte	0x1
 4017 01b9 50       		.byte	0x50
 4018 01ba 0C000000 		.4byte	.LVL37
 4019 01be 10000000 		.4byte	.LVL39
 4020 01c2 0100     		.2byte	0x1
 4021 01c4 53       		.byte	0x53
 4022 01c5 10000000 		.4byte	.LVL39
 4023 01c9 16000000 		.4byte	.LVL41
 4024 01cd 0400     		.2byte	0x4
 4025 01cf F3       		.byte	0xf3
 4026 01d0 01       		.uleb128 0x1
 4027 01d1 50       		.byte	0x50
 4028 01d2 9F       		.byte	0x9f
 4029 01d3 16000000 		.4byte	.LVL41
 4030 01d7 26000000 		.4byte	.LVL43
 4031 01db 0100     		.2byte	0x1
 4032 01dd 53       		.byte	0x53
 4033 01de 26000000 		.4byte	.LVL43
 4034 01e2 30000000 		.4byte	.LFE234
 4035 01e6 0200     		.2byte	0x2
 4036 01e8 72       		.byte	0x72
 4037 01e9 3C       		.sleb128 60
 4038 01ea 00000000 		.4byte	0
 4039 01ee 00000000 		.4byte	0
 4040              	.LLST18:
 4041 01f2 00000000 		.4byte	.LVL35
 4042 01f6 08000000 		.4byte	.LVL36
 4043 01fa 0300     		.2byte	0x3
 4044 01fc 08       		.byte	0x8
 4045 01fd 20       		.byte	0x20
 4046 01fe 9F       		.byte	0x9f
 4047 01ff 00000000 		.4byte	0
ARM GAS  /var/folders/m4/4md61f0s1_g0rzfghffqnxvr0000gn/T//cco5YJlY.s 			page 72


 4048 0203 00000000 		.4byte	0
 4049              	.LLST19:
 4050 0207 08000000 		.4byte	.LVL36
 4051 020b 0C000000 		.4byte	.LVL37
 4052 020f 0100     		.2byte	0x1
 4053 0211 50       		.byte	0x50
 4054 0212 0C000000 		.4byte	.LVL37
 4055 0216 0E000000 		.4byte	.LVL38
 4056 021a 0100     		.2byte	0x1
 4057 021c 53       		.byte	0x53
 4058 021d 16000000 		.4byte	.LVL41
 4059 0221 24000000 		.4byte	.LVL42
 4060 0225 0100     		.2byte	0x1
 4061 0227 53       		.byte	0x53
 4062 0228 00000000 		.4byte	0
 4063 022c 00000000 		.4byte	0
 4064              	.LLST20:
 4065 0230 16000000 		.4byte	.LVL41
 4066 0234 24000000 		.4byte	.LVL42
 4067 0238 0100     		.2byte	0x1
 4068 023a 53       		.byte	0x53
 4069 023b 00000000 		.4byte	0
 4070 023f 00000000 		.4byte	0
 4071              	.LLST21:
 4072 0243 0E000000 		.4byte	.LVL38
 4073 0247 14000000 		.4byte	.LVL40
 4074 024b 0200     		.2byte	0x2
 4075 024d 30       		.byte	0x30
 4076 024e 9F       		.byte	0x9f
 4077 024f 24000000 		.4byte	.LVL42
 4078 0253 2A000000 		.4byte	.LVL44
 4079 0257 0200     		.2byte	0x2
 4080 0259 30       		.byte	0x30
 4081 025a 9F       		.byte	0x9f
 4082 025b 00000000 		.4byte	0
 4083 025f 00000000 		.4byte	0
 4084              	.LLST22:
 4085 0263 00000000 		.4byte	.LVL45
 4086 0267 08000000 		.4byte	.LVL46
 4087 026b 0100     		.2byte	0x1
 4088 026d 50       		.byte	0x50
 4089 026e 08000000 		.4byte	.LVL46
 4090 0272 0A000000 		.4byte	.LVL47
 4091 0276 0100     		.2byte	0x1
 4092 0278 53       		.byte	0x53
 4093 0279 0A000000 		.4byte	.LVL47
 4094 027d 16000000 		.4byte	.LVL48
 4095 0281 0100     		.2byte	0x1
 4096 0283 50       		.byte	0x50
 4097 0284 16000000 		.4byte	.LVL48
 4098 0288 20000000 		.4byte	.LFE235
 4099 028c 0100     		.2byte	0x1
 4100 028e 53       		.byte	0x53
 4101 028f 00000000 		.4byte	0
 4102 0293 00000000 		.4byte	0
 4103              	.LLST23:
 4104 0297 0A000000 		.4byte	.LVL47
ARM GAS  /var/folders/m4/4md61f0s1_g0rzfghffqnxvr0000gn/T//cco5YJlY.s 			page 73


 4105 029b 16000000 		.4byte	.LVL48
 4106 029f 0100     		.2byte	0x1
 4107 02a1 50       		.byte	0x50
 4108 02a2 16000000 		.4byte	.LVL48
 4109 02a6 18000000 		.4byte	.LVL49
 4110 02aa 0100     		.2byte	0x1
 4111 02ac 53       		.byte	0x53
 4112 02ad 00000000 		.4byte	0
 4113 02b1 00000000 		.4byte	0
 4114              	.LLST24:
 4115 02b5 00000000 		.4byte	.LVL50
 4116 02b9 38000000 		.4byte	.LVL60
 4117 02bd 0100     		.2byte	0x1
 4118 02bf 50       		.byte	0x50
 4119 02c0 38000000 		.4byte	.LVL60
 4120 02c4 45000000 		.4byte	.LVL62-1
 4121 02c8 0100     		.2byte	0x1
 4122 02ca 53       		.byte	0x53
 4123 02cb 45000000 		.4byte	.LVL62-1
 4124 02cf 52000000 		.4byte	.LVL65
 4125 02d3 0400     		.2byte	0x4
 4126 02d5 F3       		.byte	0xf3
 4127 02d6 01       		.uleb128 0x1
 4128 02d7 50       		.byte	0x50
 4129 02d8 9F       		.byte	0x9f
 4130 02d9 52000000 		.4byte	.LVL65
 4131 02dd 64000000 		.4byte	.LFE236
 4132 02e1 0100     		.2byte	0x1
 4133 02e3 50       		.byte	0x50
 4134 02e4 00000000 		.4byte	0
 4135 02e8 00000000 		.4byte	0
 4136              	.LLST25:
 4137 02ec 06000000 		.4byte	.LVL51
 4138 02f0 5E000000 		.4byte	.LVL68
 4139 02f4 0100     		.2byte	0x1
 4140 02f6 55       		.byte	0x55
 4141 02f7 00000000 		.4byte	0
 4142 02fb 00000000 		.4byte	0
 4143              	.LLST26:
 4144 02ff 18000000 		.4byte	.LVL53
 4145 0303 30000000 		.4byte	.LVL58
 4146 0307 0100     		.2byte	0x1
 4147 0309 53       		.byte	0x53
 4148 030a 00000000 		.4byte	0
 4149 030e 00000000 		.4byte	0
 4150              	.LLST27:
 4151 0312 06000000 		.4byte	.LVL51
 4152 0316 0C000000 		.4byte	.LVL52
 4153 031a 0300     		.2byte	0x3
 4154 031c 08       		.byte	0x8
 4155 031d 20       		.byte	0x20
 4156 031e 9F       		.byte	0x9f
 4157 031f 00000000 		.4byte	0
 4158 0323 00000000 		.4byte	0
 4159              	.LLST28:
 4160 0327 18000000 		.4byte	.LVL53
 4161 032b 45000000 		.4byte	.LVL62-1
ARM GAS  /var/folders/m4/4md61f0s1_g0rzfghffqnxvr0000gn/T//cco5YJlY.s 			page 74


 4162 032f 0100     		.2byte	0x1
 4163 0331 51       		.byte	0x51
 4164 0332 00000000 		.4byte	0
 4165 0336 00000000 		.4byte	0
 4166              	.LLST29:
 4167 033a 1A000000 		.4byte	.LVL54
 4168 033e 1C000000 		.4byte	.LVL55
 4169 0342 0100     		.2byte	0x1
 4170 0344 53       		.byte	0x53
 4171 0345 00000000 		.4byte	0
 4172 0349 00000000 		.4byte	0
 4173              	.LLST31:
 4174 034d 36000000 		.4byte	.LVL59
 4175 0351 3C000000 		.4byte	.LVL61
 4176 0355 0100     		.2byte	0x1
 4177 0357 53       		.byte	0x53
 4178 0358 00000000 		.4byte	0
 4179 035c 00000000 		.4byte	0
 4180              	.LLST32:
 4181 0360 36000000 		.4byte	.LVL59
 4182 0364 3C000000 		.4byte	.LVL61
 4183 0368 0100     		.2byte	0x1
 4184 036a 54       		.byte	0x54
 4185 036b 00000000 		.4byte	0
 4186 036f 00000000 		.4byte	0
 4187              	.LLST33:
 4188 0373 4A000000 		.4byte	.LVL63
 4189 0377 50000000 		.4byte	.LVL64
 4190 037b 0200     		.2byte	0x2
 4191 037d 30       		.byte	0x30
 4192 037e 9F       		.byte	0x9f
 4193 037f 56000000 		.4byte	.LVL66
 4194 0383 5C000000 		.4byte	.LVL67
 4195 0387 0200     		.2byte	0x2
 4196 0389 30       		.byte	0x30
 4197 038a 9F       		.byte	0x9f
 4198 038b 00000000 		.4byte	0
 4199 038f 00000000 		.4byte	0
 4200              	.LLST34:
 4201 0393 00000000 		.4byte	.LVL69
 4202 0397 0A000000 		.4byte	.LVL70
 4203 039b 0100     		.2byte	0x1
 4204 039d 50       		.byte	0x50
 4205 039e 0A000000 		.4byte	.LVL70
 4206 03a2 3E000000 		.4byte	.LVL80
 4207 03a6 0100     		.2byte	0x1
 4208 03a8 54       		.byte	0x54
 4209 03a9 3E000000 		.4byte	.LVL80
 4210 03ad 41000000 		.4byte	.LVL81-1
 4211 03b1 0200     		.2byte	0x2
 4212 03b3 70       		.byte	0x70
 4213 03b4 3C       		.sleb128 60
 4214 03b5 41000000 		.4byte	.LVL81-1
 4215 03b9 42000000 		.4byte	.LVL81
 4216 03bd 0400     		.2byte	0x4
 4217 03bf F3       		.byte	0xf3
 4218 03c0 01       		.uleb128 0x1
ARM GAS  /var/folders/m4/4md61f0s1_g0rzfghffqnxvr0000gn/T//cco5YJlY.s 			page 75


 4219 03c1 50       		.byte	0x50
 4220 03c2 9F       		.byte	0x9f
 4221 03c3 42000000 		.4byte	.LVL81
 4222 03c7 48000000 		.4byte	.LVL82
 4223 03cb 0100     		.2byte	0x1
 4224 03cd 54       		.byte	0x54
 4225 03ce 48000000 		.4byte	.LVL82
 4226 03d2 50000000 		.4byte	.LFE237
 4227 03d6 0400     		.2byte	0x4
 4228 03d8 F3       		.byte	0xf3
 4229 03d9 01       		.uleb128 0x1
 4230 03da 50       		.byte	0x50
 4231 03db 9F       		.byte	0x9f
 4232 03dc 00000000 		.4byte	0
 4233 03e0 00000000 		.4byte	0
 4234              	.LLST35:
 4235 03e4 0A000000 		.4byte	.LVL70
 4236 03e8 34000000 		.4byte	.LVL78
 4237 03ec 0100     		.2byte	0x1
 4238 03ee 50       		.byte	0x50
 4239 03ef 42000000 		.4byte	.LVL81
 4240 03f3 50000000 		.4byte	.LFE237
 4241 03f7 0100     		.2byte	0x1
 4242 03f9 50       		.byte	0x50
 4243 03fa 00000000 		.4byte	0
 4244 03fe 00000000 		.4byte	0
 4245              	.LLST36:
 4246 0402 14000000 		.4byte	.LVL71
 4247 0406 2C000000 		.4byte	.LVL76
 4248 040a 0100     		.2byte	0x1
 4249 040c 53       		.byte	0x53
 4250 040d 00000000 		.4byte	0
 4251 0411 00000000 		.4byte	0
 4252              	.LLST37:
 4253 0415 14000000 		.4byte	.LVL71
 4254 0419 41000000 		.4byte	.LVL81-1
 4255 041d 0100     		.2byte	0x1
 4256 041f 51       		.byte	0x51
 4257 0420 00000000 		.4byte	0
 4258 0424 00000000 		.4byte	0
 4259              	.LLST38:
 4260 0428 16000000 		.4byte	.LVL72
 4261 042c 18000000 		.4byte	.LVL73
 4262 0430 0100     		.2byte	0x1
 4263 0432 53       		.byte	0x53
 4264 0433 00000000 		.4byte	0
 4265 0437 00000000 		.4byte	0
 4266              	.LLST40:
 4267 043b 30000000 		.4byte	.LVL77
 4268 043f 36000000 		.4byte	.LVL79
 4269 0443 0100     		.2byte	0x1
 4270 0445 54       		.byte	0x54
 4271 0446 00000000 		.4byte	0
 4272 044a 00000000 		.4byte	0
 4273              	.LLST41:
 4274 044e 30000000 		.4byte	.LVL77
 4275 0452 36000000 		.4byte	.LVL79
ARM GAS  /var/folders/m4/4md61f0s1_g0rzfghffqnxvr0000gn/T//cco5YJlY.s 			page 76


 4276 0456 0100     		.2byte	0x1
 4277 0458 55       		.byte	0x55
 4278 0459 00000000 		.4byte	0
 4279 045d 00000000 		.4byte	0
 4280              	.LLST42:
 4281 0461 08000000 		.4byte	.LVL83
 4282 0465 4E000000 		.4byte	.LVL95
 4283 0469 0100     		.2byte	0x1
 4284 046b 54       		.byte	0x54
 4285 046c 00000000 		.4byte	0
 4286 0470 00000000 		.4byte	0
 4287              	.LLST43:
 4288 0474 08000000 		.4byte	.LVL83
 4289 0478 0C000000 		.4byte	.LVL84
 4290 047c 0300     		.2byte	0x3
 4291 047e 08       		.byte	0x8
 4292 047f 20       		.byte	0x20
 4293 0480 9F       		.byte	0x9f
 4294 0481 00000000 		.4byte	0
 4295 0485 00000000 		.4byte	0
 4296              	.LLST44:
 4297 0489 2A000000 		.4byte	.LVL88
 4298 048d 30000000 		.4byte	.LVL90
 4299 0491 0200     		.2byte	0x2
 4300 0493 74       		.byte	0x74
 4301 0494 3C       		.sleb128 60
 4302 0495 00000000 		.4byte	0
 4303 0499 00000000 		.4byte	0
 4304              	.LLST45:
 4305 049d 14000000 		.4byte	.LVL85
 4306 04a1 1C000000 		.4byte	.LVL86
 4307 04a5 0100     		.2byte	0x1
 4308 04a7 53       		.byte	0x53
 4309 04a8 2A000000 		.4byte	.LVL88
 4310 04ac 3A000000 		.4byte	.LVL91
 4311 04b0 0100     		.2byte	0x1
 4312 04b2 53       		.byte	0x53
 4313 04b3 00000000 		.4byte	0
 4314 04b7 00000000 		.4byte	0
 4315              	.LLST46:
 4316 04bb 14000000 		.4byte	.LVL85
 4317 04bf 1C000000 		.4byte	.LVL86
 4318 04c3 0100     		.2byte	0x1
 4319 04c5 50       		.byte	0x50
 4320 04c6 2C000000 		.4byte	.LVL89
 4321 04ca 3E000000 		.4byte	.LVL92
 4322 04ce 0100     		.2byte	0x1
 4323 04d0 52       		.byte	0x52
 4324 04d1 00000000 		.4byte	0
 4325 04d5 00000000 		.4byte	0
 4326              	.LLST47:
 4327 04d9 46000000 		.4byte	.LVL93
 4328 04dd 4C000000 		.4byte	.LVL94
 4329 04e1 0200     		.2byte	0x2
 4330 04e3 30       		.byte	0x30
 4331 04e4 9F       		.byte	0x9f
 4332 04e5 00000000 		.4byte	0
ARM GAS  /var/folders/m4/4md61f0s1_g0rzfghffqnxvr0000gn/T//cco5YJlY.s 			page 77


 4333 04e9 00000000 		.4byte	0
 4334              		.section	.debug_aranges,"",%progbits
 4335 0000 54000000 		.4byte	0x54
 4336 0004 0200     		.2byte	0x2
 4337 0006 00000000 		.4byte	.Ldebug_info0
 4338 000a 04       		.byte	0x4
 4339 000b 00       		.byte	0
 4340 000c 0000     		.2byte	0
 4341 000e 0000     		.2byte	0
 4342 0010 00000000 		.4byte	.LFB231
 4343 0014 0A000000 		.4byte	.LFE231-.LFB231
 4344 0018 00000000 		.4byte	.LFB233
 4345 001c C8000000 		.4byte	.LFE233-.LFB233
 4346 0020 00000000 		.4byte	.LFB232
 4347 0024 14000000 		.4byte	.LFE232-.LFB232
 4348 0028 00000000 		.4byte	.LFB234
 4349 002c 30000000 		.4byte	.LFE234-.LFB234
 4350 0030 00000000 		.4byte	.LFB235
 4351 0034 20000000 		.4byte	.LFE235-.LFB235
 4352 0038 00000000 		.4byte	.LFB236
 4353 003c 64000000 		.4byte	.LFE236-.LFB236
 4354 0040 00000000 		.4byte	.LFB237
 4355 0044 50000000 		.4byte	.LFE237-.LFB237
 4356 0048 00000000 		.4byte	.LFB238
 4357 004c 54000000 		.4byte	.LFE238-.LFB238
 4358 0050 00000000 		.4byte	0
 4359 0054 00000000 		.4byte	0
 4360              		.section	.debug_ranges,"",%progbits
 4361              	.Ldebug_ranges0:
 4362 0000 0C000000 		.4byte	.LBB105
 4363 0004 44000000 		.4byte	.LBE105
 4364 0008 48000000 		.4byte	.LBB120
 4365 000c B8000000 		.4byte	.LBE120
 4366 0010 00000000 		.4byte	0
 4367 0014 00000000 		.4byte	0
 4368 0018 4C000000 		.4byte	.LBB108
 4369 001c 54000000 		.4byte	.LBE108
 4370 0020 56000000 		.4byte	.LBB111
 4371 0024 58000000 		.4byte	.LBE111
 4372 0028 00000000 		.4byte	0
 4373 002c 00000000 		.4byte	0
 4374 0030 08000000 		.4byte	.LBB147
 4375 0034 0E000000 		.4byte	.LBE147
 4376 0038 16000000 		.4byte	.LBB161
 4377 003c 24000000 		.4byte	.LBE161
 4378 0040 00000000 		.4byte	0
 4379 0044 00000000 		.4byte	0
 4380 0048 0E000000 		.4byte	.LBB152
 4381 004c 14000000 		.4byte	.LBE152
 4382 0050 24000000 		.4byte	.LBB162
 4383 0054 2A000000 		.4byte	.LBE162
 4384 0058 00000000 		.4byte	0
 4385 005c 00000000 		.4byte	0
 4386 0060 30000000 		.4byte	.LBB180
 4387 0064 32000000 		.4byte	.LBE180
 4388 0068 38000000 		.4byte	.LBB183
 4389 006c 3C000000 		.4byte	.LBE183
ARM GAS  /var/folders/m4/4md61f0s1_g0rzfghffqnxvr0000gn/T//cco5YJlY.s 			page 78


 4390 0070 00000000 		.4byte	0
 4391 0074 00000000 		.4byte	0
 4392 0078 4A000000 		.4byte	.LBB184
 4393 007c 52000000 		.4byte	.LBE184
 4394 0080 56000000 		.4byte	.LBB193
 4395 0084 64000000 		.4byte	.LBE193
 4396 0088 00000000 		.4byte	0
 4397 008c 00000000 		.4byte	0
 4398 0090 12000000 		.4byte	.LBB198
 4399 0094 3C000000 		.4byte	.LBE198
 4400 0098 3E000000 		.4byte	.LBB209
 4401 009c 42000000 		.4byte	.LBE209
 4402 00a0 00000000 		.4byte	0
 4403 00a4 00000000 		.4byte	0
 4404 00a8 2A000000 		.4byte	.LBB203
 4405 00ac 2C000000 		.4byte	.LBE203
 4406 00b0 30000000 		.4byte	.LBB207
 4407 00b4 32000000 		.4byte	.LBE207
 4408 00b8 34000000 		.4byte	.LBB208
 4409 00bc 36000000 		.4byte	.LBE208
 4410 00c0 00000000 		.4byte	0
 4411 00c4 00000000 		.4byte	0
 4412 00c8 04000000 		.4byte	.LBB210
 4413 00cc 06000000 		.4byte	.LBE210
 4414 00d0 08000000 		.4byte	.LBB217
 4415 00d4 0C000000 		.4byte	.LBE217
 4416 00d8 00000000 		.4byte	0
 4417 00dc 00000000 		.4byte	0
 4418 00e0 10000000 		.4byte	.LBB218
 4419 00e4 26000000 		.4byte	.LBE218
 4420 00e8 2A000000 		.4byte	.LBB229
 4421 00ec 38000000 		.4byte	.LBE229
 4422 00f0 00000000 		.4byte	0
 4423 00f4 00000000 		.4byte	0
 4424 00f8 14000000 		.4byte	.LBB219
 4425 00fc 26000000 		.4byte	.LBE219
 4426 0100 32000000 		.4byte	.LBB228
 4427 0104 34000000 		.4byte	.LBE228
 4428 0108 00000000 		.4byte	0
 4429 010c 00000000 		.4byte	0
 4430 0110 14000000 		.4byte	.LBB220
 4431 0114 16000000 		.4byte	.LBE220
 4432 0118 18000000 		.4byte	.LBB223
 4433 011c 1C000000 		.4byte	.LBE223
 4434 0120 00000000 		.4byte	0
 4435 0124 00000000 		.4byte	0
 4436 0128 00000000 		.4byte	.LFB231
 4437 012c 0A000000 		.4byte	.LFE231
 4438 0130 00000000 		.4byte	.LFB233
 4439 0134 C8000000 		.4byte	.LFE233
 4440 0138 00000000 		.4byte	.LFB232
 4441 013c 14000000 		.4byte	.LFE232
 4442 0140 00000000 		.4byte	.LFB234
 4443 0144 30000000 		.4byte	.LFE234
 4444 0148 00000000 		.4byte	.LFB235
 4445 014c 20000000 		.4byte	.LFE235
 4446 0150 00000000 		.4byte	.LFB236
ARM GAS  /var/folders/m4/4md61f0s1_g0rzfghffqnxvr0000gn/T//cco5YJlY.s 			page 79


 4447 0154 64000000 		.4byte	.LFE236
 4448 0158 00000000 		.4byte	.LFB237
 4449 015c 50000000 		.4byte	.LFE237
 4450 0160 00000000 		.4byte	.LFB238
 4451 0164 54000000 		.4byte	.LFE238
 4452 0168 00000000 		.4byte	0
 4453 016c 00000000 		.4byte	0
 4454              		.section	.debug_line,"",%progbits
 4455              	.Ldebug_line0:
 4456 0000 E0040000 		.section	.debug_str,"MS",%progbits,1
 4456      02006E02 
 4456      00000201 
 4456      FB0E0D00 
 4456      01010101 
 4457              	.LASF53:
 4458 0000 72656164 		.ascii	"ready_list_t\000"
 4458      795F6C69 
 4458      73745F74 
 4458      00
 4459              	.LASF91:
 4460 000d 77747472 		.ascii	"wttrp\000"
 4460      7000
 4461              	.LASF88:
 4462 0013 7264796D 		.ascii	"rdymsg\000"
 4462      736700
 4463              	.LASF16:
 4464 001a 75696E74 		.ascii	"uint64_t\000"
 4464      36345F74 
 4464      00
 4465              	.LASF5:
 4466 0023 5F5F7569 		.ascii	"__uint8_t\000"
 4466      6E74385F 
 4466      7400
 4467              	.LASF85:
 4468 002d 706F7274 		.ascii	"port_intctx\000"
 4468      5F696E74 
 4468      63747800 
 4469              	.LASF72:
 4470 0039 73797374 		.ascii	"system_debug_t\000"
 4470      656D5F64 
 4470      65627567 
 4470      5F7400
 4471              	.LASF109:
 4472 0048 71756575 		.ascii	"queue_init\000"
 4472      655F696E 
 4472      697400
 4473              	.LASF130:
 4474 0053 474E5520 		.ascii	"GNU C99 5.2.1 20151202 (release) [ARM/embedded-5-br"
 4474      43393920 
 4474      352E322E 
 4474      31203230 
 4474      31353132 
 4475 0086 616E6368 		.ascii	"anch revision 231848] -mcpu=cortex-m4 -mfloat-abi=h"
 4475      20726576 
 4475      6973696F 
 4475      6E203233 
 4475      31383438 
ARM GAS  /var/folders/m4/4md61f0s1_g0rzfghffqnxvr0000gn/T//cco5YJlY.s 			page 80


 4476 00b9 61726420 		.ascii	"ard -mfpu=fpv4-sp-d16 -mno-thumb-interwork -mthumb "
 4476      2D6D6670 
 4476      753D6670 
 4476      76342D73 
 4476      702D6431 
 4477 00ec 2D676764 		.ascii	"-ggdb -O2 -std=c99 -fomit-frame-pointer -falign-fun"
 4477      62202D4F 
 4477      32202D73 
 4477      74643D63 
 4477      3939202D 
 4478 011f 6374696F 		.ascii	"ctions=16 -fsingle-precision-constant -ffunction-se"
 4478      6E733D31 
 4478      36202D66 
 4478      73696E67 
 4478      6C652D70 
 4479 0152 6374696F 		.ascii	"ctions -fdata-sections -fno-common\000"
 4479      6E73202D 
 4479      66646174 
 4479      612D7365 
 4479      6374696F 
 4480              	.LASF12:
 4481 0175 6C6F6E67 		.ascii	"long long unsigned int\000"
 4481      206C6F6E 
 4481      6720756E 
 4481      7369676E 
 4481      65642069 
 4482              	.LASF89:
 4483 018c 65786974 		.ascii	"exitcode\000"
 4483      636F6465 
 4483      00
 4484              	.LASF79:
 4485 0195 6D61696E 		.ascii	"mainthread\000"
 4485      74687265 
 4485      616400
 4486              	.LASF69:
 4487 01a0 76697274 		.ascii	"virtual_timers_list_t\000"
 4487      75616C5F 
 4487      74696D65 
 4487      72735F6C 
 4487      6973745F 
 4488              	.LASF126:
 4489 01b6 49544D5F 		.ascii	"ITM_RxBuffer\000"
 4489      52784275 
 4489      66666572 
 4489      00
 4490              	.LASF52:
 4491 01c3 63685F74 		.ascii	"ch_threads_queue\000"
 4491      68726561 
 4491      64735F71 
 4491      75657565 
 4491      00
 4492              	.LASF30:
 4493 01d4 705F7072 		.ascii	"p_prio\000"
 4493      696F00
 4494              	.LASF103:
 4495 01db 6D757465 		.ascii	"mutex_t\000"
 4495      785F7400 
ARM GAS  /var/folders/m4/4md61f0s1_g0rzfghffqnxvr0000gn/T//cco5YJlY.s 			page 81


 4496              	.LASF122:
 4497 01e3 63684D74 		.ascii	"chMtxUnlock\000"
 4497      78556E6C 
 4497      6F636B00 
 4498              	.LASF1:
 4499 01ef 7369676E 		.ascii	"signed char\000"
 4499      65642063 
 4499      68617200 
 4500              	.LASF46:
 4501 01fb 705F6D70 		.ascii	"p_mpool\000"
 4501      6F6F6C00 
 4502              	.LASF99:
 4503 0203 6D5F7175 		.ascii	"m_queue\000"
 4503      65756500 
 4504              	.LASF78:
 4505 020b 76746C69 		.ascii	"vtlist\000"
 4505      737400
 4506              	.LASF105:
 4507 0212 706F7274 		.ascii	"port_unlock\000"
 4507      5F756E6C 
 4507      6F636B00 
 4508              	.LASF21:
 4509 021e 74736C69 		.ascii	"tslices_t\000"
 4509      6365735F 
 4509      7400
 4510              	.LASF76:
 4511 0228 63685F73 		.ascii	"ch_system\000"
 4511      79737465 
 4511      6D00
 4512              	.LASF7:
 4513 0232 6C6F6E67 		.ascii	"long int\000"
 4513      20696E74 
 4513      00
 4514              	.LASF112:
 4515 023b 71756575 		.ascii	"queue_dequeue\000"
 4515      655F6465 
 4515      71756575 
 4515      6500
 4516              	.LASF19:
 4517 0249 74737461 		.ascii	"tstate_t\000"
 4517      74655F74 
 4517      00
 4518              	.LASF111:
 4519 0252 71756575 		.ascii	"queue_notempty\000"
 4519      655F6E6F 
 4519      74656D70 
 4519      747900
 4520              	.LASF116:
 4521 0261 63684D74 		.ascii	"chMtxTryLockS\000"
 4521      78547279 
 4521      4C6F636B 
 4521      5300
 4522              	.LASF32:
 4523 026f 705F6E65 		.ascii	"p_newer\000"
 4523      77657200 
 4524              	.LASF96:
 4525 0277 735F7175 		.ascii	"s_queue\000"
ARM GAS  /var/folders/m4/4md61f0s1_g0rzfghffqnxvr0000gn/T//cco5YJlY.s 			page 82


 4525      65756500 
 4526              	.LASF129:
 4527 027f 63685363 		.ascii	"chSchRescheduleS\000"
 4527      68526573 
 4527      63686564 
 4527      756C6553 
 4527      00
 4528              	.LASF58:
 4529 0290 725F6E65 		.ascii	"r_newer\000"
 4529      77657200 
 4530              	.LASF82:
 4531 0298 72656761 		.ascii	"regarm_t\000"
 4531      726D5F74 
 4531      00
 4532              	.LASF65:
 4533 02a1 76745F70 		.ascii	"vt_prev\000"
 4533      72657600 
 4534              	.LASF10:
 4535 02a9 6C6F6E67 		.ascii	"long long int\000"
 4535      206C6F6E 
 4535      6720696E 
 4535      7400
 4536              	.LASF106:
 4537 02b7 76616C75 		.ascii	"value\000"
 4537      6500
 4538              	.LASF80:
 4539 02bd 69646C65 		.ascii	"idle_thread_wa\000"
 4539      5F746872 
 4539      6561645F 
 4539      776100
 4540              	.LASF25:
 4541 02cc 636E745F 		.ascii	"cnt_t\000"
 4541      7400
 4542              	.LASF124:
 4543 02d2 63684D74 		.ascii	"chMtxUnlockS\000"
 4543      78556E6C 
 4543      6F636B53 
 4543      00
 4544              	.LASF0:
 4545 02df 756E7369 		.ascii	"unsigned int\000"
 4545      676E6564 
 4545      20696E74 
 4545      00
 4546              	.LASF64:
 4547 02ec 76745F6E 		.ascii	"vt_next\000"
 4547      65787400 
 4548              	.LASF39:
 4549 02f4 705F7469 		.ascii	"p_time\000"
 4549      6D6500
 4550              	.LASF92:
 4551 02fb 77747365 		.ascii	"wtsemp\000"
 4551      6D7000
 4552              	.LASF66:
 4553 0302 76745F64 		.ascii	"vt_delta\000"
 4553      656C7461 
 4553      00
 4554              	.LASF41:
ARM GAS  /var/folders/m4/4md61f0s1_g0rzfghffqnxvr0000gn/T//cco5YJlY.s 			page 83


 4555 030b 705F6D73 		.ascii	"p_msgqueue\000"
 4555      67717565 
 4555      756500
 4556              	.LASF97:
 4557 0316 735F636E 		.ascii	"s_cnt\000"
 4557      7400
 4558              	.LASF4:
 4559 031c 73686F72 		.ascii	"short unsigned int\000"
 4559      7420756E 
 4559      7369676E 
 4559      65642069 
 4559      6E7400
 4560              	.LASF49:
 4561 032f 63685F74 		.ascii	"ch_thread\000"
 4561      68726561 
 4561      6400
 4562              	.LASF23:
 4563 0339 6D73675F 		.ascii	"msg_t\000"
 4563      7400
 4564              	.LASF132:
 4565 033f 2F557365 		.ascii	"/Users/raphael/Documents/Projects/rESC/resc-firmwar"
 4565      72732F72 
 4565      61706861 
 4565      656C2F44 
 4565      6F63756D 
 4566 0372 6500     		.ascii	"e\000"
 4567              	.LASF75:
 4568 0374 63685F73 		.ascii	"ch_system_t\000"
 4568      79737465 
 4568      6D5F7400 
 4569              	.LASF125:
 4570 0380 63684D74 		.ascii	"chMtxUnlockAll\000"
 4570      78556E6C 
 4570      6F636B41 
 4570      6C6C00
 4571              	.LASF123:
 4572 038f 6E657770 		.ascii	"newprio\000"
 4572      72696F00 
 4573              	.LASF18:
 4574 0397 746D6F64 		.ascii	"tmode_t\000"
 4574      655F7400 
 4575              	.LASF54:
 4576 039f 63685F72 		.ascii	"ch_ready_list\000"
 4576      65616479 
 4576      5F6C6973 
 4576      7400
 4577              	.LASF24:
 4578 03ad 6576656E 		.ascii	"eventmask_t\000"
 4578      746D6173 
 4578      6B5F7400 
 4579              	.LASF133:
 4580 03b9 63684D74 		.ascii	"chMtxTryLock\000"
 4580      78547279 
 4580      4C6F636B 
 4580      00
 4581              	.LASF6:
 4582 03c6 5F5F696E 		.ascii	"__int32_t\000"
ARM GAS  /var/folders/m4/4md61f0s1_g0rzfghffqnxvr0000gn/T//cco5YJlY.s 			page 84


 4582      7433325F 
 4582      7400
 4583              	.LASF83:
 4584 03d0 73746B61 		.ascii	"stkalign_t\000"
 4584      6C69676E 
 4584      5F7400
 4585              	.LASF48:
 4586 03db 74687265 		.ascii	"threads_list_t\000"
 4586      6164735F 
 4586      6C697374 
 4586      5F7400
 4587              	.LASF40:
 4588 03ea 705F7761 		.ascii	"p_waiting\000"
 4588      6974696E 
 4588      6700
 4589              	.LASF81:
 4590 03f4 73697A65 		.ascii	"sizetype\000"
 4590      74797065 
 4590      00
 4591              	.LASF47:
 4592 03fd 74687265 		.ascii	"thread_reference_t\000"
 4592      61645F72 
 4592      65666572 
 4592      656E6365 
 4592      5F7400
 4593              	.LASF70:
 4594 0410 63685F76 		.ascii	"ch_virtual_timers_list\000"
 4594      69727475 
 4594      616C5F74 
 4594      696D6572 
 4594      735F6C69 
 4595              	.LASF108:
 4596 0427 5F5F7365 		.ascii	"__set_BASEPRI\000"
 4596      745F4241 
 4596      53455052 
 4596      4900
 4597              	.LASF121:
 4598 0435 63684D74 		.ascii	"chMtxLock\000"
 4598      784C6F63 
 4598      6B00
 4599              	.LASF33:
 4600 043f 705F6F6C 		.ascii	"p_older\000"
 4600      64657200 
 4601              	.LASF131:
 4602 0447 43686962 		.ascii	"ChibiOS_16.1.4/os/rt/src/chmtx.c\000"
 4602      694F535F 
 4602      31362E31 
 4602      2E342F6F 
 4602      732F7274 
 4603              	.LASF57:
 4604 0468 725F6374 		.ascii	"r_ctx\000"
 4604      7800
 4605              	.LASF87:
 4606 046e 746D5F63 		.ascii	"tm_calibration_t\000"
 4606      616C6962 
 4606      72617469 
 4606      6F6E5F74 
ARM GAS  /var/folders/m4/4md61f0s1_g0rzfghffqnxvr0000gn/T//cco5YJlY.s 			page 85


 4606      00
 4607              	.LASF101:
 4608 047f 6D5F6E65 		.ascii	"m_next\000"
 4608      787400
 4609              	.LASF60:
 4610 0486 725F6375 		.ascii	"r_current\000"
 4610      7272656E 
 4610      7400
 4611              	.LASF59:
 4612 0490 725F6F6C 		.ascii	"r_older\000"
 4612      64657200 
 4613              	.LASF11:
 4614 0498 5F5F7569 		.ascii	"__uint64_t\000"
 4614      6E743634 
 4614      5F7400
 4615              	.LASF20:
 4616 04a3 74726566 		.ascii	"trefs_t\000"
 4616      735F7400 
 4617              	.LASF62:
 4618 04ab 76697274 		.ascii	"virtual_timer_t\000"
 4618      75616C5F 
 4618      74696D65 
 4618      725F7400 
 4619              	.LASF29:
 4620 04bb 705F7072 		.ascii	"p_prev\000"
 4620      657600
 4621              	.LASF22:
 4622 04c2 74707269 		.ascii	"tprio_t\000"
 4622      6F5F7400 
 4623              	.LASF119:
 4624 04ca 63684D74 		.ascii	"chMtxObjectInit\000"
 4624      784F626A 
 4624      65637449 
 4624      6E697400 
 4625              	.LASF73:
 4626 04da 63685F73 		.ascii	"ch_system_debug\000"
 4626      79737465 
 4626      6D5F6465 
 4626      62756700 
 4627              	.LASF107:
 4628 04ea 5F426F6F 		.ascii	"_Bool\000"
 4628      6C00
 4629              	.LASF14:
 4630 04f0 696E7433 		.ascii	"int32_t\000"
 4630      325F7400 
 4631              	.LASF2:
 4632 04f8 756E7369 		.ascii	"unsigned char\000"
 4632      676E6564 
 4632      20636861 
 4632      7200
 4633              	.LASF35:
 4634 0506 705F7374 		.ascii	"p_state\000"
 4634      61746500 
 4635              	.LASF44:
 4636 050e 705F6D74 		.ascii	"p_mtxlist\000"
 4636      786C6973 
 4636      7400
ARM GAS  /var/folders/m4/4md61f0s1_g0rzfghffqnxvr0000gn/T//cco5YJlY.s 			page 86


 4637              	.LASF3:
 4638 0518 73686F72 		.ascii	"short int\000"
 4638      7420696E 
 4638      7400
 4639              	.LASF38:
 4640 0522 705F7072 		.ascii	"p_preempt\000"
 4640      65656D70 
 4640      7400
 4641              	.LASF56:
 4642 052c 725F7072 		.ascii	"r_prio\000"
 4642      696F00
 4643              	.LASF94:
 4644 0533 65776D61 		.ascii	"ewmask\000"
 4644      736B00
 4645              	.LASF28:
 4646 053a 705F6E65 		.ascii	"p_next\000"
 4646      787400
 4647              	.LASF36:
 4648 0541 705F666C 		.ascii	"p_flags\000"
 4648      61677300 
 4649              	.LASF114:
 4650 0549 5F5F6675 		.ascii	"__func__\000"
 4650      6E635F5F 
 4650      00
 4651              	.LASF115:
 4652 0552 63685379 		.ascii	"chSysLock\000"
 4652      734C6F63 
 4652      6B00
 4653              	.LASF63:
 4654 055c 63685F76 		.ascii	"ch_virtual_timer\000"
 4654      69727475 
 4654      616C5F74 
 4654      696D6572 
 4654      00
 4655              	.LASF95:
 4656 056d 63685F73 		.ascii	"ch_semaphore\000"
 4656      656D6170 
 4656      686F7265 
 4656      00
 4657              	.LASF127:
 4658 057a 63685363 		.ascii	"chSchGoSleepS\000"
 4658      68476F53 
 4658      6C656570 
 4658      5300
 4659              	.LASF43:
 4660 0588 705F6570 		.ascii	"p_epending\000"
 4660      656E6469 
 4660      6E6700
 4661              	.LASF15:
 4662 0593 75696E74 		.ascii	"uint32_t\000"
 4662      33325F74 
 4662      00
 4663              	.LASF93:
 4664 059c 77746D74 		.ascii	"wtmtxp\000"
 4664      787000
 4665              	.LASF55:
 4666 05a3 725F7175 		.ascii	"r_queue\000"
ARM GAS  /var/folders/m4/4md61f0s1_g0rzfghffqnxvr0000gn/T//cco5YJlY.s 			page 87


 4666      65756500 
 4667              	.LASF128:
 4668 05ab 63685363 		.ascii	"chSchReadyI\000"
 4668      68526561 
 4668      64794900 
 4669              	.LASF50:
 4670 05b7 63685F74 		.ascii	"ch_threads_list\000"
 4670      68726561 
 4670      64735F6C 
 4670      69737400 
 4671              	.LASF9:
 4672 05c7 6C6F6E67 		.ascii	"long unsigned int\000"
 4672      20756E73 
 4672      69676E65 
 4672      6420696E 
 4672      7400
 4673              	.LASF102:
 4674 05d9 63686172 		.ascii	"char\000"
 4674      00
 4675              	.LASF27:
 4676 05de 74687265 		.ascii	"thread_t\000"
 4676      61645F74 
 4676      00
 4677              	.LASF118:
 4678 05e7 71756575 		.ascii	"queue_fifo_remove\000"
 4678      655F6669 
 4678      666F5F72 
 4678      656D6F76 
 4678      6500
 4679              	.LASF26:
 4680 05f9 73797374 		.ascii	"systime_t\000"
 4680      696D655F 
 4680      7400
 4681              	.LASF45:
 4682 0603 705F7265 		.ascii	"p_realprio\000"
 4682      616C7072 
 4682      696F00
 4683              	.LASF61:
 4684 060e 76746675 		.ascii	"vtfunc_t\000"
 4684      6E635F74 
 4684      00
 4685              	.LASF8:
 4686 0617 5F5F7569 		.ascii	"__uint32_t\000"
 4686      6E743332 
 4686      5F7400
 4687              	.LASF117:
 4688 0622 63684D74 		.ascii	"chMtxQueueNotEmptyS\000"
 4688      78517565 
 4688      75654E6F 
 4688      74456D70 
 4688      74795300 
 4689              	.LASF74:
 4690 0636 70616E69 		.ascii	"panic_msg\000"
 4690      635F6D73 
 4690      6700
 4691              	.LASF86:
 4692 0640 6F666673 		.ascii	"offset\000"
ARM GAS  /var/folders/m4/4md61f0s1_g0rzfghffqnxvr0000gn/T//cco5YJlY.s 			page 88


 4692      657400
 4693              	.LASF84:
 4694 0647 636F6E74 		.ascii	"context\000"
 4694      65787400 
 4695              	.LASF17:
 4696 064f 7274636E 		.ascii	"rtcnt_t\000"
 4696      745F7400 
 4697              	.LASF68:
 4698 0657 76745F70 		.ascii	"vt_par\000"
 4698      617200
 4699              	.LASF51:
 4700 065e 74687265 		.ascii	"threads_queue_t\000"
 4700      6164735F 
 4700      71756575 
 4700      655F7400 
 4701              	.LASF98:
 4702 066e 63685F6D 		.ascii	"ch_mutex\000"
 4702      75746578 
 4702      00
 4703              	.LASF37:
 4704 0677 705F7265 		.ascii	"p_refs\000"
 4704      667300
 4705              	.LASF77:
 4706 067e 726C6973 		.ascii	"rlist\000"
 4706      7400
 4707              	.LASF13:
 4708 0684 75696E74 		.ascii	"uint8_t\000"
 4708      385F7400 
 4709              	.LASF90:
 4710 068c 77746F62 		.ascii	"wtobjp\000"
 4710      6A7000
 4711              	.LASF34:
 4712 0693 705F6E61 		.ascii	"p_name\000"
 4712      6D6500
 4713              	.LASF71:
 4714 069a 76745F73 		.ascii	"vt_systime\000"
 4714      79737469 
 4714      6D6500
 4715              	.LASF113:
 4716 06a5 63685379 		.ascii	"chSysUnlock\000"
 4716      73556E6C 
 4716      6F636B00 
 4717              	.LASF42:
 4718 06b1 705F6D73 		.ascii	"p_msg\000"
 4718      6700
 4719              	.LASF120:
 4720 06b7 63684D74 		.ascii	"chMtxLockS\000"
 4720      784C6F63 
 4720      6B5300
 4721              	.LASF110:
 4722 06c2 71756575 		.ascii	"queue_prio_insert\000"
 4722      655F7072 
 4722      696F5F69 
 4722      6E736572 
 4722      7400
 4723              	.LASF104:
 4724 06d4 706F7274 		.ascii	"port_lock\000"
ARM GAS  /var/folders/m4/4md61f0s1_g0rzfghffqnxvr0000gn/T//cco5YJlY.s 			page 89


 4724      5F6C6F63 
 4724      6B00
 4725              	.LASF100:
 4726 06de 6D5F6F77 		.ascii	"m_owner\000"
 4726      6E657200 
 4727              	.LASF31:
 4728 06e6 705F6374 		.ascii	"p_ctx\000"
 4728      7800
 4729              	.LASF67:
 4730 06ec 76745F66 		.ascii	"vt_func\000"
 4730      756E6300 
 4731              		.ident	"GCC: (GNU Tools for ARM Embedded Processors) 5.2.1 20151202 (release) [ARM/embedded-5-bran
ARM GAS  /var/folders/m4/4md61f0s1_g0rzfghffqnxvr0000gn/T//cco5YJlY.s 			page 90


DEFINED SYMBOLS
                            *ABS*:0000000000000000 chmtx.c
/var/folders/m4/4md61f0s1_g0rzfghffqnxvr0000gn/T//cco5YJlY.s:22     .text.chMtxObjectInit:0000000000000000 $t
/var/folders/m4/4md61f0s1_g0rzfghffqnxvr0000gn/T//cco5YJlY.s:28     .text.chMtxObjectInit:0000000000000000 chMtxObjectInit
/var/folders/m4/4md61f0s1_g0rzfghffqnxvr0000gn/T//cco5YJlY.s:56     .text.chMtxLockS:0000000000000000 $t
/var/folders/m4/4md61f0s1_g0rzfghffqnxvr0000gn/T//cco5YJlY.s:62     .text.chMtxLockS:0000000000000000 chMtxLockS
/var/folders/m4/4md61f0s1_g0rzfghffqnxvr0000gn/T//cco5YJlY.s:304    .text.chMtxLockS:00000000000000c4 $d
/var/folders/m4/4md61f0s1_g0rzfghffqnxvr0000gn/T//cco5YJlY.s:309    .text.chMtxLock:0000000000000000 $t
/var/folders/m4/4md61f0s1_g0rzfghffqnxvr0000gn/T//cco5YJlY.s:315    .text.chMtxLock:0000000000000000 chMtxLock
/var/folders/m4/4md61f0s1_g0rzfghffqnxvr0000gn/T//cco5YJlY.s:371    .text.chMtxTryLock:0000000000000000 $t
/var/folders/m4/4md61f0s1_g0rzfghffqnxvr0000gn/T//cco5YJlY.s:377    .text.chMtxTryLock:0000000000000000 chMtxTryLock
/var/folders/m4/4md61f0s1_g0rzfghffqnxvr0000gn/T//cco5YJlY.s:484    .text.chMtxTryLock:000000000000002c $d
/var/folders/m4/4md61f0s1_g0rzfghffqnxvr0000gn/T//cco5YJlY.s:489    .text.chMtxTryLockS:0000000000000000 $t
/var/folders/m4/4md61f0s1_g0rzfghffqnxvr0000gn/T//cco5YJlY.s:495    .text.chMtxTryLockS:0000000000000000 chMtxTryLockS
/var/folders/m4/4md61f0s1_g0rzfghffqnxvr0000gn/T//cco5YJlY.s:534    .text.chMtxTryLockS:000000000000001c $d
/var/folders/m4/4md61f0s1_g0rzfghffqnxvr0000gn/T//cco5YJlY.s:541    .text.chMtxUnlock:0000000000000000 $t
/var/folders/m4/4md61f0s1_g0rzfghffqnxvr0000gn/T//cco5YJlY.s:547    .text.chMtxUnlock:0000000000000000 chMtxUnlock
/var/folders/m4/4md61f0s1_g0rzfghffqnxvr0000gn/T//cco5YJlY.s:718    .text.chMtxUnlock:0000000000000060 $d
/var/folders/m4/4md61f0s1_g0rzfghffqnxvr0000gn/T//cco5YJlY.s:728    .text.chMtxUnlockS:0000000000000000 $t
/var/folders/m4/4md61f0s1_g0rzfghffqnxvr0000gn/T//cco5YJlY.s:734    .text.chMtxUnlockS:0000000000000000 chMtxUnlockS
/var/folders/m4/4md61f0s1_g0rzfghffqnxvr0000gn/T//cco5YJlY.s:868    .text.chMtxUnlockS:000000000000004c $d
/var/folders/m4/4md61f0s1_g0rzfghffqnxvr0000gn/T//cco5YJlY.s:873    .text.chMtxUnlockAll:0000000000000000 $t
/var/folders/m4/4md61f0s1_g0rzfghffqnxvr0000gn/T//cco5YJlY.s:879    .text.chMtxUnlockAll:0000000000000000 chMtxUnlockAll
/var/folders/m4/4md61f0s1_g0rzfghffqnxvr0000gn/T//cco5YJlY.s:1026   .text.chMtxUnlockAll:0000000000000050 $d
                     .debug_frame:0000000000000010 $d

UNDEFINED SYMBOLS
chSchGoSleepS
chSchReadyI
ch
chSchRescheduleS
