ARM GAS  /var/folders/m4/4md61f0s1_g0rzfghffqnxvr0000gn/T//ccszo0QP.s 			page 1


   1              		.syntax unified
   2              		.cpu cortex-m4
   3              		.eabi_attribute 27, 1
   4              		.eabi_attribute 28, 1
   5              		.fpu fpv4-sp-d16
   6              		.eabi_attribute 20, 1
   7              		.eabi_attribute 21, 1
   8              		.eabi_attribute 23, 3
   9              		.eabi_attribute 24, 1
  10              		.eabi_attribute 25, 1
  11              		.eabi_attribute 26, 1
  12              		.eabi_attribute 30, 2
  13              		.eabi_attribute 34, 1
  14              		.eabi_attribute 18, 4
  15              		.thumb
  16              		.syntax unified
  17              		.file	"chprintf.c"
  18              		.text
  19              	.Ltext0:
  20              		.cfi_sections	.debug_frame
  21              		.section	.text.ch_ltoa,"ax",%progbits
  22              		.align	2
  23              		.p2align 4,,15
  24              		.thumb
  25              		.thumb_func
  26              		.type	ch_ltoa, %function
  27              	ch_ltoa:
  28              	.LFB269:
  29              		.file 1 "ChibiOS_16.1.4/os/hal/lib/streams/chprintf.c"
  30              		.loc 1 70 0
  31              		.cfi_startproc
  32              		@ args = 0, pretend = 0, frame = 0
  33              		@ frame_needed = 0, uses_anonymous_args = 0
  34              		@ link register save eliminated.
  35              	.LVL0:
  36 0000 F0B4     		push	{r4, r5, r6, r7}
  37              		.cfi_def_cfa_offset 16
  38              		.cfi_offset 4, -16
  39              		.cfi_offset 5, -12
  40              		.cfi_offset 6, -8
  41              		.cfi_offset 7, -4
  42              	.LBB6:
  43              	.LBB7:
  44              		.loc 1 52 0
  45 0002 00F10B07 		add	r7, r0, #11
  46              	.LVL1:
  47 0006 3C46     		mov	r4, r7
  48 0008 0D46     		mov	r5, r1
  49              	.LVL2:
  50              	.L3:
  51              		.loc 1 54 0
  52 000a B1FBF2F6 		udiv	r6, r1, r2
  53 000e 02FB1611 		mls	r1, r2, r6, r1
  54              	.LVL3:
  55              		.loc 1 55 0
  56 0012 01F13003 		add	r3, r1, #48
  57              	.LVL4:
ARM GAS  /var/folders/m4/4md61f0s1_g0rzfghffqnxvr0000gn/T//ccszo0QP.s 			page 2


  58              		.loc 1 56 0
  59 0016 392B     		cmp	r3, #57
  60              		.loc 1 57 0
  61 0018 C8BF     		it	gt
  62 001a 01F13703 		addgt	r3, r1, #55
  63              	.LVL5:
  64              		.loc 1 58 0
  65 001e DBB2     		uxtb	r3, r3
  66              	.LVL6:
  67 0020 04F8013D 		strb	r3, [r4, #-1]!
  68              	.LVL7:
  69              		.loc 1 60 0
  70 0024 B5FBF2F5 		udiv	r5, r5, r2
  71              	.LVL8:
  72              		.loc 1 59 0
  73 0028 3146     		mov	r1, r6
  74              	.LVL9:
  75              		.loc 1 60 0
  76 002a 002D     		cmp	r5, #0
  77 002c EDD1     		bne	.L3
  78              	.LVL10:
  79 002e 3A1B     		subs	r2, r7, r4
  80              	.LVL11:
  81 0030 0244     		add	r2, r2, r0
  82 0032 01E0     		b	.L5
  83              	.LVL12:
  84              	.L10:
  85 0034 14F8013F 		ldrb	r3, [r4, #1]!	@ zero_extendqisi2
  86              	.LVL13:
  87              	.L5:
  88              		.loc 1 64 0
  89 0038 00F8013B 		strb	r3, [r0], #1
  90              	.LVL14:
  91              		.loc 1 65 0
  92 003c 9042     		cmp	r0, r2
  93 003e F9D1     		bne	.L10
  94              	.LVL15:
  95              	.LBE7:
  96              	.LBE6:
  97              		.loc 1 73 0
  98 0040 F0BC     		pop	{r4, r5, r6, r7}
  99              		.cfi_restore 7
 100              		.cfi_restore 6
 101              		.cfi_restore 5
 102              		.cfi_restore 4
 103              		.cfi_def_cfa_offset 0
 104              	.LVL16:
 105 0042 7047     		bx	lr
 106              		.cfi_endproc
 107              	.LFE269:
 108              		.size	ch_ltoa, .-ch_ltoa
 109              		.global	__aeabi_d2f
 110              		.global	__aeabi_f2d
 111              		.global	__aeabi_ui2d
 112              		.global	__aeabi_i2d
 113              		.global	__aeabi_dsub
 114              		.global	__aeabi_dmul
ARM GAS  /var/folders/m4/4md61f0s1_g0rzfghffqnxvr0000gn/T//ccszo0QP.s 			page 3


 115              		.global	__aeabi_d2iz
 116              		.section	.text.chvprintf,"ax",%progbits
 117              		.align	2
 118              		.p2align 4,,15
 119              		.global	chvprintf
 120              		.thumb
 121              		.thumb_func
 122              		.type	chvprintf, %function
 123              	chvprintf:
 124              	.LFB271:
 125              		.loc 1 121 0
 126              		.cfi_startproc
 127              		@ args = 0, pretend = 0, frame = 64
 128              		@ frame_needed = 0, uses_anonymous_args = 0
 129              	.LVL17:
 130 0000 2DE9F04F 		push	{r4, r5, r6, r7, r8, r9, r10, fp, lr}
 131              		.cfi_def_cfa_offset 36
 132              		.cfi_offset 4, -36
 133              		.cfi_offset 5, -32
 134              		.cfi_offset 6, -28
 135              		.cfi_offset 7, -24
 136              		.cfi_offset 8, -20
 137              		.cfi_offset 9, -16
 138              		.cfi_offset 10, -12
 139              		.cfi_offset 11, -8
 140              		.cfi_offset 14, -4
 141 0004 2DED028B 		vpush.64	{d8}
 142              		.cfi_def_cfa_offset 44
 143              		.cfi_offset 80, -44
 144              		.cfi_offset 81, -40
 145 0008 91B0     		sub	sp, sp, #68
 146              		.cfi_def_cfa_offset 112
 147              		.loc 1 124 0
 148 000a 0023     		movs	r3, #0
 149              		.loc 1 121 0
 150 000c 0646     		mov	r6, r0
 151 000e 8B46     		mov	fp, r1
 152 0010 9246     		mov	r10, r2
 153              	.LVL18:
 154              		.loc 1 124 0
 155 0012 0093     		str	r3, [sp]
 156              	.LVL19:
 157              	.L12:
 158              		.loc 1 135 0
 159 0014 9BF80010 		ldrb	r1, [fp]	@ zero_extendqisi2
 160 0018 0BF10103 		add	r3, fp, #1
 161              	.LVL20:
 162              		.loc 1 136 0
 163 001c 79B1     		cbz	r1, .L102
 164              	.L115:
 165              		.loc 1 138 0
 166 001e 2529     		cmp	r1, #37
 167 0020 13D0     		beq	.L14
 168              		.loc 1 140 0
 169 0022 009C     		ldr	r4, [sp]
 170              		.loc 1 139 0
 171 0024 3268     		ldr	r2, [r6]
ARM GAS  /var/folders/m4/4md61f0s1_g0rzfghffqnxvr0000gn/T//ccszo0QP.s 			page 4


 172              	.LVL21:
 173              		.loc 1 135 0
 174 0026 9B46     		mov	fp, r3
 175              		.loc 1 139 0
 176 0028 9268     		ldr	r2, [r2, #8]
 177 002a 3046     		mov	r0, r6
 178              		.loc 1 140 0
 179 002c 0134     		adds	r4, r4, #1
 180 002e 0094     		str	r4, [sp]
 181              		.loc 1 139 0
 182 0030 9047     		blx	r2
 183              	.LVL22:
 184              		.loc 1 135 0
 185 0032 9BF80010 		ldrb	r1, [fp]	@ zero_extendqisi2
 186 0036 0BF10103 		add	r3, fp, #1
 187              	.LVL23:
 188              		.loc 1 136 0
 189 003a 0029     		cmp	r1, #0
 190 003c EFD1     		bne	.L115
 191              	.LVL24:
 192              	.L102:
 193              		.loc 1 277 0
 194 003e 0098     		ldr	r0, [sp]
 195 0040 11B0     		add	sp, sp, #68
 196              		.cfi_remember_state
 197              		.cfi_def_cfa_offset 44
 198              	.LVL25:
 199              		@ sp needed
 200 0042 BDEC028B 		vldm	sp!, {d8}
 201              		.cfi_restore 80
 202              		.cfi_restore 81
 203              		.cfi_def_cfa_offset 36
 204 0046 BDE8F08F 		pop	{r4, r5, r6, r7, r8, r9, r10, fp, pc}
 205              	.LVL26:
 206              	.L14:
 207              		.cfi_restore_state
 208              		.loc 1 146 0
 209 004a 9BF80120 		ldrb	r2, [fp, #1]	@ zero_extendqisi2
 210              	.LVL27:
 211 004e 2D2A     		cmp	r2, #45
 212 0050 03BF     		ittte	eq
 213 0052 9BF80220 		ldrbeq	r2, [fp, #2]	@ zero_extendqisi2
 214              		.loc 1 147 0
 215 0056 0BF10203 		addeq	r3, fp, #2
 216              	.LVL28:
 217              		.loc 1 148 0
 218 005a 0121     		moveq	r1, #1
 219              	.LVL29:
 220              		.loc 1 145 0
 221 005c 0021     		movne	r1, #0
 222              		.loc 1 151 0
 223 005e 302A     		cmp	r2, #48
 224 0060 08BF     		it	eq
 225 0062 5A78     		ldrbeq	r2, [r3, #1]	@ zero_extendqisi2
 226              		.loc 1 145 0
 227 0064 0191     		str	r1, [sp, #4]
 228              	.LVL30:
ARM GAS  /var/folders/m4/4md61f0s1_g0rzfghffqnxvr0000gn/T//ccszo0QP.s 			page 5


 229              		.loc 1 152 0
 230 0066 06BF     		itte	eq
 231 0068 0133     		addeq	r3, r3, #1
 232              	.LVL31:
 233              		.loc 1 153 0
 234 006a 3027     		moveq	r7, #48
 235              		.loc 1 150 0
 236 006c 2027     		movne	r7, #32
 237              	.LVL32:
 238 006e 591C     		adds	r1, r3, #1
 239              		.loc 1 155 0
 240 0070 0024     		movs	r4, #0
 241 0072 08E0     		b	.L20
 242              	.LVL33:
 243              	.L116:
 244              		.loc 1 161 0
 245 0074 9AF80030 		ldrb	r3, [r10]	@ zero_extendqisi2
 246              	.LVL34:
 247 0078 0AF1040A 		add	r10, r10, #4
 248              	.LVL35:
 249              	.L18:
 250 007c 9BF80020 		ldrb	r2, [fp]	@ zero_extendqisi2
 251              		.loc 1 164 0
 252 0080 03EB4004 		add	r4, r3, r0, lsl #1
 253              	.LVL36:
 254 0084 0131     		adds	r1, r1, #1
 255              	.LVL37:
 256              	.L20:
 257              		.loc 1 158 0
 258 0086 A2F13003 		sub	r3, r2, #48
 259 008a DBB2     		uxtb	r3, r3
 260 008c 092B     		cmp	r3, #9
 261              		.loc 1 157 0
 262 008e 8B46     		mov	fp, r1
 263              	.LVL38:
 264              		.loc 1 164 0
 265 0090 04EB8400 		add	r0, r4, r4, lsl #2
 266              		.loc 1 158 0
 267 0094 F2D9     		bls	.L18
 268              		.loc 1 160 0
 269 0096 2A2A     		cmp	r2, #42
 270 0098 ECD0     		beq	.L116
 271              	.LVL39:
 272              		.loc 1 167 0
 273 009a 2E2A     		cmp	r2, #46
 274 009c 4FF00008 		mov	r8, #0
 275 00a0 45D0     		beq	.L23
 276              	.LVL40:
 277              		.loc 1 181 0
 278 00a2 02F0DF03 		and	r3, r2, #223
 279 00a6 4C2B     		cmp	r3, #76
 280 00a8 50D0     		beq	.L117
 281              	.LVL41:
 282              	.L103:
 283              		.loc 1 190 0
 284 00aa A2F14403 		sub	r3, r2, #68
 285 00ae 342B     		cmp	r3, #52
ARM GAS  /var/folders/m4/4md61f0s1_g0rzfghffqnxvr0000gn/T//ccszo0QP.s 			page 6


 286 00b0 00F2C981 		bhi	.L26
 287 00b4 DFE813F0 		tbh	[pc, r3, lsl #1]
 288              	.L36:
 289 00b8 B701     		.2byte	(.L44-.L36)/2
 290 00ba C701     		.2byte	(.L26-.L36)/2
 291 00bc C701     		.2byte	(.L26-.L36)/2
 292 00be C701     		.2byte	(.L26-.L36)/2
 293 00c0 C701     		.2byte	(.L26-.L36)/2
 294 00c2 B701     		.2byte	(.L44-.L36)/2
 295 00c4 C701     		.2byte	(.L26-.L36)/2
 296 00c6 C701     		.2byte	(.L26-.L36)/2
 297 00c8 C701     		.2byte	(.L26-.L36)/2
 298 00ca C701     		.2byte	(.L26-.L36)/2
 299 00cc C701     		.2byte	(.L26-.L36)/2
 300 00ce B501     		.2byte	(.L29-.L36)/2
 301 00d0 C701     		.2byte	(.L26-.L36)/2
 302 00d2 C701     		.2byte	(.L26-.L36)/2
 303 00d4 C701     		.2byte	(.L26-.L36)/2
 304 00d6 C701     		.2byte	(.L26-.L36)/2
 305 00d8 C701     		.2byte	(.L26-.L36)/2
 306 00da 0601     		.2byte	(.L30-.L36)/2
 307 00dc C701     		.2byte	(.L26-.L36)/2
 308 00de C701     		.2byte	(.L26-.L36)/2
 309 00e0 8D00     		.2byte	(.L77-.L36)/2
 310 00e2 C701     		.2byte	(.L26-.L36)/2
 311 00e4 C701     		.2byte	(.L26-.L36)/2
 312 00e6 C701     		.2byte	(.L26-.L36)/2
 313 00e8 C701     		.2byte	(.L26-.L36)/2
 314 00ea C701     		.2byte	(.L26-.L36)/2
 315 00ec C701     		.2byte	(.L26-.L36)/2
 316 00ee C701     		.2byte	(.L26-.L36)/2
 317 00f0 C701     		.2byte	(.L26-.L36)/2
 318 00f2 C701     		.2byte	(.L26-.L36)/2
 319 00f4 C701     		.2byte	(.L26-.L36)/2
 320 00f6 A701     		.2byte	(.L32-.L36)/2
 321 00f8 B701     		.2byte	(.L44-.L36)/2
 322 00fa C701     		.2byte	(.L26-.L36)/2
 323 00fc 0801     		.2byte	(.L33-.L36)/2
 324 00fe C701     		.2byte	(.L26-.L36)/2
 325 0100 C701     		.2byte	(.L26-.L36)/2
 326 0102 B701     		.2byte	(.L44-.L36)/2
 327 0104 C701     		.2byte	(.L26-.L36)/2
 328 0106 C701     		.2byte	(.L26-.L36)/2
 329 0108 C701     		.2byte	(.L26-.L36)/2
 330 010a C701     		.2byte	(.L26-.L36)/2
 331 010c C701     		.2byte	(.L26-.L36)/2
 332 010e B501     		.2byte	(.L29-.L36)/2
 333 0110 C701     		.2byte	(.L26-.L36)/2
 334 0112 C701     		.2byte	(.L26-.L36)/2
 335 0114 C701     		.2byte	(.L26-.L36)/2
 336 0116 DB00     		.2byte	(.L34-.L36)/2
 337 0118 C701     		.2byte	(.L26-.L36)/2
 338 011a 0601     		.2byte	(.L30-.L36)/2
 339 011c C701     		.2byte	(.L26-.L36)/2
 340 011e C701     		.2byte	(.L26-.L36)/2
 341 0120 8D00     		.2byte	(.L77-.L36)/2
 342              	.LVL42:
ARM GAS  /var/folders/m4/4md61f0s1_g0rzfghffqnxvr0000gn/T//ccszo0QP.s 			page 7


 343              		.p2align 1
 344              	.L118:
 345              		.loc 1 173 0
 346 0122 9AF80030 		ldrb	r3, [r10]	@ zero_extendqisi2
 347              	.LVL43:
 348 0126 0AF1040A 		add	r10, r10, #4
 349              	.LVL44:
 350              	.L22:
 351              		.loc 1 177 0
 352 012a 03EB4108 		add	r8, r3, r1, lsl #1
 353              	.LVL45:
 354              	.L23:
 355              		.loc 1 169 0
 356 012e 1BF8012B 		ldrb	r2, [fp], #1	@ zero_extendqisi2
 357              	.LVL46:
 358              		.loc 1 170 0
 359 0132 A2F13003 		sub	r3, r2, #48
 360 0136 DBB2     		uxtb	r3, r3
 361 0138 092B     		cmp	r3, #9
 362              		.loc 1 176 0
 363 013a 08EB8801 		add	r1, r8, r8, lsl #2
 364              		.loc 1 170 0
 365 013e F4D9     		bls	.L22
 366              		.loc 1 172 0
 367 0140 2A2A     		cmp	r2, #42
 368 0142 EED0     		beq	.L118
 369              	.LVL47:
 370              		.loc 1 181 0
 371 0144 02F0DF03 		and	r3, r2, #223
 372 0148 4C2B     		cmp	r3, #76
 373 014a AED1     		bne	.L103
 374              	.L117:
 375              	.LVL48:
 376              		.loc 1 183 0
 377 014c 9BF80010 		ldrb	r1, [fp]	@ zero_extendqisi2
 378 0150 0029     		cmp	r1, #0
 379 0152 00F07881 		beq	.L26
 380              		.loc 1 190 0
 381 0156 A1F14403 		sub	r3, r1, #68
 382              		.loc 1 184 0
 383 015a 0BF1010B 		add	fp, fp, #1
 384              	.LVL49:
 385              		.loc 1 190 0
 386 015e 342B     		cmp	r3, #52
 387 0160 00F27081 		bhi	.L74
 388 0164 DFE813F0 		tbh	[pc, r3, lsl #1]
 389              	.L28:
 390 0168 5F01     		.2byte	(.L44-.L28)/2
 391 016a 6E01     		.2byte	(.L74-.L28)/2
 392 016c 6E01     		.2byte	(.L74-.L28)/2
 393 016e 6E01     		.2byte	(.L74-.L28)/2
 394 0170 6E01     		.2byte	(.L74-.L28)/2
 395 0172 5F01     		.2byte	(.L44-.L28)/2
 396 0174 6E01     		.2byte	(.L74-.L28)/2
 397 0176 6E01     		.2byte	(.L74-.L28)/2
 398 0178 6E01     		.2byte	(.L74-.L28)/2
 399 017a 6E01     		.2byte	(.L74-.L28)/2
ARM GAS  /var/folders/m4/4md61f0s1_g0rzfghffqnxvr0000gn/T//ccszo0QP.s 			page 8


 400 017c 6E01     		.2byte	(.L74-.L28)/2
 401 017e 5D01     		.2byte	(.L29-.L28)/2
 402 0180 6E01     		.2byte	(.L74-.L28)/2
 403 0182 6E01     		.2byte	(.L74-.L28)/2
 404 0184 6E01     		.2byte	(.L74-.L28)/2
 405 0186 6E01     		.2byte	(.L74-.L28)/2
 406 0188 6E01     		.2byte	(.L74-.L28)/2
 407 018a AE00     		.2byte	(.L30-.L28)/2
 408 018c 6E01     		.2byte	(.L74-.L28)/2
 409 018e 6E01     		.2byte	(.L74-.L28)/2
 410 0190 3500     		.2byte	(.L77-.L28)/2
 411 0192 6E01     		.2byte	(.L74-.L28)/2
 412 0194 6E01     		.2byte	(.L74-.L28)/2
 413 0196 6E01     		.2byte	(.L74-.L28)/2
 414 0198 6E01     		.2byte	(.L74-.L28)/2
 415 019a 6E01     		.2byte	(.L74-.L28)/2
 416 019c 6E01     		.2byte	(.L74-.L28)/2
 417 019e 6E01     		.2byte	(.L74-.L28)/2
 418 01a0 6E01     		.2byte	(.L74-.L28)/2
 419 01a2 6E01     		.2byte	(.L74-.L28)/2
 420 01a4 6E01     		.2byte	(.L74-.L28)/2
 421 01a6 4F01     		.2byte	(.L32-.L28)/2
 422 01a8 5F01     		.2byte	(.L44-.L28)/2
 423 01aa 6E01     		.2byte	(.L74-.L28)/2
 424 01ac B000     		.2byte	(.L33-.L28)/2
 425 01ae 6E01     		.2byte	(.L74-.L28)/2
 426 01b0 6E01     		.2byte	(.L74-.L28)/2
 427 01b2 5F01     		.2byte	(.L44-.L28)/2
 428 01b4 6E01     		.2byte	(.L74-.L28)/2
 429 01b6 6E01     		.2byte	(.L74-.L28)/2
 430 01b8 6E01     		.2byte	(.L74-.L28)/2
 431 01ba 6E01     		.2byte	(.L74-.L28)/2
 432 01bc 6E01     		.2byte	(.L74-.L28)/2
 433 01be 5D01     		.2byte	(.L29-.L28)/2
 434 01c0 6E01     		.2byte	(.L74-.L28)/2
 435 01c2 6E01     		.2byte	(.L74-.L28)/2
 436 01c4 6E01     		.2byte	(.L74-.L28)/2
 437 01c6 8300     		.2byte	(.L34-.L28)/2
 438 01c8 6E01     		.2byte	(.L74-.L28)/2
 439 01ca AE00     		.2byte	(.L30-.L28)/2
 440 01cc 6E01     		.2byte	(.L74-.L28)/2
 441 01ce 6E01     		.2byte	(.L74-.L28)/2
 442 01d0 3500     		.2byte	(.L77-.L28)/2
 443              	.L37:
 444              	.LVL50:
 445              		.p2align 1
 446              	.L77:
 447 01d2 1022     		movs	r2, #16
 448              	.L57:
 449              		.loc 1 244 0
 450 01d4 0AAD     		add	r5, sp, #40
 451              	.LVL51:
 452              		.loc 1 243 0
 453 01d6 DAF80010 		ldr	r1, [r10]
 454              	.LVL52:
 455              		.loc 1 244 0
 456 01da 2846     		mov	r0, r5
ARM GAS  /var/folders/m4/4md61f0s1_g0rzfghffqnxvr0000gn/T//ccszo0QP.s 			page 9


 457 01dc FFF7FEFF 		bl	ch_ltoa
 458              	.LVL53:
 459 01e0 401B     		subs	r0, r0, r5
 460              		.loc 1 243 0
 461 01e2 0AF1040A 		add	r10, r10, #4
 462              	.LVL54:
 463 01e6 00F1FF38 		add	r8, r0, #-1
 464              	.LVL55:
 465              	.L38:
 466              		.loc 1 253 0
 467 01ea 019B     		ldr	r3, [sp, #4]
 468              		.loc 1 251 0
 469 01ec 241A     		subs	r4, r4, r0
 470              	.LVL56:
 471 01ee 24EAE474 		bic	r4, r4, r4, asr #31
 472              	.LVL57:
 473              		.loc 1 253 0
 474 01f2 002B     		cmp	r3, #0
 475 01f4 62D1     		bne	.L59
 476              	.LVL58:
 477              	.L70:
 478              		.loc 1 254 0
 479 01f6 C4F10009 		rsb	r9, r4, #0
 480              	.LVL59:
 481              		.loc 1 255 0
 482 01fa B9F1000F 		cmp	r9, #0
 483 01fe 00F02B81 		beq	.L60
 484              		.loc 1 256 0
 485 0202 2978     		ldrb	r1, [r5]	@ zero_extendqisi2
 486 0204 2D29     		cmp	r1, #45
 487 0206 00F03A81 		beq	.L119
 488              	.LVL60:
 489              	.L62:
 490              		.loc 1 262 0 discriminator 1
 491 020a 3368     		ldr	r3, [r6]
 492 020c 3946     		mov	r1, r7
 493 020e 9B68     		ldr	r3, [r3, #8]
 494 0210 3046     		mov	r0, r6
 495 0212 9847     		blx	r3
 496              	.LVL61:
 497              		.loc 1 264 0 discriminator 1
 498 0214 19F10109 		adds	r9, r9, #1
 499              	.LVL62:
 500 0218 F7D1     		bne	.L62
 501 021a 009B     		ldr	r3, [sp]
 502              		.loc 1 266 0
 503 021c B8F1000F 		cmp	r8, #0
 504 0220 2344     		add	r3, r3, r4
 505 0222 0093     		str	r3, [sp]
 506              	.LVL63:
 507 0224 FFF6F6AE 		blt	.L12
 508 0228 4C46     		mov	r4, r9
 509              	.LVL64:
 510              	.L69:
 511 022a C146     		mov	r9, r8
 512              	.LVL65:
 513              	.L65:
ARM GAS  /var/folders/m4/4md61f0s1_g0rzfghffqnxvr0000gn/T//ccszo0QP.s 			page 10


 514              		.loc 1 267 0
 515 022c 3368     		ldr	r3, [r6]
 516 022e 15F8011B 		ldrb	r1, [r5], #1	@ zero_extendqisi2
 517              	.LVL66:
 518 0232 9B68     		ldr	r3, [r3, #8]
 519              		.loc 1 266 0
 520 0234 09F1FF39 		add	r9, r9, #-1
 521              	.LVL67:
 522              		.loc 1 267 0
 523 0238 3046     		mov	r0, r6
 524 023a 9847     		blx	r3
 525              	.LVL68:
 526              		.loc 1 266 0
 527 023c B9F1FF3F 		cmp	r9, #-1
 528 0240 F4D1     		bne	.L65
 529 0242 009B     		ldr	r3, [sp]
 530 0244 0133     		adds	r3, r3, #1
 531 0246 B8F1000F 		cmp	r8, #0
 532 024a A8BF     		it	ge
 533 024c 4344     		addge	r3, r3, r8
 534 024e 0093     		str	r3, [sp]
 535              	.LVL69:
 536              	.L64:
 537              		.loc 1 271 0
 538 0250 002C     		cmp	r4, #0
 539 0252 3FF4DFAE 		beq	.L12
 540 0256 2546     		mov	r5, r4
 541              	.LVL70:
 542              	.L66:
 543              		.loc 1 272 0
 544 0258 3368     		ldr	r3, [r6]
 545 025a 3946     		mov	r1, r7
 546 025c 9B68     		ldr	r3, [r3, #8]
 547 025e 3046     		mov	r0, r6
 548 0260 9847     		blx	r3
 549              	.LVL71:
 550              		.loc 1 271 0
 551 0262 013D     		subs	r5, r5, #1
 552              	.LVL72:
 553 0264 F8D1     		bne	.L66
 554 0266 009B     		ldr	r3, [sp]
 555 0268 2344     		add	r3, r3, r4
 556 026a 0093     		str	r3, [sp]
 557 026c D2E6     		b	.L12
 558              	.LVL73:
 559              	.L34:
 560              		.loc 1 197 0
 561 026e DAF80050 		ldr	r5, [r10]
 562              		.loc 1 198 0
 563 0272 9B4B     		ldr	r3, .L124+8
 564 0274 002D     		cmp	r5, #0
 565 0276 08BF     		it	eq
 566 0278 1D46     		moveq	r5, r3
 567              		.loc 1 197 0
 568 027a 0AF1040A 		add	r10, r10, #4
 569              	.LVL74:
 570              		.loc 1 201 0
ARM GAS  /var/folders/m4/4md61f0s1_g0rzfghffqnxvr0000gn/T//ccszo0QP.s 			page 11


 571 027e 2B78     		ldrb	r3, [r5]	@ zero_extendqisi2
 572              		.loc 1 199 0
 573 0280 B8F1000F 		cmp	r8, #0
 574 0284 00F0EE80 		beq	.L40
 575              	.LVL75:
 576              		.loc 1 201 0 discriminator 1
 577 0288 002B     		cmp	r3, #0
 578 028a 00F0F080 		beq	.L41
 579              		.loc 1 201 0 is_stmt 0
 580 028e 08F1FF38 		add	r8, r8, #-1
 581              	.LVL76:
 582              	.L68:
 583              		.loc 1 201 0 discriminator 4
 584 0292 2846     		mov	r0, r5
 585 0294 02E0     		b	.L43
 586              	.LVL77:
 587              	.L120:
 588              		.loc 1 201 0 discriminator 3
 589 0296 B8F1FF3F 		cmp	r8, #-1
 590 029a 05D0     		beq	.L110
 591              	.LVL78:
 592              	.L43:
 593              		.loc 1 201 0 discriminator 4
 594 029c 10F8013F 		ldrb	r3, [r0, #1]!	@ zero_extendqisi2
 595              	.LVL79:
 596 02a0 08F1FF38 		add	r8, r8, #-1
 597              	.LVL80:
 598 02a4 002B     		cmp	r3, #0
 599 02a6 F6D1     		bne	.L120
 600              	.L110:
 601 02a8 401B     		subs	r0, r0, r5
 602              	.LVL81:
 603              		.loc 1 253 0 is_stmt 1
 604 02aa 019B     		ldr	r3, [sp, #4]
 605              		.loc 1 251 0
 606 02ac 241A     		subs	r4, r4, r0
 607              	.LVL82:
 608 02ae 00F1FF38 		add	r8, r0, #-1
 609              	.LVL83:
 610              		.loc 1 196 0
 611 02b2 2027     		movs	r7, #32
 612              	.LVL84:
 613 02b4 24EAE474 		bic	r4, r4, r4, asr #31
 614              	.LVL85:
 615              		.loc 1 253 0
 616 02b8 002B     		cmp	r3, #0
 617 02ba 9CD0     		beq	.L70
 618              	.L59:
 619              		.loc 1 266 0
 620 02bc B8F1000F 		cmp	r8, #0
 621 02c0 B3DA     		bge	.L69
 622 02c2 C5E7     		b	.L64
 623              	.LVL86:
 624              	.L30:
 625              		.loc 1 235 0
 626 02c4 0A22     		movs	r2, #10
 627 02c6 85E7     		b	.L57
ARM GAS  /var/folders/m4/4md61f0s1_g0rzfghffqnxvr0000gn/T//ccszo0QP.s 			page 12


 628              	.LVL87:
 629              	.L33:
 630              		.loc 1 220 0
 631 02c8 0AF1070A 		add	r10, r10, #7
 632 02cc 2AF0070A 		bic	r10, r10, #7
 633 02d0 DAE90001 		ldrd	r0, [r10]
 634 02d4 FFF7FEFF 		bl	__aeabi_d2f
 635              	.LVL88:
 636 02d8 08EE100A 		vmov	s16, r0
 637              		.loc 1 221 0
 638 02dc B5EEC08A 		vcmpe.f32	s16, #0
 639 02e0 F1EE10FA 		vmrs	APSR_nzcv, FPSCR
 640              		.loc 1 220 0
 641 02e4 0AF1080A 		add	r10, r10, #8
 642              	.LVL89:
 643              		.loc 1 221 0
 644 02e8 00F1E880 		bmi	.L121
 645              		.loc 1 143 0
 646 02ec 0AAD     		add	r5, sp, #40
 647              	.LVL90:
 648 02ee 2A46     		mov	r2, r5
 649              	.LVL91:
 650              	.L47:
 651              		.loc 1 225 0
 652 02f0 18EE100A 		vmov	r0, s16
 653 02f4 0492     		str	r2, [sp, #16]
 654              	.LVL92:
 655 02f6 FFF7FEFF 		bl	__aeabi_f2d
 656              	.LVL93:
 657              	.LBB14:
 658              	.LBB15:
 659              		.loc 1 83 0
 660 02fa 08F1FF38 		add	r8, r8, #-1
 661              	.LVL94:
 662 02fe B8F1080F 		cmp	r8, #8
 663              	.LBE15:
 664              	.LBE14:
 665              		.loc 1 225 0
 666 0302 CDE90201 		strd	r0, [sp, #8]
 667              	.LVL95:
 668              	.LBB26:
 669              	.LBB24:
 670              		.loc 1 83 0
 671 0306 049A     		ldr	r2, [sp, #16]
 672 0308 00F2C780 		bhi	.L82
 673 030c 754B     		ldr	r3, .L124+12
 674 030e 53F82880 		ldr	r8, [r3, r8, lsl #2]
 675              	.LVL96:
 676 0312 4046     		mov	r0, r8
 677              	.LVL97:
 678 0314 FFF7FEFF 		bl	__aeabi_ui2d
 679              	.LVL98:
 680 0318 734B     		ldr	r3, .L124+16
 681 031a 049A     		ldr	r2, [sp, #16]
 682 031c A3FB0838 		umull	r3, r8, r3, r8
 683 0320 CDE90601 		strd	r0, [sp, #24]
 684 0324 4FEAD803 		lsr	r3, r8, #3
ARM GAS  /var/folders/m4/4md61f0s1_g0rzfghffqnxvr0000gn/T//ccszo0QP.s 			page 13


 685 0328 0993     		str	r3, [sp, #36]
 686 032a 9846     		mov	r8, r3
 687              	.L49:
 688              	.LVL99:
 689              		.loc 1 87 0
 690 032c FDEEC87A 		vcvt.s32.f32	s15, s16
 691              	.LBB16:
 692              	.LBB17:
 693              		.loc 1 52 0
 694 0330 02F10B03 		add	r3, r2, #11
 695 0334 17EE901A 		vmov	r1, s15	@ int
 696              		.loc 1 45 0
 697 0338 17EE90EA 		vmov	lr, s15	@ int
 698              	.LBE17:
 699              	.LBE16:
 700              		.loc 1 87 0
 701 033c CDED047A 		vstr.32	s15, [sp, #16]	@ int
 702              	.LVL100:
 703              	.LBB19:
 704              	.LBB18:
 705              		.loc 1 52 0
 706 0340 0593     		str	r3, [sp, #20]
 707              	.LVL101:
 708 0342 1846     		mov	r0, r3
 709 0344 0892     		str	r2, [sp, #32]
 710              	.LVL102:
 711              	.L50:
 712              		.loc 1 54 0
 713 0346 684B     		ldr	r3, .L124+16
 714 0348 A3FB0E23 		umull	r2, r3, r3, lr
 715 034c DB08     		lsrs	r3, r3, #3
 716 034e 03EB8309 		add	r9, r3, r3, lsl #2
 717              		.loc 1 60 0
 718 0352 654A     		ldr	r2, .L124+16
 719              		.loc 1 54 0
 720 0354 9C46     		mov	ip, r3
 721 0356 AEEB4903 		sub	r3, lr, r9, lsl #1
 722              	.LVL103:
 723              		.loc 1 58 0
 724 035a 3033     		adds	r3, r3, #48
 725              	.LVL104:
 726              		.loc 1 60 0
 727 035c A2FB0121 		umull	r2, r1, r2, r1
 728              	.LVL105:
 729              		.loc 1 58 0
 730 0360 DBB2     		uxtb	r3, r3
 731              	.LVL106:
 732              		.loc 1 60 0
 733 0362 C908     		lsrs	r1, r1, #3
 734              		.loc 1 58 0
 735 0364 00F8013D 		strb	r3, [r0, #-1]!
 736              	.LVL107:
 737              		.loc 1 59 0
 738 0368 E646     		mov	lr, ip
 739              	.LVL108:
 740              		.loc 1 60 0
 741 036a ECD1     		bne	.L50
ARM GAS  /var/folders/m4/4md61f0s1_g0rzfghffqnxvr0000gn/T//ccszo0QP.s 			page 14


 742 036c 0599     		ldr	r1, [sp, #20]
 743 036e 089A     		ldr	r2, [sp, #32]
 744              	.LVL109:
 745 0370 C0EB0109 		rsb	r9, r0, r1
 746 0374 9144     		add	r9, r9, r2
 747 0376 01E0     		b	.L52
 748              	.LVL110:
 749              	.L122:
 750 0378 10F8013F 		ldrb	r3, [r0, #1]!	@ zero_extendqisi2
 751              	.LVL111:
 752              	.L52:
 753              		.loc 1 64 0
 754 037c 02F8013B 		strb	r3, [r2], #1
 755              	.LVL112:
 756              		.loc 1 65 0
 757 0380 4A45     		cmp	r2, r9
 758 0382 F9D1     		bne	.L122
 759              	.LVL113:
 760              	.LBE18:
 761              	.LBE19:
 762              		.loc 1 89 0
 763 0384 4A46     		mov	r2, r9
 764 0386 2E23     		movs	r3, #46
 765 0388 02F80C3B 		strb	r3, [r2], #12
 766              		.loc 1 90 0
 767 038c 0498     		ldr	r0, [sp, #16]
 768              		.loc 1 89 0
 769 038e 0492     		str	r2, [sp, #16]
 770              		.loc 1 90 0
 771 0390 FFF7FEFF 		bl	__aeabi_i2d
 772              	.LVL114:
 773 0394 0246     		mov	r2, r0
 774 0396 0B46     		mov	r3, r1
 775 0398 DDE90201 		ldrd	r0, [sp, #8]
 776 039c FFF7FEFF 		bl	__aeabi_dsub
 777              	.LVL115:
 778 03a0 DDE90623 		ldrd	r2, [sp, #24]
 779 03a4 FFF7FEFF 		bl	__aeabi_dmul
 780              	.LVL116:
 781 03a8 FFF7FEFF 		bl	__aeabi_d2iz
 782              	.LVL117:
 783              	.LBB20:
 784              	.LBB21:
 785              		.loc 1 47 0
 786 03ac 0999     		ldr	r1, [sp, #36]
 787              		.loc 1 52 0
 788 03ae 049A     		ldr	r2, [sp, #16]
 789              		.loc 1 47 0
 790 03b0 0029     		cmp	r1, #0
 791 03b2 08BF     		it	eq
 792 03b4 8046     		moveq	r8, r0
 793              	.LBE21:
 794              	.LBE20:
 795              		.loc 1 89 0
 796 03b6 09F1010E 		add	lr, r9, #1
 797              	.LVL118:
 798              	.L54:
ARM GAS  /var/folders/m4/4md61f0s1_g0rzfghffqnxvr0000gn/T//ccszo0QP.s 			page 15


 799              	.LBB23:
 800              	.LBB22:
 801              		.loc 1 54 0
 802 03ba 4B4B     		ldr	r3, .L124+16
 803 03bc A3FB0013 		umull	r1, r3, r3, r0
 804 03c0 DB08     		lsrs	r3, r3, #3
 805 03c2 03EB830C 		add	ip, r3, r3, lsl #2
 806 03c6 1946     		mov	r1, r3
 807 03c8 A0EB4C03 		sub	r3, r0, ip, lsl #1
 808              	.LVL119:
 809              		.loc 1 60 0
 810 03cc 4648     		ldr	r0, .L124+16
 811              	.LVL120:
 812              		.loc 1 58 0
 813 03ce 3033     		adds	r3, r3, #48
 814              	.LVL121:
 815              		.loc 1 60 0
 816 03d0 A0FB0808 		umull	r0, r8, r0, r8
 817              	.LVL122:
 818              		.loc 1 58 0
 819 03d4 DBB2     		uxtb	r3, r3
 820              	.LVL123:
 821              		.loc 1 60 0
 822 03d6 5FEAD808 		lsrs	r8, r8, #3
 823              		.loc 1 58 0
 824 03da 02F8013D 		strb	r3, [r2, #-1]!
 825              	.LVL124:
 826              		.loc 1 59 0
 827 03de 0846     		mov	r0, r1
 828              	.LVL125:
 829              		.loc 1 60 0
 830 03e0 EBD1     		bne	.L54
 831              	.LVL126:
 832 03e2 0499     		ldr	r1, [sp, #16]
 833 03e4 891A     		subs	r1, r1, r2
 834 03e6 481C     		adds	r0, r1, #1
 835              	.LVL127:
 836 03e8 8144     		add	r9, r9, r0
 837              		.loc 1 62 0
 838 03ea 7046     		mov	r0, lr
 839 03ec 01E0     		b	.L56
 840              	.LVL128:
 841              	.L55:
 842 03ee 12F8013F 		ldrb	r3, [r2, #1]!	@ zero_extendqisi2
 843              	.LVL129:
 844              	.L56:
 845              		.loc 1 64 0
 846 03f2 00F8013B 		strb	r3, [r0], #1
 847              	.LVL130:
 848              		.loc 1 65 0
 849 03f6 8145     		cmp	r9, r0
 850 03f8 F9D1     		bne	.L55
 851 03fa 0EEB0100 		add	r0, lr, r1
 852              	.LVL131:
 853 03fe 401B     		subs	r0, r0, r5
 854 0400 00F1FF38 		add	r8, r0, #-1
 855 0404 F1E6     		b	.L38
ARM GAS  /var/folders/m4/4md61f0s1_g0rzfghffqnxvr0000gn/T//ccszo0QP.s 			page 16


 856              	.LVL132:
 857              	.L32:
 858              	.LBE22:
 859              	.LBE23:
 860              	.LBE24:
 861              	.LBE26:
 862              		.loc 1 193 0
 863 0406 10AD     		add	r5, sp, #64
 864 0408 DAF80030 		ldr	r3, [r10]
 865 040c 05F8183D 		strb	r3, [r5, #-24]!
 866 0410 0DF12900 		add	r0, sp, #41
 867              	.LVL133:
 868 0414 401B     		subs	r0, r0, r5
 869              	.LVL134:
 870 0416 0AF1040A 		add	r10, r10, #4
 871 041a 00F1FF38 		add	r8, r0, #-1
 872              	.LVL135:
 873              		.loc 1 192 0
 874 041e 2027     		movs	r7, #32
 875              		.loc 1 194 0
 876 0420 E3E6     		b	.L38
 877              	.LVL136:
 878              	.L29:
 879 0422 0822     		movs	r2, #8
 880 0424 D6E6     		b	.L57
 881              	.LVL137:
 882              	.L44:
 883              		.loc 1 211 0
 884 0426 DAF80010 		ldr	r1, [r10]
 885              	.LVL138:
 886              		.loc 1 212 0
 887 042a 0029     		cmp	r1, #0
 888              		.loc 1 211 0
 889 042c 0AF1040A 		add	r10, r10, #4
 890              		.loc 1 212 0
 891 0430 3CDB     		blt	.L123
 892              		.loc 1 143 0
 893 0432 0AAD     		add	r5, sp, #40
 894              	.LVL139:
 895 0434 2846     		mov	r0, r5
 896              	.LVL140:
 897              	.L46:
 898              		.loc 1 216 0
 899 0436 0A22     		movs	r2, #10
 900 0438 FFF7FEFF 		bl	ch_ltoa
 901              	.LVL141:
 902 043c 401B     		subs	r0, r0, r5
 903              	.LVL142:
 904 043e 00F1FF38 		add	r8, r0, #-1
 905              	.LVL143:
 906              		.loc 1 217 0
 907 0442 D2E6     		b	.L38
 908              	.LVL144:
 909              	.L74:
 910              		.loc 1 190 0
 911 0444 0A46     		mov	r2, r1
 912              	.LVL145:
ARM GAS  /var/folders/m4/4md61f0s1_g0rzfghffqnxvr0000gn/T//ccszo0QP.s 			page 17


 913              	.L26:
 914              		.loc 1 247 0
 915 0446 10AD     		add	r5, sp, #64
 916 0448 0DF12900 		add	r0, sp, #41
 917              	.LVL146:
 918 044c 05F8182D 		strb	r2, [r5, #-24]!
 919 0450 401B     		subs	r0, r0, r5
 920              	.LVL147:
 921 0452 00F1FF38 		add	r8, r0, #-1
 922              	.LVL148:
 923              		.loc 1 248 0
 924 0456 C8E6     		b	.L38
 925              	.LVL149:
 926              	.L60:
 927              		.loc 1 266 0
 928 0458 B8F1000F 		cmp	r8, #0
 929 045c FFF6DAAD 		blt	.L12
 930 0460 4C46     		mov	r4, r9
 931 0462 E2E6     		b	.L69
 932              	.LVL150:
 933              	.L40:
 934              		.loc 1 201 0
 935 0464 47F6FE78 		movw	r8, #32766
 936 0468 002B     		cmp	r3, #0
 937 046a 7FF412AF 		bne	.L68
 938              	.LVL151:
 939              	.L41:
 940              		.loc 1 253 0
 941 046e 019B     		ldr	r3, [sp, #4]
 942 0470 24EAE474 		bic	r4, r4, r4, asr #31
 943              	.LVL152:
 944 0474 5BBB     		cbnz	r3, .L86
 945 0476 4FF0FF38 		mov	r8, #-1
 946 047a 2027     		movs	r7, #32
 947 047c BBE6     		b	.L70
 948              	.LVL153:
 949              	.L119:
 950              		.loc 1 256 0 discriminator 1
 951 047e 302F     		cmp	r7, #48
 952 0480 7FF4C3AE 		bne	.L62
 953              		.loc 1 257 0
 954 0484 3368     		ldr	r3, [r6]
 955 0486 3046     		mov	r0, r6
 956 0488 9B68     		ldr	r3, [r3, #8]
 957 048a 9847     		blx	r3
 958              	.LVL154:
 959              		.loc 1 258 0
 960 048c 009B     		ldr	r3, [sp]
 961 048e 0133     		adds	r3, r3, #1
 962              		.loc 1 257 0
 963 0490 0135     		adds	r5, r5, #1
 964              	.LVL155:
 965              		.loc 1 258 0
 966 0492 0093     		str	r3, [sp]
 967              	.LVL156:
 968 0494 08F1FF38 		add	r8, r8, #-1
 969 0498 B7E6     		b	.L62
ARM GAS  /var/folders/m4/4md61f0s1_g0rzfghffqnxvr0000gn/T//ccszo0QP.s 			page 18


 970              	.LVL157:
 971              	.L82:
 972              	.LBB27:
 973              	.LBB25:
 974              		.loc 1 83 0
 975 049a 9FED0F7B 		vldr.64	d7, .L124
 976 049e DFF84C80 		ldr	r8, .L124+20
 977              	.LVL158:
 978 04a2 CDF82480 		str	r8, [sp, #36]
 979 04a6 8DED067B 		vstr.64	d7, [sp, #24]
 980 04aa 3FE7     		b	.L49
 981              	.LVL159:
 982              	.L123:
 983              	.LBE25:
 984              	.LBE27:
 985              		.loc 1 213 0
 986 04ac 2D23     		movs	r3, #45
 987              		.loc 1 214 0
 988 04ae 4942     		negs	r1, r1
 989              	.LVL160:
 990              		.loc 1 213 0
 991 04b0 8DF82830 		strb	r3, [sp, #40]
 992 04b4 0DF12900 		add	r0, sp, #41
 993              	.LVL161:
 994 04b8 0AAD     		add	r5, sp, #40
 995              	.LVL162:
 996 04ba BCE7     		b	.L46
 997              	.LVL163:
 998              	.L121:
 999              		.loc 1 222 0
 1000 04bc 2D23     		movs	r3, #45
 1001              		.loc 1 223 0
 1002 04be B1EE488A 		vneg.f32	s16, s16
 1003              	.LVL164:
 1004              		.loc 1 222 0
 1005 04c2 8DF82830 		strb	r3, [sp, #40]
 1006 04c6 0DF12902 		add	r2, sp, #41
 1007              	.LVL165:
 1008 04ca 0AAD     		add	r5, sp, #40
 1009              	.LVL166:
 1010 04cc 10E7     		b	.L47
 1011              	.LVL167:
 1012              	.L86:
 1013              		.loc 1 253 0
 1014 04ce 2027     		movs	r7, #32
 1015 04d0 BEE6     		b	.L64
 1016              	.L125:
 1017 04d2 00BFAFF3 		.align	3
 1017      0080
 1018              	.L124:
 1019 04d8 00000000 		.word	0
 1020 04dc 65CDCD41 		.word	1104006501
 1021 04e0 00000000 		.word	.LC0
 1022 04e4 00000000 		.word	.LANCHOR0
 1023 04e8 CDCCCCCC 		.word	-858993459
 1024 04ec 00E1F505 		.word	100000000
 1025              		.cfi_endproc
ARM GAS  /var/folders/m4/4md61f0s1_g0rzfghffqnxvr0000gn/T//ccszo0QP.s 			page 19


 1026              	.LFE271:
 1027              		.size	chvprintf, .-chvprintf
 1028              		.section	.text.chprintf,"ax",%progbits
 1029              		.align	2
 1030              		.p2align 4,,15
 1031              		.global	chprintf
 1032              		.thumb
 1033              		.thumb_func
 1034              		.type	chprintf, %function
 1035              	chprintf:
 1036              	.LFB272:
 1037              		.loc 1 302 0
 1038              		.cfi_startproc
 1039              		@ args = 4, pretend = 12, frame = 8
 1040              		@ frame_needed = 0, uses_anonymous_args = 1
 1041              	.LVL168:
 1042 0000 0EB4     		push	{r1, r2, r3}
 1043              		.cfi_def_cfa_offset 12
 1044              		.cfi_offset 1, -12
 1045              		.cfi_offset 2, -8
 1046              		.cfi_offset 3, -4
 1047 0002 00B5     		push	{lr}
 1048              		.cfi_def_cfa_offset 16
 1049              		.cfi_offset 14, -16
 1050 0004 82B0     		sub	sp, sp, #8
 1051              		.cfi_def_cfa_offset 24
 1052              		.loc 1 302 0
 1053 0006 03AA     		add	r2, sp, #12
 1054 0008 52F8041B 		ldr	r1, [r2], #4
 1055              		.loc 1 306 0
 1056 000c 0192     		str	r2, [sp, #4]
 1057              		.loc 1 307 0
 1058 000e FFF7FEFF 		bl	chvprintf
 1059              	.LVL169:
 1060              		.loc 1 311 0
 1061 0012 02B0     		add	sp, sp, #8
 1062              		.cfi_def_cfa_offset 16
 1063              		@ sp needed
 1064 0014 5DF804EB 		ldr	lr, [sp], #4
 1065              		.cfi_restore 14
 1066              		.cfi_def_cfa_offset 12
 1067 0018 03B0     		add	sp, sp, #12
 1068              		.cfi_restore 3
 1069              		.cfi_restore 2
 1070              		.cfi_restore 1
 1071              		.cfi_def_cfa_offset 0
 1072 001a 7047     		bx	lr
 1073              		.cfi_endproc
 1074              	.LFE272:
 1075              		.size	chprintf, .-chprintf
 1076              		.section	.text.chsnprintf,"ax",%progbits
 1077              		.align	2
 1078              		.p2align 4,,15
 1079              		.global	chsnprintf
 1080              		.thumb
 1081              		.thumb_func
 1082              		.type	chsnprintf, %function
ARM GAS  /var/folders/m4/4md61f0s1_g0rzfghffqnxvr0000gn/T//ccszo0QP.s 			page 20


 1083              	chsnprintf:
 1084              	.LFB273:
 1085              		.loc 1 341 0
 1086              		.cfi_startproc
 1087              		@ args = 4, pretend = 8, frame = 24
 1088              		@ frame_needed = 0, uses_anonymous_args = 1
 1089              	.LVL170:
 1090 0000 0CB4     		push	{r2, r3}
 1091              		.cfi_def_cfa_offset 8
 1092              		.cfi_offset 2, -8
 1093              		.cfi_offset 3, -4
 1094 0002 30B5     		push	{r4, r5, lr}
 1095              		.cfi_def_cfa_offset 20
 1096              		.cfi_offset 4, -20
 1097              		.cfi_offset 5, -16
 1098              		.cfi_offset 14, -12
 1099 0004 0546     		mov	r5, r0
 1100 0006 87B0     		sub	sp, sp, #28
 1101              		.cfi_def_cfa_offset 48
 1102              		.loc 1 348 0
 1103 0008 0C46     		mov	r4, r1
 1104 000a B1B1     		cbz	r1, .L129
 1105              	.LVL171:
 1106              		.loc 1 355 0
 1107 000c 4A1E     		subs	r2, r1, #1
 1108              	.LVL172:
 1109 000e 01A8     		add	r0, sp, #4
 1110              	.LVL173:
 1111 0010 0023     		movs	r3, #0
 1112 0012 2946     		mov	r1, r5
 1113              	.LVL174:
 1114 0014 FFF7FEFF 		bl	msObjectInit
 1115              	.LVL175:
 1116              		.loc 1 359 0
 1117 0018 0BAB     		add	r3, sp, #44
 1118              		.loc 1 360 0
 1119 001a 1A46     		mov	r2, r3
 1120 001c 01A8     		add	r0, sp, #4
 1121              	.LVL176:
 1122 001e 0A99     		ldr	r1, [sp, #40]
 1123              		.loc 1 359 0
 1124 0020 0093     		str	r3, [sp]
 1125              		.loc 1 360 0
 1126 0022 FFF7FEFF 		bl	chvprintf
 1127              	.LVL177:
 1128              		.loc 1 364 0
 1129 0026 049B     		ldr	r3, [sp, #16]
 1130 0028 9C42     		cmp	r4, r3
 1131 002a 01D9     		bls	.L131
 1132              		.loc 1 365 0
 1133 002c 0022     		movs	r2, #0
 1134 002e EA54     		strb	r2, [r5, r3]
 1135              	.L131:
 1136              		.loc 1 369 0
 1137 0030 07B0     		add	sp, sp, #28
 1138              		.cfi_remember_state
 1139              		.cfi_def_cfa_offset 20
ARM GAS  /var/folders/m4/4md61f0s1_g0rzfghffqnxvr0000gn/T//ccszo0QP.s 			page 21


 1140              		@ sp needed
 1141 0032 BDE83040 		pop	{r4, r5, lr}
 1142              		.cfi_restore 14
 1143              		.cfi_restore 5
 1144              		.cfi_restore 4
 1145              		.cfi_def_cfa_offset 8
 1146              	.LVL178:
 1147 0036 02B0     		add	sp, sp, #8
 1148              		.cfi_restore 3
 1149              		.cfi_restore 2
 1150              		.cfi_def_cfa_offset 0
 1151 0038 7047     		bx	lr
 1152              	.LVL179:
 1153              	.L129:
 1154              		.cfi_restore_state
 1155              		.loc 1 355 0
 1156 003a 0146     		mov	r1, r0
 1157              	.LVL180:
 1158 003c 2346     		mov	r3, r4
 1159 003e 01A8     		add	r0, sp, #4
 1160              	.LVL181:
 1161 0040 2246     		mov	r2, r4
 1162 0042 FFF7FEFF 		bl	msObjectInit
 1163              	.LVL182:
 1164              		.loc 1 359 0
 1165 0046 0BAB     		add	r3, sp, #44
 1166              		.loc 1 360 0
 1167 0048 01A8     		add	r0, sp, #4
 1168              	.LVL183:
 1169 004a 1A46     		mov	r2, r3
 1170 004c 0A99     		ldr	r1, [sp, #40]
 1171              		.loc 1 359 0
 1172 004e 0093     		str	r3, [sp]
 1173              		.loc 1 360 0
 1174 0050 FFF7FEFF 		bl	chvprintf
 1175              	.LVL184:
 1176              		.loc 1 369 0
 1177 0054 07B0     		add	sp, sp, #28
 1178              		.cfi_def_cfa_offset 20
 1179              		@ sp needed
 1180 0056 BDE83040 		pop	{r4, r5, lr}
 1181              		.cfi_restore 4
 1182              		.cfi_restore 5
 1183              		.cfi_restore 14
 1184              		.cfi_def_cfa_offset 8
 1185              	.LVL185:
 1186 005a 02B0     		add	sp, sp, #8
 1187              		.cfi_restore 2
 1188              		.cfi_restore 3
 1189              		.cfi_def_cfa_offset 0
 1190 005c 7047     		bx	lr
 1191              		.cfi_endproc
 1192              	.LFE273:
 1193              		.size	chsnprintf, .-chsnprintf
 1194 005e 00BF     		.section	.rodata.str1.4,"aMS",%progbits,1
 1195              		.align	2
 1196              	.LC0:
ARM GAS  /var/folders/m4/4md61f0s1_g0rzfghffqnxvr0000gn/T//ccszo0QP.s 			page 22


 1197 0000 286E756C 		.ascii	"(null)\000"
 1197      6C2900
 1198              		.section	.rodata.pow10,"a",%progbits
 1199              		.align	2
 1200              		.set	.LANCHOR0,. + 0
 1201              		.type	pow10, %object
 1202              		.size	pow10, 36
 1203              	pow10:
 1204 0000 0A000000 		.word	10
 1205 0004 64000000 		.word	100
 1206 0008 E8030000 		.word	1000
 1207 000c 10270000 		.word	10000
 1208 0010 A0860100 		.word	100000
 1209 0014 40420F00 		.word	1000000
 1210 0018 80969800 		.word	10000000
 1211 001c 00E1F505 		.word	100000000
 1212 0020 00CA9A3B 		.word	1000000000
 1213              		.text
 1214              	.Letext0:
 1215              		.file 2 "/opt/homebrew-cask/Caskroom/gcc-arm-embedded/5_2-2015q4,20151219/gcc-arm-none-eabi-5_2-20
 1216              		.file 3 "/opt/homebrew-cask/Caskroom/gcc-arm-embedded/5_2-2015q4,20151219/gcc-arm-none-eabi-5_2-20
 1217              		.file 4 "/opt/homebrew-cask/Caskroom/gcc-arm-embedded/5_2-2015q4,20151219/gcc-arm-none-eabi-5_2-20
 1218              		.file 5 "ChibiOS_16.1.4/os/rt/ports/ARMCMx/compilers/GCC/chtypes.h"
 1219              		.file 6 "ChibiOS_16.1.4/os/rt/include/chsystypes.h"
 1220              		.file 7 "ChibiOS_16.1.4/os/rt/include/chschd.h"
 1221              		.file 8 "ChibiOS_16.1.4/os/rt/ports/ARMCMx/chcore.h"
 1222              		.file 9 "ChibiOS_16.1.4/os/rt/ports/ARMCMx/chcore_v7m.h"
 1223              		.file 10 "ChibiOS_16.1.4/os/rt/include/chtm.h"
 1224              		.file 11 "ChibiOS_16.1.4/os/rt/include/chsem.h"
 1225              		.file 12 "ChibiOS_16.1.4/os/rt/include/chmtx.h"
 1226              		.file 13 "ChibiOS_16.1.4/os/rt/include/chstreams.h"
 1227              		.file 14 "/opt/homebrew-cask/Caskroom/gcc-arm-embedded/5_2-2015q4,20151219/gcc-arm-none-eabi-5_2-2
 1228              		.file 15 "<built-in>"
 1229              		.file 16 "ChibiOS_16.1.4/os/hal/lib/streams/memstreams.h"
 1230              		.file 17 "ChibiOS_16.1.4/os/ext/CMSIS/include/core_cm4.h"