ARM GAS  /var/folders/m4/4md61f0s1_g0rzfghffqnxvr0000gn/T//ccElzD9Y.s 			page 1


   1              		.syntax unified
   2              		.cpu cortex-m4
   3              		.eabi_attribute 27, 1
   4              		.eabi_attribute 28, 1
   5              		.fpu fpv4-sp-d16
   6              		.eabi_attribute 20, 1
   7              		.eabi_attribute 21, 1
   8              		.eabi_attribute 23, 3
   9              		.eabi_attribute 24, 1
  10              		.eabi_attribute 25, 1
  11              		.eabi_attribute 26, 1
  12              		.eabi_attribute 30, 2
  13              		.eabi_attribute 34, 1
  14              		.eabi_attribute 18, 4
  15              		.thumb
  16              		.syntax unified
  17              		.file	"chqueues.c"
  18              		.text
  19              	.Ltext0:
  20              		.cfi_sections	.debug_frame
  21              		.section	.text.chIQObjectInit,"ax",%progbits
  22              		.align	2
  23              		.p2align 4,,15
  24              		.global	chIQObjectInit
  25              		.thumb
  26              		.thumb_func
  27              		.type	chIQObjectInit, %function
  28              	chIQObjectInit:
  29              	.LFB231:
  30              		.file 1 "ChibiOS_16.1.4/os/rt/src/chqueues.c"
  31              		.loc 1 88 0
  32              		.cfi_startproc
  33              		@ args = 4, pretend = 0, frame = 0
  34              		@ frame_needed = 0, uses_anonymous_args = 0
  35              		@ link register save eliminated.
  36              	.LVL0:
  37 0000 30B4     		push	{r4, r5}
  38              		.cfi_def_cfa_offset 8
  39              		.cfi_offset 4, -8
  40              		.cfi_offset 5, -4
  41              		.loc 1 88 0
  42 0002 029C     		ldr	r4, [sp, #8]
  43              		.loc 1 97 0
  44 0004 0462     		str	r4, [r0, #32]
  45              		.loc 1 91 0
  46 0006 0025     		movs	r5, #0
  47              		.loc 1 95 0
  48 0008 0A44     		add	r2, r2, r1
  49              	.LVL1:
  50              		.loc 1 91 0
  51 000a 8560     		str	r5, [r0, #8]
  52              		.loc 1 95 0
  53 000c 0261     		str	r2, [r0, #16]
  54              	.LBB108:
  55              	.LBB109:
  56              	.LBB110:
  57              		.file 2 "ChibiOS_16.1.4/os/rt/include/chschd.h"
ARM GAS  /var/folders/m4/4md61f0s1_g0rzfghffqnxvr0000gn/T//ccElzD9Y.s 			page 2


  58              		.loc 2 604 0
  59 000e 0060     		str	r0, [r0]
  60              		.loc 2 605 0
  61 0010 4060     		str	r0, [r0, #4]
  62              	.LVL2:
  63              	.LBE110:
  64              	.LBE109:
  65              	.LBE108:
  66              		.loc 1 92 0
  67 0012 C160     		str	r1, [r0, #12]
  68              		.loc 1 93 0
  69 0014 8161     		str	r1, [r0, #24]
  70              		.loc 1 94 0
  71 0016 4161     		str	r1, [r0, #20]
  72              		.loc 1 96 0
  73 0018 C361     		str	r3, [r0, #28]
  74              		.loc 1 98 0
  75 001a 30BC     		pop	{r4, r5}
  76              		.cfi_restore 5
  77              		.cfi_restore 4
  78              		.cfi_def_cfa_offset 0
  79              	.LVL3:
  80 001c 7047     		bx	lr
  81              		.cfi_endproc
  82              	.LFE231:
  83              		.size	chIQObjectInit, .-chIQObjectInit
  84 001e 00BF     		.section	.text.chIQResetI,"ax",%progbits
  85              		.align	2
  86              		.p2align 4,,15
  87              		.global	chIQResetI
  88              		.thumb
  89              		.thumb_func
  90              		.type	chIQResetI, %function
  91              	chIQResetI:
  92              	.LFB232:
  93              		.loc 1 111 0
  94              		.cfi_startproc
  95              		@ args = 0, pretend = 0, frame = 0
  96              		@ frame_needed = 0, uses_anonymous_args = 0
  97              		@ link register save eliminated.
  98              	.LVL4:
  99              		.loc 1 117 0
 100 0000 0021     		movs	r1, #0
 101              		.loc 1 115 0
 102 0002 C268     		ldr	r2, [r0, #12]
 103              		.loc 1 117 0
 104 0004 8160     		str	r1, [r0, #8]
 105              		.loc 1 115 0
 106 0006 8261     		str	r2, [r0, #24]
 107              		.loc 1 116 0
 108 0008 4261     		str	r2, [r0, #20]
 109              		.loc 1 118 0
 110 000a 6FF00101 		mvn	r1, #1
 111 000e FFF7FEBF 		b	chThdDequeueAllI
 112              	.LVL5:
 113              		.cfi_endproc
 114              	.LFE232:
ARM GAS  /var/folders/m4/4md61f0s1_g0rzfghffqnxvr0000gn/T//ccElzD9Y.s 			page 3


 115              		.size	chIQResetI, .-chIQResetI
 116 0012 00BF     		.section	.text.chIQPutI,"ax",%progbits
 117              		.align	2
 118              		.p2align 4,,15
 119              		.global	chIQPutI
 120              		.thumb
 121              		.thumb_func
 122              		.type	chIQPutI, %function
 123              	chIQPutI:
 124              	.LFB233:
 125              		.loc 1 134 0
 126              		.cfi_startproc
 127              		@ args = 0, pretend = 0, frame = 0
 128              		@ frame_needed = 0, uses_anonymous_args = 0
 129              	.LVL6:
 130              	.LBB111:
 131              	.LBB112:
 132              		.file 3 "ChibiOS_16.1.4/os/rt/include/chqueues.h"
 133              		.loc 3 325 0
 134 0000 4369     		ldr	r3, [r0, #20]
 135 0002 8269     		ldr	r2, [r0, #24]
 136 0004 9342     		cmp	r3, r2
 137              	.LBE112:
 138              	.LBE111:
 139              		.loc 1 134 0
 140 0006 10B5     		push	{r4, lr}
 141              		.cfi_def_cfa_offset 8
 142              		.cfi_offset 4, -8
 143              		.cfi_offset 14, -4
 144              	.LBB115:
 145              	.LBB113:
 146              		.loc 3 325 0
 147 0008 10D0     		beq	.L13
 148              	.L5:
 149              	.LVL7:
 150              	.LBE113:
 151              	.LBE115:
 152              		.loc 1 142 0
 153 000a 8268     		ldr	r2, [r0, #8]
 154              		.loc 1 143 0
 155 000c 5C1C     		adds	r4, r3, #1
 156              		.loc 1 142 0
 157 000e 0132     		adds	r2, r2, #1
 158 0010 8260     		str	r2, [r0, #8]
 159              		.loc 1 143 0
 160 0012 4461     		str	r4, [r0, #20]
 161 0014 1970     		strb	r1, [r3]
 162              		.loc 1 144 0
 163 0016 4269     		ldr	r2, [r0, #20]
 164 0018 0369     		ldr	r3, [r0, #16]
 165 001a 9A42     		cmp	r2, r3
 166 001c 01D3     		bcc	.L8
 167              		.loc 1 145 0
 168 001e C368     		ldr	r3, [r0, #12]
 169 0020 4361     		str	r3, [r0, #20]
 170              	.L8:
 171              		.loc 1 148 0
ARM GAS  /var/folders/m4/4md61f0s1_g0rzfghffqnxvr0000gn/T//ccElzD9Y.s 			page 4


 172 0022 0021     		movs	r1, #0
 173              	.LVL8:
 174 0024 FFF7FEFF 		bl	chThdDequeueNextI
 175              	.LVL9:
 176              		.loc 1 150 0
 177 0028 0020     		movs	r0, #0
 178 002a 10BD     		pop	{r4, pc}
 179              	.LVL10:
 180              	.L13:
 181              	.LBB116:
 182              	.LBB114:
 183              		.loc 3 325 0
 184 002c 8268     		ldr	r2, [r0, #8]
 185 002e 002A     		cmp	r2, #0
 186 0030 EBD0     		beq	.L5
 187              	.LBE114:
 188              	.LBE116:
 189              		.loc 1 139 0
 190 0032 6FF00300 		mvn	r0, #3
 191              	.LVL11:
 192 0036 10BD     		pop	{r4, pc}
 193              		.cfi_endproc
 194              	.LFE233:
 195              		.size	chIQPutI, .-chIQPutI
 196              		.section	.text.chIQGetTimeout,"ax",%progbits
 197              		.align	2
 198              		.p2align 4,,15
 199              		.global	chIQGetTimeout
 200              		.thumb
 201              		.thumb_func
 202              		.type	chIQGetTimeout, %function
 203              	chIQGetTimeout:
 204              	.LFB234:
 205              		.loc 1 173 0
 206              		.cfi_startproc
 207              		@ args = 0, pretend = 0, frame = 0
 208              		@ frame_needed = 0, uses_anonymous_args = 0
 209              	.LVL12:
 210 0000 70B5     		push	{r4, r5, r6, lr}
 211              		.cfi_def_cfa_offset 16
 212              		.cfi_offset 4, -16
 213              		.cfi_offset 5, -12
 214              		.cfi_offset 6, -8
 215              		.cfi_offset 14, -4
 216              	.LBB117:
 217              	.LBB118:
 218              	.LBB119:
 219              	.LBB120:
 220              		.file 4 "ChibiOS_16.1.4/os/ext/CMSIS/include/core_cmFunc.h"
 221              		.loc 4 548 0
 222 0002 2023     		movs	r3, #32
 223              	.LBE120:
 224              	.LBE119:
 225              	.LBE118:
 226              	.LBE117:
 227              		.loc 1 173 0
 228 0004 0E46     		mov	r6, r1
ARM GAS  /var/folders/m4/4md61f0s1_g0rzfghffqnxvr0000gn/T//ccElzD9Y.s 			page 5


 229 0006 0446     		mov	r4, r0
 230              	.LBB124:
 231              	.LBB123:
 232              	.LBB122:
 233              	.LBB121:
 234              		.loc 4 548 0
 235              		.syntax unified
 236              	@ 548 "ChibiOS_16.1.4/os/ext/CMSIS/include/core_cmFunc.h" 1
 237 0008 83F31188 		MSR basepri, r3
 238              	@ 0 "" 2
 239              	.LVL13:
 240              		.thumb
 241              		.syntax unified
 242              	.LBE121:
 243              	.LBE122:
 244              	.LBE123:
 245              	.LBE124:
 246              		.loc 1 177 0
 247 000c C369     		ldr	r3, [r0, #28]
 248 000e 2BB1     		cbz	r3, .L16
 249              		.loc 1 178 0
 250 0010 9847     		blx	r3
 251              	.LVL14:
 252 0012 03E0     		b	.L16
 253              	.LVL15:
 254              	.L18:
 255              	.LBB125:
 256              		.loc 1 182 0
 257 0014 FFF7FEFF 		bl	chThdEnqueueTimeoutS
 258              	.LVL16:
 259              		.loc 1 183 0
 260 0018 0028     		cmp	r0, #0
 261 001a 15DB     		blt	.L25
 262              	.LVL17:
 263              	.L16:
 264              	.LBE125:
 265              	.LBB131:
 266              	.LBB132:
 267              		.loc 3 307 0
 268 001c A568     		ldr	r5, [r4, #8]
 269              	.LVL18:
 270              	.LBE132:
 271              	.LBE131:
 272              	.LBB133:
 273              		.loc 1 182 0
 274 001e 3146     		mov	r1, r6
 275 0020 2046     		mov	r0, r4
 276              	.LBE133:
 277              		.loc 1 181 0
 278 0022 002D     		cmp	r5, #0
 279 0024 F6D0     		beq	.L18
 280              	.LVL19:
 281              		.loc 1 190 0
 282 0026 A169     		ldr	r1, [r4, #24]
 283              	.LVL20:
 284              		.loc 1 189 0
 285 0028 A368     		ldr	r3, [r4, #8]
ARM GAS  /var/folders/m4/4md61f0s1_g0rzfghffqnxvr0000gn/T//ccElzD9Y.s 			page 6


 286              		.loc 1 191 0
 287 002a 2569     		ldr	r5, [r4, #16]
 288              		.loc 1 190 0
 289 002c 4A1C     		adds	r2, r1, #1
 290              		.loc 1 189 0
 291 002e 013B     		subs	r3, r3, #1
 292              		.loc 1 191 0
 293 0030 AA42     		cmp	r2, r5
 294              		.loc 1 189 0
 295 0032 A360     		str	r3, [r4, #8]
 296              		.loc 1 190 0
 297 0034 A261     		str	r2, [r4, #24]
 298              		.loc 1 192 0
 299 0036 28BF     		it	cs
 300 0038 E368     		ldrcs	r3, [r4, #12]
 301              		.loc 1 190 0
 302 003a 0878     		ldrb	r0, [r1]	@ zero_extendqisi2
 303              	.LVL21:
 304              		.loc 1 192 0
 305 003c 28BF     		it	cs
 306 003e A361     		strcs	r3, [r4, #24]
 307              	.LVL22:
 308              	.LBB134:
 309              	.LBB135:
 310              	.LBB136:
 311              	.LBB137:
 312              	.LBB138:
 313              		.loc 4 548 0
 314 0040 0023     		movs	r3, #0
 315              		.syntax unified
 316              	@ 548 "ChibiOS_16.1.4/os/ext/CMSIS/include/core_cmFunc.h" 1
 317 0042 83F31188 		MSR basepri, r3
 318              	@ 0 "" 2
 319              	.LVL23:
 320              		.thumb
 321              		.syntax unified
 322              	.LBE138:
 323              	.LBE137:
 324              	.LBE136:
 325              	.LBE135:
 326              	.LBE134:
 327              		.loc 1 197 0
 328 0046 70BD     		pop	{r4, r5, r6, pc}
 329              	.LVL24:
 330              	.L25:
 331              	.LBB139:
 332              	.LBB126:
 333              	.LBB127:
 334              	.LBB128:
 335              	.LBB129:
 336              	.LBB130:
 337              		.loc 4 548 0
 338              		.syntax unified
 339              	@ 548 "ChibiOS_16.1.4/os/ext/CMSIS/include/core_cmFunc.h" 1
 340 0048 85F31188 		MSR basepri, r5
 341              	@ 0 "" 2
 342              	.LVL25:
ARM GAS  /var/folders/m4/4md61f0s1_g0rzfghffqnxvr0000gn/T//ccElzD9Y.s 			page 7


 343              		.thumb
 344              		.syntax unified
 345              	.LBE130:
 346              	.LBE129:
 347              	.LBE128:
 348              	.LBE127:
 349              	.LBE126:
 350              		.loc 1 185 0
 351 004c 70BD     		pop	{r4, r5, r6, pc}
 352              	.LBE139:
 353              		.cfi_endproc
 354              	.LFE234:
 355              		.size	chIQGetTimeout, .-chIQGetTimeout
 356 004e 00BF     		.section	.text.chIQReadTimeout,"ax",%progbits
 357              		.align	2
 358              		.p2align 4,,15
 359              		.global	chIQReadTimeout
 360              		.thumb
 361              		.thumb_func
 362              		.type	chIQReadTimeout, %function
 363              	chIQReadTimeout:
 364              	.LFB235:
 365              		.loc 1 224 0
 366              		.cfi_startproc
 367              		@ args = 0, pretend = 0, frame = 8
 368              		@ frame_needed = 0, uses_anonymous_args = 0
 369              	.LVL26:
 370 0000 2DE9F04F 		push	{r4, r5, r6, r7, r8, r9, r10, fp, lr}
 371              		.cfi_def_cfa_offset 36
 372              		.cfi_offset 4, -36
 373              		.cfi_offset 5, -32
 374              		.cfi_offset 6, -28
 375              		.cfi_offset 7, -24
 376              		.cfi_offset 8, -20
 377              		.cfi_offset 9, -16
 378              		.cfi_offset 10, -12
 379              		.cfi_offset 11, -8
 380              		.cfi_offset 14, -4
 381 0004 0446     		mov	r4, r0
 382 0006 83B0     		sub	sp, sp, #12
 383              		.cfi_def_cfa_offset 48
 384              		.loc 1 224 0
 385 0008 8946     		mov	r9, r1
 386 000a 9346     		mov	fp, r2
 387 000c 1D46     		mov	r5, r3
 388              		.loc 1 225 0
 389 000e D0F81C80 		ldr	r8, [r0, #28]
 390              	.LVL27:
 391              	.LBB140:
 392              	.LBB141:
 393              	.LBB142:
 394              	.LBB143:
 395              		.loc 4 548 0
 396 0012 2027     		movs	r7, #32
 397              		.syntax unified
 398              	@ 548 "ChibiOS_16.1.4/os/ext/CMSIS/include/core_cmFunc.h" 1
 399 0014 87F31188 		MSR basepri, r7
ARM GAS  /var/folders/m4/4md61f0s1_g0rzfghffqnxvr0000gn/T//ccElzD9Y.s 			page 8


 400              	@ 0 "" 2
 401              	.LVL28:
 402              		.thumb
 403              		.syntax unified
 404              	.LBE143:
 405              	.LBE142:
 406              	.LBE141:
 407              	.LBE140:
 408              		.loc 1 226 0
 409 0018 0026     		movs	r6, #0
 410              	.LBB144:
 411              	.LBB145:
 412              	.LBB146:
 413              	.LBB147:
 414              		.loc 4 548 0
 415 001a 0197     		str	r7, [sp, #4]
 416              	.LBE147:
 417              	.LBE146:
 418              	.LBE145:
 419              	.LBE144:
 420              	.LBB151:
 421              	.LBB152:
 422              	.LBB153:
 423              	.LBB154:
 424              	.LBB155:
 425 001c B246     		mov	r10, r6
 426              	.LVL29:
 427              	.L32:
 428              	.LBE155:
 429              	.LBE154:
 430              	.LBE153:
 431              	.LBE152:
 432              	.LBE151:
 433              		.loc 1 232 0
 434 001e B8F1000F 		cmp	r8, #0
 435 0022 05D0     		beq	.L28
 436              		.loc 1 233 0
 437 0024 2046     		mov	r0, r4
 438              	.LVL30:
 439 0026 C047     		blx	r8
 440              	.LVL31:
 441 0028 02E0     		b	.L28
 442              	.LVL32:
 443              	.L30:
 444              		.loc 1 237 0
 445 002a FFF7FEFF 		bl	chThdEnqueueTimeoutS
 446              	.LVL33:
 447 002e E0B9     		cbnz	r0, .L39
 448              	.L28:
 449              	.LVL34:
 450              	.LBB160:
 451              	.LBB161:
 452              		.loc 3 307 0
 453 0030 A768     		ldr	r7, [r4, #8]
 454              	.LVL35:
 455              	.LBE161:
 456              	.LBE160:
ARM GAS  /var/folders/m4/4md61f0s1_g0rzfghffqnxvr0000gn/T//ccElzD9Y.s 			page 9


 457              		.loc 1 237 0
 458 0032 2946     		mov	r1, r5
 459 0034 2046     		mov	r0, r4
 460              		.loc 1 236 0
 461 0036 002F     		cmp	r7, #0
 462 0038 F7D0     		beq	.L30
 463              	.LVL36:
 464              		.loc 1 244 0
 465 003a A269     		ldr	r2, [r4, #24]
 466              		.loc 1 243 0
 467 003c A368     		ldr	r3, [r4, #8]
 468              		.loc 1 244 0
 469 003e 511C     		adds	r1, r2, #1
 470              	.LVL37:
 471              		.loc 1 243 0
 472 0040 013B     		subs	r3, r3, #1
 473              		.loc 1 244 0
 474 0042 A161     		str	r1, [r4, #24]
 475              		.loc 1 243 0
 476 0044 A360     		str	r3, [r4, #8]
 477              		.loc 1 244 0
 478 0046 1378     		ldrb	r3, [r2]	@ zero_extendqisi2
 479 0048 09F8013B 		strb	r3, [r9], #1
 480              	.LVL38:
 481              		.loc 1 245 0
 482 004c 2369     		ldr	r3, [r4, #16]
 483 004e A269     		ldr	r2, [r4, #24]
 484 0050 9A42     		cmp	r2, r3
 485              		.loc 1 246 0
 486 0052 24BF     		itt	cs
 487 0054 E368     		ldrcs	r3, [r4, #12]
 488 0056 A361     		strcs	r3, [r4, #24]
 489              	.LVL39:
 490              	.LBB162:
 491              	.LBB159:
 492              	.LBB158:
 493              	.LBB157:
 494              	.LBB156:
 495              		.loc 4 548 0
 496              		.syntax unified
 497              	@ 548 "ChibiOS_16.1.4/os/ext/CMSIS/include/core_cmFunc.h" 1
 498 0058 8AF31188 		MSR basepri, r10
 499              	@ 0 "" 2
 500              	.LVL40:
 501              		.thumb
 502              		.syntax unified
 503              	.LBE156:
 504              	.LBE157:
 505              	.LBE158:
 506              	.LBE159:
 507              	.LBE162:
 508              		.loc 1 250 0
 509 005c 0136     		adds	r6, r6, #1
 510              	.LVL41:
 511              		.loc 1 251 0
 512 005e B345     		cmp	fp, r6
 513 0060 05D0     		beq	.L29
ARM GAS  /var/folders/m4/4md61f0s1_g0rzfghffqnxvr0000gn/T//ccElzD9Y.s 			page 10


 514              	.LVL42:
 515              	.LBB163:
 516              	.LBB150:
 517              	.LBB149:
 518              	.LBB148:
 519              		.loc 4 548 0
 520 0062 019B     		ldr	r3, [sp, #4]
 521              		.syntax unified
 522              	@ 548 "ChibiOS_16.1.4/os/ext/CMSIS/include/core_cmFunc.h" 1
 523 0064 83F31188 		MSR basepri, r3
 524              	@ 0 "" 2
 525              	.LVL43:
 526              		.thumb
 527              		.syntax unified
 528 0068 D9E7     		b	.L32
 529              	.LVL44:
 530              	.L39:
 531              	.LBE148:
 532              	.LBE149:
 533              	.LBE150:
 534              	.LBE163:
 535              	.LBB164:
 536              	.LBB165:
 537              	.LBB166:
 538              	.LBB167:
 539              	.LBB168:
 540              		.syntax unified
 541              	@ 548 "ChibiOS_16.1.4/os/ext/CMSIS/include/core_cmFunc.h" 1
 542 006a 87F31188 		MSR basepri, r7
 543              	@ 0 "" 2
 544              	.LVL45:
 545              		.thumb
 546              		.syntax unified
 547              	.L29:
 548              	.LBE168:
 549              	.LBE167:
 550              	.LBE166:
 551              	.LBE165:
 552              	.LBE164:
 553              		.loc 1 257 0
 554 006e 3046     		mov	r0, r6
 555 0070 03B0     		add	sp, sp, #12
 556              		.cfi_def_cfa_offset 36
 557              		@ sp needed
 558 0072 BDE8F08F 		pop	{r4, r5, r6, r7, r8, r9, r10, fp, pc}
 559              		.cfi_endproc
 560              	.LFE235:
 561              		.size	chIQReadTimeout, .-chIQReadTimeout
 562 0076 00BF     		.section	.text.chOQObjectInit,"ax",%progbits
 563              		.align	2
 564              		.p2align 4,,15
 565              		.global	chOQObjectInit
 566              		.thumb
 567              		.thumb_func
 568              		.type	chOQObjectInit, %function
 569              	chOQObjectInit:
 570              	.LFB236:
ARM GAS  /var/folders/m4/4md61f0s1_g0rzfghffqnxvr0000gn/T//ccElzD9Y.s 			page 11


 571              		.loc 1 276 0
 572              		.cfi_startproc
 573              		@ args = 4, pretend = 0, frame = 0
 574              		@ frame_needed = 0, uses_anonymous_args = 0
 575              		@ link register save eliminated.
 576              	.LVL46:
 577 0000 30B4     		push	{r4, r5}
 578              		.cfi_def_cfa_offset 8
 579              		.cfi_offset 4, -8
 580              		.cfi_offset 5, -4
 581              		.loc 1 276 0
 582 0002 029C     		ldr	r4, [sp, #8]
 583              		.loc 1 285 0
 584 0004 0462     		str	r4, [r0, #32]
 585              		.loc 1 283 0
 586 0006 8D18     		adds	r5, r1, r2
 587 0008 0561     		str	r5, [r0, #16]
 588              	.LBB169:
 589              	.LBB170:
 590              	.LBB171:
 591              		.loc 2 604 0
 592 000a 0060     		str	r0, [r0]
 593              		.loc 2 605 0
 594 000c 4060     		str	r0, [r0, #4]
 595              	.LVL47:
 596              	.LBE171:
 597              	.LBE170:
 598              	.LBE169:
 599              		.loc 1 279 0
 600 000e 8260     		str	r2, [r0, #8]
 601              		.loc 1 280 0
 602 0010 C160     		str	r1, [r0, #12]
 603              		.loc 1 281 0
 604 0012 8161     		str	r1, [r0, #24]
 605              		.loc 1 282 0
 606 0014 4161     		str	r1, [r0, #20]
 607              		.loc 1 284 0
 608 0016 C361     		str	r3, [r0, #28]
 609              		.loc 1 286 0
 610 0018 30BC     		pop	{r4, r5}
 611              		.cfi_restore 5
 612              		.cfi_restore 4
 613              		.cfi_def_cfa_offset 0
 614              	.LVL48:
 615 001a 7047     		bx	lr
 616              		.cfi_endproc
 617              	.LFE236:
 618              		.size	chOQObjectInit, .-chOQObjectInit
 619              		.section	.text.chOQResetI,"ax",%progbits
 620              		.align	2
 621              		.p2align 4,,15
 622              		.global	chOQResetI
 623              		.thumb
 624              		.thumb_func
 625              		.type	chOQResetI, %function
 626              	chOQResetI:
 627              	.LFB237:
ARM GAS  /var/folders/m4/4md61f0s1_g0rzfghffqnxvr0000gn/T//ccElzD9Y.s 			page 12


 628              		.loc 1 299 0
 629              		.cfi_startproc
 630              		@ args = 0, pretend = 0, frame = 0
 631              		@ frame_needed = 0, uses_anonymous_args = 0
 632              		@ link register save eliminated.
 633              	.LVL49:
 634 0000 10B4     		push	{r4}
 635              		.cfi_def_cfa_offset 4
 636              		.cfi_offset 4, -4
 637              		.loc 1 305 0
 638 0002 0269     		ldr	r2, [r0, #16]
 639              		.loc 1 303 0
 640 0004 C468     		ldr	r4, [r0, #12]
 641 0006 8461     		str	r4, [r0, #24]
 642              		.loc 1 305 0
 643 0008 121B     		subs	r2, r2, r4
 644              		.loc 1 304 0
 645 000a 4461     		str	r4, [r0, #20]
 646              		.loc 1 306 0
 647 000c 6FF00101 		mvn	r1, #1
 648              		.loc 1 305 0
 649 0010 8260     		str	r2, [r0, #8]
 650              		.loc 1 307 0
 651 0012 5DF8044B 		ldr	r4, [sp], #4
 652              		.cfi_restore 4
 653              		.cfi_def_cfa_offset 0
 654              		.loc 1 306 0
 655 0016 FFF7FEBF 		b	chThdDequeueAllI
 656              	.LVL50:
 657              		.cfi_endproc
 658              	.LFE237:
 659              		.size	chOQResetI, .-chOQResetI
 660 001a 00BF     		.section	.text.chOQPutTimeout,"ax",%progbits
 661              		.align	2
 662              		.p2align 4,,15
 663              		.global	chOQPutTimeout
 664              		.thumb
 665              		.thumb_func
 666              		.type	chOQPutTimeout, %function
 667              	chOQPutTimeout:
 668              	.LFB238:
 669              		.loc 1 331 0
 670              		.cfi_startproc
 671              		@ args = 0, pretend = 0, frame = 0
 672              		@ frame_needed = 0, uses_anonymous_args = 0
 673              	.LVL51:
 674 0000 F8B5     		push	{r3, r4, r5, r6, r7, lr}
 675              		.cfi_def_cfa_offset 24
 676              		.cfi_offset 3, -24
 677              		.cfi_offset 4, -20
 678              		.cfi_offset 5, -16
 679              		.cfi_offset 6, -12
 680              		.cfi_offset 7, -8
 681              		.cfi_offset 14, -4
 682              		.loc 1 331 0
 683 0002 0446     		mov	r4, r0
 684 0004 0F46     		mov	r7, r1
ARM GAS  /var/folders/m4/4md61f0s1_g0rzfghffqnxvr0000gn/T//ccElzD9Y.s 			page 13


 685 0006 1646     		mov	r6, r2
 686              	.LBB172:
 687              	.LBB173:
 688              	.LBB174:
 689              	.LBB175:
 690              		.loc 4 548 0
 691 0008 2023     		movs	r3, #32
 692              		.syntax unified
 693              	@ 548 "ChibiOS_16.1.4/os/ext/CMSIS/include/core_cmFunc.h" 1
 694 000a 83F31188 		MSR basepri, r3
 695              	@ 0 "" 2
 696              	.LVL52:
 697              		.thumb
 698              		.syntax unified
 699 000e 03E0     		b	.L45
 700              	.LVL53:
 701              	.L47:
 702              	.LBE175:
 703              	.LBE174:
 704              	.LBE173:
 705              	.LBE172:
 706              	.LBB176:
 707              		.loc 1 335 0
 708 0010 FFF7FEFF 		bl	chThdEnqueueTimeoutS
 709              	.LVL54:
 710              		.loc 1 336 0
 711 0014 0028     		cmp	r0, #0
 712 0016 19DB     		blt	.L55
 713              	.LVL55:
 714              	.L45:
 715              	.LBE176:
 716              	.LBB182:
 717              	.LBB183:
 718              		.loc 3 411 0
 719 0018 A568     		ldr	r5, [r4, #8]
 720              	.LVL56:
 721              	.LBE183:
 722              	.LBE182:
 723              	.LBB184:
 724              		.loc 1 335 0
 725 001a 3146     		mov	r1, r6
 726 001c 2046     		mov	r0, r4
 727              	.LBE184:
 728              		.loc 1 334 0
 729 001e 002D     		cmp	r5, #0
 730 0020 F6D0     		beq	.L47
 731              	.LVL57:
 732              		.loc 1 343 0
 733 0022 6269     		ldr	r2, [r4, #20]
 734              		.loc 1 342 0
 735 0024 A368     		ldr	r3, [r4, #8]
 736              		.loc 1 343 0
 737 0026 511C     		adds	r1, r2, #1
 738              	.LVL58:
 739              		.loc 1 342 0
 740 0028 013B     		subs	r3, r3, #1
 741              		.loc 1 343 0
ARM GAS  /var/folders/m4/4md61f0s1_g0rzfghffqnxvr0000gn/T//ccElzD9Y.s 			page 14


 742 002a 6161     		str	r1, [r4, #20]
 743              		.loc 1 342 0
 744 002c A360     		str	r3, [r4, #8]
 745              		.loc 1 343 0
 746 002e 1770     		strb	r7, [r2]
 747              		.loc 1 344 0
 748 0030 2369     		ldr	r3, [r4, #16]
 749 0032 6269     		ldr	r2, [r4, #20]
 750 0034 9A42     		cmp	r2, r3
 751              		.loc 1 345 0
 752 0036 24BF     		itt	cs
 753 0038 E368     		ldrcs	r3, [r4, #12]
 754 003a 6361     		strcs	r3, [r4, #20]
 755              		.loc 1 348 0
 756 003c E369     		ldr	r3, [r4, #28]
 757 003e 0BB1     		cbz	r3, .L49
 758              		.loc 1 349 0
 759 0040 2046     		mov	r0, r4
 760              	.LVL59:
 761 0042 9847     		blx	r3
 762              	.LVL60:
 763              	.L49:
 764              	.LBB185:
 765              	.LBB186:
 766              	.LBB187:
 767              	.LBB188:
 768              	.LBB189:
 769              		.loc 4 548 0
 770 0044 0020     		movs	r0, #0
 771              		.syntax unified
 772              	@ 548 "ChibiOS_16.1.4/os/ext/CMSIS/include/core_cmFunc.h" 1
 773 0046 80F31188 		MSR basepri, r0
 774              	@ 0 "" 2
 775              	.LVL61:
 776              		.thumb
 777              		.syntax unified
 778              	.LBE189:
 779              	.LBE188:
 780              	.LBE187:
 781              	.LBE186:
 782              	.LBE185:
 783              		.loc 1 354 0
 784 004a F8BD     		pop	{r3, r4, r5, r6, r7, pc}
 785              	.LVL62:
 786              	.L55:
 787              	.LBB190:
 788              	.LBB177:
 789              	.LBB178:
 790              	.LBB179:
 791              	.LBB180:
 792              	.LBB181:
 793              		.loc 4 548 0
 794              		.syntax unified
 795              	@ 548 "ChibiOS_16.1.4/os/ext/CMSIS/include/core_cmFunc.h" 1
 796 004c 85F31188 		MSR basepri, r5
 797              	@ 0 "" 2
 798              	.LVL63:
ARM GAS  /var/folders/m4/4md61f0s1_g0rzfghffqnxvr0000gn/T//ccElzD9Y.s 			page 15


 799              		.thumb
 800              		.syntax unified
 801              	.LBE181:
 802              	.LBE180:
 803              	.LBE179:
 804              	.LBE178:
 805              	.LBE177:
 806              		.loc 1 338 0
 807 0050 F8BD     		pop	{r3, r4, r5, r6, r7, pc}
 808              	.LBE190:
 809              		.cfi_endproc
 810              	.LFE238:
 811              		.size	chOQPutTimeout, .-chOQPutTimeout
 812 0052 00BF     		.section	.text.chOQGetI,"ax",%progbits
 813              		.align	2
 814              		.p2align 4,,15
 815              		.global	chOQGetI
 816              		.thumb
 817              		.thumb_func
 818              		.type	chOQGetI, %function
 819              	chOQGetI:
 820              	.LFB239:
 821              		.loc 1 366 0
 822              		.cfi_startproc
 823              		@ args = 0, pretend = 0, frame = 0
 824              		@ frame_needed = 0, uses_anonymous_args = 0
 825              	.LVL64:
 826 0000 38B5     		push	{r3, r4, r5, lr}
 827              		.cfi_def_cfa_offset 16
 828              		.cfi_offset 3, -16
 829              		.cfi_offset 4, -12
 830              		.cfi_offset 5, -8
 831              		.cfi_offset 14, -4
 832              	.LBB191:
 833              	.LBB192:
 834              		.loc 3 393 0
 835 0002 4269     		ldr	r2, [r0, #20]
 836 0004 8369     		ldr	r3, [r0, #24]
 837 0006 9A42     		cmp	r2, r3
 838 0008 0FD0     		beq	.L64
 839              	.L57:
 840              	.LVL65:
 841              	.LBE192:
 842              	.LBE191:
 843              		.loc 1 375 0
 844 000a 8268     		ldr	r2, [r0, #8]
 845              		.loc 1 377 0
 846 000c 0569     		ldr	r5, [r0, #16]
 847              		.loc 1 376 0
 848 000e 591C     		adds	r1, r3, #1
 849              		.loc 1 375 0
 850 0010 0132     		adds	r2, r2, #1
 851 0012 8260     		str	r2, [r0, #8]
 852              		.loc 1 376 0
 853 0014 8161     		str	r1, [r0, #24]
 854              		.loc 1 377 0
 855 0016 A942     		cmp	r1, r5
ARM GAS  /var/folders/m4/4md61f0s1_g0rzfghffqnxvr0000gn/T//ccElzD9Y.s 			page 16


 856              		.loc 1 376 0
 857 0018 1C78     		ldrb	r4, [r3]	@ zero_extendqisi2
 858              	.LVL66:
 859              		.loc 1 377 0
 860 001a 01D3     		bcc	.L60
 861              		.loc 1 378 0
 862 001c C368     		ldr	r3, [r0, #12]
 863 001e 8361     		str	r3, [r0, #24]
 864              	.L60:
 865              		.loc 1 381 0
 866 0020 0021     		movs	r1, #0
 867 0022 FFF7FEFF 		bl	chThdDequeueNextI
 868              	.LVL67:
 869              		.loc 1 383 0
 870 0026 2046     		mov	r0, r4
 871 0028 38BD     		pop	{r3, r4, r5, pc}
 872              	.LVL68:
 873              	.L64:
 874              	.LBB194:
 875              	.LBB193:
 876              		.loc 3 393 0
 877 002a 8268     		ldr	r2, [r0, #8]
 878 002c 002A     		cmp	r2, #0
 879 002e ECD0     		beq	.L57
 880              	.LBE193:
 881              	.LBE194:
 882              		.loc 1 372 0
 883 0030 6FF00200 		mvn	r0, #2
 884              	.LVL69:
 885 0034 38BD     		pop	{r3, r4, r5, pc}
 886              		.cfi_endproc
 887              	.LFE239:
 888              		.size	chOQGetI, .-chOQGetI
 889 0036 00BF     		.section	.text.chOQWriteTimeout,"ax",%progbits
 890              		.align	2
 891              		.p2align 4,,15
 892              		.global	chOQWriteTimeout
 893              		.thumb
 894              		.thumb_func
 895              		.type	chOQWriteTimeout, %function
 896              	chOQWriteTimeout:
 897              	.LFB240:
 898              		.loc 1 411 0
 899              		.cfi_startproc
 900              		@ args = 0, pretend = 0, frame = 8
 901              		@ frame_needed = 0, uses_anonymous_args = 0
 902              	.LVL70:
 903 0000 2DE9F04F 		push	{r4, r5, r6, r7, r8, r9, r10, fp, lr}
 904              		.cfi_def_cfa_offset 36
 905              		.cfi_offset 4, -36
 906              		.cfi_offset 5, -32
 907              		.cfi_offset 6, -28
 908              		.cfi_offset 7, -24
 909              		.cfi_offset 8, -20
 910              		.cfi_offset 9, -16
 911              		.cfi_offset 10, -12
 912              		.cfi_offset 11, -8
ARM GAS  /var/folders/m4/4md61f0s1_g0rzfghffqnxvr0000gn/T//ccElzD9Y.s 			page 17


 913              		.cfi_offset 14, -4
 914 0004 83B0     		sub	sp, sp, #12
 915              		.cfi_def_cfa_offset 48
 916              		.loc 1 411 0
 917 0006 0446     		mov	r4, r0
 918 0008 0D46     		mov	r5, r1
 919 000a 1646     		mov	r6, r2
 920 000c 0193     		str	r3, [sp, #4]
 921              		.loc 1 412 0
 922 000e D0F81C80 		ldr	r8, [r0, #28]
 923              	.LVL71:
 924              	.LBB195:
 925              	.LBB196:
 926              	.LBB197:
 927              	.LBB198:
 928              		.loc 4 548 0
 929 0012 4FF02009 		mov	r9, #32
 930              		.syntax unified
 931              	@ 548 "ChibiOS_16.1.4/os/ext/CMSIS/include/core_cmFunc.h" 1
 932 0016 89F31188 		MSR basepri, r9
 933              	@ 0 "" 2
 934              	.LVL72:
 935              		.thumb
 936              		.syntax unified
 937              	.LBE198:
 938              	.LBE197:
 939              	.LBE196:
 940              	.LBE195:
 941              		.loc 1 413 0
 942 001a 0027     		movs	r7, #0
 943              	.LBB199:
 944              	.LBB200:
 945              	.LBB201:
 946              	.LBB202:
 947              	.LBB203:
 948              		.loc 4 548 0
 949 001c BA46     		mov	r10, r7
 950              	.LVL73:
 951              	.L66:
 952              	.LBE203:
 953              	.LBE202:
 954              	.LBE201:
 955              	.LBE200:
 956              	.LBE199:
 957              	.LBB208:
 958              	.LBB209:
 959              		.loc 3 411 0
 960 001e A368     		ldr	r3, [r4, #8]
 961              	.LVL74:
 962              	.LBE209:
 963              	.LBE208:
 964              		.loc 1 427 0
 965 0020 05F1010B 		add	fp, r5, #1
 966              	.LVL75:
 967              		.loc 1 433 0
 968 0024 2046     		mov	r0, r4
 969              		.loc 1 419 0
ARM GAS  /var/folders/m4/4md61f0s1_g0rzfghffqnxvr0000gn/T//ccElzD9Y.s 			page 18


 970 0026 03B3     		cbz	r3, .L69
 971              	.LVL76:
 972              	.L82:
 973              		.loc 1 427 0
 974 0028 6169     		ldr	r1, [r4, #20]
 975              		.loc 1 426 0
 976 002a A368     		ldr	r3, [r4, #8]
 977              		.loc 1 427 0
 978 002c 4A1C     		adds	r2, r1, #1
 979              		.loc 1 426 0
 980 002e 013B     		subs	r3, r3, #1
 981              		.loc 1 427 0
 982 0030 6261     		str	r2, [r4, #20]
 983              		.loc 1 426 0
 984 0032 A360     		str	r3, [r4, #8]
 985              		.loc 1 427 0
 986 0034 2B78     		ldrb	r3, [r5]	@ zero_extendqisi2
 987 0036 0B70     		strb	r3, [r1]
 988              		.loc 1 428 0
 989 0038 2369     		ldr	r3, [r4, #16]
 990 003a 6169     		ldr	r1, [r4, #20]
 991 003c 9942     		cmp	r1, r3
 992              		.loc 1 429 0
 993 003e 24BF     		itt	cs
 994 0040 E368     		ldrcs	r3, [r4, #12]
 995 0042 6361     		strcs	r3, [r4, #20]
 996              		.loc 1 432 0
 997 0044 B8F1000F 		cmp	r8, #0
 998 0048 00D0     		beq	.L71
 999              		.loc 1 433 0
 1000 004a C047     		blx	r8
 1001              	.LVL77:
 1002              	.L71:
 1003              	.LBB211:
 1004              	.LBB207:
 1005              	.LBB206:
 1006              	.LBB205:
 1007              	.LBB204:
 1008              		.loc 4 548 0
 1009              		.syntax unified
 1010              	@ 548 "ChibiOS_16.1.4/os/ext/CMSIS/include/core_cmFunc.h" 1
 1011 004c 8AF31188 		MSR basepri, r10
 1012              	@ 0 "" 2
 1013              	.LVL78:
 1014              		.thumb
 1015              		.syntax unified
 1016              	.LBE204:
 1017              	.LBE205:
 1018              	.LBE206:
 1019              	.LBE207:
 1020              	.LBE211:
 1021              		.loc 1 438 0
 1022 0050 013E     		subs	r6, r6, #1
 1023              	.LVL79:
 1024              		.loc 1 437 0
 1025 0052 07F10107 		add	r7, r7, #1
 1026              	.LVL80:
ARM GAS  /var/folders/m4/4md61f0s1_g0rzfghffqnxvr0000gn/T//ccElzD9Y.s 			page 19


 1027              		.loc 1 438 0
 1028 0056 12D0     		beq	.L68
 1029              	.LBB212:
 1030              	.LBB213:
 1031              	.LBB214:
 1032              	.LBB215:
 1033              		.loc 4 548 0
 1034              		.syntax unified
 1035              	@ 548 "ChibiOS_16.1.4/os/ext/CMSIS/include/core_cmFunc.h" 1
 1036 0058 89F31188 		MSR basepri, r9
 1037              	@ 0 "" 2
 1038              	.LVL81:
 1039              		.thumb
 1040              		.syntax unified
 1041              	.LBE215:
 1042              	.LBE214:
 1043              	.LBE213:
 1044              	.LBE212:
 1045              	.LBB216:
 1046              	.LBB210:
 1047              		.loc 3 411 0
 1048 005c A368     		ldr	r3, [r4, #8]
 1049              	.LBE210:
 1050              	.LBE216:
 1051              		.loc 1 427 0
 1052 005e 5D46     		mov	r5, fp
 1053              	.LVL82:
 1054 0060 05F1010B 		add	fp, r5, #1
 1055              	.LVL83:
 1056              		.loc 1 433 0
 1057 0064 2046     		mov	r0, r4
 1058              		.loc 1 419 0
 1059 0066 002B     		cmp	r3, #0
 1060 0068 DED1     		bne	.L82
 1061              	.LVL84:
 1062              	.L69:
 1063              		.loc 1 420 0
 1064 006a 0199     		ldr	r1, [sp, #4]
 1065 006c 0093     		str	r3, [sp]
 1066 006e 2046     		mov	r0, r4
 1067              	.LVL85:
 1068 0070 FFF7FEFF 		bl	chThdEnqueueTimeoutS
 1069              	.LVL86:
 1070 0074 009B     		ldr	r3, [sp]
 1071 0076 0028     		cmp	r0, #0
 1072 0078 D1D0     		beq	.L66
 1073              	.LVL87:
 1074              	.LBB217:
 1075              	.LBB218:
 1076              	.LBB219:
 1077              	.LBB220:
 1078              	.LBB221:
 1079              		.loc 4 548 0
 1080              		.syntax unified
 1081              	@ 548 "ChibiOS_16.1.4/os/ext/CMSIS/include/core_cmFunc.h" 1
 1082 007a 83F31188 		MSR basepri, r3
 1083              	@ 0 "" 2
ARM GAS  /var/folders/m4/4md61f0s1_g0rzfghffqnxvr0000gn/T//ccElzD9Y.s 			page 20


 1084              	.LVL88:
 1085              		.thumb
 1086              		.syntax unified
 1087              	.L68:
 1088              	.LBE221:
 1089              	.LBE220:
 1090              	.LBE219:
 1091              	.LBE218:
 1092              	.LBE217:
 1093              		.loc 1 443 0
 1094 007e 3846     		mov	r0, r7
 1095 0080 03B0     		add	sp, sp, #12
 1096              		.cfi_def_cfa_offset 36
 1097              		@ sp needed
 1098 0082 BDE8F08F 		pop	{r4, r5, r6, r7, r8, r9, r10, fp, pc}
 1099              		.cfi_endproc
 1100              	.LFE240:
 1101              		.size	chOQWriteTimeout, .-chOQWriteTimeout
 1102 0086 00BF     		.text
 1103              	.Letext0:
 1104              		.file 5 "/opt/homebrew-cask/Caskroom/gcc-arm-embedded/5_2-2015q4,20151219/gcc-arm-none-eabi-5_2-20
 1105              		.file 6 "/opt/homebrew-cask/Caskroom/gcc-arm-embedded/5_2-2015q4,20151219/gcc-arm-none-eabi-5_2-20
 1106              		.file 7 "/opt/homebrew-cask/Caskroom/gcc-arm-embedded/5_2-2015q4,20151219/gcc-arm-none-eabi-5_2-20
 1107              		.file 8 "ChibiOS_16.1.4/os/rt/ports/ARMCMx/compilers/GCC/chtypes.h"
 1108              		.file 9 "ChibiOS_16.1.4/os/rt/include/chsystypes.h"
 1109              		.file 10 "ChibiOS_16.1.4/os/rt/ports/ARMCMx/chcore.h"
 1110              		.file 11 "ChibiOS_16.1.4/os/rt/ports/ARMCMx/chcore_v7m.h"
 1111              		.file 12 "ChibiOS_16.1.4/os/rt/include/chtm.h"
 1112              		.file 13 "ChibiOS_16.1.4/os/rt/include/chsem.h"
 1113              		.file 14 "ChibiOS_16.1.4/os/rt/include/chmtx.h"
 1114              		.file 15 "ChibiOS_16.1.4/os/rt/include/chthreads.h"
 1115              		.file 16 "ChibiOS_16.1.4/os/rt/include/chsys.h"
 1116              		.file 17 "ChibiOS_16.1.4/os/ext/CMSIS/include/core_cm4.h"