ARM GAS  /var/folders/m4/4md61f0s1_g0rzfghffqnxvr0000gn/T//ccElzD9Y.s 			page 1


   1              		.syntax unified
   2              		.cpu cortex-m4
   3              		.eabi_attribute 27, 1
   4              		.eabi_attribute 28, 1
   5              		.fpu fpv4-sp-d16
   6              		.eabi_attribute 20, 1
   7              		.eabi_attribute 21, 1
   8              		.eabi_attribute 23, 3
   9              		.eabi_attribute 24, 1
  10              		.eabi_attribute 25, 1
  11              		.eabi_attribute 26, 1
  12              		.eabi_attribute 30, 2
  13              		.eabi_attribute 34, 1
  14              		.eabi_attribute 18, 4
  15              		.thumb
  16              		.syntax unified
  17              		.file	"chqueues.c"
  18              		.text
  19              	.Ltext0:
  20              		.cfi_sections	.debug_frame
  21              		.section	.text.chIQObjectInit,"ax",%progbits
  22              		.align	2
  23              		.p2align 4,,15
  24              		.global	chIQObjectInit
  25              		.thumb
  26              		.thumb_func
  27              		.type	chIQObjectInit, %function
  28              	chIQObjectInit:
  29              	.LFB231:
  30              		.file 1 "ChibiOS_16.1.4/os/rt/src/chqueues.c"
  31              		.loc 1 88 0
  32              		.cfi_startproc
  33              		@ args = 4, pretend = 0, frame = 0
  34              		@ frame_needed = 0, uses_anonymous_args = 0
  35              		@ link register save eliminated.
  36              	.LVL0:
  37 0000 30B4     		push	{r4, r5}
  38              		.cfi_def_cfa_offset 8
  39              		.cfi_offset 4, -8
  40              		.cfi_offset 5, -4
  41              		.loc 1 88 0
  42 0002 029C     		ldr	r4, [sp, #8]
  43              		.loc 1 97 0
  44 0004 0462     		str	r4, [r0, #32]
  45              		.loc 1 91 0
  46 0006 0025     		movs	r5, #0
  47              		.loc 1 95 0
  48 0008 0A44     		add	r2, r2, r1
  49              	.LVL1:
  50              		.loc 1 91 0
  51 000a 8560     		str	r5, [r0, #8]
  52              		.loc 1 95 0
  53 000c 0261     		str	r2, [r0, #16]
  54              	.LBB108:
  55              	.LBB109:
  56              	.LBB110:
  57              		.file 2 "ChibiOS_16.1.4/os/rt/include/chschd.h"
ARM GAS  /var/folders/m4/4md61f0s1_g0rzfghffqnxvr0000gn/T//ccElzD9Y.s 			page 2


  58              		.loc 2 604 0
  59 000e 0060     		str	r0, [r0]
  60              		.loc 2 605 0
  61 0010 4060     		str	r0, [r0, #4]
  62              	.LVL2:
  63              	.LBE110:
  64              	.LBE109:
  65              	.LBE108:
  66              		.loc 1 92 0
  67 0012 C160     		str	r1, [r0, #12]
  68              		.loc 1 93 0
  69 0014 8161     		str	r1, [r0, #24]
  70              		.loc 1 94 0
  71 0016 4161     		str	r1, [r0, #20]
  72              		.loc 1 96 0
  73 0018 C361     		str	r3, [r0, #28]
  74              		.loc 1 98 0
  75 001a 30BC     		pop	{r4, r5}
  76              		.cfi_restore 5
  77              		.cfi_restore 4
  78              		.cfi_def_cfa_offset 0
  79              	.LVL3:
  80 001c 7047     		bx	lr
  81              		.cfi_endproc
  82              	.LFE231:
  83              		.size	chIQObjectInit, .-chIQObjectInit
  84 001e 00BF     		.section	.text.chIQResetI,"ax",%progbits
  85              		.align	2
  86              		.p2align 4,,15
  87              		.global	chIQResetI
  88              		.thumb
  89              		.thumb_func
  90              		.type	chIQResetI, %function
  91              	chIQResetI:
  92              	.LFB232:
  93              		.loc 1 111 0
  94              		.cfi_startproc
  95              		@ args = 0, pretend = 0, frame = 0
  96              		@ frame_needed = 0, uses_anonymous_args = 0
  97              		@ link register save eliminated.
  98              	.LVL4:
  99              		.loc 1 117 0
 100 0000 0021     		movs	r1, #0
 101              		.loc 1 115 0
 102 0002 C268     		ldr	r2, [r0, #12]
 103              		.loc 1 117 0
 104 0004 8160     		str	r1, [r0, #8]
 105              		.loc 1 115 0
 106 0006 8261     		str	r2, [r0, #24]
 107              		.loc 1 116 0
 108 0008 4261     		str	r2, [r0, #20]
 109              		.loc 1 118 0
 110 000a 6FF00101 		mvn	r1, #1
 111 000e FFF7FEBF 		b	chThdDequeueAllI
 112              	.LVL5:
 113              		.cfi_endproc
 114              	.LFE232:
ARM GAS  /var/folders/m4/4md61f0s1_g0rzfghffqnxvr0000gn/T//ccElzD9Y.s 			page 3


 115              		.size	chIQResetI, .-chIQResetI
 116 0012 00BF     		.section	.text.chIQPutI,"ax",%progbits
 117              		.align	2
 118              		.p2align 4,,15
 119              		.global	chIQPutI
 120              		.thumb
 121              		.thumb_func
 122              		.type	chIQPutI, %function
 123              	chIQPutI:
 124              	.LFB233:
 125              		.loc 1 134 0
 126              		.cfi_startproc
 127              		@ args = 0, pretend = 0, frame = 0
 128              		@ frame_needed = 0, uses_anonymous_args = 0
 129              	.LVL6:
 130              	.LBB111:
 131              	.LBB112:
 132              		.file 3 "ChibiOS_16.1.4/os/rt/include/chqueues.h"
 133              		.loc 3 325 0
 134 0000 4369     		ldr	r3, [r0, #20]
 135 0002 8269     		ldr	r2, [r0, #24]
 136 0004 9342     		cmp	r3, r2
 137              	.LBE112:
 138              	.LBE111:
 139              		.loc 1 134 0
 140 0006 10B5     		push	{r4, lr}
 141              		.cfi_def_cfa_offset 8
 142              		.cfi_offset 4, -8
 143              		.cfi_offset 14, -4
 144              	.LBB115:
 145              	.LBB113:
 146              		.loc 3 325 0
 147 0008 10D0     		beq	.L13
 148              	.L5:
 149              	.LVL7:
 150              	.LBE113:
 151              	.LBE115:
 152              		.loc 1 142 0
 153 000a 8268     		ldr	r2, [r0, #8]
 154              		.loc 1 143 0
 155 000c 5C1C     		adds	r4, r3, #1
 156              		.loc 1 142 0
 157 000e 0132     		adds	r2, r2, #1
 158 0010 8260     		str	r2, [r0, #8]
 159              		.loc 1 143 0
 160 0012 4461     		str	r4, [r0, #20]
 161 0014 1970     		strb	r1, [r3]
 162              		.loc 1 144 0
 163 0016 4269     		ldr	r2, [r0, #20]
 164 0018 0369     		ldr	r3, [r0, #16]
 165 001a 9A42     		cmp	r2, r3
 166 001c 01D3     		bcc	.L8
 167              		.loc 1 145 0
 168 001e C368     		ldr	r3, [r0, #12]
 169 0020 4361     		str	r3, [r0, #20]
 170              	.L8:
 171              		.loc 1 148 0
ARM GAS  /var/folders/m4/4md61f0s1_g0rzfghffqnxvr0000gn/T//ccElzD9Y.s 			page 4


 172 0022 0021     		movs	r1, #0
 173              	.LVL8:
 174 0024 FFF7FEFF 		bl	chThdDequeueNextI
 175              	.LVL9:
 176              		.loc 1 150 0
 177 0028 0020     		movs	r0, #0
 178 002a 10BD     		pop	{r4, pc}
 179              	.LVL10:
 180              	.L13:
 181              	.LBB116:
 182              	.LBB114:
 183              		.loc 3 325 0
 184 002c 8268     		ldr	r2, [r0, #8]
 185 002e 002A     		cmp	r2, #0
 186 0030 EBD0     		beq	.L5
 187              	.LBE114:
 188              	.LBE116:
 189              		.loc 1 139 0
 190 0032 6FF00300 		mvn	r0, #3
 191              	.LVL11:
 192 0036 10BD     		pop	{r4, pc}
 193              		.cfi_endproc
 194              	.LFE233:
 195              		.size	chIQPutI, .-chIQPutI
 196              		.section	.text.chIQGetTimeout,"ax",%progbits
 197              		.align	2
 198              		.p2align 4,,15
 199              		.global	chIQGetTimeout
 200              		.thumb
 201              		.thumb_func
 202              		.type	chIQGetTimeout, %function
 203              	chIQGetTimeout:
 204              	.LFB234:
 205              		.loc 1 173 0
 206              		.cfi_startproc
 207              		@ args = 0, pretend = 0, frame = 0
 208              		@ frame_needed = 0, uses_anonymous_args = 0
 209              	.LVL12:
 210 0000 70B5     		push	{r4, r5, r6, lr}
 211              		.cfi_def_cfa_offset 16
 212              		.cfi_offset 4, -16
 213              		.cfi_offset 5, -12
 214              		.cfi_offset 6, -8
 215              		.cfi_offset 14, -4
 216              	.LBB117:
 217              	.LBB118:
 218              	.LBB119:
 219              	.LBB120:
 220              		.file 4 "ChibiOS_16.1.4/os/ext/CMSIS/include/core_cmFunc.h"
 221              		.loc 4 548 0
 222 0002 2023     		movs	r3, #32
 223              	.LBE120:
 224              	.LBE119:
 225              	.LBE118:
 226              	.LBE117:
 227              		.loc 1 173 0
 228 0004 0E46     		mov	r6, r1
ARM GAS  /var/folders/m4/4md61f0s1_g0rzfghffqnxvr0000gn/T//ccElzD9Y.s 			page 5


 229 0006 0446     		mov	r4, r0
 230              	.LBB124:
 231              	.LBB123:
 232              	.LBB122:
 233              	.LBB121:
 234              		.loc 4 548 0
 235              		.syntax unified
 236              	@ 548 "ChibiOS_16.1.4/os/ext/CMSIS/include/core_cmFunc.h" 1
 237 0008 83F31188 		MSR basepri, r3
 238              	@ 0 "" 2
 239              	.LVL13:
 240              		.thumb
 241              		.syntax unified
 242              	.LBE121:
 243              	.LBE122:
 244              	.LBE123:
 245              	.LBE124:
 246              		.loc 1 177 0
 247 000c C369     		ldr	r3, [r0, #28]
 248 000e 2BB1     		cbz	r3, .L16
 249              		.loc 1 178 0
 250 0010 9847     		blx	r3
 251              	.LVL14:
 252 0012 03E0     		b	.L16
 253              	.LVL15:
 254              	.L18:
 255              	.LBB125:
 256              		.loc 1 182 0
 257 0014 FFF7FEFF 		bl	chThdEnqueueTimeoutS
 258              	.LVL16:
 259              		.loc 1 183 0
 260 0018 0028     		cmp	r0, #0
 261 001a 15DB     		blt	.L25
 262              	.LVL17:
 263              	.L16:
 264              	.LBE125:
 265              	.LBB131:
 266              	.LBB132:
 267              		.loc 3 307 0
 268 001c A568     		ldr	r5, [r4, #8]
 269              	.LVL18:
 270              	.LBE132:
 271              	.LBE131:
 272              	.LBB133:
 273              		.loc 1 182 0
 274 001e 3146     		mov	r1, r6
 275 0020 2046     		mov	r0, r4
 276              	.LBE133:
 277              		.loc 1 181 0
 278 0022 002D     		cmp	r5, #0
 279 0024 F6D0     		beq	.L18
 280              	.LVL19:
 281              		.loc 1 190 0
 282 0026 A169     		ldr	r1, [r4, #24]
 283              	.LVL20:
 284              		.loc 1 189 0
 285 0028 A368     		ldr	r3, [r4, #8]
ARM GAS  /var/folders/m4/4md61f0s1_g0rzfghffqnxvr0000gn/T//ccElzD9Y.s 			page 6


 286              		.loc 1 191 0
 287 002a 2569     		ldr	r5, [r4, #16]
 288              		.loc 1 190 0
 289 002c 4A1C     		adds	r2, r1, #1
 290              		.loc 1 189 0
 291 002e 013B     		subs	r3, r3, #1
 292              		.loc 1 191 0
 293 0030 AA42     		cmp	r2, r5
 294              		.loc 1 189 0
 295 0032 A360     		str	r3, [r4, #8]
 296              		.loc 1 190 0
 297 0034 A261     		str	r2, [r4, #24]
 298              		.loc 1 192 0
 299 0036 28BF     		it	cs
 300 0038 E368     		ldrcs	r3, [r4, #12]
 301              		.loc 1 190 0
 302 003a 0878     		ldrb	r0, [r1]	@ zero_extendqisi2
 303              	.LVL21:
 304              		.loc 1 192 0
 305 003c 28BF     		it	cs
 306 003e A361     		strcs	r3, [r4, #24]
 307              	.LVL22:
 308              	.LBB134:
 309              	.LBB135:
 310              	.LBB136:
 311              	.LBB137:
 312              	.LBB138:
 313              		.loc 4 548 0
 314 0040 0023     		movs	r3, #0
 315              		.syntax unified
 316              	@ 548 "ChibiOS_16.1.4/os/ext/CMSIS/include/core_cmFunc.h" 1
 317 0042 83F31188 		MSR basepri, r3
 318              	@ 0 "" 2
 319              	.LVL23:
 320              		.thumb
 321              		.syntax unified
 322              	.LBE138:
 323              	.LBE137:
 324              	.LBE136:
 325              	.LBE135:
 326              	.LBE134:
 327              		.loc 1 197 0
 328 0046 70BD     		pop	{r4, r5, r6, pc}
 329              	.LVL24:
 330              	.L25:
 331              	.LBB139:
 332              	.LBB126:
 333              	.LBB127:
 334              	.LBB128:
 335              	.LBB129:
 336              	.LBB130:
 337              		.loc 4 548 0
 338              		.syntax unified
 339              	@ 548 "ChibiOS_16.1.4/os/ext/CMSIS/include/core_cmFunc.h" 1
 340 0048 85F31188 		MSR basepri, r5
 341              	@ 0 "" 2
 342              	.LVL25:
ARM GAS  /var/folders/m4/4md61f0s1_g0rzfghffqnxvr0000gn/T//ccElzD9Y.s 			page 7


 343              		.thumb
 344              		.syntax unified
 345              	.LBE130:
 346              	.LBE129:
 347              	.LBE128:
 348              	.LBE127:
 349              	.LBE126:
 350              		.loc 1 185 0
 351 004c 70BD     		pop	{r4, r5, r6, pc}
 352              	.LBE139:
 353              		.cfi_endproc
 354              	.LFE234:
 355              		.size	chIQGetTimeout, .-chIQGetTimeout
 356 004e 00BF     		.section	.text.chIQReadTimeout,"ax",%progbits
 357              		.align	2
 358              		.p2align 4,,15
 359              		.global	chIQReadTimeout
 360              		.thumb
 361              		.thumb_func
 362              		.type	chIQReadTimeout, %function
 363              	chIQReadTimeout:
 364              	.LFB235:
 365              		.loc 1 224 0
 366              		.cfi_startproc
 367              		@ args = 0, pretend = 0, frame = 8
 368              		@ frame_needed = 0, uses_anonymous_args = 0
 369              	.LVL26:
 370 0000 2DE9F04F 		push	{r4, r5, r6, r7, r8, r9, r10, fp, lr}
 371              		.cfi_def_cfa_offset 36
 372              		.cfi_offset 4, -36
 373              		.cfi_offset 5, -32
 374              		.cfi_offset 6, -28
 375              		.cfi_offset 7, -24
 376              		.cfi_offset 8, -20
 377              		.cfi_offset 9, -16
 378              		.cfi_offset 10, -12
 379              		.cfi_offset 11, -8
 380              		.cfi_offset 14, -4
 381 0004 0446     		mov	r4, r0
 382 0006 83B0     		sub	sp, sp, #12
 383              		.cfi_def_cfa_offset 48
 384              		.loc 1 224 0
 385 0008 8946     		mov	r9, r1
 386 000a 9346     		mov	fp, r2
 387 000c 1D46     		mov	r5, r3
 388              		.loc 1 225 0
 389 000e D0F81C80 		ldr	r8, [r0, #28]
 390              	.LVL27:
 391              	.LBB140:
 392              	.LBB141:
 393              	.LBB142:
 394              	.LBB143:
 395              		.loc 4 548 0
 396 0012 2027     		movs	r7, #32
 397              		.syntax unified
 398              	@ 548 "ChibiOS_16.1.4/os/ext/CMSIS/include/core_cmFunc.h" 1
 399 0014 87F31188 		MSR basepri, r7
ARM GAS  /var/folders/m4/4md61f0s1_g0rzfghffqnxvr0000gn/T//ccElzD9Y.s 			page 8


 400              	@ 0 "" 2
 401              	.LVL28:
 402              		.thumb
 403              		.syntax unified
 404              	.LBE143:
 405              	.LBE142:
 406              	.LBE141:
 407              	.LBE140:
 408              		.loc 1 226 0
 409 0018 0026     		movs	r6, #0
 410              	.LBB144:
 411              	.LBB145:
 412              	.LBB146:
 413              	.LBB147:
 414              		.loc 4 548 0
 415 001a 0197     		str	r7, [sp, #4]
 416              	.LBE147:
 417              	.LBE146:
 418              	.LBE145:
 419              	.LBE144:
 420              	.LBB151:
 421              	.LBB152:
 422              	.LBB153:
 423              	.LBB154:
 424              	.LBB155:
 425 001c B246     		mov	r10, r6
 426              	.LVL29:
 427              	.L32:
 428              	.LBE155:
 429              	.LBE154:
 430              	.LBE153:
 431              	.LBE152:
 432              	.LBE151:
 433              		.loc 1 232 0
 434 001e B8F1000F 		cmp	r8, #0
 435 0022 05D0     		beq	.L28
 436              		.loc 1 233 0
 437 0024 2046     		mov	r0, r4
 438              	.LVL30:
 439 0026 C047     		blx	r8
 440              	.LVL31:
 441 0028 02E0     		b	.L28
 442              	.LVL32:
 443              	.L30:
 444              		.loc 1 237 0
 445 002a FFF7FEFF 		bl	chThdEnqueueTimeoutS
 446              	.LVL33:
 447 002e E0B9     		cbnz	r0, .L39
 448              	.L28:
 449              	.LVL34:
 450              	.LBB160:
 451              	.LBB161:
 452              		.loc 3 307 0
 453 0030 A768     		ldr	r7, [r4, #8]
 454              	.LVL35:
 455              	.LBE161:
 456              	.LBE160:
ARM GAS  /var/folders/m4/4md61f0s1_g0rzfghffqnxvr0000gn/T//ccElzD9Y.s 			page 9


 457              		.loc 1 237 0
 458 0032 2946     		mov	r1, r5
 459 0034 2046     		mov	r0, r4
 460              		.loc 1 236 0
 461 0036 002F     		cmp	r7, #0
 462 0038 F7D0     		beq	.L30
 463              	.LVL36:
 464              		.loc 1 244 0
 465 003a A269     		ldr	r2, [r4, #24]
 466              		.loc 1 243 0
 467 003c A368     		ldr	r3, [r4, #8]
 468              		.loc 1 244 0
 469 003e 511C     		adds	r1, r2, #1
 470              	.LVL37:
 471              		.loc 1 243 0
 472 0040 013B     		subs	r3, r3, #1
 473              		.loc 1 244 0
 474 0042 A161     		str	r1, [r4, #24]
 475              		.loc 1 243 0
 476 0044 A360     		str	r3, [r4, #8]
 477              		.loc 1 244 0
 478 0046 1378     		ldrb	r3, [r2]	@ zero_extendqisi2
 479 0048 09F8013B 		strb	r3, [r9], #1
 480              	.LVL38:
 481              		.loc 1 245 0
 482 004c 2369     		ldr	r3, [r4, #16]
 483 004e A269     		ldr	r2, [r4, #24]
 484 0050 9A42     		cmp	r2, r3
 485              		.loc 1 246 0
 486 0052 24BF     		itt	cs
 487 0054 E368     		ldrcs	r3, [r4, #12]
 488 0056 A361     		strcs	r3, [r4, #24]
 489              	.LVL39:
 490              	.LBB162:
 491              	.LBB159:
 492              	.LBB158:
 493              	.LBB157:
 494              	.LBB156:
 495              		.loc 4 548 0
 496              		.syntax unified
 497              	@ 548 "ChibiOS_16.1.4/os/ext/CMSIS/include/core_cmFunc.h" 1
 498 0058 8AF31188 		MSR basepri, r10
 499              	@ 0 "" 2
 500              	.LVL40:
 501              		.thumb
 502              		.syntax unified
 503              	.LBE156:
 504              	.LBE157:
 505              	.LBE158:
 506              	.LBE159:
 507              	.LBE162:
 508              		.loc 1 250 0
 509 005c 0136     		adds	r6, r6, #1
 510              	.LVL41:
 511              		.loc 1 251 0
 512 005e B345     		cmp	fp, r6
 513 0060 05D0     		beq	.L29
ARM GAS  /var/folders/m4/4md61f0s1_g0rzfghffqnxvr0000gn/T//ccElzD9Y.s 			page 10


 514              	.LVL42:
 515              	.LBB163:
 516              	.LBB150:
 517              	.LBB149:
 518              	.LBB148:
 519              		.loc 4 548 0
 520 0062 019B     		ldr	r3, [sp, #4]
 521              		.syntax unified
 522              	@ 548 "ChibiOS_16.1.4/os/ext/CMSIS/include/core_cmFunc.h" 1
 523 0064 83F31188 		MSR basepri, r3
 524              	@ 0 "" 2
 525              	.LVL43:
 526              		.thumb
 527              		.syntax unified
 528 0068 D9E7     		b	.L32
 529              	.LVL44:
 530              	.L39:
 531              	.LBE148:
 532              	.LBE149:
 533              	.LBE150:
 534              	.LBE163:
 535              	.LBB164:
 536              	.LBB165:
 537              	.LBB166:
 538              	.LBB167:
 539              	.LBB168:
 540              		.syntax unified
 541              	@ 548 "ChibiOS_16.1.4/os/ext/CMSIS/include/core_cmFunc.h" 1
 542 006a 87F31188 		MSR basepri, r7
 543              	@ 0 "" 2
 544              	.LVL45:
 545              		.thumb
 546              		.syntax unified
 547              	.L29:
 548              	.LBE168:
 549              	.LBE167:
 550              	.LBE166:
 551              	.LBE165:
 552              	.LBE164:
 553              		.loc 1 257 0
 554 006e 3046     		mov	r0, r6
 555 0070 03B0     		add	sp, sp, #12
 556              		.cfi_def_cfa_offset 36
 557              		@ sp needed
 558 0072 BDE8F08F 		pop	{r4, r5, r6, r7, r8, r9, r10, fp, pc}
 559              		.cfi_endproc
 560              	.LFE235:
 561              		.size	chIQReadTimeout, .-chIQReadTimeout
 562 0076 00BF     		.section	.text.chOQObjectInit,"ax",%progbits
 563              		.align	2
 564              		.p2align 4,,15
 565              		.global	chOQObjectInit
 566              		.thumb
 567              		.thumb_func
 568              		.type	chOQObjectInit, %function
 569              	chOQObjectInit:
 570              	.LFB236:
ARM GAS  /var/folders/m4/4md61f0s1_g0rzfghffqnxvr0000gn/T//ccElzD9Y.s 			page 11


 571              		.loc 1 276 0
 572              		.cfi_startproc
 573              		@ args = 4, pretend = 0, frame = 0
 574              		@ frame_needed = 0, uses_anonymous_args = 0
 575              		@ link register save eliminated.
 576              	.LVL46:
 577 0000 30B4     		push	{r4, r5}
 578              		.cfi_def_cfa_offset 8
 579              		.cfi_offset 4, -8
 580              		.cfi_offset 5, -4
 581              		.loc 1 276 0
 582 0002 029C     		ldr	r4, [sp, #8]
 583              		.loc 1 285 0
 584 0004 0462     		str	r4, [r0, #32]
 585              		.loc 1 283 0
 586 0006 8D18     		adds	r5, r1, r2
 587 0008 0561     		str	r5, [r0, #16]
 588              	.LBB169:
 589              	.LBB170:
 590              	.LBB171:
 591              		.loc 2 604 0
 592 000a 0060     		str	r0, [r0]
 593              		.loc 2 605 0
 594 000c 4060     		str	r0, [r0, #4]
 595              	.LVL47:
 596              	.LBE171:
 597              	.LBE170:
 598              	.LBE169:
 599              		.loc 1 279 0
 600 000e 8260     		str	r2, [r0, #8]
 601              		.loc 1 280 0
 602 0010 C160     		str	r1, [r0, #12]
 603              		.loc 1 281 0
 604 0012 8161     		str	r1, [r0, #24]
 605              		.loc 1 282 0
 606 0014 4161     		str	r1, [r0, #20]
 607              		.loc 1 284 0
 608 0016 C361     		str	r3, [r0, #28]
 609              		.loc 1 286 0
 610 0018 30BC     		pop	{r4, r5}
 611              		.cfi_restore 5
 612              		.cfi_restore 4
 613              		.cfi_def_cfa_offset 0
 614              	.LVL48:
 615 001a 7047     		bx	lr
 616              		.cfi_endproc
 617              	.LFE236:
 618              		.size	chOQObjectInit, .-chOQObjectInit
 619              		.section	.text.chOQResetI,"ax",%progbits
 620              		.align	2
 621              		.p2align 4,,15
 622              		.global	chOQResetI
 623              		.thumb
 624              		.thumb_func
 625              		.type	chOQResetI, %function
 626              	chOQResetI:
 627              	.LFB237:
ARM GAS  /var/folders/m4/4md61f0s1_g0rzfghffqnxvr0000gn/T//ccElzD9Y.s 			page 12


 628              		.loc 1 299 0
 629              		.cfi_startproc
 630              		@ args = 0, pretend = 0, frame = 0
 631              		@ frame_needed = 0, uses_anonymous_args = 0
 632              		@ link register save eliminated.
 633              	.LVL49:
 634 0000 10B4     		push	{r4}
 635              		.cfi_def_cfa_offset 4
 636              		.cfi_offset 4, -4
 637              		.loc 1 305 0
 638 0002 0269     		ldr	r2, [r0, #16]
 639              		.loc 1 303 0
 640 0004 C468     		ldr	r4, [r0, #12]
 641 0006 8461     		str	r4, [r0, #24]
 642              		.loc 1 305 0
 643 0008 121B     		subs	r2, r2, r4
 644              		.loc 1 304 0
 645 000a 4461     		str	r4, [r0, #20]
 646              		.loc 1 306 0
 647 000c 6FF00101 		mvn	r1, #1
 648              		.loc 1 305 0
 649 0010 8260     		str	r2, [r0, #8]
 650              		.loc 1 307 0
 651 0012 5DF8044B 		ldr	r4, [sp], #4
 652              		.cfi_restore 4
 653              		.cfi_def_cfa_offset 0
 654              		.loc 1 306 0
 655 0016 FFF7FEBF 		b	chThdDequeueAllI
 656              	.LVL50:
 657              		.cfi_endproc
 658              	.LFE237:
 659              		.size	chOQResetI, .-chOQResetI
 660 001a 00BF     		.section	.text.chOQPutTimeout,"ax",%progbits
 661              		.align	2
 662              		.p2align 4,,15
 663              		.global	chOQPutTimeout
 664              		.thumb
 665              		.thumb_func
 666              		.type	chOQPutTimeout, %function
 667              	chOQPutTimeout:
 668              	.LFB238:
 669              		.loc 1 331 0
 670              		.cfi_startproc
 671              		@ args = 0, pretend = 0, frame = 0
 672              		@ frame_needed = 0, uses_anonymous_args = 0
 673              	.LVL51:
 674 0000 F8B5     		push	{r3, r4, r5, r6, r7, lr}
 675              		.cfi_def_cfa_offset 24
 676              		.cfi_offset 3, -24
 677              		.cfi_offset 4, -20
 678              		.cfi_offset 5, -16
 679              		.cfi_offset 6, -12
 680              		.cfi_offset 7, -8
 681              		.cfi_offset 14, -4
 682              		.loc 1 331 0
 683 0002 0446     		mov	r4, r0
 684 0004 0F46     		mov	r7, r1
ARM GAS  /var/folders/m4/4md61f0s1_g0rzfghffqnxvr0000gn/T//ccElzD9Y.s 			page 13


 685 0006 1646     		mov	r6, r2
 686              	.LBB172:
 687              	.LBB173:
 688              	.LBB174:
 689              	.LBB175:
 690              		.loc 4 548 0
 691 0008 2023     		movs	r3, #32
 692              		.syntax unified
 693              	@ 548 "ChibiOS_16.1.4/os/ext/CMSIS/include/core_cmFunc.h" 1
 694 000a 83F31188 		MSR basepri, r3
 695              	@ 0 "" 2
 696              	.LVL52:
 697              		.thumb
 698              		.syntax unified
 699 000e 03E0     		b	.L45
 700              	.LVL53:
 701              	.L47:
 702              	.LBE175:
 703              	.LBE174:
 704              	.LBE173:
 705              	.LBE172:
 706              	.LBB176:
 707              		.loc 1 335 0
 708 0010 FFF7FEFF 		bl	chThdEnqueueTimeoutS
 709              	.LVL54:
 710              		.loc 1 336 0
 711 0014 0028     		cmp	r0, #0
 712 0016 19DB     		blt	.L55
 713              	.LVL55:
 714              	.L45:
 715              	.LBE176:
 716              	.LBB182:
 717              	.LBB183:
 718              		.loc 3 411 0
 719 0018 A568     		ldr	r5, [r4, #8]
 720              	.LVL56:
 721              	.LBE183:
 722              	.LBE182:
 723              	.LBB184:
 724              		.loc 1 335 0
 725 001a 3146     		mov	r1, r6
 726 001c 2046     		mov	r0, r4
 727              	.LBE184:
 728              		.loc 1 334 0
 729 001e 002D     		cmp	r5, #0
 730 0020 F6D0     		beq	.L47
 731              	.LVL57:
 732              		.loc 1 343 0
 733 0022 6269     		ldr	r2, [r4, #20]
 734              		.loc 1 342 0
 735 0024 A368     		ldr	r3, [r4, #8]
 736              		.loc 1 343 0
 737 0026 511C     		adds	r1, r2, #1
 738              	.LVL58:
 739              		.loc 1 342 0
 740 0028 013B     		subs	r3, r3, #1
 741              		.loc 1 343 0
ARM GAS  /var/folders/m4/4md61f0s1_g0rzfghffqnxvr0000gn/T//ccElzD9Y.s 			page 14


 742 002a 6161     		str	r1, [r4, #20]
 743              		.loc 1 342 0
 744 002c A360     		str	r3, [r4, #8]
 745              		.loc 1 343 0
 746 002e 1770     		strb	r7, [r2]
 747              		.loc 1 344 0
 748 0030 2369     		ldr	r3, [r4, #16]
 749 0032 6269     		ldr	r2, [r4, #20]
 750 0034 9A42     		cmp	r2, r3
 751              		.loc 1 345 0
 752 0036 24BF     		itt	cs
 753 0038 E368     		ldrcs	r3, [r4, #12]
 754 003a 6361     		strcs	r3, [r4, #20]
 755              		.loc 1 348 0
 756 003c E369     		ldr	r3, [r4, #28]
 757 003e 0BB1     		cbz	r3, .L49
 758              		.loc 1 349 0
 759 0040 2046     		mov	r0, r4
 760              	.LVL59:
 761 0042 9847     		blx	r3
 762              	.LVL60:
 763              	.L49:
 764              	.LBB185:
 765              	.LBB186:
 766              	.LBB187:
 767              	.LBB188:
 768              	.LBB189:
 769              		.loc 4 548 0
 770 0044 0020     		movs	r0, #0
 771              		.syntax unified
 772              	@ 548 "ChibiOS_16.1.4/os/ext/CMSIS/include/core_cmFunc.h" 1
 773 0046 80F31188 		MSR basepri, r0
 774              	@ 0 "" 2
 775              	.LVL61:
 776              		.thumb
 777              		.syntax unified
 778              	.LBE189:
 779              	.LBE188:
 780              	.LBE187:
 781              	.LBE186:
 782              	.LBE185:
 783              		.loc 1 354 0
 784 004a F8BD     		pop	{r3, r4, r5, r6, r7, pc}
 785              	.LVL62:
 786              	.L55:
 787              	.LBB190:
 788              	.LBB177:
 789              	.LBB178:
 790              	.LBB179:
 791              	.LBB180:
 792              	.LBB181:
 793              		.loc 4 548 0
 794              		.syntax unified
 795              	@ 548 "ChibiOS_16.1.4/os/ext/CMSIS/include/core_cmFunc.h" 1
 796 004c 85F31188 		MSR basepri, r5
 797              	@ 0 "" 2
 798              	.LVL63:
ARM GAS  /var/folders/m4/4md61f0s1_g0rzfghffqnxvr0000gn/T//ccElzD9Y.s 			page 15


 799              		.thumb
 800              		.syntax unified
 801              	.LBE181:
 802              	.LBE180:
 803              	.LBE179:
 804              	.LBE178:
 805              	.LBE177:
 806              		.loc 1 338 0
 807 0050 F8BD     		pop	{r3, r4, r5, r6, r7, pc}
 808              	.LBE190:
 809              		.cfi_endproc
 810              	.LFE238:
 811              		.size	chOQPutTimeout, .-chOQPutTimeout
 812 0052 00BF     		.section	.text.chOQGetI,"ax",%progbits
 813              		.align	2
 814              		.p2align 4,,15
 815              		.global	chOQGetI
 816              		.thumb
 817              		.thumb_func
 818              		.type	chOQGetI, %function
 819              	chOQGetI:
 820              	.LFB239:
 821              		.loc 1 366 0
 822              		.cfi_startproc
 823              		@ args = 0, pretend = 0, frame = 0
 824              		@ frame_needed = 0, uses_anonymous_args = 0
 825              	.LVL64:
 826 0000 38B5     		push	{r3, r4, r5, lr}
 827              		.cfi_def_cfa_offset 16
 828              		.cfi_offset 3, -16
 829              		.cfi_offset 4, -12
 830              		.cfi_offset 5, -8
 831              		.cfi_offset 14, -4
 832              	.LBB191:
 833              	.LBB192:
 834              		.loc 3 393 0
 835 0002 4269     		ldr	r2, [r0, #20]
 836 0004 8369     		ldr	r3, [r0, #24]
 837 0006 9A42     		cmp	r2, r3
 838 0008 0FD0     		beq	.L64
 839              	.L57:
 840              	.LVL65:
 841              	.LBE192:
 842              	.LBE191:
 843              		.loc 1 375 0
 844 000a 8268     		ldr	r2, [r0, #8]
 845              		.loc 1 377 0
 846 000c 0569     		ldr	r5, [r0, #16]
 847              		.loc 1 376 0
 848 000e 591C     		adds	r1, r3, #1
 849              		.loc 1 375 0
 850 0010 0132     		adds	r2, r2, #1
 851 0012 8260     		str	r2, [r0, #8]
 852              		.loc 1 376 0
 853 0014 8161     		str	r1, [r0, #24]
 854              		.loc 1 377 0
 855 0016 A942     		cmp	r1, r5
ARM GAS  /var/folders/m4/4md61f0s1_g0rzfghffqnxvr0000gn/T//ccElzD9Y.s 			page 16


 856              		.loc 1 376 0
 857 0018 1C78     		ldrb	r4, [r3]	@ zero_extendqisi2
 858              	.LVL66:
 859              		.loc 1 377 0
 860 001a 01D3     		bcc	.L60
 861              		.loc 1 378 0
 862 001c C368     		ldr	r3, [r0, #12]
 863 001e 8361     		str	r3, [r0, #24]
 864              	.L60:
 865              		.loc 1 381 0
 866 0020 0021     		movs	r1, #0
 867 0022 FFF7FEFF 		bl	chThdDequeueNextI
 868              	.LVL67:
 869              		.loc 1 383 0
 870 0026 2046     		mov	r0, r4
 871 0028 38BD     		pop	{r3, r4, r5, pc}
 872              	.LVL68:
 873              	.L64:
 874              	.LBB194:
 875              	.LBB193:
 876              		.loc 3 393 0
 877 002a 8268     		ldr	r2, [r0, #8]
 878 002c 002A     		cmp	r2, #0
 879 002e ECD0     		beq	.L57
 880              	.LBE193:
 881              	.LBE194:
 882              		.loc 1 372 0
 883 0030 6FF00200 		mvn	r0, #2
 884              	.LVL69:
 885 0034 38BD     		pop	{r3, r4, r5, pc}
 886              		.cfi_endproc
 887              	.LFE239:
 888              		.size	chOQGetI, .-chOQGetI
 889 0036 00BF     		.section	.text.chOQWriteTimeout,"ax",%progbits
 890              		.align	2
 891              		.p2align 4,,15
 892              		.global	chOQWriteTimeout
 893              		.thumb
 894              		.thumb_func
 895              		.type	chOQWriteTimeout, %function
 896              	chOQWriteTimeout:
 897              	.LFB240:
 898              		.loc 1 411 0
 899              		.cfi_startproc
 900              		@ args = 0, pretend = 0, frame = 8
 901              		@ frame_needed = 0, uses_anonymous_args = 0
 902              	.LVL70:
 903 0000 2DE9F04F 		push	{r4, r5, r6, r7, r8, r9, r10, fp, lr}
 904              		.cfi_def_cfa_offset 36
 905              		.cfi_offset 4, -36
 906              		.cfi_offset 5, -32
 907              		.cfi_offset 6, -28
 908              		.cfi_offset 7, -24
 909              		.cfi_offset 8, -20
 910              		.cfi_offset 9, -16
 911              		.cfi_offset 10, -12
 912              		.cfi_offset 11, -8
ARM GAS  /var/folders/m4/4md61f0s1_g0rzfghffqnxvr0000gn/T//ccElzD9Y.s 			page 17


 913              		.cfi_offset 14, -4
 914 0004 83B0     		sub	sp, sp, #12
 915              		.cfi_def_cfa_offset 48
 916              		.loc 1 411 0
 917 0006 0446     		mov	r4, r0
 918 0008 0D46     		mov	r5, r1
 919 000a 1646     		mov	r6, r2
 920 000c 0193     		str	r3, [sp, #4]
 921              		.loc 1 412 0
 922 000e D0F81C80 		ldr	r8, [r0, #28]
 923              	.LVL71:
 924              	.LBB195:
 925              	.LBB196:
 926              	.LBB197:
 927              	.LBB198:
 928              		.loc 4 548 0
 929 0012 4FF02009 		mov	r9, #32
 930              		.syntax unified
 931              	@ 548 "ChibiOS_16.1.4/os/ext/CMSIS/include/core_cmFunc.h" 1
 932 0016 89F31188 		MSR basepri, r9
 933              	@ 0 "" 2
 934              	.LVL72:
 935              		.thumb
 936              		.syntax unified
 937              	.LBE198:
 938              	.LBE197:
 939              	.LBE196:
 940              	.LBE195:
 941              		.loc 1 413 0
 942 001a 0027     		movs	r7, #0
 943              	.LBB199:
 944              	.LBB200:
 945              	.LBB201:
 946              	.LBB202:
 947              	.LBB203:
 948              		.loc 4 548 0
 949 001c BA46     		mov	r10, r7
 950              	.LVL73:
 951              	.L66:
 952              	.LBE203:
 953              	.LBE202:
 954              	.LBE201:
 955              	.LBE200:
 956              	.LBE199:
 957              	.LBB208:
 958              	.LBB209:
 959              		.loc 3 411 0
 960 001e A368     		ldr	r3, [r4, #8]
 961              	.LVL74:
 962              	.LBE209:
 963              	.LBE208:
 964              		.loc 1 427 0
 965 0020 05F1010B 		add	fp, r5, #1
 966              	.LVL75:
 967              		.loc 1 433 0
 968 0024 2046     		mov	r0, r4
 969              		.loc 1 419 0
ARM GAS  /var/folders/m4/4md61f0s1_g0rzfghffqnxvr0000gn/T//ccElzD9Y.s 			page 18


 970 0026 03B3     		cbz	r3, .L69
 971              	.LVL76:
 972              	.L82:
 973              		.loc 1 427 0
 974 0028 6169     		ldr	r1, [r4, #20]
 975              		.loc 1 426 0
 976 002a A368     		ldr	r3, [r4, #8]
 977              		.loc 1 427 0
 978 002c 4A1C     		adds	r2, r1, #1
 979              		.loc 1 426 0
 980 002e 013B     		subs	r3, r3, #1
 981              		.loc 1 427 0
 982 0030 6261     		str	r2, [r4, #20]
 983              		.loc 1 426 0
 984 0032 A360     		str	r3, [r4, #8]
 985              		.loc 1 427 0
 986 0034 2B78     		ldrb	r3, [r5]	@ zero_extendqisi2
 987 0036 0B70     		strb	r3, [r1]
 988              		.loc 1 428 0
 989 0038 2369     		ldr	r3, [r4, #16]
 990 003a 6169     		ldr	r1, [r4, #20]
 991 003c 9942     		cmp	r1, r3
 992              		.loc 1 429 0
 993 003e 24BF     		itt	cs
 994 0040 E368     		ldrcs	r3, [r4, #12]
 995 0042 6361     		strcs	r3, [r4, #20]
 996              		.loc 1 432 0
 997 0044 B8F1000F 		cmp	r8, #0
 998 0048 00D0     		beq	.L71
 999              		.loc 1 433 0
 1000 004a C047     		blx	r8
 1001              	.LVL77:
 1002              	.L71:
 1003              	.LBB211:
 1004              	.LBB207:
 1005              	.LBB206:
 1006              	.LBB205:
 1007              	.LBB204:
 1008              		.loc 4 548 0
 1009              		.syntax unified
 1010              	@ 548 "ChibiOS_16.1.4/os/ext/CMSIS/include/core_cmFunc.h" 1
 1011 004c 8AF31188 		MSR basepri, r10
 1012              	@ 0 "" 2
 1013              	.LVL78:
 1014              		.thumb
 1015              		.syntax unified
 1016              	.LBE204:
 1017              	.LBE205:
 1018              	.LBE206:
 1019              	.LBE207:
 1020              	.LBE211:
 1021              		.loc 1 438 0
 1022 0050 013E     		subs	r6, r6, #1
 1023              	.LVL79:
 1024              		.loc 1 437 0
 1025 0052 07F10107 		add	r7, r7, #1
 1026              	.LVL80:
ARM GAS  /var/folders/m4/4md61f0s1_g0rzfghffqnxvr0000gn/T//ccElzD9Y.s 			page 19


 1027              		.loc 1 438 0
 1028 0056 12D0     		beq	.L68
 1029              	.LBB212:
 1030              	.LBB213:
 1031              	.LBB214:
 1032              	.LBB215:
 1033              		.loc 4 548 0
 1034              		.syntax unified
 1035              	@ 548 "ChibiOS_16.1.4/os/ext/CMSIS/include/core_cmFunc.h" 1
 1036 0058 89F31188 		MSR basepri, r9
 1037              	@ 0 "" 2
 1038              	.LVL81:
 1039              		.thumb
 1040              		.syntax unified
 1041              	.LBE215:
 1042              	.LBE214:
 1043              	.LBE213:
 1044              	.LBE212:
 1045              	.LBB216:
 1046              	.LBB210:
 1047              		.loc 3 411 0
 1048 005c A368     		ldr	r3, [r4, #8]
 1049              	.LBE210:
 1050              	.LBE216:
 1051              		.loc 1 427 0
 1052 005e 5D46     		mov	r5, fp
 1053              	.LVL82:
 1054 0060 05F1010B 		add	fp, r5, #1
 1055              	.LVL83:
 1056              		.loc 1 433 0
 1057 0064 2046     		mov	r0, r4
 1058              		.loc 1 419 0
 1059 0066 002B     		cmp	r3, #0
 1060 0068 DED1     		bne	.L82
 1061              	.LVL84:
 1062              	.L69:
 1063              		.loc 1 420 0
 1064 006a 0199     		ldr	r1, [sp, #4]
 1065 006c 0093     		str	r3, [sp]
 1066 006e 2046     		mov	r0, r4
 1067              	.LVL85:
 1068 0070 FFF7FEFF 		bl	chThdEnqueueTimeoutS
 1069              	.LVL86:
 1070 0074 009B     		ldr	r3, [sp]
 1071 0076 0028     		cmp	r0, #0
 1072 0078 D1D0     		beq	.L66
 1073              	.LVL87:
 1074              	.LBB217:
 1075              	.LBB218:
 1076              	.LBB219:
 1077              	.LBB220:
 1078              	.LBB221:
 1079              		.loc 4 548 0
 1080              		.syntax unified
 1081              	@ 548 "ChibiOS_16.1.4/os/ext/CMSIS/include/core_cmFunc.h" 1
 1082 007a 83F31188 		MSR basepri, r3
 1083              	@ 0 "" 2
ARM GAS  /var/folders/m4/4md61f0s1_g0rzfghffqnxvr0000gn/T//ccElzD9Y.s 			page 20


 1084              	.LVL88:
 1085              		.thumb
 1086              		.syntax unified
 1087              	.L68:
 1088              	.LBE221:
 1089              	.LBE220:
 1090              	.LBE219:
 1091              	.LBE218:
 1092              	.LBE217:
 1093              		.loc 1 443 0
 1094 007e 3846     		mov	r0, r7
 1095 0080 03B0     		add	sp, sp, #12
 1096              		.cfi_def_cfa_offset 36
 1097              		@ sp needed
 1098 0082 BDE8F08F 		pop	{r4, r5, r6, r7, r8, r9, r10, fp, pc}
 1099              		.cfi_endproc
 1100              	.LFE240:
 1101              		.size	chOQWriteTimeout, .-chOQWriteTimeout
 1102 0086 00BF     		.text
 1103              	.Letext0:
 1104              		.file 5 "/opt/homebrew-cask/Caskroom/gcc-arm-embedded/5_2-2015q4,20151219/gcc-arm-none-eabi-5_2-20
 1105              		.file 6 "/opt/homebrew-cask/Caskroom/gcc-arm-embedded/5_2-2015q4,20151219/gcc-arm-none-eabi-5_2-20
 1106              		.file 7 "/opt/homebrew-cask/Caskroom/gcc-arm-embedded/5_2-2015q4,20151219/gcc-arm-none-eabi-5_2-20
 1107              		.file 8 "ChibiOS_16.1.4/os/rt/ports/ARMCMx/compilers/GCC/chtypes.h"
 1108              		.file 9 "ChibiOS_16.1.4/os/rt/include/chsystypes.h"
 1109              		.file 10 "ChibiOS_16.1.4/os/rt/ports/ARMCMx/chcore.h"
 1110              		.file 11 "ChibiOS_16.1.4/os/rt/ports/ARMCMx/chcore_v7m.h"
 1111              		.file 12 "ChibiOS_16.1.4/os/rt/include/chtm.h"
 1112              		.file 13 "ChibiOS_16.1.4/os/rt/include/chsem.h"
 1113              		.file 14 "ChibiOS_16.1.4/os/rt/include/chmtx.h"
 1114              		.file 15 "ChibiOS_16.1.4/os/rt/include/chthreads.h"
 1115              		.file 16 "ChibiOS_16.1.4/os/rt/include/chsys.h"
 1116              		.file 17 "ChibiOS_16.1.4/os/ext/CMSIS/include/core_cm4.h"
 1117              		.section	.debug_info,"",%progbits
 1118              	.Ldebug_info0:
 1119 0000 3A120000 		.4byte	0x123a
 1120 0004 0400     		.2byte	0x4
 1121 0006 00000000 		.4byte	.Ldebug_abbrev0
 1122 000a 04       		.byte	0x4
 1123 000b 01       		.uleb128 0x1
 1124 000c 37050000 		.4byte	.LASF151
 1125 0010 0C       		.byte	0xc
 1126 0011 06010000 		.4byte	.LASF152
 1127 0015 A9020000 		.4byte	.LASF153
 1128 0019 F0000000 		.4byte	.Ldebug_ranges0+0xf0
 1129 001d 00000000 		.4byte	0
 1130 0021 00000000 		.4byte	.Ldebug_line0
 1131 0025 02       		.uleb128 0x2
 1132 0026 04       		.byte	0x4
 1133 0027 05       		.byte	0x5
 1134 0028 696E7400 		.ascii	"int\000"
 1135 002c 03       		.uleb128 0x3
 1136 002d 21000000 		.4byte	.LASF2
 1137 0031 05       		.byte	0x5
 1138 0032 D8       		.byte	0xd8
 1139 0033 37000000 		.4byte	0x37
 1140 0037 04       		.uleb128 0x4
ARM GAS  /var/folders/m4/4md61f0s1_g0rzfghffqnxvr0000gn/T//ccElzD9Y.s 			page 21


 1141 0038 04       		.byte	0x4
 1142 0039 07       		.byte	0x7
 1143 003a 4C020000 		.4byte	.LASF0
 1144 003e 04       		.uleb128 0x4
 1145 003f 01       		.byte	0x1
 1146 0040 06       		.byte	0x6
 1147 0041 5A010000 		.4byte	.LASF1
 1148 0045 03       		.uleb128 0x3
 1149 0046 49000000 		.4byte	.LASF3
 1150 004a 06       		.byte	0x6
 1151 004b 1D       		.byte	0x1d
 1152 004c 50000000 		.4byte	0x50
 1153 0050 04       		.uleb128 0x4
 1154 0051 01       		.byte	0x1
 1155 0052 08       		.byte	0x8
 1156 0053 3C040000 		.4byte	.LASF4
 1157 0057 04       		.uleb128 0x4
 1158 0058 02       		.byte	0x2
 1159 0059 05       		.byte	0x5
 1160 005a 6A040000 		.4byte	.LASF5
 1161 005e 04       		.uleb128 0x4
 1162 005f 02       		.byte	0x2
 1163 0060 07       		.byte	0x7
 1164 0061 E6010000 		.4byte	.LASF6
 1165 0065 03       		.uleb128 0x3
 1166 0066 16030000 		.4byte	.LASF7
 1167 006a 06       		.byte	0x6
 1168 006b 3F       		.byte	0x3f
 1169 006c 70000000 		.4byte	0x70
 1170 0070 04       		.uleb128 0x4
 1171 0071 04       		.byte	0x4
 1172 0072 05       		.byte	0x5
 1173 0073 B2010000 		.4byte	.LASF8
 1174 0077 03       		.uleb128 0x3
 1175 0078 6B060000 		.4byte	.LASF9
 1176 007c 06       		.byte	0x6
 1177 007d 41       		.byte	0x41
 1178 007e 82000000 		.4byte	0x82
 1179 0082 04       		.uleb128 0x4
 1180 0083 04       		.byte	0x4
 1181 0084 07       		.byte	0x7
 1182 0085 20050000 		.4byte	.LASF10
 1183 0089 04       		.uleb128 0x4
 1184 008a 08       		.byte	0x8
 1185 008b 05       		.byte	0x5
 1186 008c 4C010000 		.4byte	.LASF11
 1187 0090 03       		.uleb128 0x3
 1188 0091 CE030000 		.4byte	.LASF12
 1189 0095 06       		.byte	0x6
 1190 0096 5B       		.byte	0x5b
 1191 0097 9B000000 		.4byte	0x9b
 1192 009b 04       		.uleb128 0x4
 1193 009c 08       		.byte	0x8
 1194 009d 07       		.byte	0x7
 1195 009e A2000000 		.4byte	.LASF13
 1196 00a2 03       		.uleb128 0x3
 1197 00a3 F8060000 		.4byte	.LASF14
ARM GAS  /var/folders/m4/4md61f0s1_g0rzfghffqnxvr0000gn/T//ccElzD9Y.s 			page 22


 1198 00a7 07       		.byte	0x7
 1199 00a8 14       		.byte	0x14
 1200 00a9 45000000 		.4byte	0x45
 1201 00ad 03       		.uleb128 0x3
 1202 00ae 34040000 		.4byte	.LASF15
 1203 00b2 07       		.byte	0x7
 1204 00b3 1F       		.byte	0x1f
 1205 00b4 65000000 		.4byte	0x65
 1206 00b8 03       		.uleb128 0x3
 1207 00b9 F8040000 		.4byte	.LASF16
 1208 00bd 07       		.byte	0x7
 1209 00be 20       		.byte	0x20
 1210 00bf 77000000 		.4byte	0x77
 1211 00c3 03       		.uleb128 0x3
 1212 00c4 2F000000 		.4byte	.LASF17
 1213 00c8 07       		.byte	0x7
 1214 00c9 26       		.byte	0x26
 1215 00ca 90000000 		.4byte	0x90
 1216 00ce 03       		.uleb128 0x3
 1217 00cf A8060000 		.4byte	.LASF18
 1218 00d3 08       		.byte	0x8
 1219 00d4 39       		.byte	0x39
 1220 00d5 B8000000 		.4byte	0xb8
 1221 00d9 03       		.uleb128 0x3
 1222 00da 2B070000 		.4byte	.LASF19
 1223 00de 08       		.byte	0x8
 1224 00df 3C       		.byte	0x3c
 1225 00e0 A2000000 		.4byte	0xa2
 1226 00e4 03       		.uleb128 0x3
 1227 00e5 BB010000 		.4byte	.LASF20
 1228 00e9 08       		.byte	0x8
 1229 00ea 3D       		.byte	0x3d
 1230 00eb A2000000 		.4byte	0xa2
 1231 00ef 03       		.uleb128 0x3
 1232 00f0 D9030000 		.4byte	.LASF21
 1233 00f4 08       		.byte	0x8
 1234 00f5 3E       		.byte	0x3e
 1235 00f6 A2000000 		.4byte	0xa2
 1236 00fa 03       		.uleb128 0x3
 1237 00fb 89010000 		.4byte	.LASF22
 1238 00ff 08       		.byte	0x8
 1239 0100 3F       		.byte	0x3f
 1240 0101 A2000000 		.4byte	0xa2
 1241 0105 03       		.uleb128 0x3
 1242 0106 0E040000 		.4byte	.LASF23
 1243 010a 08       		.byte	0x8
 1244 010b 40       		.byte	0x40
 1245 010c B8000000 		.4byte	0xb8
 1246 0110 03       		.uleb128 0x3
 1247 0111 A3020000 		.4byte	.LASF24
 1248 0115 08       		.byte	0x8
 1249 0116 41       		.byte	0x41
 1250 0117 AD000000 		.4byte	0xad
 1251 011b 03       		.uleb128 0x3
 1252 011c 0A030000 		.4byte	.LASF25
 1253 0120 08       		.byte	0x8
 1254 0121 43       		.byte	0x43
ARM GAS  /var/folders/m4/4md61f0s1_g0rzfghffqnxvr0000gn/T//ccElzD9Y.s 			page 23


 1255 0122 B8000000 		.4byte	0xb8
 1256 0126 03       		.uleb128 0x3
 1257 0127 46020000 		.4byte	.LASF26
 1258 012b 08       		.byte	0x8
 1259 012c 45       		.byte	0x45
 1260 012d AD000000 		.4byte	0xad
 1261 0131 03       		.uleb128 0x3
 1262 0132 4D060000 		.4byte	.LASF27
 1263 0136 09       		.byte	0x9
 1264 0137 33       		.byte	0x33
 1265 0138 B8000000 		.4byte	0xb8
 1266 013c 03       		.uleb128 0x3
 1267 013d 3D060000 		.4byte	.LASF28
 1268 0141 09       		.byte	0x9
 1269 0142 3F       		.byte	0x3f
 1270 0143 47010000 		.4byte	0x147
 1271 0147 05       		.uleb128 0x5
 1272 0148 99020000 		.4byte	.LASF50
 1273 014c 48       		.byte	0x48
 1274 014d 02       		.byte	0x2
 1275 014e C2       		.byte	0xc2
 1276 014f 4C020000 		.4byte	0x24c
 1277 0153 06       		.uleb128 0x6
 1278 0154 8C040000 		.4byte	.LASF29
 1279 0158 02       		.byte	0x2
 1280 0159 C3       		.byte	0xc3
 1281 015a 57020000 		.4byte	0x257
 1282 015e 00       		.byte	0
 1283 015f 06       		.uleb128 0x6
 1284 0160 FB030000 		.4byte	.LASF30
 1285 0164 02       		.byte	0x2
 1286 0165 C5       		.byte	0xc5
 1287 0166 57020000 		.4byte	0x257
 1288 016a 04       		.byte	0x4
 1289 016b 06       		.uleb128 0x6
 1290 016c 3B010000 		.4byte	.LASF31
 1291 0170 02       		.byte	0x2
 1292 0171 C7       		.byte	0xc7
 1293 0172 05010000 		.4byte	0x105
 1294 0176 08       		.byte	0x8
 1295 0177 06       		.uleb128 0x6
 1296 0178 54070000 		.4byte	.LASF32
 1297 017c 02       		.byte	0x2
 1298 017d C8       		.byte	0xc8
 1299 017e 87040000 		.4byte	0x487
 1300 0182 0C       		.byte	0xc
 1301 0183 06       		.uleb128 0x6
 1302 0184 D6010000 		.4byte	.LASF33
 1303 0188 02       		.byte	0x2
 1304 0189 CA       		.byte	0xca
 1305 018a 57020000 		.4byte	0x257
 1306 018e 10       		.byte	0x10
 1307 018f 06       		.uleb128 0x6
 1308 0190 9D030000 		.4byte	.LASF34
 1309 0194 02       		.byte	0x2
 1310 0195 CB       		.byte	0xcb
 1311 0196 57020000 		.4byte	0x257
ARM GAS  /var/folders/m4/4md61f0s1_g0rzfghffqnxvr0000gn/T//ccElzD9Y.s 			page 24


 1312 019a 14       		.byte	0x14
 1313 019b 06       		.uleb128 0x6
 1314 019c 07070000 		.4byte	.LASF35
 1315 01a0 02       		.byte	0x2
 1316 01a1 D2       		.byte	0xd2
 1317 01a2 D5060000 		.4byte	0x6d5
 1318 01a6 18       		.byte	0x18
 1319 01a7 06       		.uleb128 0x6
 1320 01a8 58040000 		.4byte	.LASF36
 1321 01ac 02       		.byte	0x2
 1322 01ad DD       		.byte	0xdd
 1323 01ae E4000000 		.4byte	0xe4
 1324 01b2 1C       		.byte	0x1c
 1325 01b3 06       		.uleb128 0x6
 1326 01b4 98040000 		.4byte	.LASF37
 1327 01b8 02       		.byte	0x2
 1328 01b9 E1       		.byte	0xe1
 1329 01ba D9000000 		.4byte	0xd9
 1330 01be 1D       		.byte	0x1d
 1331 01bf 06       		.uleb128 0x6
 1332 01c0 D5060000 		.4byte	.LASF38
 1333 01c4 02       		.byte	0x2
 1334 01c5 E6       		.byte	0xe6
 1335 01c6 EF000000 		.4byte	0xef
 1336 01ca 1E       		.byte	0x1e
 1337 01cb 06       		.uleb128 0x6
 1338 01cc 74040000 		.4byte	.LASF39
 1339 01d0 02       		.byte	0x2
 1340 01d1 EC       		.byte	0xec
 1341 01d2 FA000000 		.4byte	0xfa
 1342 01d6 1F       		.byte	0x1f
 1343 01d7 06       		.uleb128 0x6
 1344 01d8 61020000 		.4byte	.LASF40
 1345 01dc 02       		.byte	0x2
 1346 01dd F3       		.byte	0xf3
 1347 01de E7060000 		.4byte	0x6e7
 1348 01e2 20       		.byte	0x20
 1349 01e3 07       		.uleb128 0x7
 1350 01e4 705F7500 		.ascii	"p_u\000"
 1351 01e8 02       		.byte	0x2
 1352 01e9 3101     		.2byte	0x131
 1353 01eb 10060000 		.4byte	0x610
 1354 01ef 24       		.byte	0x24
 1355 01f0 08       		.uleb128 0x8
 1356 01f1 86070000 		.4byte	.LASF41
 1357 01f5 02       		.byte	0x2
 1358 01f6 3601     		.2byte	0x136
 1359 01f8 5D020000 		.4byte	0x25d
 1360 01fc 28       		.byte	0x28
 1361 01fd 08       		.uleb128 0x8
 1362 01fe 78020000 		.4byte	.LASF42
 1363 0202 02       		.byte	0x2
 1364 0203 3C01     		.2byte	0x13c
 1365 0205 81020000 		.4byte	0x281
 1366 0209 2C       		.byte	0x2c
 1367 020a 08       		.uleb128 0x8
 1368 020b 3F070000 		.4byte	.LASF43
ARM GAS  /var/folders/m4/4md61f0s1_g0rzfghffqnxvr0000gn/T//ccElzD9Y.s 			page 25


 1369 020f 02       		.byte	0x2
 1370 0210 4001     		.2byte	0x140
 1371 0212 10010000 		.4byte	0x110
 1372 0216 34       		.byte	0x34
 1373 0217 08       		.uleb128 0x8
 1374 0218 E1040000 		.4byte	.LASF44
 1375 021c 02       		.byte	0x2
 1376 021d 4601     		.2byte	0x146
 1377 021f 1B010000 		.4byte	0x11b
 1378 0223 38       		.byte	0x38
 1379 0224 08       		.uleb128 0x8
 1380 0225 60040000 		.4byte	.LASF45
 1381 0229 02       		.byte	0x2
 1382 022a 4D01     		.2byte	0x14d
 1383 022c CF060000 		.4byte	0x6cf
 1384 0230 3C       		.byte	0x3c
 1385 0231 08       		.uleb128 0x8
 1386 0232 57060000 		.4byte	.LASF46
 1387 0236 02       		.byte	0x2
 1388 0237 5101     		.2byte	0x151
 1389 0239 05010000 		.4byte	0x105
 1390 023d 40       		.byte	0x40
 1391 023e 08       		.uleb128 0x8
 1392 023f 66010000 		.4byte	.LASF47
 1393 0243 02       		.byte	0x2
 1394 0244 5801     		.2byte	0x158
 1395 0246 34030000 		.4byte	0x334
 1396 024a 44       		.byte	0x44
 1397 024b 00       		.byte	0
 1398 024c 03       		.uleb128 0x3
 1399 024d 69030000 		.4byte	.LASF48
 1400 0251 09       		.byte	0x9
 1401 0252 44       		.byte	0x44
 1402 0253 57020000 		.4byte	0x257
 1403 0257 09       		.uleb128 0x9
 1404 0258 04       		.byte	0x4
 1405 0259 3C010000 		.4byte	0x13c
 1406 025d 03       		.uleb128 0x3
 1407 025e 3C030000 		.4byte	.LASF49
 1408 0262 09       		.byte	0x9
 1409 0263 49       		.byte	0x49
 1410 0264 68020000 		.4byte	0x268
 1411 0268 05       		.uleb128 0x5
 1412 0269 10050000 		.4byte	.LASF51
 1413 026d 04       		.byte	0x4
 1414 026e 02       		.byte	0x2
 1415 026f B0       		.byte	0xb0
 1416 0270 81020000 		.4byte	0x281
 1417 0274 06       		.uleb128 0x6
 1418 0275 8C040000 		.4byte	.LASF29
 1419 0279 02       		.byte	0x2
 1420 027a B1       		.byte	0xb1
 1421 027b 57020000 		.4byte	0x257
 1422 027f 00       		.byte	0
 1423 0280 00       		.byte	0
 1424 0281 03       		.uleb128 0x3
 1425 0282 B3040000 		.4byte	.LASF52
ARM GAS  /var/folders/m4/4md61f0s1_g0rzfghffqnxvr0000gn/T//ccElzD9Y.s 			page 26


 1426 0286 09       		.byte	0x9
 1427 0287 50       		.byte	0x50
 1428 0288 8C020000 		.4byte	0x28c
 1429 028c 05       		.uleb128 0x5
 1430 028d 2A010000 		.4byte	.LASF53
 1431 0291 08       		.byte	0x8
 1432 0292 02       		.byte	0x2
 1433 0293 B7       		.byte	0xb7
 1434 0294 B1020000 		.4byte	0x2b1
 1435 0298 06       		.uleb128 0x6
 1436 0299 8C040000 		.4byte	.LASF29
 1437 029d 02       		.byte	0x2
 1438 029e B8       		.byte	0xb8
 1439 029f 57020000 		.4byte	0x257
 1440 02a3 00       		.byte	0
 1441 02a4 06       		.uleb128 0x6
 1442 02a5 FB030000 		.4byte	.LASF30
 1443 02a9 02       		.byte	0x2
 1444 02aa B9       		.byte	0xb9
 1445 02ab 57020000 		.4byte	0x257
 1446 02af 04       		.byte	0x4
 1447 02b0 00       		.byte	0
 1448 02b1 03       		.uleb128 0x3
 1449 02b2 0F000000 		.4byte	.LASF54
 1450 02b6 09       		.byte	0x9
 1451 02b7 57       		.byte	0x57
 1452 02b8 BC020000 		.4byte	0x2bc
 1453 02bc 0A       		.uleb128 0xa
 1454 02bd FC020000 		.4byte	.LASF55
 1455 02c1 1C       		.byte	0x1c
 1456 02c2 02       		.byte	0x2
 1457 02c3 9001     		.2byte	0x190
 1458 02c5 18030000 		.4byte	0x318
 1459 02c9 08       		.uleb128 0x8
 1460 02ca 08050000 		.4byte	.LASF56
 1461 02ce 02       		.byte	0x2
 1462 02cf 9101     		.2byte	0x191
 1463 02d1 81020000 		.4byte	0x281
 1464 02d5 00       		.byte	0
 1465 02d6 08       		.uleb128 0x8
 1466 02d7 7E040000 		.4byte	.LASF57
 1467 02db 02       		.byte	0x2
 1468 02dc 9201     		.2byte	0x192
 1469 02de 05010000 		.4byte	0x105
 1470 02e2 08       		.byte	0x8
 1471 02e3 08       		.uleb128 0x8
 1472 02e4 A5030000 		.4byte	.LASF58
 1473 02e8 02       		.byte	0x2
 1474 02e9 9401     		.2byte	0x194
 1475 02eb 87040000 		.4byte	0x487
 1476 02ef 0C       		.byte	0xc
 1477 02f0 08       		.uleb128 0x8
 1478 02f1 F9010000 		.4byte	.LASF59
 1479 02f5 02       		.byte	0x2
 1480 02f6 9701     		.2byte	0x197
 1481 02f8 57020000 		.4byte	0x257
 1482 02fc 10       		.byte	0x10
ARM GAS  /var/folders/m4/4md61f0s1_g0rzfghffqnxvr0000gn/T//ccElzD9Y.s 			page 27


 1483 02fd 08       		.uleb128 0x8
 1484 02fe C6030000 		.4byte	.LASF60
 1485 0302 02       		.byte	0x2
 1486 0303 9801     		.2byte	0x198
 1487 0305 57020000 		.4byte	0x257
 1488 0309 14       		.byte	0x14
 1489 030a 08       		.uleb128 0x8
 1490 030b BC030000 		.4byte	.LASF61
 1491 030f 02       		.byte	0x2
 1492 0310 9B01     		.2byte	0x19b
 1493 0312 57020000 		.4byte	0x257
 1494 0316 18       		.byte	0x18
 1495 0317 00       		.byte	0
 1496 0318 03       		.uleb128 0x3
 1497 0319 62060000 		.4byte	.LASF62
 1498 031d 09       		.byte	0x9
 1499 031e 5C       		.byte	0x5c
 1500 031f 23030000 		.4byte	0x323
 1501 0323 09       		.uleb128 0x9
 1502 0324 04       		.byte	0x4
 1503 0325 29030000 		.4byte	0x329
 1504 0329 0B       		.uleb128 0xb
 1505 032a 34030000 		.4byte	0x334
 1506 032e 0C       		.uleb128 0xc
 1507 032f 34030000 		.4byte	0x334
 1508 0333 00       		.byte	0
 1509 0334 0D       		.uleb128 0xd
 1510 0335 04       		.byte	0x4
 1511 0336 03       		.uleb128 0x3
 1512 0337 EB030000 		.4byte	.LASF63
 1513 033b 09       		.byte	0x9
 1514 033c 61       		.byte	0x61
 1515 033d 41030000 		.4byte	0x341
 1516 0341 0A       		.uleb128 0xa
 1517 0342 C3040000 		.4byte	.LASF64
 1518 0346 14       		.byte	0x14
 1519 0347 02       		.byte	0x2
 1520 0348 6B01     		.2byte	0x16b
 1521 034a 90030000 		.4byte	0x390
 1522 034e 08       		.uleb128 0x8
 1523 034f 59020000 		.4byte	.LASF65
 1524 0353 02       		.byte	0x2
 1525 0354 6C01     		.2byte	0x16c
 1526 0356 EC060000 		.4byte	0x6ec
 1527 035a 00       		.byte	0
 1528 035b 08       		.uleb128 0x8
 1529 035c 0A020000 		.4byte	.LASF66
 1530 0360 02       		.byte	0x2
 1531 0361 6D01     		.2byte	0x16d
 1532 0363 EC060000 		.4byte	0x6ec
 1533 0367 04       		.byte	0x4
 1534 0368 08       		.uleb128 0x8
 1535 0369 6F020000 		.4byte	.LASF67
 1536 036d 02       		.byte	0x2
 1537 036e 6E01     		.2byte	0x16e
 1538 0370 31010000 		.4byte	0x131
 1539 0374 08       		.byte	0x8
ARM GAS  /var/folders/m4/4md61f0s1_g0rzfghffqnxvr0000gn/T//ccElzD9Y.s 			page 28


 1540 0375 08       		.uleb128 0x8
 1541 0376 5A070000 		.4byte	.LASF68
 1542 037a 02       		.byte	0x2
 1543 037b 6F01     		.2byte	0x16f
 1544 037d 18030000 		.4byte	0x318
 1545 0381 0C       		.byte	0xc
 1546 0382 08       		.uleb128 0x8
 1547 0383 B0060000 		.4byte	.LASF69
 1548 0387 02       		.byte	0x2
 1549 0388 7101     		.2byte	0x171
 1550 038a 34030000 		.4byte	0x334
 1551 038e 10       		.byte	0x10
 1552 038f 00       		.byte	0
 1553 0390 03       		.uleb128 0x3
 1554 0391 D8000000 		.4byte	.LASF70
 1555 0395 09       		.byte	0x9
 1556 0396 66       		.byte	0x66
 1557 0397 9B030000 		.4byte	0x39b
 1558 039b 0A       		.uleb128 0xa
 1559 039c 7C030000 		.4byte	.LASF71
 1560 03a0 10       		.byte	0x10
 1561 03a1 02       		.byte	0x2
 1562 03a2 7B01     		.2byte	0x17b
 1563 03a4 DD030000 		.4byte	0x3dd
 1564 03a8 08       		.uleb128 0x8
 1565 03a9 59020000 		.4byte	.LASF65
 1566 03ad 02       		.byte	0x2
 1567 03ae 7C01     		.2byte	0x17c
 1568 03b0 EC060000 		.4byte	0x6ec
 1569 03b4 00       		.byte	0
 1570 03b5 08       		.uleb128 0x8
 1571 03b6 0A020000 		.4byte	.LASF66
 1572 03ba 02       		.byte	0x2
 1573 03bb 7E01     		.2byte	0x17e
 1574 03bd EC060000 		.4byte	0x6ec
 1575 03c1 04       		.byte	0x4
 1576 03c2 08       		.uleb128 0x8
 1577 03c3 6F020000 		.4byte	.LASF67
 1578 03c7 02       		.byte	0x2
 1579 03c8 8001     		.2byte	0x180
 1580 03ca 31010000 		.4byte	0x131
 1581 03ce 08       		.byte	0x8
 1582 03cf 08       		.uleb128 0x8
 1583 03d0 20070000 		.4byte	.LASF72
 1584 03d4 02       		.byte	0x2
 1585 03d5 8201     		.2byte	0x182
 1586 03d7 E7060000 		.4byte	0x6e7
 1587 03db 0C       		.byte	0xc
 1588 03dc 00       		.byte	0
 1589 03dd 03       		.uleb128 0x3
 1590 03de 5F000000 		.4byte	.LASF73
 1591 03e2 09       		.byte	0x9
 1592 03e3 6B       		.byte	0x6b
 1593 03e4 E8030000 		.4byte	0x3e8
 1594 03e8 0A       		.uleb128 0xa
 1595 03e9 1E040000 		.4byte	.LASF74
 1596 03ed 04       		.byte	0x4
ARM GAS  /var/folders/m4/4md61f0s1_g0rzfghffqnxvr0000gn/T//ccElzD9Y.s 			page 29


 1597 03ee 02       		.byte	0x2
 1598 03ef A201     		.2byte	0x1a2
 1599 03f1 03040000 		.4byte	0x403
 1600 03f5 08       		.uleb128 0x8
 1601 03f6 84060000 		.4byte	.LASF75
 1602 03fa 02       		.byte	0x2
 1603 03fb AA01     		.2byte	0x1aa
 1604 03fd F2060000 		.4byte	0x6f2
 1605 0401 00       		.byte	0
 1606 0402 00       		.byte	0
 1607 0403 03       		.uleb128 0x3
 1608 0404 DE020000 		.4byte	.LASF76
 1609 0408 09       		.byte	0x9
 1610 0409 70       		.byte	0x70
 1611 040a 0E040000 		.4byte	0x40e
 1612 040e 0E       		.uleb128 0xe
 1613 040f A8010000 		.4byte	.LASF77
 1614 0413 5802     		.2byte	0x258
 1615 0415 02       		.byte	0x2
 1616 0416 C201     		.2byte	0x1c2
 1617 0418 6A040000 		.4byte	0x46a
 1618 041c 08       		.uleb128 0x8
 1619 041d F2060000 		.4byte	.LASF78
 1620 0421 02       		.byte	0x2
 1621 0422 C601     		.2byte	0x1c6
 1622 0424 B1020000 		.4byte	0x2b1
 1623 0428 00       		.byte	0
 1624 0429 08       		.uleb128 0x8
 1625 042a 76010000 		.4byte	.LASF79
 1626 042e 02       		.byte	0x2
 1627 042f CA01     		.2byte	0x1ca
 1628 0431 90030000 		.4byte	0x390
 1629 0435 1C       		.byte	0x1c
 1630 0436 07       		.uleb128 0x7
 1631 0437 64626700 		.ascii	"dbg\000"
 1632 043b 02       		.byte	0x2
 1633 043c CE01     		.2byte	0x1ce
 1634 043e DD030000 		.4byte	0x3dd
 1635 0442 2C       		.byte	0x2c
 1636 0443 08       		.uleb128 0x8
 1637 0444 CD000000 		.4byte	.LASF80
 1638 0448 02       		.byte	0x2
 1639 0449 D201     		.2byte	0x1d2
 1640 044b 3C010000 		.4byte	0x13c
 1641 044f 30       		.byte	0x30
 1642 0450 07       		.uleb128 0x7
 1643 0451 746D00   		.ascii	"tm\000"
 1644 0454 02       		.byte	0x2
 1645 0455 D701     		.2byte	0x1d7
 1646 0457 05060000 		.4byte	0x605
 1647 045b 78       		.byte	0x78
 1648 045c 08       		.uleb128 0x8
 1649 045d 37020000 		.4byte	.LASF81
 1650 0461 02       		.byte	0x2
 1651 0462 E301     		.2byte	0x1e3
 1652 0464 F7060000 		.4byte	0x6f7
 1653 0468 80       		.byte	0x80
ARM GAS  /var/folders/m4/4md61f0s1_g0rzfghffqnxvr0000gn/T//ccElzD9Y.s 			page 30


 1654 0469 00       		.byte	0
 1655 046a 04       		.uleb128 0x4
 1656 046b 04       		.byte	0x4
 1657 046c 07       		.byte	0x7
 1658 046d 60030000 		.4byte	.LASF82
 1659 0471 03       		.uleb128 0x3
 1660 0472 01020000 		.4byte	.LASF83
 1661 0476 0A       		.byte	0xa
 1662 0477 65       		.byte	0x65
 1663 0478 34030000 		.4byte	0x334
 1664 047c 03       		.uleb128 0x3
 1665 047d 20030000 		.4byte	.LASF84
 1666 0481 0A       		.byte	0xa
 1667 0482 6D       		.byte	0x6d
 1668 0483 C3000000 		.4byte	0xc3
 1669 0487 05       		.uleb128 0x5
 1670 0488 A0060000 		.4byte	.LASF85
 1671 048c 04       		.byte	0x4
 1672 048d 0A       		.byte	0xa
 1673 048e 89       		.byte	0x89
 1674 048f A0040000 		.4byte	0x4a0
 1675 0493 0F       		.uleb128 0xf
 1676 0494 72313300 		.ascii	"r13\000"
 1677 0498 0A       		.byte	0xa
 1678 0499 8A       		.byte	0x8a
 1679 049a EA050000 		.4byte	0x5ea
 1680 049e 00       		.byte	0
 1681 049f 00       		.byte	0
 1682 04a0 05       		.uleb128 0x5
 1683 04a1 53000000 		.4byte	.LASF86
 1684 04a5 64       		.byte	0x64
 1685 04a6 0B       		.byte	0xb
 1686 04a7 FD       		.byte	0xfd
 1687 04a8 EA050000 		.4byte	0x5ea
 1688 04ac 0F       		.uleb128 0xf
 1689 04ad 73313600 		.ascii	"s16\000"
 1690 04b1 0B       		.byte	0xb
 1691 04b2 FF       		.byte	0xff
 1692 04b3 71040000 		.4byte	0x471
 1693 04b7 00       		.byte	0
 1694 04b8 07       		.uleb128 0x7
 1695 04b9 73313700 		.ascii	"s17\000"
 1696 04bd 0B       		.byte	0xb
 1697 04be 0001     		.2byte	0x100
 1698 04c0 71040000 		.4byte	0x471
 1699 04c4 04       		.byte	0x4
 1700 04c5 07       		.uleb128 0x7
 1701 04c6 73313800 		.ascii	"s18\000"
 1702 04ca 0B       		.byte	0xb
 1703 04cb 0101     		.2byte	0x101
 1704 04cd 71040000 		.4byte	0x471
 1705 04d1 08       		.byte	0x8
 1706 04d2 07       		.uleb128 0x7
 1707 04d3 73313900 		.ascii	"s19\000"
 1708 04d7 0B       		.byte	0xb
 1709 04d8 0201     		.2byte	0x102
 1710 04da 71040000 		.4byte	0x471
ARM GAS  /var/folders/m4/4md61f0s1_g0rzfghffqnxvr0000gn/T//ccElzD9Y.s 			page 31


 1711 04de 0C       		.byte	0xc
 1712 04df 07       		.uleb128 0x7
 1713 04e0 73323000 		.ascii	"s20\000"
 1714 04e4 0B       		.byte	0xb
 1715 04e5 0301     		.2byte	0x103
 1716 04e7 71040000 		.4byte	0x471
 1717 04eb 10       		.byte	0x10
 1718 04ec 07       		.uleb128 0x7
 1719 04ed 73323100 		.ascii	"s21\000"
 1720 04f1 0B       		.byte	0xb
 1721 04f2 0401     		.2byte	0x104
 1722 04f4 71040000 		.4byte	0x471
 1723 04f8 14       		.byte	0x14
 1724 04f9 07       		.uleb128 0x7
 1725 04fa 73323200 		.ascii	"s22\000"
 1726 04fe 0B       		.byte	0xb
 1727 04ff 0501     		.2byte	0x105
 1728 0501 71040000 		.4byte	0x471
 1729 0505 18       		.byte	0x18
 1730 0506 07       		.uleb128 0x7
 1731 0507 73323300 		.ascii	"s23\000"
 1732 050b 0B       		.byte	0xb
 1733 050c 0601     		.2byte	0x106
 1734 050e 71040000 		.4byte	0x471
 1735 0512 1C       		.byte	0x1c
 1736 0513 07       		.uleb128 0x7
 1737 0514 73323400 		.ascii	"s24\000"
 1738 0518 0B       		.byte	0xb
 1739 0519 0701     		.2byte	0x107
 1740 051b 71040000 		.4byte	0x471
 1741 051f 20       		.byte	0x20
 1742 0520 07       		.uleb128 0x7
 1743 0521 73323500 		.ascii	"s25\000"
 1744 0525 0B       		.byte	0xb
 1745 0526 0801     		.2byte	0x108
 1746 0528 71040000 		.4byte	0x471
 1747 052c 24       		.byte	0x24
 1748 052d 07       		.uleb128 0x7
 1749 052e 73323600 		.ascii	"s26\000"
 1750 0532 0B       		.byte	0xb
 1751 0533 0901     		.2byte	0x109
 1752 0535 71040000 		.4byte	0x471
 1753 0539 28       		.byte	0x28
 1754 053a 07       		.uleb128 0x7
 1755 053b 73323700 		.ascii	"s27\000"
 1756 053f 0B       		.byte	0xb
 1757 0540 0A01     		.2byte	0x10a
 1758 0542 71040000 		.4byte	0x471
 1759 0546 2C       		.byte	0x2c
 1760 0547 07       		.uleb128 0x7
 1761 0548 73323800 		.ascii	"s28\000"
 1762 054c 0B       		.byte	0xb
 1763 054d 0B01     		.2byte	0x10b
 1764 054f 71040000 		.4byte	0x471
 1765 0553 30       		.byte	0x30
 1766 0554 07       		.uleb128 0x7
 1767 0555 73323900 		.ascii	"s29\000"
ARM GAS  /var/folders/m4/4md61f0s1_g0rzfghffqnxvr0000gn/T//ccElzD9Y.s 			page 32


 1768 0559 0B       		.byte	0xb
 1769 055a 0C01     		.2byte	0x10c
 1770 055c 71040000 		.4byte	0x471
 1771 0560 34       		.byte	0x34
 1772 0561 07       		.uleb128 0x7
 1773 0562 73333000 		.ascii	"s30\000"
 1774 0566 0B       		.byte	0xb
 1775 0567 0D01     		.2byte	0x10d
 1776 0569 71040000 		.4byte	0x471
 1777 056d 38       		.byte	0x38
 1778 056e 07       		.uleb128 0x7
 1779 056f 73333100 		.ascii	"s31\000"
 1780 0573 0B       		.byte	0xb
 1781 0574 0E01     		.2byte	0x10e
 1782 0576 71040000 		.4byte	0x471
 1783 057a 3C       		.byte	0x3c
 1784 057b 07       		.uleb128 0x7
 1785 057c 723400   		.ascii	"r4\000"
 1786 057f 0B       		.byte	0xb
 1787 0580 1001     		.2byte	0x110
 1788 0582 71040000 		.4byte	0x471
 1789 0586 40       		.byte	0x40
 1790 0587 07       		.uleb128 0x7
 1791 0588 723500   		.ascii	"r5\000"
 1792 058b 0B       		.byte	0xb
 1793 058c 1101     		.2byte	0x111
 1794 058e 71040000 		.4byte	0x471
 1795 0592 44       		.byte	0x44
 1796 0593 07       		.uleb128 0x7
 1797 0594 723600   		.ascii	"r6\000"
 1798 0597 0B       		.byte	0xb
 1799 0598 1201     		.2byte	0x112
 1800 059a 71040000 		.4byte	0x471
 1801 059e 48       		.byte	0x48
 1802 059f 07       		.uleb128 0x7
 1803 05a0 723700   		.ascii	"r7\000"
 1804 05a3 0B       		.byte	0xb
 1805 05a4 1301     		.2byte	0x113
 1806 05a6 71040000 		.4byte	0x471
 1807 05aa 4C       		.byte	0x4c
 1808 05ab 07       		.uleb128 0x7
 1809 05ac 723800   		.ascii	"r8\000"
 1810 05af 0B       		.byte	0xb
 1811 05b0 1401     		.2byte	0x114
 1812 05b2 71040000 		.4byte	0x471
 1813 05b6 50       		.byte	0x50
 1814 05b7 07       		.uleb128 0x7
 1815 05b8 723900   		.ascii	"r9\000"
 1816 05bb 0B       		.byte	0xb
 1817 05bc 1501     		.2byte	0x115
 1818 05be 71040000 		.4byte	0x471
 1819 05c2 54       		.byte	0x54
 1820 05c3 07       		.uleb128 0x7
 1821 05c4 72313000 		.ascii	"r10\000"
 1822 05c8 0B       		.byte	0xb
 1823 05c9 1601     		.2byte	0x116
 1824 05cb 71040000 		.4byte	0x471
ARM GAS  /var/folders/m4/4md61f0s1_g0rzfghffqnxvr0000gn/T//ccElzD9Y.s 			page 33


 1825 05cf 58       		.byte	0x58
 1826 05d0 07       		.uleb128 0x7
 1827 05d1 72313100 		.ascii	"r11\000"
 1828 05d5 0B       		.byte	0xb
 1829 05d6 1701     		.2byte	0x117
 1830 05d8 71040000 		.4byte	0x471
 1831 05dc 5C       		.byte	0x5c
 1832 05dd 07       		.uleb128 0x7
 1833 05de 6C7200   		.ascii	"lr\000"
 1834 05e1 0B       		.byte	0xb
 1835 05e2 1801     		.2byte	0x118
 1836 05e4 71040000 		.4byte	0x471
 1837 05e8 60       		.byte	0x60
 1838 05e9 00       		.byte	0
 1839 05ea 09       		.uleb128 0x9
 1840 05eb 04       		.byte	0x4
 1841 05ec A0040000 		.4byte	0x4a0
 1842 05f0 10       		.uleb128 0x10
 1843 05f1 04       		.byte	0x4
 1844 05f2 0C       		.byte	0xc
 1845 05f3 38       		.byte	0x38
 1846 05f4 05060000 		.4byte	0x605
 1847 05f8 06       		.uleb128 0x6
 1848 05f9 8E060000 		.4byte	.LASF87
 1849 05fd 0C       		.byte	0xc
 1850 05fe 3C       		.byte	0x3c
 1851 05ff CE000000 		.4byte	0xce
 1852 0603 00       		.byte	0
 1853 0604 00       		.byte	0
 1854 0605 03       		.uleb128 0x3
 1855 0606 AB030000 		.4byte	.LASF88
 1856 060a 0C       		.byte	0xc
 1857 060b 3D       		.byte	0x3d
 1858 060c F0050000 		.4byte	0x5f0
 1859 0610 11       		.uleb128 0x11
 1860 0611 04       		.byte	0x4
 1861 0612 02       		.byte	0x2
 1862 0613 FA       		.byte	0xfa
 1863 0614 6D060000 		.4byte	0x66d
 1864 0618 12       		.uleb128 0x12
 1865 0619 28000000 		.4byte	.LASF89
 1866 061d 02       		.byte	0x2
 1867 061e 0101     		.2byte	0x101
 1868 0620 10010000 		.4byte	0x110
 1869 0624 12       		.uleb128 0x12
 1870 0625 C4000000 		.4byte	.LASF90
 1871 0629 02       		.byte	0x2
 1872 062a 0801     		.2byte	0x108
 1873 062c 10010000 		.4byte	0x110
 1874 0630 12       		.uleb128 0x12
 1875 0631 00070000 		.4byte	.LASF91
 1876 0635 02       		.byte	0x2
 1877 0636 0F01     		.2byte	0x10f
 1878 0638 34030000 		.4byte	0x334
 1879 063c 12       		.uleb128 0x12
 1880 063d A2010000 		.4byte	.LASF92
 1881 0641 02       		.byte	0x2
ARM GAS  /var/folders/m4/4md61f0s1_g0rzfghffqnxvr0000gn/T//ccElzD9Y.s 			page 34


 1882 0642 1601     		.2byte	0x116
 1883 0644 6D060000 		.4byte	0x66d
 1884 0648 12       		.uleb128 0x12
 1885 0649 68020000 		.4byte	.LASF93
 1886 064d 02       		.byte	0x2
 1887 064e 1E01     		.2byte	0x11e
 1888 0650 98060000 		.4byte	0x698
 1889 0654 12       		.uleb128 0x12
 1890 0655 01050000 		.4byte	.LASF94
 1891 0659 02       		.byte	0x2
 1892 065a 2701     		.2byte	0x127
 1893 065c CF060000 		.4byte	0x6cf
 1894 0660 12       		.uleb128 0x12
 1895 0661 85040000 		.4byte	.LASF95
 1896 0665 02       		.byte	0x2
 1897 0666 2F01     		.2byte	0x12f
 1898 0668 1B010000 		.4byte	0x11b
 1899 066c 00       		.byte	0
 1900 066d 09       		.uleb128 0x9
 1901 066e 04       		.byte	0x4
 1902 066f 4C020000 		.4byte	0x24c
 1903 0673 05       		.uleb128 0x5
 1904 0674 D4040000 		.4byte	.LASF96
 1905 0678 0C       		.byte	0xc
 1906 0679 0D       		.byte	0xd
 1907 067a 34       		.byte	0x34
 1908 067b 98060000 		.4byte	0x698
 1909 067f 06       		.uleb128 0x6
 1910 0680 DE010000 		.4byte	.LASF97
 1911 0684 0D       		.byte	0xd
 1912 0685 35       		.byte	0x35
 1913 0686 81020000 		.4byte	0x281
 1914 068a 00       		.byte	0
 1915 068b 06       		.uleb128 0x6
 1916 068c 8B020000 		.4byte	.LASF98
 1917 0690 0D       		.byte	0xd
 1918 0691 37       		.byte	0x37
 1919 0692 26010000 		.4byte	0x126
 1920 0696 08       		.byte	0x8
 1921 0697 00       		.byte	0
 1922 0698 09       		.uleb128 0x9
 1923 0699 04       		.byte	0x4
 1924 069a 73060000 		.4byte	0x673
 1925 069e 05       		.uleb128 0x5
 1926 069f CC060000 		.4byte	.LASF99
 1927 06a3 10       		.byte	0x10
 1928 06a4 0E       		.byte	0xe
 1929 06a5 39       		.byte	0x39
 1930 06a6 CF060000 		.4byte	0x6cf
 1931 06aa 06       		.uleb128 0x6
 1932 06ab 6E010000 		.4byte	.LASF100
 1933 06af 0E       		.byte	0xe
 1934 06b0 3A       		.byte	0x3a
 1935 06b1 81020000 		.4byte	0x281
 1936 06b5 00       		.byte	0
 1937 06b6 06       		.uleb128 0x6
 1938 06b7 4C070000 		.4byte	.LASF101
ARM GAS  /var/folders/m4/4md61f0s1_g0rzfghffqnxvr0000gn/T//ccElzD9Y.s 			page 35


 1939 06bb 0E       		.byte	0xe
 1940 06bc 3C       		.byte	0x3c
 1941 06bd 57020000 		.4byte	0x257
 1942 06c1 08       		.byte	0x8
 1943 06c2 06       		.uleb128 0x6
 1944 06c3 46060000 		.4byte	.LASF102
 1945 06c7 0E       		.byte	0xe
 1946 06c8 3E       		.byte	0x3e
 1947 06c9 12070000 		.4byte	0x712
 1948 06cd 0C       		.byte	0xc
 1949 06ce 00       		.byte	0
 1950 06cf 09       		.uleb128 0x9
 1951 06d0 04       		.byte	0x4
 1952 06d1 9E060000 		.4byte	0x69e
 1953 06d5 09       		.uleb128 0x9
 1954 06d6 04       		.byte	0x4
 1955 06d7 E2060000 		.4byte	0x6e2
 1956 06db 04       		.uleb128 0x4
 1957 06dc 01       		.byte	0x1
 1958 06dd 08       		.byte	0x8
 1959 06de 32050000 		.4byte	.LASF103
 1960 06e2 13       		.uleb128 0x13
 1961 06e3 DB060000 		.4byte	0x6db
 1962 06e7 14       		.uleb128 0x14
 1963 06e8 31010000 		.4byte	0x131
 1964 06ec 09       		.uleb128 0x9
 1965 06ed 04       		.byte	0x4
 1966 06ee 36030000 		.4byte	0x336
 1967 06f2 14       		.uleb128 0x14
 1968 06f3 D5060000 		.4byte	0x6d5
 1969 06f7 15       		.uleb128 0x15
 1970 06f8 7C040000 		.4byte	0x47c
 1971 06fc 07070000 		.4byte	0x707
 1972 0700 16       		.uleb128 0x16
 1973 0701 6A040000 		.4byte	0x46a
 1974 0705 3A       		.byte	0x3a
 1975 0706 00       		.byte	0
 1976 0707 03       		.uleb128 0x3
 1977 0708 20020000 		.4byte	.LASF104
 1978 070c 0E       		.byte	0xe
 1979 070d 34       		.byte	0x34
 1980 070e 9E060000 		.4byte	0x69e
 1981 0712 09       		.uleb128 0x9
 1982 0713 04       		.byte	0x4
 1983 0714 07070000 		.4byte	0x707
 1984 0718 03       		.uleb128 0x3
 1985 0719 FB000000 		.4byte	.LASF105
 1986 071d 03       		.byte	0x3
 1987 071e 3F       		.byte	0x3f
 1988 071f 23070000 		.4byte	0x723
 1989 0723 05       		.uleb128 0x5
 1990 0724 2E020000 		.4byte	.LASF106
 1991 0728 24       		.byte	0x24
 1992 0729 03       		.byte	0x3
 1993 072a 4D       		.byte	0x4d
 1994 072b 90070000 		.4byte	0x790
 1995 072f 06       		.uleb128 0x6
ARM GAS  /var/folders/m4/4md61f0s1_g0rzfghffqnxvr0000gn/T//ccElzD9Y.s 			page 36


 1996 0730 42010000 		.4byte	.LASF107
 1997 0734 03       		.byte	0x3
 1998 0735 4E       		.byte	0x4e
 1999 0736 81020000 		.4byte	0x281
 2000 073a 00       		.byte	0
 2001 073b 06       		.uleb128 0x6
 2002 073c 93030000 		.4byte	.LASF108
 2003 0740 03       		.byte	0x3
 2004 0741 4F       		.byte	0x4f
 2005 0742 B2070000 		.4byte	0x7b2
 2006 0746 08       		.byte	0x8
 2007 0747 06       		.uleb128 0x6
 2008 0748 CD010000 		.4byte	.LASF109
 2009 074c 03       		.byte	0x3
 2010 074d 50       		.byte	0x50
 2011 074e B7070000 		.4byte	0x7b7
 2012 0752 0C       		.byte	0xc
 2013 0753 06       		.uleb128 0x6
 2014 0754 C6060000 		.4byte	.LASF110
 2015 0758 03       		.byte	0x3
 2016 0759 51       		.byte	0x51
 2017 075a B7070000 		.4byte	0x7b7
 2018 075e 10       		.byte	0x10
 2019 075f 06       		.uleb128 0x6
 2020 0760 91020000 		.4byte	.LASF111
 2021 0764 03       		.byte	0x3
 2022 0765 53       		.byte	0x53
 2023 0766 B7070000 		.4byte	0x7b7
 2024 076a 14       		.byte	0x14
 2025 076b 06       		.uleb128 0x6
 2026 076c 16040000 		.4byte	.LASF112
 2027 0770 03       		.byte	0x3
 2028 0771 54       		.byte	0x54
 2029 0772 B7070000 		.4byte	0x7b7
 2030 0776 18       		.byte	0x18
 2031 0777 06       		.uleb128 0x6
 2032 0778 E9060000 		.4byte	.LASF113
 2033 077c 03       		.byte	0x3
 2034 077d 55       		.byte	0x55
 2035 077e 90070000 		.4byte	0x790
 2036 0782 1C       		.byte	0x1c
 2037 0783 06       		.uleb128 0x6
 2038 0784 45070000 		.4byte	.LASF114
 2039 0788 03       		.byte	0x3
 2040 0789 56       		.byte	0x56
 2041 078a 34030000 		.4byte	0x334
 2042 078e 20       		.byte	0x20
 2043 078f 00       		.byte	0
 2044 0790 03       		.uleb128 0x3
 2045 0791 E1030000 		.4byte	.LASF115
 2046 0795 03       		.byte	0x3
 2047 0796 42       		.byte	0x42
 2048 0797 9B070000 		.4byte	0x79b
 2049 079b 09       		.uleb128 0x9
 2050 079c 04       		.byte	0x4
 2051 079d A1070000 		.4byte	0x7a1
 2052 07a1 0B       		.uleb128 0xb
ARM GAS  /var/folders/m4/4md61f0s1_g0rzfghffqnxvr0000gn/T//ccElzD9Y.s 			page 37


 2053 07a2 AC070000 		.4byte	0x7ac
 2054 07a6 0C       		.uleb128 0xc
 2055 07a7 AC070000 		.4byte	0x7ac
 2056 07ab 00       		.byte	0
 2057 07ac 09       		.uleb128 0x9
 2058 07ad 04       		.byte	0x4
 2059 07ae 18070000 		.4byte	0x718
 2060 07b2 14       		.uleb128 0x14
 2061 07b3 2C000000 		.4byte	0x2c
 2062 07b7 09       		.uleb128 0x9
 2063 07b8 04       		.byte	0x4
 2064 07b9 A2000000 		.4byte	0xa2
 2065 07bd 03       		.uleb128 0x3
 2066 07be 4A040000 		.4byte	.LASF116
 2067 07c2 03       		.byte	0x3
 2068 07c3 64       		.byte	0x64
 2069 07c4 18070000 		.4byte	0x718
 2070 07c8 03       		.uleb128 0x3
 2071 07c9 93010000 		.4byte	.LASF117
 2072 07cd 03       		.byte	0x3
 2073 07ce 71       		.byte	0x71
 2074 07cf 18070000 		.4byte	0x718
 2075 07d3 09       		.uleb128 0x9
 2076 07d4 04       		.byte	0x4
 2077 07d5 D9070000 		.4byte	0x7d9
 2078 07d9 13       		.uleb128 0x13
 2079 07da A2000000 		.4byte	0xa2
 2080 07de 17       		.uleb128 0x17
 2081 07df 76060000 		.4byte	.LASF120
 2082 07e3 04       		.byte	0x4
 2083 07e4 2202     		.2byte	0x222
 2084 07e6 03       		.byte	0x3
 2085 07e7 F8070000 		.4byte	0x7f8
 2086 07eb 18       		.uleb128 0x18
 2087 07ec 28020000 		.4byte	.LASF122
 2088 07f0 04       		.byte	0x4
 2089 07f1 2202     		.2byte	0x222
 2090 07f3 B8000000 		.4byte	0xb8
 2091 07f7 00       		.byte	0
 2092 07f8 19       		.uleb128 0x19
 2093 07f9 89000000 		.4byte	.LASF118
 2094 07fd 0B       		.byte	0xb
 2095 07fe C801     		.2byte	0x1c8
 2096 0800 03       		.byte	0x3
 2097 0801 19       		.uleb128 0x19
 2098 0802 7D010000 		.4byte	.LASF119
 2099 0806 0B       		.byte	0xb
 2100 0807 E001     		.2byte	0x1e0
 2101 0809 03       		.byte	0x3
 2102 080a 17       		.uleb128 0x17
 2103 080b 7E000000 		.4byte	.LASF121
 2104 080f 02       		.byte	0x2
 2105 0810 5A02     		.2byte	0x25a
 2106 0812 03       		.byte	0x3
 2107 0813 24080000 		.4byte	0x824
 2108 0817 1A       		.uleb128 0x1a
 2109 0818 74717000 		.ascii	"tqp\000"
ARM GAS  /var/folders/m4/4md61f0s1_g0rzfghffqnxvr0000gn/T//ccElzD9Y.s 			page 38


 2110 081c 02       		.byte	0x2
 2111 081d 5A02     		.2byte	0x25a
 2112 081f 24080000 		.4byte	0x824
 2113 0823 00       		.byte	0
 2114 0824 09       		.uleb128 0x9
 2115 0825 04       		.byte	0x4
 2116 0826 81020000 		.4byte	0x281
 2117 082a 17       		.uleb128 0x17
 2118 082b 4B030000 		.4byte	.LASF123
 2119 082f 0F       		.byte	0xf
 2120 0830 1601     		.2byte	0x116
 2121 0832 03       		.byte	0x3
 2122 0833 44080000 		.4byte	0x844
 2123 0837 1A       		.uleb128 0x1a
 2124 0838 74717000 		.ascii	"tqp\000"
 2125 083c 0F       		.byte	0xf
 2126 083d 1601     		.2byte	0x116
 2127 083f 24080000 		.4byte	0x824
 2128 0843 00       		.byte	0
 2129 0844 1B       		.uleb128 0x1b
 2130 0845 EC040000 		.4byte	.LASF127
 2131 0849 03       		.byte	0x3
 2132 084a 4001     		.2byte	0x140
 2133 084c 62080000 		.4byte	0x862
 2134 0850 03       		.byte	0x3
 2135 0851 62080000 		.4byte	0x862
 2136 0855 1A       		.uleb128 0x1a
 2137 0856 69717000 		.ascii	"iqp\000"
 2138 085a 03       		.byte	0x3
 2139 085b 4001     		.2byte	0x140
 2140 085d 69080000 		.4byte	0x869
 2141 0861 00       		.byte	0
 2142 0862 04       		.uleb128 0x4
 2143 0863 01       		.byte	0x1
 2144 0864 02       		.byte	0x2
 2145 0865 2E040000 		.4byte	.LASF124
 2146 0869 09       		.uleb128 0x9
 2147 086a 04       		.byte	0x4
 2148 086b BD070000 		.4byte	0x7bd
 2149 086f 19       		.uleb128 0x19
 2150 0870 A9040000 		.4byte	.LASF125
 2151 0874 10       		.byte	0x10
 2152 0875 5A01     		.2byte	0x15a
 2153 0877 03       		.byte	0x3
 2154 0878 17       		.uleb128 0x17
 2155 0879 33070000 		.4byte	.LASF126
 2156 087d 10       		.byte	0x10
 2157 087e 6601     		.2byte	0x166
 2158 0880 03       		.byte	0x3
 2159 0881 93080000 		.4byte	0x893
 2160 0885 1C       		.uleb128 0x1c
 2161 0886 A0040000 		.4byte	.LASF146
 2162 088a A3080000 		.4byte	0x8a3
 2163 088e 33070000 		.4byte	.LASF126
 2164 0892 00       		.byte	0
 2165 0893 15       		.uleb128 0x15
 2166 0894 DB060000 		.4byte	0x6db
ARM GAS  /var/folders/m4/4md61f0s1_g0rzfghffqnxvr0000gn/T//ccElzD9Y.s 			page 39


 2167 0898 A3080000 		.4byte	0x8a3
 2168 089c 16       		.uleb128 0x16
 2169 089d 6A040000 		.4byte	0x46a
 2170 08a1 0B       		.byte	0xb
 2171 08a2 00       		.byte	0
 2172 08a3 13       		.uleb128 0x13
 2173 08a4 93080000 		.4byte	0x893
 2174 08a8 1B       		.uleb128 0x1b
 2175 08a9 DC060000 		.4byte	.LASF128
 2176 08ad 03       		.byte	0x3
 2177 08ae 2F01     		.2byte	0x12f
 2178 08b0 62080000 		.4byte	0x862
 2179 08b4 03       		.byte	0x3
 2180 08b5 C6080000 		.4byte	0x8c6
 2181 08b9 1A       		.uleb128 0x1a
 2182 08ba 69717000 		.ascii	"iqp\000"
 2183 08be 03       		.byte	0x3
 2184 08bf 2F01     		.2byte	0x12f
 2185 08c1 69080000 		.4byte	0x869
 2186 08c5 00       		.byte	0
 2187 08c6 1B       		.uleb128 0x1b
 2188 08c7 02040000 		.4byte	.LASF129
 2189 08cb 03       		.byte	0x3
 2190 08cc 9701     		.2byte	0x197
 2191 08ce 62080000 		.4byte	0x862
 2192 08d2 03       		.byte	0x3
 2193 08d3 E4080000 		.4byte	0x8e4
 2194 08d7 1A       		.uleb128 0x1a
 2195 08d8 6F717000 		.ascii	"oqp\000"
 2196 08dc 03       		.byte	0x3
 2197 08dd 9701     		.2byte	0x197
 2198 08df E4080000 		.4byte	0x8e4
 2199 08e3 00       		.byte	0
 2200 08e4 09       		.uleb128 0x9
 2201 08e5 04       		.byte	0x4
 2202 08e6 C8070000 		.4byte	0x7c8
 2203 08ea 1B       		.uleb128 0x1b
 2204 08eb 13070000 		.4byte	.LASF130
 2205 08ef 03       		.byte	0x3
 2206 08f0 8401     		.2byte	0x184
 2207 08f2 62080000 		.4byte	0x862
 2208 08f6 03       		.byte	0x3
 2209 08f7 08090000 		.4byte	0x908
 2210 08fb 1A       		.uleb128 0x1a
 2211 08fc 6F717000 		.ascii	"oqp\000"
 2212 0900 03       		.byte	0x3
 2213 0901 8401     		.2byte	0x184
 2214 0903 E4080000 		.4byte	0x8e4
 2215 0907 00       		.byte	0
 2216 0908 1D       		.uleb128 0x1d
 2217 0909 93000000 		.4byte	.LASF134
 2218 090d 01       		.byte	0x1
 2219 090e 57       		.byte	0x57
 2220 090f 00000000 		.4byte	.LFB231
 2221 0913 1E000000 		.4byte	.LFE231-.LFB231
 2222 0917 01       		.uleb128 0x1
 2223 0918 9C       		.byte	0x9c
ARM GAS  /var/folders/m4/4md61f0s1_g0rzfghffqnxvr0000gn/T//ccElzD9Y.s 			page 40


 2224 0919 95090000 		.4byte	0x995
 2225 091d 1E       		.uleb128 0x1e
 2226 091e 69717000 		.ascii	"iqp\000"
 2227 0922 01       		.byte	0x1
 2228 0923 57       		.byte	0x57
 2229 0924 69080000 		.4byte	0x869
 2230 0928 01       		.uleb128 0x1
 2231 0929 50       		.byte	0x50
 2232 092a 1E       		.uleb128 0x1e
 2233 092b 627000   		.ascii	"bp\000"
 2234 092e 01       		.byte	0x1
 2235 092f 57       		.byte	0x57
 2236 0930 B7070000 		.4byte	0x7b7
 2237 0934 01       		.uleb128 0x1
 2238 0935 51       		.byte	0x51
 2239 0936 1F       		.uleb128 0x1f
 2240 0937 0E070000 		.4byte	.LASF131
 2241 093b 01       		.byte	0x1
 2242 093c 57       		.byte	0x57
 2243 093d 2C000000 		.4byte	0x2c
 2244 0941 00000000 		.4byte	.LLST0
 2245 0945 20       		.uleb128 0x20
 2246 0946 93040000 		.4byte	.LASF132
 2247 094a 01       		.byte	0x1
 2248 094b 58       		.byte	0x58
 2249 094c 90070000 		.4byte	0x790
 2250 0950 01       		.uleb128 0x1
 2251 0951 53       		.byte	0x53
 2252 0952 1F       		.uleb128 0x1f
 2253 0953 12020000 		.4byte	.LASF133
 2254 0957 01       		.byte	0x1
 2255 0958 58       		.byte	0x58
 2256 0959 34030000 		.4byte	0x334
 2257 095d 21000000 		.4byte	.LLST1
 2258 0961 21       		.uleb128 0x21
 2259 0962 2A080000 		.4byte	0x82a
 2260 0966 0E000000 		.4byte	.LBB108
 2261 096a 04000000 		.4byte	.LBE108-.LBB108
 2262 096e 01       		.byte	0x1
 2263 096f 5A       		.byte	0x5a
 2264 0970 22       		.uleb128 0x22
 2265 0971 37080000 		.4byte	0x837
 2266 0975 41000000 		.4byte	.LLST2
 2267 0979 23       		.uleb128 0x23
 2268 097a 0A080000 		.4byte	0x80a
 2269 097e 0E000000 		.4byte	.LBB109
 2270 0982 04000000 		.4byte	.LBE109-.LBB109
 2271 0986 0F       		.byte	0xf
 2272 0987 1801     		.2byte	0x118
 2273 0989 22       		.uleb128 0x22
 2274 098a 17080000 		.4byte	0x817
 2275 098e 41000000 		.4byte	.LLST2
 2276 0992 00       		.byte	0
 2277 0993 00       		.byte	0
 2278 0994 00       		.byte	0
 2279 0995 1D       		.uleb128 0x1d
 2280 0996 B9000000 		.4byte	.LASF135
ARM GAS  /var/folders/m4/4md61f0s1_g0rzfghffqnxvr0000gn/T//ccElzD9Y.s 			page 41


 2281 099a 01       		.byte	0x1
 2282 099b 6F       		.byte	0x6f
 2283 099c 00000000 		.4byte	.LFB232
 2284 09a0 12000000 		.4byte	.LFE232-.LFB232
 2285 09a4 01       		.uleb128 0x1
 2286 09a5 9C       		.byte	0x9c
 2287 09a6 D1090000 		.4byte	0x9d1
 2288 09aa 24       		.uleb128 0x24
 2289 09ab 69717000 		.ascii	"iqp\000"
 2290 09af 01       		.byte	0x1
 2291 09b0 6F       		.byte	0x6f
 2292 09b1 69080000 		.4byte	0x869
 2293 09b5 54000000 		.4byte	.LLST4
 2294 09b9 25       		.uleb128 0x25
 2295 09ba 12000000 		.4byte	.LVL5
 2296 09be 1C120000 		.4byte	0x121c
 2297 09c2 26       		.uleb128 0x26
 2298 09c3 01       		.uleb128 0x1
 2299 09c4 50       		.byte	0x50
 2300 09c5 03       		.uleb128 0x3
 2301 09c6 F3       		.byte	0xf3
 2302 09c7 01       		.uleb128 0x1
 2303 09c8 50       		.byte	0x50
 2304 09c9 26       		.uleb128 0x26
 2305 09ca 01       		.uleb128 0x1
 2306 09cb 51       		.byte	0x51
 2307 09cc 02       		.uleb128 0x2
 2308 09cd 09       		.byte	0x9
 2309 09ce FE       		.byte	0xfe
 2310 09cf 00       		.byte	0
 2311 09d0 00       		.byte	0
 2312 09d1 27       		.uleb128 0x27
 2313 09d2 17020000 		.4byte	.LASF136
 2314 09d6 01       		.byte	0x1
 2315 09d7 86       		.byte	0x86
 2316 09d8 10010000 		.4byte	0x110
 2317 09dc 00000000 		.4byte	.LFB233
 2318 09e0 38000000 		.4byte	.LFE233-.LFB233
 2319 09e4 01       		.uleb128 0x1
 2320 09e5 9C       		.byte	0x9c
 2321 09e6 330A0000 		.4byte	0xa33
 2322 09ea 24       		.uleb128 0x24
 2323 09eb 69717000 		.ascii	"iqp\000"
 2324 09ef 01       		.byte	0x1
 2325 09f0 86       		.byte	0x86
 2326 09f1 69080000 		.4byte	0x869
 2327 09f5 75000000 		.4byte	.LLST5
 2328 09f9 24       		.uleb128 0x24
 2329 09fa 6200     		.ascii	"b\000"
 2330 09fc 01       		.byte	0x1
 2331 09fd 86       		.byte	0x86
 2332 09fe A2000000 		.4byte	0xa2
 2333 0a02 AF000000 		.4byte	.LLST6
 2334 0a06 28       		.uleb128 0x28
 2335 0a07 44080000 		.4byte	0x844
 2336 0a0b 00000000 		.4byte	.LBB111
 2337 0a0f 00000000 		.4byte	.Ldebug_ranges0+0
ARM GAS  /var/folders/m4/4md61f0s1_g0rzfghffqnxvr0000gn/T//ccElzD9Y.s 			page 42


 2338 0a13 01       		.byte	0x1
 2339 0a14 8A       		.byte	0x8a
 2340 0a15 230A0000 		.4byte	0xa23
 2341 0a19 22       		.uleb128 0x22
 2342 0a1a 55080000 		.4byte	0x855
 2343 0a1e DB000000 		.4byte	.LLST7
 2344 0a22 00       		.byte	0
 2345 0a23 29       		.uleb128 0x29
 2346 0a24 28000000 		.4byte	.LVL9
 2347 0a28 27120000 		.4byte	0x1227
 2348 0a2c 26       		.uleb128 0x26
 2349 0a2d 01       		.uleb128 0x1
 2350 0a2e 51       		.byte	0x51
 2351 0a2f 01       		.uleb128 0x1
 2352 0a30 30       		.byte	0x30
 2353 0a31 00       		.byte	0
 2354 0a32 00       		.byte	0
 2355 0a33 27       		.uleb128 0x27
 2356 0a34 62070000 		.4byte	.LASF137
 2357 0a38 01       		.byte	0x1
 2358 0a39 AD       		.byte	0xad
 2359 0a3a 10010000 		.4byte	0x110
 2360 0a3e 00000000 		.4byte	.LFB234
 2361 0a42 4E000000 		.4byte	.LFE234-.LFB234
 2362 0a46 01       		.uleb128 0x1
 2363 0a47 9C       		.byte	0x9c
 2364 0a48 9E0B0000 		.4byte	0xb9e
 2365 0a4c 24       		.uleb128 0x24
 2366 0a4d 69717000 		.ascii	"iqp\000"
 2367 0a51 01       		.byte	0x1
 2368 0a52 AD       		.byte	0xad
 2369 0a53 69080000 		.4byte	0x869
 2370 0a57 07010000 		.4byte	.LLST8
 2371 0a5b 1F       		.uleb128 0x1f
 2372 0a5c 83020000 		.4byte	.LASF138
 2373 0a60 01       		.byte	0x1
 2374 0a61 AD       		.byte	0xad
 2375 0a62 31010000 		.4byte	0x131
 2376 0a66 51010000 		.4byte	.LLST9
 2377 0a6a 2A       		.uleb128 0x2a
 2378 0a6b 6200     		.ascii	"b\000"
 2379 0a6d 01       		.byte	0x1
 2380 0a6e AE       		.byte	0xae
 2381 0a6f A2000000 		.4byte	0xa2
 2382 0a73 9B010000 		.4byte	.LLST10
 2383 0a77 28       		.uleb128 0x28
 2384 0a78 6F080000 		.4byte	0x86f
 2385 0a7c 02000000 		.4byte	.LBB117
 2386 0a80 20000000 		.4byte	.Ldebug_ranges0+0x20
 2387 0a84 01       		.byte	0x1
 2388 0a85 B0       		.byte	0xb0
 2389 0a86 B60A0000 		.4byte	0xab6
 2390 0a8a 2B       		.uleb128 0x2b
 2391 0a8b F8070000 		.4byte	0x7f8
 2392 0a8f 02000000 		.4byte	.LBB118
 2393 0a93 20000000 		.4byte	.Ldebug_ranges0+0x20
 2394 0a97 10       		.byte	0x10
ARM GAS  /var/folders/m4/4md61f0s1_g0rzfghffqnxvr0000gn/T//ccElzD9Y.s 			page 43


 2395 0a98 5C01     		.2byte	0x15c
 2396 0a9a 2B       		.uleb128 0x2b
 2397 0a9b DE070000 		.4byte	0x7de
 2398 0a9f 02000000 		.4byte	.LBB119
 2399 0aa3 20000000 		.4byte	.Ldebug_ranges0+0x20
 2400 0aa7 0B       		.byte	0xb
 2401 0aa8 D001     		.2byte	0x1d0
 2402 0aaa 22       		.uleb128 0x22
 2403 0aab EB070000 		.4byte	0x7eb
 2404 0aaf AE010000 		.4byte	.LLST11
 2405 0ab3 00       		.byte	0
 2406 0ab4 00       		.byte	0
 2407 0ab5 00       		.byte	0
 2408 0ab6 2C       		.uleb128 0x2c
 2409 0ab7 38000000 		.4byte	.Ldebug_ranges0+0x38
 2410 0abb 260B0000 		.4byte	0xb26
 2411 0abf 2A       		.uleb128 0x2a
 2412 0ac0 6D736700 		.ascii	"msg\000"
 2413 0ac4 01       		.byte	0x1
 2414 0ac5 B6       		.byte	0xb6
 2415 0ac6 10010000 		.4byte	0x110
 2416 0aca C3010000 		.4byte	.LLST12
 2417 0ace 2D       		.uleb128 0x2d
 2418 0acf 78080000 		.4byte	0x878
 2419 0ad3 48000000 		.4byte	.LBB126
 2420 0ad7 04000000 		.4byte	.LBE126-.LBB126
 2421 0adb 01       		.byte	0x1
 2422 0adc B8       		.byte	0xb8
 2423 0add 1C0B0000 		.4byte	0xb1c
 2424 0ae1 2E       		.uleb128 0x2e
 2425 0ae2 48000000 		.4byte	.LBB127
 2426 0ae6 04000000 		.4byte	.LBE127-.LBB127
 2427 0aea 2F       		.uleb128 0x2f
 2428 0aeb 85080000 		.4byte	0x885
 2429 0aef 23       		.uleb128 0x23
 2430 0af0 01080000 		.4byte	0x801
 2431 0af4 48000000 		.4byte	.LBB128
 2432 0af8 04000000 		.4byte	.LBE128-.LBB128
 2433 0afc 10       		.byte	0x10
 2434 0afd 7301     		.2byte	0x173
 2435 0aff 23       		.uleb128 0x23
 2436 0b00 DE070000 		.4byte	0x7de
 2437 0b04 48000000 		.4byte	.LBB129
 2438 0b08 04000000 		.4byte	.LBE129-.LBB129
 2439 0b0c 0B       		.byte	0xb
 2440 0b0d E301     		.2byte	0x1e3
 2441 0b0f 22       		.uleb128 0x22
 2442 0b10 EB070000 		.4byte	0x7eb
 2443 0b14 E1010000 		.4byte	.LLST13
 2444 0b18 00       		.byte	0
 2445 0b19 00       		.byte	0
 2446 0b1a 00       		.byte	0
 2447 0b1b 00       		.byte	0
 2448 0b1c 30       		.uleb128 0x30
 2449 0b1d 18000000 		.4byte	.LVL16
 2450 0b21 32120000 		.4byte	0x1232
 2451 0b25 00       		.byte	0
ARM GAS  /var/folders/m4/4md61f0s1_g0rzfghffqnxvr0000gn/T//ccElzD9Y.s 			page 44


 2452 0b26 2D       		.uleb128 0x2d
 2453 0b27 A8080000 		.4byte	0x8a8
 2454 0b2b 1C000000 		.4byte	.LBB131
 2455 0b2f 02000000 		.4byte	.LBE131-.LBB131
 2456 0b33 01       		.byte	0x1
 2457 0b34 B5       		.byte	0xb5
 2458 0b35 430B0000 		.4byte	0xb43
 2459 0b39 22       		.uleb128 0x22
 2460 0b3a B9080000 		.4byte	0x8b9
 2461 0b3e F5010000 		.4byte	.LLST14
 2462 0b42 00       		.byte	0
 2463 0b43 2D       		.uleb128 0x2d
 2464 0b44 78080000 		.4byte	0x878
 2465 0b48 40000000 		.4byte	.LBB134
 2466 0b4c 06000000 		.4byte	.LBE134-.LBB134
 2467 0b50 01       		.byte	0x1
 2468 0b51 C2       		.byte	0xc2
 2469 0b52 910B0000 		.4byte	0xb91
 2470 0b56 2E       		.uleb128 0x2e
 2471 0b57 40000000 		.4byte	.LBB135
 2472 0b5b 06000000 		.4byte	.LBE135-.LBB135
 2473 0b5f 2F       		.uleb128 0x2f
 2474 0b60 85080000 		.4byte	0x885
 2475 0b64 23       		.uleb128 0x23
 2476 0b65 01080000 		.4byte	0x801
 2477 0b69 40000000 		.4byte	.LBB136
 2478 0b6d 06000000 		.4byte	.LBE136-.LBB136
 2479 0b71 10       		.byte	0x10
 2480 0b72 7301     		.2byte	0x173
 2481 0b74 23       		.uleb128 0x23
 2482 0b75 DE070000 		.4byte	0x7de
 2483 0b79 40000000 		.4byte	.LBB137
 2484 0b7d 06000000 		.4byte	.LBE137-.LBB137
 2485 0b81 0B       		.byte	0xb
 2486 0b82 E301     		.2byte	0x1e3
 2487 0b84 22       		.uleb128 0x22
 2488 0b85 EB070000 		.4byte	0x7eb
 2489 0b89 08020000 		.4byte	.LLST15
 2490 0b8d 00       		.byte	0
 2491 0b8e 00       		.byte	0
 2492 0b8f 00       		.byte	0
 2493 0b90 00       		.byte	0
 2494 0b91 31       		.uleb128 0x31
 2495 0b92 12000000 		.4byte	.LVL14
 2496 0b96 26       		.uleb128 0x26
 2497 0b97 01       		.uleb128 0x1
 2498 0b98 50       		.byte	0x50
 2499 0b99 02       		.uleb128 0x2
 2500 0b9a 74       		.byte	0x74
 2501 0b9b 00       		.sleb128 0
 2502 0b9c 00       		.byte	0
 2503 0b9d 00       		.byte	0
 2504 0b9e 27       		.uleb128 0x27
 2505 0b9f 6E000000 		.4byte	.LASF139
 2506 0ba3 01       		.byte	0x1
 2507 0ba4 DF       		.byte	0xdf
 2508 0ba5 2C000000 		.4byte	0x2c
ARM GAS  /var/folders/m4/4md61f0s1_g0rzfghffqnxvr0000gn/T//ccElzD9Y.s 			page 45


 2509 0ba9 00000000 		.4byte	.LFB235
 2510 0bad 76000000 		.4byte	.LFE235-.LFB235
 2511 0bb1 01       		.uleb128 0x1
 2512 0bb2 9C       		.byte	0x9c
 2513 0bb3 600D0000 		.4byte	0xd60
 2514 0bb7 24       		.uleb128 0x24
 2515 0bb8 69717000 		.ascii	"iqp\000"
 2516 0bbc 01       		.byte	0x1
 2517 0bbd DF       		.byte	0xdf
 2518 0bbe 69080000 		.4byte	0x869
 2519 0bc2 1C020000 		.4byte	.LLST16
 2520 0bc6 24       		.uleb128 0x24
 2521 0bc7 627000   		.ascii	"bp\000"
 2522 0bca 01       		.byte	0x1
 2523 0bcb DF       		.byte	0xdf
 2524 0bcc B7070000 		.4byte	0x7b7
 2525 0bd0 66020000 		.4byte	.LLST17
 2526 0bd4 24       		.uleb128 0x24
 2527 0bd5 6E00     		.ascii	"n\000"
 2528 0bd7 01       		.byte	0x1
 2529 0bd8 E0       		.byte	0xe0
 2530 0bd9 2C000000 		.4byte	0x2c
 2531 0bdd 9C020000 		.4byte	.LLST18
 2532 0be1 1F       		.uleb128 0x1f
 2533 0be2 83020000 		.4byte	.LASF138
 2534 0be6 01       		.byte	0x1
 2535 0be7 E0       		.byte	0xe0
 2536 0be8 31010000 		.4byte	0x131
 2537 0bec BF020000 		.4byte	.LLST19
 2538 0bf0 32       		.uleb128 0x32
 2539 0bf1 6E667900 		.ascii	"nfy\000"
 2540 0bf5 01       		.byte	0x1
 2541 0bf6 E1       		.byte	0xe1
 2542 0bf7 90070000 		.4byte	0x790
 2543 0bfb 01       		.uleb128 0x1
 2544 0bfc 58       		.byte	0x58
 2545 0bfd 2A       		.uleb128 0x2a
 2546 0bfe 7200     		.ascii	"r\000"
 2547 0c00 01       		.byte	0x1
 2548 0c01 E2       		.byte	0xe2
 2549 0c02 2C000000 		.4byte	0x2c
 2550 0c06 09030000 		.4byte	.LLST20
 2551 0c0a 33       		.uleb128 0x33
 2552 0c0b A0040000 		.4byte	.LASF146
 2553 0c0f 700D0000 		.4byte	0xd70
 2554 0c13 2D       		.uleb128 0x2d
 2555 0c14 6F080000 		.4byte	0x86f
 2556 0c18 12000000 		.4byte	.LBB140
 2557 0c1c 06000000 		.4byte	.LBE140-.LBB140
 2558 0c20 01       		.byte	0x1
 2559 0c21 E6       		.byte	0xe6
 2560 0c22 520C0000 		.4byte	0xc52
 2561 0c26 23       		.uleb128 0x23
 2562 0c27 F8070000 		.4byte	0x7f8
 2563 0c2b 12000000 		.4byte	.LBB141
 2564 0c2f 06000000 		.4byte	.LBE141-.LBB141
 2565 0c33 10       		.byte	0x10
ARM GAS  /var/folders/m4/4md61f0s1_g0rzfghffqnxvr0000gn/T//ccElzD9Y.s 			page 46


 2566 0c34 5C01     		.2byte	0x15c
 2567 0c36 23       		.uleb128 0x23
 2568 0c37 DE070000 		.4byte	0x7de
 2569 0c3b 12000000 		.4byte	.LBB142
 2570 0c3f 06000000 		.4byte	.LBE142-.LBB142
 2571 0c43 0B       		.byte	0xb
 2572 0c44 D001     		.2byte	0x1d0
 2573 0c46 22       		.uleb128 0x22
 2574 0c47 EB070000 		.4byte	0x7eb
 2575 0c4b 28030000 		.4byte	.LLST21
 2576 0c4f 00       		.byte	0
 2577 0c50 00       		.byte	0
 2578 0c51 00       		.byte	0
 2579 0c52 28       		.uleb128 0x28
 2580 0c53 6F080000 		.4byte	0x86f
 2581 0c57 1A000000 		.4byte	.LBB144
 2582 0c5b 58000000 		.4byte	.Ldebug_ranges0+0x58
 2583 0c5f 01       		.byte	0x1
 2584 0c60 FF       		.byte	0xff
 2585 0c61 910C0000 		.4byte	0xc91
 2586 0c65 2B       		.uleb128 0x2b
 2587 0c66 F8070000 		.4byte	0x7f8
 2588 0c6a 1A000000 		.4byte	.LBB145
 2589 0c6e 58000000 		.4byte	.Ldebug_ranges0+0x58
 2590 0c72 10       		.byte	0x10
 2591 0c73 5C01     		.2byte	0x15c
 2592 0c75 2B       		.uleb128 0x2b
 2593 0c76 DE070000 		.4byte	0x7de
 2594 0c7a 1A000000 		.4byte	.LBB146
 2595 0c7e 58000000 		.4byte	.Ldebug_ranges0+0x58
 2596 0c82 0B       		.byte	0xb
 2597 0c83 D001     		.2byte	0x1d0
 2598 0c85 22       		.uleb128 0x22
 2599 0c86 EB070000 		.4byte	0x7eb
 2600 0c8a 3D030000 		.4byte	.LLST22
 2601 0c8e 00       		.byte	0
 2602 0c8f 00       		.byte	0
 2603 0c90 00       		.byte	0
 2604 0c91 28       		.uleb128 0x28
 2605 0c92 78080000 		.4byte	0x878
 2606 0c96 1C000000 		.4byte	.LBB151
 2607 0c9a 70000000 		.4byte	.Ldebug_ranges0+0x70
 2608 0c9e 01       		.byte	0x1
 2609 0c9f F8       		.byte	0xf8
 2610 0ca0 DB0C0000 		.4byte	0xcdb
 2611 0ca4 34       		.uleb128 0x34
 2612 0ca5 70000000 		.4byte	.Ldebug_ranges0+0x70
 2613 0ca9 2F       		.uleb128 0x2f
 2614 0caa 85080000 		.4byte	0x885
 2615 0cae 2B       		.uleb128 0x2b
 2616 0caf 01080000 		.4byte	0x801
 2617 0cb3 1C000000 		.4byte	.LBB153
 2618 0cb7 70000000 		.4byte	.Ldebug_ranges0+0x70
 2619 0cbb 10       		.byte	0x10
 2620 0cbc 7301     		.2byte	0x173
 2621 0cbe 2B       		.uleb128 0x2b
 2622 0cbf DE070000 		.4byte	0x7de
ARM GAS  /var/folders/m4/4md61f0s1_g0rzfghffqnxvr0000gn/T//ccElzD9Y.s 			page 47


 2623 0cc3 1C000000 		.4byte	.LBB154
 2624 0cc7 70000000 		.4byte	.Ldebug_ranges0+0x70
 2625 0ccb 0B       		.byte	0xb
 2626 0ccc E301     		.2byte	0x1e3
 2627 0cce 22       		.uleb128 0x22
 2628 0ccf EB070000 		.4byte	0x7eb
 2629 0cd3 52030000 		.4byte	.LLST23
 2630 0cd7 00       		.byte	0
 2631 0cd8 00       		.byte	0
 2632 0cd9 00       		.byte	0
 2633 0cda 00       		.byte	0
 2634 0cdb 2D       		.uleb128 0x2d
 2635 0cdc A8080000 		.4byte	0x8a8
 2636 0ce0 30000000 		.4byte	.LBB160
 2637 0ce4 02000000 		.4byte	.LBE160-.LBB160
 2638 0ce8 01       		.byte	0x1
 2639 0ce9 EC       		.byte	0xec
 2640 0cea F80C0000 		.4byte	0xcf8
 2641 0cee 22       		.uleb128 0x22
 2642 0cef B9080000 		.4byte	0x8b9
 2643 0cf3 66030000 		.4byte	.LLST24
 2644 0cf7 00       		.byte	0
 2645 0cf8 2D       		.uleb128 0x2d
 2646 0cf9 78080000 		.4byte	0x878
 2647 0cfd 6A000000 		.4byte	.LBB164
 2648 0d01 04000000 		.4byte	.LBE164-.LBB164
 2649 0d05 01       		.byte	0x1
 2650 0d06 EE       		.byte	0xee
 2651 0d07 460D0000 		.4byte	0xd46
 2652 0d0b 2E       		.uleb128 0x2e
 2653 0d0c 6A000000 		.4byte	.LBB165
 2654 0d10 04000000 		.4byte	.LBE165-.LBB165
 2655 0d14 2F       		.uleb128 0x2f
 2656 0d15 85080000 		.4byte	0x885
 2657 0d19 23       		.uleb128 0x23
 2658 0d1a 01080000 		.4byte	0x801
 2659 0d1e 6A000000 		.4byte	.LBB166
 2660 0d22 04000000 		.4byte	.LBE166-.LBB166
 2661 0d26 10       		.byte	0x10
 2662 0d27 7301     		.2byte	0x173
 2663 0d29 23       		.uleb128 0x23
 2664 0d2a DE070000 		.4byte	0x7de
 2665 0d2e 6A000000 		.4byte	.LBB167
 2666 0d32 04000000 		.4byte	.LBE167-.LBB167
 2667 0d36 0B       		.byte	0xb
 2668 0d37 E301     		.2byte	0x1e3
 2669 0d39 22       		.uleb128 0x22
 2670 0d3a EB070000 		.4byte	0x7eb
 2671 0d3e 79030000 		.4byte	.LLST25
 2672 0d42 00       		.byte	0
 2673 0d43 00       		.byte	0
 2674 0d44 00       		.byte	0
 2675 0d45 00       		.byte	0
 2676 0d46 35       		.uleb128 0x35
 2677 0d47 28000000 		.4byte	.LVL31
 2678 0d4b 560D0000 		.4byte	0xd56
 2679 0d4f 26       		.uleb128 0x26
ARM GAS  /var/folders/m4/4md61f0s1_g0rzfghffqnxvr0000gn/T//ccElzD9Y.s 			page 48


 2680 0d50 01       		.uleb128 0x1
 2681 0d51 50       		.byte	0x50
 2682 0d52 02       		.uleb128 0x2
 2683 0d53 74       		.byte	0x74
 2684 0d54 00       		.sleb128 0
 2685 0d55 00       		.byte	0
 2686 0d56 30       		.uleb128 0x30
 2687 0d57 2E000000 		.4byte	.LVL33
 2688 0d5b 32120000 		.4byte	0x1232
 2689 0d5f 00       		.byte	0
 2690 0d60 15       		.uleb128 0x15
 2691 0d61 DB060000 		.4byte	0x6db
 2692 0d65 700D0000 		.4byte	0xd70
 2693 0d69 16       		.uleb128 0x16
 2694 0d6a 6A040000 		.4byte	0x46a
 2695 0d6e 0F       		.byte	0xf
 2696 0d6f 00       		.byte	0
 2697 0d70 13       		.uleb128 0x13
 2698 0d71 600D0000 		.4byte	0xd60
 2699 0d75 36       		.uleb128 0x36
 2700 0d76 B7060000 		.4byte	.LASF140
 2701 0d7a 01       		.byte	0x1
 2702 0d7b 1301     		.2byte	0x113
 2703 0d7d 00000000 		.4byte	.LFB236
 2704 0d81 1C000000 		.4byte	.LFE236-.LFB236
 2705 0d85 01       		.uleb128 0x1
 2706 0d86 9C       		.byte	0x9c
 2707 0d87 070E0000 		.4byte	0xe07
 2708 0d8b 37       		.uleb128 0x37
 2709 0d8c 6F717000 		.ascii	"oqp\000"
 2710 0d90 01       		.byte	0x1
 2711 0d91 1301     		.2byte	0x113
 2712 0d93 E4080000 		.4byte	0x8e4
 2713 0d97 01       		.uleb128 0x1
 2714 0d98 50       		.byte	0x50
 2715 0d99 37       		.uleb128 0x37
 2716 0d9a 627000   		.ascii	"bp\000"
 2717 0d9d 01       		.byte	0x1
 2718 0d9e 1301     		.2byte	0x113
 2719 0da0 B7070000 		.4byte	0x7b7
 2720 0da4 01       		.uleb128 0x1
 2721 0da5 51       		.byte	0x51
 2722 0da6 38       		.uleb128 0x38
 2723 0da7 0E070000 		.4byte	.LASF131
 2724 0dab 01       		.byte	0x1
 2725 0dac 1301     		.2byte	0x113
 2726 0dae 2C000000 		.4byte	0x2c
 2727 0db2 01       		.uleb128 0x1
 2728 0db3 52       		.byte	0x52
 2729 0db4 38       		.uleb128 0x38
 2730 0db5 1C000000 		.4byte	.LASF141
 2731 0db9 01       		.byte	0x1
 2732 0dba 1401     		.2byte	0x114
 2733 0dbc 90070000 		.4byte	0x790
 2734 0dc0 01       		.uleb128 0x1
 2735 0dc1 53       		.byte	0x53
 2736 0dc2 39       		.uleb128 0x39
ARM GAS  /var/folders/m4/4md61f0s1_g0rzfghffqnxvr0000gn/T//ccElzD9Y.s 			page 49


 2737 0dc3 12020000 		.4byte	.LASF133
 2738 0dc7 01       		.byte	0x1
 2739 0dc8 1401     		.2byte	0x114
 2740 0dca 34030000 		.4byte	0x334
 2741 0dce 8D030000 		.4byte	.LLST26
 2742 0dd2 23       		.uleb128 0x23
 2743 0dd3 2A080000 		.4byte	0x82a
 2744 0dd7 0A000000 		.4byte	.LBB169
 2745 0ddb 04000000 		.4byte	.LBE169-.LBB169
 2746 0ddf 01       		.byte	0x1
 2747 0de0 1601     		.2byte	0x116
 2748 0de2 22       		.uleb128 0x22
 2749 0de3 37080000 		.4byte	0x837
 2750 0de7 AD030000 		.4byte	.LLST27
 2751 0deb 23       		.uleb128 0x23
 2752 0dec 0A080000 		.4byte	0x80a
 2753 0df0 0A000000 		.4byte	.LBB170
 2754 0df4 04000000 		.4byte	.LBE170-.LBB170
 2755 0df8 0F       		.byte	0xf
 2756 0df9 1801     		.2byte	0x118
 2757 0dfb 22       		.uleb128 0x22
 2758 0dfc 17080000 		.4byte	0x817
 2759 0e00 AD030000 		.4byte	.LLST27
 2760 0e04 00       		.byte	0
 2761 0e05 00       		.byte	0
 2762 0e06 00       		.byte	0
 2763 0e07 36       		.uleb128 0x36
 2764 0e08 95060000 		.4byte	.LASF142
 2765 0e0c 01       		.byte	0x1
 2766 0e0d 2B01     		.2byte	0x12b
 2767 0e0f 00000000 		.4byte	.LFB237
 2768 0e13 1A000000 		.4byte	.LFE237-.LFB237
 2769 0e17 01       		.uleb128 0x1
 2770 0e18 9C       		.byte	0x9c
 2771 0e19 450E0000 		.4byte	0xe45
 2772 0e1d 3A       		.uleb128 0x3a
 2773 0e1e 6F717000 		.ascii	"oqp\000"
 2774 0e22 01       		.byte	0x1
 2775 0e23 2B01     		.2byte	0x12b
 2776 0e25 E4080000 		.4byte	0x8e4
 2777 0e29 C0030000 		.4byte	.LLST29
 2778 0e2d 25       		.uleb128 0x25
 2779 0e2e 1A000000 		.4byte	.LVL50
 2780 0e32 1C120000 		.4byte	0x121c
 2781 0e36 26       		.uleb128 0x26
 2782 0e37 01       		.uleb128 0x1
 2783 0e38 50       		.byte	0x50
 2784 0e39 03       		.uleb128 0x3
 2785 0e3a F3       		.byte	0xf3
 2786 0e3b 01       		.uleb128 0x1
 2787 0e3c 50       		.byte	0x50
 2788 0e3d 26       		.uleb128 0x26
 2789 0e3e 01       		.uleb128 0x1
 2790 0e3f 51       		.byte	0x51
 2791 0e40 02       		.uleb128 0x2
 2792 0e41 09       		.byte	0x9
 2793 0e42 FE       		.byte	0xfe
ARM GAS  /var/folders/m4/4md61f0s1_g0rzfghffqnxvr0000gn/T//ccElzD9Y.s 			page 50


 2794 0e43 00       		.byte	0
 2795 0e44 00       		.byte	0
 2796 0e45 3B       		.uleb128 0x3b
 2797 0e46 00000000 		.4byte	.LASF143
 2798 0e4a 01       		.byte	0x1
 2799 0e4b 4B01     		.2byte	0x14b
 2800 0e4d 10010000 		.4byte	0x110
 2801 0e51 00000000 		.4byte	.LFB238
 2802 0e55 52000000 		.4byte	.LFE238-.LFB238
 2803 0e59 01       		.uleb128 0x1
 2804 0e5a 9C       		.byte	0x9c
 2805 0e5b B90F0000 		.4byte	0xfb9
 2806 0e5f 3A       		.uleb128 0x3a
 2807 0e60 6F717000 		.ascii	"oqp\000"
 2808 0e64 01       		.byte	0x1
 2809 0e65 4B01     		.2byte	0x14b
 2810 0e67 E4080000 		.4byte	0x8e4
 2811 0e6b E1030000 		.4byte	.LLST30
 2812 0e6f 3A       		.uleb128 0x3a
 2813 0e70 6200     		.ascii	"b\000"
 2814 0e72 01       		.byte	0x1
 2815 0e73 4B01     		.2byte	0x14b
 2816 0e75 A2000000 		.4byte	0xa2
 2817 0e79 15040000 		.4byte	.LLST31
 2818 0e7d 39       		.uleb128 0x39
 2819 0e7e 83020000 		.4byte	.LASF138
 2820 0e82 01       		.byte	0x1
 2821 0e83 4B01     		.2byte	0x14b
 2822 0e85 31010000 		.4byte	0x131
 2823 0e89 36040000 		.4byte	.LLST32
 2824 0e8d 3C       		.uleb128 0x3c
 2825 0e8e 6F080000 		.4byte	0x86f
 2826 0e92 08000000 		.4byte	.LBB172
 2827 0e96 08000000 		.4byte	.LBE172-.LBB172
 2828 0e9a 01       		.byte	0x1
 2829 0e9b 4D01     		.2byte	0x14d
 2830 0e9d CD0E0000 		.4byte	0xecd
 2831 0ea1 23       		.uleb128 0x23
 2832 0ea2 F8070000 		.4byte	0x7f8
 2833 0ea6 08000000 		.4byte	.LBB173
 2834 0eaa 08000000 		.4byte	.LBE173-.LBB173
 2835 0eae 10       		.byte	0x10
 2836 0eaf 5C01     		.2byte	0x15c
 2837 0eb1 23       		.uleb128 0x23
 2838 0eb2 DE070000 		.4byte	0x7de
 2839 0eb6 08000000 		.4byte	.LBB174
 2840 0eba 08000000 		.4byte	.LBE174-.LBB174
 2841 0ebe 0B       		.byte	0xb
 2842 0ebf D001     		.2byte	0x1d0
 2843 0ec1 22       		.uleb128 0x22
 2844 0ec2 EB070000 		.4byte	0x7eb
 2845 0ec6 75040000 		.4byte	.LLST33
 2846 0eca 00       		.byte	0
 2847 0ecb 00       		.byte	0
 2848 0ecc 00       		.byte	0
 2849 0ecd 2C       		.uleb128 0x2c
 2850 0ece 88000000 		.4byte	.Ldebug_ranges0+0x88
ARM GAS  /var/folders/m4/4md61f0s1_g0rzfghffqnxvr0000gn/T//ccElzD9Y.s 			page 51


 2851 0ed2 3F0F0000 		.4byte	0xf3f
 2852 0ed6 3D       		.uleb128 0x3d
 2853 0ed7 6D736700 		.ascii	"msg\000"
 2854 0edb 01       		.byte	0x1
 2855 0edc 4F01     		.2byte	0x14f
 2856 0ede 10010000 		.4byte	0x110
 2857 0ee2 8A040000 		.4byte	.LLST34
 2858 0ee6 3C       		.uleb128 0x3c
 2859 0ee7 78080000 		.4byte	0x878
 2860 0eeb 4C000000 		.4byte	.LBB177
 2861 0eef 04000000 		.4byte	.LBE177-.LBB177
 2862 0ef3 01       		.byte	0x1
 2863 0ef4 5101     		.2byte	0x151
 2864 0ef6 350F0000 		.4byte	0xf35
 2865 0efa 2E       		.uleb128 0x2e
 2866 0efb 4C000000 		.4byte	.LBB178
 2867 0eff 04000000 		.4byte	.LBE178-.LBB178
 2868 0f03 2F       		.uleb128 0x2f
 2869 0f04 85080000 		.4byte	0x885
 2870 0f08 23       		.uleb128 0x23
 2871 0f09 01080000 		.4byte	0x801
 2872 0f0d 4C000000 		.4byte	.LBB179
 2873 0f11 04000000 		.4byte	.LBE179-.LBB179
 2874 0f15 10       		.byte	0x10
 2875 0f16 7301     		.2byte	0x173
 2876 0f18 23       		.uleb128 0x23
 2877 0f19 DE070000 		.4byte	0x7de
 2878 0f1d 4C000000 		.4byte	.LBB180
 2879 0f21 04000000 		.4byte	.LBE180-.LBB180
 2880 0f25 0B       		.byte	0xb
 2881 0f26 E301     		.2byte	0x1e3
 2882 0f28 22       		.uleb128 0x22
 2883 0f29 EB070000 		.4byte	0x7eb
 2884 0f2d A8040000 		.4byte	.LLST35
 2885 0f31 00       		.byte	0
 2886 0f32 00       		.byte	0
 2887 0f33 00       		.byte	0
 2888 0f34 00       		.byte	0
 2889 0f35 30       		.uleb128 0x30
 2890 0f36 14000000 		.4byte	.LVL54
 2891 0f3a 32120000 		.4byte	0x1232
 2892 0f3e 00       		.byte	0
 2893 0f3f 3C       		.uleb128 0x3c
 2894 0f40 C6080000 		.4byte	0x8c6
 2895 0f44 18000000 		.4byte	.LBB182
 2896 0f48 02000000 		.4byte	.LBE182-.LBB182
 2897 0f4c 01       		.byte	0x1
 2898 0f4d 4E01     		.2byte	0x14e
 2899 0f4f 5D0F0000 		.4byte	0xf5d
 2900 0f53 22       		.uleb128 0x22
 2901 0f54 D7080000 		.4byte	0x8d7
 2902 0f58 BC040000 		.4byte	.LLST36
 2903 0f5c 00       		.byte	0
 2904 0f5d 3C       		.uleb128 0x3c
 2905 0f5e 78080000 		.4byte	0x878
 2906 0f62 44000000 		.4byte	.LBB185
 2907 0f66 06000000 		.4byte	.LBE185-.LBB185
ARM GAS  /var/folders/m4/4md61f0s1_g0rzfghffqnxvr0000gn/T//ccElzD9Y.s 			page 52


 2908 0f6a 01       		.byte	0x1
 2909 0f6b 5F01     		.2byte	0x15f
 2910 0f6d AC0F0000 		.4byte	0xfac
 2911 0f71 2E       		.uleb128 0x2e
 2912 0f72 44000000 		.4byte	.LBB186
 2913 0f76 06000000 		.4byte	.LBE186-.LBB186
 2914 0f7a 2F       		.uleb128 0x2f
 2915 0f7b 85080000 		.4byte	0x885
 2916 0f7f 23       		.uleb128 0x23
 2917 0f80 01080000 		.4byte	0x801
 2918 0f84 44000000 		.4byte	.LBB187
 2919 0f88 06000000 		.4byte	.LBE187-.LBB187
 2920 0f8c 10       		.byte	0x10
 2921 0f8d 7301     		.2byte	0x173
 2922 0f8f 23       		.uleb128 0x23
 2923 0f90 DE070000 		.4byte	0x7de
 2924 0f94 44000000 		.4byte	.LBB188
 2925 0f98 06000000 		.4byte	.LBE188-.LBB188
 2926 0f9c 0B       		.byte	0xb
 2927 0f9d E301     		.2byte	0x1e3
 2928 0f9f 22       		.uleb128 0x22
 2929 0fa0 EB070000 		.4byte	0x7eb
 2930 0fa4 CF040000 		.4byte	.LLST37
 2931 0fa8 00       		.byte	0
 2932 0fa9 00       		.byte	0
 2933 0faa 00       		.byte	0
 2934 0fab 00       		.byte	0
 2935 0fac 31       		.uleb128 0x31
 2936 0fad 44000000 		.4byte	.LVL60
 2937 0fb1 26       		.uleb128 0x26
 2938 0fb2 01       		.uleb128 0x1
 2939 0fb3 50       		.byte	0x50
 2940 0fb4 02       		.uleb128 0x2
 2941 0fb5 74       		.byte	0x74
 2942 0fb6 00       		.sleb128 0
 2943 0fb7 00       		.byte	0
 2944 0fb8 00       		.byte	0
 2945 0fb9 3B       		.uleb128 0x3b
 2946 0fba C4010000 		.4byte	.LASF144
 2947 0fbe 01       		.byte	0x1
 2948 0fbf 6E01     		.2byte	0x16e
 2949 0fc1 10010000 		.4byte	0x110
 2950 0fc5 00000000 		.4byte	.LFB239
 2951 0fc9 36000000 		.4byte	.LFE239-.LFB239
 2952 0fcd 01       		.uleb128 0x1
 2953 0fce 9C       		.byte	0x9c
 2954 0fcf 1F100000 		.4byte	0x101f
 2955 0fd3 3A       		.uleb128 0x3a
 2956 0fd4 6F717000 		.ascii	"oqp\000"
 2957 0fd8 01       		.byte	0x1
 2958 0fd9 6E01     		.2byte	0x16e
 2959 0fdb E4080000 		.4byte	0x8e4
 2960 0fdf E3040000 		.4byte	.LLST38
 2961 0fe3 3D       		.uleb128 0x3d
 2962 0fe4 6200     		.ascii	"b\000"
 2963 0fe6 01       		.byte	0x1
 2964 0fe7 6F01     		.2byte	0x16f
ARM GAS  /var/folders/m4/4md61f0s1_g0rzfghffqnxvr0000gn/T//ccElzD9Y.s 			page 53


 2965 0fe9 A2000000 		.4byte	0xa2
 2966 0fed 1D050000 		.4byte	.LLST39
 2967 0ff1 3E       		.uleb128 0x3e
 2968 0ff2 EA080000 		.4byte	0x8ea
 2969 0ff6 02000000 		.4byte	.LBB191
 2970 0ffa A8000000 		.4byte	.Ldebug_ranges0+0xa8
 2971 0ffe 01       		.byte	0x1
 2972 0fff 7301     		.2byte	0x173
 2973 1001 0F100000 		.4byte	0x100f
 2974 1005 22       		.uleb128 0x22
 2975 1006 FB080000 		.4byte	0x8fb
 2976 100a 30050000 		.4byte	.LLST40
 2977 100e 00       		.byte	0
 2978 100f 29       		.uleb128 0x29
 2979 1010 26000000 		.4byte	.LVL67
 2980 1014 27120000 		.4byte	0x1227
 2981 1018 26       		.uleb128 0x26
 2982 1019 01       		.uleb128 0x1
 2983 101a 51       		.byte	0x51
 2984 101b 01       		.uleb128 0x1
 2985 101c 30       		.byte	0x30
 2986 101d 00       		.byte	0
 2987 101e 00       		.byte	0
 2988 101f 3F       		.uleb128 0x3f
 2989 1020 2B030000 		.4byte	.LASF145
 2990 1024 01       		.byte	0x1
 2991 1025 9A01     		.2byte	0x19a
 2992 1027 2C000000 		.4byte	0x2c
 2993 102b 00000000 		.4byte	.LFB240
 2994 102f 86000000 		.4byte	.LFE240-.LFB240
 2995 1033 01       		.uleb128 0x1
 2996 1034 9C       		.byte	0x9c
 2997 1035 EB110000 		.4byte	0x11eb
 2998 1039 3A       		.uleb128 0x3a
 2999 103a 6F717000 		.ascii	"oqp\000"
 3000 103e 01       		.byte	0x1
 3001 103f 9A01     		.2byte	0x19a
 3002 1041 E4080000 		.4byte	0x8e4
 3003 1045 5C050000 		.4byte	.LLST41
 3004 1049 3A       		.uleb128 0x3a
 3005 104a 627000   		.ascii	"bp\000"
 3006 104d 01       		.byte	0x1
 3007 104e 9A01     		.2byte	0x19a
 3008 1050 D3070000 		.4byte	0x7d3
 3009 1054 A6050000 		.4byte	.LLST42
 3010 1058 3A       		.uleb128 0x3a
 3011 1059 6E00     		.ascii	"n\000"
 3012 105b 01       		.byte	0x1
 3013 105c 9B01     		.2byte	0x19b
 3014 105e 2C000000 		.4byte	0x2c
 3015 1062 E5050000 		.4byte	.LLST43
 3016 1066 39       		.uleb128 0x39
 3017 1067 83020000 		.4byte	.LASF138
 3018 106b 01       		.byte	0x1
 3019 106c 9B01     		.2byte	0x19b
 3020 106e 31010000 		.4byte	0x131
 3021 1072 1B060000 		.4byte	.LLST44
ARM GAS  /var/folders/m4/4md61f0s1_g0rzfghffqnxvr0000gn/T//ccElzD9Y.s 			page 54


 3022 1076 40       		.uleb128 0x40
 3023 1077 6E667900 		.ascii	"nfy\000"
 3024 107b 01       		.byte	0x1
 3025 107c 9C01     		.2byte	0x19c
 3026 107e 90070000 		.4byte	0x790
 3027 1082 01       		.uleb128 0x1
 3028 1083 58       		.byte	0x58
 3029 1084 3D       		.uleb128 0x3d
 3030 1085 7700     		.ascii	"w\000"
 3031 1087 01       		.byte	0x1
 3032 1088 9D01     		.2byte	0x19d
 3033 108a 2C000000 		.4byte	0x2c
 3034 108e 3A060000 		.4byte	.LLST45
 3035 1092 33       		.uleb128 0x33
 3036 1093 A0040000 		.4byte	.LASF146
 3037 1097 FB110000 		.4byte	0x11fb
 3038 109b 3C       		.uleb128 0x3c
 3039 109c 6F080000 		.4byte	0x86f
 3040 10a0 12000000 		.4byte	.LBB195
 3041 10a4 08000000 		.4byte	.LBE195-.LBB195
 3042 10a8 01       		.byte	0x1
 3043 10a9 A101     		.2byte	0x1a1
 3044 10ab DB100000 		.4byte	0x10db
 3045 10af 23       		.uleb128 0x23
 3046 10b0 F8070000 		.4byte	0x7f8
 3047 10b4 12000000 		.4byte	.LBB196
 3048 10b8 08000000 		.4byte	.LBE196-.LBB196
 3049 10bc 10       		.byte	0x10
 3050 10bd 5C01     		.2byte	0x15c
 3051 10bf 23       		.uleb128 0x23
 3052 10c0 DE070000 		.4byte	0x7de
 3053 10c4 12000000 		.4byte	.LBB197
 3054 10c8 08000000 		.4byte	.LBE197-.LBB197
 3055 10cc 0B       		.byte	0xb
 3056 10cd D001     		.2byte	0x1d0
 3057 10cf 22       		.uleb128 0x22
 3058 10d0 EB070000 		.4byte	0x7eb
 3059 10d4 59060000 		.4byte	.LLST46
 3060 10d8 00       		.byte	0
 3061 10d9 00       		.byte	0
 3062 10da 00       		.byte	0
 3063 10db 3E       		.uleb128 0x3e
 3064 10dc 78080000 		.4byte	0x878
 3065 10e0 1C000000 		.4byte	.LBB199
 3066 10e4 C0000000 		.4byte	.Ldebug_ranges0+0xc0
 3067 10e8 01       		.byte	0x1
 3068 10e9 B301     		.2byte	0x1b3
 3069 10eb 26110000 		.4byte	0x1126
 3070 10ef 34       		.uleb128 0x34
 3071 10f0 C0000000 		.4byte	.Ldebug_ranges0+0xc0
 3072 10f4 2F       		.uleb128 0x2f
 3073 10f5 85080000 		.4byte	0x885
 3074 10f9 2B       		.uleb128 0x2b
 3075 10fa 01080000 		.4byte	0x801
 3076 10fe 1C000000 		.4byte	.LBB201
 3077 1102 C0000000 		.4byte	.Ldebug_ranges0+0xc0
 3078 1106 10       		.byte	0x10
ARM GAS  /var/folders/m4/4md61f0s1_g0rzfghffqnxvr0000gn/T//ccElzD9Y.s 			page 55


 3079 1107 7301     		.2byte	0x173
 3080 1109 2B       		.uleb128 0x2b
 3081 110a DE070000 		.4byte	0x7de
 3082 110e 1C000000 		.4byte	.LBB202
 3083 1112 C0000000 		.4byte	.Ldebug_ranges0+0xc0
 3084 1116 0B       		.byte	0xb
 3085 1117 E301     		.2byte	0x1e3
 3086 1119 22       		.uleb128 0x22
 3087 111a EB070000 		.4byte	0x7eb
 3088 111e 6E060000 		.4byte	.LLST47
 3089 1122 00       		.byte	0
 3090 1123 00       		.byte	0
 3091 1124 00       		.byte	0
 3092 1125 00       		.byte	0
 3093 1126 3E       		.uleb128 0x3e
 3094 1127 C6080000 		.4byte	0x8c6
 3095 112b 1E000000 		.4byte	.LBB208
 3096 112f D8000000 		.4byte	.Ldebug_ranges0+0xd8
 3097 1133 01       		.byte	0x1
 3098 1134 A301     		.2byte	0x1a3
 3099 1136 44110000 		.4byte	0x1144
 3100 113a 22       		.uleb128 0x22
 3101 113b D7080000 		.4byte	0x8d7
 3102 113f 82060000 		.4byte	.LLST48
 3103 1143 00       		.byte	0
 3104 1144 3C       		.uleb128 0x3c
 3105 1145 6F080000 		.4byte	0x86f
 3106 1149 58000000 		.4byte	.LBB212
 3107 114d 04000000 		.4byte	.LBE212-.LBB212
 3108 1151 01       		.byte	0x1
 3109 1152 B901     		.2byte	0x1b9
 3110 1154 84110000 		.4byte	0x1184
 3111 1158 23       		.uleb128 0x23
 3112 1159 F8070000 		.4byte	0x7f8
 3113 115d 58000000 		.4byte	.LBB213
 3114 1161 04000000 		.4byte	.LBE213-.LBB213
 3115 1165 10       		.byte	0x10
 3116 1166 5C01     		.2byte	0x15c
 3117 1168 23       		.uleb128 0x23
 3118 1169 DE070000 		.4byte	0x7de
 3119 116d 58000000 		.4byte	.LBB214
 3120 1171 04000000 		.4byte	.LBE214-.LBB214
 3121 1175 0B       		.byte	0xb
 3122 1176 D001     		.2byte	0x1d0
 3123 1178 22       		.uleb128 0x22
 3124 1179 EB070000 		.4byte	0x7eb
 3125 117d 95060000 		.4byte	.LLST49
 3126 1181 00       		.byte	0
 3127 1182 00       		.byte	0
 3128 1183 00       		.byte	0
 3129 1184 3C       		.uleb128 0x3c
 3130 1185 78080000 		.4byte	0x878
 3131 1189 7A000000 		.4byte	.LBB217
 3132 118d 04000000 		.4byte	.LBE217-.LBB217
 3133 1191 01       		.byte	0x1
 3134 1192 A501     		.2byte	0x1a5
 3135 1194 D3110000 		.4byte	0x11d3
ARM GAS  /var/folders/m4/4md61f0s1_g0rzfghffqnxvr0000gn/T//ccElzD9Y.s 			page 56


 3136 1198 2E       		.uleb128 0x2e
 3137 1199 7A000000 		.4byte	.LBB218
 3138 119d 04000000 		.4byte	.LBE218-.LBB218
 3139 11a1 2F       		.uleb128 0x2f
 3140 11a2 85080000 		.4byte	0x885
 3141 11a6 23       		.uleb128 0x23
 3142 11a7 01080000 		.4byte	0x801
 3143 11ab 7A000000 		.4byte	.LBB219
 3144 11af 04000000 		.4byte	.LBE219-.LBB219
 3145 11b3 10       		.byte	0x10
 3146 11b4 7301     		.2byte	0x173
 3147 11b6 23       		.uleb128 0x23
 3148 11b7 DE070000 		.4byte	0x7de
 3149 11bb 7A000000 		.4byte	.LBB220
 3150 11bf 04000000 		.4byte	.LBE220-.LBB220
 3151 11c3 0B       		.byte	0xb
 3152 11c4 E301     		.2byte	0x1e3
 3153 11c6 22       		.uleb128 0x22
 3154 11c7 EB070000 		.4byte	0x7eb
 3155 11cb AA060000 		.4byte	.LLST50
 3156 11cf 00       		.byte	0
 3157 11d0 00       		.byte	0
 3158 11d1 00       		.byte	0
 3159 11d2 00       		.byte	0
 3160 11d3 29       		.uleb128 0x29
 3161 11d4 74000000 		.4byte	.LVL86
 3162 11d8 32120000 		.4byte	0x1232
 3163 11dc 26       		.uleb128 0x26
 3164 11dd 01       		.uleb128 0x1
 3165 11de 50       		.byte	0x50
 3166 11df 02       		.uleb128 0x2
 3167 11e0 74       		.byte	0x74
 3168 11e1 00       		.sleb128 0
 3169 11e2 26       		.uleb128 0x26
 3170 11e3 01       		.uleb128 0x1
 3171 11e4 51       		.byte	0x51
 3172 11e5 03       		.uleb128 0x3
 3173 11e6 91       		.byte	0x91
 3174 11e7 54       		.sleb128 -44
 3175 11e8 06       		.byte	0x6
 3176 11e9 00       		.byte	0
 3177 11ea 00       		.byte	0
 3178 11eb 15       		.uleb128 0x15
 3179 11ec DB060000 		.4byte	0x6db
 3180 11f0 FB110000 		.4byte	0x11fb
 3181 11f4 16       		.uleb128 0x16
 3182 11f5 6A040000 		.4byte	0x46a
 3183 11f9 10       		.byte	0x10
 3184 11fa 00       		.byte	0
 3185 11fb 13       		.uleb128 0x13
 3186 11fc EB110000 		.4byte	0x11eb
 3187 1200 41       		.uleb128 0x41
 3188 1201 EE000000 		.4byte	.LASF147
 3189 1205 11       		.byte	0x11
 3190 1206 FA06     		.2byte	0x6fa
 3191 1208 0C120000 		.4byte	0x120c
 3192 120c 14       		.uleb128 0x14
ARM GAS  /var/folders/m4/4md61f0s1_g0rzfghffqnxvr0000gn/T//ccElzD9Y.s 			page 57


 3193 120d AD000000 		.4byte	0xad
 3194 1211 42       		.uleb128 0x42
 3195 1212 636800   		.ascii	"ch\000"
 3196 1215 02       		.byte	0x2
 3197 1216 0902     		.2byte	0x209
 3198 1218 03040000 		.4byte	0x403
 3199 121c 43       		.uleb128 0x43
 3200 121d 38000000 		.4byte	.LASF148
 3201 1221 38000000 		.4byte	.LASF148
 3202 1225 0F       		.byte	0xf
 3203 1226 94       		.byte	0x94
 3204 1227 43       		.uleb128 0x43
 3205 1228 EA020000 		.4byte	.LASF149
 3206 122c EA020000 		.4byte	.LASF149
 3207 1230 0F       		.byte	0xf
 3208 1231 93       		.byte	0x93
 3209 1232 43       		.uleb128 0x43
 3210 1233 71070000 		.4byte	.LASF150
 3211 1237 71070000 		.4byte	.LASF150
 3212 123b 0F       		.byte	0xf
 3213 123c 92       		.byte	0x92
 3214 123d 00       		.byte	0
 3215              		.section	.debug_abbrev,"",%progbits
 3216              	.Ldebug_abbrev0:
 3217 0000 01       		.uleb128 0x1
 3218 0001 11       		.uleb128 0x11
 3219 0002 01       		.byte	0x1
 3220 0003 25       		.uleb128 0x25
 3221 0004 0E       		.uleb128 0xe
 3222 0005 13       		.uleb128 0x13
 3223 0006 0B       		.uleb128 0xb
 3224 0007 03       		.uleb128 0x3
 3225 0008 0E       		.uleb128 0xe
 3226 0009 1B       		.uleb128 0x1b
 3227 000a 0E       		.uleb128 0xe
 3228 000b 55       		.uleb128 0x55
 3229 000c 17       		.uleb128 0x17
 3230 000d 11       		.uleb128 0x11
 3231 000e 01       		.uleb128 0x1
 3232 000f 10       		.uleb128 0x10
 3233 0010 17       		.uleb128 0x17
 3234 0011 00       		.byte	0
 3235 0012 00       		.byte	0
 3236 0013 02       		.uleb128 0x2
 3237 0014 24       		.uleb128 0x24
 3238 0015 00       		.byte	0
 3239 0016 0B       		.uleb128 0xb
 3240 0017 0B       		.uleb128 0xb
 3241 0018 3E       		.uleb128 0x3e
 3242 0019 0B       		.uleb128 0xb
 3243 001a 03       		.uleb128 0x3
 3244 001b 08       		.uleb128 0x8
 3245 001c 00       		.byte	0
 3246 001d 00       		.byte	0
 3247 001e 03       		.uleb128 0x3
 3248 001f 16       		.uleb128 0x16
 3249 0020 00       		.byte	0
ARM GAS  /var/folders/m4/4md61f0s1_g0rzfghffqnxvr0000gn/T//ccElzD9Y.s 			page 58


 3250 0021 03       		.uleb128 0x3
 3251 0022 0E       		.uleb128 0xe
 3252 0023 3A       		.uleb128 0x3a
 3253 0024 0B       		.uleb128 0xb
 3254 0025 3B       		.uleb128 0x3b
 3255 0026 0B       		.uleb128 0xb
 3256 0027 49       		.uleb128 0x49
 3257 0028 13       		.uleb128 0x13
 3258 0029 00       		.byte	0
 3259 002a 00       		.byte	0
 3260 002b 04       		.uleb128 0x4
 3261 002c 24       		.uleb128 0x24
 3262 002d 00       		.byte	0
 3263 002e 0B       		.uleb128 0xb
 3264 002f 0B       		.uleb128 0xb
 3265 0030 3E       		.uleb128 0x3e
 3266 0031 0B       		.uleb128 0xb
 3267 0032 03       		.uleb128 0x3
 3268 0033 0E       		.uleb128 0xe
 3269 0034 00       		.byte	0
 3270 0035 00       		.byte	0
 3271 0036 05       		.uleb128 0x5
 3272 0037 13       		.uleb128 0x13
 3273 0038 01       		.byte	0x1
 3274 0039 03       		.uleb128 0x3
 3275 003a 0E       		.uleb128 0xe
 3276 003b 0B       		.uleb128 0xb
 3277 003c 0B       		.uleb128 0xb
 3278 003d 3A       		.uleb128 0x3a
 3279 003e 0B       		.uleb128 0xb
 3280 003f 3B       		.uleb128 0x3b
 3281 0040 0B       		.uleb128 0xb
 3282 0041 01       		.uleb128 0x1
 3283 0042 13       		.uleb128 0x13
 3284 0043 00       		.byte	0
 3285 0044 00       		.byte	0
 3286 0045 06       		.uleb128 0x6
 3287 0046 0D       		.uleb128 0xd
 3288 0047 00       		.byte	0
 3289 0048 03       		.uleb128 0x3
 3290 0049 0E       		.uleb128 0xe
 3291 004a 3A       		.uleb128 0x3a
 3292 004b 0B       		.uleb128 0xb
 3293 004c 3B       		.uleb128 0x3b
 3294 004d 0B       		.uleb128 0xb
 3295 004e 49       		.uleb128 0x49
 3296 004f 13       		.uleb128 0x13
 3297 0050 38       		.uleb128 0x38
 3298 0051 0B       		.uleb128 0xb
 3299 0052 00       		.byte	0
 3300 0053 00       		.byte	0
 3301 0054 07       		.uleb128 0x7
 3302 0055 0D       		.uleb128 0xd
 3303 0056 00       		.byte	0
 3304 0057 03       		.uleb128 0x3
 3305 0058 08       		.uleb128 0x8
 3306 0059 3A       		.uleb128 0x3a
ARM GAS  /var/folders/m4/4md61f0s1_g0rzfghffqnxvr0000gn/T//ccElzD9Y.s 			page 59


 3307 005a 0B       		.uleb128 0xb
 3308 005b 3B       		.uleb128 0x3b
 3309 005c 05       		.uleb128 0x5
 3310 005d 49       		.uleb128 0x49
 3311 005e 13       		.uleb128 0x13
 3312 005f 38       		.uleb128 0x38
 3313 0060 0B       		.uleb128 0xb
 3314 0061 00       		.byte	0
 3315 0062 00       		.byte	0
 3316 0063 08       		.uleb128 0x8
 3317 0064 0D       		.uleb128 0xd
 3318 0065 00       		.byte	0
 3319 0066 03       		.uleb128 0x3
 3320 0067 0E       		.uleb128 0xe
 3321 0068 3A       		.uleb128 0x3a
 3322 0069 0B       		.uleb128 0xb
 3323 006a 3B       		.uleb128 0x3b
 3324 006b 05       		.uleb128 0x5
 3325 006c 49       		.uleb128 0x49
 3326 006d 13       		.uleb128 0x13
 3327 006e 38       		.uleb128 0x38
 3328 006f 0B       		.uleb128 0xb
 3329 0070 00       		.byte	0
 3330 0071 00       		.byte	0
 3331 0072 09       		.uleb128 0x9
 3332 0073 0F       		.uleb128 0xf
 3333 0074 00       		.byte	0
 3334 0075 0B       		.uleb128 0xb
 3335 0076 0B       		.uleb128 0xb
 3336 0077 49       		.uleb128 0x49
 3337 0078 13       		.uleb128 0x13
 3338 0079 00       		.byte	0
 3339 007a 00       		.byte	0
 3340 007b 0A       		.uleb128 0xa
 3341 007c 13       		.uleb128 0x13
 3342 007d 01       		.byte	0x1
 3343 007e 03       		.uleb128 0x3
 3344 007f 0E       		.uleb128 0xe
 3345 0080 0B       		.uleb128 0xb
 3346 0081 0B       		.uleb128 0xb
 3347 0082 3A       		.uleb128 0x3a
 3348 0083 0B       		.uleb128 0xb
 3349 0084 3B       		.uleb128 0x3b
 3350 0085 05       		.uleb128 0x5
 3351 0086 01       		.uleb128 0x1
 3352 0087 13       		.uleb128 0x13
 3353 0088 00       		.byte	0
 3354 0089 00       		.byte	0
 3355 008a 0B       		.uleb128 0xb
 3356 008b 15       		.uleb128 0x15
 3357 008c 01       		.byte	0x1
 3358 008d 27       		.uleb128 0x27
 3359 008e 19       		.uleb128 0x19
 3360 008f 01       		.uleb128 0x1
 3361 0090 13       		.uleb128 0x13
 3362 0091 00       		.byte	0
 3363 0092 00       		.byte	0
ARM GAS  /var/folders/m4/4md61f0s1_g0rzfghffqnxvr0000gn/T//ccElzD9Y.s 			page 60


 3364 0093 0C       		.uleb128 0xc
 3365 0094 05       		.uleb128 0x5
 3366 0095 00       		.byte	0
 3367 0096 49       		.uleb128 0x49
 3368 0097 13       		.uleb128 0x13
 3369 0098 00       		.byte	0
 3370 0099 00       		.byte	0
 3371 009a 0D       		.uleb128 0xd
 3372 009b 0F       		.uleb128 0xf
 3373 009c 00       		.byte	0
 3374 009d 0B       		.uleb128 0xb
 3375 009e 0B       		.uleb128 0xb
 3376 009f 00       		.byte	0
 3377 00a0 00       		.byte	0
 3378 00a1 0E       		.uleb128 0xe
 3379 00a2 13       		.uleb128 0x13
 3380 00a3 01       		.byte	0x1
 3381 00a4 03       		.uleb128 0x3
 3382 00a5 0E       		.uleb128 0xe
 3383 00a6 0B       		.uleb128 0xb
 3384 00a7 05       		.uleb128 0x5
 3385 00a8 3A       		.uleb128 0x3a
 3386 00a9 0B       		.uleb128 0xb
 3387 00aa 3B       		.uleb128 0x3b
 3388 00ab 05       		.uleb128 0x5
 3389 00ac 01       		.uleb128 0x1
 3390 00ad 13       		.uleb128 0x13
 3391 00ae 00       		.byte	0
 3392 00af 00       		.byte	0
 3393 00b0 0F       		.uleb128 0xf
 3394 00b1 0D       		.uleb128 0xd
 3395 00b2 00       		.byte	0
 3396 00b3 03       		.uleb128 0x3
 3397 00b4 08       		.uleb128 0x8
 3398 00b5 3A       		.uleb128 0x3a
 3399 00b6 0B       		.uleb128 0xb
 3400 00b7 3B       		.uleb128 0x3b
 3401 00b8 0B       		.uleb128 0xb
 3402 00b9 49       		.uleb128 0x49
 3403 00ba 13       		.uleb128 0x13
 3404 00bb 38       		.uleb128 0x38
 3405 00bc 0B       		.uleb128 0xb
 3406 00bd 00       		.byte	0
 3407 00be 00       		.byte	0
 3408 00bf 10       		.uleb128 0x10
 3409 00c0 13       		.uleb128 0x13
 3410 00c1 01       		.byte	0x1
 3411 00c2 0B       		.uleb128 0xb
 3412 00c3 0B       		.uleb128 0xb
 3413 00c4 3A       		.uleb128 0x3a
 3414 00c5 0B       		.uleb128 0xb
 3415 00c6 3B       		.uleb128 0x3b
 3416 00c7 0B       		.uleb128 0xb
 3417 00c8 01       		.uleb128 0x1
 3418 00c9 13       		.uleb128 0x13
 3419 00ca 00       		.byte	0
 3420 00cb 00       		.byte	0
ARM GAS  /var/folders/m4/4md61f0s1_g0rzfghffqnxvr0000gn/T//ccElzD9Y.s 			page 61


 3421 00cc 11       		.uleb128 0x11
 3422 00cd 17       		.uleb128 0x17
 3423 00ce 01       		.byte	0x1
 3424 00cf 0B       		.uleb128 0xb
 3425 00d0 0B       		.uleb128 0xb
 3426 00d1 3A       		.uleb128 0x3a
 3427 00d2 0B       		.uleb128 0xb
 3428 00d3 3B       		.uleb128 0x3b
 3429 00d4 0B       		.uleb128 0xb
 3430 00d5 01       		.uleb128 0x1
 3431 00d6 13       		.uleb128 0x13
 3432 00d7 00       		.byte	0
 3433 00d8 00       		.byte	0
 3434 00d9 12       		.uleb128 0x12
 3435 00da 0D       		.uleb128 0xd
 3436 00db 00       		.byte	0
 3437 00dc 03       		.uleb128 0x3
 3438 00dd 0E       		.uleb128 0xe
 3439 00de 3A       		.uleb128 0x3a
 3440 00df 0B       		.uleb128 0xb
 3441 00e0 3B       		.uleb128 0x3b
 3442 00e1 05       		.uleb128 0x5
 3443 00e2 49       		.uleb128 0x49
 3444 00e3 13       		.uleb128 0x13
 3445 00e4 00       		.byte	0
 3446 00e5 00       		.byte	0
 3447 00e6 13       		.uleb128 0x13
 3448 00e7 26       		.uleb128 0x26
 3449 00e8 00       		.byte	0
 3450 00e9 49       		.uleb128 0x49
 3451 00ea 13       		.uleb128 0x13
 3452 00eb 00       		.byte	0
 3453 00ec 00       		.byte	0
 3454 00ed 14       		.uleb128 0x14
 3455 00ee 35       		.uleb128 0x35
 3456 00ef 00       		.byte	0
 3457 00f0 49       		.uleb128 0x49
 3458 00f1 13       		.uleb128 0x13
 3459 00f2 00       		.byte	0
 3460 00f3 00       		.byte	0
 3461 00f4 15       		.uleb128 0x15
 3462 00f5 01       		.uleb128 0x1
 3463 00f6 01       		.byte	0x1
 3464 00f7 49       		.uleb128 0x49
 3465 00f8 13       		.uleb128 0x13
 3466 00f9 01       		.uleb128 0x1
 3467 00fa 13       		.uleb128 0x13
 3468 00fb 00       		.byte	0
 3469 00fc 00       		.byte	0
 3470 00fd 16       		.uleb128 0x16
 3471 00fe 21       		.uleb128 0x21
 3472 00ff 00       		.byte	0
 3473 0100 49       		.uleb128 0x49
 3474 0101 13       		.uleb128 0x13
 3475 0102 2F       		.uleb128 0x2f
 3476 0103 0B       		.uleb128 0xb
 3477 0104 00       		.byte	0
ARM GAS  /var/folders/m4/4md61f0s1_g0rzfghffqnxvr0000gn/T//ccElzD9Y.s 			page 62


 3478 0105 00       		.byte	0
 3479 0106 17       		.uleb128 0x17
 3480 0107 2E       		.uleb128 0x2e
 3481 0108 01       		.byte	0x1
 3482 0109 03       		.uleb128 0x3
 3483 010a 0E       		.uleb128 0xe
 3484 010b 3A       		.uleb128 0x3a
 3485 010c 0B       		.uleb128 0xb
 3486 010d 3B       		.uleb128 0x3b
 3487 010e 05       		.uleb128 0x5
 3488 010f 27       		.uleb128 0x27
 3489 0110 19       		.uleb128 0x19
 3490 0111 20       		.uleb128 0x20
 3491 0112 0B       		.uleb128 0xb
 3492 0113 01       		.uleb128 0x1
 3493 0114 13       		.uleb128 0x13
 3494 0115 00       		.byte	0
 3495 0116 00       		.byte	0
 3496 0117 18       		.uleb128 0x18
 3497 0118 05       		.uleb128 0x5
 3498 0119 00       		.byte	0
 3499 011a 03       		.uleb128 0x3
 3500 011b 0E       		.uleb128 0xe
 3501 011c 3A       		.uleb128 0x3a
 3502 011d 0B       		.uleb128 0xb
 3503 011e 3B       		.uleb128 0x3b
 3504 011f 05       		.uleb128 0x5
 3505 0120 49       		.uleb128 0x49
 3506 0121 13       		.uleb128 0x13
 3507 0122 00       		.byte	0
 3508 0123 00       		.byte	0
 3509 0124 19       		.uleb128 0x19
 3510 0125 2E       		.uleb128 0x2e
 3511 0126 00       		.byte	0
 3512 0127 03       		.uleb128 0x3
 3513 0128 0E       		.uleb128 0xe
 3514 0129 3A       		.uleb128 0x3a
 3515 012a 0B       		.uleb128 0xb
 3516 012b 3B       		.uleb128 0x3b
 3517 012c 05       		.uleb128 0x5
 3518 012d 27       		.uleb128 0x27
 3519 012e 19       		.uleb128 0x19
 3520 012f 20       		.uleb128 0x20
 3521 0130 0B       		.uleb128 0xb
 3522 0131 00       		.byte	0
 3523 0132 00       		.byte	0
 3524 0133 1A       		.uleb128 0x1a
 3525 0134 05       		.uleb128 0x5
 3526 0135 00       		.byte	0
 3527 0136 03       		.uleb128 0x3
 3528 0137 08       		.uleb128 0x8
 3529 0138 3A       		.uleb128 0x3a
 3530 0139 0B       		.uleb128 0xb
 3531 013a 3B       		.uleb128 0x3b
 3532 013b 05       		.uleb128 0x5
 3533 013c 49       		.uleb128 0x49
 3534 013d 13       		.uleb128 0x13
ARM GAS  /var/folders/m4/4md61f0s1_g0rzfghffqnxvr0000gn/T//ccElzD9Y.s 			page 63


 3535 013e 00       		.byte	0
 3536 013f 00       		.byte	0
 3537 0140 1B       		.uleb128 0x1b
 3538 0141 2E       		.uleb128 0x2e
 3539 0142 01       		.byte	0x1
 3540 0143 03       		.uleb128 0x3
 3541 0144 0E       		.uleb128 0xe
 3542 0145 3A       		.uleb128 0x3a
 3543 0146 0B       		.uleb128 0xb
 3544 0147 3B       		.uleb128 0x3b
 3545 0148 05       		.uleb128 0x5
 3546 0149 27       		.uleb128 0x27
 3547 014a 19       		.uleb128 0x19
 3548 014b 49       		.uleb128 0x49
 3549 014c 13       		.uleb128 0x13
 3550 014d 20       		.uleb128 0x20
 3551 014e 0B       		.uleb128 0xb
 3552 014f 01       		.uleb128 0x1
 3553 0150 13       		.uleb128 0x13
 3554 0151 00       		.byte	0
 3555 0152 00       		.byte	0
 3556 0153 1C       		.uleb128 0x1c
 3557 0154 34       		.uleb128 0x34
 3558 0155 00       		.byte	0
 3559 0156 03       		.uleb128 0x3
 3560 0157 0E       		.uleb128 0xe
 3561 0158 49       		.uleb128 0x49
 3562 0159 13       		.uleb128 0x13
 3563 015a 34       		.uleb128 0x34
 3564 015b 19       		.uleb128 0x19
 3565 015c 1C       		.uleb128 0x1c
 3566 015d 0E       		.uleb128 0xe
 3567 015e 00       		.byte	0
 3568 015f 00       		.byte	0
 3569 0160 1D       		.uleb128 0x1d
 3570 0161 2E       		.uleb128 0x2e
 3571 0162 01       		.byte	0x1
 3572 0163 3F       		.uleb128 0x3f
 3573 0164 19       		.uleb128 0x19
 3574 0165 03       		.uleb128 0x3
 3575 0166 0E       		.uleb128 0xe
 3576 0167 3A       		.uleb128 0x3a
 3577 0168 0B       		.uleb128 0xb
 3578 0169 3B       		.uleb128 0x3b
 3579 016a 0B       		.uleb128 0xb
 3580 016b 27       		.uleb128 0x27
 3581 016c 19       		.uleb128 0x19
 3582 016d 11       		.uleb128 0x11
 3583 016e 01       		.uleb128 0x1
 3584 016f 12       		.uleb128 0x12
 3585 0170 06       		.uleb128 0x6
 3586 0171 40       		.uleb128 0x40
 3587 0172 18       		.uleb128 0x18
 3588 0173 9742     		.uleb128 0x2117
 3589 0175 19       		.uleb128 0x19
 3590 0176 01       		.uleb128 0x1
 3591 0177 13       		.uleb128 0x13
ARM GAS  /var/folders/m4/4md61f0s1_g0rzfghffqnxvr0000gn/T//ccElzD9Y.s 			page 64


 3592 0178 00       		.byte	0
 3593 0179 00       		.byte	0
 3594 017a 1E       		.uleb128 0x1e
 3595 017b 05       		.uleb128 0x5
 3596 017c 00       		.byte	0
 3597 017d 03       		.uleb128 0x3
 3598 017e 08       		.uleb128 0x8
 3599 017f 3A       		.uleb128 0x3a
 3600 0180 0B       		.uleb128 0xb
 3601 0181 3B       		.uleb128 0x3b
 3602 0182 0B       		.uleb128 0xb
 3603 0183 49       		.uleb128 0x49
 3604 0184 13       		.uleb128 0x13
 3605 0185 02       		.uleb128 0x2
 3606 0186 18       		.uleb128 0x18
 3607 0187 00       		.byte	0
 3608 0188 00       		.byte	0
 3609 0189 1F       		.uleb128 0x1f
 3610 018a 05       		.uleb128 0x5
 3611 018b 00       		.byte	0
 3612 018c 03       		.uleb128 0x3
 3613 018d 0E       		.uleb128 0xe
 3614 018e 3A       		.uleb128 0x3a
 3615 018f 0B       		.uleb128 0xb
 3616 0190 3B       		.uleb128 0x3b
 3617 0191 0B       		.uleb128 0xb
 3618 0192 49       		.uleb128 0x49
 3619 0193 13       		.uleb128 0x13
 3620 0194 02       		.uleb128 0x2
 3621 0195 17       		.uleb128 0x17
 3622 0196 00       		.byte	0
 3623 0197 00       		.byte	0
 3624 0198 20       		.uleb128 0x20
 3625 0199 05       		.uleb128 0x5
 3626 019a 00       		.byte	0
 3627 019b 03       		.uleb128 0x3
 3628 019c 0E       		.uleb128 0xe
 3629 019d 3A       		.uleb128 0x3a
 3630 019e 0B       		.uleb128 0xb
 3631 019f 3B       		.uleb128 0x3b
 3632 01a0 0B       		.uleb128 0xb
 3633 01a1 49       		.uleb128 0x49
 3634 01a2 13       		.uleb128 0x13
 3635 01a3 02       		.uleb128 0x2
 3636 01a4 18       		.uleb128 0x18
 3637 01a5 00       		.byte	0
 3638 01a6 00       		.byte	0
 3639 01a7 21       		.uleb128 0x21
 3640 01a8 1D       		.uleb128 0x1d
 3641 01a9 01       		.byte	0x1
 3642 01aa 31       		.uleb128 0x31
 3643 01ab 13       		.uleb128 0x13
 3644 01ac 11       		.uleb128 0x11
 3645 01ad 01       		.uleb128 0x1
 3646 01ae 12       		.uleb128 0x12
 3647 01af 06       		.uleb128 0x6
 3648 01b0 58       		.uleb128 0x58
ARM GAS  /var/folders/m4/4md61f0s1_g0rzfghffqnxvr0000gn/T//ccElzD9Y.s 			page 65


 3649 01b1 0B       		.uleb128 0xb
 3650 01b2 59       		.uleb128 0x59
 3651 01b3 0B       		.uleb128 0xb
 3652 01b4 00       		.byte	0
 3653 01b5 00       		.byte	0
 3654 01b6 22       		.uleb128 0x22
 3655 01b7 05       		.uleb128 0x5
 3656 01b8 00       		.byte	0
 3657 01b9 31       		.uleb128 0x31
 3658 01ba 13       		.uleb128 0x13
 3659 01bb 02       		.uleb128 0x2
 3660 01bc 17       		.uleb128 0x17
 3661 01bd 00       		.byte	0
 3662 01be 00       		.byte	0
 3663 01bf 23       		.uleb128 0x23
 3664 01c0 1D       		.uleb128 0x1d
 3665 01c1 01       		.byte	0x1
 3666 01c2 31       		.uleb128 0x31
 3667 01c3 13       		.uleb128 0x13
 3668 01c4 11       		.uleb128 0x11
 3669 01c5 01       		.uleb128 0x1
 3670 01c6 12       		.uleb128 0x12
 3671 01c7 06       		.uleb128 0x6
 3672 01c8 58       		.uleb128 0x58
 3673 01c9 0B       		.uleb128 0xb
 3674 01ca 59       		.uleb128 0x59
 3675 01cb 05       		.uleb128 0x5
 3676 01cc 00       		.byte	0
 3677 01cd 00       		.byte	0
 3678 01ce 24       		.uleb128 0x24
 3679 01cf 05       		.uleb128 0x5
 3680 01d0 00       		.byte	0
 3681 01d1 03       		.uleb128 0x3
 3682 01d2 08       		.uleb128 0x8
 3683 01d3 3A       		.uleb128 0x3a
 3684 01d4 0B       		.uleb128 0xb
 3685 01d5 3B       		.uleb128 0x3b
 3686 01d6 0B       		.uleb128 0xb
 3687 01d7 49       		.uleb128 0x49
 3688 01d8 13       		.uleb128 0x13
 3689 01d9 02       		.uleb128 0x2
 3690 01da 17       		.uleb128 0x17
 3691 01db 00       		.byte	0
 3692 01dc 00       		.byte	0
 3693 01dd 25       		.uleb128 0x25
 3694 01de 898201   		.uleb128 0x4109
 3695 01e1 01       		.byte	0x1
 3696 01e2 11       		.uleb128 0x11
 3697 01e3 01       		.uleb128 0x1
 3698 01e4 9542     		.uleb128 0x2115
 3699 01e6 19       		.uleb128 0x19
 3700 01e7 31       		.uleb128 0x31
 3701 01e8 13       		.uleb128 0x13
 3702 01e9 00       		.byte	0
 3703 01ea 00       		.byte	0
 3704 01eb 26       		.uleb128 0x26
 3705 01ec 8A8201   		.uleb128 0x410a
ARM GAS  /var/folders/m4/4md61f0s1_g0rzfghffqnxvr0000gn/T//ccElzD9Y.s 			page 66


 3706 01ef 00       		.byte	0
 3707 01f0 02       		.uleb128 0x2
 3708 01f1 18       		.uleb128 0x18
 3709 01f2 9142     		.uleb128 0x2111
 3710 01f4 18       		.uleb128 0x18
 3711 01f5 00       		.byte	0
 3712 01f6 00       		.byte	0
 3713 01f7 27       		.uleb128 0x27
 3714 01f8 2E       		.uleb128 0x2e
 3715 01f9 01       		.byte	0x1
 3716 01fa 3F       		.uleb128 0x3f
 3717 01fb 19       		.uleb128 0x19
 3718 01fc 03       		.uleb128 0x3
 3719 01fd 0E       		.uleb128 0xe
 3720 01fe 3A       		.uleb128 0x3a
 3721 01ff 0B       		.uleb128 0xb
 3722 0200 3B       		.uleb128 0x3b
 3723 0201 0B       		.uleb128 0xb
 3724 0202 27       		.uleb128 0x27
 3725 0203 19       		.uleb128 0x19
 3726 0204 49       		.uleb128 0x49
 3727 0205 13       		.uleb128 0x13
 3728 0206 11       		.uleb128 0x11
 3729 0207 01       		.uleb128 0x1
 3730 0208 12       		.uleb128 0x12
 3731 0209 06       		.uleb128 0x6
 3732 020a 40       		.uleb128 0x40
 3733 020b 18       		.uleb128 0x18
 3734 020c 9742     		.uleb128 0x2117
 3735 020e 19       		.uleb128 0x19
 3736 020f 01       		.uleb128 0x1
 3737 0210 13       		.uleb128 0x13
 3738 0211 00       		.byte	0
 3739 0212 00       		.byte	0
 3740 0213 28       		.uleb128 0x28
 3741 0214 1D       		.uleb128 0x1d
 3742 0215 01       		.byte	0x1
 3743 0216 31       		.uleb128 0x31
 3744 0217 13       		.uleb128 0x13
 3745 0218 52       		.uleb128 0x52
 3746 0219 01       		.uleb128 0x1
 3747 021a 55       		.uleb128 0x55
 3748 021b 17       		.uleb128 0x17
 3749 021c 58       		.uleb128 0x58
 3750 021d 0B       		.uleb128 0xb
 3751 021e 59       		.uleb128 0x59
 3752 021f 0B       		.uleb128 0xb
 3753 0220 01       		.uleb128 0x1
 3754 0221 13       		.uleb128 0x13
 3755 0222 00       		.byte	0
 3756 0223 00       		.byte	0
 3757 0224 29       		.uleb128 0x29
 3758 0225 898201   		.uleb128 0x4109
 3759 0228 01       		.byte	0x1
 3760 0229 11       		.uleb128 0x11
 3761 022a 01       		.uleb128 0x1
 3762 022b 31       		.uleb128 0x31
ARM GAS  /var/folders/m4/4md61f0s1_g0rzfghffqnxvr0000gn/T//ccElzD9Y.s 			page 67


 3763 022c 13       		.uleb128 0x13
 3764 022d 00       		.byte	0
 3765 022e 00       		.byte	0
 3766 022f 2A       		.uleb128 0x2a
 3767 0230 34       		.uleb128 0x34
 3768 0231 00       		.byte	0
 3769 0232 03       		.uleb128 0x3
 3770 0233 08       		.uleb128 0x8
 3771 0234 3A       		.uleb128 0x3a
 3772 0235 0B       		.uleb128 0xb
 3773 0236 3B       		.uleb128 0x3b
 3774 0237 0B       		.uleb128 0xb
 3775 0238 49       		.uleb128 0x49
 3776 0239 13       		.uleb128 0x13
 3777 023a 02       		.uleb128 0x2
 3778 023b 17       		.uleb128 0x17
 3779 023c 00       		.byte	0
 3780 023d 00       		.byte	0
 3781 023e 2B       		.uleb128 0x2b
 3782 023f 1D       		.uleb128 0x1d
 3783 0240 01       		.byte	0x1
 3784 0241 31       		.uleb128 0x31
 3785 0242 13       		.uleb128 0x13
 3786 0243 52       		.uleb128 0x52
 3787 0244 01       		.uleb128 0x1
 3788 0245 55       		.uleb128 0x55
 3789 0246 17       		.uleb128 0x17
 3790 0247 58       		.uleb128 0x58
 3791 0248 0B       		.uleb128 0xb
 3792 0249 59       		.uleb128 0x59
 3793 024a 05       		.uleb128 0x5
 3794 024b 00       		.byte	0
 3795 024c 00       		.byte	0
 3796 024d 2C       		.uleb128 0x2c
 3797 024e 0B       		.uleb128 0xb
 3798 024f 01       		.byte	0x1
 3799 0250 55       		.uleb128 0x55
 3800 0251 17       		.uleb128 0x17
 3801 0252 01       		.uleb128 0x1
 3802 0253 13       		.uleb128 0x13
 3803 0254 00       		.byte	0
 3804 0255 00       		.byte	0
 3805 0256 2D       		.uleb128 0x2d
 3806 0257 1D       		.uleb128 0x1d
 3807 0258 01       		.byte	0x1
 3808 0259 31       		.uleb128 0x31
 3809 025a 13       		.uleb128 0x13
 3810 025b 11       		.uleb128 0x11
 3811 025c 01       		.uleb128 0x1
 3812 025d 12       		.uleb128 0x12
 3813 025e 06       		.uleb128 0x6
 3814 025f 58       		.uleb128 0x58
 3815 0260 0B       		.uleb128 0xb
 3816 0261 59       		.uleb128 0x59
 3817 0262 0B       		.uleb128 0xb
 3818 0263 01       		.uleb128 0x1
 3819 0264 13       		.uleb128 0x13
ARM GAS  /var/folders/m4/4md61f0s1_g0rzfghffqnxvr0000gn/T//ccElzD9Y.s 			page 68


 3820 0265 00       		.byte	0
 3821 0266 00       		.byte	0
 3822 0267 2E       		.uleb128 0x2e
 3823 0268 0B       		.uleb128 0xb
 3824 0269 01       		.byte	0x1
 3825 026a 11       		.uleb128 0x11
 3826 026b 01       		.uleb128 0x1
 3827 026c 12       		.uleb128 0x12
 3828 026d 06       		.uleb128 0x6
 3829 026e 00       		.byte	0
 3830 026f 00       		.byte	0
 3831 0270 2F       		.uleb128 0x2f
 3832 0271 34       		.uleb128 0x34
 3833 0272 00       		.byte	0
 3834 0273 31       		.uleb128 0x31
 3835 0274 13       		.uleb128 0x13
 3836 0275 00       		.byte	0
 3837 0276 00       		.byte	0
 3838 0277 30       		.uleb128 0x30
 3839 0278 898201   		.uleb128 0x4109
 3840 027b 00       		.byte	0
 3841 027c 11       		.uleb128 0x11
 3842 027d 01       		.uleb128 0x1
 3843 027e 31       		.uleb128 0x31
 3844 027f 13       		.uleb128 0x13
 3845 0280 00       		.byte	0
 3846 0281 00       		.byte	0
 3847 0282 31       		.uleb128 0x31
 3848 0283 898201   		.uleb128 0x4109
 3849 0286 01       		.byte	0x1
 3850 0287 11       		.uleb128 0x11
 3851 0288 01       		.uleb128 0x1
 3852 0289 00       		.byte	0
 3853 028a 00       		.byte	0
 3854 028b 32       		.uleb128 0x32
 3855 028c 34       		.uleb128 0x34
 3856 028d 00       		.byte	0
 3857 028e 03       		.uleb128 0x3
 3858 028f 08       		.uleb128 0x8
 3859 0290 3A       		.uleb128 0x3a
 3860 0291 0B       		.uleb128 0xb
 3861 0292 3B       		.uleb128 0x3b
 3862 0293 0B       		.uleb128 0xb
 3863 0294 49       		.uleb128 0x49
 3864 0295 13       		.uleb128 0x13
 3865 0296 02       		.uleb128 0x2
 3866 0297 18       		.uleb128 0x18
 3867 0298 00       		.byte	0
 3868 0299 00       		.byte	0
 3869 029a 33       		.uleb128 0x33
 3870 029b 34       		.uleb128 0x34
 3871 029c 00       		.byte	0
 3872 029d 03       		.uleb128 0x3
 3873 029e 0E       		.uleb128 0xe
 3874 029f 49       		.uleb128 0x49
 3875 02a0 13       		.uleb128 0x13
 3876 02a1 34       		.uleb128 0x34
ARM GAS  /var/folders/m4/4md61f0s1_g0rzfghffqnxvr0000gn/T//ccElzD9Y.s 			page 69


 3877 02a2 19       		.uleb128 0x19
 3878 02a3 00       		.byte	0
 3879 02a4 00       		.byte	0
 3880 02a5 34       		.uleb128 0x34
 3881 02a6 0B       		.uleb128 0xb
 3882 02a7 01       		.byte	0x1
 3883 02a8 55       		.uleb128 0x55
 3884 02a9 17       		.uleb128 0x17
 3885 02aa 00       		.byte	0
 3886 02ab 00       		.byte	0
 3887 02ac 35       		.uleb128 0x35
 3888 02ad 898201   		.uleb128 0x4109
 3889 02b0 01       		.byte	0x1
 3890 02b1 11       		.uleb128 0x11
 3891 02b2 01       		.uleb128 0x1
 3892 02b3 01       		.uleb128 0x1
 3893 02b4 13       		.uleb128 0x13
 3894 02b5 00       		.byte	0
 3895 02b6 00       		.byte	0
 3896 02b7 36       		.uleb128 0x36
 3897 02b8 2E       		.uleb128 0x2e
 3898 02b9 01       		.byte	0x1
 3899 02ba 3F       		.uleb128 0x3f
 3900 02bb 19       		.uleb128 0x19
 3901 02bc 03       		.uleb128 0x3
 3902 02bd 0E       		.uleb128 0xe
 3903 02be 3A       		.uleb128 0x3a
 3904 02bf 0B       		.uleb128 0xb
 3905 02c0 3B       		.uleb128 0x3b
 3906 02c1 05       		.uleb128 0x5
 3907 02c2 27       		.uleb128 0x27
 3908 02c3 19       		.uleb128 0x19
 3909 02c4 11       		.uleb128 0x11
 3910 02c5 01       		.uleb128 0x1
 3911 02c6 12       		.uleb128 0x12
 3912 02c7 06       		.uleb128 0x6
 3913 02c8 40       		.uleb128 0x40
 3914 02c9 18       		.uleb128 0x18
 3915 02ca 9742     		.uleb128 0x2117
 3916 02cc 19       		.uleb128 0x19
 3917 02cd 01       		.uleb128 0x1
 3918 02ce 13       		.uleb128 0x13
 3919 02cf 00       		.byte	0
 3920 02d0 00       		.byte	0
 3921 02d1 37       		.uleb128 0x37
 3922 02d2 05       		.uleb128 0x5
 3923 02d3 00       		.byte	0
 3924 02d4 03       		.uleb128 0x3
 3925 02d5 08       		.uleb128 0x8
 3926 02d6 3A       		.uleb128 0x3a
 3927 02d7 0B       		.uleb128 0xb
 3928 02d8 3B       		.uleb128 0x3b
 3929 02d9 05       		.uleb128 0x5
 3930 02da 49       		.uleb128 0x49
 3931 02db 13       		.uleb128 0x13
 3932 02dc 02       		.uleb128 0x2
 3933 02dd 18       		.uleb128 0x18
ARM GAS  /var/folders/m4/4md61f0s1_g0rzfghffqnxvr0000gn/T//ccElzD9Y.s 			page 70


 3934 02de 00       		.byte	0
 3935 02df 00       		.byte	0
 3936 02e0 38       		.uleb128 0x38
 3937 02e1 05       		.uleb128 0x5
 3938 02e2 00       		.byte	0
 3939 02e3 03       		.uleb128 0x3
 3940 02e4 0E       		.uleb128 0xe
 3941 02e5 3A       		.uleb128 0x3a
 3942 02e6 0B       		.uleb128 0xb
 3943 02e7 3B       		.uleb128 0x3b
 3944 02e8 05       		.uleb128 0x5
 3945 02e9 49       		.uleb128 0x49
 3946 02ea 13       		.uleb128 0x13
 3947 02eb 02       		.uleb128 0x2
 3948 02ec 18       		.uleb128 0x18
 3949 02ed 00       		.byte	0
 3950 02ee 00       		.byte	0
 3951 02ef 39       		.uleb128 0x39
 3952 02f0 05       		.uleb128 0x5
 3953 02f1 00       		.byte	0
 3954 02f2 03       		.uleb128 0x3
 3955 02f3 0E       		.uleb128 0xe
 3956 02f4 3A       		.uleb128 0x3a
 3957 02f5 0B       		.uleb128 0xb
 3958 02f6 3B       		.uleb128 0x3b
 3959 02f7 05       		.uleb128 0x5
 3960 02f8 49       		.uleb128 0x49
 3961 02f9 13       		.uleb128 0x13
 3962 02fa 02       		.uleb128 0x2
 3963 02fb 17       		.uleb128 0x17
 3964 02fc 00       		.byte	0
 3965 02fd 00       		.byte	0
 3966 02fe 3A       		.uleb128 0x3a
 3967 02ff 05       		.uleb128 0x5
 3968 0300 00       		.byte	0
 3969 0301 03       		.uleb128 0x3
 3970 0302 08       		.uleb128 0x8
 3971 0303 3A       		.uleb128 0x3a
 3972 0304 0B       		.uleb128 0xb
 3973 0305 3B       		.uleb128 0x3b
 3974 0306 05       		.uleb128 0x5
 3975 0307 49       		.uleb128 0x49
 3976 0308 13       		.uleb128 0x13
 3977 0309 02       		.uleb128 0x2
 3978 030a 17       		.uleb128 0x17
 3979 030b 00       		.byte	0
 3980 030c 00       		.byte	0
 3981 030d 3B       		.uleb128 0x3b
 3982 030e 2E       		.uleb128 0x2e
 3983 030f 01       		.byte	0x1
 3984 0310 3F       		.uleb128 0x3f
 3985 0311 19       		.uleb128 0x19
 3986 0312 03       		.uleb128 0x3
 3987 0313 0E       		.uleb128 0xe
 3988 0314 3A       		.uleb128 0x3a
 3989 0315 0B       		.uleb128 0xb
 3990 0316 3B       		.uleb128 0x3b
ARM GAS  /var/folders/m4/4md61f0s1_g0rzfghffqnxvr0000gn/T//ccElzD9Y.s 			page 71


 3991 0317 05       		.uleb128 0x5
 3992 0318 27       		.uleb128 0x27
 3993 0319 19       		.uleb128 0x19
 3994 031a 49       		.uleb128 0x49
 3995 031b 13       		.uleb128 0x13
 3996 031c 11       		.uleb128 0x11
 3997 031d 01       		.uleb128 0x1
 3998 031e 12       		.uleb128 0x12
 3999 031f 06       		.uleb128 0x6
 4000 0320 40       		.uleb128 0x40
 4001 0321 18       		.uleb128 0x18
 4002 0322 9742     		.uleb128 0x2117
 4003 0324 19       		.uleb128 0x19
 4004 0325 01       		.uleb128 0x1
 4005 0326 13       		.uleb128 0x13
 4006 0327 00       		.byte	0
 4007 0328 00       		.byte	0
 4008 0329 3C       		.uleb128 0x3c
 4009 032a 1D       		.uleb128 0x1d
 4010 032b 01       		.byte	0x1
 4011 032c 31       		.uleb128 0x31
 4012 032d 13       		.uleb128 0x13
 4013 032e 11       		.uleb128 0x11
 4014 032f 01       		.uleb128 0x1
 4015 0330 12       		.uleb128 0x12
 4016 0331 06       		.uleb128 0x6
 4017 0332 58       		.uleb128 0x58
 4018 0333 0B       		.uleb128 0xb
 4019 0334 59       		.uleb128 0x59
 4020 0335 05       		.uleb128 0x5
 4021 0336 01       		.uleb128 0x1
 4022 0337 13       		.uleb128 0x13
 4023 0338 00       		.byte	0
 4024 0339 00       		.byte	0
 4025 033a 3D       		.uleb128 0x3d
 4026 033b 34       		.uleb128 0x34
 4027 033c 00       		.byte	0
 4028 033d 03       		.uleb128 0x3
 4029 033e 08       		.uleb128 0x8
 4030 033f 3A       		.uleb128 0x3a
 4031 0340 0B       		.uleb128 0xb
 4032 0341 3B       		.uleb128 0x3b
 4033 0342 05       		.uleb128 0x5
 4034 0343 49       		.uleb128 0x49
 4035 0344 13       		.uleb128 0x13
 4036 0345 02       		.uleb128 0x2
 4037 0346 17       		.uleb128 0x17
 4038 0347 00       		.byte	0
 4039 0348 00       		.byte	0
 4040 0349 3E       		.uleb128 0x3e
 4041 034a 1D       		.uleb128 0x1d
 4042 034b 01       		.byte	0x1
 4043 034c 31       		.uleb128 0x31
 4044 034d 13       		.uleb128 0x13
 4045 034e 52       		.uleb128 0x52
 4046 034f 01       		.uleb128 0x1
 4047 0350 55       		.uleb128 0x55
ARM GAS  /var/folders/m4/4md61f0s1_g0rzfghffqnxvr0000gn/T//ccElzD9Y.s 			page 72


 4048 0351 17       		.uleb128 0x17
 4049 0352 58       		.uleb128 0x58
 4050 0353 0B       		.uleb128 0xb
 4051 0354 59       		.uleb128 0x59
 4052 0355 05       		.uleb128 0x5
 4053 0356 01       		.uleb128 0x1
 4054 0357 13       		.uleb128 0x13
 4055 0358 00       		.byte	0
 4056 0359 00       		.byte	0
 4057 035a 3F       		.uleb128 0x3f
 4058 035b 2E       		.uleb128 0x2e
 4059 035c 01       		.byte	0x1
 4060 035d 3F       		.uleb128 0x3f
 4061 035e 19       		.uleb128 0x19
 4062 035f 03       		.uleb128 0x3
 4063 0360 0E       		.uleb128 0xe
 4064 0361 3A       		.uleb128 0x3a
 4065 0362 0B       		.uleb128 0xb
 4066 0363 3B       		.uleb128 0x3b
 4067 0364 05       		.uleb128 0x5
 4068 0365 27       		.uleb128 0x27
 4069 0366 19       		.uleb128 0x19
 4070 0367 49       		.uleb128 0x49
 4071 0368 13       		.uleb128 0x13
 4072 0369 11       		.uleb128 0x11
 4073 036a 01       		.uleb128 0x1
 4074 036b 12       		.uleb128 0x12
 4075 036c 06       		.uleb128 0x6
 4076 036d 40       		.uleb128 0x40
 4077 036e 18       		.uleb128 0x18
 4078 036f 9642     		.uleb128 0x2116
 4079 0371 19       		.uleb128 0x19
 4080 0372 01       		.uleb128 0x1
 4081 0373 13       		.uleb128 0x13
 4082 0374 00       		.byte	0
 4083 0375 00       		.byte	0
 4084 0376 40       		.uleb128 0x40
 4085 0377 34       		.uleb128 0x34
 4086 0378 00       		.byte	0
 4087 0379 03       		.uleb128 0x3
 4088 037a 08       		.uleb128 0x8
 4089 037b 3A       		.uleb128 0x3a
 4090 037c 0B       		.uleb128 0xb
 4091 037d 3B       		.uleb128 0x3b
 4092 037e 05       		.uleb128 0x5
 4093 037f 49       		.uleb128 0x49
 4094 0380 13       		.uleb128 0x13
 4095 0381 02       		.uleb128 0x2
 4096 0382 18       		.uleb128 0x18
 4097 0383 00       		.byte	0
 4098 0384 00       		.byte	0
 4099 0385 41       		.uleb128 0x41
 4100 0386 34       		.uleb128 0x34
 4101 0387 00       		.byte	0
 4102 0388 03       		.uleb128 0x3
 4103 0389 0E       		.uleb128 0xe
 4104 038a 3A       		.uleb128 0x3a
ARM GAS  /var/folders/m4/4md61f0s1_g0rzfghffqnxvr0000gn/T//ccElzD9Y.s 			page 73


 4105 038b 0B       		.uleb128 0xb
 4106 038c 3B       		.uleb128 0x3b
 4107 038d 05       		.uleb128 0x5
 4108 038e 49       		.uleb128 0x49
 4109 038f 13       		.uleb128 0x13
 4110 0390 3F       		.uleb128 0x3f
 4111 0391 19       		.uleb128 0x19
 4112 0392 3C       		.uleb128 0x3c
 4113 0393 19       		.uleb128 0x19
 4114 0394 00       		.byte	0
 4115 0395 00       		.byte	0
 4116 0396 42       		.uleb128 0x42
 4117 0397 34       		.uleb128 0x34
 4118 0398 00       		.byte	0
 4119 0399 03       		.uleb128 0x3
 4120 039a 08       		.uleb128 0x8
 4121 039b 3A       		.uleb128 0x3a
 4122 039c 0B       		.uleb128 0xb
 4123 039d 3B       		.uleb128 0x3b
 4124 039e 05       		.uleb128 0x5
 4125 039f 49       		.uleb128 0x49
 4126 03a0 13       		.uleb128 0x13
 4127 03a1 3F       		.uleb128 0x3f
 4128 03a2 19       		.uleb128 0x19
 4129 03a3 3C       		.uleb128 0x3c
 4130 03a4 19       		.uleb128 0x19
 4131 03a5 00       		.byte	0
 4132 03a6 00       		.byte	0
 4133 03a7 43       		.uleb128 0x43
 4134 03a8 2E       		.uleb128 0x2e
 4135 03a9 00       		.byte	0
 4136 03aa 3F       		.uleb128 0x3f
 4137 03ab 19       		.uleb128 0x19
 4138 03ac 3C       		.uleb128 0x3c
 4139 03ad 19       		.uleb128 0x19
 4140 03ae 6E       		.uleb128 0x6e
 4141 03af 0E       		.uleb128 0xe
 4142 03b0 03       		.uleb128 0x3
 4143 03b1 0E       		.uleb128 0xe
 4144 03b2 3A       		.uleb128 0x3a
 4145 03b3 0B       		.uleb128 0xb
 4146 03b4 3B       		.uleb128 0x3b
 4147 03b5 0B       		.uleb128 0xb
 4148 03b6 00       		.byte	0
 4149 03b7 00       		.byte	0
 4150 03b8 00       		.byte	0
 4151              		.section	.debug_loc,"",%progbits
 4152              	.Ldebug_loc0:
 4153              	.LLST0:
 4154 0000 00000000 		.4byte	.LVL0
 4155 0004 0A000000 		.4byte	.LVL1
 4156 0008 0100     		.2byte	0x1
 4157 000a 52       		.byte	0x52
 4158 000b 0A000000 		.4byte	.LVL1
 4159 000f 1E000000 		.4byte	.LFE231
 4160 0013 0400     		.2byte	0x4
 4161 0015 F3       		.byte	0xf3
ARM GAS  /var/folders/m4/4md61f0s1_g0rzfghffqnxvr0000gn/T//ccElzD9Y.s 			page 74


 4162 0016 01       		.uleb128 0x1
 4163 0017 52       		.byte	0x52
 4164 0018 9F       		.byte	0x9f
 4165 0019 00000000 		.4byte	0
 4166 001d 00000000 		.4byte	0
 4167              	.LLST1:
 4168 0021 00000000 		.4byte	.LVL0
 4169 0025 1C000000 		.4byte	.LVL3
 4170 0029 0200     		.2byte	0x2
 4171 002b 91       		.byte	0x91
 4172 002c 00       		.sleb128 0
 4173 002d 1C000000 		.4byte	.LVL3
 4174 0031 1E000000 		.4byte	.LFE231
 4175 0035 0200     		.2byte	0x2
 4176 0037 7D       		.byte	0x7d
 4177 0038 00       		.sleb128 0
 4178 0039 00000000 		.4byte	0
 4179 003d 00000000 		.4byte	0
 4180              	.LLST2:
 4181 0041 00000000 		.4byte	.LVL0
 4182 0045 12000000 		.4byte	.LVL2
 4183 0049 0100     		.2byte	0x1
 4184 004b 50       		.byte	0x50
 4185 004c 00000000 		.4byte	0
 4186 0050 00000000 		.4byte	0
 4187              	.LLST4:
 4188 0054 00000000 		.4byte	.LVL4
 4189 0058 11000000 		.4byte	.LVL5-1
 4190 005c 0100     		.2byte	0x1
 4191 005e 50       		.byte	0x50
 4192 005f 11000000 		.4byte	.LVL5-1
 4193 0063 12000000 		.4byte	.LFE232
 4194 0067 0400     		.2byte	0x4
 4195 0069 F3       		.byte	0xf3
 4196 006a 01       		.uleb128 0x1
 4197 006b 50       		.byte	0x50
 4198 006c 9F       		.byte	0x9f
 4199 006d 00000000 		.4byte	0
 4200 0071 00000000 		.4byte	0
 4201              	.LLST5:
 4202 0075 00000000 		.4byte	.LVL6
 4203 0079 27000000 		.4byte	.LVL9-1
 4204 007d 0100     		.2byte	0x1
 4205 007f 50       		.byte	0x50
 4206 0080 27000000 		.4byte	.LVL9-1
 4207 0084 2C000000 		.4byte	.LVL10
 4208 0088 0400     		.2byte	0x4
 4209 008a F3       		.byte	0xf3
 4210 008b 01       		.uleb128 0x1
 4211 008c 50       		.byte	0x50
 4212 008d 9F       		.byte	0x9f
 4213 008e 2C000000 		.4byte	.LVL10
 4214 0092 36000000 		.4byte	.LVL11
 4215 0096 0100     		.2byte	0x1
 4216 0098 50       		.byte	0x50
 4217 0099 36000000 		.4byte	.LVL11
 4218 009d 38000000 		.4byte	.LFE233
ARM GAS  /var/folders/m4/4md61f0s1_g0rzfghffqnxvr0000gn/T//ccElzD9Y.s 			page 75


 4219 00a1 0400     		.2byte	0x4
 4220 00a3 F3       		.byte	0xf3
 4221 00a4 01       		.uleb128 0x1
 4222 00a5 50       		.byte	0x50
 4223 00a6 9F       		.byte	0x9f
 4224 00a7 00000000 		.4byte	0
 4225 00ab 00000000 		.4byte	0
 4226              	.LLST6:
 4227 00af 00000000 		.4byte	.LVL6
 4228 00b3 24000000 		.4byte	.LVL8
 4229 00b7 0100     		.2byte	0x1
 4230 00b9 51       		.byte	0x51
 4231 00ba 24000000 		.4byte	.LVL8
 4232 00be 2C000000 		.4byte	.LVL10
 4233 00c2 0400     		.2byte	0x4
 4234 00c4 F3       		.byte	0xf3
 4235 00c5 01       		.uleb128 0x1
 4236 00c6 51       		.byte	0x51
 4237 00c7 9F       		.byte	0x9f
 4238 00c8 2C000000 		.4byte	.LVL10
 4239 00cc 38000000 		.4byte	.LFE233
 4240 00d0 0100     		.2byte	0x1
 4241 00d2 51       		.byte	0x51
 4242 00d3 00000000 		.4byte	0
 4243 00d7 00000000 		.4byte	0
 4244              	.LLST7:
 4245 00db 00000000 		.4byte	.LVL6
 4246 00df 0A000000 		.4byte	.LVL7
 4247 00e3 0100     		.2byte	0x1
 4248 00e5 50       		.byte	0x50
 4249 00e6 2C000000 		.4byte	.LVL10
 4250 00ea 36000000 		.4byte	.LVL11
 4251 00ee 0100     		.2byte	0x1
 4252 00f0 50       		.byte	0x50
 4253 00f1 36000000 		.4byte	.LVL11
 4254 00f5 38000000 		.4byte	.LFE233
 4255 00f9 0400     		.2byte	0x4
 4256 00fb F3       		.byte	0xf3
 4257 00fc 01       		.uleb128 0x1
 4258 00fd 50       		.byte	0x50
 4259 00fe 9F       		.byte	0x9f
 4260 00ff 00000000 		.4byte	0
 4261 0103 00000000 		.4byte	0
 4262              	.LLST8:
 4263 0107 00000000 		.4byte	.LVL12
 4264 010b 11000000 		.4byte	.LVL14-1
 4265 010f 0100     		.2byte	0x1
 4266 0111 50       		.byte	0x50
 4267 0112 11000000 		.4byte	.LVL14-1
 4268 0116 14000000 		.4byte	.LVL15
 4269 011a 0100     		.2byte	0x1
 4270 011c 54       		.byte	0x54
 4271 011d 14000000 		.4byte	.LVL15
 4272 0121 17000000 		.4byte	.LVL16-1
 4273 0125 0100     		.2byte	0x1
 4274 0127 50       		.byte	0x50
 4275 0128 17000000 		.4byte	.LVL16-1
ARM GAS  /var/folders/m4/4md61f0s1_g0rzfghffqnxvr0000gn/T//ccElzD9Y.s 			page 76


 4276 012c 26000000 		.4byte	.LVL19
 4277 0130 0100     		.2byte	0x1
 4278 0132 54       		.byte	0x54
 4279 0133 26000000 		.4byte	.LVL19
 4280 0137 3C000000 		.4byte	.LVL21
 4281 013b 0100     		.2byte	0x1
 4282 013d 50       		.byte	0x50
 4283 013e 3C000000 		.4byte	.LVL21
 4284 0142 4E000000 		.4byte	.LFE234
 4285 0146 0100     		.2byte	0x1
 4286 0148 54       		.byte	0x54
 4287 0149 00000000 		.4byte	0
 4288 014d 00000000 		.4byte	0
 4289              	.LLST9:
 4290 0151 00000000 		.4byte	.LVL12
 4291 0155 11000000 		.4byte	.LVL14-1
 4292 0159 0100     		.2byte	0x1
 4293 015b 51       		.byte	0x51
 4294 015c 11000000 		.4byte	.LVL14-1
 4295 0160 14000000 		.4byte	.LVL15
 4296 0164 0100     		.2byte	0x1
 4297 0166 56       		.byte	0x56
 4298 0167 14000000 		.4byte	.LVL15
 4299 016b 17000000 		.4byte	.LVL16-1
 4300 016f 0100     		.2byte	0x1
 4301 0171 51       		.byte	0x51
 4302 0172 17000000 		.4byte	.LVL16-1
 4303 0176 26000000 		.4byte	.LVL19
 4304 017a 0100     		.2byte	0x1
 4305 017c 56       		.byte	0x56
 4306 017d 26000000 		.4byte	.LVL19
 4307 0181 28000000 		.4byte	.LVL20
 4308 0185 0100     		.2byte	0x1
 4309 0187 51       		.byte	0x51
 4310 0188 28000000 		.4byte	.LVL20
 4311 018c 4E000000 		.4byte	.LFE234
 4312 0190 0100     		.2byte	0x1
 4313 0192 56       		.byte	0x56
 4314 0193 00000000 		.4byte	0
 4315 0197 00000000 		.4byte	0
 4316              	.LLST10:
 4317 019b 3C000000 		.4byte	.LVL21
 4318 019f 48000000 		.4byte	.LVL24
 4319 01a3 0100     		.2byte	0x1
 4320 01a5 50       		.byte	0x50
 4321 01a6 00000000 		.4byte	0
 4322 01aa 00000000 		.4byte	0
 4323              	.LLST11:
 4324 01ae 00000000 		.4byte	.LVL12
 4325 01b2 0C000000 		.4byte	.LVL13
 4326 01b6 0300     		.2byte	0x3
 4327 01b8 08       		.byte	0x8
 4328 01b9 20       		.byte	0x20
 4329 01ba 9F       		.byte	0x9f
 4330 01bb 00000000 		.4byte	0
 4331 01bf 00000000 		.4byte	0
 4332              	.LLST12:
ARM GAS  /var/folders/m4/4md61f0s1_g0rzfghffqnxvr0000gn/T//ccElzD9Y.s 			page 77


 4333 01c3 18000000 		.4byte	.LVL16
 4334 01c7 1C000000 		.4byte	.LVL17
 4335 01cb 0100     		.2byte	0x1
 4336 01cd 50       		.byte	0x50
 4337 01ce 48000000 		.4byte	.LVL24
 4338 01d2 4E000000 		.4byte	.LFE234
 4339 01d6 0100     		.2byte	0x1
 4340 01d8 50       		.byte	0x50
 4341 01d9 00000000 		.4byte	0
 4342 01dd 00000000 		.4byte	0
 4343              	.LLST13:
 4344 01e1 48000000 		.4byte	.LVL24
 4345 01e5 4C000000 		.4byte	.LVL25
 4346 01e9 0200     		.2byte	0x2
 4347 01eb 30       		.byte	0x30
 4348 01ec 9F       		.byte	0x9f
 4349 01ed 00000000 		.4byte	0
 4350 01f1 00000000 		.4byte	0
 4351              	.LLST14:
 4352 01f5 1C000000 		.4byte	.LVL17
 4353 01f9 1E000000 		.4byte	.LVL18
 4354 01fd 0100     		.2byte	0x1
 4355 01ff 54       		.byte	0x54
 4356 0200 00000000 		.4byte	0
 4357 0204 00000000 		.4byte	0
 4358              	.LLST15:
 4359 0208 40000000 		.4byte	.LVL22
 4360 020c 46000000 		.4byte	.LVL23
 4361 0210 0200     		.2byte	0x2
 4362 0212 30       		.byte	0x30
 4363 0213 9F       		.byte	0x9f
 4364 0214 00000000 		.4byte	0
 4365 0218 00000000 		.4byte	0
 4366              	.LLST16:
 4367 021c 00000000 		.4byte	.LVL26
 4368 0220 26000000 		.4byte	.LVL30
 4369 0224 0100     		.2byte	0x1
 4370 0226 50       		.byte	0x50
 4371 0227 26000000 		.4byte	.LVL30
 4372 022b 2A000000 		.4byte	.LVL32
 4373 022f 0100     		.2byte	0x1
 4374 0231 54       		.byte	0x54
 4375 0232 2A000000 		.4byte	.LVL32
 4376 0236 2D000000 		.4byte	.LVL33-1
 4377 023a 0100     		.2byte	0x1
 4378 023c 50       		.byte	0x50
 4379 023d 2D000000 		.4byte	.LVL33-1
 4380 0241 3A000000 		.4byte	.LVL36
 4381 0245 0100     		.2byte	0x1
 4382 0247 54       		.byte	0x54
 4383 0248 3A000000 		.4byte	.LVL36
 4384 024c 6A000000 		.4byte	.LVL44
 4385 0250 0100     		.2byte	0x1
 4386 0252 50       		.byte	0x50
 4387 0253 6A000000 		.4byte	.LVL44
 4388 0257 76000000 		.4byte	.LFE235
 4389 025b 0100     		.2byte	0x1
ARM GAS  /var/folders/m4/4md61f0s1_g0rzfghffqnxvr0000gn/T//ccElzD9Y.s 			page 78


 4390 025d 54       		.byte	0x54
 4391 025e 00000000 		.4byte	0
 4392 0262 00000000 		.4byte	0
 4393              	.LLST17:
 4394 0266 00000000 		.4byte	.LVL26
 4395 026a 1E000000 		.4byte	.LVL29
 4396 026e 0100     		.2byte	0x1
 4397 0270 51       		.byte	0x51
 4398 0271 1E000000 		.4byte	.LVL29
 4399 0275 4C000000 		.4byte	.LVL38
 4400 0279 0100     		.2byte	0x1
 4401 027b 59       		.byte	0x59
 4402 027c 4C000000 		.4byte	.LVL38
 4403 0280 6A000000 		.4byte	.LVL44
 4404 0284 0300     		.2byte	0x3
 4405 0286 79       		.byte	0x79
 4406 0287 7F       		.sleb128 -1
 4407 0288 9F       		.byte	0x9f
 4408 0289 6A000000 		.4byte	.LVL44
 4409 028d 6E000000 		.4byte	.LVL45
 4410 0291 0100     		.2byte	0x1
 4411 0293 59       		.byte	0x59
 4412 0294 00000000 		.4byte	0
 4413 0298 00000000 		.4byte	0
 4414              	.LLST18:
 4415 029c 00000000 		.4byte	.LVL26
 4416 02a0 1E000000 		.4byte	.LVL29
 4417 02a4 0100     		.2byte	0x1
 4418 02a6 52       		.byte	0x52
 4419 02a7 5E000000 		.4byte	.LVL41
 4420 02ab 6A000000 		.4byte	.LVL44
 4421 02af 0600     		.2byte	0x6
 4422 02b1 7B       		.byte	0x7b
 4423 02b2 00       		.sleb128 0
 4424 02b3 76       		.byte	0x76
 4425 02b4 00       		.sleb128 0
 4426 02b5 1C       		.byte	0x1c
 4427 02b6 9F       		.byte	0x9f
 4428 02b7 00000000 		.4byte	0
 4429 02bb 00000000 		.4byte	0
 4430              	.LLST19:
 4431 02bf 00000000 		.4byte	.LVL26
 4432 02c3 1E000000 		.4byte	.LVL29
 4433 02c7 0100     		.2byte	0x1
 4434 02c9 53       		.byte	0x53
 4435 02ca 1E000000 		.4byte	.LVL29
 4436 02ce 2A000000 		.4byte	.LVL32
 4437 02d2 0100     		.2byte	0x1
 4438 02d4 55       		.byte	0x55
 4439 02d5 2A000000 		.4byte	.LVL32
 4440 02d9 2D000000 		.4byte	.LVL33-1
 4441 02dd 0100     		.2byte	0x1
 4442 02df 51       		.byte	0x51
 4443 02e0 2D000000 		.4byte	.LVL33-1
 4444 02e4 3A000000 		.4byte	.LVL36
 4445 02e8 0100     		.2byte	0x1
 4446 02ea 55       		.byte	0x55
ARM GAS  /var/folders/m4/4md61f0s1_g0rzfghffqnxvr0000gn/T//ccElzD9Y.s 			page 79


 4447 02eb 3A000000 		.4byte	.LVL36
 4448 02ef 40000000 		.4byte	.LVL37
 4449 02f3 0100     		.2byte	0x1
 4450 02f5 51       		.byte	0x51
 4451 02f6 40000000 		.4byte	.LVL37
 4452 02fa 76000000 		.4byte	.LFE235
 4453 02fe 0100     		.2byte	0x1
 4454 0300 55       		.byte	0x55
 4455 0301 00000000 		.4byte	0
 4456 0305 00000000 		.4byte	0
 4457              	.LLST20:
 4458 0309 12000000 		.4byte	.LVL27
 4459 030d 1E000000 		.4byte	.LVL29
 4460 0311 0200     		.2byte	0x2
 4461 0313 30       		.byte	0x30
 4462 0314 9F       		.byte	0x9f
 4463 0315 1E000000 		.4byte	.LVL29
 4464 0319 76000000 		.4byte	.LFE235
 4465 031d 0100     		.2byte	0x1
 4466 031f 56       		.byte	0x56
 4467 0320 00000000 		.4byte	0
 4468 0324 00000000 		.4byte	0
 4469              	.LLST21:
 4470 0328 12000000 		.4byte	.LVL27
 4471 032c 18000000 		.4byte	.LVL28
 4472 0330 0300     		.2byte	0x3
 4473 0332 08       		.byte	0x8
 4474 0333 20       		.byte	0x20
 4475 0334 9F       		.byte	0x9f
 4476 0335 00000000 		.4byte	0
 4477 0339 00000000 		.4byte	0
 4478              	.LLST22:
 4479 033d 62000000 		.4byte	.LVL42
 4480 0341 68000000 		.4byte	.LVL43
 4481 0345 0300     		.2byte	0x3
 4482 0347 08       		.byte	0x8
 4483 0348 20       		.byte	0x20
 4484 0349 9F       		.byte	0x9f
 4485 034a 00000000 		.4byte	0
 4486 034e 00000000 		.4byte	0
 4487              	.LLST23:
 4488 0352 58000000 		.4byte	.LVL39
 4489 0356 5C000000 		.4byte	.LVL40
 4490 035a 0200     		.2byte	0x2
 4491 035c 30       		.byte	0x30
 4492 035d 9F       		.byte	0x9f
 4493 035e 00000000 		.4byte	0
 4494 0362 00000000 		.4byte	0
 4495              	.LLST24:
 4496 0366 30000000 		.4byte	.LVL34
 4497 036a 32000000 		.4byte	.LVL35
 4498 036e 0100     		.2byte	0x1
 4499 0370 54       		.byte	0x54
 4500 0371 00000000 		.4byte	0
 4501 0375 00000000 		.4byte	0
 4502              	.LLST25:
 4503 0379 6A000000 		.4byte	.LVL44
ARM GAS  /var/folders/m4/4md61f0s1_g0rzfghffqnxvr0000gn/T//ccElzD9Y.s 			page 80


 4504 037d 6E000000 		.4byte	.LVL45
 4505 0381 0200     		.2byte	0x2
 4506 0383 30       		.byte	0x30
 4507 0384 9F       		.byte	0x9f
 4508 0385 00000000 		.4byte	0
 4509 0389 00000000 		.4byte	0
 4510              	.LLST26:
 4511 038d 00000000 		.4byte	.LVL46
 4512 0391 1A000000 		.4byte	.LVL48
 4513 0395 0200     		.2byte	0x2
 4514 0397 91       		.byte	0x91
 4515 0398 00       		.sleb128 0
 4516 0399 1A000000 		.4byte	.LVL48
 4517 039d 1C000000 		.4byte	.LFE236
 4518 03a1 0200     		.2byte	0x2
 4519 03a3 7D       		.byte	0x7d
 4520 03a4 00       		.sleb128 0
 4521 03a5 00000000 		.4byte	0
 4522 03a9 00000000 		.4byte	0
 4523              	.LLST27:
 4524 03ad 00000000 		.4byte	.LVL46
 4525 03b1 0E000000 		.4byte	.LVL47
 4526 03b5 0100     		.2byte	0x1
 4527 03b7 50       		.byte	0x50
 4528 03b8 00000000 		.4byte	0
 4529 03bc 00000000 		.4byte	0
 4530              	.LLST29:
 4531 03c0 00000000 		.4byte	.LVL49
 4532 03c4 19000000 		.4byte	.LVL50-1
 4533 03c8 0100     		.2byte	0x1
 4534 03ca 50       		.byte	0x50
 4535 03cb 19000000 		.4byte	.LVL50-1
 4536 03cf 1A000000 		.4byte	.LFE237
 4537 03d3 0400     		.2byte	0x4
 4538 03d5 F3       		.byte	0xf3
 4539 03d6 01       		.uleb128 0x1
 4540 03d7 50       		.byte	0x50
 4541 03d8 9F       		.byte	0x9f
 4542 03d9 00000000 		.4byte	0
 4543 03dd 00000000 		.4byte	0
 4544              	.LLST30:
 4545 03e1 00000000 		.4byte	.LVL51
 4546 03e5 13000000 		.4byte	.LVL54-1
 4547 03e9 0100     		.2byte	0x1
 4548 03eb 50       		.byte	0x50
 4549 03ec 13000000 		.4byte	.LVL54-1
 4550 03f0 22000000 		.4byte	.LVL57
 4551 03f4 0100     		.2byte	0x1
 4552 03f6 54       		.byte	0x54
 4553 03f7 22000000 		.4byte	.LVL57
 4554 03fb 42000000 		.4byte	.LVL59
 4555 03ff 0100     		.2byte	0x1
 4556 0401 50       		.byte	0x50
 4557 0402 42000000 		.4byte	.LVL59
 4558 0406 52000000 		.4byte	.LFE238
 4559 040a 0100     		.2byte	0x1
 4560 040c 54       		.byte	0x54
ARM GAS  /var/folders/m4/4md61f0s1_g0rzfghffqnxvr0000gn/T//ccElzD9Y.s 			page 81


 4561 040d 00000000 		.4byte	0
 4562 0411 00000000 		.4byte	0
 4563              	.LLST31:
 4564 0415 00000000 		.4byte	.LVL51
 4565 0419 10000000 		.4byte	.LVL53
 4566 041d 0100     		.2byte	0x1
 4567 041f 51       		.byte	0x51
 4568 0420 10000000 		.4byte	.LVL53
 4569 0424 52000000 		.4byte	.LFE238
 4570 0428 0400     		.2byte	0x4
 4571 042a F3       		.byte	0xf3
 4572 042b 01       		.uleb128 0x1
 4573 042c 51       		.byte	0x51
 4574 042d 9F       		.byte	0x9f
 4575 042e 00000000 		.4byte	0
 4576 0432 00000000 		.4byte	0
 4577              	.LLST32:
 4578 0436 00000000 		.4byte	.LVL51
 4579 043a 10000000 		.4byte	.LVL53
 4580 043e 0100     		.2byte	0x1
 4581 0440 52       		.byte	0x52
 4582 0441 10000000 		.4byte	.LVL53
 4583 0445 13000000 		.4byte	.LVL54-1
 4584 0449 0100     		.2byte	0x1
 4585 044b 51       		.byte	0x51
 4586 044c 13000000 		.4byte	.LVL54-1
 4587 0450 22000000 		.4byte	.LVL57
 4588 0454 0100     		.2byte	0x1
 4589 0456 56       		.byte	0x56
 4590 0457 22000000 		.4byte	.LVL57
 4591 045b 28000000 		.4byte	.LVL58
 4592 045f 0100     		.2byte	0x1
 4593 0461 51       		.byte	0x51
 4594 0462 28000000 		.4byte	.LVL58
 4595 0466 52000000 		.4byte	.LFE238
 4596 046a 0100     		.2byte	0x1
 4597 046c 56       		.byte	0x56
 4598 046d 00000000 		.4byte	0
 4599 0471 00000000 		.4byte	0
 4600              	.LLST33:
 4601 0475 00000000 		.4byte	.LVL51
 4602 0479 0E000000 		.4byte	.LVL52
 4603 047d 0300     		.2byte	0x3
 4604 047f 08       		.byte	0x8
 4605 0480 20       		.byte	0x20
 4606 0481 9F       		.byte	0x9f
 4607 0482 00000000 		.4byte	0
 4608 0486 00000000 		.4byte	0
 4609              	.LLST34:
 4610 048a 14000000 		.4byte	.LVL54
 4611 048e 18000000 		.4byte	.LVL55
 4612 0492 0100     		.2byte	0x1
 4613 0494 50       		.byte	0x50
 4614 0495 4C000000 		.4byte	.LVL62
 4615 0499 52000000 		.4byte	.LFE238
 4616 049d 0100     		.2byte	0x1
 4617 049f 50       		.byte	0x50
ARM GAS  /var/folders/m4/4md61f0s1_g0rzfghffqnxvr0000gn/T//ccElzD9Y.s 			page 82


 4618 04a0 00000000 		.4byte	0
 4619 04a4 00000000 		.4byte	0
 4620              	.LLST35:
 4621 04a8 4C000000 		.4byte	.LVL62
 4622 04ac 50000000 		.4byte	.LVL63
 4623 04b0 0200     		.2byte	0x2
 4624 04b2 30       		.byte	0x30
 4625 04b3 9F       		.byte	0x9f
 4626 04b4 00000000 		.4byte	0
 4627 04b8 00000000 		.4byte	0
 4628              	.LLST36:
 4629 04bc 18000000 		.4byte	.LVL55
 4630 04c0 1A000000 		.4byte	.LVL56
 4631 04c4 0100     		.2byte	0x1
 4632 04c6 54       		.byte	0x54
 4633 04c7 00000000 		.4byte	0
 4634 04cb 00000000 		.4byte	0
 4635              	.LLST37:
 4636 04cf 44000000 		.4byte	.LVL60
 4637 04d3 4A000000 		.4byte	.LVL61
 4638 04d7 0200     		.2byte	0x2
 4639 04d9 30       		.byte	0x30
 4640 04da 9F       		.byte	0x9f
 4641 04db 00000000 		.4byte	0
 4642 04df 00000000 		.4byte	0
 4643              	.LLST38:
 4644 04e3 00000000 		.4byte	.LVL64
 4645 04e7 25000000 		.4byte	.LVL67-1
 4646 04eb 0100     		.2byte	0x1
 4647 04ed 50       		.byte	0x50
 4648 04ee 25000000 		.4byte	.LVL67-1
 4649 04f2 2A000000 		.4byte	.LVL68
 4650 04f6 0400     		.2byte	0x4
 4651 04f8 F3       		.byte	0xf3
 4652 04f9 01       		.uleb128 0x1
 4653 04fa 50       		.byte	0x50
 4654 04fb 9F       		.byte	0x9f
 4655 04fc 2A000000 		.4byte	.LVL68
 4656 0500 34000000 		.4byte	.LVL69
 4657 0504 0100     		.2byte	0x1
 4658 0506 50       		.byte	0x50
 4659 0507 34000000 		.4byte	.LVL69
 4660 050b 36000000 		.4byte	.LFE239
 4661 050f 0400     		.2byte	0x4
 4662 0511 F3       		.byte	0xf3
 4663 0512 01       		.uleb128 0x1
 4664 0513 50       		.byte	0x50
 4665 0514 9F       		.byte	0x9f
 4666 0515 00000000 		.4byte	0
 4667 0519 00000000 		.4byte	0
 4668              	.LLST39:
 4669 051d 1A000000 		.4byte	.LVL66
 4670 0521 2A000000 		.4byte	.LVL68
 4671 0525 0100     		.2byte	0x1
 4672 0527 54       		.byte	0x54
 4673 0528 00000000 		.4byte	0
 4674 052c 00000000 		.4byte	0
ARM GAS  /var/folders/m4/4md61f0s1_g0rzfghffqnxvr0000gn/T//ccElzD9Y.s 			page 83


 4675              	.LLST40:
 4676 0530 00000000 		.4byte	.LVL64
 4677 0534 0A000000 		.4byte	.LVL65
 4678 0538 0100     		.2byte	0x1
 4679 053a 50       		.byte	0x50
 4680 053b 2A000000 		.4byte	.LVL68
 4681 053f 34000000 		.4byte	.LVL69
 4682 0543 0100     		.2byte	0x1
 4683 0545 50       		.byte	0x50
 4684 0546 34000000 		.4byte	.LVL69
 4685 054a 36000000 		.4byte	.LFE239
 4686 054e 0400     		.2byte	0x4
 4687 0550 F3       		.byte	0xf3
 4688 0551 01       		.uleb128 0x1
 4689 0552 50       		.byte	0x50
 4690 0553 9F       		.byte	0x9f
 4691 0554 00000000 		.4byte	0
 4692 0558 00000000 		.4byte	0
 4693              	.LLST41:
 4694 055c 00000000 		.4byte	.LVL70
 4695 0560 1E000000 		.4byte	.LVL73
 4696 0564 0100     		.2byte	0x1
 4697 0566 50       		.byte	0x50
 4698 0567 1E000000 		.4byte	.LVL73
 4699 056b 28000000 		.4byte	.LVL76
 4700 056f 0100     		.2byte	0x1
 4701 0571 54       		.byte	0x54
 4702 0572 28000000 		.4byte	.LVL76
 4703 0576 4B000000 		.4byte	.LVL77-1
 4704 057a 0100     		.2byte	0x1
 4705 057c 50       		.byte	0x50
 4706 057d 4B000000 		.4byte	.LVL77-1
 4707 0581 6A000000 		.4byte	.LVL84
 4708 0585 0100     		.2byte	0x1
 4709 0587 54       		.byte	0x54
 4710 0588 6A000000 		.4byte	.LVL84
 4711 058c 70000000 		.4byte	.LVL85
 4712 0590 0100     		.2byte	0x1
 4713 0592 50       		.byte	0x50
 4714 0593 70000000 		.4byte	.LVL85
 4715 0597 86000000 		.4byte	.LFE240
 4716 059b 0100     		.2byte	0x1
 4717 059d 54       		.byte	0x54
 4718 059e 00000000 		.4byte	0
 4719 05a2 00000000 		.4byte	0
 4720              	.LLST42:
 4721 05a6 00000000 		.4byte	.LVL70
 4722 05aa 1E000000 		.4byte	.LVL73
 4723 05ae 0100     		.2byte	0x1
 4724 05b0 51       		.byte	0x51
 4725 05b1 1E000000 		.4byte	.LVL73
 4726 05b5 24000000 		.4byte	.LVL75
 4727 05b9 0100     		.2byte	0x1
 4728 05bb 55       		.byte	0x55
 4729 05bc 24000000 		.4byte	.LVL75
 4730 05c0 60000000 		.4byte	.LVL82
 4731 05c4 0100     		.2byte	0x1
ARM GAS  /var/folders/m4/4md61f0s1_g0rzfghffqnxvr0000gn/T//ccElzD9Y.s 			page 84


 4732 05c6 5B       		.byte	0x5b
 4733 05c7 60000000 		.4byte	.LVL82
 4734 05cb 64000000 		.4byte	.LVL83
 4735 05cf 0100     		.2byte	0x1
 4736 05d1 55       		.byte	0x55
 4737 05d2 64000000 		.4byte	.LVL83
 4738 05d6 86000000 		.4byte	.LFE240
 4739 05da 0100     		.2byte	0x1
 4740 05dc 5B       		.byte	0x5b
 4741 05dd 00000000 		.4byte	0
 4742 05e1 00000000 		.4byte	0
 4743              	.LLST43:
 4744 05e5 00000000 		.4byte	.LVL70
 4745 05e9 1E000000 		.4byte	.LVL73
 4746 05ed 0100     		.2byte	0x1
 4747 05ef 52       		.byte	0x52
 4748 05f0 1E000000 		.4byte	.LVL73
 4749 05f4 52000000 		.4byte	.LVL79
 4750 05f8 0100     		.2byte	0x1
 4751 05fa 56       		.byte	0x56
 4752 05fb 52000000 		.4byte	.LVL79
 4753 05ff 56000000 		.4byte	.LVL80
 4754 0603 0300     		.2byte	0x3
 4755 0605 76       		.byte	0x76
 4756 0606 01       		.sleb128 1
 4757 0607 9F       		.byte	0x9f
 4758 0608 60000000 		.4byte	.LVL82
 4759 060c 7E000000 		.4byte	.LVL88
 4760 0610 0100     		.2byte	0x1
 4761 0612 56       		.byte	0x56
 4762 0613 00000000 		.4byte	0
 4763 0617 00000000 		.4byte	0
 4764              	.LLST44:
 4765 061b 00000000 		.4byte	.LVL70
 4766 061f 1E000000 		.4byte	.LVL73
 4767 0623 0100     		.2byte	0x1
 4768 0625 53       		.byte	0x53
 4769 0626 1E000000 		.4byte	.LVL73
 4770 062a 86000000 		.4byte	.LFE240
 4771 062e 0200     		.2byte	0x2
 4772 0630 91       		.byte	0x91
 4773 0631 54       		.sleb128 -44
 4774 0632 00000000 		.4byte	0
 4775 0636 00000000 		.4byte	0
 4776              	.LLST45:
 4777 063a 12000000 		.4byte	.LVL71
 4778 063e 1E000000 		.4byte	.LVL73
 4779 0642 0200     		.2byte	0x2
 4780 0644 30       		.byte	0x30
 4781 0645 9F       		.byte	0x9f
 4782 0646 1E000000 		.4byte	.LVL73
 4783 064a 86000000 		.4byte	.LFE240
 4784 064e 0100     		.2byte	0x1
 4785 0650 57       		.byte	0x57
 4786 0651 00000000 		.4byte	0
 4787 0655 00000000 		.4byte	0
 4788              	.LLST46:
ARM GAS  /var/folders/m4/4md61f0s1_g0rzfghffqnxvr0000gn/T//ccElzD9Y.s 			page 85


 4789 0659 12000000 		.4byte	.LVL71
 4790 065d 1A000000 		.4byte	.LVL72
 4791 0661 0300     		.2byte	0x3
 4792 0663 08       		.byte	0x8
 4793 0664 20       		.byte	0x20
 4794 0665 9F       		.byte	0x9f
 4795 0666 00000000 		.4byte	0
 4796 066a 00000000 		.4byte	0
 4797              	.LLST47:
 4798 066e 4C000000 		.4byte	.LVL77
 4799 0672 50000000 		.4byte	.LVL78
 4800 0676 0200     		.2byte	0x2
 4801 0678 30       		.byte	0x30
 4802 0679 9F       		.byte	0x9f
 4803 067a 00000000 		.4byte	0
 4804 067e 00000000 		.4byte	0
 4805              	.LLST48:
 4806 0682 1E000000 		.4byte	.LVL73
 4807 0686 20000000 		.4byte	.LVL74
 4808 068a 0100     		.2byte	0x1
 4809 068c 54       		.byte	0x54
 4810 068d 00000000 		.4byte	0
 4811 0691 00000000 		.4byte	0
 4812              	.LLST49:
 4813 0695 50000000 		.4byte	.LVL78
 4814 0699 5C000000 		.4byte	.LVL81
 4815 069d 0300     		.2byte	0x3
 4816 069f 08       		.byte	0x8
 4817 06a0 20       		.byte	0x20
 4818 06a1 9F       		.byte	0x9f
 4819 06a2 00000000 		.4byte	0
 4820 06a6 00000000 		.4byte	0
 4821              	.LLST50:
 4822 06aa 7A000000 		.4byte	.LVL87
 4823 06ae 7E000000 		.4byte	.LVL88
 4824 06b2 0200     		.2byte	0x2
 4825 06b4 30       		.byte	0x30
 4826 06b5 9F       		.byte	0x9f
 4827 06b6 00000000 		.4byte	0
 4828 06ba 00000000 		.4byte	0
 4829              		.section	.debug_aranges,"",%progbits
 4830 0000 64000000 		.4byte	0x64
 4831 0004 0200     		.2byte	0x2
 4832 0006 00000000 		.4byte	.Ldebug_info0
 4833 000a 04       		.byte	0x4
 4834 000b 00       		.byte	0
 4835 000c 0000     		.2byte	0
 4836 000e 0000     		.2byte	0
 4837 0010 00000000 		.4byte	.LFB231
 4838 0014 1E000000 		.4byte	.LFE231-.LFB231
 4839 0018 00000000 		.4byte	.LFB232
 4840 001c 12000000 		.4byte	.LFE232-.LFB232
 4841 0020 00000000 		.4byte	.LFB233
 4842 0024 38000000 		.4byte	.LFE233-.LFB233
 4843 0028 00000000 		.4byte	.LFB234
 4844 002c 4E000000 		.4byte	.LFE234-.LFB234
 4845 0030 00000000 		.4byte	.LFB235
ARM GAS  /var/folders/m4/4md61f0s1_g0rzfghffqnxvr0000gn/T//ccElzD9Y.s 			page 86


 4846 0034 76000000 		.4byte	.LFE235-.LFB235
 4847 0038 00000000 		.4byte	.LFB236
 4848 003c 1C000000 		.4byte	.LFE236-.LFB236
 4849 0040 00000000 		.4byte	.LFB237
 4850 0044 1A000000 		.4byte	.LFE237-.LFB237
 4851 0048 00000000 		.4byte	.LFB238
 4852 004c 52000000 		.4byte	.LFE238-.LFB238
 4853 0050 00000000 		.4byte	.LFB239
 4854 0054 36000000 		.4byte	.LFE239-.LFB239
 4855 0058 00000000 		.4byte	.LFB240
 4856 005c 86000000 		.4byte	.LFE240-.LFB240
 4857 0060 00000000 		.4byte	0
 4858 0064 00000000 		.4byte	0
 4859              		.section	.debug_ranges,"",%progbits
 4860              	.Ldebug_ranges0:
 4861 0000 00000000 		.4byte	.LBB111
 4862 0004 06000000 		.4byte	.LBE111
 4863 0008 08000000 		.4byte	.LBB115
 4864 000c 0A000000 		.4byte	.LBE115
 4865 0010 2C000000 		.4byte	.LBB116
 4866 0014 32000000 		.4byte	.LBE116
 4867 0018 00000000 		.4byte	0
 4868 001c 00000000 		.4byte	0
 4869 0020 02000000 		.4byte	.LBB117
 4870 0024 04000000 		.4byte	.LBE117
 4871 0028 08000000 		.4byte	.LBB124
 4872 002c 0C000000 		.4byte	.LBE124
 4873 0030 00000000 		.4byte	0
 4874 0034 00000000 		.4byte	0
 4875 0038 14000000 		.4byte	.LBB125
 4876 003c 1C000000 		.4byte	.LBE125
 4877 0040 1E000000 		.4byte	.LBB133
 4878 0044 22000000 		.4byte	.LBE133
 4879 0048 48000000 		.4byte	.LBB139
 4880 004c 4E000000 		.4byte	.LBE139
 4881 0050 00000000 		.4byte	0
 4882 0054 00000000 		.4byte	0
 4883 0058 1A000000 		.4byte	.LBB144
 4884 005c 1C000000 		.4byte	.LBE144
 4885 0060 62000000 		.4byte	.LBB163
 4886 0064 6A000000 		.4byte	.LBE163
 4887 0068 00000000 		.4byte	0
 4888 006c 00000000 		.4byte	0
 4889 0070 1C000000 		.4byte	.LBB151
 4890 0074 1E000000 		.4byte	.LBE151
 4891 0078 58000000 		.4byte	.LBB162
 4892 007c 5C000000 		.4byte	.LBE162
 4893 0080 00000000 		.4byte	0
 4894 0084 00000000 		.4byte	0
 4895 0088 10000000 		.4byte	.LBB176
 4896 008c 18000000 		.4byte	.LBE176
 4897 0090 1A000000 		.4byte	.LBB184
 4898 0094 1E000000 		.4byte	.LBE184
 4899 0098 4C000000 		.4byte	.LBB190
 4900 009c 52000000 		.4byte	.LBE190
 4901 00a0 00000000 		.4byte	0
 4902 00a4 00000000 		.4byte	0
ARM GAS  /var/folders/m4/4md61f0s1_g0rzfghffqnxvr0000gn/T//ccElzD9Y.s 			page 87


 4903 00a8 02000000 		.4byte	.LBB191
 4904 00ac 0A000000 		.4byte	.LBE191
 4905 00b0 2A000000 		.4byte	.LBB194
 4906 00b4 30000000 		.4byte	.LBE194
 4907 00b8 00000000 		.4byte	0
 4908 00bc 00000000 		.4byte	0
 4909 00c0 1C000000 		.4byte	.LBB199
 4910 00c4 1E000000 		.4byte	.LBE199
 4911 00c8 4C000000 		.4byte	.LBB211
 4912 00cc 50000000 		.4byte	.LBE211
 4913 00d0 00000000 		.4byte	0
 4914 00d4 00000000 		.4byte	0
 4915 00d8 1E000000 		.4byte	.LBB208
 4916 00dc 20000000 		.4byte	.LBE208
 4917 00e0 5C000000 		.4byte	.LBB216
 4918 00e4 5E000000 		.4byte	.LBE216
 4919 00e8 00000000 		.4byte	0
 4920 00ec 00000000 		.4byte	0
 4921 00f0 00000000 		.4byte	.LFB231
 4922 00f4 1E000000 		.4byte	.LFE231
 4923 00f8 00000000 		.4byte	.LFB232
 4924 00fc 12000000 		.4byte	.LFE232
 4925 0100 00000000 		.4byte	.LFB233
 4926 0104 38000000 		.4byte	.LFE233
 4927 0108 00000000 		.4byte	.LFB234
 4928 010c 4E000000 		.4byte	.LFE234
 4929 0110 00000000 		.4byte	.LFB235
 4930 0114 76000000 		.4byte	.LFE235
 4931 0118 00000000 		.4byte	.LFB236
 4932 011c 1C000000 		.4byte	.LFE236
 4933 0120 00000000 		.4byte	.LFB237
 4934 0124 1A000000 		.4byte	.LFE237
 4935 0128 00000000 		.4byte	.LFB238
 4936 012c 52000000 		.4byte	.LFE238
 4937 0130 00000000 		.4byte	.LFB239
 4938 0134 36000000 		.4byte	.LFE239
 4939 0138 00000000 		.4byte	.LFB240
 4940 013c 86000000 		.4byte	.LFE240
 4941 0140 00000000 		.4byte	0
 4942 0144 00000000 		.4byte	0
 4943              		.section	.debug_line,"",%progbits
 4944              	.Ldebug_line0:
 4945 0000 81050000 		.section	.debug_str,"MS",%progbits,1
 4945      02001C03 
 4945      00000201 
 4945      FB0E0D00 
 4945      01010101 
 4946              	.LASF143:
 4947 0000 63684F51 		.ascii	"chOQPutTimeout\000"
 4947      50757454 
 4947      696D656F 
 4947      757400
 4948              	.LASF54:
 4949 000f 72656164 		.ascii	"ready_list_t\000"
 4949      795F6C69 
 4949      73745F74 
 4949      00
ARM GAS  /var/folders/m4/4md61f0s1_g0rzfghffqnxvr0000gn/T//ccElzD9Y.s 			page 88


 4950              	.LASF141:
 4951 001c 6F6E6679 		.ascii	"onfy\000"
 4951      00
 4952              	.LASF2:
 4953 0021 73697A65 		.ascii	"size_t\000"
 4953      5F7400
 4954              	.LASF89:
 4955 0028 7264796D 		.ascii	"rdymsg\000"
 4955      736700
 4956              	.LASF17:
 4957 002f 75696E74 		.ascii	"uint64_t\000"
 4957      36345F74 
 4957      00
 4958              	.LASF148:
 4959 0038 63685468 		.ascii	"chThdDequeueAllI\000"
 4959      64446571 
 4959      75657565 
 4959      416C6C49 
 4959      00
 4960              	.LASF3:
 4961 0049 5F5F7569 		.ascii	"__uint8_t\000"
 4961      6E74385F 
 4961      7400
 4962              	.LASF86:
 4963 0053 706F7274 		.ascii	"port_intctx\000"
 4963      5F696E74 
 4963      63747800 
 4964              	.LASF73:
 4965 005f 73797374 		.ascii	"system_debug_t\000"
 4965      656D5F64 
 4965      65627567 
 4965      5F7400
 4966              	.LASF139:
 4967 006e 63684951 		.ascii	"chIQReadTimeout\000"
 4967      52656164 
 4967      54696D65 
 4967      6F757400 
 4968              	.LASF121:
 4969 007e 71756575 		.ascii	"queue_init\000"
 4969      655F696E 
 4969      697400
 4970              	.LASF118:
 4971 0089 706F7274 		.ascii	"port_lock\000"
 4971      5F6C6F63 
 4971      6B00
 4972              	.LASF134:
 4973 0093 63684951 		.ascii	"chIQObjectInit\000"
 4973      4F626A65 
 4973      6374496E 
 4973      697400
 4974              	.LASF13:
 4975 00a2 6C6F6E67 		.ascii	"long long unsigned int\000"
 4975      206C6F6E 
 4975      6720756E 
 4975      7369676E 
 4975      65642069 
 4976              	.LASF135:
ARM GAS  /var/folders/m4/4md61f0s1_g0rzfghffqnxvr0000gn/T//ccElzD9Y.s 			page 89


 4977 00b9 63684951 		.ascii	"chIQResetI\000"
 4977      52657365 
 4977      744900
 4978              	.LASF90:
 4979 00c4 65786974 		.ascii	"exitcode\000"
 4979      636F6465 
 4979      00
 4980              	.LASF80:
 4981 00cd 6D61696E 		.ascii	"mainthread\000"
 4981      74687265 
 4981      616400
 4982              	.LASF70:
 4983 00d8 76697274 		.ascii	"virtual_timers_list_t\000"
 4983      75616C5F 
 4983      74696D65 
 4983      72735F6C 
 4983      6973745F 
 4984              	.LASF147:
 4985 00ee 49544D5F 		.ascii	"ITM_RxBuffer\000"
 4985      52784275 
 4985      66666572 
 4985      00
 4986              	.LASF105:
 4987 00fb 696F5F71 		.ascii	"io_queue_t\000"
 4987      75657565 
 4987      5F7400
 4988              	.LASF152:
 4989 0106 43686962 		.ascii	"ChibiOS_16.1.4/os/rt/src/chqueues.c\000"
 4989      694F535F 
 4989      31362E31 
 4989      2E342F6F 
 4989      732F7274 
 4990              	.LASF53:
 4991 012a 63685F74 		.ascii	"ch_threads_queue\000"
 4991      68726561 
 4991      64735F71 
 4991      75657565 
 4991      00
 4992              	.LASF31:
 4993 013b 705F7072 		.ascii	"p_prio\000"
 4993      696F00
 4994              	.LASF107:
 4995 0142 715F7761 		.ascii	"q_waiting\000"
 4995      6974696E 
 4995      6700
 4996              	.LASF11:
 4997 014c 6C6F6E67 		.ascii	"long long int\000"
 4997      206C6F6E 
 4997      6720696E 
 4997      7400
 4998              	.LASF1:
 4999 015a 7369676E 		.ascii	"signed char\000"
 4999      65642063 
 4999      68617200 
 5000              	.LASF47:
 5001 0166 705F6D70 		.ascii	"p_mpool\000"
 5001      6F6F6C00 
ARM GAS  /var/folders/m4/4md61f0s1_g0rzfghffqnxvr0000gn/T//ccElzD9Y.s 			page 90


 5002              	.LASF100:
 5003 016e 6D5F7175 		.ascii	"m_queue\000"
 5003      65756500 
 5004              	.LASF79:
 5005 0176 76746C69 		.ascii	"vtlist\000"
 5005      737400
 5006              	.LASF119:
 5007 017d 706F7274 		.ascii	"port_unlock\000"
 5007      5F756E6C 
 5007      6F636B00 
 5008              	.LASF22:
 5009 0189 74736C69 		.ascii	"tslices_t\000"
 5009      6365735F 
 5009      7400
 5010              	.LASF117:
 5011 0193 6F757470 		.ascii	"output_queue_t\000"
 5011      75745F71 
 5011      75657565 
 5011      5F7400
 5012              	.LASF92:
 5013 01a2 77747472 		.ascii	"wttrp\000"
 5013      7000
 5014              	.LASF77:
 5015 01a8 63685F73 		.ascii	"ch_system\000"
 5015      79737465 
 5015      6D00
 5016              	.LASF8:
 5017 01b2 6C6F6E67 		.ascii	"long int\000"
 5017      20696E74 
 5017      00
 5018              	.LASF20:
 5019 01bb 74737461 		.ascii	"tstate_t\000"
 5019      74655F74 
 5019      00
 5020              	.LASF144:
 5021 01c4 63684F51 		.ascii	"chOQGetI\000"
 5021      47657449 
 5021      00
 5022              	.LASF109:
 5023 01cd 715F6275 		.ascii	"q_buffer\000"
 5023      66666572 
 5023      00
 5024              	.LASF33:
 5025 01d6 705F6E65 		.ascii	"p_newer\000"
 5025      77657200 
 5026              	.LASF97:
 5027 01de 735F7175 		.ascii	"s_queue\000"
 5027      65756500 
 5028              	.LASF6:
 5029 01e6 73686F72 		.ascii	"short unsigned int\000"
 5029      7420756E 
 5029      7369676E 
 5029      65642069 
 5029      6E7400
 5030              	.LASF59:
 5031 01f9 725F6E65 		.ascii	"r_newer\000"
 5031      77657200 
ARM GAS  /var/folders/m4/4md61f0s1_g0rzfghffqnxvr0000gn/T//ccElzD9Y.s 			page 91


 5032              	.LASF83:
 5033 0201 72656761 		.ascii	"regarm_t\000"
 5033      726D5F74 
 5033      00
 5034              	.LASF66:
 5035 020a 76745F70 		.ascii	"vt_prev\000"
 5035      72657600 
 5036              	.LASF133:
 5037 0212 6C696E6B 		.ascii	"link\000"
 5037      00
 5038              	.LASF136:
 5039 0217 63684951 		.ascii	"chIQPutI\000"
 5039      50757449 
 5039      00
 5040              	.LASF104:
 5041 0220 6D757465 		.ascii	"mutex_t\000"
 5041      785F7400 
 5042              	.LASF122:
 5043 0228 76616C75 		.ascii	"value\000"
 5043      6500
 5044              	.LASF106:
 5045 022e 696F5F71 		.ascii	"io_queue\000"
 5045      75657565 
 5045      00
 5046              	.LASF81:
 5047 0237 69646C65 		.ascii	"idle_thread_wa\000"
 5047      5F746872 
 5047      6561645F 
 5047      776100
 5048              	.LASF26:
 5049 0246 636E745F 		.ascii	"cnt_t\000"
 5049      7400
 5050              	.LASF0:
 5051 024c 756E7369 		.ascii	"unsigned int\000"
 5051      676E6564 
 5051      20696E74 
 5051      00
 5052              	.LASF65:
 5053 0259 76745F6E 		.ascii	"vt_next\000"
 5053      65787400 
 5054              	.LASF40:
 5055 0261 705F7469 		.ascii	"p_time\000"
 5055      6D6500
 5056              	.LASF93:
 5057 0268 77747365 		.ascii	"wtsemp\000"
 5057      6D7000
 5058              	.LASF67:
 5059 026f 76745F64 		.ascii	"vt_delta\000"
 5059      656C7461 
 5059      00
 5060              	.LASF42:
 5061 0278 705F6D73 		.ascii	"p_msgqueue\000"
 5061      67717565 
 5061      756500
 5062              	.LASF138:
 5063 0283 74696D65 		.ascii	"timeout\000"
 5063      6F757400 
ARM GAS  /var/folders/m4/4md61f0s1_g0rzfghffqnxvr0000gn/T//ccElzD9Y.s 			page 92


 5064              	.LASF98:
 5065 028b 735F636E 		.ascii	"s_cnt\000"
 5065      7400
 5066              	.LASF111:
 5067 0291 715F7772 		.ascii	"q_wrptr\000"
 5067      70747200 
 5068              	.LASF50:
 5069 0299 63685F74 		.ascii	"ch_thread\000"
 5069      68726561 
 5069      6400
 5070              	.LASF24:
 5071 02a3 6D73675F 		.ascii	"msg_t\000"
 5071      7400
 5072              	.LASF153:
 5073 02a9 2F557365 		.ascii	"/Users/raphael/Documents/Projects/rESC/resc-firmwar"
 5073      72732F72 
 5073      61706861 
 5073      656C2F44 
 5073      6F63756D 
 5074 02dc 6500     		.ascii	"e\000"
 5075              	.LASF76:
 5076 02de 63685F73 		.ascii	"ch_system_t\000"
 5076      79737465 
 5076      6D5F7400 
 5077              	.LASF149:
 5078 02ea 63685468 		.ascii	"chThdDequeueNextI\000"
 5078      64446571 
 5078      75657565 
 5078      4E657874 
 5078      4900
 5079              	.LASF55:
 5080 02fc 63685F72 		.ascii	"ch_ready_list\000"
 5080      65616479 
 5080      5F6C6973 
 5080      7400
 5081              	.LASF25:
 5082 030a 6576656E 		.ascii	"eventmask_t\000"
 5082      746D6173 
 5082      6B5F7400 
 5083              	.LASF7:
 5084 0316 5F5F696E 		.ascii	"__int32_t\000"
 5084      7433325F 
 5084      7400
 5085              	.LASF84:
 5086 0320 73746B61 		.ascii	"stkalign_t\000"
 5086      6C69676E 
 5086      5F7400
 5087              	.LASF145:
 5088 032b 63684F51 		.ascii	"chOQWriteTimeout\000"
 5088      57726974 
 5088      6554696D 
 5088      656F7574 
 5088      00
 5089              	.LASF49:
 5090 033c 74687265 		.ascii	"threads_list_t\000"
 5090      6164735F 
 5090      6C697374 
ARM GAS  /var/folders/m4/4md61f0s1_g0rzfghffqnxvr0000gn/T//ccElzD9Y.s 			page 93


 5090      5F7400
 5091              	.LASF123:
 5092 034b 63685468 		.ascii	"chThdQueueObjectInit\000"
 5092      64517565 
 5092      75654F62 
 5092      6A656374 
 5092      496E6974 
 5093              	.LASF82:
 5094 0360 73697A65 		.ascii	"sizetype\000"
 5094      74797065 
 5094      00
 5095              	.LASF48:
 5096 0369 74687265 		.ascii	"thread_reference_t\000"
 5096      61645F72 
 5096      65666572 
 5096      656E6365 
 5096      5F7400
 5097              	.LASF71:
 5098 037c 63685F76 		.ascii	"ch_virtual_timers_list\000"
 5098      69727475 
 5098      616C5F74 
 5098      696D6572 
 5098      735F6C69 
 5099              	.LASF108:
 5100 0393 715F636F 		.ascii	"q_counter\000"
 5100      756E7465 
 5100      7200
 5101              	.LASF34:
 5102 039d 705F6F6C 		.ascii	"p_older\000"
 5102      64657200 
 5103              	.LASF58:
 5104 03a5 725F6374 		.ascii	"r_ctx\000"
 5104      7800
 5105              	.LASF88:
 5106 03ab 746D5F63 		.ascii	"tm_calibration_t\000"
 5106      616C6962 
 5106      72617469 
 5106      6F6E5F74 
 5106      00
 5107              	.LASF61:
 5108 03bc 725F6375 		.ascii	"r_current\000"
 5108      7272656E 
 5108      7400
 5109              	.LASF60:
 5110 03c6 725F6F6C 		.ascii	"r_older\000"
 5110      64657200 
 5111              	.LASF12:
 5112 03ce 5F5F7569 		.ascii	"__uint64_t\000"
 5112      6E743634 
 5112      5F7400
 5113              	.LASF21:
 5114 03d9 74726566 		.ascii	"trefs_t\000"
 5114      735F7400 
 5115              	.LASF115:
 5116 03e1 716E6F74 		.ascii	"qnotify_t\000"
 5116      6966795F 
 5116      7400
ARM GAS  /var/folders/m4/4md61f0s1_g0rzfghffqnxvr0000gn/T//ccElzD9Y.s 			page 94


 5117              	.LASF63:
 5118 03eb 76697274 		.ascii	"virtual_timer_t\000"
 5118      75616C5F 
 5118      74696D65 
 5118      725F7400 
 5119              	.LASF30:
 5120 03fb 705F7072 		.ascii	"p_prev\000"
 5120      657600
 5121              	.LASF129:
 5122 0402 63684F51 		.ascii	"chOQIsFullI\000"
 5122      49734675 
 5122      6C6C4900 
 5123              	.LASF23:
 5124 040e 74707269 		.ascii	"tprio_t\000"
 5124      6F5F7400 
 5125              	.LASF112:
 5126 0416 715F7264 		.ascii	"q_rdptr\000"
 5126      70747200 
 5127              	.LASF74:
 5128 041e 63685F73 		.ascii	"ch_system_debug\000"
 5128      79737465 
 5128      6D5F6465 
 5128      62756700 
 5129              	.LASF124:
 5130 042e 5F426F6F 		.ascii	"_Bool\000"
 5130      6C00
 5131              	.LASF15:
 5132 0434 696E7433 		.ascii	"int32_t\000"
 5132      325F7400 
 5133              	.LASF4:
 5134 043c 756E7369 		.ascii	"unsigned char\000"
 5134      676E6564 
 5134      20636861 
 5134      7200
 5135              	.LASF116:
 5136 044a 696E7075 		.ascii	"input_queue_t\000"
 5136      745F7175 
 5136      6575655F 
 5136      7400
 5137              	.LASF36:
 5138 0458 705F7374 		.ascii	"p_state\000"
 5138      61746500 
 5139              	.LASF45:
 5140 0460 705F6D74 		.ascii	"p_mtxlist\000"
 5140      786C6973 
 5140      7400
 5141              	.LASF5:
 5142 046a 73686F72 		.ascii	"short int\000"
 5142      7420696E 
 5142      7400
 5143              	.LASF39:
 5144 0474 705F7072 		.ascii	"p_preempt\000"
 5144      65656D70 
 5144      7400
 5145              	.LASF57:
 5146 047e 725F7072 		.ascii	"r_prio\000"
 5146      696F00
ARM GAS  /var/folders/m4/4md61f0s1_g0rzfghffqnxvr0000gn/T//ccElzD9Y.s 			page 95


 5147              	.LASF95:
 5148 0485 65776D61 		.ascii	"ewmask\000"
 5148      736B00
 5149              	.LASF29:
 5150 048c 705F6E65 		.ascii	"p_next\000"
 5150      787400
 5151              	.LASF132:
 5152 0493 696E6679 		.ascii	"infy\000"
 5152      00
 5153              	.LASF37:
 5154 0498 705F666C 		.ascii	"p_flags\000"
 5154      61677300 
 5155              	.LASF146:
 5156 04a0 5F5F6675 		.ascii	"__func__\000"
 5156      6E635F5F 
 5156      00
 5157              	.LASF125:
 5158 04a9 63685379 		.ascii	"chSysLock\000"
 5158      734C6F63 
 5158      6B00
 5159              	.LASF52:
 5160 04b3 74687265 		.ascii	"threads_queue_t\000"
 5160      6164735F 
 5160      71756575 
 5160      655F7400 
 5161              	.LASF64:
 5162 04c3 63685F76 		.ascii	"ch_virtual_timer\000"
 5162      69727475 
 5162      616C5F74 
 5162      696D6572 
 5162      00
 5163              	.LASF96:
 5164 04d4 63685F73 		.ascii	"ch_semaphore\000"
 5164      656D6170 
 5164      686F7265 
 5164      00
 5165              	.LASF44:
 5166 04e1 705F6570 		.ascii	"p_epending\000"
 5166      656E6469 
 5166      6E6700
 5167              	.LASF127:
 5168 04ec 63684951 		.ascii	"chIQIsFullI\000"
 5168      49734675 
 5168      6C6C4900 
 5169              	.LASF16:
 5170 04f8 75696E74 		.ascii	"uint32_t\000"
 5170      33325F74 
 5170      00
 5171              	.LASF94:
 5172 0501 77746D74 		.ascii	"wtmtxp\000"
 5172      787000
 5173              	.LASF56:
 5174 0508 725F7175 		.ascii	"r_queue\000"
 5174      65756500 
 5175              	.LASF51:
 5176 0510 63685F74 		.ascii	"ch_threads_list\000"
 5176      68726561 
ARM GAS  /var/folders/m4/4md61f0s1_g0rzfghffqnxvr0000gn/T//ccElzD9Y.s 			page 96


 5176      64735F6C 
 5176      69737400 
 5177              	.LASF10:
 5178 0520 6C6F6E67 		.ascii	"long unsigned int\000"
 5178      20756E73 
 5178      69676E65 
 5178      6420696E 
 5178      7400
 5179              	.LASF103:
 5180 0532 63686172 		.ascii	"char\000"
 5180      00
 5181              	.LASF151:
 5182 0537 474E5520 		.ascii	"GNU C99 5.2.1 20151202 (release) [ARM/embedded-5-br"
 5182      43393920 
 5182      352E322E 
 5182      31203230 
 5182      31353132 
 5183 056a 616E6368 		.ascii	"anch revision 231848] -mcpu=cortex-m4 -mfloat-abi=h"
 5183      20726576 
 5183      6973696F 
 5183      6E203233 
 5183      31383438 
 5184 059d 61726420 		.ascii	"ard -mfpu=fpv4-sp-d16 -mno-thumb-interwork -mthumb "
 5184      2D6D6670 
 5184      753D6670 
 5184      76342D73 
 5184      702D6431 
 5185 05d0 2D676764 		.ascii	"-ggdb -O2 -std=c99 -fomit-frame-pointer -falign-fun"
 5185      62202D4F 
 5185      32202D73 
 5185      74643D63 
 5185      3939202D 
 5186 0603 6374696F 		.ascii	"ctions=16 -ffunction-sections -fdata-sections -fno-"
 5186      6E733D31 
 5186      36202D66 
 5186      66756E63 
 5186      74696F6E 
 5187 0636 636F6D6D 		.ascii	"common\000"
 5187      6F6E00
 5188              	.LASF28:
 5189 063d 74687265 		.ascii	"thread_t\000"
 5189      61645F74 
 5189      00
 5190              	.LASF102:
 5191 0646 6D5F6E65 		.ascii	"m_next\000"
 5191      787400
 5192              	.LASF27:
 5193 064d 73797374 		.ascii	"systime_t\000"
 5193      696D655F 
 5193      7400
 5194              	.LASF46:
 5195 0657 705F7265 		.ascii	"p_realprio\000"
 5195      616C7072 
 5195      696F00
 5196              	.LASF62:
 5197 0662 76746675 		.ascii	"vtfunc_t\000"
 5197      6E635F74 
ARM GAS  /var/folders/m4/4md61f0s1_g0rzfghffqnxvr0000gn/T//ccElzD9Y.s 			page 97


 5197      00
 5198              	.LASF9:
 5199 066b 5F5F7569 		.ascii	"__uint32_t\000"
 5199      6E743332 
 5199      5F7400
 5200              	.LASF120:
 5201 0676 5F5F7365 		.ascii	"__set_BASEPRI\000"
 5201      745F4241 
 5201      53455052 
 5201      4900
 5202              	.LASF75:
 5203 0684 70616E69 		.ascii	"panic_msg\000"
 5203      635F6D73 
 5203      6700
 5204              	.LASF87:
 5205 068e 6F666673 		.ascii	"offset\000"
 5205      657400
 5206              	.LASF142:
 5207 0695 63684F51 		.ascii	"chOQResetI\000"
 5207      52657365 
 5207      744900
 5208              	.LASF85:
 5209 06a0 636F6E74 		.ascii	"context\000"
 5209      65787400 
 5210              	.LASF18:
 5211 06a8 7274636E 		.ascii	"rtcnt_t\000"
 5211      745F7400 
 5212              	.LASF69:
 5213 06b0 76745F70 		.ascii	"vt_par\000"
 5213      617200
 5214              	.LASF140:
 5215 06b7 63684F51 		.ascii	"chOQObjectInit\000"
 5215      4F626A65 
 5215      6374496E 
 5215      697400
 5216              	.LASF110:
 5217 06c6 715F746F 		.ascii	"q_top\000"
 5217      7000
 5218              	.LASF99:
 5219 06cc 63685F6D 		.ascii	"ch_mutex\000"
 5219      75746578 
 5219      00
 5220              	.LASF38:
 5221 06d5 705F7265 		.ascii	"p_refs\000"
 5221      667300
 5222              	.LASF128:
 5223 06dc 63684951 		.ascii	"chIQIsEmptyI\000"
 5223      4973456D 
 5223      70747949 
 5223      00
 5224              	.LASF113:
 5225 06e9 715F6E6F 		.ascii	"q_notify\000"
 5225      74696679 
 5225      00
 5226              	.LASF78:
 5227 06f2 726C6973 		.ascii	"rlist\000"
 5227      7400
ARM GAS  /var/folders/m4/4md61f0s1_g0rzfghffqnxvr0000gn/T//ccElzD9Y.s 			page 98


 5228              	.LASF14:
 5229 06f8 75696E74 		.ascii	"uint8_t\000"
 5229      385F7400 
 5230              	.LASF91:
 5231 0700 77746F62 		.ascii	"wtobjp\000"
 5231      6A7000
 5232              	.LASF35:
 5233 0707 705F6E61 		.ascii	"p_name\000"
 5233      6D6500
 5234              	.LASF131:
 5235 070e 73697A65 		.ascii	"size\000"
 5235      00
 5236              	.LASF130:
 5237 0713 63684F51 		.ascii	"chOQIsEmptyI\000"
 5237      4973456D 
 5237      70747949 
 5237      00
 5238              	.LASF72:
 5239 0720 76745F73 		.ascii	"vt_systime\000"
 5239      79737469 
 5239      6D6500
 5240              	.LASF19:
 5241 072b 746D6F64 		.ascii	"tmode_t\000"
 5241      655F7400 
 5242              	.LASF126:
 5243 0733 63685379 		.ascii	"chSysUnlock\000"
 5243      73556E6C 
 5243      6F636B00 
 5244              	.LASF43:
 5245 073f 705F6D73 		.ascii	"p_msg\000"
 5245      6700
 5246              	.LASF114:
 5247 0745 715F6C69 		.ascii	"q_link\000"
 5247      6E6B00
 5248              	.LASF101:
 5249 074c 6D5F6F77 		.ascii	"m_owner\000"
 5249      6E657200 
 5250              	.LASF32:
 5251 0754 705F6374 		.ascii	"p_ctx\000"
 5251      7800
 5252              	.LASF68:
 5253 075a 76745F66 		.ascii	"vt_func\000"
 5253      756E6300 
 5254              	.LASF137:
 5255 0762 63684951 		.ascii	"chIQGetTimeout\000"
 5255      47657454 
 5255      696D656F 
 5255      757400
 5256              	.LASF150:
 5257 0771 63685468 		.ascii	"chThdEnqueueTimeoutS\000"
 5257      64456E71 
 5257      75657565 
 5257      54696D65 
 5257      6F757453 
 5258              	.LASF41:
 5259 0786 705F7761 		.ascii	"p_waiting\000"
 5259      6974696E 
ARM GAS  /var/folders/m4/4md61f0s1_g0rzfghffqnxvr0000gn/T//ccElzD9Y.s 			page 99


 5259      6700
 5260              		.ident	"GCC: (GNU Tools for ARM Embedded Processors) 5.2.1 20151202 (release) [ARM/embedded-5-bran
ARM GAS  /var/folders/m4/4md61f0s1_g0rzfghffqnxvr0000gn/T//ccElzD9Y.s 			page 100


DEFINED SYMBOLS
                            *ABS*:0000000000000000 chqueues.c
/var/folders/m4/4md61f0s1_g0rzfghffqnxvr0000gn/T//ccElzD9Y.s:22     .text.chIQObjectInit:0000000000000000 $t
/var/folders/m4/4md61f0s1_g0rzfghffqnxvr0000gn/T//ccElzD9Y.s:28     .text.chIQObjectInit:0000000000000000 chIQObjectInit
/var/folders/m4/4md61f0s1_g0rzfghffqnxvr0000gn/T//ccElzD9Y.s:85     .text.chIQResetI:0000000000000000 $t
/var/folders/m4/4md61f0s1_g0rzfghffqnxvr0000gn/T//ccElzD9Y.s:91     .text.chIQResetI:0000000000000000 chIQResetI
/var/folders/m4/4md61f0s1_g0rzfghffqnxvr0000gn/T//ccElzD9Y.s:117    .text.chIQPutI:0000000000000000 $t
/var/folders/m4/4md61f0s1_g0rzfghffqnxvr0000gn/T//ccElzD9Y.s:123    .text.chIQPutI:0000000000000000 chIQPutI
/var/folders/m4/4md61f0s1_g0rzfghffqnxvr0000gn/T//ccElzD9Y.s:197    .text.chIQGetTimeout:0000000000000000 $t
/var/folders/m4/4md61f0s1_g0rzfghffqnxvr0000gn/T//ccElzD9Y.s:203    .text.chIQGetTimeout:0000000000000000 chIQGetTimeout
/var/folders/m4/4md61f0s1_g0rzfghffqnxvr0000gn/T//ccElzD9Y.s:357    .text.chIQReadTimeout:0000000000000000 $t
/var/folders/m4/4md61f0s1_g0rzfghffqnxvr0000gn/T//ccElzD9Y.s:363    .text.chIQReadTimeout:0000000000000000 chIQReadTimeout
/var/folders/m4/4md61f0s1_g0rzfghffqnxvr0000gn/T//ccElzD9Y.s:563    .text.chOQObjectInit:0000000000000000 $t
/var/folders/m4/4md61f0s1_g0rzfghffqnxvr0000gn/T//ccElzD9Y.s:569    .text.chOQObjectInit:0000000000000000 chOQObjectInit
/var/folders/m4/4md61f0s1_g0rzfghffqnxvr0000gn/T//ccElzD9Y.s:620    .text.chOQResetI:0000000000000000 $t
/var/folders/m4/4md61f0s1_g0rzfghffqnxvr0000gn/T//ccElzD9Y.s:626    .text.chOQResetI:0000000000000000 chOQResetI
/var/folders/m4/4md61f0s1_g0rzfghffqnxvr0000gn/T//ccElzD9Y.s:661    .text.chOQPutTimeout:0000000000000000 $t
/var/folders/m4/4md61f0s1_g0rzfghffqnxvr0000gn/T//ccElzD9Y.s:667    .text.chOQPutTimeout:0000000000000000 chOQPutTimeout
/var/folders/m4/4md61f0s1_g0rzfghffqnxvr0000gn/T//ccElzD9Y.s:813    .text.chOQGetI:0000000000000000 $t
/var/folders/m4/4md61f0s1_g0rzfghffqnxvr0000gn/T//ccElzD9Y.s:819    .text.chOQGetI:0000000000000000 chOQGetI
/var/folders/m4/4md61f0s1_g0rzfghffqnxvr0000gn/T//ccElzD9Y.s:890    .text.chOQWriteTimeout:0000000000000000 $t
/var/folders/m4/4md61f0s1_g0rzfghffqnxvr0000gn/T//ccElzD9Y.s:896    .text.chOQWriteTimeout:0000000000000000 chOQWriteTimeout
                     .debug_frame:0000000000000010 $d

UNDEFINED SYMBOLS
chThdDequeueAllI
chThdDequeueNextI
chThdEnqueueTimeoutS
