ARM GAS  /var/folders/m4/4md61f0s1_g0rzfghffqnxvr0000gn/T//ccYSFrIo.s 			page 1


   1              		.syntax unified
   2              		.cpu cortex-m4
   3              		.eabi_attribute 27, 1
   4              		.eabi_attribute 28, 1
   5              		.fpu fpv4-sp-d16
   6              		.eabi_attribute 20, 1
   7              		.eabi_attribute 21, 1
   8              		.eabi_attribute 23, 3
   9              		.eabi_attribute 24, 1
  10              		.eabi_attribute 25, 1
  11              		.eabi_attribute 26, 1
  12              		.eabi_attribute 30, 2
  13              		.eabi_attribute 34, 1
  14              		.eabi_attribute 18, 4
  15              		.thumb
  16              		.syntax unified
  17              		.file	"chschd.c"
  18              		.text
  19              	.Ltext0:
  20              		.cfi_sections	.debug_frame
  21              		.section	.text.wakeup,"ax",%progbits
  22              		.align	2
  23              		.p2align 4,,15
  24              		.thumb
  25              		.thumb_func
  26              		.type	wakeup, %function
  27              	wakeup:
  28              	.LFB234:
  29              		.file 1 "ChibiOS_16.1.4/os/rt/src/chschd.c"
  30              		.loc 1 275 0
  31              		.cfi_startproc
  32              		@ args = 0, pretend = 0, frame = 0
  33              		@ frame_needed = 0, uses_anonymous_args = 0
  34              		@ link register save eliminated.
  35              	.LVL0:
  36 0000 10B4     		push	{r4}
  37              		.cfi_def_cfa_offset 4
  38              		.cfi_offset 4, -4
  39              	.LBB128:
  40              	.LBB129:
  41              	.LBB130:
  42              	.LBB131:
  43              	.LBB132:
  44              		.file 2 "ChibiOS_16.1.4/os/ext/CMSIS/include/core_cmFunc.h"
  45              		.loc 2 548 0
  46 0002 2023     		movs	r3, #32
  47              		.syntax unified
  48              	@ 548 "ChibiOS_16.1.4/os/ext/CMSIS/include/core_cmFunc.h" 1
  49 0004 83F31188 		MSR basepri, r3
  50              	@ 0 "" 2
  51              	.LVL1:
  52              		.thumb
  53              		.syntax unified
  54              	.LBE132:
  55              	.LBE131:
  56              	.LBE130:
  57              	.LBE129:
ARM GAS  /var/folders/m4/4md61f0s1_g0rzfghffqnxvr0000gn/T//ccYSFrIo.s 			page 2


  58              	.LBE128:
  59              		.loc 1 279 0
  60 0008 037F     		ldrb	r3, [r0, #28]	@ zero_extendqisi2
  61 000a 072B     		cmp	r3, #7
  62 000c 0ED8     		bhi	.L2
  63 000e DFE803F0 		tbb	[pc, r3]
  64              	.L4:
  65 0012 27       		.byte	(.L3-.L4)/2
  66 0013 0D       		.byte	(.L2-.L4)/2
  67 0014 0D       		.byte	(.L2-.L4)/2
  68 0015 23       		.byte	(.L5-.L4)/2
  69 0016 08       		.byte	(.L6-.L4)/2
  70 0017 04       		.byte	(.L7-.L4)/2
  71 0018 0D       		.byte	(.L2-.L4)/2
  72 0019 08       		.byte	(.L6-.L4)/2
  73              		.p2align 1
  74              	.L7:
  75              		.loc 1 290 0
  76 001a 426A     		ldr	r2, [r0, #36]
  77              	.LVL2:
  78              	.LBB133:
  79              	.LBB134:
  80              		.file 3 "ChibiOS_16.1.4/os/rt/include/chsem.h"
  81              		.loc 3 138 0
  82 001c 9368     		ldr	r3, [r2, #8]
  83 001e 0133     		adds	r3, r3, #1
  84 0020 9360     		str	r3, [r2, #8]
  85              	.LVL3:
  86              	.L6:
  87              	.LBE134:
  88              	.LBE133:
  89              	.LBB135:
  90              	.LBB136:
  91              		.file 4 "ChibiOS_16.1.4/os/rt/include/chschd.h"
  92              		.loc 4 691 0
  93 0022 90E80C00 		ldmia	r0, {r2, r3}
  94 0026 1A60     		str	r2, [r3]
  95              		.loc 4 692 0
  96 0028 0268     		ldr	r2, [r0]
  97 002a 5360     		str	r3, [r2, #4]
  98              	.LVL4:
  99              	.L2:
 100              	.LBE136:
 101              	.LBE135:
 102              		.loc 1 304 0
 103 002c 4FF0FF34 		mov	r4, #-1
 104              	.LBB137:
 105              	.LBB138:
 106              		.loc 1 227 0
 107 0030 0022     		movs	r2, #0
 108 0032 8168     		ldr	r1, [r0, #8]
 109              	.LBE138:
 110              	.LBE137:
 111              	.LBB140:
 112              	.LBB141:
 113              	.LBB142:
 114              	.LBB143:
ARM GAS  /var/folders/m4/4md61f0s1_g0rzfghffqnxvr0000gn/T//ccYSFrIo.s 			page 3


 115              		.loc 1 228 0
 116 0034 0D4B     		ldr	r3, .L13
 117              	.LBE143:
 118              	.LBE142:
 119              	.LBE141:
 120              	.LBE140:
 121              		.loc 1 304 0
 122 0036 4462     		str	r4, [r0, #36]
 123              	.LVL5:
 124              	.LBB159:
 125              	.LBB139:
 126              		.loc 1 227 0
 127 0038 0277     		strb	r2, [r0, #28]
 128              	.LVL6:
 129              	.L9:
 130              	.LBE139:
 131              	.LBE159:
 132              	.LBB160:
 133              	.LBB158:
 134              	.LBB146:
 135              	.LBB144:
 136              		.loc 1 230 0
 137 003a 1B68     		ldr	r3, [r3]
 138              	.LVL7:
 139              		.loc 1 231 0
 140 003c 9A68     		ldr	r2, [r3, #8]
 141 003e 8A42     		cmp	r2, r1
 142 0040 FBD2     		bcs	.L9
 143              		.loc 1 234 0
 144 0042 5A68     		ldr	r2, [r3, #4]
 145 0044 4260     		str	r2, [r0, #4]
 146              		.loc 1 233 0
 147 0046 0360     		str	r3, [r0]
 148              	.LBE144:
 149              	.LBE146:
 150              	.LBB147:
 151              	.LBB148:
 152              	.LBB149:
 153              	.LBB150:
 154              	.LBB151:
 155              		.loc 2 548 0
 156 0048 0021     		movs	r1, #0
 157              	.LBE151:
 158              	.LBE150:
 159              	.LBE149:
 160              	.LBE148:
 161              	.LBE147:
 162              	.LBB156:
 163              	.LBB145:
 164              		.loc 1 235 0
 165 004a 1060     		str	r0, [r2]
 166              		.loc 1 236 0
 167 004c 5860     		str	r0, [r3, #4]
 168              	.LVL8:
 169              	.LBE145:
 170              	.LBE156:
 171              	.LBB157:
ARM GAS  /var/folders/m4/4md61f0s1_g0rzfghffqnxvr0000gn/T//ccYSFrIo.s 			page 4


 172              	.LBB155:
 173              	.LBB154:
 174              	.LBB153:
 175              	.LBB152:
 176              		.loc 2 548 0
 177              		.syntax unified
 178              	@ 548 "ChibiOS_16.1.4/os/ext/CMSIS/include/core_cmFunc.h" 1
 179 004e 81F31188 		MSR basepri, r1
 180              	@ 0 "" 2
 181              	.LVL9:
 182              		.thumb
 183              		.syntax unified
 184              	.LBE152:
 185              	.LBE153:
 186              	.LBE154:
 187              	.LBE155:
 188              	.LBE157:
 189              	.LBE158:
 190              	.LBE160:
 191              		.loc 1 307 0
 192 0052 5DF8044B 		ldr	r4, [sp], #4
 193              		.cfi_remember_state
 194              		.cfi_restore 4
 195              		.cfi_def_cfa_offset 0
 196 0056 7047     		bx	lr
 197              	.LVL10:
 198              	.L5:
 199              		.cfi_restore_state
 200              		.loc 1 286 0
 201 0058 436A     		ldr	r3, [r0, #36]
 202 005a 0022     		movs	r2, #0
 203 005c 1A60     		str	r2, [r3]
 204              		.loc 1 287 0
 205 005e E5E7     		b	.L2
 206              	.L3:
 207              	.LVL11:
 208              	.LBB161:
 209              	.LBB162:
 210              	.LBB163:
 211              	.LBB164:
 212              	.LBB165:
 213              		.loc 2 548 0
 214 0060 0023     		movs	r3, #0
 215              		.syntax unified
 216              	@ 548 "ChibiOS_16.1.4/os/ext/CMSIS/include/core_cmFunc.h" 1
 217 0062 83F31188 		MSR basepri, r3
 218              	@ 0 "" 2
 219              	.LVL12:
 220              		.thumb
 221              		.syntax unified
 222              	.LBE165:
 223              	.LBE164:
 224              	.LBE163:
 225              	.LBE162:
 226              	.LBE161:
 227              		.loc 1 307 0
 228 0066 5DF8044B 		ldr	r4, [sp], #4
ARM GAS  /var/folders/m4/4md61f0s1_g0rzfghffqnxvr0000gn/T//ccYSFrIo.s 			page 5


 229              		.cfi_restore 4
 230              		.cfi_def_cfa_offset 0
 231 006a 7047     		bx	lr
 232              	.L14:
 233              		.align	2
 234              	.L13:
 235 006c 00000000 		.word	.LANCHOR0
 236              		.cfi_endproc
 237              	.LFE234:
 238              		.size	wakeup, .-wakeup
 239              		.section	.text._scheduler_init,"ax",%progbits
 240              		.align	2
 241              		.p2align 4,,15
 242              		.global	_scheduler_init
 243              		.thumb
 244              		.thumb_func
 245              		.type	_scheduler_init, %function
 246              	_scheduler_init:
 247              	.LFB231:
 248              		.loc 1 65 0
 249              		.cfi_startproc
 250              		@ args = 0, pretend = 0, frame = 0
 251              		@ frame_needed = 0, uses_anonymous_args = 0
 252              		@ link register save eliminated.
 253              	.LVL13:
 254              	.LBB166:
 255              	.LBB167:
 256              		.loc 4 604 0
 257 0000 034B     		ldr	r3, .L16
 258              	.LBE167:
 259              	.LBE166:
 260              		.loc 1 68 0
 261 0002 0022     		movs	r2, #0
 262              	.LBB169:
 263              	.LBB168:
 264              		.loc 4 604 0
 265 0004 1B60     		str	r3, [r3]
 266              		.loc 4 605 0
 267 0006 5B60     		str	r3, [r3, #4]
 268              	.LVL14:
 269              	.LBE168:
 270              	.LBE169:
 271              		.loc 1 70 0
 272 0008 1B61     		str	r3, [r3, #16]
 273              		.loc 1 71 0
 274 000a 5B61     		str	r3, [r3, #20]
 275              		.loc 1 68 0
 276 000c 9A60     		str	r2, [r3, #8]
 277 000e 7047     		bx	lr
 278              	.L17:
 279              		.align	2
 280              	.L16:
 281 0010 00000000 		.word	.LANCHOR0
 282              		.cfi_endproc
 283              	.LFE231:
 284              		.size	_scheduler_init, .-_scheduler_init
 285              		.section	.text.chSchReadyI,"ax",%progbits
ARM GAS  /var/folders/m4/4md61f0s1_g0rzfghffqnxvr0000gn/T//ccYSFrIo.s 			page 6


 286              		.align	2
 287              		.p2align 4,,15
 288              		.global	chSchReadyI
 289              		.thumb
 290              		.thumb_func
 291              		.type	chSchReadyI, %function
 292              	chSchReadyI:
 293              	.LFB232:
 294              		.loc 1 218 0
 295              		.cfi_startproc
 296              		@ args = 0, pretend = 0, frame = 0
 297              		@ frame_needed = 0, uses_anonymous_args = 0
 298              		@ link register save eliminated.
 299              	.LVL15:
 300              		.loc 1 227 0
 301 0000 0022     		movs	r2, #0
 302 0002 8168     		ldr	r1, [r0, #8]
 303              		.loc 1 228 0
 304 0004 084B     		ldr	r3, .L22
 305              		.loc 1 218 0
 306 0006 10B4     		push	{r4}
 307              		.cfi_def_cfa_offset 4
 308              		.cfi_offset 4, -4
 309              		.loc 1 218 0
 310 0008 0446     		mov	r4, r0
 311              		.loc 1 227 0
 312 000a 0277     		strb	r2, [r0, #28]
 313              	.LVL16:
 314              	.L19:
 315              		.loc 1 230 0 discriminator 1
 316 000c 1B68     		ldr	r3, [r3]
 317              	.LVL17:
 318              		.loc 1 231 0 discriminator 1
 319 000e 9A68     		ldr	r2, [r3, #8]
 320 0010 8A42     		cmp	r2, r1
 321 0012 FBD2     		bcs	.L19
 322              		.loc 1 234 0
 323 0014 5A68     		ldr	r2, [r3, #4]
 324 0016 6260     		str	r2, [r4, #4]
 325              		.loc 1 233 0
 326 0018 2360     		str	r3, [r4]
 327              		.loc 1 239 0
 328 001a 2046     		mov	r0, r4
 329              	.LVL18:
 330              		.loc 1 235 0
 331 001c 1460     		str	r4, [r2]
 332              		.loc 1 236 0
 333 001e 5C60     		str	r4, [r3, #4]
 334              		.loc 1 239 0
 335 0020 5DF8044B 		ldr	r4, [sp], #4
 336              		.cfi_restore 4
 337              		.cfi_def_cfa_offset 0
 338              	.LVL19:
 339 0024 7047     		bx	lr
 340              	.L23:
 341 0026 00BF     		.align	2
 342              	.L22:
ARM GAS  /var/folders/m4/4md61f0s1_g0rzfghffqnxvr0000gn/T//ccYSFrIo.s 			page 7


 343 0028 00000000 		.word	.LANCHOR0
 344              		.cfi_endproc
 345              	.LFE232:
 346              		.size	chSchReadyI, .-chSchReadyI
 347              		.section	.text.chSchGoSleepS,"ax",%progbits
 348              		.align	2
 349              		.p2align 4,,15
 350              		.global	chSchGoSleepS
 351              		.thumb
 352              		.thumb_func
 353              		.type	chSchGoSleepS, %function
 354              	chSchGoSleepS:
 355              	.LFB233:
 356              		.loc 1 250 0
 357              		.cfi_startproc
 358              		@ args = 0, pretend = 0, frame = 0
 359              		@ frame_needed = 0, uses_anonymous_args = 0
 360              		@ link register save eliminated.
 361              	.LVL20:
 362              		.loc 1 255 0
 363 0000 084B     		ldr	r3, .L26
 364 0002 9969     		ldr	r1, [r3, #24]
 365              	.LVL21:
 366              	.LBB170:
 367              	.LBB171:
 368              		.loc 4 672 0
 369 0004 1A68     		ldr	r2, [r3]
 370              	.LBE171:
 371              	.LBE170:
 372              		.loc 1 250 0
 373 0006 10B4     		push	{r4}
 374              		.cfi_def_cfa_offset 4
 375              		.cfi_offset 4, -4
 376              		.loc 1 256 0
 377 0008 0877     		strb	r0, [r1, #28]
 378              		.loc 1 260 0
 379 000a 0420     		movs	r0, #4
 380              	.LVL22:
 381 000c C877     		strb	r0, [r1, #31]
 382              	.LVL23:
 383              	.LBB174:
 384              	.LBB172:
 385              		.loc 4 674 0
 386 000e 1068     		ldr	r0, [r2]
 387 0010 1860     		str	r0, [r3]
 388              	.LBE172:
 389              	.LBE174:
 390              		.loc 1 268 0
 391 0012 0124     		movs	r4, #1
 392              	.LBB175:
 393              	.LBB173:
 394              		.loc 4 675 0
 395 0014 4360     		str	r3, [r0, #4]
 396              	.LVL24:
 397              	.LBE173:
 398              	.LBE175:
 399              		.loc 1 268 0
ARM GAS  /var/folders/m4/4md61f0s1_g0rzfghffqnxvr0000gn/T//ccYSFrIo.s 			page 8


 400 0016 1477     		strb	r4, [r2, #28]
 401              		.loc 1 269 0
 402 0018 1046     		mov	r0, r2
 403              		.loc 1 270 0
 404 001a 5DF8044B 		ldr	r4, [sp], #4
 405              		.cfi_restore 4
 406              		.cfi_def_cfa_offset 0
 407              		.loc 1 262 0
 408 001e 9A61     		str	r2, [r3, #24]
 409              		.loc 1 269 0
 410 0020 FFF7FEBF 		b	_port_switch
 411              	.LVL25:
 412              	.L27:
 413              		.align	2
 414              	.L26:
 415 0024 00000000 		.word	.LANCHOR0
 416              		.cfi_endproc
 417              	.LFE233:
 418              		.size	chSchGoSleepS, .-chSchGoSleepS
 419              		.section	.text.chSchGoSleepTimeoutS,"ax",%progbits
 420              		.align	2
 421              		.p2align 4,,15
 422              		.global	chSchGoSleepTimeoutS
 423              		.thumb
 424              		.thumb_func
 425              		.type	chSchGoSleepTimeoutS, %function
 426              	chSchGoSleepTimeoutS:
 427              	.LFB235:
 428              		.loc 1 330 0
 429              		.cfi_startproc
 430              		@ args = 0, pretend = 0, frame = 24
 431              		@ frame_needed = 0, uses_anonymous_args = 0
 432              	.LVL26:
 433 0000 30B5     		push	{r4, r5, lr}
 434              		.cfi_def_cfa_offset 12
 435              		.cfi_offset 4, -12
 436              		.cfi_offset 5, -8
 437              		.cfi_offset 14, -4
 438              		.loc 1 334 0
 439 0002 4B1C     		adds	r3, r1, #1
 440              		.loc 1 330 0
 441 0004 87B0     		sub	sp, sp, #28
 442              		.cfi_def_cfa_offset 40
 443              		.loc 1 334 0
 444 0006 12D0     		beq	.L29
 445              	.LBB176:
 446              		.loc 1 337 0
 447 0008 0C4C     		ldr	r4, .L36
 448 000a 0D4A     		ldr	r2, .L36+4
 449 000c A369     		ldr	r3, [r4, #24]
 450 000e 0546     		mov	r5, r0
 451 0010 01A8     		add	r0, sp, #4
 452              	.LVL27:
 453 0012 FFF7FEFF 		bl	chVTDoSetI
 454              	.LVL28:
 455              		.loc 1 338 0
 456 0016 2846     		mov	r0, r5
ARM GAS  /var/folders/m4/4md61f0s1_g0rzfghffqnxvr0000gn/T//ccYSFrIo.s 			page 9


 457 0018 FFF7FEFF 		bl	chSchGoSleepS
 458              	.LVL29:
 459              		.loc 1 339 0
 460 001c 049B     		ldr	r3, [sp, #16]
 461 001e 13B1     		cbz	r3, .L31
 462              		.loc 1 340 0
 463 0020 01A8     		add	r0, sp, #4
 464              	.LVL30:
 465 0022 FFF7FEFF 		bl	chVTDoResetI
 466              	.LVL31:
 467              	.L31:
 468              	.LBE176:
 469              		.loc 1 347 0
 470 0026 A369     		ldr	r3, [r4, #24]
 471              		.loc 1 348 0
 472 0028 586A     		ldr	r0, [r3, #36]
 473 002a 07B0     		add	sp, sp, #28
 474              		.cfi_remember_state
 475              		.cfi_def_cfa_offset 12
 476              		@ sp needed
 477 002c 30BD     		pop	{r4, r5, pc}
 478              	.LVL32:
 479              	.L29:
 480              		.cfi_restore_state
 481 002e 034C     		ldr	r4, .L36
 482              		.loc 1 344 0
 483 0030 FFF7FEFF 		bl	chSchGoSleepS
 484              	.LVL33:
 485              		.loc 1 347 0
 486 0034 A369     		ldr	r3, [r4, #24]
 487              		.loc 1 348 0
 488 0036 586A     		ldr	r0, [r3, #36]
 489 0038 07B0     		add	sp, sp, #28
 490              		.cfi_def_cfa_offset 12
 491              		@ sp needed
 492 003a 30BD     		pop	{r4, r5, pc}
 493              	.L37:
 494              		.align	2
 495              	.L36:
 496 003c 00000000 		.word	.LANCHOR0
 497 0040 00000000 		.word	wakeup
 498              		.cfi_endproc
 499              	.LFE235:
 500              		.size	chSchGoSleepTimeoutS, .-chSchGoSleepTimeoutS
 501              		.section	.text.chSchWakeupS,"ax",%progbits
 502              		.align	2
 503              		.p2align 4,,15
 504              		.global	chSchWakeupS
 505              		.thumb
 506              		.thumb_func
 507              		.type	chSchWakeupS, %function
 508              	chSchWakeupS:
 509              	.LFB236:
 510              		.loc 1 367 0
 511              		.cfi_startproc
 512              		@ args = 0, pretend = 0, frame = 0
 513              		@ frame_needed = 0, uses_anonymous_args = 0
ARM GAS  /var/folders/m4/4md61f0s1_g0rzfghffqnxvr0000gn/T//ccYSFrIo.s 			page 10


 514              		@ link register save eliminated.
 515              	.LVL34:
 516              		.loc 1 383 0
 517 0000 144B     		ldr	r3, .L47
 518              		.loc 1 367 0
 519 0002 70B4     		push	{r4, r5, r6}
 520              		.cfi_def_cfa_offset 12
 521              		.cfi_offset 4, -12
 522              		.cfi_offset 5, -8
 523              		.cfi_offset 6, -4
 524              		.loc 1 367 0
 525 0004 0446     		mov	r4, r0
 526              		.loc 1 383 0
 527 0006 9D69     		ldr	r5, [r3, #24]
 528              		.loc 1 377 0
 529 0008 4162     		str	r1, [r0, #36]
 530              		.loc 1 383 0
 531 000a A868     		ldr	r0, [r5, #8]
 532              	.LVL35:
 533 000c A168     		ldr	r1, [r4, #8]
 534              	.LVL36:
 535 000e 8142     		cmp	r1, r0
 536              	.LBB177:
 537              	.LBB178:
 538              		.loc 1 227 0
 539 0010 4FF00002 		mov	r2, #0
 540              	.LBE178:
 541              	.LBE177:
 542              		.loc 1 383 0
 543 0014 0BD8     		bhi	.L39
 544              	.LVL37:
 545              	.LBB180:
 546              	.LBB179:
 547              		.loc 1 227 0
 548 0016 2277     		strb	r2, [r4, #28]
 549              	.LVL38:
 550              	.L40:
 551              		.loc 1 230 0
 552 0018 1B68     		ldr	r3, [r3]
 553              	.LVL39:
 554              		.loc 1 231 0
 555 001a 9A68     		ldr	r2, [r3, #8]
 556 001c 9142     		cmp	r1, r2
 557 001e FBD9     		bls	.L40
 558              		.loc 1 234 0
 559 0020 5A68     		ldr	r2, [r3, #4]
 560 0022 6260     		str	r2, [r4, #4]
 561              		.loc 1 233 0
 562 0024 2360     		str	r3, [r4]
 563              		.loc 1 235 0
 564 0026 1460     		str	r4, [r2]
 565              	.LVL40:
 566              		.loc 1 236 0
 567 0028 5C60     		str	r4, [r3, #4]
 568              	.LBE179:
 569              	.LBE180:
 570              		.loc 1 397 0
ARM GAS  /var/folders/m4/4md61f0s1_g0rzfghffqnxvr0000gn/T//ccYSFrIo.s 			page 11


 571 002a 70BC     		pop	{r4, r5, r6}
 572              		.cfi_remember_state
 573              		.cfi_restore 6
 574              		.cfi_restore 5
 575              		.cfi_restore 4
 576              		.cfi_def_cfa_offset 0
 577              	.LVL41:
 578 002c 7047     		bx	lr
 579              	.LVL42:
 580              	.L39:
 581              		.cfi_restore_state
 582              	.LBB181:
 583              	.LBB182:
 584              	.LBB183:
 585              		.loc 1 227 0
 586 002e 2A77     		strb	r2, [r5, #28]
 587              	.LVL43:
 588              		.loc 1 228 0
 589 0030 1A46     		mov	r2, r3
 590              	.LVL44:
 591              	.L42:
 592              		.loc 1 230 0
 593 0032 1268     		ldr	r2, [r2]
 594              	.LVL45:
 595              		.loc 1 231 0
 596 0034 9168     		ldr	r1, [r2, #8]
 597 0036 8842     		cmp	r0, r1
 598 0038 FBD9     		bls	.L42
 599              		.loc 1 234 0
 600 003a 5068     		ldr	r0, [r2, #4]
 601 003c 6860     		str	r0, [r5, #4]
 602              	.LBE183:
 603              	.LBE182:
 604              		.loc 1 394 0
 605 003e 0126     		movs	r6, #1
 606              	.LBB185:
 607              	.LBB184:
 608              		.loc 1 233 0
 609 0040 2A60     		str	r2, [r5]
 610              		.loc 1 235 0
 611 0042 0560     		str	r5, [r0]
 612              		.loc 1 236 0
 613 0044 5560     		str	r5, [r2, #4]
 614              	.LVL46:
 615              	.LBE184:
 616              	.LBE185:
 617              		.loc 1 394 0
 618 0046 2677     		strb	r6, [r4, #28]
 619              		.loc 1 395 0
 620 0048 2946     		mov	r1, r5
 621 004a 2046     		mov	r0, r4
 622              		.loc 1 388 0
 623 004c 9C61     		str	r4, [r3, #24]
 624              	.LBE181:
 625              		.loc 1 397 0
 626 004e 70BC     		pop	{r4, r5, r6}
 627              		.cfi_restore 6
ARM GAS  /var/folders/m4/4md61f0s1_g0rzfghffqnxvr0000gn/T//ccYSFrIo.s 			page 12


 628              		.cfi_restore 5
 629              		.cfi_restore 4
 630              		.cfi_def_cfa_offset 0
 631              	.LVL47:
 632              	.LBB186:
 633              		.loc 1 395 0
 634 0050 FFF7FEBF 		b	_port_switch
 635              	.LVL48:
 636              	.L48:
 637              		.align	2
 638              	.L47:
 639 0054 00000000 		.word	.LANCHOR0
 640              	.LBE186:
 641              		.cfi_endproc
 642              	.LFE236:
 643              		.size	chSchWakeupS, .-chSchWakeupS
 644              		.section	.text.chSchIsPreemptionRequired,"ax",%progbits
 645              		.align	2
 646              		.p2align 4,,15
 647              		.global	chSchIsPreemptionRequired
 648              		.thumb
 649              		.thumb_func
 650              		.type	chSchIsPreemptionRequired, %function
 651              	chSchIsPreemptionRequired:
 652              	.LFB238:
 653              		.loc 1 428 0
 654              		.cfi_startproc
 655              		@ args = 0, pretend = 0, frame = 0
 656              		@ frame_needed = 0, uses_anonymous_args = 0
 657              		@ link register save eliminated.
 658              		.loc 1 429 0
 659 0000 084B     		ldr	r3, .L53
 660              		.loc 1 430 0
 661 0002 9A69     		ldr	r2, [r3, #24]
 662              		.loc 1 429 0
 663 0004 1B68     		ldr	r3, [r3]
 664              		.loc 1 437 0
 665 0006 D17F     		ldrb	r1, [r2, #31]	@ zero_extendqisi2
 666              		.loc 1 429 0
 667 0008 9B68     		ldr	r3, [r3, #8]
 668              	.LVL49:
 669              		.loc 1 430 0
 670 000a 9068     		ldr	r0, [r2, #8]
 671              	.LVL50:
 672              		.loc 1 437 0
 673 000c 21B9     		cbnz	r1, .L52
 674              		.loc 1 437 0 is_stmt 0 discriminator 2
 675 000e 8342     		cmp	r3, r0
 676 0010 34BF     		ite	cc
 677 0012 0020     		movcc	r0, #0
 678              	.LVL51:
 679 0014 0120     		movcs	r0, #1
 680              		.loc 1 443 0 is_stmt 1 discriminator 2
 681 0016 7047     		bx	lr
 682              	.LVL52:
 683              	.L52:
 684              		.loc 1 437 0 discriminator 1
ARM GAS  /var/folders/m4/4md61f0s1_g0rzfghffqnxvr0000gn/T//ccYSFrIo.s 			page 13


 685 0018 8342     		cmp	r3, r0
 686 001a 94BF     		ite	ls
 687 001c 0020     		movls	r0, #0
 688              	.LVL53:
 689 001e 0120     		movhi	r0, #1
 690 0020 7047     		bx	lr
 691              	.L54:
 692 0022 00BF     		.align	2
 693              	.L53:
 694 0024 00000000 		.word	.LANCHOR0
 695              		.cfi_endproc
 696              	.LFE238:
 697              		.size	chSchIsPreemptionRequired, .-chSchIsPreemptionRequired
 698              		.section	.text.chSchDoRescheduleBehind,"ax",%progbits
 699              		.align	2
 700              		.p2align 4,,15
 701              		.global	chSchDoRescheduleBehind
 702              		.thumb
 703              		.thumb_func
 704              		.type	chSchDoRescheduleBehind, %function
 705              	chSchDoRescheduleBehind:
 706              	.LFB239:
 707              		.loc 1 455 0
 708              		.cfi_startproc
 709              		@ args = 0, pretend = 0, frame = 0
 710              		@ frame_needed = 0, uses_anonymous_args = 0
 711              		@ link register save eliminated.
 712              		.loc 1 458 0
 713 0000 0E4A     		ldr	r2, .L60
 714              	.LBB187:
 715              	.LBB188:
 716              		.loc 4 672 0
 717 0002 1068     		ldr	r0, [r2]
 718              		.loc 4 674 0
 719 0004 0368     		ldr	r3, [r0]
 720              	.LBE188:
 721              	.LBE187:
 722              		.loc 1 455 0
 723 0006 70B4     		push	{r4, r5, r6}
 724              		.cfi_def_cfa_offset 12
 725              		.cfi_offset 4, -12
 726              		.cfi_offset 5, -8
 727              		.cfi_offset 6, -4
 728              		.loc 1 466 0
 729 0008 0121     		movs	r1, #1
 730              		.loc 1 458 0
 731 000a 9469     		ldr	r4, [r2, #24]
 732              	.LVL54:
 733              	.LBB191:
 734              	.LBB189:
 735              		.loc 4 675 0
 736 000c 5A60     		str	r2, [r3, #4]
 737              	.LVL55:
 738              	.LBE189:
 739              	.LBE191:
 740              		.loc 1 468 0
 741 000e 0426     		movs	r6, #4
ARM GAS  /var/folders/m4/4md61f0s1_g0rzfghffqnxvr0000gn/T//ccYSFrIo.s 			page 14


 742              		.loc 1 466 0
 743 0010 0177     		strb	r1, [r0, #28]
 744              	.LBB192:
 745              	.LBB193:
 746              		.loc 1 227 0
 747 0012 0025     		movs	r5, #0
 748 0014 A168     		ldr	r1, [r4, #8]
 749              	.LBE193:
 750              	.LBE192:
 751              	.LBB196:
 752              	.LBB190:
 753              		.loc 4 674 0
 754 0016 1360     		str	r3, [r2]
 755              	.LBE190:
 756              	.LBE196:
 757              		.loc 1 460 0
 758 0018 9061     		str	r0, [r2, #24]
 759              		.loc 1 468 0
 760 001a E677     		strb	r6, [r4, #31]
 761              	.LVL56:
 762              	.LBB197:
 763              	.LBB194:
 764              		.loc 1 227 0
 765 001c 2577     		strb	r5, [r4, #28]
 766              	.LVL57:
 767 001e 00E0     		b	.L57
 768              	.LVL58:
 769              	.L59:
 770 0020 1B68     		ldr	r3, [r3]
 771              	.L57:
 772              		.loc 1 231 0
 773 0022 9A68     		ldr	r2, [r3, #8]
 774 0024 8A42     		cmp	r2, r1
 775 0026 FBD2     		bcs	.L59
 776              		.loc 1 234 0
 777 0028 5A68     		ldr	r2, [r3, #4]
 778 002a 6260     		str	r2, [r4, #4]
 779              		.loc 1 233 0
 780 002c 2360     		str	r3, [r4]
 781              	.LBE194:
 782              	.LBE197:
 783              		.loc 1 471 0
 784 002e 2146     		mov	r1, r4
 785              	.LBB198:
 786              	.LBB195:
 787              		.loc 1 235 0
 788 0030 1460     		str	r4, [r2]
 789              		.loc 1 236 0
 790 0032 5C60     		str	r4, [r3, #4]
 791              	.LVL59:
 792              	.LBE195:
 793              	.LBE198:
 794              		.loc 1 472 0
 795 0034 70BC     		pop	{r4, r5, r6}
 796              		.cfi_restore 6
 797              		.cfi_restore 5
 798              		.cfi_restore 4
ARM GAS  /var/folders/m4/4md61f0s1_g0rzfghffqnxvr0000gn/T//ccYSFrIo.s 			page 15


 799              		.cfi_def_cfa_offset 0
 800              	.LVL60:
 801              		.loc 1 471 0
 802 0036 FFF7FEBF 		b	_port_switch
 803              	.LVL61:
 804              	.L61:
 805 003a 00BF     		.align	2
 806              	.L60:
 807 003c 00000000 		.word	.LANCHOR0
 808              		.cfi_endproc
 809              	.LFE239:
 810              		.size	chSchDoRescheduleBehind, .-chSchDoRescheduleBehind
 811              		.section	.text.chSchDoRescheduleAhead,"ax",%progbits
 812              		.align	2
 813              		.p2align 4,,15
 814              		.global	chSchDoRescheduleAhead
 815              		.thumb
 816              		.thumb_func
 817              		.type	chSchDoRescheduleAhead, %function
 818              	chSchDoRescheduleAhead:
 819              	.LFB240:
 820              		.loc 1 483 0
 821              		.cfi_startproc
 822              		@ args = 0, pretend = 0, frame = 0
 823              		@ frame_needed = 0, uses_anonymous_args = 0
 824              		@ link register save eliminated.
 825              		.loc 1 486 0
 826 0000 0D4A     		ldr	r2, .L67
 827              	.LBB199:
 828              	.LBB200:
 829              		.loc 4 672 0
 830 0002 1068     		ldr	r0, [r2]
 831              		.loc 4 674 0
 832 0004 0368     		ldr	r3, [r0]
 833              	.LBE200:
 834              	.LBE199:
 835              		.loc 1 483 0
 836 0006 30B4     		push	{r4, r5}
 837              		.cfi_def_cfa_offset 8
 838              		.cfi_offset 4, -8
 839              		.cfi_offset 5, -4
 840              		.loc 1 494 0
 841 0008 0121     		movs	r1, #1
 842              		.loc 1 486 0
 843 000a 9469     		ldr	r4, [r2, #24]
 844              	.LVL62:
 845              	.LBB203:
 846              	.LBB201:
 847              		.loc 4 675 0
 848 000c 5A60     		str	r2, [r3, #4]
 849              	.LVL63:
 850              	.LBE201:
 851              	.LBE203:
 852              		.loc 1 496 0
 853 000e 0025     		movs	r5, #0
 854              		.loc 1 494 0
 855 0010 0177     		strb	r1, [r0, #28]
ARM GAS  /var/folders/m4/4md61f0s1_g0rzfghffqnxvr0000gn/T//ccYSFrIo.s 			page 16


 856 0012 A168     		ldr	r1, [r4, #8]
 857              	.LBB204:
 858              	.LBB202:
 859              		.loc 4 674 0
 860 0014 1360     		str	r3, [r2]
 861              	.LBE202:
 862              	.LBE204:
 863              		.loc 1 488 0
 864 0016 9061     		str	r0, [r2, #24]
 865              		.loc 1 496 0
 866 0018 2577     		strb	r5, [r4, #28]
 867              	.LVL64:
 868 001a 00E0     		b	.L64
 869              	.LVL65:
 870              	.L66:
 871 001c 1B68     		ldr	r3, [r3]
 872              	.L64:
 873              		.loc 1 500 0 discriminator 1
 874 001e 9A68     		ldr	r2, [r3, #8]
 875 0020 8A42     		cmp	r2, r1
 876 0022 FBD8     		bhi	.L66
 877              		.loc 1 503 0
 878 0024 5A68     		ldr	r2, [r3, #4]
 879 0026 6260     		str	r2, [r4, #4]
 880              		.loc 1 502 0
 881 0028 2360     		str	r3, [r4]
 882              		.loc 1 507 0
 883 002a 2146     		mov	r1, r4
 884              		.loc 1 504 0
 885 002c 1460     		str	r4, [r2]
 886              		.loc 1 505 0
 887 002e 5C60     		str	r4, [r3, #4]
 888              		.loc 1 508 0
 889 0030 30BC     		pop	{r4, r5}
 890              		.cfi_restore 5
 891              		.cfi_restore 4
 892              		.cfi_def_cfa_offset 0
 893              	.LVL66:
 894              		.loc 1 507 0
 895 0032 FFF7FEBF 		b	_port_switch
 896              	.LVL67:
 897              	.L68:
 898 0036 00BF     		.align	2
 899              	.L67:
 900 0038 00000000 		.word	.LANCHOR0
 901              		.cfi_endproc
 902              	.LFE240:
 903              		.size	chSchDoRescheduleAhead, .-chSchDoRescheduleAhead
 904              		.section	.text.chSchRescheduleS,"ax",%progbits
 905              		.align	2
 906              		.p2align 4,,15
 907              		.global	chSchRescheduleS
 908              		.thumb
 909              		.thumb_func
 910              		.type	chSchRescheduleS, %function
 911              	chSchRescheduleS:
 912              	.LFB237:
ARM GAS  /var/folders/m4/4md61f0s1_g0rzfghffqnxvr0000gn/T//ccYSFrIo.s 			page 17


 913              		.loc 1 406 0
 914              		.cfi_startproc
 915              		@ args = 0, pretend = 0, frame = 0
 916              		@ frame_needed = 0, uses_anonymous_args = 0
 917              		@ link register save eliminated.
 918              	.LBB205:
 919              	.LBB206:
 920              		.loc 4 713 0
 921 0000 044B     		ldr	r3, .L72
 922 0002 1A68     		ldr	r2, [r3]
 923 0004 9B69     		ldr	r3, [r3, #24]
 924              	.LBE206:
 925              	.LBE205:
 926              		.loc 1 410 0
 927 0006 9268     		ldr	r2, [r2, #8]
 928 0008 9B68     		ldr	r3, [r3, #8]
 929 000a 9A42     		cmp	r2, r3
 930 000c 00D8     		bhi	.L71
 931 000e 7047     		bx	lr
 932              	.L71:
 933              		.loc 1 411 0
 934 0010 FFF7FEBF 		b	chSchDoRescheduleAhead
 935              	.LVL68:
 936              	.L73:
 937              		.align	2
 938              	.L72:
 939 0014 00000000 		.word	.LANCHOR0
 940              		.cfi_endproc
 941              	.LFE237:
 942              		.size	chSchRescheduleS, .-chSchRescheduleS
 943              		.section	.text.chSchDoReschedule,"ax",%progbits
 944              		.align	2
 945              		.p2align 4,,15
 946              		.global	chSchDoReschedule
 947              		.thumb
 948              		.thumb_func
 949              		.type	chSchDoReschedule, %function
 950              	chSchDoReschedule:
 951              	.LFB241:
 952              		.loc 1 520 0
 953              		.cfi_startproc
 954              		@ args = 0, pretend = 0, frame = 0
 955              		@ frame_needed = 0, uses_anonymous_args = 0
 956              		@ link register save eliminated.
 957              		.loc 1 525 0
 958 0000 034B     		ldr	r3, .L77
 959 0002 9B69     		ldr	r3, [r3, #24]
 960 0004 DB7F     		ldrb	r3, [r3, #31]	@ zero_extendqisi2
 961 0006 0BB1     		cbz	r3, .L76
 962              		.loc 1 533 0
 963 0008 FFF7FEBF 		b	chSchDoRescheduleAhead
 964              	.LVL69:
 965              	.L76:
 966              		.loc 1 528 0
 967 000c FFF7FEBF 		b	chSchDoRescheduleBehind
 968              	.LVL70:
 969              	.L78:
ARM GAS  /var/folders/m4/4md61f0s1_g0rzfghffqnxvr0000gn/T//ccYSFrIo.s 			page 18


 970              		.align	2
 971              	.L77:
 972 0010 00000000 		.word	.LANCHOR0
 973              		.cfi_endproc
 974              	.LFE241:
 975              		.size	chSchDoReschedule, .-chSchDoReschedule
 976              		.global	ch
 977              		.section	.bss.ch,"aw",%nobits
 978              		.align	3
 979              		.set	.LANCHOR0,. + 0
 980              		.type	ch, %object
 981              		.size	ch, 600
 982              	ch:
 983 0000 00000000 		.space	600
 983      00000000 
 983      00000000 
 983      00000000 
 983      00000000 
 984              		.text
 985              	.Letext0:
 986              		.file 5 "/opt/homebrew-cask/Caskroom/gcc-arm-embedded/5_2-2015q4,20151219/gcc-arm-none-eabi-5_2-20
 987              		.file 6 "/opt/homebrew-cask/Caskroom/gcc-arm-embedded/5_2-2015q4,20151219/gcc-arm-none-eabi-5_2-20
 988              		.file 7 "/opt/homebrew-cask/Caskroom/gcc-arm-embedded/5_2-2015q4,20151219/gcc-arm-none-eabi-5_2-20
 989              		.file 8 "ChibiOS_16.1.4/os/rt/ports/ARMCMx/compilers/GCC/chtypes.h"
 990              		.file 9 "ChibiOS_16.1.4/os/rt/include/chsystypes.h"
 991              		.file 10 "ChibiOS_16.1.4/os/rt/ports/ARMCMx/chcore.h"
 992              		.file 11 "ChibiOS_16.1.4/os/rt/ports/ARMCMx/chcore_v7m.h"
 993              		.file 12 "ChibiOS_16.1.4/os/rt/include/chtm.h"
 994              		.file 13 "ChibiOS_16.1.4/os/rt/include/chmtx.h"
 995              		.file 14 "ChibiOS_16.1.4/os/rt/include/chvt.h"
 996              		.file 15 "ChibiOS_16.1.4/os/rt/include/chsys.h"
 997              		.file 16 "ChibiOS_16.1.4/os/ext/CMSIS/include/core_cm4.h"