ARM GAS  /var/folders/m4/4md61f0s1_g0rzfghffqnxvr0000gn/T//ccYSFrIo.s 			page 1


   1              		.syntax unified
   2              		.cpu cortex-m4
   3              		.eabi_attribute 27, 1
   4              		.eabi_attribute 28, 1
   5              		.fpu fpv4-sp-d16
   6              		.eabi_attribute 20, 1
   7              		.eabi_attribute 21, 1
   8              		.eabi_attribute 23, 3
   9              		.eabi_attribute 24, 1
  10              		.eabi_attribute 25, 1
  11              		.eabi_attribute 26, 1
  12              		.eabi_attribute 30, 2
  13              		.eabi_attribute 34, 1
  14              		.eabi_attribute 18, 4
  15              		.thumb
  16              		.syntax unified
  17              		.file	"chschd.c"
  18              		.text
  19              	.Ltext0:
  20              		.cfi_sections	.debug_frame
  21              		.section	.text.wakeup,"ax",%progbits
  22              		.align	2
  23              		.p2align 4,,15
  24              		.thumb
  25              		.thumb_func
  26              		.type	wakeup, %function
  27              	wakeup:
  28              	.LFB234:
  29              		.file 1 "ChibiOS_16.1.4/os/rt/src/chschd.c"
  30              		.loc 1 275 0
  31              		.cfi_startproc
  32              		@ args = 0, pretend = 0, frame = 0
  33              		@ frame_needed = 0, uses_anonymous_args = 0
  34              		@ link register save eliminated.
  35              	.LVL0:
  36 0000 10B4     		push	{r4}
  37              		.cfi_def_cfa_offset 4
  38              		.cfi_offset 4, -4
  39              	.LBB128:
  40              	.LBB129:
  41              	.LBB130:
  42              	.LBB131:
  43              	.LBB132:
  44              		.file 2 "ChibiOS_16.1.4/os/ext/CMSIS/include/core_cmFunc.h"
  45              		.loc 2 548 0
  46 0002 2023     		movs	r3, #32
  47              		.syntax unified
  48              	@ 548 "ChibiOS_16.1.4/os/ext/CMSIS/include/core_cmFunc.h" 1
  49 0004 83F31188 		MSR basepri, r3
  50              	@ 0 "" 2
  51              	.LVL1:
  52              		.thumb
  53              		.syntax unified
  54              	.LBE132:
  55              	.LBE131:
  56              	.LBE130:
  57              	.LBE129:
ARM GAS  /var/folders/m4/4md61f0s1_g0rzfghffqnxvr0000gn/T//ccYSFrIo.s 			page 2


  58              	.LBE128:
  59              		.loc 1 279 0
  60 0008 037F     		ldrb	r3, [r0, #28]	@ zero_extendqisi2
  61 000a 072B     		cmp	r3, #7
  62 000c 0ED8     		bhi	.L2
  63 000e DFE803F0 		tbb	[pc, r3]
  64              	.L4:
  65 0012 27       		.byte	(.L3-.L4)/2
  66 0013 0D       		.byte	(.L2-.L4)/2
  67 0014 0D       		.byte	(.L2-.L4)/2
  68 0015 23       		.byte	(.L5-.L4)/2
  69 0016 08       		.byte	(.L6-.L4)/2
  70 0017 04       		.byte	(.L7-.L4)/2
  71 0018 0D       		.byte	(.L2-.L4)/2
  72 0019 08       		.byte	(.L6-.L4)/2
  73              		.p2align 1
  74              	.L7:
  75              		.loc 1 290 0
  76 001a 426A     		ldr	r2, [r0, #36]
  77              	.LVL2:
  78              	.LBB133:
  79              	.LBB134:
  80              		.file 3 "ChibiOS_16.1.4/os/rt/include/chsem.h"
  81              		.loc 3 138 0
  82 001c 9368     		ldr	r3, [r2, #8]
  83 001e 0133     		adds	r3, r3, #1
  84 0020 9360     		str	r3, [r2, #8]
  85              	.LVL3:
  86              	.L6:
  87              	.LBE134:
  88              	.LBE133:
  89              	.LBB135:
  90              	.LBB136:
  91              		.file 4 "ChibiOS_16.1.4/os/rt/include/chschd.h"
  92              		.loc 4 691 0
  93 0022 90E80C00 		ldmia	r0, {r2, r3}
  94 0026 1A60     		str	r2, [r3]
  95              		.loc 4 692 0
  96 0028 0268     		ldr	r2, [r0]
  97 002a 5360     		str	r3, [r2, #4]
  98              	.LVL4:
  99              	.L2:
 100              	.LBE136:
 101              	.LBE135:
 102              		.loc 1 304 0
 103 002c 4FF0FF34 		mov	r4, #-1
 104              	.LBB137:
 105              	.LBB138:
 106              		.loc 1 227 0
 107 0030 0022     		movs	r2, #0
 108 0032 8168     		ldr	r1, [r0, #8]
 109              	.LBE138:
 110              	.LBE137:
 111              	.LBB140:
 112              	.LBB141:
 113              	.LBB142:
 114              	.LBB143:
ARM GAS  /var/folders/m4/4md61f0s1_g0rzfghffqnxvr0000gn/T//ccYSFrIo.s 			page 3


 115              		.loc 1 228 0
 116 0034 0D4B     		ldr	r3, .L13
 117              	.LBE143:
 118              	.LBE142:
 119              	.LBE141:
 120              	.LBE140:
 121              		.loc 1 304 0
 122 0036 4462     		str	r4, [r0, #36]
 123              	.LVL5:
 124              	.LBB159:
 125              	.LBB139:
 126              		.loc 1 227 0
 127 0038 0277     		strb	r2, [r0, #28]
 128              	.LVL6:
 129              	.L9:
 130              	.LBE139:
 131              	.LBE159:
 132              	.LBB160:
 133              	.LBB158:
 134              	.LBB146:
 135              	.LBB144:
 136              		.loc 1 230 0
 137 003a 1B68     		ldr	r3, [r3]
 138              	.LVL7:
 139              		.loc 1 231 0
 140 003c 9A68     		ldr	r2, [r3, #8]
 141 003e 8A42     		cmp	r2, r1
 142 0040 FBD2     		bcs	.L9
 143              		.loc 1 234 0
 144 0042 5A68     		ldr	r2, [r3, #4]
 145 0044 4260     		str	r2, [r0, #4]
 146              		.loc 1 233 0
 147 0046 0360     		str	r3, [r0]
 148              	.LBE144:
 149              	.LBE146:
 150              	.LBB147:
 151              	.LBB148:
 152              	.LBB149:
 153              	.LBB150:
 154              	.LBB151:
 155              		.loc 2 548 0
 156 0048 0021     		movs	r1, #0
 157              	.LBE151:
 158              	.LBE150:
 159              	.LBE149:
 160              	.LBE148:
 161              	.LBE147:
 162              	.LBB156:
 163              	.LBB145:
 164              		.loc 1 235 0
 165 004a 1060     		str	r0, [r2]
 166              		.loc 1 236 0
 167 004c 5860     		str	r0, [r3, #4]
 168              	.LVL8:
 169              	.LBE145:
 170              	.LBE156:
 171              	.LBB157:
ARM GAS  /var/folders/m4/4md61f0s1_g0rzfghffqnxvr0000gn/T//ccYSFrIo.s 			page 4


 172              	.LBB155:
 173              	.LBB154:
 174              	.LBB153:
 175              	.LBB152:
 176              		.loc 2 548 0
 177              		.syntax unified
 178              	@ 548 "ChibiOS_16.1.4/os/ext/CMSIS/include/core_cmFunc.h" 1
 179 004e 81F31188 		MSR basepri, r1
 180              	@ 0 "" 2
 181              	.LVL9:
 182              		.thumb
 183              		.syntax unified
 184              	.LBE152:
 185              	.LBE153:
 186              	.LBE154:
 187              	.LBE155:
 188              	.LBE157:
 189              	.LBE158:
 190              	.LBE160:
 191              		.loc 1 307 0
 192 0052 5DF8044B 		ldr	r4, [sp], #4
 193              		.cfi_remember_state
 194              		.cfi_restore 4
 195              		.cfi_def_cfa_offset 0
 196 0056 7047     		bx	lr
 197              	.LVL10:
 198              	.L5:
 199              		.cfi_restore_state
 200              		.loc 1 286 0
 201 0058 436A     		ldr	r3, [r0, #36]
 202 005a 0022     		movs	r2, #0
 203 005c 1A60     		str	r2, [r3]
 204              		.loc 1 287 0
 205 005e E5E7     		b	.L2
 206              	.L3:
 207              	.LVL11:
 208              	.LBB161:
 209              	.LBB162:
 210              	.LBB163:
 211              	.LBB164:
 212              	.LBB165:
 213              		.loc 2 548 0
 214 0060 0023     		movs	r3, #0
 215              		.syntax unified
 216              	@ 548 "ChibiOS_16.1.4/os/ext/CMSIS/include/core_cmFunc.h" 1
 217 0062 83F31188 		MSR basepri, r3
 218              	@ 0 "" 2
 219              	.LVL12:
 220              		.thumb
 221              		.syntax unified
 222              	.LBE165:
 223              	.LBE164:
 224              	.LBE163:
 225              	.LBE162:
 226              	.LBE161:
 227              		.loc 1 307 0
 228 0066 5DF8044B 		ldr	r4, [sp], #4
ARM GAS  /var/folders/m4/4md61f0s1_g0rzfghffqnxvr0000gn/T//ccYSFrIo.s 			page 5


 229              		.cfi_restore 4
 230              		.cfi_def_cfa_offset 0
 231 006a 7047     		bx	lr
 232              	.L14:
 233              		.align	2
 234              	.L13:
 235 006c 00000000 		.word	.LANCHOR0
 236              		.cfi_endproc
 237              	.LFE234:
 238              		.size	wakeup, .-wakeup
 239              		.section	.text._scheduler_init,"ax",%progbits
 240              		.align	2
 241              		.p2align 4,,15
 242              		.global	_scheduler_init
 243              		.thumb
 244              		.thumb_func
 245              		.type	_scheduler_init, %function
 246              	_scheduler_init:
 247              	.LFB231:
 248              		.loc 1 65 0
 249              		.cfi_startproc
 250              		@ args = 0, pretend = 0, frame = 0
 251              		@ frame_needed = 0, uses_anonymous_args = 0
 252              		@ link register save eliminated.
 253              	.LVL13:
 254              	.LBB166:
 255              	.LBB167:
 256              		.loc 4 604 0
 257 0000 034B     		ldr	r3, .L16
 258              	.LBE167:
 259              	.LBE166:
 260              		.loc 1 68 0
 261 0002 0022     		movs	r2, #0
 262              	.LBB169:
 263              	.LBB168:
 264              		.loc 4 604 0
 265 0004 1B60     		str	r3, [r3]
 266              		.loc 4 605 0
 267 0006 5B60     		str	r3, [r3, #4]
 268              	.LVL14:
 269              	.LBE168:
 270              	.LBE169:
 271              		.loc 1 70 0
 272 0008 1B61     		str	r3, [r3, #16]
 273              		.loc 1 71 0
 274 000a 5B61     		str	r3, [r3, #20]
 275              		.loc 1 68 0
 276 000c 9A60     		str	r2, [r3, #8]
 277 000e 7047     		bx	lr
 278              	.L17:
 279              		.align	2
 280              	.L16:
 281 0010 00000000 		.word	.LANCHOR0
 282              		.cfi_endproc
 283              	.LFE231:
 284              		.size	_scheduler_init, .-_scheduler_init
 285              		.section	.text.chSchReadyI,"ax",%progbits
ARM GAS  /var/folders/m4/4md61f0s1_g0rzfghffqnxvr0000gn/T//ccYSFrIo.s 			page 6


 286              		.align	2
 287              		.p2align 4,,15
 288              		.global	chSchReadyI
 289              		.thumb
 290              		.thumb_func
 291              		.type	chSchReadyI, %function
 292              	chSchReadyI:
 293              	.LFB232:
 294              		.loc 1 218 0
 295              		.cfi_startproc
 296              		@ args = 0, pretend = 0, frame = 0
 297              		@ frame_needed = 0, uses_anonymous_args = 0
 298              		@ link register save eliminated.
 299              	.LVL15:
 300              		.loc 1 227 0
 301 0000 0022     		movs	r2, #0
 302 0002 8168     		ldr	r1, [r0, #8]
 303              		.loc 1 228 0
 304 0004 084B     		ldr	r3, .L22
 305              		.loc 1 218 0
 306 0006 10B4     		push	{r4}
 307              		.cfi_def_cfa_offset 4
 308              		.cfi_offset 4, -4
 309              		.loc 1 218 0
 310 0008 0446     		mov	r4, r0
 311              		.loc 1 227 0
 312 000a 0277     		strb	r2, [r0, #28]
 313              	.LVL16:
 314              	.L19:
 315              		.loc 1 230 0 discriminator 1
 316 000c 1B68     		ldr	r3, [r3]
 317              	.LVL17:
 318              		.loc 1 231 0 discriminator 1
 319 000e 9A68     		ldr	r2, [r3, #8]
 320 0010 8A42     		cmp	r2, r1
 321 0012 FBD2     		bcs	.L19
 322              		.loc 1 234 0
 323 0014 5A68     		ldr	r2, [r3, #4]
 324 0016 6260     		str	r2, [r4, #4]
 325              		.loc 1 233 0
 326 0018 2360     		str	r3, [r4]
 327              		.loc 1 239 0
 328 001a 2046     		mov	r0, r4
 329              	.LVL18:
 330              		.loc 1 235 0
 331 001c 1460     		str	r4, [r2]
 332              		.loc 1 236 0
 333 001e 5C60     		str	r4, [r3, #4]
 334              		.loc 1 239 0
 335 0020 5DF8044B 		ldr	r4, [sp], #4
 336              		.cfi_restore 4
 337              		.cfi_def_cfa_offset 0
 338              	.LVL19:
 339 0024 7047     		bx	lr
 340              	.L23:
 341 0026 00BF     		.align	2
 342              	.L22:
ARM GAS  /var/folders/m4/4md61f0s1_g0rzfghffqnxvr0000gn/T//ccYSFrIo.s 			page 7


 343 0028 00000000 		.word	.LANCHOR0
 344              		.cfi_endproc
 345              	.LFE232:
 346              		.size	chSchReadyI, .-chSchReadyI
 347              		.section	.text.chSchGoSleepS,"ax",%progbits
 348              		.align	2
 349              		.p2align 4,,15
 350              		.global	chSchGoSleepS
 351              		.thumb
 352              		.thumb_func
 353              		.type	chSchGoSleepS, %function
 354              	chSchGoSleepS:
 355              	.LFB233:
 356              		.loc 1 250 0
 357              		.cfi_startproc
 358              		@ args = 0, pretend = 0, frame = 0
 359              		@ frame_needed = 0, uses_anonymous_args = 0
 360              		@ link register save eliminated.
 361              	.LVL20:
 362              		.loc 1 255 0
 363 0000 084B     		ldr	r3, .L26
 364 0002 9969     		ldr	r1, [r3, #24]
 365              	.LVL21:
 366              	.LBB170:
 367              	.LBB171:
 368              		.loc 4 672 0
 369 0004 1A68     		ldr	r2, [r3]
 370              	.LBE171:
 371              	.LBE170:
 372              		.loc 1 250 0
 373 0006 10B4     		push	{r4}
 374              		.cfi_def_cfa_offset 4
 375              		.cfi_offset 4, -4
 376              		.loc 1 256 0
 377 0008 0877     		strb	r0, [r1, #28]
 378              		.loc 1 260 0
 379 000a 0420     		movs	r0, #4
 380              	.LVL22:
 381 000c C877     		strb	r0, [r1, #31]
 382              	.LVL23:
 383              	.LBB174:
 384              	.LBB172:
 385              		.loc 4 674 0
 386 000e 1068     		ldr	r0, [r2]
 387 0010 1860     		str	r0, [r3]
 388              	.LBE172:
 389              	.LBE174:
 390              		.loc 1 268 0
 391 0012 0124     		movs	r4, #1
 392              	.LBB175:
 393              	.LBB173:
 394              		.loc 4 675 0
 395 0014 4360     		str	r3, [r0, #4]
 396              	.LVL24:
 397              	.LBE173:
 398              	.LBE175:
 399              		.loc 1 268 0
ARM GAS  /var/folders/m4/4md61f0s1_g0rzfghffqnxvr0000gn/T//ccYSFrIo.s 			page 8


 400 0016 1477     		strb	r4, [r2, #28]
 401              		.loc 1 269 0
 402 0018 1046     		mov	r0, r2
 403              		.loc 1 270 0
 404 001a 5DF8044B 		ldr	r4, [sp], #4
 405              		.cfi_restore 4
 406              		.cfi_def_cfa_offset 0
 407              		.loc 1 262 0
 408 001e 9A61     		str	r2, [r3, #24]
 409              		.loc 1 269 0
 410 0020 FFF7FEBF 		b	_port_switch
 411              	.LVL25:
 412              	.L27:
 413              		.align	2
 414              	.L26:
 415 0024 00000000 		.word	.LANCHOR0
 416              		.cfi_endproc
 417              	.LFE233:
 418              		.size	chSchGoSleepS, .-chSchGoSleepS
 419              		.section	.text.chSchGoSleepTimeoutS,"ax",%progbits
 420              		.align	2
 421              		.p2align 4,,15
 422              		.global	chSchGoSleepTimeoutS
 423              		.thumb
 424              		.thumb_func
 425              		.type	chSchGoSleepTimeoutS, %function
 426              	chSchGoSleepTimeoutS:
 427              	.LFB235:
 428              		.loc 1 330 0
 429              		.cfi_startproc
 430              		@ args = 0, pretend = 0, frame = 24
 431              		@ frame_needed = 0, uses_anonymous_args = 0
 432              	.LVL26:
 433 0000 30B5     		push	{r4, r5, lr}
 434              		.cfi_def_cfa_offset 12
 435              		.cfi_offset 4, -12
 436              		.cfi_offset 5, -8
 437              		.cfi_offset 14, -4
 438              		.loc 1 334 0
 439 0002 4B1C     		adds	r3, r1, #1
 440              		.loc 1 330 0
 441 0004 87B0     		sub	sp, sp, #28
 442              		.cfi_def_cfa_offset 40
 443              		.loc 1 334 0
 444 0006 12D0     		beq	.L29
 445              	.LBB176:
 446              		.loc 1 337 0
 447 0008 0C4C     		ldr	r4, .L36
 448 000a 0D4A     		ldr	r2, .L36+4
 449 000c A369     		ldr	r3, [r4, #24]
 450 000e 0546     		mov	r5, r0
 451 0010 01A8     		add	r0, sp, #4
 452              	.LVL27:
 453 0012 FFF7FEFF 		bl	chVTDoSetI
 454              	.LVL28:
 455              		.loc 1 338 0
 456 0016 2846     		mov	r0, r5
ARM GAS  /var/folders/m4/4md61f0s1_g0rzfghffqnxvr0000gn/T//ccYSFrIo.s 			page 9


 457 0018 FFF7FEFF 		bl	chSchGoSleepS
 458              	.LVL29:
 459              		.loc 1 339 0
 460 001c 049B     		ldr	r3, [sp, #16]
 461 001e 13B1     		cbz	r3, .L31
 462              		.loc 1 340 0
 463 0020 01A8     		add	r0, sp, #4
 464              	.LVL30:
 465 0022 FFF7FEFF 		bl	chVTDoResetI
 466              	.LVL31:
 467              	.L31:
 468              	.LBE176:
 469              		.loc 1 347 0
 470 0026 A369     		ldr	r3, [r4, #24]
 471              		.loc 1 348 0
 472 0028 586A     		ldr	r0, [r3, #36]
 473 002a 07B0     		add	sp, sp, #28
 474              		.cfi_remember_state
 475              		.cfi_def_cfa_offset 12
 476              		@ sp needed
 477 002c 30BD     		pop	{r4, r5, pc}
 478              	.LVL32:
 479              	.L29:
 480              		.cfi_restore_state
 481 002e 034C     		ldr	r4, .L36
 482              		.loc 1 344 0
 483 0030 FFF7FEFF 		bl	chSchGoSleepS
 484              	.LVL33:
 485              		.loc 1 347 0
 486 0034 A369     		ldr	r3, [r4, #24]
 487              		.loc 1 348 0
 488 0036 586A     		ldr	r0, [r3, #36]
 489 0038 07B0     		add	sp, sp, #28
 490              		.cfi_def_cfa_offset 12
 491              		@ sp needed
 492 003a 30BD     		pop	{r4, r5, pc}
 493              	.L37:
 494              		.align	2
 495              	.L36:
 496 003c 00000000 		.word	.LANCHOR0
 497 0040 00000000 		.word	wakeup
 498              		.cfi_endproc
 499              	.LFE235:
 500              		.size	chSchGoSleepTimeoutS, .-chSchGoSleepTimeoutS
 501              		.section	.text.chSchWakeupS,"ax",%progbits
 502              		.align	2
 503              		.p2align 4,,15
 504              		.global	chSchWakeupS
 505              		.thumb
 506              		.thumb_func
 507              		.type	chSchWakeupS, %function
 508              	chSchWakeupS:
 509              	.LFB236:
 510              		.loc 1 367 0
 511              		.cfi_startproc
 512              		@ args = 0, pretend = 0, frame = 0
 513              		@ frame_needed = 0, uses_anonymous_args = 0
ARM GAS  /var/folders/m4/4md61f0s1_g0rzfghffqnxvr0000gn/T//ccYSFrIo.s 			page 10


 514              		@ link register save eliminated.
 515              	.LVL34:
 516              		.loc 1 383 0
 517 0000 144B     		ldr	r3, .L47
 518              		.loc 1 367 0
 519 0002 70B4     		push	{r4, r5, r6}
 520              		.cfi_def_cfa_offset 12
 521              		.cfi_offset 4, -12
 522              		.cfi_offset 5, -8
 523              		.cfi_offset 6, -4
 524              		.loc 1 367 0
 525 0004 0446     		mov	r4, r0
 526              		.loc 1 383 0
 527 0006 9D69     		ldr	r5, [r3, #24]
 528              		.loc 1 377 0
 529 0008 4162     		str	r1, [r0, #36]
 530              		.loc 1 383 0
 531 000a A868     		ldr	r0, [r5, #8]
 532              	.LVL35:
 533 000c A168     		ldr	r1, [r4, #8]
 534              	.LVL36:
 535 000e 8142     		cmp	r1, r0
 536              	.LBB177:
 537              	.LBB178:
 538              		.loc 1 227 0
 539 0010 4FF00002 		mov	r2, #0
 540              	.LBE178:
 541              	.LBE177:
 542              		.loc 1 383 0
 543 0014 0BD8     		bhi	.L39
 544              	.LVL37:
 545              	.LBB180:
 546              	.LBB179:
 547              		.loc 1 227 0
 548 0016 2277     		strb	r2, [r4, #28]
 549              	.LVL38:
 550              	.L40:
 551              		.loc 1 230 0
 552 0018 1B68     		ldr	r3, [r3]
 553              	.LVL39:
 554              		.loc 1 231 0
 555 001a 9A68     		ldr	r2, [r3, #8]
 556 001c 9142     		cmp	r1, r2
 557 001e FBD9     		bls	.L40
 558              		.loc 1 234 0
 559 0020 5A68     		ldr	r2, [r3, #4]
 560 0022 6260     		str	r2, [r4, #4]
 561              		.loc 1 233 0
 562 0024 2360     		str	r3, [r4]
 563              		.loc 1 235 0
 564 0026 1460     		str	r4, [r2]
 565              	.LVL40:
 566              		.loc 1 236 0
 567 0028 5C60     		str	r4, [r3, #4]
 568              	.LBE179:
 569              	.LBE180:
 570              		.loc 1 397 0
ARM GAS  /var/folders/m4/4md61f0s1_g0rzfghffqnxvr0000gn/T//ccYSFrIo.s 			page 11


 571 002a 70BC     		pop	{r4, r5, r6}
 572              		.cfi_remember_state
 573              		.cfi_restore 6
 574              		.cfi_restore 5
 575              		.cfi_restore 4
 576              		.cfi_def_cfa_offset 0
 577              	.LVL41:
 578 002c 7047     		bx	lr
 579              	.LVL42:
 580              	.L39:
 581              		.cfi_restore_state
 582              	.LBB181:
 583              	.LBB182:
 584              	.LBB183:
 585              		.loc 1 227 0
 586 002e 2A77     		strb	r2, [r5, #28]
 587              	.LVL43:
 588              		.loc 1 228 0
 589 0030 1A46     		mov	r2, r3
 590              	.LVL44:
 591              	.L42:
 592              		.loc 1 230 0
 593 0032 1268     		ldr	r2, [r2]
 594              	.LVL45:
 595              		.loc 1 231 0
 596 0034 9168     		ldr	r1, [r2, #8]
 597 0036 8842     		cmp	r0, r1
 598 0038 FBD9     		bls	.L42
 599              		.loc 1 234 0
 600 003a 5068     		ldr	r0, [r2, #4]
 601 003c 6860     		str	r0, [r5, #4]
 602              	.LBE183:
 603              	.LBE182:
 604              		.loc 1 394 0
 605 003e 0126     		movs	r6, #1
 606              	.LBB185:
 607              	.LBB184:
 608              		.loc 1 233 0
 609 0040 2A60     		str	r2, [r5]
 610              		.loc 1 235 0
 611 0042 0560     		str	r5, [r0]
 612              		.loc 1 236 0
 613 0044 5560     		str	r5, [r2, #4]
 614              	.LVL46:
 615              	.LBE184:
 616              	.LBE185:
 617              		.loc 1 394 0
 618 0046 2677     		strb	r6, [r4, #28]
 619              		.loc 1 395 0
 620 0048 2946     		mov	r1, r5
 621 004a 2046     		mov	r0, r4
 622              		.loc 1 388 0
 623 004c 9C61     		str	r4, [r3, #24]
 624              	.LBE181:
 625              		.loc 1 397 0
 626 004e 70BC     		pop	{r4, r5, r6}
 627              		.cfi_restore 6
ARM GAS  /var/folders/m4/4md61f0s1_g0rzfghffqnxvr0000gn/T//ccYSFrIo.s 			page 12


 628              		.cfi_restore 5
 629              		.cfi_restore 4
 630              		.cfi_def_cfa_offset 0
 631              	.LVL47:
 632              	.LBB186:
 633              		.loc 1 395 0
 634 0050 FFF7FEBF 		b	_port_switch
 635              	.LVL48:
 636              	.L48:
 637              		.align	2
 638              	.L47:
 639 0054 00000000 		.word	.LANCHOR0
 640              	.LBE186:
 641              		.cfi_endproc
 642              	.LFE236:
 643              		.size	chSchWakeupS, .-chSchWakeupS
 644              		.section	.text.chSchIsPreemptionRequired,"ax",%progbits
 645              		.align	2
 646              		.p2align 4,,15
 647              		.global	chSchIsPreemptionRequired
 648              		.thumb
 649              		.thumb_func
 650              		.type	chSchIsPreemptionRequired, %function
 651              	chSchIsPreemptionRequired:
 652              	.LFB238:
 653              		.loc 1 428 0
 654              		.cfi_startproc
 655              		@ args = 0, pretend = 0, frame = 0
 656              		@ frame_needed = 0, uses_anonymous_args = 0
 657              		@ link register save eliminated.
 658              		.loc 1 429 0
 659 0000 084B     		ldr	r3, .L53
 660              		.loc 1 430 0
 661 0002 9A69     		ldr	r2, [r3, #24]
 662              		.loc 1 429 0
 663 0004 1B68     		ldr	r3, [r3]
 664              		.loc 1 437 0
 665 0006 D17F     		ldrb	r1, [r2, #31]	@ zero_extendqisi2
 666              		.loc 1 429 0
 667 0008 9B68     		ldr	r3, [r3, #8]
 668              	.LVL49:
 669              		.loc 1 430 0
 670 000a 9068     		ldr	r0, [r2, #8]
 671              	.LVL50:
 672              		.loc 1 437 0
 673 000c 21B9     		cbnz	r1, .L52
 674              		.loc 1 437 0 is_stmt 0 discriminator 2
 675 000e 8342     		cmp	r3, r0
 676 0010 34BF     		ite	cc
 677 0012 0020     		movcc	r0, #0
 678              	.LVL51:
 679 0014 0120     		movcs	r0, #1
 680              		.loc 1 443 0 is_stmt 1 discriminator 2
 681 0016 7047     		bx	lr
 682              	.LVL52:
 683              	.L52:
 684              		.loc 1 437 0 discriminator 1
ARM GAS  /var/folders/m4/4md61f0s1_g0rzfghffqnxvr0000gn/T//ccYSFrIo.s 			page 13


 685 0018 8342     		cmp	r3, r0
 686 001a 94BF     		ite	ls
 687 001c 0020     		movls	r0, #0
 688              	.LVL53:
 689 001e 0120     		movhi	r0, #1
 690 0020 7047     		bx	lr
 691              	.L54:
 692 0022 00BF     		.align	2
 693              	.L53:
 694 0024 00000000 		.word	.LANCHOR0
 695              		.cfi_endproc
 696              	.LFE238:
 697              		.size	chSchIsPreemptionRequired, .-chSchIsPreemptionRequired
 698              		.section	.text.chSchDoRescheduleBehind,"ax",%progbits
 699              		.align	2
 700              		.p2align 4,,15
 701              		.global	chSchDoRescheduleBehind
 702              		.thumb
 703              		.thumb_func
 704              		.type	chSchDoRescheduleBehind, %function
 705              	chSchDoRescheduleBehind:
 706              	.LFB239:
 707              		.loc 1 455 0
 708              		.cfi_startproc
 709              		@ args = 0, pretend = 0, frame = 0
 710              		@ frame_needed = 0, uses_anonymous_args = 0
 711              		@ link register save eliminated.
 712              		.loc 1 458 0
 713 0000 0E4A     		ldr	r2, .L60
 714              	.LBB187:
 715              	.LBB188:
 716              		.loc 4 672 0
 717 0002 1068     		ldr	r0, [r2]
 718              		.loc 4 674 0
 719 0004 0368     		ldr	r3, [r0]
 720              	.LBE188:
 721              	.LBE187:
 722              		.loc 1 455 0
 723 0006 70B4     		push	{r4, r5, r6}
 724              		.cfi_def_cfa_offset 12
 725              		.cfi_offset 4, -12
 726              		.cfi_offset 5, -8
 727              		.cfi_offset 6, -4
 728              		.loc 1 466 0
 729 0008 0121     		movs	r1, #1
 730              		.loc 1 458 0
 731 000a 9469     		ldr	r4, [r2, #24]
 732              	.LVL54:
 733              	.LBB191:
 734              	.LBB189:
 735              		.loc 4 675 0
 736 000c 5A60     		str	r2, [r3, #4]
 737              	.LVL55:
 738              	.LBE189:
 739              	.LBE191:
 740              		.loc 1 468 0
 741 000e 0426     		movs	r6, #4
ARM GAS  /var/folders/m4/4md61f0s1_g0rzfghffqnxvr0000gn/T//ccYSFrIo.s 			page 14


 742              		.loc 1 466 0
 743 0010 0177     		strb	r1, [r0, #28]
 744              	.LBB192:
 745              	.LBB193:
 746              		.loc 1 227 0
 747 0012 0025     		movs	r5, #0
 748 0014 A168     		ldr	r1, [r4, #8]
 749              	.LBE193:
 750              	.LBE192:
 751              	.LBB196:
 752              	.LBB190:
 753              		.loc 4 674 0
 754 0016 1360     		str	r3, [r2]
 755              	.LBE190:
 756              	.LBE196:
 757              		.loc 1 460 0
 758 0018 9061     		str	r0, [r2, #24]
 759              		.loc 1 468 0
 760 001a E677     		strb	r6, [r4, #31]
 761              	.LVL56:
 762              	.LBB197:
 763              	.LBB194:
 764              		.loc 1 227 0
 765 001c 2577     		strb	r5, [r4, #28]
 766              	.LVL57:
 767 001e 00E0     		b	.L57
 768              	.LVL58:
 769              	.L59:
 770 0020 1B68     		ldr	r3, [r3]
 771              	.L57:
 772              		.loc 1 231 0
 773 0022 9A68     		ldr	r2, [r3, #8]
 774 0024 8A42     		cmp	r2, r1
 775 0026 FBD2     		bcs	.L59
 776              		.loc 1 234 0
 777 0028 5A68     		ldr	r2, [r3, #4]
 778 002a 6260     		str	r2, [r4, #4]
 779              		.loc 1 233 0
 780 002c 2360     		str	r3, [r4]
 781              	.LBE194:
 782              	.LBE197:
 783              		.loc 1 471 0
 784 002e 2146     		mov	r1, r4
 785              	.LBB198:
 786              	.LBB195:
 787              		.loc 1 235 0
 788 0030 1460     		str	r4, [r2]
 789              		.loc 1 236 0
 790 0032 5C60     		str	r4, [r3, #4]
 791              	.LVL59:
 792              	.LBE195:
 793              	.LBE198:
 794              		.loc 1 472 0
 795 0034 70BC     		pop	{r4, r5, r6}
 796              		.cfi_restore 6
 797              		.cfi_restore 5
 798              		.cfi_restore 4
ARM GAS  /var/folders/m4/4md61f0s1_g0rzfghffqnxvr0000gn/T//ccYSFrIo.s 			page 15


 799              		.cfi_def_cfa_offset 0
 800              	.LVL60:
 801              		.loc 1 471 0
 802 0036 FFF7FEBF 		b	_port_switch
 803              	.LVL61:
 804              	.L61:
 805 003a 00BF     		.align	2
 806              	.L60:
 807 003c 00000000 		.word	.LANCHOR0
 808              		.cfi_endproc
 809              	.LFE239:
 810              		.size	chSchDoRescheduleBehind, .-chSchDoRescheduleBehind
 811              		.section	.text.chSchDoRescheduleAhead,"ax",%progbits
 812              		.align	2
 813              		.p2align 4,,15
 814              		.global	chSchDoRescheduleAhead
 815              		.thumb
 816              		.thumb_func
 817              		.type	chSchDoRescheduleAhead, %function
 818              	chSchDoRescheduleAhead:
 819              	.LFB240:
 820              		.loc 1 483 0
 821              		.cfi_startproc
 822              		@ args = 0, pretend = 0, frame = 0
 823              		@ frame_needed = 0, uses_anonymous_args = 0
 824              		@ link register save eliminated.
 825              		.loc 1 486 0
 826 0000 0D4A     		ldr	r2, .L67
 827              	.LBB199:
 828              	.LBB200:
 829              		.loc 4 672 0
 830 0002 1068     		ldr	r0, [r2]
 831              		.loc 4 674 0
 832 0004 0368     		ldr	r3, [r0]
 833              	.LBE200:
 834              	.LBE199:
 835              		.loc 1 483 0
 836 0006 30B4     		push	{r4, r5}
 837              		.cfi_def_cfa_offset 8
 838              		.cfi_offset 4, -8
 839              		.cfi_offset 5, -4
 840              		.loc 1 494 0
 841 0008 0121     		movs	r1, #1
 842              		.loc 1 486 0
 843 000a 9469     		ldr	r4, [r2, #24]
 844              	.LVL62:
 845              	.LBB203:
 846              	.LBB201:
 847              		.loc 4 675 0
 848 000c 5A60     		str	r2, [r3, #4]
 849              	.LVL63:
 850              	.LBE201:
 851              	.LBE203:
 852              		.loc 1 496 0
 853 000e 0025     		movs	r5, #0
 854              		.loc 1 494 0
 855 0010 0177     		strb	r1, [r0, #28]
ARM GAS  /var/folders/m4/4md61f0s1_g0rzfghffqnxvr0000gn/T//ccYSFrIo.s 			page 16


 856 0012 A168     		ldr	r1, [r4, #8]
 857              	.LBB204:
 858              	.LBB202:
 859              		.loc 4 674 0
 860 0014 1360     		str	r3, [r2]
 861              	.LBE202:
 862              	.LBE204:
 863              		.loc 1 488 0
 864 0016 9061     		str	r0, [r2, #24]
 865              		.loc 1 496 0
 866 0018 2577     		strb	r5, [r4, #28]
 867              	.LVL64:
 868 001a 00E0     		b	.L64
 869              	.LVL65:
 870              	.L66:
 871 001c 1B68     		ldr	r3, [r3]
 872              	.L64:
 873              		.loc 1 500 0 discriminator 1
 874 001e 9A68     		ldr	r2, [r3, #8]
 875 0020 8A42     		cmp	r2, r1
 876 0022 FBD8     		bhi	.L66
 877              		.loc 1 503 0
 878 0024 5A68     		ldr	r2, [r3, #4]
 879 0026 6260     		str	r2, [r4, #4]
 880              		.loc 1 502 0
 881 0028 2360     		str	r3, [r4]
 882              		.loc 1 507 0
 883 002a 2146     		mov	r1, r4
 884              		.loc 1 504 0
 885 002c 1460     		str	r4, [r2]
 886              		.loc 1 505 0
 887 002e 5C60     		str	r4, [r3, #4]
 888              		.loc 1 508 0
 889 0030 30BC     		pop	{r4, r5}
 890              		.cfi_restore 5
 891              		.cfi_restore 4
 892              		.cfi_def_cfa_offset 0
 893              	.LVL66:
 894              		.loc 1 507 0
 895 0032 FFF7FEBF 		b	_port_switch
 896              	.LVL67:
 897              	.L68:
 898 0036 00BF     		.align	2
 899              	.L67:
 900 0038 00000000 		.word	.LANCHOR0
 901              		.cfi_endproc
 902              	.LFE240:
 903              		.size	chSchDoRescheduleAhead, .-chSchDoRescheduleAhead
 904              		.section	.text.chSchRescheduleS,"ax",%progbits
 905              		.align	2
 906              		.p2align 4,,15
 907              		.global	chSchRescheduleS
 908              		.thumb
 909              		.thumb_func
 910              		.type	chSchRescheduleS, %function
 911              	chSchRescheduleS:
 912              	.LFB237:
ARM GAS  /var/folders/m4/4md61f0s1_g0rzfghffqnxvr0000gn/T//ccYSFrIo.s 			page 17


 913              		.loc 1 406 0
 914              		.cfi_startproc
 915              		@ args = 0, pretend = 0, frame = 0
 916              		@ frame_needed = 0, uses_anonymous_args = 0
 917              		@ link register save eliminated.
 918              	.LBB205:
 919              	.LBB206:
 920              		.loc 4 713 0
 921 0000 044B     		ldr	r3, .L72
 922 0002 1A68     		ldr	r2, [r3]
 923 0004 9B69     		ldr	r3, [r3, #24]
 924              	.LBE206:
 925              	.LBE205:
 926              		.loc 1 410 0
 927 0006 9268     		ldr	r2, [r2, #8]
 928 0008 9B68     		ldr	r3, [r3, #8]
 929 000a 9A42     		cmp	r2, r3
 930 000c 00D8     		bhi	.L71
 931 000e 7047     		bx	lr
 932              	.L71:
 933              		.loc 1 411 0
 934 0010 FFF7FEBF 		b	chSchDoRescheduleAhead
 935              	.LVL68:
 936              	.L73:
 937              		.align	2
 938              	.L72:
 939 0014 00000000 		.word	.LANCHOR0
 940              		.cfi_endproc
 941              	.LFE237:
 942              		.size	chSchRescheduleS, .-chSchRescheduleS
 943              		.section	.text.chSchDoReschedule,"ax",%progbits
 944              		.align	2
 945              		.p2align 4,,15
 946              		.global	chSchDoReschedule
 947              		.thumb
 948              		.thumb_func
 949              		.type	chSchDoReschedule, %function
 950              	chSchDoReschedule:
 951              	.LFB241:
 952              		.loc 1 520 0
 953              		.cfi_startproc
 954              		@ args = 0, pretend = 0, frame = 0
 955              		@ frame_needed = 0, uses_anonymous_args = 0
 956              		@ link register save eliminated.
 957              		.loc 1 525 0
 958 0000 034B     		ldr	r3, .L77
 959 0002 9B69     		ldr	r3, [r3, #24]
 960 0004 DB7F     		ldrb	r3, [r3, #31]	@ zero_extendqisi2
 961 0006 0BB1     		cbz	r3, .L76
 962              		.loc 1 533 0
 963 0008 FFF7FEBF 		b	chSchDoRescheduleAhead
 964              	.LVL69:
 965              	.L76:
 966              		.loc 1 528 0
 967 000c FFF7FEBF 		b	chSchDoRescheduleBehind
 968              	.LVL70:
 969              	.L78:
ARM GAS  /var/folders/m4/4md61f0s1_g0rzfghffqnxvr0000gn/T//ccYSFrIo.s 			page 18


 970              		.align	2
 971              	.L77:
 972 0010 00000000 		.word	.LANCHOR0
 973              		.cfi_endproc
 974              	.LFE241:
 975              		.size	chSchDoReschedule, .-chSchDoReschedule
 976              		.global	ch
 977              		.section	.bss.ch,"aw",%nobits
 978              		.align	3
 979              		.set	.LANCHOR0,. + 0
 980              		.type	ch, %object
 981              		.size	ch, 600
 982              	ch:
 983 0000 00000000 		.space	600
 983      00000000 
 983      00000000 
 983      00000000 
 983      00000000 
 984              		.text
 985              	.Letext0:
 986              		.file 5 "/opt/homebrew-cask/Caskroom/gcc-arm-embedded/5_2-2015q4,20151219/gcc-arm-none-eabi-5_2-20
 987              		.file 6 "/opt/homebrew-cask/Caskroom/gcc-arm-embedded/5_2-2015q4,20151219/gcc-arm-none-eabi-5_2-20
 988              		.file 7 "/opt/homebrew-cask/Caskroom/gcc-arm-embedded/5_2-2015q4,20151219/gcc-arm-none-eabi-5_2-20
 989              		.file 8 "ChibiOS_16.1.4/os/rt/ports/ARMCMx/compilers/GCC/chtypes.h"
 990              		.file 9 "ChibiOS_16.1.4/os/rt/include/chsystypes.h"
 991              		.file 10 "ChibiOS_16.1.4/os/rt/ports/ARMCMx/chcore.h"
 992              		.file 11 "ChibiOS_16.1.4/os/rt/ports/ARMCMx/chcore_v7m.h"
 993              		.file 12 "ChibiOS_16.1.4/os/rt/include/chtm.h"
 994              		.file 13 "ChibiOS_16.1.4/os/rt/include/chmtx.h"
 995              		.file 14 "ChibiOS_16.1.4/os/rt/include/chvt.h"
 996              		.file 15 "ChibiOS_16.1.4/os/rt/include/chsys.h"
 997              		.file 16 "ChibiOS_16.1.4/os/ext/CMSIS/include/core_cm4.h"
 998              		.section	.debug_info,"",%progbits
 999              	.Ldebug_info0:
 1000 0000 6A0E0000 		.4byte	0xe6a
 1001 0004 0400     		.2byte	0x4
 1002 0006 00000000 		.4byte	.Ldebug_abbrev0
 1003 000a 04       		.byte	0x4
 1004 000b 01       		.uleb128 0x1
 1005 000c 38050000 		.4byte	.LASF137
 1006 0010 0C       		.byte	0xc
 1007 0011 27040000 		.4byte	.LASF138
 1008 0015 9D020000 		.4byte	.LASF139
 1009 0019 48010000 		.4byte	.Ldebug_ranges0+0x148
 1010 001d 00000000 		.4byte	0
 1011 0021 00000000 		.4byte	.Ldebug_line0
 1012 0025 02       		.uleb128 0x2
 1013 0026 04       		.byte	0x4
 1014 0027 05       		.byte	0x5
 1015 0028 696E7400 		.ascii	"int\000"
 1016 002c 03       		.uleb128 0x3
 1017 002d 0D000000 		.4byte	.LASF2
 1018 0031 05       		.byte	0x5
 1019 0032 D8       		.byte	0xd8
 1020 0033 37000000 		.4byte	0x37
 1021 0037 04       		.uleb128 0x4
 1022 0038 04       		.byte	0x4
ARM GAS  /var/folders/m4/4md61f0s1_g0rzfghffqnxvr0000gn/T//ccYSFrIo.s 			page 19


 1023 0039 07       		.byte	0x7
 1024 003a 0E020000 		.4byte	.LASF0
 1025 003e 04       		.uleb128 0x4
 1026 003f 01       		.byte	0x1
 1027 0040 06       		.byte	0x6
 1028 0041 1C010000 		.4byte	.LASF1
 1029 0045 03       		.uleb128 0x3
 1030 0046 47000000 		.4byte	.LASF3
 1031 004a 06       		.byte	0x6
 1032 004b 1D       		.byte	0x1d
 1033 004c 50000000 		.4byte	0x50
 1034 0050 04       		.uleb128 0x4
 1035 0051 01       		.byte	0x1
 1036 0052 08       		.byte	0x8
 1037 0053 10040000 		.4byte	.LASF4
 1038 0057 04       		.uleb128 0x4
 1039 0058 02       		.byte	0x2
 1040 0059 05       		.byte	0x5
 1041 005a 49040000 		.4byte	.LASF5
 1042 005e 04       		.uleb128 0x4
 1043 005f 02       		.byte	0x2
 1044 0060 07       		.byte	0x7
 1045 0061 6D020000 		.4byte	.LASF6
 1046 0065 03       		.uleb128 0x3
 1047 0066 B9000000 		.4byte	.LASF7
 1048 006a 06       		.byte	0x6
 1049 006b 3F       		.byte	0x3f
 1050 006c 70000000 		.4byte	0x70
 1051 0070 04       		.uleb128 0x4
 1052 0071 04       		.byte	0x4
 1053 0072 05       		.byte	0x5
 1054 0073 65010000 		.4byte	.LASF8
 1055 0077 03       		.uleb128 0x3
 1056 0078 8C060000 		.4byte	.LASF9
 1057 007c 06       		.byte	0x6
 1058 007d 41       		.byte	0x41
 1059 007e 82000000 		.4byte	0x82
 1060 0082 04       		.uleb128 0x4
 1061 0083 04       		.byte	0x4
 1062 0084 07       		.byte	0x7
 1063 0085 21050000 		.4byte	.LASF10
 1064 0089 04       		.uleb128 0x4
 1065 008a 08       		.byte	0x8
 1066 008b 05       		.byte	0x5
 1067 008c 0E010000 		.4byte	.LASF11
 1068 0090 03       		.uleb128 0x3
 1069 0091 AD030000 		.4byte	.LASF12
 1070 0095 06       		.byte	0x6
 1071 0096 5B       		.byte	0x5b
 1072 0097 9B000000 		.4byte	0x9b
 1073 009b 04       		.uleb128 0x4
 1074 009c 08       		.byte	0x8
 1075 009d 07       		.byte	0x7
 1076 009e 81000000 		.4byte	.LASF13
 1077 00a2 03       		.uleb128 0x3
 1078 00a3 06070000 		.4byte	.LASF14
 1079 00a7 07       		.byte	0x7
ARM GAS  /var/folders/m4/4md61f0s1_g0rzfghffqnxvr0000gn/T//ccYSFrIo.s 			page 20


 1080 00a8 14       		.byte	0x14
 1081 00a9 45000000 		.4byte	0x45
 1082 00ad 03       		.uleb128 0x3
 1083 00ae 08040000 		.4byte	.LASF15
 1084 00b2 07       		.byte	0x7
 1085 00b3 1F       		.byte	0x1f
 1086 00b4 65000000 		.4byte	0x65
 1087 00b8 03       		.uleb128 0x3
 1088 00b9 ED040000 		.4byte	.LASF16
 1089 00bd 07       		.byte	0x7
 1090 00be 20       		.byte	0x20
 1091 00bf 77000000 		.4byte	0x77
 1092 00c3 03       		.uleb128 0x3
 1093 00c4 1B000000 		.4byte	.LASF17
 1094 00c8 07       		.byte	0x7
 1095 00c9 26       		.byte	0x26
 1096 00ca 90000000 		.4byte	0x90
 1097 00ce 03       		.uleb128 0x3
 1098 00cf BE060000 		.4byte	.LASF18
 1099 00d3 08       		.byte	0x8
 1100 00d4 39       		.byte	0x39
 1101 00d5 B8000000 		.4byte	0xb8
 1102 00d9 03       		.uleb128 0x3
 1103 00da 84040000 		.4byte	.LASF19
 1104 00de 08       		.byte	0x8
 1105 00df 3C       		.byte	0x3c
 1106 00e0 A2000000 		.4byte	0xa2
 1107 00e4 03       		.uleb128 0x3
 1108 00e5 7C010000 		.4byte	.LASF20
 1109 00e9 08       		.byte	0x8
 1110 00ea 3D       		.byte	0x3d
 1111 00eb A2000000 		.4byte	0xa2
 1112 00ef 03       		.uleb128 0x3
 1113 00f0 B8030000 		.4byte	.LASF21
 1114 00f4 08       		.byte	0x8
 1115 00f5 3E       		.byte	0x3e
 1116 00f6 A2000000 		.4byte	0xa2
 1117 00fa 03       		.uleb128 0x3
 1118 00fb 4B010000 		.4byte	.LASF22
 1119 00ff 08       		.byte	0x8
 1120 0100 3F       		.byte	0x3f
 1121 0101 A2000000 		.4byte	0xa2
 1122 0105 03       		.uleb128 0x3
 1123 0106 D7030000 		.4byte	.LASF23
 1124 010a 08       		.byte	0x8
 1125 010b 40       		.byte	0x40
 1126 010c B8000000 		.4byte	0xb8
 1127 0110 03       		.uleb128 0x3
 1128 0111 97020000 		.4byte	.LASF24
 1129 0115 08       		.byte	0x8
 1130 0116 41       		.byte	0x41
 1131 0117 AD000000 		.4byte	0xad
 1132 011b 03       		.uleb128 0x3
 1133 011c 3B000000 		.4byte	.LASF25
 1134 0120 08       		.byte	0x8
 1135 0121 43       		.byte	0x43
 1136 0122 B8000000 		.4byte	0xb8
ARM GAS  /var/folders/m4/4md61f0s1_g0rzfghffqnxvr0000gn/T//ccYSFrIo.s 			page 21


 1137 0126 03       		.uleb128 0x3
 1138 0127 08020000 		.4byte	.LASF26
 1139 012b 08       		.byte	0x8
 1140 012c 45       		.byte	0x45
 1141 012d AD000000 		.4byte	0xad
 1142 0131 03       		.uleb128 0x3
 1143 0132 6E060000 		.4byte	.LASF27
 1144 0136 09       		.byte	0x9
 1145 0137 33       		.byte	0x33
 1146 0138 B8000000 		.4byte	0xb8
 1147 013c 03       		.uleb128 0x3
 1148 013d 53060000 		.4byte	.LASF28
 1149 0141 09       		.byte	0x9
 1150 0142 3F       		.byte	0x3f
 1151 0143 47010000 		.4byte	0x147
 1152 0147 05       		.uleb128 0x5
 1153 0148 80020000 		.4byte	.LASF50
 1154 014c 48       		.byte	0x48
 1155 014d 04       		.byte	0x4
 1156 014e C2       		.byte	0xc2
 1157 014f 4C020000 		.4byte	0x24c
 1158 0153 06       		.uleb128 0x6
 1159 0154 7D040000 		.4byte	.LASF29
 1160 0158 04       		.byte	0x4
 1161 0159 C3       		.byte	0xc3
 1162 015a 57020000 		.4byte	0x257
 1163 015e 00       		.byte	0
 1164 015f 06       		.uleb128 0x6
 1165 0160 D0030000 		.4byte	.LASF30
 1166 0164 04       		.byte	0x4
 1167 0165 C5       		.byte	0xc5
 1168 0166 57020000 		.4byte	0x257
 1169 016a 04       		.byte	0x4
 1170 016b 06       		.uleb128 0x6
 1171 016c F7000000 		.4byte	.LASF31
 1172 0170 04       		.byte	0x4
 1173 0171 C7       		.byte	0xc7
 1174 0172 05010000 		.4byte	0x105
 1175 0176 08       		.byte	0x8
 1176 0177 06       		.uleb128 0x6
 1177 0178 69070000 		.4byte	.LASF32
 1178 017c 04       		.byte	0x4
 1179 017d C8       		.byte	0xc8
 1180 017e 87040000 		.4byte	0x487
 1181 0182 0C       		.byte	0xc
 1182 0183 06       		.uleb128 0x6
 1183 0184 9F010000 		.4byte	.LASF33
 1184 0188 04       		.byte	0x4
 1185 0189 CA       		.byte	0xca
 1186 018a 57020000 		.4byte	0x257
 1187 018e 10       		.byte	0x10
 1188 018f 06       		.uleb128 0x6
 1189 0190 70030000 		.4byte	.LASF34
 1190 0194 04       		.byte	0x4
 1191 0195 CB       		.byte	0xcb
 1192 0196 57020000 		.4byte	0x257
 1193 019a 14       		.byte	0x14
ARM GAS  /var/folders/m4/4md61f0s1_g0rzfghffqnxvr0000gn/T//ccYSFrIo.s 			page 22


 1194 019b 06       		.uleb128 0x6
 1195 019c 1F070000 		.4byte	.LASF35
 1196 01a0 04       		.byte	0x4
 1197 01a1 D2       		.byte	0xd2
 1198 01a2 D5060000 		.4byte	0x6d5
 1199 01a6 18       		.byte	0x18
 1200 01a7 06       		.uleb128 0x6
 1201 01a8 53040000 		.4byte	.LASF36
 1202 01ac 04       		.byte	0x4
 1203 01ad DD       		.byte	0xdd
 1204 01ae E4000000 		.4byte	0xe4
 1205 01b2 1C       		.byte	0x1c
 1206 01b3 06       		.uleb128 0x6
 1207 01b4 8C040000 		.4byte	.LASF37
 1208 01b8 04       		.byte	0x4
 1209 01b9 E1       		.byte	0xe1
 1210 01ba D9000000 		.4byte	0xd9
 1211 01be 1D       		.byte	0x1d
 1212 01bf 06       		.uleb128 0x6
 1213 01c0 F9060000 		.4byte	.LASF38
 1214 01c4 04       		.byte	0x4
 1215 01c5 E6       		.byte	0xe6
 1216 01c6 EF000000 		.4byte	0xef
 1217 01ca 1E       		.byte	0x1e
 1218 01cb 06       		.uleb128 0x6
 1219 01cc 5B040000 		.4byte	.LASF39
 1220 01d0 04       		.byte	0x4
 1221 01d1 EC       		.byte	0xec
 1222 01d2 FA000000 		.4byte	0xfa
 1223 01d6 1F       		.byte	0x1f
 1224 01d7 06       		.uleb128 0x6
 1225 01d8 2A020000 		.4byte	.LASF40
 1226 01dc 04       		.byte	0x4
 1227 01dd F3       		.byte	0xf3
 1228 01de E7060000 		.4byte	0x6e7
 1229 01e2 20       		.byte	0x20
 1230 01e3 07       		.uleb128 0x7
 1231 01e4 705F7500 		.ascii	"p_u\000"
 1232 01e8 04       		.byte	0x4
 1233 01e9 3101     		.2byte	0x131
 1234 01eb 10060000 		.4byte	0x610
 1235 01ef 24       		.byte	0x24
 1236 01f0 08       		.uleb128 0x8
 1237 01f1 1B030000 		.4byte	.LASF41
 1238 01f5 04       		.byte	0x4
 1239 01f6 3601     		.2byte	0x136
 1240 01f8 5D020000 		.4byte	0x25d
 1241 01fc 28       		.byte	0x28
 1242 01fd 08       		.uleb128 0x8
 1243 01fe 4E020000 		.4byte	.LASF42
 1244 0202 04       		.byte	0x4
 1245 0203 3C01     		.2byte	0x13c
 1246 0205 81020000 		.4byte	0x281
 1247 0209 2C       		.byte	0x2c
 1248 020a 08       		.uleb128 0x8
 1249 020b 5B070000 		.4byte	.LASF43
 1250 020f 04       		.byte	0x4
ARM GAS  /var/folders/m4/4md61f0s1_g0rzfghffqnxvr0000gn/T//ccYSFrIo.s 			page 23


 1251 0210 4001     		.2byte	0x140
 1252 0212 10010000 		.4byte	0x110
 1253 0216 34       		.byte	0x34
 1254 0217 08       		.uleb128 0x8
 1255 0218 E2040000 		.4byte	.LASF44
 1256 021c 04       		.byte	0x4
 1257 021d 4601     		.2byte	0x146
 1258 021f 1B010000 		.4byte	0x11b
 1259 0223 38       		.byte	0x38
 1260 0224 08       		.uleb128 0x8
 1261 0225 E5020000 		.4byte	.LASF45
 1262 0229 04       		.byte	0x4
 1263 022a 4D01     		.2byte	0x14d
 1264 022c CF060000 		.4byte	0x6cf
 1265 0230 3C       		.byte	0x3c
 1266 0231 08       		.uleb128 0x8
 1267 0232 78060000 		.4byte	.LASF46
 1268 0236 04       		.byte	0x4
 1269 0237 5101     		.2byte	0x151
 1270 0239 05010000 		.4byte	0x105
 1271 023d 40       		.byte	0x40
 1272 023e 08       		.uleb128 0x8
 1273 023f 28010000 		.4byte	.LASF47
 1274 0243 04       		.byte	0x4
 1275 0244 5801     		.2byte	0x158
 1276 0246 34030000 		.4byte	0x334
 1277 024a 44       		.byte	0x44
 1278 024b 00       		.byte	0
 1279 024c 03       		.uleb128 0x3
 1280 024d 2E030000 		.4byte	.LASF48
 1281 0251 09       		.byte	0x9
 1282 0252 44       		.byte	0x44
 1283 0253 57020000 		.4byte	0x257
 1284 0257 09       		.uleb128 0x9
 1285 0258 04       		.byte	0x4
 1286 0259 3C010000 		.4byte	0x13c
 1287 025d 03       		.uleb128 0x3
 1288 025e 05030000 		.4byte	.LASF49
 1289 0262 09       		.byte	0x9
 1290 0263 49       		.byte	0x49
 1291 0264 68020000 		.4byte	0x268
 1292 0268 05       		.uleb128 0x5
 1293 0269 11050000 		.4byte	.LASF51
 1294 026d 04       		.byte	0x4
 1295 026e 04       		.byte	0x4
 1296 026f B0       		.byte	0xb0
 1297 0270 81020000 		.4byte	0x281
 1298 0274 06       		.uleb128 0x6
 1299 0275 7D040000 		.4byte	.LASF29
 1300 0279 04       		.byte	0x4
 1301 027a B1       		.byte	0xb1
 1302 027b 57020000 		.4byte	0x257
 1303 027f 00       		.byte	0
 1304 0280 00       		.byte	0
 1305 0281 03       		.uleb128 0x3
 1306 0282 E0060000 		.4byte	.LASF52
 1307 0286 09       		.byte	0x9
ARM GAS  /var/folders/m4/4md61f0s1_g0rzfghffqnxvr0000gn/T//ccYSFrIo.s 			page 24


 1308 0287 50       		.byte	0x50
 1309 0288 8C020000 		.4byte	0x28c
 1310 028c 05       		.uleb128 0x5
 1311 028d E6000000 		.4byte	.LASF53
 1312 0291 08       		.byte	0x8
 1313 0292 04       		.byte	0x4
 1314 0293 B7       		.byte	0xb7
 1315 0294 B1020000 		.4byte	0x2b1
 1316 0298 06       		.uleb128 0x6
 1317 0299 7D040000 		.4byte	.LASF29
 1318 029d 04       		.byte	0x4
 1319 029e B8       		.byte	0xb8
 1320 029f 57020000 		.4byte	0x257
 1321 02a3 00       		.byte	0
 1322 02a4 06       		.uleb128 0x6
 1323 02a5 D0030000 		.4byte	.LASF30
 1324 02a9 04       		.byte	0x4
 1325 02aa B9       		.byte	0xb9
 1326 02ab 57020000 		.4byte	0x257
 1327 02af 04       		.byte	0x4
 1328 02b0 00       		.byte	0
 1329 02b1 03       		.uleb128 0x3
 1330 02b2 00000000 		.4byte	.LASF54
 1331 02b6 09       		.byte	0x9
 1332 02b7 57       		.byte	0x57
 1333 02b8 BC020000 		.4byte	0x2bc
 1334 02bc 0A       		.uleb128 0xa
 1335 02bd 59020000 		.4byte	.LASF55
 1336 02c1 1C       		.byte	0x1c
 1337 02c2 04       		.byte	0x4
 1338 02c3 9001     		.2byte	0x190
 1339 02c5 18030000 		.4byte	0x318
 1340 02c9 08       		.uleb128 0x8
 1341 02ca FD040000 		.4byte	.LASF56
 1342 02ce 04       		.byte	0x4
 1343 02cf 9101     		.2byte	0x191
 1344 02d1 81020000 		.4byte	0x281
 1345 02d5 00       		.byte	0
 1346 02d6 08       		.uleb128 0x8
 1347 02d7 14030000 		.4byte	.LASF57
 1348 02db 04       		.byte	0x4
 1349 02dc 9201     		.2byte	0x192
 1350 02de 05010000 		.4byte	0x105
 1351 02e2 08       		.byte	0x8
 1352 02e3 08       		.uleb128 0x8
 1353 02e4 78030000 		.4byte	.LASF58
 1354 02e8 04       		.byte	0x4
 1355 02e9 9401     		.2byte	0x194
 1356 02eb 87040000 		.4byte	0x487
 1357 02ef 0C       		.byte	0xc
 1358 02f0 08       		.uleb128 0x8
 1359 02f1 C0010000 		.4byte	.LASF59
 1360 02f5 04       		.byte	0x4
 1361 02f6 9701     		.2byte	0x197
 1362 02f8 57020000 		.4byte	0x257
 1363 02fc 10       		.byte	0x10
 1364 02fd 08       		.uleb128 0x8
ARM GAS  /var/folders/m4/4md61f0s1_g0rzfghffqnxvr0000gn/T//ccYSFrIo.s 			page 25


 1365 02fe A5030000 		.4byte	.LASF60
 1366 0302 04       		.byte	0x4
 1367 0303 9801     		.2byte	0x198
 1368 0305 57020000 		.4byte	0x257
 1369 0309 14       		.byte	0x14
 1370 030a 08       		.uleb128 0x8
 1371 030b 9B030000 		.4byte	.LASF61
 1372 030f 04       		.byte	0x4
 1373 0310 9B01     		.2byte	0x19b
 1374 0312 57020000 		.4byte	0x257
 1375 0316 18       		.byte	0x18
 1376 0317 00       		.byte	0
 1377 0318 03       		.uleb128 0x3
 1378 0319 83060000 		.4byte	.LASF62
 1379 031d 09       		.byte	0x9
 1380 031e 5C       		.byte	0x5c
 1381 031f 23030000 		.4byte	0x323
 1382 0323 09       		.uleb128 0x9
 1383 0324 04       		.byte	0x4
 1384 0325 29030000 		.4byte	0x329
 1385 0329 0B       		.uleb128 0xb
 1386 032a 34030000 		.4byte	0x334
 1387 032e 0C       		.uleb128 0xc
 1388 032f 34030000 		.4byte	0x334
 1389 0333 00       		.byte	0
 1390 0334 0D       		.uleb128 0xd
 1391 0335 04       		.byte	0x4
 1392 0336 03       		.uleb128 0x3
 1393 0337 C0030000 		.4byte	.LASF63
 1394 033b 09       		.byte	0x9
 1395 033c 61       		.byte	0x61
 1396 033d 41030000 		.4byte	0x341
 1397 0341 0A       		.uleb128 0xa
 1398 0342 B6040000 		.4byte	.LASF64
 1399 0346 14       		.byte	0x14
 1400 0347 04       		.byte	0x4
 1401 0348 6B01     		.2byte	0x16b
 1402 034a 90030000 		.4byte	0x390
 1403 034e 08       		.uleb128 0x8
 1404 034f 22020000 		.4byte	.LASF65
 1405 0353 04       		.byte	0x4
 1406 0354 6C01     		.2byte	0x16c
 1407 0356 EC060000 		.4byte	0x6ec
 1408 035a 00       		.byte	0
 1409 035b 08       		.uleb128 0x8
 1410 035c E3010000 		.4byte	.LASF66
 1411 0360 04       		.byte	0x4
 1412 0361 6D01     		.2byte	0x16d
 1413 0363 EC060000 		.4byte	0x6ec
 1414 0367 04       		.byte	0x4
 1415 0368 08       		.uleb128 0x8
 1416 0369 45020000 		.4byte	.LASF67
 1417 036d 04       		.byte	0x4
 1418 036e 6E01     		.2byte	0x16e
 1419 0370 31010000 		.4byte	0x131
 1420 0374 08       		.byte	0x8
 1421 0375 08       		.uleb128 0x8
ARM GAS  /var/folders/m4/4md61f0s1_g0rzfghffqnxvr0000gn/T//ccYSFrIo.s 			page 26


 1422 0376 6F070000 		.4byte	.LASF68
 1423 037a 04       		.byte	0x4
 1424 037b 6F01     		.2byte	0x16f
 1425 037d 18030000 		.4byte	0x318
 1426 0381 0C       		.byte	0xc
 1427 0382 08       		.uleb128 0x8
 1428 0383 D9060000 		.4byte	.LASF69
 1429 0387 04       		.byte	0x4
 1430 0388 7101     		.2byte	0x171
 1431 038a 34030000 		.4byte	0x334
 1432 038e 10       		.byte	0x10
 1433 038f 00       		.byte	0
 1434 0390 03       		.uleb128 0x3
 1435 0391 C3000000 		.4byte	.LASF70
 1436 0395 09       		.byte	0x9
 1437 0396 66       		.byte	0x66
 1438 0397 9B030000 		.4byte	0x39b
 1439 039b 0A       		.uleb128 0xa
 1440 039c 41030000 		.4byte	.LASF71
 1441 03a0 10       		.byte	0x10
 1442 03a1 04       		.byte	0x4
 1443 03a2 7B01     		.2byte	0x17b
 1444 03a4 DD030000 		.4byte	0x3dd
 1445 03a8 08       		.uleb128 0x8
 1446 03a9 22020000 		.4byte	.LASF65
 1447 03ad 04       		.byte	0x4
 1448 03ae 7C01     		.2byte	0x17c
 1449 03b0 EC060000 		.4byte	0x6ec
 1450 03b4 00       		.byte	0
 1451 03b5 08       		.uleb128 0x8
 1452 03b6 E3010000 		.4byte	.LASF66
 1453 03ba 04       		.byte	0x4
 1454 03bb 7E01     		.2byte	0x17e
 1455 03bd EC060000 		.4byte	0x6ec
 1456 03c1 04       		.byte	0x4
 1457 03c2 08       		.uleb128 0x8
 1458 03c3 45020000 		.4byte	.LASF67
 1459 03c7 04       		.byte	0x4
 1460 03c8 8001     		.2byte	0x180
 1461 03ca 31010000 		.4byte	0x131
 1462 03ce 08       		.byte	0x8
 1463 03cf 08       		.uleb128 0x8
 1464 03d0 26070000 		.4byte	.LASF72
 1465 03d4 04       		.byte	0x4
 1466 03d5 8201     		.2byte	0x182
 1467 03d7 E7060000 		.4byte	0x6e7
 1468 03db 0C       		.byte	0xc
 1469 03dc 00       		.byte	0
 1470 03dd 03       		.uleb128 0x3
 1471 03de 5D000000 		.4byte	.LASF73
 1472 03e2 09       		.byte	0x9
 1473 03e3 6B       		.byte	0x6b
 1474 03e4 E8030000 		.4byte	0x3e8
 1475 03e8 0A       		.uleb128 0xa
 1476 03e9 F2030000 		.4byte	.LASF74
 1477 03ed 04       		.byte	0x4
 1478 03ee 04       		.byte	0x4
ARM GAS  /var/folders/m4/4md61f0s1_g0rzfghffqnxvr0000gn/T//ccYSFrIo.s 			page 27


 1479 03ef A201     		.2byte	0x1a2
 1480 03f1 03040000 		.4byte	0x403
 1481 03f5 08       		.uleb128 0x8
 1482 03f6 A5060000 		.4byte	.LASF75
 1483 03fa 04       		.byte	0x4
 1484 03fb AA01     		.2byte	0x1aa
 1485 03fd F2060000 		.4byte	0x6f2
 1486 0401 00       		.byte	0
 1487 0402 00       		.byte	0
 1488 0403 03       		.uleb128 0x3
 1489 0404 D2020000 		.4byte	.LASF76
 1490 0408 09       		.byte	0x9
 1491 0409 70       		.byte	0x70
 1492 040a 0E040000 		.4byte	0x40e
 1493 040e 0E       		.uleb128 0xe
 1494 040f 5B010000 		.4byte	.LASF77
 1495 0413 5802     		.2byte	0x258
 1496 0415 04       		.byte	0x4
 1497 0416 C201     		.2byte	0x1c2
 1498 0418 6A040000 		.4byte	0x46a
 1499 041c 08       		.uleb128 0x8
 1500 041d 00070000 		.4byte	.LASF78
 1501 0421 04       		.byte	0x4
 1502 0422 C601     		.2byte	0x1c6
 1503 0424 B1020000 		.4byte	0x2b1
 1504 0428 00       		.byte	0
 1505 0429 08       		.uleb128 0x8
 1506 042a 38010000 		.4byte	.LASF79
 1507 042e 04       		.byte	0x4
 1508 042f CA01     		.2byte	0x1ca
 1509 0431 90030000 		.4byte	0x390
 1510 0435 1C       		.byte	0x1c
 1511 0436 07       		.uleb128 0x7
 1512 0437 64626700 		.ascii	"dbg\000"
 1513 043b 04       		.byte	0x4
 1514 043c CE01     		.2byte	0x1ce
 1515 043e DD030000 		.4byte	0x3dd
 1516 0442 2C       		.byte	0x2c
 1517 0443 08       		.uleb128 0x8
 1518 0444 AE000000 		.4byte	.LASF80
 1519 0448 04       		.byte	0x4
 1520 0449 D201     		.2byte	0x1d2
 1521 044b 3C010000 		.4byte	0x13c
 1522 044f 30       		.byte	0x30
 1523 0450 07       		.uleb128 0x7
 1524 0451 746D00   		.ascii	"tm\000"
 1525 0454 04       		.byte	0x4
 1526 0455 D701     		.2byte	0x1d7
 1527 0457 05060000 		.4byte	0x605
 1528 045b 78       		.byte	0x78
 1529 045c 08       		.uleb128 0x8
 1530 045d F9010000 		.4byte	.LASF81
 1531 0461 04       		.byte	0x4
 1532 0462 E301     		.2byte	0x1e3
 1533 0464 F7060000 		.4byte	0x6f7
 1534 0468 80       		.byte	0x80
 1535 0469 00       		.byte	0
ARM GAS  /var/folders/m4/4md61f0s1_g0rzfghffqnxvr0000gn/T//ccYSFrIo.s 			page 28


 1536 046a 04       		.uleb128 0x4
 1537 046b 04       		.byte	0x4
 1538 046c 07       		.byte	0x7
 1539 046d 25030000 		.4byte	.LASF82
 1540 0471 03       		.uleb128 0x3
 1541 0472 C8010000 		.4byte	.LASF83
 1542 0476 0A       		.byte	0xa
 1543 0477 65       		.byte	0x65
 1544 0478 34030000 		.4byte	0x334
 1545 047c 03       		.uleb128 0x3
 1546 047d FA020000 		.4byte	.LASF84
 1547 0481 0A       		.byte	0xa
 1548 0482 6D       		.byte	0x6d
 1549 0483 C3000000 		.4byte	0xc3
 1550 0487 05       		.uleb128 0x5
 1551 0488 B6060000 		.4byte	.LASF85
 1552 048c 04       		.byte	0x4
 1553 048d 0A       		.byte	0xa
 1554 048e 89       		.byte	0x89
 1555 048f A0040000 		.4byte	0x4a0
 1556 0493 0F       		.uleb128 0xf
 1557 0494 72313300 		.ascii	"r13\000"
 1558 0498 0A       		.byte	0xa
 1559 0499 8A       		.byte	0x8a
 1560 049a EA050000 		.4byte	0x5ea
 1561 049e 00       		.byte	0
 1562 049f 00       		.byte	0
 1563 04a0 05       		.uleb128 0x5
 1564 04a1 51000000 		.4byte	.LASF86
 1565 04a5 64       		.byte	0x64
 1566 04a6 0B       		.byte	0xb
 1567 04a7 FD       		.byte	0xfd
 1568 04a8 EA050000 		.4byte	0x5ea
 1569 04ac 0F       		.uleb128 0xf
 1570 04ad 73313600 		.ascii	"s16\000"
 1571 04b1 0B       		.byte	0xb
 1572 04b2 FF       		.byte	0xff
 1573 04b3 71040000 		.4byte	0x471
 1574 04b7 00       		.byte	0
 1575 04b8 07       		.uleb128 0x7
 1576 04b9 73313700 		.ascii	"s17\000"
 1577 04bd 0B       		.byte	0xb
 1578 04be 0001     		.2byte	0x100
 1579 04c0 71040000 		.4byte	0x471
 1580 04c4 04       		.byte	0x4
 1581 04c5 07       		.uleb128 0x7
 1582 04c6 73313800 		.ascii	"s18\000"
 1583 04ca 0B       		.byte	0xb
 1584 04cb 0101     		.2byte	0x101
 1585 04cd 71040000 		.4byte	0x471
 1586 04d1 08       		.byte	0x8
 1587 04d2 07       		.uleb128 0x7
 1588 04d3 73313900 		.ascii	"s19\000"
 1589 04d7 0B       		.byte	0xb
 1590 04d8 0201     		.2byte	0x102
 1591 04da 71040000 		.4byte	0x471
 1592 04de 0C       		.byte	0xc
ARM GAS  /var/folders/m4/4md61f0s1_g0rzfghffqnxvr0000gn/T//ccYSFrIo.s 			page 29


 1593 04df 07       		.uleb128 0x7
 1594 04e0 73323000 		.ascii	"s20\000"
 1595 04e4 0B       		.byte	0xb
 1596 04e5 0301     		.2byte	0x103
 1597 04e7 71040000 		.4byte	0x471
 1598 04eb 10       		.byte	0x10
 1599 04ec 07       		.uleb128 0x7
 1600 04ed 73323100 		.ascii	"s21\000"
 1601 04f1 0B       		.byte	0xb
 1602 04f2 0401     		.2byte	0x104
 1603 04f4 71040000 		.4byte	0x471
 1604 04f8 14       		.byte	0x14
 1605 04f9 07       		.uleb128 0x7
 1606 04fa 73323200 		.ascii	"s22\000"
 1607 04fe 0B       		.byte	0xb
 1608 04ff 0501     		.2byte	0x105
 1609 0501 71040000 		.4byte	0x471
 1610 0505 18       		.byte	0x18
 1611 0506 07       		.uleb128 0x7
 1612 0507 73323300 		.ascii	"s23\000"
 1613 050b 0B       		.byte	0xb
 1614 050c 0601     		.2byte	0x106
 1615 050e 71040000 		.4byte	0x471
 1616 0512 1C       		.byte	0x1c
 1617 0513 07       		.uleb128 0x7
 1618 0514 73323400 		.ascii	"s24\000"
 1619 0518 0B       		.byte	0xb
 1620 0519 0701     		.2byte	0x107
 1621 051b 71040000 		.4byte	0x471
 1622 051f 20       		.byte	0x20
 1623 0520 07       		.uleb128 0x7
 1624 0521 73323500 		.ascii	"s25\000"
 1625 0525 0B       		.byte	0xb
 1626 0526 0801     		.2byte	0x108
 1627 0528 71040000 		.4byte	0x471
 1628 052c 24       		.byte	0x24
 1629 052d 07       		.uleb128 0x7
 1630 052e 73323600 		.ascii	"s26\000"
 1631 0532 0B       		.byte	0xb
 1632 0533 0901     		.2byte	0x109
 1633 0535 71040000 		.4byte	0x471
 1634 0539 28       		.byte	0x28
 1635 053a 07       		.uleb128 0x7
 1636 053b 73323700 		.ascii	"s27\000"
 1637 053f 0B       		.byte	0xb
 1638 0540 0A01     		.2byte	0x10a
 1639 0542 71040000 		.4byte	0x471
 1640 0546 2C       		.byte	0x2c
 1641 0547 07       		.uleb128 0x7
 1642 0548 73323800 		.ascii	"s28\000"
 1643 054c 0B       		.byte	0xb
 1644 054d 0B01     		.2byte	0x10b
 1645 054f 71040000 		.4byte	0x471
 1646 0553 30       		.byte	0x30
 1647 0554 07       		.uleb128 0x7
 1648 0555 73323900 		.ascii	"s29\000"
 1649 0559 0B       		.byte	0xb
ARM GAS  /var/folders/m4/4md61f0s1_g0rzfghffqnxvr0000gn/T//ccYSFrIo.s 			page 30


 1650 055a 0C01     		.2byte	0x10c
 1651 055c 71040000 		.4byte	0x471
 1652 0560 34       		.byte	0x34
 1653 0561 07       		.uleb128 0x7
 1654 0562 73333000 		.ascii	"s30\000"
 1655 0566 0B       		.byte	0xb
 1656 0567 0D01     		.2byte	0x10d
 1657 0569 71040000 		.4byte	0x471
 1658 056d 38       		.byte	0x38
 1659 056e 07       		.uleb128 0x7
 1660 056f 73333100 		.ascii	"s31\000"
 1661 0573 0B       		.byte	0xb
 1662 0574 0E01     		.2byte	0x10e
 1663 0576 71040000 		.4byte	0x471
 1664 057a 3C       		.byte	0x3c
 1665 057b 07       		.uleb128 0x7
 1666 057c 723400   		.ascii	"r4\000"
 1667 057f 0B       		.byte	0xb
 1668 0580 1001     		.2byte	0x110
 1669 0582 71040000 		.4byte	0x471
 1670 0586 40       		.byte	0x40
 1671 0587 07       		.uleb128 0x7
 1672 0588 723500   		.ascii	"r5\000"
 1673 058b 0B       		.byte	0xb
 1674 058c 1101     		.2byte	0x111
 1675 058e 71040000 		.4byte	0x471
 1676 0592 44       		.byte	0x44
 1677 0593 07       		.uleb128 0x7
 1678 0594 723600   		.ascii	"r6\000"
 1679 0597 0B       		.byte	0xb
 1680 0598 1201     		.2byte	0x112
 1681 059a 71040000 		.4byte	0x471
 1682 059e 48       		.byte	0x48
 1683 059f 07       		.uleb128 0x7
 1684 05a0 723700   		.ascii	"r7\000"
 1685 05a3 0B       		.byte	0xb
 1686 05a4 1301     		.2byte	0x113
 1687 05a6 71040000 		.4byte	0x471
 1688 05aa 4C       		.byte	0x4c
 1689 05ab 07       		.uleb128 0x7
 1690 05ac 723800   		.ascii	"r8\000"
 1691 05af 0B       		.byte	0xb
 1692 05b0 1401     		.2byte	0x114
 1693 05b2 71040000 		.4byte	0x471
 1694 05b6 50       		.byte	0x50
 1695 05b7 07       		.uleb128 0x7
 1696 05b8 723900   		.ascii	"r9\000"
 1697 05bb 0B       		.byte	0xb
 1698 05bc 1501     		.2byte	0x115
 1699 05be 71040000 		.4byte	0x471
 1700 05c2 54       		.byte	0x54
 1701 05c3 07       		.uleb128 0x7
 1702 05c4 72313000 		.ascii	"r10\000"
 1703 05c8 0B       		.byte	0xb
 1704 05c9 1601     		.2byte	0x116
 1705 05cb 71040000 		.4byte	0x471
 1706 05cf 58       		.byte	0x58
ARM GAS  /var/folders/m4/4md61f0s1_g0rzfghffqnxvr0000gn/T//ccYSFrIo.s 			page 31


 1707 05d0 07       		.uleb128 0x7
 1708 05d1 72313100 		.ascii	"r11\000"
 1709 05d5 0B       		.byte	0xb
 1710 05d6 1701     		.2byte	0x117
 1711 05d8 71040000 		.4byte	0x471
 1712 05dc 5C       		.byte	0x5c
 1713 05dd 07       		.uleb128 0x7
 1714 05de 6C7200   		.ascii	"lr\000"
 1715 05e1 0B       		.byte	0xb
 1716 05e2 1801     		.2byte	0x118
 1717 05e4 71040000 		.4byte	0x471
 1718 05e8 60       		.byte	0x60
 1719 05e9 00       		.byte	0
 1720 05ea 09       		.uleb128 0x9
 1721 05eb 04       		.byte	0x4
 1722 05ec A0040000 		.4byte	0x4a0
 1723 05f0 10       		.uleb128 0x10
 1724 05f1 04       		.byte	0x4
 1725 05f2 0C       		.byte	0xc
 1726 05f3 38       		.byte	0x38
 1727 05f4 05060000 		.4byte	0x605
 1728 05f8 06       		.uleb128 0x6
 1729 05f9 AF060000 		.4byte	.LASF87
 1730 05fd 0C       		.byte	0xc
 1731 05fe 3C       		.byte	0x3c
 1732 05ff CE000000 		.4byte	0xce
 1733 0603 00       		.byte	0
 1734 0604 00       		.byte	0
 1735 0605 03       		.uleb128 0x3
 1736 0606 7E030000 		.4byte	.LASF88
 1737 060a 0C       		.byte	0xc
 1738 060b 3D       		.byte	0x3d
 1739 060c F0050000 		.4byte	0x5f0
 1740 0610 11       		.uleb128 0x11
 1741 0611 04       		.byte	0x4
 1742 0612 04       		.byte	0x4
 1743 0613 FA       		.byte	0xfa
 1744 0614 6D060000 		.4byte	0x66d
 1745 0618 12       		.uleb128 0x12
 1746 0619 14000000 		.4byte	.LASF89
 1747 061d 04       		.byte	0x4
 1748 061e 0101     		.2byte	0x101
 1749 0620 10010000 		.4byte	0x110
 1750 0624 12       		.uleb128 0x12
 1751 0625 A5000000 		.4byte	.LASF90
 1752 0629 04       		.byte	0x4
 1753 062a 0801     		.2byte	0x108
 1754 062c 10010000 		.4byte	0x110
 1755 0630 12       		.uleb128 0x12
 1756 0631 DE020000 		.4byte	.LASF91
 1757 0635 04       		.byte	0x4
 1758 0636 0F01     		.2byte	0x10f
 1759 0638 34030000 		.4byte	0x334
 1760 063c 12       		.uleb128 0x12
 1761 063d 55010000 		.4byte	.LASF92
 1762 0641 04       		.byte	0x4
 1763 0642 1601     		.2byte	0x116
ARM GAS  /var/folders/m4/4md61f0s1_g0rzfghffqnxvr0000gn/T//ccYSFrIo.s 			page 32


 1764 0644 6D060000 		.4byte	0x66d
 1765 0648 12       		.uleb128 0x12
 1766 0649 31020000 		.4byte	.LASF93
 1767 064d 04       		.byte	0x4
 1768 064e 1E01     		.2byte	0x11e
 1769 0650 98060000 		.4byte	0x698
 1770 0654 12       		.uleb128 0x12
 1771 0655 F6040000 		.4byte	.LASF94
 1772 0659 04       		.byte	0x4
 1773 065a 2701     		.2byte	0x127
 1774 065c CF060000 		.4byte	0x6cf
 1775 0660 12       		.uleb128 0x12
 1776 0661 76040000 		.4byte	.LASF95
 1777 0665 04       		.byte	0x4
 1778 0666 2F01     		.2byte	0x12f
 1779 0668 1B010000 		.4byte	0x11b
 1780 066c 00       		.byte	0
 1781 066d 09       		.uleb128 0x9
 1782 066e 04       		.byte	0x4
 1783 066f 4C020000 		.4byte	0x24c
 1784 0673 05       		.uleb128 0x5
 1785 0674 C7040000 		.4byte	.LASF96
 1786 0678 0C       		.byte	0xc
 1787 0679 03       		.byte	0x3
 1788 067a 34       		.byte	0x34
 1789 067b 98060000 		.4byte	0x698
 1790 067f 06       		.uleb128 0x6
 1791 0680 A7010000 		.4byte	.LASF97
 1792 0684 03       		.byte	0x3
 1793 0685 35       		.byte	0x35
 1794 0686 81020000 		.4byte	0x281
 1795 068a 00       		.byte	0
 1796 068b 06       		.uleb128 0x6
 1797 068c 67020000 		.4byte	.LASF98
 1798 0690 03       		.byte	0x3
 1799 0691 37       		.byte	0x37
 1800 0692 26010000 		.4byte	0x126
 1801 0696 08       		.byte	0x8
 1802 0697 00       		.byte	0
 1803 0698 09       		.uleb128 0x9
 1804 0699 04       		.byte	0x4
 1805 069a 73060000 		.4byte	0x673
 1806 069e 05       		.uleb128 0x5
 1807 069f F0060000 		.4byte	.LASF99
 1808 06a3 10       		.byte	0x10
 1809 06a4 0D       		.byte	0xd
 1810 06a5 39       		.byte	0x39
 1811 06a6 CF060000 		.4byte	0x6cf
 1812 06aa 06       		.uleb128 0x6
 1813 06ab 30010000 		.4byte	.LASF100
 1814 06af 0D       		.byte	0xd
 1815 06b0 3A       		.byte	0x3a
 1816 06b1 81020000 		.4byte	0x281
 1817 06b5 00       		.byte	0
 1818 06b6 06       		.uleb128 0x6
 1819 06b7 61070000 		.4byte	.LASF101
 1820 06bb 0D       		.byte	0xd
ARM GAS  /var/folders/m4/4md61f0s1_g0rzfghffqnxvr0000gn/T//ccYSFrIo.s 			page 33


 1821 06bc 3C       		.byte	0x3c
 1822 06bd 57020000 		.4byte	0x257
 1823 06c1 08       		.byte	0x8
 1824 06c2 06       		.uleb128 0x6
 1825 06c3 8F030000 		.4byte	.LASF102
 1826 06c7 0D       		.byte	0xd
 1827 06c8 3E       		.byte	0x3e
 1828 06c9 1D070000 		.4byte	0x71d
 1829 06cd 0C       		.byte	0xc
 1830 06ce 00       		.byte	0
 1831 06cf 09       		.uleb128 0x9
 1832 06d0 04       		.byte	0x4
 1833 06d1 9E060000 		.4byte	0x69e
 1834 06d5 09       		.uleb128 0x9
 1835 06d6 04       		.byte	0x4
 1836 06d7 E2060000 		.4byte	0x6e2
 1837 06db 04       		.uleb128 0x4
 1838 06dc 01       		.byte	0x1
 1839 06dd 08       		.byte	0x8
 1840 06de 33050000 		.4byte	.LASF103
 1841 06e2 13       		.uleb128 0x13
 1842 06e3 DB060000 		.4byte	0x6db
 1843 06e7 14       		.uleb128 0x14
 1844 06e8 31010000 		.4byte	0x131
 1845 06ec 09       		.uleb128 0x9
 1846 06ed 04       		.byte	0x4
 1847 06ee 36030000 		.4byte	0x336
 1848 06f2 14       		.uleb128 0x14
 1849 06f3 D5060000 		.4byte	0x6d5
 1850 06f7 15       		.uleb128 0x15
 1851 06f8 7C040000 		.4byte	0x47c
 1852 06fc 07070000 		.4byte	0x707
 1853 0700 16       		.uleb128 0x16
 1854 0701 6A040000 		.4byte	0x46a
 1855 0705 3A       		.byte	0x3a
 1856 0706 00       		.byte	0
 1857 0707 03       		.uleb128 0x3
 1858 0708 AA040000 		.4byte	.LASF104
 1859 070c 03       		.byte	0x3
 1860 070d 38       		.byte	0x38
 1861 070e 73060000 		.4byte	0x673
 1862 0712 03       		.uleb128 0x3
 1863 0713 EB010000 		.4byte	.LASF105
 1864 0717 0D       		.byte	0xd
 1865 0718 34       		.byte	0x34
 1866 0719 9E060000 		.4byte	0x69e
 1867 071d 09       		.uleb128 0x9
 1868 071e 04       		.byte	0x4
 1869 071f 12070000 		.4byte	0x712
 1870 0723 17       		.uleb128 0x17
 1871 0724 97060000 		.4byte	.LASF112
 1872 0728 02       		.byte	0x2
 1873 0729 2202     		.2byte	0x222
 1874 072b 03       		.byte	0x3
 1875 072c 3D070000 		.4byte	0x73d
 1876 0730 18       		.uleb128 0x18
 1877 0731 F3010000 		.4byte	.LASF110
ARM GAS  /var/folders/m4/4md61f0s1_g0rzfghffqnxvr0000gn/T//ccYSFrIo.s 			page 34


 1878 0735 02       		.byte	0x2
 1879 0736 2202     		.2byte	0x222
 1880 0738 B8000000 		.4byte	0xb8
 1881 073c 00       		.byte	0
 1882 073d 19       		.uleb128 0x19
 1883 073e 77000000 		.4byte	.LASF106
 1884 0742 0B       		.byte	0xb
 1885 0743 C801     		.2byte	0x1c8
 1886 0745 03       		.byte	0x3
 1887 0746 19       		.uleb128 0x19
 1888 0747 3F010000 		.4byte	.LASF107
 1889 074b 0B       		.byte	0xb
 1890 074c E001     		.2byte	0x1e0
 1891 074e 03       		.byte	0x3
 1892 074f 19       		.uleb128 0x19
 1893 0750 C6060000 		.4byte	.LASF108
 1894 0754 0B       		.byte	0xb
 1895 0755 EF01     		.2byte	0x1ef
 1896 0757 03       		.byte	0x3
 1897 0758 19       		.uleb128 0x19
 1898 0759 3E060000 		.4byte	.LASF109
 1899 075d 0B       		.byte	0xb
 1900 075e FA01     		.2byte	0x1fa
 1901 0760 03       		.byte	0x3
 1902 0761 1A       		.uleb128 0x1a
 1903 0762 9D040000 		.4byte	.LASF117
 1904 0766 0E       		.byte	0xe
 1905 0767 7501     		.2byte	0x175
 1906 0769 7F070000 		.4byte	0x77f
 1907 076d 03       		.byte	0x3
 1908 076e 7F070000 		.4byte	0x77f
 1909 0772 1B       		.uleb128 0x1b
 1910 0773 76747000 		.ascii	"vtp\000"
 1911 0777 0E       		.byte	0xe
 1912 0778 7501     		.2byte	0x175
 1913 077a EC060000 		.4byte	0x6ec
 1914 077e 00       		.byte	0
 1915 077f 04       		.uleb128 0x4
 1916 0780 01       		.byte	0x1
 1917 0781 02       		.byte	0x2
 1918 0782 02040000 		.4byte	.LASF111
 1919 0786 1C       		.uleb128 0x1c
 1920 0787 65040000 		.4byte	.LASF113
 1921 078b 03       		.byte	0x3
 1922 078c 86       		.byte	0x86
 1923 078d 03       		.byte	0x3
 1924 078e 9D070000 		.4byte	0x79d
 1925 0792 1D       		.uleb128 0x1d
 1926 0793 737000   		.ascii	"sp\000"
 1927 0796 03       		.byte	0x3
 1928 0797 86       		.byte	0x86
 1929 0798 9D070000 		.4byte	0x79d
 1930 079c 00       		.byte	0
 1931 079d 09       		.uleb128 0x9
 1932 079e 04       		.byte	0x4
 1933 079f 07070000 		.4byte	0x707
 1934 07a3 17       		.uleb128 0x17
ARM GAS  /var/folders/m4/4md61f0s1_g0rzfghffqnxvr0000gn/T//ccYSFrIo.s 			page 35


 1935 07a4 6C000000 		.4byte	.LASF114
 1936 07a8 04       		.byte	0x4
 1937 07a9 5A02     		.2byte	0x25a
 1938 07ab 03       		.byte	0x3
 1939 07ac BD070000 		.4byte	0x7bd
 1940 07b0 1B       		.uleb128 0x1b
 1941 07b1 74717000 		.ascii	"tqp\000"
 1942 07b5 04       		.byte	0x4
 1943 07b6 5A02     		.2byte	0x25a
 1944 07b8 BD070000 		.4byte	0x7bd
 1945 07bc 00       		.byte	0
 1946 07bd 09       		.uleb128 0x9
 1947 07be 04       		.byte	0x4
 1948 07bf 81020000 		.4byte	0x281
 1949 07c3 19       		.uleb128 0x19
 1950 07c4 0E070000 		.4byte	.LASF115
 1951 07c8 0F       		.byte	0xf
 1952 07c9 8201     		.2byte	0x182
 1953 07cb 03       		.byte	0x3
 1954 07cc 19       		.uleb128 0x19
 1955 07cd DF030000 		.4byte	.LASF116
 1956 07d1 0F       		.byte	0xf
 1957 07d2 9601     		.2byte	0x196
 1958 07d4 03       		.byte	0x3
 1959 07d5 1A       		.uleb128 0x1a
 1960 07d6 6E010000 		.4byte	.LASF118
 1961 07da 04       		.byte	0x4
 1962 07db B102     		.2byte	0x2b1
 1963 07dd 57020000 		.4byte	0x257
 1964 07e1 03       		.byte	0x3
 1965 07e2 F2070000 		.4byte	0x7f2
 1966 07e6 1B       		.uleb128 0x1b
 1967 07e7 747000   		.ascii	"tp\000"
 1968 07ea 04       		.byte	0x4
 1969 07eb B102     		.2byte	0x2b1
 1970 07ed 57020000 		.4byte	0x257
 1971 07f1 00       		.byte	0
 1972 07f2 1E       		.uleb128 0x1e
 1973 07f3 05050000 		.4byte	.LASF140
 1974 07f7 01       		.byte	0x1
 1975 07f8 DA       		.byte	0xda
 1976 07f9 57020000 		.4byte	0x257
 1977 07fd 01       		.byte	0x1
 1978 07fe 24080000 		.4byte	0x824
 1979 0802 1D       		.uleb128 0x1d
 1980 0803 747000   		.ascii	"tp\000"
 1981 0806 01       		.byte	0x1
 1982 0807 DA       		.byte	0xda
 1983 0808 57020000 		.4byte	0x257
 1984 080c 1F       		.uleb128 0x1f
 1985 080d 637000   		.ascii	"cp\000"
 1986 0810 01       		.byte	0x1
 1987 0811 DB       		.byte	0xdb
 1988 0812 57020000 		.4byte	0x257
 1989 0816 20       		.uleb128 0x20
 1990 0817 94040000 		.4byte	.LASF119
 1991 081b 34080000 		.4byte	0x834
ARM GAS  /var/folders/m4/4md61f0s1_g0rzfghffqnxvr0000gn/T//ccYSFrIo.s 			page 36


 1992 081f 05050000 		.4byte	.LASF140
 1993 0823 00       		.byte	0
 1994 0824 15       		.uleb128 0x15
 1995 0825 DB060000 		.4byte	0x6db
 1996 0829 34080000 		.4byte	0x834
 1997 082d 16       		.uleb128 0x16
 1998 082e 6A040000 		.4byte	0x46a
 1999 0832 0B       		.byte	0xb
 2000 0833 00       		.byte	0
 2001 0834 13       		.uleb128 0x13
 2002 0835 24080000 		.4byte	0x824
 2003 0839 17       		.uleb128 0x17
 2004 083a 1B020000 		.4byte	.LASF120
 2005 083e 01       		.byte	0x1
 2006 083f 1301     		.2byte	0x113
 2007 0841 01       		.byte	0x1
 2008 0842 5C080000 		.4byte	0x85c
 2009 0846 1B       		.uleb128 0x1b
 2010 0847 7000     		.ascii	"p\000"
 2011 0849 01       		.byte	0x1
 2012 084a 1301     		.2byte	0x113
 2013 084c 34030000 		.4byte	0x334
 2014 0850 21       		.uleb128 0x21
 2015 0851 747000   		.ascii	"tp\000"
 2016 0854 01       		.byte	0x1
 2017 0855 1401     		.2byte	0x114
 2018 0857 57020000 		.4byte	0x257
 2019 085b 00       		.byte	0
 2020 085c 1A       		.uleb128 0x1a
 2021 085d 5C060000 		.4byte	.LASF121
 2022 0861 04       		.byte	0x4
 2023 0862 9F02     		.2byte	0x29f
 2024 0864 57020000 		.4byte	0x257
 2025 0868 03       		.byte	0x3
 2026 0869 85080000 		.4byte	0x885
 2027 086d 1B       		.uleb128 0x1b
 2028 086e 74717000 		.ascii	"tqp\000"
 2029 0872 04       		.byte	0x4
 2030 0873 9F02     		.2byte	0x29f
 2031 0875 BD070000 		.4byte	0x7bd
 2032 0879 21       		.uleb128 0x21
 2033 087a 747000   		.ascii	"tp\000"
 2034 087d 04       		.byte	0x4
 2035 087e A002     		.2byte	0x2a0
 2036 0880 57020000 		.4byte	0x257
 2037 0884 00       		.byte	0
 2038 0885 22       		.uleb128 0x22
 2039 0886 46070000 		.4byte	.LASF141
 2040 088a 04       		.byte	0x4
 2041 088b C502     		.2byte	0x2c5
 2042 088d 7F070000 		.4byte	0x77f
 2043 0891 03       		.byte	0x3
 2044 0892 23       		.uleb128 0x23
 2045 0893 39080000 		.4byte	0x839
 2046 0897 00000000 		.4byte	.LFB234
 2047 089b 70000000 		.4byte	.LFE234-.LFB234
 2048 089f 01       		.uleb128 0x1
ARM GAS  /var/folders/m4/4md61f0s1_g0rzfghffqnxvr0000gn/T//ccYSFrIo.s 			page 37


 2049 08a0 9C       		.byte	0x9c
 2050 08a1 590A0000 		.4byte	0xa59
 2051 08a5 24       		.uleb128 0x24
 2052 08a6 46080000 		.4byte	0x846
 2053 08aa 01       		.uleb128 0x1
 2054 08ab 50       		.byte	0x50
 2055 08ac 25       		.uleb128 0x25
 2056 08ad 50080000 		.4byte	0x850
 2057 08b1 01       		.uleb128 0x1
 2058 08b2 50       		.byte	0x50
 2059 08b3 26       		.uleb128 0x26
 2060 08b4 C3070000 		.4byte	0x7c3
 2061 08b8 02000000 		.4byte	.LBB128
 2062 08bc 06000000 		.4byte	.LBE128-.LBB128
 2063 08c0 01       		.byte	0x1
 2064 08c1 1601     		.2byte	0x116
 2065 08c3 04090000 		.4byte	0x904
 2066 08c7 27       		.uleb128 0x27
 2067 08c8 4F070000 		.4byte	0x74f
 2068 08cc 02000000 		.4byte	.LBB129
 2069 08d0 06000000 		.4byte	.LBE129-.LBB129
 2070 08d4 0F       		.byte	0xf
 2071 08d5 8401     		.2byte	0x184
 2072 08d7 27       		.uleb128 0x27
 2073 08d8 3D070000 		.4byte	0x73d
 2074 08dc 02000000 		.4byte	.LBB130
 2075 08e0 06000000 		.4byte	.LBE130-.LBB130
 2076 08e4 0B       		.byte	0xb
 2077 08e5 F101     		.2byte	0x1f1
 2078 08e7 27       		.uleb128 0x27
 2079 08e8 23070000 		.4byte	0x723
 2080 08ec 02000000 		.4byte	.LBB131
 2081 08f0 06000000 		.4byte	.LBE131-.LBB131
 2082 08f4 0B       		.byte	0xb
 2083 08f5 D001     		.2byte	0x1d0
 2084 08f7 28       		.uleb128 0x28
 2085 08f8 30070000 		.4byte	0x730
 2086 08fc 00000000 		.4byte	.LLST0
 2087 0900 00       		.byte	0
 2088 0901 00       		.byte	0
 2089 0902 00       		.byte	0
 2090 0903 00       		.byte	0
 2091 0904 26       		.uleb128 0x26
 2092 0905 86070000 		.4byte	0x786
 2093 0909 1C000000 		.4byte	.LBB133
 2094 090d 06000000 		.4byte	.LBE133-.LBB133
 2095 0911 01       		.byte	0x1
 2096 0912 2201     		.2byte	0x122
 2097 0914 22090000 		.4byte	0x922
 2098 0918 28       		.uleb128 0x28
 2099 0919 92070000 		.4byte	0x792
 2100 091d 15000000 		.4byte	.LLST1
 2101 0921 00       		.byte	0
 2102 0922 26       		.uleb128 0x26
 2103 0923 D5070000 		.4byte	0x7d5
 2104 0927 22000000 		.4byte	.LBB135
 2105 092b 0A000000 		.4byte	.LBE135-.LBB135
ARM GAS  /var/folders/m4/4md61f0s1_g0rzfghffqnxvr0000gn/T//ccYSFrIo.s 			page 38


 2106 092f 01       		.byte	0x1
 2107 0930 2A01     		.2byte	0x12a
 2108 0932 40090000 		.4byte	0x940
 2109 0936 28       		.uleb128 0x28
 2110 0937 E6070000 		.4byte	0x7e6
 2111 093b 28000000 		.4byte	.LLST2
 2112 093f 00       		.byte	0
 2113 0940 29       		.uleb128 0x29
 2114 0941 F2070000 		.4byte	0x7f2
 2115 0945 30000000 		.4byte	.LBB137
 2116 0949 00000000 		.4byte	.Ldebug_ranges0+0
 2117 094d 01       		.byte	0x1
 2118 094e 3101     		.2byte	0x131
 2119 0950 72090000 		.4byte	0x972
 2120 0954 28       		.uleb128 0x28
 2121 0955 02080000 		.4byte	0x802
 2122 0959 3B000000 		.4byte	.LLST3
 2123 095d 2A       		.uleb128 0x2a
 2124 095e 00000000 		.4byte	.Ldebug_ranges0+0
 2125 0962 2B       		.uleb128 0x2b
 2126 0963 0C080000 		.4byte	0x80c
 2127 0967 4E000000 		.4byte	.LLST4
 2128 096b 2C       		.uleb128 0x2c
 2129 096c 16080000 		.4byte	0x816
 2130 0970 00       		.byte	0
 2131 0971 00       		.byte	0
 2132 0972 2D       		.uleb128 0x2d
 2133 0973 18000000 		.4byte	.Ldebug_ranges0+0x18
 2134 0977 0B0A0000 		.4byte	0xa0b
 2135 097b 28       		.uleb128 0x28
 2136 097c 46080000 		.4byte	0x846
 2137 0980 66000000 		.4byte	.LLST5
 2138 0984 2A       		.uleb128 0x2a
 2139 0985 18000000 		.4byte	.Ldebug_ranges0+0x18
 2140 0989 2C       		.uleb128 0x2c
 2141 098a 50080000 		.4byte	0x850
 2142 098e 29       		.uleb128 0x29
 2143 098f F2070000 		.4byte	0x7f2
 2144 0993 34000000 		.4byte	.LBB142
 2145 0997 30000000 		.4byte	.Ldebug_ranges0+0x30
 2146 099b 01       		.byte	0x1
 2147 099c 3101     		.2byte	0x131
 2148 099e BC090000 		.4byte	0x9bc
 2149 09a2 2E       		.uleb128 0x2e
 2150 09a3 02080000 		.4byte	0x802
 2151 09a7 2A       		.uleb128 0x2a
 2152 09a8 30000000 		.4byte	.Ldebug_ranges0+0x30
 2153 09ac 2B       		.uleb128 0x2b
 2154 09ad 0C080000 		.4byte	0x80c
 2155 09b1 79000000 		.4byte	.LLST6
 2156 09b5 2C       		.uleb128 0x2c
 2157 09b6 16080000 		.4byte	0x816
 2158 09ba 00       		.byte	0
 2159 09bb 00       		.byte	0
 2160 09bc 2F       		.uleb128 0x2f
 2161 09bd CC070000 		.4byte	0x7cc
 2162 09c1 48000000 		.4byte	.LBB147
ARM GAS  /var/folders/m4/4md61f0s1_g0rzfghffqnxvr0000gn/T//ccYSFrIo.s 			page 39


 2163 09c5 50000000 		.4byte	.Ldebug_ranges0+0x50
 2164 09c9 01       		.byte	0x1
 2165 09ca 3201     		.2byte	0x132
 2166 09cc 2F       		.uleb128 0x2f
 2167 09cd 58070000 		.4byte	0x758
 2168 09d1 48000000 		.4byte	.LBB148
 2169 09d5 50000000 		.4byte	.Ldebug_ranges0+0x50
 2170 09d9 0F       		.byte	0xf
 2171 09da 9A01     		.2byte	0x19a
 2172 09dc 2F       		.uleb128 0x2f
 2173 09dd 46070000 		.4byte	0x746
 2174 09e1 48000000 		.4byte	.LBB149
 2175 09e5 50000000 		.4byte	.Ldebug_ranges0+0x50
 2176 09e9 0B       		.byte	0xb
 2177 09ea FC01     		.2byte	0x1fc
 2178 09ec 2F       		.uleb128 0x2f
 2179 09ed 23070000 		.4byte	0x723
 2180 09f1 48000000 		.4byte	.LBB150
 2181 09f5 50000000 		.4byte	.Ldebug_ranges0+0x50
 2182 09f9 0B       		.byte	0xb
 2183 09fa E301     		.2byte	0x1e3
 2184 09fc 28       		.uleb128 0x28
 2185 09fd 30070000 		.4byte	0x730
 2186 0a01 8C000000 		.4byte	.LLST7
 2187 0a05 00       		.byte	0
 2188 0a06 00       		.byte	0
 2189 0a07 00       		.byte	0
 2190 0a08 00       		.byte	0
 2191 0a09 00       		.byte	0
 2192 0a0a 00       		.byte	0
 2193 0a0b 27       		.uleb128 0x27
 2194 0a0c CC070000 		.4byte	0x7cc
 2195 0a10 60000000 		.4byte	.LBB161
 2196 0a14 06000000 		.4byte	.LBE161-.LBB161
 2197 0a18 01       		.byte	0x1
 2198 0a19 1B01     		.2byte	0x11b
 2199 0a1b 27       		.uleb128 0x27
 2200 0a1c 58070000 		.4byte	0x758
 2201 0a20 60000000 		.4byte	.LBB162
 2202 0a24 06000000 		.4byte	.LBE162-.LBB162
 2203 0a28 0F       		.byte	0xf
 2204 0a29 9A01     		.2byte	0x19a
 2205 0a2b 27       		.uleb128 0x27
 2206 0a2c 46070000 		.4byte	0x746
 2207 0a30 60000000 		.4byte	.LBB163
 2208 0a34 06000000 		.4byte	.LBE163-.LBB163
 2209 0a38 0B       		.byte	0xb
 2210 0a39 FC01     		.2byte	0x1fc
 2211 0a3b 27       		.uleb128 0x27
 2212 0a3c 23070000 		.4byte	0x723
 2213 0a40 60000000 		.4byte	.LBB164
 2214 0a44 06000000 		.4byte	.LBE164-.LBB164
 2215 0a48 0B       		.byte	0xb
 2216 0a49 E301     		.2byte	0x1e3
 2217 0a4b 28       		.uleb128 0x28
 2218 0a4c 30070000 		.4byte	0x730
 2219 0a50 A0000000 		.4byte	.LLST8
ARM GAS  /var/folders/m4/4md61f0s1_g0rzfghffqnxvr0000gn/T//ccYSFrIo.s 			page 40


 2220 0a54 00       		.byte	0
 2221 0a55 00       		.byte	0
 2222 0a56 00       		.byte	0
 2223 0a57 00       		.byte	0
 2224 0a58 00       		.byte	0
 2225 0a59 30       		.uleb128 0x30
 2226 0a5a FE000000 		.4byte	.LASF122
 2227 0a5e 01       		.byte	0x1
 2228 0a5f 41       		.byte	0x41
 2229 0a60 00000000 		.4byte	.LFB231
 2230 0a64 14000000 		.4byte	.LFE231-.LFB231
 2231 0a68 01       		.uleb128 0x1
 2232 0a69 9C       		.byte	0x9c
 2233 0a6a 880A0000 		.4byte	0xa88
 2234 0a6e 31       		.uleb128 0x31
 2235 0a6f A3070000 		.4byte	0x7a3
 2236 0a73 00000000 		.4byte	.LBB166
 2237 0a77 68000000 		.4byte	.Ldebug_ranges0+0x68
 2238 0a7b 01       		.byte	0x1
 2239 0a7c 43       		.byte	0x43
 2240 0a7d 28       		.uleb128 0x28
 2241 0a7e B0070000 		.4byte	0x7b0
 2242 0a82 B4000000 		.4byte	.LLST9
 2243 0a86 00       		.byte	0
 2244 0a87 00       		.byte	0
 2245 0a88 23       		.uleb128 0x23
 2246 0a89 F2070000 		.4byte	0x7f2
 2247 0a8d 00000000 		.4byte	.LFB232
 2248 0a91 2C000000 		.4byte	.LFE232-.LFB232
 2249 0a95 01       		.uleb128 0x1
 2250 0a96 9C       		.byte	0x9c
 2251 0a97 B10A0000 		.4byte	0xab1
 2252 0a9b 28       		.uleb128 0x28
 2253 0a9c 02080000 		.4byte	0x802
 2254 0aa0 CC000000 		.4byte	.LLST10
 2255 0aa4 25       		.uleb128 0x25
 2256 0aa5 0C080000 		.4byte	0x80c
 2257 0aa9 01       		.uleb128 0x1
 2258 0aaa 53       		.byte	0x53
 2259 0aab 2C       		.uleb128 0x2c
 2260 0aac 16080000 		.4byte	0x816
 2261 0ab0 00       		.byte	0
 2262 0ab1 30       		.uleb128 0x30
 2263 0ab2 D4040000 		.4byte	.LASF123
 2264 0ab6 01       		.byte	0x1
 2265 0ab7 FA       		.byte	0xfa
 2266 0ab8 00000000 		.4byte	.LFB233
 2267 0abc 28000000 		.4byte	.LFE233-.LFB233
 2268 0ac0 01       		.uleb128 0x1
 2269 0ac1 9C       		.byte	0x9c
 2270 0ac2 1B0B0000 		.4byte	0xb1b
 2271 0ac6 32       		.uleb128 0x32
 2272 0ac7 1E040000 		.4byte	.LASF124
 2273 0acb 01       		.byte	0x1
 2274 0acc FA       		.byte	0xfa
 2275 0acd E4000000 		.4byte	0xe4
 2276 0ad1 F5000000 		.4byte	.LLST11
ARM GAS  /var/folders/m4/4md61f0s1_g0rzfghffqnxvr0000gn/T//ccYSFrIo.s 			page 41


 2277 0ad5 33       		.uleb128 0x33
 2278 0ad6 6F747000 		.ascii	"otp\000"
 2279 0ada 01       		.byte	0x1
 2280 0adb FB       		.byte	0xfb
 2281 0adc 57020000 		.4byte	0x257
 2282 0ae0 22010000 		.4byte	.LLST12
 2283 0ae4 29       		.uleb128 0x29
 2284 0ae5 5C080000 		.4byte	0x85c
 2285 0ae9 04000000 		.4byte	.LBB170
 2286 0aed 80000000 		.4byte	.Ldebug_ranges0+0x80
 2287 0af1 01       		.byte	0x1
 2288 0af2 0601     		.2byte	0x106
 2289 0af4 110B0000 		.4byte	0xb11
 2290 0af8 28       		.uleb128 0x28
 2291 0af9 6D080000 		.4byte	0x86d
 2292 0afd 35010000 		.4byte	.LLST13
 2293 0b01 2A       		.uleb128 0x2a
 2294 0b02 80000000 		.4byte	.Ldebug_ranges0+0x80
 2295 0b06 2B       		.uleb128 0x2b
 2296 0b07 79080000 		.4byte	0x879
 2297 0b0b 4D010000 		.4byte	.LLST14
 2298 0b0f 00       		.byte	0
 2299 0b10 00       		.byte	0
 2300 0b11 34       		.uleb128 0x34
 2301 0b12 24000000 		.4byte	.LVL25
 2302 0b16 4B0E0000 		.4byte	0xe4b
 2303 0b1a 00       		.byte	0
 2304 0b1b 35       		.uleb128 0x35
 2305 0b1c 31070000 		.4byte	.LASF127
 2306 0b20 01       		.byte	0x1
 2307 0b21 4A01     		.2byte	0x14a
 2308 0b23 10010000 		.4byte	0x110
 2309 0b27 00000000 		.4byte	.LFB235
 2310 0b2b 44000000 		.4byte	.LFE235-.LFB235
 2311 0b2f 01       		.uleb128 0x1
 2312 0b30 9C       		.byte	0x9c
 2313 0b31 C30B0000 		.4byte	0xbc3
 2314 0b35 36       		.uleb128 0x36
 2315 0b36 1E040000 		.4byte	.LASF124
 2316 0b3a 01       		.byte	0x1
 2317 0b3b 4A01     		.2byte	0x14a
 2318 0b3d E4000000 		.4byte	0xe4
 2319 0b41 60010000 		.4byte	.LLST15
 2320 0b45 36       		.uleb128 0x36
 2321 0b46 96030000 		.4byte	.LASF125
 2322 0b4a 01       		.byte	0x1
 2323 0b4b 4A01     		.2byte	0x14a
 2324 0b4d 31010000 		.4byte	0x131
 2325 0b51 9A010000 		.4byte	.LLST16
 2326 0b55 37       		.uleb128 0x37
 2327 0b56 08000000 		.4byte	.LBB176
 2328 0b5a 1E000000 		.4byte	.LBE176-.LBB176
 2329 0b5e B90B0000 		.4byte	0xbb9
 2330 0b62 38       		.uleb128 0x38
 2331 0b63 767400   		.ascii	"vt\000"
 2332 0b66 01       		.byte	0x1
 2333 0b67 4F01     		.2byte	0x14f
ARM GAS  /var/folders/m4/4md61f0s1_g0rzfghffqnxvr0000gn/T//ccYSFrIo.s 			page 42


 2334 0b69 36030000 		.4byte	0x336
 2335 0b6d 02       		.uleb128 0x2
 2336 0b6e 91       		.byte	0x91
 2337 0b6f 5C       		.sleb128 -36
 2338 0b70 39       		.uleb128 0x39
 2339 0b71 16000000 		.4byte	.LVL28
 2340 0b75 570E0000 		.4byte	0xe57
 2341 0b79 940B0000 		.4byte	0xb94
 2342 0b7d 3A       		.uleb128 0x3a
 2343 0b7e 01       		.uleb128 0x1
 2344 0b7f 50       		.byte	0x50
 2345 0b80 02       		.uleb128 0x2
 2346 0b81 91       		.byte	0x91
 2347 0b82 5C       		.sleb128 -36
 2348 0b83 3A       		.uleb128 0x3a
 2349 0b84 01       		.uleb128 0x1
 2350 0b85 51       		.byte	0x51
 2351 0b86 03       		.uleb128 0x3
 2352 0b87 F3       		.byte	0xf3
 2353 0b88 01       		.uleb128 0x1
 2354 0b89 51       		.byte	0x51
 2355 0b8a 3A       		.uleb128 0x3a
 2356 0b8b 01       		.uleb128 0x1
 2357 0b8c 52       		.byte	0x52
 2358 0b8d 05       		.uleb128 0x5
 2359 0b8e 03       		.byte	0x3
 2360 0b8f 00000000 		.4byte	wakeup
 2361 0b93 00       		.byte	0
 2362 0b94 39       		.uleb128 0x39
 2363 0b95 1C000000 		.4byte	.LVL29
 2364 0b99 B10A0000 		.4byte	0xab1
 2365 0b9d A80B0000 		.4byte	0xba8
 2366 0ba1 3A       		.uleb128 0x3a
 2367 0ba2 01       		.uleb128 0x1
 2368 0ba3 50       		.byte	0x50
 2369 0ba4 02       		.uleb128 0x2
 2370 0ba5 75       		.byte	0x75
 2371 0ba6 00       		.sleb128 0
 2372 0ba7 00       		.byte	0
 2373 0ba8 3B       		.uleb128 0x3b
 2374 0ba9 26000000 		.4byte	.LVL31
 2375 0bad 620E0000 		.4byte	0xe62
 2376 0bb1 3A       		.uleb128 0x3a
 2377 0bb2 01       		.uleb128 0x1
 2378 0bb3 50       		.byte	0x50
 2379 0bb4 02       		.uleb128 0x2
 2380 0bb5 91       		.byte	0x91
 2381 0bb6 5C       		.sleb128 -36
 2382 0bb7 00       		.byte	0
 2383 0bb8 00       		.byte	0
 2384 0bb9 3C       		.uleb128 0x3c
 2385 0bba 34000000 		.4byte	.LVL33
 2386 0bbe B10A0000 		.4byte	0xab1
 2387 0bc2 00       		.byte	0
 2388 0bc3 3D       		.uleb128 0x3d
 2389 0bc4 8A020000 		.4byte	.LASF126
 2390 0bc8 01       		.byte	0x1
ARM GAS  /var/folders/m4/4md61f0s1_g0rzfghffqnxvr0000gn/T//ccYSFrIo.s 			page 43


 2391 0bc9 6F01     		.2byte	0x16f
 2392 0bcb 00000000 		.4byte	.LFB236
 2393 0bcf 58000000 		.4byte	.LFE236-.LFB236
 2394 0bd3 01       		.uleb128 0x1
 2395 0bd4 9C       		.byte	0x9c
 2396 0bd5 8A0C0000 		.4byte	0xc8a
 2397 0bd9 3E       		.uleb128 0x3e
 2398 0bda 6E747000 		.ascii	"ntp\000"
 2399 0bde 01       		.byte	0x1
 2400 0bdf 6F01     		.2byte	0x16f
 2401 0be1 57020000 		.4byte	0x257
 2402 0be5 D4010000 		.4byte	.LLST17
 2403 0be9 3E       		.uleb128 0x3e
 2404 0bea 6D736700 		.ascii	"msg\000"
 2405 0bee 01       		.byte	0x1
 2406 0bef 6F01     		.2byte	0x16f
 2407 0bf1 10010000 		.4byte	0x110
 2408 0bf5 22020000 		.4byte	.LLST18
 2409 0bf9 3F       		.uleb128 0x3f
 2410 0bfa 94040000 		.4byte	.LASF119
 2411 0bfe 9A0C0000 		.4byte	0xc9a
 2412 0c02 29       		.uleb128 0x29
 2413 0c03 F2070000 		.4byte	0x7f2
 2414 0c07 10000000 		.4byte	.LBB177
 2415 0c0b A0000000 		.4byte	.Ldebug_ranges0+0xa0
 2416 0c0f 01       		.byte	0x1
 2417 0c10 8001     		.2byte	0x180
 2418 0c12 340C0000 		.4byte	0xc34
 2419 0c16 28       		.uleb128 0x28
 2420 0c17 02080000 		.4byte	0x802
 2421 0c1b 69020000 		.4byte	.LLST19
 2422 0c1f 2A       		.uleb128 0x2a
 2423 0c20 A0000000 		.4byte	.Ldebug_ranges0+0xa0
 2424 0c24 2B       		.uleb128 0x2b
 2425 0c25 0C080000 		.4byte	0x80c
 2426 0c29 88020000 		.4byte	.LLST20
 2427 0c2d 2C       		.uleb128 0x2c
 2428 0c2e 16080000 		.4byte	0x816
 2429 0c32 00       		.byte	0
 2430 0c33 00       		.byte	0
 2431 0c34 2A       		.uleb128 0x2a
 2432 0c35 B8000000 		.4byte	.Ldebug_ranges0+0xb8
 2433 0c39 21       		.uleb128 0x21
 2434 0c3a 6F747000 		.ascii	"otp\000"
 2435 0c3e 01       		.byte	0x1
 2436 0c3f 8301     		.2byte	0x183
 2437 0c41 57020000 		.4byte	0x257
 2438 0c45 29       		.uleb128 0x29
 2439 0c46 F2070000 		.4byte	0x7f2
 2440 0c4a 2E000000 		.4byte	.LBB182
 2441 0c4e D0000000 		.4byte	.Ldebug_ranges0+0xd0
 2442 0c52 01       		.byte	0x1
 2443 0c53 8301     		.2byte	0x183
 2444 0c55 770C0000 		.4byte	0xc77
 2445 0c59 28       		.uleb128 0x28
 2446 0c5a 02080000 		.4byte	0x802
 2447 0c5e 9B020000 		.4byte	.LLST21
ARM GAS  /var/folders/m4/4md61f0s1_g0rzfghffqnxvr0000gn/T//ccYSFrIo.s 			page 44


 2448 0c62 2A       		.uleb128 0x2a
 2449 0c63 D0000000 		.4byte	.Ldebug_ranges0+0xd0
 2450 0c67 2B       		.uleb128 0x2b
 2451 0c68 0C080000 		.4byte	0x80c
 2452 0c6c AE020000 		.4byte	.LLST22
 2453 0c70 2C       		.uleb128 0x2c
 2454 0c71 16080000 		.4byte	0x816
 2455 0c75 00       		.byte	0
 2456 0c76 00       		.byte	0
 2457 0c77 40       		.uleb128 0x40
 2458 0c78 54000000 		.4byte	.LVL48
 2459 0c7c 4B0E0000 		.4byte	0xe4b
 2460 0c80 3A       		.uleb128 0x3a
 2461 0c81 01       		.uleb128 0x1
 2462 0c82 50       		.byte	0x50
 2463 0c83 03       		.uleb128 0x3
 2464 0c84 F3       		.byte	0xf3
 2465 0c85 01       		.uleb128 0x1
 2466 0c86 50       		.byte	0x50
 2467 0c87 00       		.byte	0
 2468 0c88 00       		.byte	0
 2469 0c89 00       		.byte	0
 2470 0c8a 15       		.uleb128 0x15
 2471 0c8b DB060000 		.4byte	0x6db
 2472 0c8f 9A0C0000 		.4byte	0xc9a
 2473 0c93 16       		.uleb128 0x16
 2474 0c94 6A040000 		.4byte	0x46a
 2475 0c98 0C       		.byte	0xc
 2476 0c99 00       		.byte	0
 2477 0c9a 13       		.uleb128 0x13
 2478 0c9b 8A0C0000 		.4byte	0xc8a
 2479 0c9f 35       		.uleb128 0x35
 2480 0ca0 85010000 		.4byte	.LASF128
 2481 0ca4 01       		.byte	0x1
 2482 0ca5 AC01     		.2byte	0x1ac
 2483 0ca7 7F070000 		.4byte	0x77f
 2484 0cab 00000000 		.4byte	.LFB238
 2485 0caf 28000000 		.4byte	.LFE238-.LFB238
 2486 0cb3 01       		.uleb128 0x1
 2487 0cb4 9C       		.byte	0x9c
 2488 0cb5 D60C0000 		.4byte	0xcd6
 2489 0cb9 38       		.uleb128 0x38
 2490 0cba 703100   		.ascii	"p1\000"
 2491 0cbd 01       		.byte	0x1
 2492 0cbe AD01     		.2byte	0x1ad
 2493 0cc0 05010000 		.4byte	0x105
 2494 0cc4 01       		.uleb128 0x1
 2495 0cc5 53       		.byte	0x53
 2496 0cc6 41       		.uleb128 0x41
 2497 0cc7 703200   		.ascii	"p2\000"
 2498 0cca 01       		.byte	0x1
 2499 0ccb AE01     		.2byte	0x1ae
 2500 0ccd 05010000 		.4byte	0x105
 2501 0cd1 D1020000 		.4byte	.LLST23
 2502 0cd5 00       		.byte	0
 2503 0cd6 3D       		.uleb128 0x3d
 2504 0cd7 58030000 		.4byte	.LASF129
ARM GAS  /var/folders/m4/4md61f0s1_g0rzfghffqnxvr0000gn/T//ccYSFrIo.s 			page 45


 2505 0cdb 01       		.byte	0x1
 2506 0cdc C701     		.2byte	0x1c7
 2507 0cde 00000000 		.4byte	.LFB239
 2508 0ce2 40000000 		.4byte	.LFE239-.LFB239
 2509 0ce6 01       		.uleb128 0x1
 2510 0ce7 9C       		.byte	0x9c
 2511 0ce8 650D0000 		.4byte	0xd65
 2512 0cec 41       		.uleb128 0x41
 2513 0ced 6F747000 		.ascii	"otp\000"
 2514 0cf1 01       		.byte	0x1
 2515 0cf2 C801     		.2byte	0x1c8
 2516 0cf4 57020000 		.4byte	0x257
 2517 0cf8 07030000 		.4byte	.LLST24
 2518 0cfc 29       		.uleb128 0x29
 2519 0cfd 5C080000 		.4byte	0x85c
 2520 0d01 02000000 		.4byte	.LBB187
 2521 0d05 E8000000 		.4byte	.Ldebug_ranges0+0xe8
 2522 0d09 01       		.byte	0x1
 2523 0d0a CC01     		.2byte	0x1cc
 2524 0d0c 290D0000 		.4byte	0xd29
 2525 0d10 28       		.uleb128 0x28
 2526 0d11 6D080000 		.4byte	0x86d
 2527 0d15 25030000 		.4byte	.LLST25
 2528 0d19 2A       		.uleb128 0x2a
 2529 0d1a E8000000 		.4byte	.Ldebug_ranges0+0xe8
 2530 0d1e 2B       		.uleb128 0x2b
 2531 0d1f 79080000 		.4byte	0x879
 2532 0d23 3D030000 		.4byte	.LLST26
 2533 0d27 00       		.byte	0
 2534 0d28 00       		.byte	0
 2535 0d29 29       		.uleb128 0x29
 2536 0d2a F2070000 		.4byte	0x7f2
 2537 0d2e 12000000 		.4byte	.LBB192
 2538 0d32 08010000 		.4byte	.Ldebug_ranges0+0x108
 2539 0d36 01       		.byte	0x1
 2540 0d37 D601     		.2byte	0x1d6
 2541 0d39 5B0D0000 		.4byte	0xd5b
 2542 0d3d 28       		.uleb128 0x28
 2543 0d3e 02080000 		.4byte	0x802
 2544 0d42 50030000 		.4byte	.LLST27
 2545 0d46 2A       		.uleb128 0x2a
 2546 0d47 08010000 		.4byte	.Ldebug_ranges0+0x108
 2547 0d4b 2B       		.uleb128 0x2b
 2548 0d4c 0C080000 		.4byte	0x80c
 2549 0d50 63030000 		.4byte	.LLST28
 2550 0d54 2C       		.uleb128 0x2c
 2551 0d55 16080000 		.4byte	0x816
 2552 0d59 00       		.byte	0
 2553 0d5a 00       		.byte	0
 2554 0d5b 34       		.uleb128 0x34
 2555 0d5c 3A000000 		.4byte	.LVL61
 2556 0d60 4B0E0000 		.4byte	0xe4b
 2557 0d64 00       		.byte	0
 2558 0d65 3D       		.uleb128 0x3d
 2559 0d66 24000000 		.4byte	.LASF130
 2560 0d6a 01       		.byte	0x1
 2561 0d6b E301     		.2byte	0x1e3
ARM GAS  /var/folders/m4/4md61f0s1_g0rzfghffqnxvr0000gn/T//ccYSFrIo.s 			page 46


 2562 0d6d 00000000 		.4byte	.LFB240
 2563 0d71 3C000000 		.4byte	.LFE240-.LFB240
 2564 0d75 01       		.uleb128 0x1
 2565 0d76 9C       		.byte	0x9c
 2566 0d77 D10D0000 		.4byte	0xdd1
 2567 0d7b 41       		.uleb128 0x41
 2568 0d7c 6F747000 		.ascii	"otp\000"
 2569 0d80 01       		.byte	0x1
 2570 0d81 E401     		.2byte	0x1e4
 2571 0d83 57020000 		.4byte	0x257
 2572 0d87 7B030000 		.4byte	.LLST29
 2573 0d8b 41       		.uleb128 0x41
 2574 0d8c 637000   		.ascii	"cp\000"
 2575 0d8f 01       		.byte	0x1
 2576 0d90 E401     		.2byte	0x1e4
 2577 0d92 57020000 		.4byte	0x257
 2578 0d96 99030000 		.4byte	.LLST30
 2579 0d9a 29       		.uleb128 0x29
 2580 0d9b 5C080000 		.4byte	0x85c
 2581 0d9f 02000000 		.4byte	.LBB199
 2582 0da3 28010000 		.4byte	.Ldebug_ranges0+0x128
 2583 0da7 01       		.byte	0x1
 2584 0da8 E801     		.2byte	0x1e8
 2585 0daa C70D0000 		.4byte	0xdc7
 2586 0dae 28       		.uleb128 0x28
 2587 0daf 6D080000 		.4byte	0x86d
 2588 0db3 B1030000 		.4byte	.LLST31
 2589 0db7 2A       		.uleb128 0x2a
 2590 0db8 28010000 		.4byte	.Ldebug_ranges0+0x128
 2591 0dbc 2B       		.uleb128 0x2b
 2592 0dbd 79080000 		.4byte	0x879
 2593 0dc1 C9030000 		.4byte	.LLST32
 2594 0dc5 00       		.byte	0
 2595 0dc6 00       		.byte	0
 2596 0dc7 34       		.uleb128 0x34
 2597 0dc8 36000000 		.4byte	.LVL67
 2598 0dcc 4B0E0000 		.4byte	0xe4b
 2599 0dd0 00       		.byte	0
 2600 0dd1 3D       		.uleb128 0x3d
 2601 0dd2 AF010000 		.4byte	.LASF131
 2602 0dd6 01       		.byte	0x1
 2603 0dd7 9601     		.2byte	0x196
 2604 0dd9 00000000 		.4byte	.LFB237
 2605 0ddd 18000000 		.4byte	.LFE237-.LFB237
 2606 0de1 01       		.uleb128 0x1
 2607 0de2 9C       		.byte	0x9c
 2608 0de3 010E0000 		.4byte	0xe01
 2609 0de7 42       		.uleb128 0x42
 2610 0de8 85080000 		.4byte	0x885
 2611 0dec 00000000 		.4byte	.LBB205
 2612 0df0 06000000 		.4byte	.LBE205-.LBB205
 2613 0df4 01       		.byte	0x1
 2614 0df5 9A01     		.2byte	0x19a
 2615 0df7 34       		.uleb128 0x34
 2616 0df8 14000000 		.4byte	.LVL68
 2617 0dfc 650D0000 		.4byte	0xd65
 2618 0e00 00       		.byte	0
ARM GAS  /var/folders/m4/4md61f0s1_g0rzfghffqnxvr0000gn/T//ccYSFrIo.s 			page 47


 2619 0e01 3D       		.uleb128 0x3d
 2620 0e02 D1010000 		.4byte	.LASF132
 2621 0e06 01       		.byte	0x1
 2622 0e07 0802     		.2byte	0x208
 2623 0e09 00000000 		.4byte	.LFB241
 2624 0e0d 14000000 		.4byte	.LFE241-.LFB241
 2625 0e11 01       		.uleb128 0x1
 2626 0e12 9C       		.byte	0x9c
 2627 0e13 2A0E0000 		.4byte	0xe2a
 2628 0e17 34       		.uleb128 0x34
 2629 0e18 0C000000 		.4byte	.LVL69
 2630 0e1c 650D0000 		.4byte	0xd65
 2631 0e20 34       		.uleb128 0x34
 2632 0e21 10000000 		.4byte	.LVL70
 2633 0e25 D60C0000 		.4byte	0xcd6
 2634 0e29 00       		.byte	0
 2635 0e2a 43       		.uleb128 0x43
 2636 0e2b D9000000 		.4byte	.LASF133
 2637 0e2f 10       		.byte	0x10
 2638 0e30 FA06     		.2byte	0x6fa
 2639 0e32 360E0000 		.4byte	0xe36
 2640 0e36 14       		.uleb128 0x14
 2641 0e37 AD000000 		.4byte	0xad
 2642 0e3b 44       		.uleb128 0x44
 2643 0e3c 636800   		.ascii	"ch\000"
 2644 0e3f 01       		.byte	0x1
 2645 0e40 2A       		.byte	0x2a
 2646 0e41 03040000 		.4byte	0x403
 2647 0e45 05       		.uleb128 0x5
 2648 0e46 03       		.byte	0x3
 2649 0e47 00000000 		.4byte	ch
 2650 0e4b 45       		.uleb128 0x45
 2651 0e4c 38020000 		.4byte	.LASF134
 2652 0e50 38020000 		.4byte	.LASF134
 2653 0e54 0B       		.byte	0xb
 2654 0e55 7001     		.2byte	0x170
 2655 0e57 46       		.uleb128 0x46
 2656 0e58 EF020000 		.4byte	.LASF135
 2657 0e5c EF020000 		.4byte	.LASF135
 2658 0e60 0E       		.byte	0xe
 2659 0e61 BC       		.byte	0xbc
 2660 0e62 46       		.uleb128 0x46
 2661 0e63 98000000 		.4byte	.LASF136
 2662 0e67 98000000 		.4byte	.LASF136
 2663 0e6b 0E       		.byte	0xe
 2664 0e6c BE       		.byte	0xbe
 2665 0e6d 00       		.byte	0
 2666              		.section	.debug_abbrev,"",%progbits
 2667              	.Ldebug_abbrev0:
 2668 0000 01       		.uleb128 0x1
 2669 0001 11       		.uleb128 0x11
 2670 0002 01       		.byte	0x1
 2671 0003 25       		.uleb128 0x25
 2672 0004 0E       		.uleb128 0xe
 2673 0005 13       		.uleb128 0x13
 2674 0006 0B       		.uleb128 0xb
 2675 0007 03       		.uleb128 0x3
ARM GAS  /var/folders/m4/4md61f0s1_g0rzfghffqnxvr0000gn/T//ccYSFrIo.s 			page 48


 2676 0008 0E       		.uleb128 0xe
 2677 0009 1B       		.uleb128 0x1b
 2678 000a 0E       		.uleb128 0xe
 2679 000b 55       		.uleb128 0x55
 2680 000c 17       		.uleb128 0x17
 2681 000d 11       		.uleb128 0x11
 2682 000e 01       		.uleb128 0x1
 2683 000f 10       		.uleb128 0x10
 2684 0010 17       		.uleb128 0x17
 2685 0011 00       		.byte	0
 2686 0012 00       		.byte	0
 2687 0013 02       		.uleb128 0x2
 2688 0014 24       		.uleb128 0x24
 2689 0015 00       		.byte	0
 2690 0016 0B       		.uleb128 0xb
 2691 0017 0B       		.uleb128 0xb
 2692 0018 3E       		.uleb128 0x3e
 2693 0019 0B       		.uleb128 0xb
 2694 001a 03       		.uleb128 0x3
 2695 001b 08       		.uleb128 0x8
 2696 001c 00       		.byte	0
 2697 001d 00       		.byte	0
 2698 001e 03       		.uleb128 0x3
 2699 001f 16       		.uleb128 0x16
 2700 0020 00       		.byte	0
 2701 0021 03       		.uleb128 0x3
 2702 0022 0E       		.uleb128 0xe
 2703 0023 3A       		.uleb128 0x3a
 2704 0024 0B       		.uleb128 0xb
 2705 0025 3B       		.uleb128 0x3b
 2706 0026 0B       		.uleb128 0xb
 2707 0027 49       		.uleb128 0x49
 2708 0028 13       		.uleb128 0x13
 2709 0029 00       		.byte	0
 2710 002a 00       		.byte	0
 2711 002b 04       		.uleb128 0x4
 2712 002c 24       		.uleb128 0x24
 2713 002d 00       		.byte	0
 2714 002e 0B       		.uleb128 0xb
 2715 002f 0B       		.uleb128 0xb
 2716 0030 3E       		.uleb128 0x3e
 2717 0031 0B       		.uleb128 0xb
 2718 0032 03       		.uleb128 0x3
 2719 0033 0E       		.uleb128 0xe
 2720 0034 00       		.byte	0
 2721 0035 00       		.byte	0
 2722 0036 05       		.uleb128 0x5
 2723 0037 13       		.uleb128 0x13
 2724 0038 01       		.byte	0x1
 2725 0039 03       		.uleb128 0x3
 2726 003a 0E       		.uleb128 0xe
 2727 003b 0B       		.uleb128 0xb
 2728 003c 0B       		.uleb128 0xb
 2729 003d 3A       		.uleb128 0x3a
 2730 003e 0B       		.uleb128 0xb
 2731 003f 3B       		.uleb128 0x3b
 2732 0040 0B       		.uleb128 0xb
ARM GAS  /var/folders/m4/4md61f0s1_g0rzfghffqnxvr0000gn/T//ccYSFrIo.s 			page 49


 2733 0041 01       		.uleb128 0x1
 2734 0042 13       		.uleb128 0x13
 2735 0043 00       		.byte	0
 2736 0044 00       		.byte	0
 2737 0045 06       		.uleb128 0x6
 2738 0046 0D       		.uleb128 0xd
 2739 0047 00       		.byte	0
 2740 0048 03       		.uleb128 0x3
 2741 0049 0E       		.uleb128 0xe
 2742 004a 3A       		.uleb128 0x3a
 2743 004b 0B       		.uleb128 0xb
 2744 004c 3B       		.uleb128 0x3b
 2745 004d 0B       		.uleb128 0xb
 2746 004e 49       		.uleb128 0x49
 2747 004f 13       		.uleb128 0x13
 2748 0050 38       		.uleb128 0x38
 2749 0051 0B       		.uleb128 0xb
 2750 0052 00       		.byte	0
 2751 0053 00       		.byte	0
 2752 0054 07       		.uleb128 0x7
 2753 0055 0D       		.uleb128 0xd
 2754 0056 00       		.byte	0
 2755 0057 03       		.uleb128 0x3
 2756 0058 08       		.uleb128 0x8
 2757 0059 3A       		.uleb128 0x3a
 2758 005a 0B       		.uleb128 0xb
 2759 005b 3B       		.uleb128 0x3b
 2760 005c 05       		.uleb128 0x5
 2761 005d 49       		.uleb128 0x49
 2762 005e 13       		.uleb128 0x13
 2763 005f 38       		.uleb128 0x38
 2764 0060 0B       		.uleb128 0xb
 2765 0061 00       		.byte	0
 2766 0062 00       		.byte	0
 2767 0063 08       		.uleb128 0x8
 2768 0064 0D       		.uleb128 0xd
 2769 0065 00       		.byte	0
 2770 0066 03       		.uleb128 0x3
 2771 0067 0E       		.uleb128 0xe
 2772 0068 3A       		.uleb128 0x3a
 2773 0069 0B       		.uleb128 0xb
 2774 006a 3B       		.uleb128 0x3b
 2775 006b 05       		.uleb128 0x5
 2776 006c 49       		.uleb128 0x49
 2777 006d 13       		.uleb128 0x13
 2778 006e 38       		.uleb128 0x38
 2779 006f 0B       		.uleb128 0xb
 2780 0070 00       		.byte	0
 2781 0071 00       		.byte	0
 2782 0072 09       		.uleb128 0x9
 2783 0073 0F       		.uleb128 0xf
 2784 0074 00       		.byte	0
 2785 0075 0B       		.uleb128 0xb
 2786 0076 0B       		.uleb128 0xb
 2787 0077 49       		.uleb128 0x49
 2788 0078 13       		.uleb128 0x13
 2789 0079 00       		.byte	0
ARM GAS  /var/folders/m4/4md61f0s1_g0rzfghffqnxvr0000gn/T//ccYSFrIo.s 			page 50


 2790 007a 00       		.byte	0
 2791 007b 0A       		.uleb128 0xa
 2792 007c 13       		.uleb128 0x13
 2793 007d 01       		.byte	0x1
 2794 007e 03       		.uleb128 0x3
 2795 007f 0E       		.uleb128 0xe
 2796 0080 0B       		.uleb128 0xb
 2797 0081 0B       		.uleb128 0xb
 2798 0082 3A       		.uleb128 0x3a
 2799 0083 0B       		.uleb128 0xb
 2800 0084 3B       		.uleb128 0x3b
 2801 0085 05       		.uleb128 0x5
 2802 0086 01       		.uleb128 0x1
 2803 0087 13       		.uleb128 0x13
 2804 0088 00       		.byte	0
 2805 0089 00       		.byte	0
 2806 008a 0B       		.uleb128 0xb
 2807 008b 15       		.uleb128 0x15
 2808 008c 01       		.byte	0x1
 2809 008d 27       		.uleb128 0x27
 2810 008e 19       		.uleb128 0x19
 2811 008f 01       		.uleb128 0x1
 2812 0090 13       		.uleb128 0x13
 2813 0091 00       		.byte	0
 2814 0092 00       		.byte	0
 2815 0093 0C       		.uleb128 0xc
 2816 0094 05       		.uleb128 0x5
 2817 0095 00       		.byte	0
 2818 0096 49       		.uleb128 0x49
 2819 0097 13       		.uleb128 0x13
 2820 0098 00       		.byte	0
 2821 0099 00       		.byte	0
 2822 009a 0D       		.uleb128 0xd
 2823 009b 0F       		.uleb128 0xf
 2824 009c 00       		.byte	0
 2825 009d 0B       		.uleb128 0xb
 2826 009e 0B       		.uleb128 0xb
 2827 009f 00       		.byte	0
 2828 00a0 00       		.byte	0
 2829 00a1 0E       		.uleb128 0xe
 2830 00a2 13       		.uleb128 0x13
 2831 00a3 01       		.byte	0x1
 2832 00a4 03       		.uleb128 0x3
 2833 00a5 0E       		.uleb128 0xe
 2834 00a6 0B       		.uleb128 0xb
 2835 00a7 05       		.uleb128 0x5
 2836 00a8 3A       		.uleb128 0x3a
 2837 00a9 0B       		.uleb128 0xb
 2838 00aa 3B       		.uleb128 0x3b
 2839 00ab 05       		.uleb128 0x5
 2840 00ac 01       		.uleb128 0x1
 2841 00ad 13       		.uleb128 0x13
 2842 00ae 00       		.byte	0
 2843 00af 00       		.byte	0
 2844 00b0 0F       		.uleb128 0xf
 2845 00b1 0D       		.uleb128 0xd
 2846 00b2 00       		.byte	0
ARM GAS  /var/folders/m4/4md61f0s1_g0rzfghffqnxvr0000gn/T//ccYSFrIo.s 			page 51


 2847 00b3 03       		.uleb128 0x3
 2848 00b4 08       		.uleb128 0x8
 2849 00b5 3A       		.uleb128 0x3a
 2850 00b6 0B       		.uleb128 0xb
 2851 00b7 3B       		.uleb128 0x3b
 2852 00b8 0B       		.uleb128 0xb
 2853 00b9 49       		.uleb128 0x49
 2854 00ba 13       		.uleb128 0x13
 2855 00bb 38       		.uleb128 0x38
 2856 00bc 0B       		.uleb128 0xb
 2857 00bd 00       		.byte	0
 2858 00be 00       		.byte	0
 2859 00bf 10       		.uleb128 0x10
 2860 00c0 13       		.uleb128 0x13
 2861 00c1 01       		.byte	0x1
 2862 00c2 0B       		.uleb128 0xb
 2863 00c3 0B       		.uleb128 0xb
 2864 00c4 3A       		.uleb128 0x3a
 2865 00c5 0B       		.uleb128 0xb
 2866 00c6 3B       		.uleb128 0x3b
 2867 00c7 0B       		.uleb128 0xb
 2868 00c8 01       		.uleb128 0x1
 2869 00c9 13       		.uleb128 0x13
 2870 00ca 00       		.byte	0
 2871 00cb 00       		.byte	0
 2872 00cc 11       		.uleb128 0x11
 2873 00cd 17       		.uleb128 0x17
 2874 00ce 01       		.byte	0x1
 2875 00cf 0B       		.uleb128 0xb
 2876 00d0 0B       		.uleb128 0xb
 2877 00d1 3A       		.uleb128 0x3a
 2878 00d2 0B       		.uleb128 0xb
 2879 00d3 3B       		.uleb128 0x3b
 2880 00d4 0B       		.uleb128 0xb
 2881 00d5 01       		.uleb128 0x1
 2882 00d6 13       		.uleb128 0x13
 2883 00d7 00       		.byte	0
 2884 00d8 00       		.byte	0
 2885 00d9 12       		.uleb128 0x12
 2886 00da 0D       		.uleb128 0xd
 2887 00db 00       		.byte	0
 2888 00dc 03       		.uleb128 0x3
 2889 00dd 0E       		.uleb128 0xe
 2890 00de 3A       		.uleb128 0x3a
 2891 00df 0B       		.uleb128 0xb
 2892 00e0 3B       		.uleb128 0x3b
 2893 00e1 05       		.uleb128 0x5
 2894 00e2 49       		.uleb128 0x49
 2895 00e3 13       		.uleb128 0x13
 2896 00e4 00       		.byte	0
 2897 00e5 00       		.byte	0
 2898 00e6 13       		.uleb128 0x13
 2899 00e7 26       		.uleb128 0x26
 2900 00e8 00       		.byte	0
 2901 00e9 49       		.uleb128 0x49
 2902 00ea 13       		.uleb128 0x13
 2903 00eb 00       		.byte	0
ARM GAS  /var/folders/m4/4md61f0s1_g0rzfghffqnxvr0000gn/T//ccYSFrIo.s 			page 52


 2904 00ec 00       		.byte	0
 2905 00ed 14       		.uleb128 0x14
 2906 00ee 35       		.uleb128 0x35
 2907 00ef 00       		.byte	0
 2908 00f0 49       		.uleb128 0x49
 2909 00f1 13       		.uleb128 0x13
 2910 00f2 00       		.byte	0
 2911 00f3 00       		.byte	0
 2912 00f4 15       		.uleb128 0x15
 2913 00f5 01       		.uleb128 0x1
 2914 00f6 01       		.byte	0x1
 2915 00f7 49       		.uleb128 0x49
 2916 00f8 13       		.uleb128 0x13
 2917 00f9 01       		.uleb128 0x1
 2918 00fa 13       		.uleb128 0x13
 2919 00fb 00       		.byte	0
 2920 00fc 00       		.byte	0
 2921 00fd 16       		.uleb128 0x16
 2922 00fe 21       		.uleb128 0x21
 2923 00ff 00       		.byte	0
 2924 0100 49       		.uleb128 0x49
 2925 0101 13       		.uleb128 0x13
 2926 0102 2F       		.uleb128 0x2f
 2927 0103 0B       		.uleb128 0xb
 2928 0104 00       		.byte	0
 2929 0105 00       		.byte	0
 2930 0106 17       		.uleb128 0x17
 2931 0107 2E       		.uleb128 0x2e
 2932 0108 01       		.byte	0x1
 2933 0109 03       		.uleb128 0x3
 2934 010a 0E       		.uleb128 0xe
 2935 010b 3A       		.uleb128 0x3a
 2936 010c 0B       		.uleb128 0xb
 2937 010d 3B       		.uleb128 0x3b
 2938 010e 05       		.uleb128 0x5
 2939 010f 27       		.uleb128 0x27
 2940 0110 19       		.uleb128 0x19
 2941 0111 20       		.uleb128 0x20
 2942 0112 0B       		.uleb128 0xb
 2943 0113 01       		.uleb128 0x1
 2944 0114 13       		.uleb128 0x13
 2945 0115 00       		.byte	0
 2946 0116 00       		.byte	0
 2947 0117 18       		.uleb128 0x18
 2948 0118 05       		.uleb128 0x5
 2949 0119 00       		.byte	0
 2950 011a 03       		.uleb128 0x3
 2951 011b 0E       		.uleb128 0xe
 2952 011c 3A       		.uleb128 0x3a
 2953 011d 0B       		.uleb128 0xb
 2954 011e 3B       		.uleb128 0x3b
 2955 011f 05       		.uleb128 0x5
 2956 0120 49       		.uleb128 0x49
 2957 0121 13       		.uleb128 0x13
 2958 0122 00       		.byte	0
 2959 0123 00       		.byte	0
 2960 0124 19       		.uleb128 0x19
ARM GAS  /var/folders/m4/4md61f0s1_g0rzfghffqnxvr0000gn/T//ccYSFrIo.s 			page 53


 2961 0125 2E       		.uleb128 0x2e
 2962 0126 00       		.byte	0
 2963 0127 03       		.uleb128 0x3
 2964 0128 0E       		.uleb128 0xe
 2965 0129 3A       		.uleb128 0x3a
 2966 012a 0B       		.uleb128 0xb
 2967 012b 3B       		.uleb128 0x3b
 2968 012c 05       		.uleb128 0x5
 2969 012d 27       		.uleb128 0x27
 2970 012e 19       		.uleb128 0x19
 2971 012f 20       		.uleb128 0x20
 2972 0130 0B       		.uleb128 0xb
 2973 0131 00       		.byte	0
 2974 0132 00       		.byte	0
 2975 0133 1A       		.uleb128 0x1a
 2976 0134 2E       		.uleb128 0x2e
 2977 0135 01       		.byte	0x1
 2978 0136 03       		.uleb128 0x3
 2979 0137 0E       		.uleb128 0xe
 2980 0138 3A       		.uleb128 0x3a
 2981 0139 0B       		.uleb128 0xb
 2982 013a 3B       		.uleb128 0x3b
 2983 013b 05       		.uleb128 0x5
 2984 013c 27       		.uleb128 0x27
 2985 013d 19       		.uleb128 0x19
 2986 013e 49       		.uleb128 0x49
 2987 013f 13       		.uleb128 0x13
 2988 0140 20       		.uleb128 0x20
 2989 0141 0B       		.uleb128 0xb
 2990 0142 01       		.uleb128 0x1
 2991 0143 13       		.uleb128 0x13
 2992 0144 00       		.byte	0
 2993 0145 00       		.byte	0
 2994 0146 1B       		.uleb128 0x1b
 2995 0147 05       		.uleb128 0x5
 2996 0148 00       		.byte	0
 2997 0149 03       		.uleb128 0x3
 2998 014a 08       		.uleb128 0x8
 2999 014b 3A       		.uleb128 0x3a
 3000 014c 0B       		.uleb128 0xb
 3001 014d 3B       		.uleb128 0x3b
 3002 014e 05       		.uleb128 0x5
 3003 014f 49       		.uleb128 0x49
 3004 0150 13       		.uleb128 0x13
 3005 0151 00       		.byte	0
 3006 0152 00       		.byte	0
 3007 0153 1C       		.uleb128 0x1c
 3008 0154 2E       		.uleb128 0x2e
 3009 0155 01       		.byte	0x1
 3010 0156 03       		.uleb128 0x3
 3011 0157 0E       		.uleb128 0xe
 3012 0158 3A       		.uleb128 0x3a
 3013 0159 0B       		.uleb128 0xb
 3014 015a 3B       		.uleb128 0x3b
 3015 015b 0B       		.uleb128 0xb
 3016 015c 27       		.uleb128 0x27
 3017 015d 19       		.uleb128 0x19
ARM GAS  /var/folders/m4/4md61f0s1_g0rzfghffqnxvr0000gn/T//ccYSFrIo.s 			page 54


 3018 015e 20       		.uleb128 0x20
 3019 015f 0B       		.uleb128 0xb
 3020 0160 01       		.uleb128 0x1
 3021 0161 13       		.uleb128 0x13
 3022 0162 00       		.byte	0
 3023 0163 00       		.byte	0
 3024 0164 1D       		.uleb128 0x1d
 3025 0165 05       		.uleb128 0x5
 3026 0166 00       		.byte	0
 3027 0167 03       		.uleb128 0x3
 3028 0168 08       		.uleb128 0x8
 3029 0169 3A       		.uleb128 0x3a
 3030 016a 0B       		.uleb128 0xb
 3031 016b 3B       		.uleb128 0x3b
 3032 016c 0B       		.uleb128 0xb
 3033 016d 49       		.uleb128 0x49
 3034 016e 13       		.uleb128 0x13
 3035 016f 00       		.byte	0
 3036 0170 00       		.byte	0
 3037 0171 1E       		.uleb128 0x1e
 3038 0172 2E       		.uleb128 0x2e
 3039 0173 01       		.byte	0x1
 3040 0174 3F       		.uleb128 0x3f
 3041 0175 19       		.uleb128 0x19
 3042 0176 03       		.uleb128 0x3
 3043 0177 0E       		.uleb128 0xe
 3044 0178 3A       		.uleb128 0x3a
 3045 0179 0B       		.uleb128 0xb
 3046 017a 3B       		.uleb128 0x3b
 3047 017b 0B       		.uleb128 0xb
 3048 017c 27       		.uleb128 0x27
 3049 017d 19       		.uleb128 0x19
 3050 017e 49       		.uleb128 0x49
 3051 017f 13       		.uleb128 0x13
 3052 0180 20       		.uleb128 0x20
 3053 0181 0B       		.uleb128 0xb
 3054 0182 01       		.uleb128 0x1
 3055 0183 13       		.uleb128 0x13
 3056 0184 00       		.byte	0
 3057 0185 00       		.byte	0
 3058 0186 1F       		.uleb128 0x1f
 3059 0187 34       		.uleb128 0x34
 3060 0188 00       		.byte	0
 3061 0189 03       		.uleb128 0x3
 3062 018a 08       		.uleb128 0x8
 3063 018b 3A       		.uleb128 0x3a
 3064 018c 0B       		.uleb128 0xb
 3065 018d 3B       		.uleb128 0x3b
 3066 018e 0B       		.uleb128 0xb
 3067 018f 49       		.uleb128 0x49
 3068 0190 13       		.uleb128 0x13
 3069 0191 00       		.byte	0
 3070 0192 00       		.byte	0
 3071 0193 20       		.uleb128 0x20
 3072 0194 34       		.uleb128 0x34
 3073 0195 00       		.byte	0
 3074 0196 03       		.uleb128 0x3
ARM GAS  /var/folders/m4/4md61f0s1_g0rzfghffqnxvr0000gn/T//ccYSFrIo.s 			page 55


 3075 0197 0E       		.uleb128 0xe
 3076 0198 49       		.uleb128 0x49
 3077 0199 13       		.uleb128 0x13
 3078 019a 34       		.uleb128 0x34
 3079 019b 19       		.uleb128 0x19
 3080 019c 1C       		.uleb128 0x1c
 3081 019d 0E       		.uleb128 0xe
 3082 019e 00       		.byte	0
 3083 019f 00       		.byte	0
 3084 01a0 21       		.uleb128 0x21
 3085 01a1 34       		.uleb128 0x34
 3086 01a2 00       		.byte	0
 3087 01a3 03       		.uleb128 0x3
 3088 01a4 08       		.uleb128 0x8
 3089 01a5 3A       		.uleb128 0x3a
 3090 01a6 0B       		.uleb128 0xb
 3091 01a7 3B       		.uleb128 0x3b
 3092 01a8 05       		.uleb128 0x5
 3093 01a9 49       		.uleb128 0x49
 3094 01aa 13       		.uleb128 0x13
 3095 01ab 00       		.byte	0
 3096 01ac 00       		.byte	0
 3097 01ad 22       		.uleb128 0x22
 3098 01ae 2E       		.uleb128 0x2e
 3099 01af 00       		.byte	0
 3100 01b0 03       		.uleb128 0x3
 3101 01b1 0E       		.uleb128 0xe
 3102 01b2 3A       		.uleb128 0x3a
 3103 01b3 0B       		.uleb128 0xb
 3104 01b4 3B       		.uleb128 0x3b
 3105 01b5 05       		.uleb128 0x5
 3106 01b6 27       		.uleb128 0x27
 3107 01b7 19       		.uleb128 0x19
 3108 01b8 49       		.uleb128 0x49
 3109 01b9 13       		.uleb128 0x13
 3110 01ba 20       		.uleb128 0x20
 3111 01bb 0B       		.uleb128 0xb
 3112 01bc 00       		.byte	0
 3113 01bd 00       		.byte	0
 3114 01be 23       		.uleb128 0x23
 3115 01bf 2E       		.uleb128 0x2e
 3116 01c0 01       		.byte	0x1
 3117 01c1 31       		.uleb128 0x31
 3118 01c2 13       		.uleb128 0x13
 3119 01c3 11       		.uleb128 0x11
 3120 01c4 01       		.uleb128 0x1
 3121 01c5 12       		.uleb128 0x12
 3122 01c6 06       		.uleb128 0x6
 3123 01c7 40       		.uleb128 0x40
 3124 01c8 18       		.uleb128 0x18
 3125 01c9 9742     		.uleb128 0x2117
 3126 01cb 19       		.uleb128 0x19
 3127 01cc 01       		.uleb128 0x1
 3128 01cd 13       		.uleb128 0x13
 3129 01ce 00       		.byte	0
 3130 01cf 00       		.byte	0
 3131 01d0 24       		.uleb128 0x24
ARM GAS  /var/folders/m4/4md61f0s1_g0rzfghffqnxvr0000gn/T//ccYSFrIo.s 			page 56


 3132 01d1 05       		.uleb128 0x5
 3133 01d2 00       		.byte	0
 3134 01d3 31       		.uleb128 0x31
 3135 01d4 13       		.uleb128 0x13
 3136 01d5 02       		.uleb128 0x2
 3137 01d6 18       		.uleb128 0x18
 3138 01d7 00       		.byte	0
 3139 01d8 00       		.byte	0
 3140 01d9 25       		.uleb128 0x25
 3141 01da 34       		.uleb128 0x34
 3142 01db 00       		.byte	0
 3143 01dc 31       		.uleb128 0x31
 3144 01dd 13       		.uleb128 0x13
 3145 01de 02       		.uleb128 0x2
 3146 01df 18       		.uleb128 0x18
 3147 01e0 00       		.byte	0
 3148 01e1 00       		.byte	0
 3149 01e2 26       		.uleb128 0x26
 3150 01e3 1D       		.uleb128 0x1d
 3151 01e4 01       		.byte	0x1
 3152 01e5 31       		.uleb128 0x31
 3153 01e6 13       		.uleb128 0x13
 3154 01e7 11       		.uleb128 0x11
 3155 01e8 01       		.uleb128 0x1
 3156 01e9 12       		.uleb128 0x12
 3157 01ea 06       		.uleb128 0x6
 3158 01eb 58       		.uleb128 0x58
 3159 01ec 0B       		.uleb128 0xb
 3160 01ed 59       		.uleb128 0x59
 3161 01ee 05       		.uleb128 0x5
 3162 01ef 01       		.uleb128 0x1
 3163 01f0 13       		.uleb128 0x13
 3164 01f1 00       		.byte	0
 3165 01f2 00       		.byte	0
 3166 01f3 27       		.uleb128 0x27
 3167 01f4 1D       		.uleb128 0x1d
 3168 01f5 01       		.byte	0x1
 3169 01f6 31       		.uleb128 0x31
 3170 01f7 13       		.uleb128 0x13
 3171 01f8 11       		.uleb128 0x11
 3172 01f9 01       		.uleb128 0x1
 3173 01fa 12       		.uleb128 0x12
 3174 01fb 06       		.uleb128 0x6
 3175 01fc 58       		.uleb128 0x58
 3176 01fd 0B       		.uleb128 0xb
 3177 01fe 59       		.uleb128 0x59
 3178 01ff 05       		.uleb128 0x5
 3179 0200 00       		.byte	0
 3180 0201 00       		.byte	0
 3181 0202 28       		.uleb128 0x28
 3182 0203 05       		.uleb128 0x5
 3183 0204 00       		.byte	0
 3184 0205 31       		.uleb128 0x31
 3185 0206 13       		.uleb128 0x13
 3186 0207 02       		.uleb128 0x2
 3187 0208 17       		.uleb128 0x17
 3188 0209 00       		.byte	0
ARM GAS  /var/folders/m4/4md61f0s1_g0rzfghffqnxvr0000gn/T//ccYSFrIo.s 			page 57


 3189 020a 00       		.byte	0
 3190 020b 29       		.uleb128 0x29
 3191 020c 1D       		.uleb128 0x1d
 3192 020d 01       		.byte	0x1
 3193 020e 31       		.uleb128 0x31
 3194 020f 13       		.uleb128 0x13
 3195 0210 52       		.uleb128 0x52
 3196 0211 01       		.uleb128 0x1
 3197 0212 55       		.uleb128 0x55
 3198 0213 17       		.uleb128 0x17
 3199 0214 58       		.uleb128 0x58
 3200 0215 0B       		.uleb128 0xb
 3201 0216 59       		.uleb128 0x59
 3202 0217 05       		.uleb128 0x5
 3203 0218 01       		.uleb128 0x1
 3204 0219 13       		.uleb128 0x13
 3205 021a 00       		.byte	0
 3206 021b 00       		.byte	0
 3207 021c 2A       		.uleb128 0x2a
 3208 021d 0B       		.uleb128 0xb
 3209 021e 01       		.byte	0x1
 3210 021f 55       		.uleb128 0x55
 3211 0220 17       		.uleb128 0x17
 3212 0221 00       		.byte	0
 3213 0222 00       		.byte	0
 3214 0223 2B       		.uleb128 0x2b
 3215 0224 34       		.uleb128 0x34
 3216 0225 00       		.byte	0
 3217 0226 31       		.uleb128 0x31
 3218 0227 13       		.uleb128 0x13
 3219 0228 02       		.uleb128 0x2
 3220 0229 17       		.uleb128 0x17
 3221 022a 00       		.byte	0
 3222 022b 00       		.byte	0
 3223 022c 2C       		.uleb128 0x2c
 3224 022d 34       		.uleb128 0x34
 3225 022e 00       		.byte	0
 3226 022f 31       		.uleb128 0x31
 3227 0230 13       		.uleb128 0x13
 3228 0231 00       		.byte	0
 3229 0232 00       		.byte	0
 3230 0233 2D       		.uleb128 0x2d
 3231 0234 0B       		.uleb128 0xb
 3232 0235 01       		.byte	0x1
 3233 0236 55       		.uleb128 0x55
 3234 0237 17       		.uleb128 0x17
 3235 0238 01       		.uleb128 0x1
 3236 0239 13       		.uleb128 0x13
 3237 023a 00       		.byte	0
 3238 023b 00       		.byte	0
 3239 023c 2E       		.uleb128 0x2e
 3240 023d 05       		.uleb128 0x5
 3241 023e 00       		.byte	0
 3242 023f 31       		.uleb128 0x31
 3243 0240 13       		.uleb128 0x13
 3244 0241 00       		.byte	0
 3245 0242 00       		.byte	0
ARM GAS  /var/folders/m4/4md61f0s1_g0rzfghffqnxvr0000gn/T//ccYSFrIo.s 			page 58


 3246 0243 2F       		.uleb128 0x2f
 3247 0244 1D       		.uleb128 0x1d
 3248 0245 01       		.byte	0x1
 3249 0246 31       		.uleb128 0x31
 3250 0247 13       		.uleb128 0x13
 3251 0248 52       		.uleb128 0x52
 3252 0249 01       		.uleb128 0x1
 3253 024a 55       		.uleb128 0x55
 3254 024b 17       		.uleb128 0x17
 3255 024c 58       		.uleb128 0x58
 3256 024d 0B       		.uleb128 0xb
 3257 024e 59       		.uleb128 0x59
 3258 024f 05       		.uleb128 0x5
 3259 0250 00       		.byte	0
 3260 0251 00       		.byte	0
 3261 0252 30       		.uleb128 0x30
 3262 0253 2E       		.uleb128 0x2e
 3263 0254 01       		.byte	0x1
 3264 0255 3F       		.uleb128 0x3f
 3265 0256 19       		.uleb128 0x19
 3266 0257 03       		.uleb128 0x3
 3267 0258 0E       		.uleb128 0xe
 3268 0259 3A       		.uleb128 0x3a
 3269 025a 0B       		.uleb128 0xb
 3270 025b 3B       		.uleb128 0x3b
 3271 025c 0B       		.uleb128 0xb
 3272 025d 27       		.uleb128 0x27
 3273 025e 19       		.uleb128 0x19
 3274 025f 11       		.uleb128 0x11
 3275 0260 01       		.uleb128 0x1
 3276 0261 12       		.uleb128 0x12
 3277 0262 06       		.uleb128 0x6
 3278 0263 40       		.uleb128 0x40
 3279 0264 18       		.uleb128 0x18
 3280 0265 9742     		.uleb128 0x2117
 3281 0267 19       		.uleb128 0x19
 3282 0268 01       		.uleb128 0x1
 3283 0269 13       		.uleb128 0x13
 3284 026a 00       		.byte	0
 3285 026b 00       		.byte	0
 3286 026c 31       		.uleb128 0x31
 3287 026d 1D       		.uleb128 0x1d
 3288 026e 01       		.byte	0x1
 3289 026f 31       		.uleb128 0x31
 3290 0270 13       		.uleb128 0x13
 3291 0271 52       		.uleb128 0x52
 3292 0272 01       		.uleb128 0x1
 3293 0273 55       		.uleb128 0x55
 3294 0274 17       		.uleb128 0x17
 3295 0275 58       		.uleb128 0x58
 3296 0276 0B       		.uleb128 0xb
 3297 0277 59       		.uleb128 0x59
 3298 0278 0B       		.uleb128 0xb
 3299 0279 00       		.byte	0
 3300 027a 00       		.byte	0
 3301 027b 32       		.uleb128 0x32
 3302 027c 05       		.uleb128 0x5
ARM GAS  /var/folders/m4/4md61f0s1_g0rzfghffqnxvr0000gn/T//ccYSFrIo.s 			page 59


 3303 027d 00       		.byte	0
 3304 027e 03       		.uleb128 0x3
 3305 027f 0E       		.uleb128 0xe
 3306 0280 3A       		.uleb128 0x3a
 3307 0281 0B       		.uleb128 0xb
 3308 0282 3B       		.uleb128 0x3b
 3309 0283 0B       		.uleb128 0xb
 3310 0284 49       		.uleb128 0x49
 3311 0285 13       		.uleb128 0x13
 3312 0286 02       		.uleb128 0x2
 3313 0287 17       		.uleb128 0x17
 3314 0288 00       		.byte	0
 3315 0289 00       		.byte	0
 3316 028a 33       		.uleb128 0x33
 3317 028b 34       		.uleb128 0x34
 3318 028c 00       		.byte	0
 3319 028d 03       		.uleb128 0x3
 3320 028e 08       		.uleb128 0x8
 3321 028f 3A       		.uleb128 0x3a
 3322 0290 0B       		.uleb128 0xb
 3323 0291 3B       		.uleb128 0x3b
 3324 0292 0B       		.uleb128 0xb
 3325 0293 49       		.uleb128 0x49
 3326 0294 13       		.uleb128 0x13
 3327 0295 02       		.uleb128 0x2
 3328 0296 17       		.uleb128 0x17
 3329 0297 00       		.byte	0
 3330 0298 00       		.byte	0
 3331 0299 34       		.uleb128 0x34
 3332 029a 898201   		.uleb128 0x4109
 3333 029d 00       		.byte	0
 3334 029e 11       		.uleb128 0x11
 3335 029f 01       		.uleb128 0x1
 3336 02a0 9542     		.uleb128 0x2115
 3337 02a2 19       		.uleb128 0x19
 3338 02a3 31       		.uleb128 0x31
 3339 02a4 13       		.uleb128 0x13
 3340 02a5 00       		.byte	0
 3341 02a6 00       		.byte	0
 3342 02a7 35       		.uleb128 0x35
 3343 02a8 2E       		.uleb128 0x2e
 3344 02a9 01       		.byte	0x1
 3345 02aa 3F       		.uleb128 0x3f
 3346 02ab 19       		.uleb128 0x19
 3347 02ac 03       		.uleb128 0x3
 3348 02ad 0E       		.uleb128 0xe
 3349 02ae 3A       		.uleb128 0x3a
 3350 02af 0B       		.uleb128 0xb
 3351 02b0 3B       		.uleb128 0x3b
 3352 02b1 05       		.uleb128 0x5
 3353 02b2 27       		.uleb128 0x27
 3354 02b3 19       		.uleb128 0x19
 3355 02b4 49       		.uleb128 0x49
 3356 02b5 13       		.uleb128 0x13
 3357 02b6 11       		.uleb128 0x11
 3358 02b7 01       		.uleb128 0x1
 3359 02b8 12       		.uleb128 0x12
ARM GAS  /var/folders/m4/4md61f0s1_g0rzfghffqnxvr0000gn/T//ccYSFrIo.s 			page 60


 3360 02b9 06       		.uleb128 0x6
 3361 02ba 40       		.uleb128 0x40
 3362 02bb 18       		.uleb128 0x18
 3363 02bc 9742     		.uleb128 0x2117
 3364 02be 19       		.uleb128 0x19
 3365 02bf 01       		.uleb128 0x1
 3366 02c0 13       		.uleb128 0x13
 3367 02c1 00       		.byte	0
 3368 02c2 00       		.byte	0
 3369 02c3 36       		.uleb128 0x36
 3370 02c4 05       		.uleb128 0x5
 3371 02c5 00       		.byte	0
 3372 02c6 03       		.uleb128 0x3
 3373 02c7 0E       		.uleb128 0xe
 3374 02c8 3A       		.uleb128 0x3a
 3375 02c9 0B       		.uleb128 0xb
 3376 02ca 3B       		.uleb128 0x3b
 3377 02cb 05       		.uleb128 0x5
 3378 02cc 49       		.uleb128 0x49
 3379 02cd 13       		.uleb128 0x13
 3380 02ce 02       		.uleb128 0x2
 3381 02cf 17       		.uleb128 0x17
 3382 02d0 00       		.byte	0
 3383 02d1 00       		.byte	0
 3384 02d2 37       		.uleb128 0x37
 3385 02d3 0B       		.uleb128 0xb
 3386 02d4 01       		.byte	0x1
 3387 02d5 11       		.uleb128 0x11
 3388 02d6 01       		.uleb128 0x1
 3389 02d7 12       		.uleb128 0x12
 3390 02d8 06       		.uleb128 0x6
 3391 02d9 01       		.uleb128 0x1
 3392 02da 13       		.uleb128 0x13
 3393 02db 00       		.byte	0
 3394 02dc 00       		.byte	0
 3395 02dd 38       		.uleb128 0x38
 3396 02de 34       		.uleb128 0x34
 3397 02df 00       		.byte	0
 3398 02e0 03       		.uleb128 0x3
 3399 02e1 08       		.uleb128 0x8
 3400 02e2 3A       		.uleb128 0x3a
 3401 02e3 0B       		.uleb128 0xb
 3402 02e4 3B       		.uleb128 0x3b
 3403 02e5 05       		.uleb128 0x5
 3404 02e6 49       		.uleb128 0x49
 3405 02e7 13       		.uleb128 0x13
 3406 02e8 02       		.uleb128 0x2
 3407 02e9 18       		.uleb128 0x18
 3408 02ea 00       		.byte	0
 3409 02eb 00       		.byte	0
 3410 02ec 39       		.uleb128 0x39
 3411 02ed 898201   		.uleb128 0x4109
 3412 02f0 01       		.byte	0x1
 3413 02f1 11       		.uleb128 0x11
 3414 02f2 01       		.uleb128 0x1
 3415 02f3 31       		.uleb128 0x31
 3416 02f4 13       		.uleb128 0x13
ARM GAS  /var/folders/m4/4md61f0s1_g0rzfghffqnxvr0000gn/T//ccYSFrIo.s 			page 61


 3417 02f5 01       		.uleb128 0x1
 3418 02f6 13       		.uleb128 0x13
 3419 02f7 00       		.byte	0
 3420 02f8 00       		.byte	0
 3421 02f9 3A       		.uleb128 0x3a
 3422 02fa 8A8201   		.uleb128 0x410a
 3423 02fd 00       		.byte	0
 3424 02fe 02       		.uleb128 0x2
 3425 02ff 18       		.uleb128 0x18
 3426 0300 9142     		.uleb128 0x2111
 3427 0302 18       		.uleb128 0x18
 3428 0303 00       		.byte	0
 3429 0304 00       		.byte	0
 3430 0305 3B       		.uleb128 0x3b
 3431 0306 898201   		.uleb128 0x4109
 3432 0309 01       		.byte	0x1
 3433 030a 11       		.uleb128 0x11
 3434 030b 01       		.uleb128 0x1
 3435 030c 31       		.uleb128 0x31
 3436 030d 13       		.uleb128 0x13
 3437 030e 00       		.byte	0
 3438 030f 00       		.byte	0
 3439 0310 3C       		.uleb128 0x3c
 3440 0311 898201   		.uleb128 0x4109
 3441 0314 00       		.byte	0
 3442 0315 11       		.uleb128 0x11
 3443 0316 01       		.uleb128 0x1
 3444 0317 31       		.uleb128 0x31
 3445 0318 13       		.uleb128 0x13
 3446 0319 00       		.byte	0
 3447 031a 00       		.byte	0
 3448 031b 3D       		.uleb128 0x3d
 3449 031c 2E       		.uleb128 0x2e
 3450 031d 01       		.byte	0x1
 3451 031e 3F       		.uleb128 0x3f
 3452 031f 19       		.uleb128 0x19
 3453 0320 03       		.uleb128 0x3
 3454 0321 0E       		.uleb128 0xe
 3455 0322 3A       		.uleb128 0x3a
 3456 0323 0B       		.uleb128 0xb
 3457 0324 3B       		.uleb128 0x3b
 3458 0325 05       		.uleb128 0x5
 3459 0326 27       		.uleb128 0x27
 3460 0327 19       		.uleb128 0x19
 3461 0328 11       		.uleb128 0x11
 3462 0329 01       		.uleb128 0x1
 3463 032a 12       		.uleb128 0x12
 3464 032b 06       		.uleb128 0x6
 3465 032c 40       		.uleb128 0x40
 3466 032d 18       		.uleb128 0x18
 3467 032e 9742     		.uleb128 0x2117
 3468 0330 19       		.uleb128 0x19
 3469 0331 01       		.uleb128 0x1
 3470 0332 13       		.uleb128 0x13
 3471 0333 00       		.byte	0
 3472 0334 00       		.byte	0
 3473 0335 3E       		.uleb128 0x3e
ARM GAS  /var/folders/m4/4md61f0s1_g0rzfghffqnxvr0000gn/T//ccYSFrIo.s 			page 62


 3474 0336 05       		.uleb128 0x5
 3475 0337 00       		.byte	0
 3476 0338 03       		.uleb128 0x3
 3477 0339 08       		.uleb128 0x8
 3478 033a 3A       		.uleb128 0x3a
 3479 033b 0B       		.uleb128 0xb
 3480 033c 3B       		.uleb128 0x3b
 3481 033d 05       		.uleb128 0x5
 3482 033e 49       		.uleb128 0x49
 3483 033f 13       		.uleb128 0x13
 3484 0340 02       		.uleb128 0x2
 3485 0341 17       		.uleb128 0x17
 3486 0342 00       		.byte	0
 3487 0343 00       		.byte	0
 3488 0344 3F       		.uleb128 0x3f
 3489 0345 34       		.uleb128 0x34
 3490 0346 00       		.byte	0
 3491 0347 03       		.uleb128 0x3
 3492 0348 0E       		.uleb128 0xe
 3493 0349 49       		.uleb128 0x49
 3494 034a 13       		.uleb128 0x13
 3495 034b 34       		.uleb128 0x34
 3496 034c 19       		.uleb128 0x19
 3497 034d 00       		.byte	0
 3498 034e 00       		.byte	0
 3499 034f 40       		.uleb128 0x40
 3500 0350 898201   		.uleb128 0x4109
 3501 0353 01       		.byte	0x1
 3502 0354 11       		.uleb128 0x11
 3503 0355 01       		.uleb128 0x1
 3504 0356 9542     		.uleb128 0x2115
 3505 0358 19       		.uleb128 0x19
 3506 0359 31       		.uleb128 0x31
 3507 035a 13       		.uleb128 0x13
 3508 035b 00       		.byte	0
 3509 035c 00       		.byte	0
 3510 035d 41       		.uleb128 0x41
 3511 035e 34       		.uleb128 0x34
 3512 035f 00       		.byte	0
 3513 0360 03       		.uleb128 0x3
 3514 0361 08       		.uleb128 0x8
 3515 0362 3A       		.uleb128 0x3a
 3516 0363 0B       		.uleb128 0xb
 3517 0364 3B       		.uleb128 0x3b
 3518 0365 05       		.uleb128 0x5
 3519 0366 49       		.uleb128 0x49
 3520 0367 13       		.uleb128 0x13
 3521 0368 02       		.uleb128 0x2
 3522 0369 17       		.uleb128 0x17
 3523 036a 00       		.byte	0
 3524 036b 00       		.byte	0
 3525 036c 42       		.uleb128 0x42
 3526 036d 1D       		.uleb128 0x1d
 3527 036e 00       		.byte	0
 3528 036f 31       		.uleb128 0x31
 3529 0370 13       		.uleb128 0x13
 3530 0371 11       		.uleb128 0x11
ARM GAS  /var/folders/m4/4md61f0s1_g0rzfghffqnxvr0000gn/T//ccYSFrIo.s 			page 63


 3531 0372 01       		.uleb128 0x1
 3532 0373 12       		.uleb128 0x12
 3533 0374 06       		.uleb128 0x6
 3534 0375 58       		.uleb128 0x58
 3535 0376 0B       		.uleb128 0xb
 3536 0377 59       		.uleb128 0x59
 3537 0378 05       		.uleb128 0x5
 3538 0379 00       		.byte	0
 3539 037a 00       		.byte	0
 3540 037b 43       		.uleb128 0x43
 3541 037c 34       		.uleb128 0x34
 3542 037d 00       		.byte	0
 3543 037e 03       		.uleb128 0x3
 3544 037f 0E       		.uleb128 0xe
 3545 0380 3A       		.uleb128 0x3a
 3546 0381 0B       		.uleb128 0xb
 3547 0382 3B       		.uleb128 0x3b
 3548 0383 05       		.uleb128 0x5
 3549 0384 49       		.uleb128 0x49
 3550 0385 13       		.uleb128 0x13
 3551 0386 3F       		.uleb128 0x3f
 3552 0387 19       		.uleb128 0x19
 3553 0388 3C       		.uleb128 0x3c
 3554 0389 19       		.uleb128 0x19
 3555 038a 00       		.byte	0
 3556 038b 00       		.byte	0
 3557 038c 44       		.uleb128 0x44
 3558 038d 34       		.uleb128 0x34
 3559 038e 00       		.byte	0
 3560 038f 03       		.uleb128 0x3
 3561 0390 08       		.uleb128 0x8
 3562 0391 3A       		.uleb128 0x3a
 3563 0392 0B       		.uleb128 0xb
 3564 0393 3B       		.uleb128 0x3b
 3565 0394 0B       		.uleb128 0xb
 3566 0395 49       		.uleb128 0x49
 3567 0396 13       		.uleb128 0x13
 3568 0397 3F       		.uleb128 0x3f
 3569 0398 19       		.uleb128 0x19
 3570 0399 02       		.uleb128 0x2
 3571 039a 18       		.uleb128 0x18
 3572 039b 00       		.byte	0
 3573 039c 00       		.byte	0
 3574 039d 45       		.uleb128 0x45
 3575 039e 2E       		.uleb128 0x2e
 3576 039f 00       		.byte	0
 3577 03a0 3F       		.uleb128 0x3f
 3578 03a1 19       		.uleb128 0x19
 3579 03a2 3C       		.uleb128 0x3c
 3580 03a3 19       		.uleb128 0x19
 3581 03a4 6E       		.uleb128 0x6e
 3582 03a5 0E       		.uleb128 0xe
 3583 03a6 03       		.uleb128 0x3
 3584 03a7 0E       		.uleb128 0xe
 3585 03a8 3A       		.uleb128 0x3a
 3586 03a9 0B       		.uleb128 0xb
 3587 03aa 3B       		.uleb128 0x3b
ARM GAS  /var/folders/m4/4md61f0s1_g0rzfghffqnxvr0000gn/T//ccYSFrIo.s 			page 64


 3588 03ab 05       		.uleb128 0x5
 3589 03ac 00       		.byte	0
 3590 03ad 00       		.byte	0
 3591 03ae 46       		.uleb128 0x46
 3592 03af 2E       		.uleb128 0x2e
 3593 03b0 00       		.byte	0
 3594 03b1 3F       		.uleb128 0x3f
 3595 03b2 19       		.uleb128 0x19
 3596 03b3 3C       		.uleb128 0x3c
 3597 03b4 19       		.uleb128 0x19
 3598 03b5 6E       		.uleb128 0x6e
 3599 03b6 0E       		.uleb128 0xe
 3600 03b7 03       		.uleb128 0x3
 3601 03b8 0E       		.uleb128 0xe
 3602 03b9 3A       		.uleb128 0x3a
 3603 03ba 0B       		.uleb128 0xb
 3604 03bb 3B       		.uleb128 0x3b
 3605 03bc 0B       		.uleb128 0xb
 3606 03bd 00       		.byte	0
 3607 03be 00       		.byte	0
 3608 03bf 00       		.byte	0
 3609              		.section	.debug_loc,"",%progbits
 3610              	.Ldebug_loc0:
 3611              	.LLST0:
 3612 0000 00000000 		.4byte	.LVL0
 3613 0004 08000000 		.4byte	.LVL1
 3614 0008 0300     		.2byte	0x3
 3615 000a 08       		.byte	0x8
 3616 000b 20       		.byte	0x20
 3617 000c 9F       		.byte	0x9f
 3618 000d 00000000 		.4byte	0
 3619 0011 00000000 		.4byte	0
 3620              	.LLST1:
 3621 0015 1C000000 		.4byte	.LVL2
 3622 0019 22000000 		.4byte	.LVL3
 3623 001d 0100     		.2byte	0x1
 3624 001f 52       		.byte	0x52
 3625 0020 00000000 		.4byte	0
 3626 0024 00000000 		.4byte	0
 3627              	.LLST2:
 3628 0028 22000000 		.4byte	.LVL3
 3629 002c 2C000000 		.4byte	.LVL4
 3630 0030 0100     		.2byte	0x1
 3631 0032 50       		.byte	0x50
 3632 0033 00000000 		.4byte	0
 3633 0037 00000000 		.4byte	0
 3634              	.LLST3:
 3635 003b 38000000 		.4byte	.LVL5
 3636 003f 58000000 		.4byte	.LVL10
 3637 0043 0100     		.2byte	0x1
 3638 0045 50       		.byte	0x50
 3639 0046 00000000 		.4byte	0
 3640 004a 00000000 		.4byte	0
 3641              	.LLST4:
 3642 004e 3A000000 		.4byte	.LVL6
 3643 0052 58000000 		.4byte	.LVL10
 3644 0056 0600     		.2byte	0x6
ARM GAS  /var/folders/m4/4md61f0s1_g0rzfghffqnxvr0000gn/T//ccYSFrIo.s 			page 65


 3645 0058 03       		.byte	0x3
 3646 0059 00000000 		.4byte	ch
 3647 005d 9F       		.byte	0x9f
 3648 005e 00000000 		.4byte	0
 3649 0062 00000000 		.4byte	0
 3650              	.LLST5:
 3651 0066 3A000000 		.4byte	.LVL6
 3652 006a 58000000 		.4byte	.LVL10
 3653 006e 0100     		.2byte	0x1
 3654 0070 50       		.byte	0x50
 3655 0071 00000000 		.4byte	0
 3656 0075 00000000 		.4byte	0
 3657              	.LLST6:
 3658 0079 3A000000 		.4byte	.LVL6
 3659 007d 4E000000 		.4byte	.LVL8
 3660 0081 0100     		.2byte	0x1
 3661 0083 53       		.byte	0x53
 3662 0084 00000000 		.4byte	0
 3663 0088 00000000 		.4byte	0
 3664              	.LLST7:
 3665 008c 4E000000 		.4byte	.LVL8
 3666 0090 52000000 		.4byte	.LVL9
 3667 0094 0200     		.2byte	0x2
 3668 0096 30       		.byte	0x30
 3669 0097 9F       		.byte	0x9f
 3670 0098 00000000 		.4byte	0
 3671 009c 00000000 		.4byte	0
 3672              	.LLST8:
 3673 00a0 60000000 		.4byte	.LVL11
 3674 00a4 66000000 		.4byte	.LVL12
 3675 00a8 0200     		.2byte	0x2
 3676 00aa 30       		.byte	0x30
 3677 00ab 9F       		.byte	0x9f
 3678 00ac 00000000 		.4byte	0
 3679 00b0 00000000 		.4byte	0
 3680              	.LLST9:
 3681 00b4 00000000 		.4byte	.LVL13
 3682 00b8 08000000 		.4byte	.LVL14
 3683 00bc 0600     		.2byte	0x6
 3684 00be 03       		.byte	0x3
 3685 00bf 00000000 		.4byte	ch
 3686 00c3 9F       		.byte	0x9f
 3687 00c4 00000000 		.4byte	0
 3688 00c8 00000000 		.4byte	0
 3689              	.LLST10:
 3690 00cc 00000000 		.4byte	.LVL15
 3691 00d0 1C000000 		.4byte	.LVL18
 3692 00d4 0100     		.2byte	0x1
 3693 00d6 50       		.byte	0x50
 3694 00d7 1C000000 		.4byte	.LVL18
 3695 00db 24000000 		.4byte	.LVL19
 3696 00df 0100     		.2byte	0x1
 3697 00e1 54       		.byte	0x54
 3698 00e2 24000000 		.4byte	.LVL19
 3699 00e6 2C000000 		.4byte	.LFE232
 3700 00ea 0100     		.2byte	0x1
 3701 00ec 50       		.byte	0x50
ARM GAS  /var/folders/m4/4md61f0s1_g0rzfghffqnxvr0000gn/T//ccYSFrIo.s 			page 66


 3702 00ed 00000000 		.4byte	0
 3703 00f1 00000000 		.4byte	0
 3704              	.LLST11:
 3705 00f5 00000000 		.4byte	.LVL20
 3706 00f9 0C000000 		.4byte	.LVL22
 3707 00fd 0100     		.2byte	0x1
 3708 00ff 50       		.byte	0x50
 3709 0100 0C000000 		.4byte	.LVL22
 3710 0104 16000000 		.4byte	.LVL24
 3711 0108 0200     		.2byte	0x2
 3712 010a 71       		.byte	0x71
 3713 010b 1C       		.sleb128 28
 3714 010c 16000000 		.4byte	.LVL24
 3715 0110 28000000 		.4byte	.LFE233
 3716 0114 0400     		.2byte	0x4
 3717 0116 F3       		.byte	0xf3
 3718 0117 01       		.uleb128 0x1
 3719 0118 50       		.byte	0x50
 3720 0119 9F       		.byte	0x9f
 3721 011a 00000000 		.4byte	0
 3722 011e 00000000 		.4byte	0
 3723              	.LLST12:
 3724 0122 04000000 		.4byte	.LVL21
 3725 0126 23000000 		.4byte	.LVL25-1
 3726 012a 0100     		.2byte	0x1
 3727 012c 51       		.byte	0x51
 3728 012d 00000000 		.4byte	0
 3729 0131 00000000 		.4byte	0
 3730              	.LLST13:
 3731 0135 0E000000 		.4byte	.LVL23
 3732 0139 16000000 		.4byte	.LVL24
 3733 013d 0600     		.2byte	0x6
 3734 013f 03       		.byte	0x3
 3735 0140 00000000 		.4byte	ch
 3736 0144 9F       		.byte	0x9f
 3737 0145 00000000 		.4byte	0
 3738 0149 00000000 		.4byte	0
 3739              	.LLST14:
 3740 014d 0E000000 		.4byte	.LVL23
 3741 0151 16000000 		.4byte	.LVL24
 3742 0155 0100     		.2byte	0x1
 3743 0157 52       		.byte	0x52
 3744 0158 00000000 		.4byte	0
 3745 015c 00000000 		.4byte	0
 3746              	.LLST15:
 3747 0160 00000000 		.4byte	.LVL26
 3748 0164 12000000 		.4byte	.LVL27
 3749 0168 0100     		.2byte	0x1
 3750 016a 50       		.byte	0x50
 3751 016b 12000000 		.4byte	.LVL27
 3752 016f 2E000000 		.4byte	.LVL32
 3753 0173 0400     		.2byte	0x4
 3754 0175 F3       		.byte	0xf3
 3755 0176 01       		.uleb128 0x1
 3756 0177 50       		.byte	0x50
 3757 0178 9F       		.byte	0x9f
 3758 0179 2E000000 		.4byte	.LVL32
ARM GAS  /var/folders/m4/4md61f0s1_g0rzfghffqnxvr0000gn/T//ccYSFrIo.s 			page 67


 3759 017d 33000000 		.4byte	.LVL33-1
 3760 0181 0100     		.2byte	0x1
 3761 0183 50       		.byte	0x50
 3762 0184 33000000 		.4byte	.LVL33-1
 3763 0188 44000000 		.4byte	.LFE235
 3764 018c 0400     		.2byte	0x4
 3765 018e F3       		.byte	0xf3
 3766 018f 01       		.uleb128 0x1
 3767 0190 50       		.byte	0x50
 3768 0191 9F       		.byte	0x9f
 3769 0192 00000000 		.4byte	0
 3770 0196 00000000 		.4byte	0
 3771              	.LLST16:
 3772 019a 00000000 		.4byte	.LVL26
 3773 019e 15000000 		.4byte	.LVL28-1
 3774 01a2 0100     		.2byte	0x1
 3775 01a4 51       		.byte	0x51
 3776 01a5 15000000 		.4byte	.LVL28-1
 3777 01a9 2E000000 		.4byte	.LVL32
 3778 01ad 0400     		.2byte	0x4
 3779 01af F3       		.byte	0xf3
 3780 01b0 01       		.uleb128 0x1
 3781 01b1 51       		.byte	0x51
 3782 01b2 9F       		.byte	0x9f
 3783 01b3 2E000000 		.4byte	.LVL32
 3784 01b7 33000000 		.4byte	.LVL33-1
 3785 01bb 0100     		.2byte	0x1
 3786 01bd 51       		.byte	0x51
 3787 01be 33000000 		.4byte	.LVL33-1
 3788 01c2 44000000 		.4byte	.LFE235
 3789 01c6 0400     		.2byte	0x4
 3790 01c8 F3       		.byte	0xf3
 3791 01c9 01       		.uleb128 0x1
 3792 01ca 51       		.byte	0x51
 3793 01cb 9F       		.byte	0x9f
 3794 01cc 00000000 		.4byte	0
 3795 01d0 00000000 		.4byte	0
 3796              	.LLST17:
 3797 01d4 00000000 		.4byte	.LVL34
 3798 01d8 0C000000 		.4byte	.LVL35
 3799 01dc 0100     		.2byte	0x1
 3800 01de 50       		.byte	0x50
 3801 01df 0C000000 		.4byte	.LVL35
 3802 01e3 2C000000 		.4byte	.LVL41
 3803 01e7 0100     		.2byte	0x1
 3804 01e9 54       		.byte	0x54
 3805 01ea 2C000000 		.4byte	.LVL41
 3806 01ee 2E000000 		.4byte	.LVL42
 3807 01f2 0200     		.2byte	0x2
 3808 01f4 73       		.byte	0x73
 3809 01f5 04       		.sleb128 4
 3810 01f6 2E000000 		.4byte	.LVL42
 3811 01fa 50000000 		.4byte	.LVL47
 3812 01fe 0100     		.2byte	0x1
 3813 0200 54       		.byte	0x54
 3814 0201 50000000 		.4byte	.LVL47
 3815 0205 53000000 		.4byte	.LVL48-1
ARM GAS  /var/folders/m4/4md61f0s1_g0rzfghffqnxvr0000gn/T//ccYSFrIo.s 			page 68


 3816 0209 0100     		.2byte	0x1
 3817 020b 50       		.byte	0x50
 3818 020c 53000000 		.4byte	.LVL48-1
 3819 0210 58000000 		.4byte	.LFE236
 3820 0214 0400     		.2byte	0x4
 3821 0216 F3       		.byte	0xf3
 3822 0217 01       		.uleb128 0x1
 3823 0218 50       		.byte	0x50
 3824 0219 9F       		.byte	0x9f
 3825 021a 00000000 		.4byte	0
 3826 021e 00000000 		.4byte	0
 3827              	.LLST18:
 3828 0222 00000000 		.4byte	.LVL34
 3829 0226 0E000000 		.4byte	.LVL36
 3830 022a 0100     		.2byte	0x1
 3831 022c 51       		.byte	0x51
 3832 022d 0E000000 		.4byte	.LVL36
 3833 0231 28000000 		.4byte	.LVL40
 3834 0235 0200     		.2byte	0x2
 3835 0237 74       		.byte	0x74
 3836 0238 24       		.sleb128 36
 3837 0239 28000000 		.4byte	.LVL40
 3838 023d 2E000000 		.4byte	.LVL42
 3839 0241 0400     		.2byte	0x4
 3840 0243 F3       		.byte	0xf3
 3841 0244 01       		.uleb128 0x1
 3842 0245 51       		.byte	0x51
 3843 0246 9F       		.byte	0x9f
 3844 0247 2E000000 		.4byte	.LVL42
 3845 024b 30000000 		.4byte	.LVL43
 3846 024f 0200     		.2byte	0x2
 3847 0251 74       		.byte	0x74
 3848 0252 24       		.sleb128 36
 3849 0253 30000000 		.4byte	.LVL43
 3850 0257 58000000 		.4byte	.LFE236
 3851 025b 0400     		.2byte	0x4
 3852 025d F3       		.byte	0xf3
 3853 025e 01       		.uleb128 0x1
 3854 025f 51       		.byte	0x51
 3855 0260 9F       		.byte	0x9f
 3856 0261 00000000 		.4byte	0
 3857 0265 00000000 		.4byte	0
 3858              	.LLST19:
 3859 0269 16000000 		.4byte	.LVL37
 3860 026d 2C000000 		.4byte	.LVL41
 3861 0271 0100     		.2byte	0x1
 3862 0273 54       		.byte	0x54
 3863 0274 2C000000 		.4byte	.LVL41
 3864 0278 2E000000 		.4byte	.LVL42
 3865 027c 0200     		.2byte	0x2
 3866 027e 73       		.byte	0x73
 3867 027f 04       		.sleb128 4
 3868 0280 00000000 		.4byte	0
 3869 0284 00000000 		.4byte	0
 3870              	.LLST20:
 3871 0288 18000000 		.4byte	.LVL38
 3872 028c 2E000000 		.4byte	.LVL42
ARM GAS  /var/folders/m4/4md61f0s1_g0rzfghffqnxvr0000gn/T//ccYSFrIo.s 			page 69


 3873 0290 0100     		.2byte	0x1
 3874 0292 53       		.byte	0x53
 3875 0293 00000000 		.4byte	0
 3876 0297 00000000 		.4byte	0
 3877              	.LLST21:
 3878 029b 2E000000 		.4byte	.LVL42
 3879 029f 46000000 		.4byte	.LVL46
 3880 02a3 0100     		.2byte	0x1
 3881 02a5 55       		.byte	0x55
 3882 02a6 00000000 		.4byte	0
 3883 02aa 00000000 		.4byte	0
 3884              	.LLST22:
 3885 02ae 30000000 		.4byte	.LVL43
 3886 02b2 32000000 		.4byte	.LVL44
 3887 02b6 0600     		.2byte	0x6
 3888 02b8 03       		.byte	0x3
 3889 02b9 00000000 		.4byte	ch
 3890 02bd 9F       		.byte	0x9f
 3891 02be 32000000 		.4byte	.LVL44
 3892 02c2 46000000 		.4byte	.LVL46
 3893 02c6 0100     		.2byte	0x1
 3894 02c8 52       		.byte	0x52
 3895 02c9 00000000 		.4byte	0
 3896 02cd 00000000 		.4byte	0
 3897              	.LLST23:
 3898 02d1 0C000000 		.4byte	.LVL50
 3899 02d5 14000000 		.4byte	.LVL51
 3900 02d9 0100     		.2byte	0x1
 3901 02db 50       		.byte	0x50
 3902 02dc 14000000 		.4byte	.LVL51
 3903 02e0 18000000 		.4byte	.LVL52
 3904 02e4 0200     		.2byte	0x2
 3905 02e6 72       		.byte	0x72
 3906 02e7 08       		.sleb128 8
 3907 02e8 18000000 		.4byte	.LVL52
 3908 02ec 1E000000 		.4byte	.LVL53
 3909 02f0 0100     		.2byte	0x1
 3910 02f2 50       		.byte	0x50
 3911 02f3 1E000000 		.4byte	.LVL53
 3912 02f7 28000000 		.4byte	.LFE238
 3913 02fb 0200     		.2byte	0x2
 3914 02fd 72       		.byte	0x72
 3915 02fe 08       		.sleb128 8
 3916 02ff 00000000 		.4byte	0
 3917 0303 00000000 		.4byte	0
 3918              	.LLST24:
 3919 0307 0C000000 		.4byte	.LVL54
 3920 030b 36000000 		.4byte	.LVL60
 3921 030f 0100     		.2byte	0x1
 3922 0311 54       		.byte	0x54
 3923 0312 36000000 		.4byte	.LVL60
 3924 0316 39000000 		.4byte	.LVL61-1
 3925 031a 0100     		.2byte	0x1
 3926 031c 51       		.byte	0x51
 3927 031d 00000000 		.4byte	0
 3928 0321 00000000 		.4byte	0
 3929              	.LLST25:
ARM GAS  /var/folders/m4/4md61f0s1_g0rzfghffqnxvr0000gn/T//ccYSFrIo.s 			page 70


 3930 0325 0C000000 		.4byte	.LVL54
 3931 0329 0E000000 		.4byte	.LVL55
 3932 032d 0600     		.2byte	0x6
 3933 032f 03       		.byte	0x3
 3934 0330 00000000 		.4byte	ch
 3935 0334 9F       		.byte	0x9f
 3936 0335 00000000 		.4byte	0
 3937 0339 00000000 		.4byte	0
 3938              	.LLST26:
 3939 033d 0C000000 		.4byte	.LVL54
 3940 0341 0E000000 		.4byte	.LVL55
 3941 0345 0100     		.2byte	0x1
 3942 0347 50       		.byte	0x50
 3943 0348 00000000 		.4byte	0
 3944 034c 00000000 		.4byte	0
 3945              	.LLST27:
 3946 0350 1C000000 		.4byte	.LVL56
 3947 0354 34000000 		.4byte	.LVL59
 3948 0358 0100     		.2byte	0x1
 3949 035a 54       		.byte	0x54
 3950 035b 00000000 		.4byte	0
 3951 035f 00000000 		.4byte	0
 3952              	.LLST28:
 3953 0363 1E000000 		.4byte	.LVL57
 3954 0367 20000000 		.4byte	.LVL58
 3955 036b 0600     		.2byte	0x6
 3956 036d 03       		.byte	0x3
 3957 036e 00000000 		.4byte	ch
 3958 0372 9F       		.byte	0x9f
 3959 0373 00000000 		.4byte	0
 3960 0377 00000000 		.4byte	0
 3961              	.LLST29:
 3962 037b 0C000000 		.4byte	.LVL62
 3963 037f 32000000 		.4byte	.LVL66
 3964 0383 0100     		.2byte	0x1
 3965 0385 54       		.byte	0x54
 3966 0386 32000000 		.4byte	.LVL66
 3967 038a 35000000 		.4byte	.LVL67-1
 3968 038e 0100     		.2byte	0x1
 3969 0390 51       		.byte	0x51
 3970 0391 00000000 		.4byte	0
 3971 0395 00000000 		.4byte	0
 3972              	.LLST30:
 3973 0399 1A000000 		.4byte	.LVL64
 3974 039d 1C000000 		.4byte	.LVL65
 3975 03a1 0600     		.2byte	0x6
 3976 03a3 03       		.byte	0x3
 3977 03a4 00000000 		.4byte	ch
 3978 03a8 9F       		.byte	0x9f
 3979 03a9 00000000 		.4byte	0
 3980 03ad 00000000 		.4byte	0
 3981              	.LLST31:
 3982 03b1 0C000000 		.4byte	.LVL62
 3983 03b5 0E000000 		.4byte	.LVL63
 3984 03b9 0600     		.2byte	0x6
 3985 03bb 03       		.byte	0x3
 3986 03bc 00000000 		.4byte	ch
ARM GAS  /var/folders/m4/4md61f0s1_g0rzfghffqnxvr0000gn/T//ccYSFrIo.s 			page 71


 3987 03c0 9F       		.byte	0x9f
 3988 03c1 00000000 		.4byte	0
 3989 03c5 00000000 		.4byte	0
 3990              	.LLST32:
 3991 03c9 0C000000 		.4byte	.LVL62
 3992 03cd 0E000000 		.4byte	.LVL63
 3993 03d1 0100     		.2byte	0x1
 3994 03d3 50       		.byte	0x50
 3995 03d4 00000000 		.4byte	0
 3996 03d8 00000000 		.4byte	0
 3997              		.section	.debug_aranges,"",%progbits
 3998 0000 6C000000 		.4byte	0x6c
 3999 0004 0200     		.2byte	0x2
 4000 0006 00000000 		.4byte	.Ldebug_info0
 4001 000a 04       		.byte	0x4
 4002 000b 00       		.byte	0
 4003 000c 0000     		.2byte	0
 4004 000e 0000     		.2byte	0
 4005 0010 00000000 		.4byte	.LFB234
 4006 0014 70000000 		.4byte	.LFE234-.LFB234
 4007 0018 00000000 		.4byte	.LFB231
 4008 001c 14000000 		.4byte	.LFE231-.LFB231
 4009 0020 00000000 		.4byte	.LFB232
 4010 0024 2C000000 		.4byte	.LFE232-.LFB232
 4011 0028 00000000 		.4byte	.LFB233
 4012 002c 28000000 		.4byte	.LFE233-.LFB233
 4013 0030 00000000 		.4byte	.LFB235
 4014 0034 44000000 		.4byte	.LFE235-.LFB235
 4015 0038 00000000 		.4byte	.LFB236
 4016 003c 58000000 		.4byte	.LFE236-.LFB236
 4017 0040 00000000 		.4byte	.LFB238
 4018 0044 28000000 		.4byte	.LFE238-.LFB238
 4019 0048 00000000 		.4byte	.LFB239
 4020 004c 40000000 		.4byte	.LFE239-.LFB239
 4021 0050 00000000 		.4byte	.LFB240
 4022 0054 3C000000 		.4byte	.LFE240-.LFB240
 4023 0058 00000000 		.4byte	.LFB237
 4024 005c 18000000 		.4byte	.LFE237-.LFB237
 4025 0060 00000000 		.4byte	.LFB241
 4026 0064 14000000 		.4byte	.LFE241-.LFB241
 4027 0068 00000000 		.4byte	0
 4028 006c 00000000 		.4byte	0
 4029              		.section	.debug_ranges,"",%progbits
 4030              	.Ldebug_ranges0:
 4031 0000 30000000 		.4byte	.LBB137
 4032 0004 34000000 		.4byte	.LBE137
 4033 0008 38000000 		.4byte	.LBB159
 4034 000c 3A000000 		.4byte	.LBE159
 4035 0010 00000000 		.4byte	0
 4036 0014 00000000 		.4byte	0
 4037 0018 34000000 		.4byte	.LBB140
 4038 001c 36000000 		.4byte	.LBE140
 4039 0020 3A000000 		.4byte	.LBB160
 4040 0024 52000000 		.4byte	.LBE160
 4041 0028 00000000 		.4byte	0
 4042 002c 00000000 		.4byte	0
 4043 0030 34000000 		.4byte	.LBB142
ARM GAS  /var/folders/m4/4md61f0s1_g0rzfghffqnxvr0000gn/T//ccYSFrIo.s 			page 72


 4044 0034 36000000 		.4byte	.LBE142
 4045 0038 3A000000 		.4byte	.LBB146
 4046 003c 48000000 		.4byte	.LBE146
 4047 0040 4A000000 		.4byte	.LBB156
 4048 0044 4E000000 		.4byte	.LBE156
 4049 0048 00000000 		.4byte	0
 4050 004c 00000000 		.4byte	0
 4051 0050 48000000 		.4byte	.LBB147
 4052 0054 4A000000 		.4byte	.LBE147
 4053 0058 4E000000 		.4byte	.LBB157
 4054 005c 52000000 		.4byte	.LBE157
 4055 0060 00000000 		.4byte	0
 4056 0064 00000000 		.4byte	0
 4057 0068 00000000 		.4byte	.LBB166
 4058 006c 02000000 		.4byte	.LBE166
 4059 0070 04000000 		.4byte	.LBB169
 4060 0074 08000000 		.4byte	.LBE169
 4061 0078 00000000 		.4byte	0
 4062 007c 00000000 		.4byte	0
 4063 0080 04000000 		.4byte	.LBB170
 4064 0084 06000000 		.4byte	.LBE170
 4065 0088 0E000000 		.4byte	.LBB174
 4066 008c 12000000 		.4byte	.LBE174
 4067 0090 14000000 		.4byte	.LBB175
 4068 0094 16000000 		.4byte	.LBE175
 4069 0098 00000000 		.4byte	0
 4070 009c 00000000 		.4byte	0
 4071 00a0 10000000 		.4byte	.LBB177
 4072 00a4 14000000 		.4byte	.LBE177
 4073 00a8 16000000 		.4byte	.LBB180
 4074 00ac 2A000000 		.4byte	.LBE180
 4075 00b0 00000000 		.4byte	0
 4076 00b4 00000000 		.4byte	0
 4077 00b8 2E000000 		.4byte	.LBB181
 4078 00bc 4E000000 		.4byte	.LBE181
 4079 00c0 50000000 		.4byte	.LBB186
 4080 00c4 58000000 		.4byte	.LBE186
 4081 00c8 00000000 		.4byte	0
 4082 00cc 00000000 		.4byte	0
 4083 00d0 2E000000 		.4byte	.LBB182
 4084 00d4 3E000000 		.4byte	.LBE182
 4085 00d8 40000000 		.4byte	.LBB185
 4086 00dc 46000000 		.4byte	.LBE185
 4087 00e0 00000000 		.4byte	0
 4088 00e4 00000000 		.4byte	0
 4089 00e8 02000000 		.4byte	.LBB187
 4090 00ec 06000000 		.4byte	.LBE187
 4091 00f0 0C000000 		.4byte	.LBB191
 4092 00f4 0E000000 		.4byte	.LBE191
 4093 00f8 16000000 		.4byte	.LBB196
 4094 00fc 18000000 		.4byte	.LBE196
 4095 0100 00000000 		.4byte	0
 4096 0104 00000000 		.4byte	0
 4097 0108 12000000 		.4byte	.LBB192
 4098 010c 16000000 		.4byte	.LBE192
 4099 0110 1C000000 		.4byte	.LBB197
 4100 0114 2E000000 		.4byte	.LBE197
ARM GAS  /var/folders/m4/4md61f0s1_g0rzfghffqnxvr0000gn/T//ccYSFrIo.s 			page 73


 4101 0118 30000000 		.4byte	.LBB198
 4102 011c 34000000 		.4byte	.LBE198
 4103 0120 00000000 		.4byte	0
 4104 0124 00000000 		.4byte	0
 4105 0128 02000000 		.4byte	.LBB199
 4106 012c 06000000 		.4byte	.LBE199
 4107 0130 0C000000 		.4byte	.LBB203
 4108 0134 0E000000 		.4byte	.LBE203
 4109 0138 14000000 		.4byte	.LBB204
 4110 013c 16000000 		.4byte	.LBE204
 4111 0140 00000000 		.4byte	0
 4112 0144 00000000 		.4byte	0
 4113 0148 00000000 		.4byte	.LFB234
 4114 014c 70000000 		.4byte	.LFE234
 4115 0150 00000000 		.4byte	.LFB231
 4116 0154 14000000 		.4byte	.LFE231
 4117 0158 00000000 		.4byte	.LFB232
 4118 015c 2C000000 		.4byte	.LFE232
 4119 0160 00000000 		.4byte	.LFB233
 4120 0164 28000000 		.4byte	.LFE233
 4121 0168 00000000 		.4byte	.LFB235
 4122 016c 44000000 		.4byte	.LFE235
 4123 0170 00000000 		.4byte	.LFB236
 4124 0174 58000000 		.4byte	.LFE236
 4125 0178 00000000 		.4byte	.LFB238
 4126 017c 28000000 		.4byte	.LFE238
 4127 0180 00000000 		.4byte	.LFB239
 4128 0184 40000000 		.4byte	.LFE239
 4129 0188 00000000 		.4byte	.LFB240
 4130 018c 3C000000 		.4byte	.LFE240
 4131 0190 00000000 		.4byte	.LFB237
 4132 0194 18000000 		.4byte	.LFE237
 4133 0198 00000000 		.4byte	.LFB241
 4134 019c 14000000 		.4byte	.LFE241
 4135 01a0 00000000 		.4byte	0
 4136 01a4 00000000 		.4byte	0
 4137              		.section	.debug_line,"",%progbits
 4138              	.Ldebug_line0:
 4139 0000 77050000 		.section	.debug_str,"MS",%progbits,1
 4139      02000703 
 4139      00000201 
 4139      FB0E0D00 
 4139      01010101 
 4140              	.LASF54:
 4141 0000 72656164 		.ascii	"ready_list_t\000"
 4141      795F6C69 
 4141      73745F74 
 4141      00
 4142              	.LASF2:
 4143 000d 73697A65 		.ascii	"size_t\000"
 4143      5F7400
 4144              	.LASF89:
 4145 0014 7264796D 		.ascii	"rdymsg\000"
 4145      736700
 4146              	.LASF17:
 4147 001b 75696E74 		.ascii	"uint64_t\000"
 4147      36345F74 
ARM GAS  /var/folders/m4/4md61f0s1_g0rzfghffqnxvr0000gn/T//ccYSFrIo.s 			page 74


 4147      00
 4148              	.LASF130:
 4149 0024 63685363 		.ascii	"chSchDoRescheduleAhead\000"
 4149      68446F52 
 4149      65736368 
 4149      6564756C 
 4149      65416865 
 4150              	.LASF25:
 4151 003b 6576656E 		.ascii	"eventmask_t\000"
 4151      746D6173 
 4151      6B5F7400 
 4152              	.LASF3:
 4153 0047 5F5F7569 		.ascii	"__uint8_t\000"
 4153      6E74385F 
 4153      7400
 4154              	.LASF86:
 4155 0051 706F7274 		.ascii	"port_intctx\000"
 4155      5F696E74 
 4155      63747800 
 4156              	.LASF73:
 4157 005d 73797374 		.ascii	"system_debug_t\000"
 4157      656D5F64 
 4157      65627567 
 4157      5F7400
 4158              	.LASF114:
 4159 006c 71756575 		.ascii	"queue_init\000"
 4159      655F696E 
 4159      697400
 4160              	.LASF106:
 4161 0077 706F7274 		.ascii	"port_lock\000"
 4161      5F6C6F63 
 4161      6B00
 4162              	.LASF13:
 4163 0081 6C6F6E67 		.ascii	"long long unsigned int\000"
 4163      206C6F6E 
 4163      6720756E 
 4163      7369676E 
 4163      65642069 
 4164              	.LASF136:
 4165 0098 63685654 		.ascii	"chVTDoResetI\000"
 4165      446F5265 
 4165      73657449 
 4165      00
 4166              	.LASF90:
 4167 00a5 65786974 		.ascii	"exitcode\000"
 4167      636F6465 
 4167      00
 4168              	.LASF80:
 4169 00ae 6D61696E 		.ascii	"mainthread\000"
 4169      74687265 
 4169      616400
 4170              	.LASF7:
 4171 00b9 5F5F696E 		.ascii	"__int32_t\000"
 4171      7433325F 
 4171      7400
 4172              	.LASF70:
 4173 00c3 76697274 		.ascii	"virtual_timers_list_t\000"
ARM GAS  /var/folders/m4/4md61f0s1_g0rzfghffqnxvr0000gn/T//ccYSFrIo.s 			page 75


 4173      75616C5F 
 4173      74696D65 
 4173      72735F6C 
 4173      6973745F 
 4174              	.LASF133:
 4175 00d9 49544D5F 		.ascii	"ITM_RxBuffer\000"
 4175      52784275 
 4175      66666572 
 4175      00
 4176              	.LASF53:
 4177 00e6 63685F74 		.ascii	"ch_threads_queue\000"
 4177      68726561 
 4177      64735F71 
 4177      75657565 
 4177      00
 4178              	.LASF31:
 4179 00f7 705F7072 		.ascii	"p_prio\000"
 4179      696F00
 4180              	.LASF122:
 4181 00fe 5F736368 		.ascii	"_scheduler_init\000"
 4181      6564756C 
 4181      65725F69 
 4181      6E697400 
 4182              	.LASF11:
 4183 010e 6C6F6E67 		.ascii	"long long int\000"
 4183      206C6F6E 
 4183      6720696E 
 4183      7400
 4184              	.LASF1:
 4185 011c 7369676E 		.ascii	"signed char\000"
 4185      65642063 
 4185      68617200 
 4186              	.LASF47:
 4187 0128 705F6D70 		.ascii	"p_mpool\000"
 4187      6F6F6C00 
 4188              	.LASF100:
 4189 0130 6D5F7175 		.ascii	"m_queue\000"
 4189      65756500 
 4190              	.LASF79:
 4191 0138 76746C69 		.ascii	"vtlist\000"
 4191      737400
 4192              	.LASF107:
 4193 013f 706F7274 		.ascii	"port_unlock\000"
 4193      5F756E6C 
 4193      6F636B00 
 4194              	.LASF22:
 4195 014b 74736C69 		.ascii	"tslices_t\000"
 4195      6365735F 
 4195      7400
 4196              	.LASF92:
 4197 0155 77747472 		.ascii	"wttrp\000"
 4197      7000
 4198              	.LASF77:
 4199 015b 63685F73 		.ascii	"ch_system\000"
 4199      79737465 
 4199      6D00
 4200              	.LASF8:
ARM GAS  /var/folders/m4/4md61f0s1_g0rzfghffqnxvr0000gn/T//ccYSFrIo.s 			page 76


 4201 0165 6C6F6E67 		.ascii	"long int\000"
 4201      20696E74 
 4201      00
 4202              	.LASF118:
 4203 016e 71756575 		.ascii	"queue_dequeue\000"
 4203      655F6465 
 4203      71756575 
 4203      6500
 4204              	.LASF20:
 4205 017c 74737461 		.ascii	"tstate_t\000"
 4205      74655F74 
 4205      00
 4206              	.LASF128:
 4207 0185 63685363 		.ascii	"chSchIsPreemptionRequired\000"
 4207      68497350 
 4207      7265656D 
 4207      7074696F 
 4207      6E526571 
 4208              	.LASF33:
 4209 019f 705F6E65 		.ascii	"p_newer\000"
 4209      77657200 
 4210              	.LASF97:
 4211 01a7 735F7175 		.ascii	"s_queue\000"
 4211      65756500 
 4212              	.LASF131:
 4213 01af 63685363 		.ascii	"chSchRescheduleS\000"
 4213      68526573 
 4213      63686564 
 4213      756C6553 
 4213      00
 4214              	.LASF59:
 4215 01c0 725F6E65 		.ascii	"r_newer\000"
 4215      77657200 
 4216              	.LASF83:
 4217 01c8 72656761 		.ascii	"regarm_t\000"
 4217      726D5F74 
 4217      00
 4218              	.LASF132:
 4219 01d1 63685363 		.ascii	"chSchDoReschedule\000"
 4219      68446F52 
 4219      65736368 
 4219      6564756C 
 4219      6500
 4220              	.LASF66:
 4221 01e3 76745F70 		.ascii	"vt_prev\000"
 4221      72657600 
 4222              	.LASF105:
 4223 01eb 6D757465 		.ascii	"mutex_t\000"
 4223      785F7400 
 4224              	.LASF110:
 4225 01f3 76616C75 		.ascii	"value\000"
 4225      6500
 4226              	.LASF81:
 4227 01f9 69646C65 		.ascii	"idle_thread_wa\000"
 4227      5F746872 
 4227      6561645F 
 4227      776100
ARM GAS  /var/folders/m4/4md61f0s1_g0rzfghffqnxvr0000gn/T//ccYSFrIo.s 			page 77


 4228              	.LASF26:
 4229 0208 636E745F 		.ascii	"cnt_t\000"
 4229      7400
 4230              	.LASF0:
 4231 020e 756E7369 		.ascii	"unsigned int\000"
 4231      676E6564 
 4231      20696E74 
 4231      00
 4232              	.LASF120:
 4233 021b 77616B65 		.ascii	"wakeup\000"
 4233      757000
 4234              	.LASF65:
 4235 0222 76745F6E 		.ascii	"vt_next\000"
 4235      65787400 
 4236              	.LASF40:
 4237 022a 705F7469 		.ascii	"p_time\000"
 4237      6D6500
 4238              	.LASF93:
 4239 0231 77747365 		.ascii	"wtsemp\000"
 4239      6D7000
 4240              	.LASF134:
 4241 0238 5F706F72 		.ascii	"_port_switch\000"
 4241      745F7377 
 4241      69746368 
 4241      00
 4242              	.LASF67:
 4243 0245 76745F64 		.ascii	"vt_delta\000"
 4243      656C7461 
 4243      00
 4244              	.LASF42:
 4245 024e 705F6D73 		.ascii	"p_msgqueue\000"
 4245      67717565 
 4245      756500
 4246              	.LASF55:
 4247 0259 63685F72 		.ascii	"ch_ready_list\000"
 4247      65616479 
 4247      5F6C6973 
 4247      7400
 4248              	.LASF98:
 4249 0267 735F636E 		.ascii	"s_cnt\000"
 4249      7400
 4250              	.LASF6:
 4251 026d 73686F72 		.ascii	"short unsigned int\000"
 4251      7420756E 
 4251      7369676E 
 4251      65642069 
 4251      6E7400
 4252              	.LASF50:
 4253 0280 63685F74 		.ascii	"ch_thread\000"
 4253      68726561 
 4253      6400
 4254              	.LASF126:
 4255 028a 63685363 		.ascii	"chSchWakeupS\000"
 4255      6857616B 
 4255      65757053 
 4255      00
 4256              	.LASF24:
ARM GAS  /var/folders/m4/4md61f0s1_g0rzfghffqnxvr0000gn/T//ccYSFrIo.s 			page 78


 4257 0297 6D73675F 		.ascii	"msg_t\000"
 4257      7400
 4258              	.LASF139:
 4259 029d 2F557365 		.ascii	"/Users/raphael/Documents/Projects/rESC/resc-firmwar"
 4259      72732F72 
 4259      61706861 
 4259      656C2F44 
 4259      6F63756D 
 4260 02d0 6500     		.ascii	"e\000"
 4261              	.LASF76:
 4262 02d2 63685F73 		.ascii	"ch_system_t\000"
 4262      79737465 
 4262      6D5F7400 
 4263              	.LASF91:
 4264 02de 77746F62 		.ascii	"wtobjp\000"
 4264      6A7000
 4265              	.LASF45:
 4266 02e5 705F6D74 		.ascii	"p_mtxlist\000"
 4266      786C6973 
 4266      7400
 4267              	.LASF135:
 4268 02ef 63685654 		.ascii	"chVTDoSetI\000"
 4268      446F5365 
 4268      744900
 4269              	.LASF84:
 4270 02fa 73746B61 		.ascii	"stkalign_t\000"
 4270      6C69676E 
 4270      5F7400
 4271              	.LASF49:
 4272 0305 74687265 		.ascii	"threads_list_t\000"
 4272      6164735F 
 4272      6C697374 
 4272      5F7400
 4273              	.LASF57:
 4274 0314 725F7072 		.ascii	"r_prio\000"
 4274      696F00
 4275              	.LASF41:
 4276 031b 705F7761 		.ascii	"p_waiting\000"
 4276      6974696E 
 4276      6700
 4277              	.LASF82:
 4278 0325 73697A65 		.ascii	"sizetype\000"
 4278      74797065 
 4278      00
 4279              	.LASF48:
 4280 032e 74687265 		.ascii	"thread_reference_t\000"
 4280      61645F72 
 4280      65666572 
 4280      656E6365 
 4280      5F7400
 4281              	.LASF71:
 4282 0341 63685F76 		.ascii	"ch_virtual_timers_list\000"
 4282      69727475 
 4282      616C5F74 
 4282      696D6572 
 4282      735F6C69 
 4283              	.LASF129:
ARM GAS  /var/folders/m4/4md61f0s1_g0rzfghffqnxvr0000gn/T//ccYSFrIo.s 			page 79


 4284 0358 63685363 		.ascii	"chSchDoRescheduleBehind\000"
 4284      68446F52 
 4284      65736368 
 4284      6564756C 
 4284      65426568 
 4285              	.LASF34:
 4286 0370 705F6F6C 		.ascii	"p_older\000"
 4286      64657200 
 4287              	.LASF58:
 4288 0378 725F6374 		.ascii	"r_ctx\000"
 4288      7800
 4289              	.LASF88:
 4290 037e 746D5F63 		.ascii	"tm_calibration_t\000"
 4290      616C6962 
 4290      72617469 
 4290      6F6E5F74 
 4290      00
 4291              	.LASF102:
 4292 038f 6D5F6E65 		.ascii	"m_next\000"
 4292      787400
 4293              	.LASF125:
 4294 0396 74696D65 		.ascii	"time\000"
 4294      00
 4295              	.LASF61:
 4296 039b 725F6375 		.ascii	"r_current\000"
 4296      7272656E 
 4296      7400
 4297              	.LASF60:
 4298 03a5 725F6F6C 		.ascii	"r_older\000"
 4298      64657200 
 4299              	.LASF12:
 4300 03ad 5F5F7569 		.ascii	"__uint64_t\000"
 4300      6E743634 
 4300      5F7400
 4301              	.LASF21:
 4302 03b8 74726566 		.ascii	"trefs_t\000"
 4302      735F7400 
 4303              	.LASF63:
 4304 03c0 76697274 		.ascii	"virtual_timer_t\000"
 4304      75616C5F 
 4304      74696D65 
 4304      725F7400 
 4305              	.LASF30:
 4306 03d0 705F7072 		.ascii	"p_prev\000"
 4306      657600
 4307              	.LASF23:
 4308 03d7 74707269 		.ascii	"tprio_t\000"
 4308      6F5F7400 
 4309              	.LASF116:
 4310 03df 63685379 		.ascii	"chSysUnlockFromISR\000"
 4310      73556E6C 
 4310      6F636B46 
 4310      726F6D49 
 4310      535200
 4311              	.LASF74:
 4312 03f2 63685F73 		.ascii	"ch_system_debug\000"
 4312      79737465 
ARM GAS  /var/folders/m4/4md61f0s1_g0rzfghffqnxvr0000gn/T//ccYSFrIo.s 			page 80


 4312      6D5F6465 
 4312      62756700 
 4313              	.LASF111:
 4314 0402 5F426F6F 		.ascii	"_Bool\000"
 4314      6C00
 4315              	.LASF15:
 4316 0408 696E7433 		.ascii	"int32_t\000"
 4316      325F7400 
 4317              	.LASF4:
 4318 0410 756E7369 		.ascii	"unsigned char\000"
 4318      676E6564 
 4318      20636861 
 4318      7200
 4319              	.LASF124:
 4320 041e 6E657773 		.ascii	"newstate\000"
 4320      74617465 
 4320      00
 4321              	.LASF138:
 4322 0427 43686962 		.ascii	"ChibiOS_16.1.4/os/rt/src/chschd.c\000"
 4322      694F535F 
 4322      31362E31 
 4322      2E342F6F 
 4322      732F7274 
 4323              	.LASF5:
 4324 0449 73686F72 		.ascii	"short int\000"
 4324      7420696E 
 4324      7400
 4325              	.LASF36:
 4326 0453 705F7374 		.ascii	"p_state\000"
 4326      61746500 
 4327              	.LASF39:
 4328 045b 705F7072 		.ascii	"p_preempt\000"
 4328      65656D70 
 4328      7400
 4329              	.LASF113:
 4330 0465 63685365 		.ascii	"chSemFastSignalI\000"
 4330      6D466173 
 4330      74536967 
 4330      6E616C49 
 4330      00
 4331              	.LASF95:
 4332 0476 65776D61 		.ascii	"ewmask\000"
 4332      736B00
 4333              	.LASF29:
 4334 047d 705F6E65 		.ascii	"p_next\000"
 4334      787400
 4335              	.LASF19:
 4336 0484 746D6F64 		.ascii	"tmode_t\000"
 4336      655F7400 
 4337              	.LASF37:
 4338 048c 705F666C 		.ascii	"p_flags\000"
 4338      61677300 
 4339              	.LASF119:
 4340 0494 5F5F6675 		.ascii	"__func__\000"
 4340      6E635F5F 
 4340      00
 4341              	.LASF117:
ARM GAS  /var/folders/m4/4md61f0s1_g0rzfghffqnxvr0000gn/T//ccYSFrIo.s 			page 81


 4342 049d 63685654 		.ascii	"chVTIsArmedI\000"
 4342      49734172 
 4342      6D656449 
 4342      00
 4343              	.LASF104:
 4344 04aa 73656D61 		.ascii	"semaphore_t\000"
 4344      70686F72 
 4344      655F7400 
 4345              	.LASF64:
 4346 04b6 63685F76 		.ascii	"ch_virtual_timer\000"
 4346      69727475 
 4346      616C5F74 
 4346      696D6572 
 4346      00
 4347              	.LASF96:
 4348 04c7 63685F73 		.ascii	"ch_semaphore\000"
 4348      656D6170 
 4348      686F7265 
 4348      00
 4349              	.LASF123:
 4350 04d4 63685363 		.ascii	"chSchGoSleepS\000"
 4350      68476F53 
 4350      6C656570 
 4350      5300
 4351              	.LASF44:
 4352 04e2 705F6570 		.ascii	"p_epending\000"
 4352      656E6469 
 4352      6E6700
 4353              	.LASF16:
 4354 04ed 75696E74 		.ascii	"uint32_t\000"
 4354      33325F74 
 4354      00
 4355              	.LASF94:
 4356 04f6 77746D74 		.ascii	"wtmtxp\000"
 4356      787000
 4357              	.LASF56:
 4358 04fd 725F7175 		.ascii	"r_queue\000"
 4358      65756500 
 4359              	.LASF140:
 4360 0505 63685363 		.ascii	"chSchReadyI\000"
 4360      68526561 
 4360      64794900 
 4361              	.LASF51:
 4362 0511 63685F74 		.ascii	"ch_threads_list\000"
 4362      68726561 
 4362      64735F6C 
 4362      69737400 
 4363              	.LASF10:
 4364 0521 6C6F6E67 		.ascii	"long unsigned int\000"
 4364      20756E73 
 4364      69676E65 
 4364      6420696E 
 4364      7400
 4365              	.LASF103:
 4366 0533 63686172 		.ascii	"char\000"
 4366      00
 4367              	.LASF137:
ARM GAS  /var/folders/m4/4md61f0s1_g0rzfghffqnxvr0000gn/T//ccYSFrIo.s 			page 82


 4368 0538 474E5520 		.ascii	"GNU C99 5.2.1 20151202 (release) [ARM/embedded-5-br"
 4368      43393920 
 4368      352E322E 
 4368      31203230 
 4368      31353132 
 4369 056b 616E6368 		.ascii	"anch revision 231848] -mcpu=cortex-m4 -mfloat-abi=h"
 4369      20726576 
 4369      6973696F 
 4369      6E203233 
 4369      31383438 
 4370 059e 61726420 		.ascii	"ard -mfpu=fpv4-sp-d16 -mno-thumb-interwork -mthumb "
 4370      2D6D6670 
 4370      753D6670 
 4370      76342D73 
 4370      702D6431 
 4371 05d1 2D676764 		.ascii	"-ggdb -O2 -std=c99 -fomit-frame-pointer -falign-fun"
 4371      62202D4F 
 4371      32202D73 
 4371      74643D63 
 4371      3939202D 
 4372 0604 6374696F 		.ascii	"ctions=16 -ffunction-sections -fdata-sections -fno-"
 4372      6E733D31 
 4372      36202D66 
 4372      66756E63 
 4372      74696F6E 
 4373 0637 636F6D6D 		.ascii	"common\000"
 4373      6F6E00
 4374              	.LASF109:
 4375 063e 706F7274 		.ascii	"port_unlock_from_isr\000"
 4375      5F756E6C 
 4375      6F636B5F 
 4375      66726F6D 
 4375      5F697372 
 4376              	.LASF28:
 4377 0653 74687265 		.ascii	"thread_t\000"
 4377      61645F74 
 4377      00
 4378              	.LASF121:
 4379 065c 71756575 		.ascii	"queue_fifo_remove\000"
 4379      655F6669 
 4379      666F5F72 
 4379      656D6F76 
 4379      6500
 4380              	.LASF27:
 4381 066e 73797374 		.ascii	"systime_t\000"
 4381      696D655F 
 4381      7400
 4382              	.LASF46:
 4383 0678 705F7265 		.ascii	"p_realprio\000"
 4383      616C7072 
 4383      696F00
 4384              	.LASF62:
 4385 0683 76746675 		.ascii	"vtfunc_t\000"
 4385      6E635F74 
 4385      00
 4386              	.LASF9:
 4387 068c 5F5F7569 		.ascii	"__uint32_t\000"
ARM GAS  /var/folders/m4/4md61f0s1_g0rzfghffqnxvr0000gn/T//ccYSFrIo.s 			page 83


 4387      6E743332 
 4387      5F7400
 4388              	.LASF112:
 4389 0697 5F5F7365 		.ascii	"__set_BASEPRI\000"
 4389      745F4241 
 4389      53455052 
 4389      4900
 4390              	.LASF75:
 4391 06a5 70616E69 		.ascii	"panic_msg\000"
 4391      635F6D73 
 4391      6700
 4392              	.LASF87:
 4393 06af 6F666673 		.ascii	"offset\000"
 4393      657400
 4394              	.LASF85:
 4395 06b6 636F6E74 		.ascii	"context\000"
 4395      65787400 
 4396              	.LASF18:
 4397 06be 7274636E 		.ascii	"rtcnt_t\000"
 4397      745F7400 
 4398              	.LASF108:
 4399 06c6 706F7274 		.ascii	"port_lock_from_isr\000"
 4399      5F6C6F63 
 4399      6B5F6672 
 4399      6F6D5F69 
 4399      737200
 4400              	.LASF69:
 4401 06d9 76745F70 		.ascii	"vt_par\000"
 4401      617200
 4402              	.LASF52:
 4403 06e0 74687265 		.ascii	"threads_queue_t\000"
 4403      6164735F 
 4403      71756575 
 4403      655F7400 
 4404              	.LASF99:
 4405 06f0 63685F6D 		.ascii	"ch_mutex\000"
 4405      75746578 
 4405      00
 4406              	.LASF38:
 4407 06f9 705F7265 		.ascii	"p_refs\000"
 4407      667300
 4408              	.LASF78:
 4409 0700 726C6973 		.ascii	"rlist\000"
 4409      7400
 4410              	.LASF14:
 4411 0706 75696E74 		.ascii	"uint8_t\000"
 4411      385F7400 
 4412              	.LASF115:
 4413 070e 63685379 		.ascii	"chSysLockFromISR\000"
 4413      734C6F63 
 4413      6B46726F 
 4413      6D495352 
 4413      00
 4414              	.LASF35:
 4415 071f 705F6E61 		.ascii	"p_name\000"
 4415      6D6500
 4416              	.LASF72:
ARM GAS  /var/folders/m4/4md61f0s1_g0rzfghffqnxvr0000gn/T//ccYSFrIo.s 			page 84


 4417 0726 76745F73 		.ascii	"vt_systime\000"
 4417      79737469 
 4417      6D6500
 4418              	.LASF127:
 4419 0731 63685363 		.ascii	"chSchGoSleepTimeoutS\000"
 4419      68476F53 
 4419      6C656570 
 4419      54696D65 
 4419      6F757453 
 4420              	.LASF141:
 4421 0746 63685363 		.ascii	"chSchIsRescRequiredI\000"
 4421      68497352 
 4421      65736352 
 4421      65717569 
 4421      72656449 
 4422              	.LASF43:
 4423 075b 705F6D73 		.ascii	"p_msg\000"
 4423      6700
 4424              	.LASF101:
 4425 0761 6D5F6F77 		.ascii	"m_owner\000"
 4425      6E657200 
 4426              	.LASF32:
 4427 0769 705F6374 		.ascii	"p_ctx\000"
 4427      7800
 4428              	.LASF68:
 4429 076f 76745F66 		.ascii	"vt_func\000"
 4429      756E6300 
 4430              		.ident	"GCC: (GNU Tools for ARM Embedded Processors) 5.2.1 20151202 (release) [ARM/embedded-5-bran
ARM GAS  /var/folders/m4/4md61f0s1_g0rzfghffqnxvr0000gn/T//ccYSFrIo.s 			page 85


DEFINED SYMBOLS
                            *ABS*:0000000000000000 chschd.c
/var/folders/m4/4md61f0s1_g0rzfghffqnxvr0000gn/T//ccYSFrIo.s:22     .text.wakeup:0000000000000000 $t
/var/folders/m4/4md61f0s1_g0rzfghffqnxvr0000gn/T//ccYSFrIo.s:27     .text.wakeup:0000000000000000 wakeup
/var/folders/m4/4md61f0s1_g0rzfghffqnxvr0000gn/T//ccYSFrIo.s:65     .text.wakeup:0000000000000012 $d
/var/folders/m4/4md61f0s1_g0rzfghffqnxvr0000gn/T//ccYSFrIo.s:73     .text.wakeup:000000000000001a $t
/var/folders/m4/4md61f0s1_g0rzfghffqnxvr0000gn/T//ccYSFrIo.s:235    .text.wakeup:000000000000006c $d
/var/folders/m4/4md61f0s1_g0rzfghffqnxvr0000gn/T//ccYSFrIo.s:240    .text._scheduler_init:0000000000000000 $t
/var/folders/m4/4md61f0s1_g0rzfghffqnxvr0000gn/T//ccYSFrIo.s:246    .text._scheduler_init:0000000000000000 _scheduler_init
/var/folders/m4/4md61f0s1_g0rzfghffqnxvr0000gn/T//ccYSFrIo.s:281    .text._scheduler_init:0000000000000010 $d
/var/folders/m4/4md61f0s1_g0rzfghffqnxvr0000gn/T//ccYSFrIo.s:286    .text.chSchReadyI:0000000000000000 $t
/var/folders/m4/4md61f0s1_g0rzfghffqnxvr0000gn/T//ccYSFrIo.s:292    .text.chSchReadyI:0000000000000000 chSchReadyI
/var/folders/m4/4md61f0s1_g0rzfghffqnxvr0000gn/T//ccYSFrIo.s:343    .text.chSchReadyI:0000000000000028 $d
/var/folders/m4/4md61f0s1_g0rzfghffqnxvr0000gn/T//ccYSFrIo.s:348    .text.chSchGoSleepS:0000000000000000 $t
/var/folders/m4/4md61f0s1_g0rzfghffqnxvr0000gn/T//ccYSFrIo.s:354    .text.chSchGoSleepS:0000000000000000 chSchGoSleepS
/var/folders/m4/4md61f0s1_g0rzfghffqnxvr0000gn/T//ccYSFrIo.s:415    .text.chSchGoSleepS:0000000000000024 $d
/var/folders/m4/4md61f0s1_g0rzfghffqnxvr0000gn/T//ccYSFrIo.s:420    .text.chSchGoSleepTimeoutS:0000000000000000 $t
/var/folders/m4/4md61f0s1_g0rzfghffqnxvr0000gn/T//ccYSFrIo.s:426    .text.chSchGoSleepTimeoutS:0000000000000000 chSchGoSleepTimeoutS
/var/folders/m4/4md61f0s1_g0rzfghffqnxvr0000gn/T//ccYSFrIo.s:496    .text.chSchGoSleepTimeoutS:000000000000003c $d
/var/folders/m4/4md61f0s1_g0rzfghffqnxvr0000gn/T//ccYSFrIo.s:502    .text.chSchWakeupS:0000000000000000 $t
/var/folders/m4/4md61f0s1_g0rzfghffqnxvr0000gn/T//ccYSFrIo.s:508    .text.chSchWakeupS:0000000000000000 chSchWakeupS
/var/folders/m4/4md61f0s1_g0rzfghffqnxvr0000gn/T//ccYSFrIo.s:639    .text.chSchWakeupS:0000000000000054 $d
/var/folders/m4/4md61f0s1_g0rzfghffqnxvr0000gn/T//ccYSFrIo.s:645    .text.chSchIsPreemptionRequired:0000000000000000 $t
/var/folders/m4/4md61f0s1_g0rzfghffqnxvr0000gn/T//ccYSFrIo.s:651    .text.chSchIsPreemptionRequired:0000000000000000 chSchIsPreemptionRequired
/var/folders/m4/4md61f0s1_g0rzfghffqnxvr0000gn/T//ccYSFrIo.s:694    .text.chSchIsPreemptionRequired:0000000000000024 $d
/var/folders/m4/4md61f0s1_g0rzfghffqnxvr0000gn/T//ccYSFrIo.s:699    .text.chSchDoRescheduleBehind:0000000000000000 $t
/var/folders/m4/4md61f0s1_g0rzfghffqnxvr0000gn/T//ccYSFrIo.s:705    .text.chSchDoRescheduleBehind:0000000000000000 chSchDoRescheduleBehind
/var/folders/m4/4md61f0s1_g0rzfghffqnxvr0000gn/T//ccYSFrIo.s:807    .text.chSchDoRescheduleBehind:000000000000003c $d
/var/folders/m4/4md61f0s1_g0rzfghffqnxvr0000gn/T//ccYSFrIo.s:812    .text.chSchDoRescheduleAhead:0000000000000000 $t
/var/folders/m4/4md61f0s1_g0rzfghffqnxvr0000gn/T//ccYSFrIo.s:818    .text.chSchDoRescheduleAhead:0000000000000000 chSchDoRescheduleAhead
/var/folders/m4/4md61f0s1_g0rzfghffqnxvr0000gn/T//ccYSFrIo.s:900    .text.chSchDoRescheduleAhead:0000000000000038 $d
/var/folders/m4/4md61f0s1_g0rzfghffqnxvr0000gn/T//ccYSFrIo.s:905    .text.chSchRescheduleS:0000000000000000 $t
/var/folders/m4/4md61f0s1_g0rzfghffqnxvr0000gn/T//ccYSFrIo.s:911    .text.chSchRescheduleS:0000000000000000 chSchRescheduleS
/var/folders/m4/4md61f0s1_g0rzfghffqnxvr0000gn/T//ccYSFrIo.s:939    .text.chSchRescheduleS:0000000000000014 $d
/var/folders/m4/4md61f0s1_g0rzfghffqnxvr0000gn/T//ccYSFrIo.s:944    .text.chSchDoReschedule:0000000000000000 $t
/var/folders/m4/4md61f0s1_g0rzfghffqnxvr0000gn/T//ccYSFrIo.s:950    .text.chSchDoReschedule:0000000000000000 chSchDoReschedule
/var/folders/m4/4md61f0s1_g0rzfghffqnxvr0000gn/T//ccYSFrIo.s:972    .text.chSchDoReschedule:0000000000000010 $d
/var/folders/m4/4md61f0s1_g0rzfghffqnxvr0000gn/T//ccYSFrIo.s:982    .bss.ch:0000000000000000 ch
/var/folders/m4/4md61f0s1_g0rzfghffqnxvr0000gn/T//ccYSFrIo.s:978    .bss.ch:0000000000000000 $d
                     .debug_frame:0000000000000010 $d

UNDEFINED SYMBOLS
_port_switch
chVTDoSetI
chVTDoResetI
