ARM GAS  /var/folders/m4/4md61f0s1_g0rzfghffqnxvr0000gn/T//ccrOlAhw.s 			page 1


   1              		.syntax unified
   2              		.cpu cortex-m4
   3              		.eabi_attribute 27, 1
   4              		.eabi_attribute 28, 1
   5              		.fpu fpv4-sp-d16
   6              		.eabi_attribute 20, 1
   7              		.eabi_attribute 21, 1
   8              		.eabi_attribute 23, 3
   9              		.eabi_attribute 24, 1
  10              		.eabi_attribute 25, 1
  11              		.eabi_attribute 26, 1
  12              		.eabi_attribute 30, 2
  13              		.eabi_attribute 34, 1
  14              		.eabi_attribute 18, 4
  15              		.thumb
  16              		.syntax unified
  17              		.file	"chtm.c"
  18              		.text
  19              	.Ltext0:
  20              		.cfi_sections	.debug_frame
  21              		.section	.text.chTMObjectInit,"ax",%progbits
  22              		.align	2
  23              		.p2align 4,,15
  24              		.global	chTMObjectInit
  25              		.thumb
  26              		.thumb_func
  27              		.type	chTMObjectInit, %function
  28              	chTMObjectInit:
  29              	.LFB233:
  30              		.file 1 "ChibiOS_16.1.4/os/rt/src/chtm.c"
  31              		.loc 1 97 0
  32              		.cfi_startproc
  33              		@ args = 0, pretend = 0, frame = 0
  34              		@ frame_needed = 0, uses_anonymous_args = 0
  35              		@ link register save eliminated.
  36              	.LVL0:
  37              		.loc 1 103 0
  38 0000 0022     		movs	r2, #0
  39 0002 0023     		movs	r3, #0
  40 0004 C0E90423 		strd	r2, [r0, #16]
  41              		.loc 1 100 0
  42 0008 0023     		movs	r3, #0
  43 000a 4FF0FF32 		mov	r2, #-1
  44 000e 80E80C00 		stmia	r0, {r2, r3}
  45              		.loc 1 101 0
  46 0012 8360     		str	r3, [r0, #8]
  47              		.loc 1 102 0
  48 0014 C360     		str	r3, [r0, #12]
  49 0016 7047     		bx	lr
  50              		.cfi_endproc
  51              	.LFE233:
  52              		.size	chTMObjectInit, .-chTMObjectInit
  53              		.section	.text.chTMStartMeasurementX,"ax",%progbits
  54              		.align	2
  55              		.p2align 4,,15
  56              		.global	chTMStartMeasurementX
  57              		.thumb
ARM GAS  /var/folders/m4/4md61f0s1_g0rzfghffqnxvr0000gn/T//ccrOlAhw.s 			page 2


  58              		.thumb_func
  59              		.type	chTMStartMeasurementX, %function
  60              	chTMStartMeasurementX:
  61              	.LFB234:
  62              		.loc 1 114 0
  63              		.cfi_startproc
  64              		@ args = 0, pretend = 0, frame = 0
  65              		@ frame_needed = 0, uses_anonymous_args = 0
  66              		@ link register save eliminated.
  67              	.LVL1:
  68              	.LBB14:
  69              	.LBB15:
  70              		.file 2 "ChibiOS_16.1.4/os/rt/ports/ARMCMx/chcore_v7m.h"
  71              		.loc 2 570 0
  72 0000 014B     		ldr	r3, .L3
  73 0002 5B68     		ldr	r3, [r3, #4]
  74              	.LBE15:
  75              	.LBE14:
  76              		.loc 1 116 0
  77 0004 8360     		str	r3, [r0, #8]
  78 0006 7047     		bx	lr
  79              	.L4:
  80              		.align	2
  81              	.L3:
  82 0008 001000E0 		.word	-536866816
  83              		.cfi_endproc
  84              	.LFE234:
  85              		.size	chTMStartMeasurementX, .-chTMStartMeasurementX
  86              		.section	.text.chTMStopMeasurementX,"ax",%progbits
  87              		.align	2
  88              		.p2align 4,,15
  89              		.global	chTMStopMeasurementX
  90              		.thumb
  91              		.thumb_func
  92              		.type	chTMStopMeasurementX, %function
  93              	chTMStopMeasurementX:
  94              	.LFB235:
  95              		.loc 1 127 0
  96              		.cfi_startproc
  97              		@ args = 0, pretend = 0, frame = 0
  98              		@ frame_needed = 0, uses_anonymous_args = 0
  99              		@ link register save eliminated.
 100              	.LVL2:
 101              	.LBB16:
 102              	.LBB17:
 103              		.loc 2 570 0
 104 0000 0E4B     		ldr	r3, .L10
 105              	.LBE17:
 106              	.LBE16:
 107              		.loc 1 129 0
 108 0002 0F49     		ldr	r1, .L10+4
 109              	.LBB19:
 110              	.LBB18:
 111              		.loc 2 570 0
 112 0004 5A68     		ldr	r2, [r3, #4]
 113              	.LBE18:
 114              	.LBE19:
ARM GAS  /var/folders/m4/4md61f0s1_g0rzfghffqnxvr0000gn/T//ccrOlAhw.s 			page 3


 115              	.LBB20:
 116              	.LBB21:
 117              		.loc 1 58 0
 118 0006 8368     		ldr	r3, [r0, #8]
 119              	.LBE21:
 120              	.LBE20:
 121              		.loc 1 127 0
 122 0008 F0B4     		push	{r4, r5, r6, r7}
 123              		.cfi_def_cfa_offset 16
 124              		.cfi_offset 4, -16
 125              		.cfi_offset 5, -12
 126              		.cfi_offset 6, -8
 127              		.cfi_offset 7, -4
 128              		.loc 1 129 0
 129 000a 8F6F     		ldr	r7, [r1, #120]
 130              	.LVL3:
 131              	.LBB23:
 132              	.LBB22:
 133              		.loc 1 60 0
 134 000c 4168     		ldr	r1, [r0, #4]
 135              		.loc 1 57 0
 136 000e C668     		ldr	r6, [r0, #12]
 137              		.loc 1 59 0
 138 0010 D0E90445 		ldrd	r4, [r0, #16]
 139              		.loc 1 58 0
 140 0014 D31A     		subs	r3, r2, r3
 141 0016 DB1B     		subs	r3, r3, r7
 142              		.loc 1 59 0
 143 0018 E418     		adds	r4, r4, r3
 144              		.loc 1 63 0
 145 001a 0268     		ldr	r2, [r0]
 146              		.loc 1 58 0
 147 001c 8360     		str	r3, [r0, #8]
 148              		.loc 1 59 0
 149 001e 45F10005 		adc	r5, r5, #0
 150              		.loc 1 60 0
 151 0022 8B42     		cmp	r3, r1
 152              		.loc 1 57 0
 153 0024 06F10106 		add	r6, r6, #1
 154              		.loc 1 61 0
 155 0028 88BF     		it	hi
 156 002a 4360     		strhi	r3, [r0, #4]
 157              		.loc 1 63 0
 158 002c 9342     		cmp	r3, r2
 159              		.loc 1 57 0
 160 002e C660     		str	r6, [r0, #12]
 161              		.loc 1 59 0
 162 0030 C0E90445 		strd	r4, [r0, #16]
 163              		.loc 1 64 0
 164 0034 38BF     		it	cc
 165 0036 0360     		strcc	r3, [r0]
 166              	.LVL4:
 167              	.LBE22:
 168              	.LBE23:
 169              		.loc 1 130 0
 170 0038 F0BC     		pop	{r4, r5, r6, r7}
 171              		.cfi_restore 7
ARM GAS  /var/folders/m4/4md61f0s1_g0rzfghffqnxvr0000gn/T//ccrOlAhw.s 			page 4


 172              		.cfi_restore 6
 173              		.cfi_restore 5
 174              		.cfi_restore 4
 175              		.cfi_def_cfa_offset 0
 176 003a 7047     		bx	lr
 177              	.L11:
 178              		.align	2
 179              	.L10:
 180 003c 001000E0 		.word	-536866816
 181 0040 00000000 		.word	ch
 182              		.cfi_endproc
 183              	.LFE235:
 184              		.size	chTMStopMeasurementX, .-chTMStopMeasurementX
 185              		.section	.text._tm_init,"ax",%progbits
 186              		.align	2
 187              		.p2align 4,,15
 188              		.global	_tm_init
 189              		.thumb
 190              		.thumb_func
 191              		.type	_tm_init, %function
 192              	_tm_init:
 193              	.LFB232:
 194              		.loc 1 77 0
 195              		.cfi_startproc
 196              		@ args = 0, pretend = 0, frame = 24
 197              		@ frame_needed = 0, uses_anonymous_args = 0
 198 0000 D0B5     		push	{r4, r6, r7, lr}
 199              		.cfi_def_cfa_offset 16
 200              		.cfi_offset 4, -16
 201              		.cfi_offset 6, -12
 202              		.cfi_offset 7, -8
 203              		.cfi_offset 14, -4
 204              		.loc 1 83 0
 205 0002 0C4C     		ldr	r4, .L14
 206              		.loc 1 77 0
 207 0004 86B0     		sub	sp, sp, #24
 208              		.cfi_def_cfa_offset 40
 209              		.loc 1 83 0
 210 0006 0023     		movs	r3, #0
 211              	.LBB24:
 212              	.LBB25:
 213              		.loc 1 99 0
 214 0008 4FF0FF32 		mov	r2, #-1
 215              	.LBE25:
 216              	.LBE24:
 217              		.loc 1 85 0
 218 000c 6846     		mov	r0, sp
 219              	.LBB28:
 220              	.LBB26:
 221              		.loc 1 103 0
 222 000e 0026     		movs	r6, #0
 223 0010 0027     		movs	r7, #0
 224              	.LBE26:
 225              	.LBE28:
 226              		.loc 1 83 0
 227 0012 A367     		str	r3, [r4, #120]
 228              	.LVL5:
ARM GAS  /var/folders/m4/4md61f0s1_g0rzfghffqnxvr0000gn/T//ccrOlAhw.s 			page 5


 229              	.LBB29:
 230              	.LBB27:
 231              		.loc 1 100 0
 232 0014 0193     		str	r3, [sp, #4]
 233              		.loc 1 101 0
 234 0016 0293     		str	r3, [sp, #8]
 235              		.loc 1 102 0
 236 0018 0393     		str	r3, [sp, #12]
 237              		.loc 1 99 0
 238 001a 0092     		str	r2, [sp]
 239              		.loc 1 103 0
 240 001c CDE90467 		strd	r6, [sp, #16]
 241              	.LVL6:
 242              	.LBE27:
 243              	.LBE29:
 244              		.loc 1 85 0
 245 0020 FFF7FEFF 		bl	chTMStartMeasurementX
 246              	.LVL7:
 247              		.loc 1 86 0
 248 0024 6846     		mov	r0, sp
 249 0026 FFF7FEFF 		bl	chTMStopMeasurementX
 250              	.LVL8:
 251              		.loc 1 87 0
 252 002a 029B     		ldr	r3, [sp, #8]
 253 002c A367     		str	r3, [r4, #120]
 254              		.loc 1 88 0
 255 002e 06B0     		add	sp, sp, #24
 256              		.cfi_def_cfa_offset 16
 257              		@ sp needed
 258 0030 D0BD     		pop	{r4, r6, r7, pc}
 259              	.L15:
 260 0032 00BF     		.align	2
 261              	.L14:
 262 0034 00000000 		.word	ch
 263              		.cfi_endproc
 264              	.LFE232:
 265              		.size	_tm_init, .-_tm_init
 266              		.section	.text.chTMChainMeasurementToX,"ax",%progbits
 267              		.align	2
 268              		.p2align 4,,15
 269              		.global	chTMChainMeasurementToX
 270              		.thumb
 271              		.thumb_func
 272              		.type	chTMChainMeasurementToX, %function
 273              	chTMChainMeasurementToX:
 274              	.LFB236:
 275              		.loc 1 145 0
 276              		.cfi_startproc
 277              		@ args = 0, pretend = 0, frame = 0
 278              		@ frame_needed = 0, uses_anonymous_args = 0
 279              		@ link register save eliminated.
 280              	.LVL9:
 281              	.LBB30:
 282              	.LBB31:
 283              		.loc 2 570 0
 284 0000 0D4B     		ldr	r3, .L20
 285              	.LBE31:
ARM GAS  /var/folders/m4/4md61f0s1_g0rzfghffqnxvr0000gn/T//ccrOlAhw.s 			page 6


 286              	.LBE30:
 287              	.LBB33:
 288              	.LBB34:
 289              		.loc 1 60 0
 290 0002 4268     		ldr	r2, [r0, #4]
 291              	.LBE34:
 292              	.LBE33:
 293              	.LBB36:
 294              	.LBB32:
 295              		.loc 2 570 0
 296 0004 5B68     		ldr	r3, [r3, #4]
 297              	.LBE32:
 298              	.LBE36:
 299              		.loc 1 145 0
 300 0006 70B4     		push	{r4, r5, r6}
 301              		.cfi_def_cfa_offset 12
 302              		.cfi_offset 4, -12
 303              		.cfi_offset 5, -8
 304              		.cfi_offset 6, -4
 305              		.loc 1 148 0
 306 0008 8B60     		str	r3, [r1, #8]
 307              	.LVL10:
 308              	.LBB37:
 309              	.LBB35:
 310              		.loc 1 58 0
 311 000a 8668     		ldr	r6, [r0, #8]
 312              		.loc 1 57 0
 313 000c C168     		ldr	r1, [r0, #12]
 314              	.LVL11:
 315              		.loc 1 59 0
 316 000e D0E90445 		ldrd	r4, [r0, #16]
 317              		.loc 1 58 0
 318 0012 9B1B     		subs	r3, r3, r6
 319              	.LVL12:
 320              		.loc 1 59 0
 321 0014 E418     		adds	r4, r4, r3
 322 0016 45F10005 		adc	r5, r5, #0
 323              		.loc 1 60 0
 324 001a 9342     		cmp	r3, r2
 325              		.loc 1 63 0
 326 001c 0268     		ldr	r2, [r0]
 327              		.loc 1 61 0
 328 001e 88BF     		it	hi
 329 0020 4360     		strhi	r3, [r0, #4]
 330              		.loc 1 57 0
 331 0022 0131     		adds	r1, r1, #1
 332              		.loc 1 63 0
 333 0024 9342     		cmp	r3, r2
 334              		.loc 1 59 0
 335 0026 C0E90445 		strd	r4, [r0, #16]
 336              		.loc 1 57 0
 337 002a C160     		str	r1, [r0, #12]
 338              		.loc 1 58 0
 339 002c 8360     		str	r3, [r0, #8]
 340              	.LVL13:
 341              		.loc 1 64 0
 342 002e 38BF     		it	cc
ARM GAS  /var/folders/m4/4md61f0s1_g0rzfghffqnxvr0000gn/T//ccrOlAhw.s 			page 7


 343 0030 0360     		strcc	r3, [r0]
 344              	.LVL14:
 345              	.LBE35:
 346              	.LBE37:
 347              		.loc 1 152 0
 348 0032 70BC     		pop	{r4, r5, r6}
 349              		.cfi_restore 6
 350              		.cfi_restore 5
 351              		.cfi_restore 4
 352              		.cfi_def_cfa_offset 0
 353 0034 7047     		bx	lr
 354              	.L21:
 355 0036 00BF     		.align	2
 356              	.L20:
 357 0038 001000E0 		.word	-536866816
 358              		.cfi_endproc
 359              	.LFE236:
 360              		.size	chTMChainMeasurementToX, .-chTMChainMeasurementToX
 361              		.text
 362              	.Letext0:
 363              		.file 3 "/opt/homebrew-cask/Caskroom/gcc-arm-embedded/5_2-2015q4,20151219/gcc-arm-none-eabi-5_2-20
 364              		.file 4 "/opt/homebrew-cask/Caskroom/gcc-arm-embedded/5_2-2015q4,20151219/gcc-arm-none-eabi-5_2-20
 365              		.file 5 "ChibiOS_16.1.4/os/rt/ports/ARMCMx/compilers/GCC/chtypes.h"
 366              		.file 6 "ChibiOS_16.1.4/os/rt/include/chsystypes.h"
 367              		.file 7 "ChibiOS_16.1.4/os/rt/include/chschd.h"
 368              		.file 8 "ChibiOS_16.1.4/os/ext/CMSIS/include/core_cm4.h"
 369              		.file 9 "ChibiOS_16.1.4/os/rt/ports/ARMCMx/chcore.h"
 370              		.file 10 "ChibiOS_16.1.4/os/rt/include/chtm.h"
 371              		.file 11 "ChibiOS_16.1.4/os/rt/include/chsem.h"
 372              		.file 12 "ChibiOS_16.1.4/os/rt/include/chmtx.h"