ARM GAS  /var/folders/m4/4md61f0s1_g0rzfghffqnxvr0000gn/T//ccdcdiJ6.s 			page 1


   1              		.syntax unified
   2              		.cpu cortex-m4
   3              		.eabi_attribute 27, 1
   4              		.eabi_attribute 28, 1
   5              		.fpu fpv4-sp-d16
   6              		.eabi_attribute 20, 1
   7              		.eabi_attribute 21, 1
   8              		.eabi_attribute 23, 3
   9              		.eabi_attribute 24, 1
  10              		.eabi_attribute 25, 1
  11              		.eabi_attribute 26, 1
  12              		.eabi_attribute 30, 2
  13              		.eabi_attribute 34, 1
  14              		.eabi_attribute 18, 4
  15              		.thumb
  16              		.syntax unified
  17              		.file	"comm_usb.c"
  18              		.text
  19              	.Ltext0:
  20              		.cfi_sections	.debug_frame
  21              		.section	.text.get_descriptor,"ax",%progbits
  22              		.align	2
  23              		.p2align 4,,15
  24              		.thumb
  25              		.thumb_func
  26              		.type	get_descriptor, %function
  27              	get_descriptor:
  28              	.LFB268:
  29              		.file 1 "comm_usb.c"
  30              		.loc 1 187 0
  31              		.cfi_startproc
  32              		@ args = 0, pretend = 0, frame = 0
  33              		@ frame_needed = 0, uses_anonymous_args = 0
  34              		@ link register save eliminated.
  35              	.LVL0:
  36              		.loc 1 191 0
  37 0000 0229     		cmp	r1, #2
  38 0002 06D0     		beq	.L3
  39 0004 0329     		cmp	r1, #3
  40 0006 06D0     		beq	.L4
  41 0008 0129     		cmp	r1, #1
  42              		.loc 1 200 0
  43 000a 0648     		ldr	r0, .L9
  44              	.LVL1:
  45 000c 18BF     		it	ne
  46 000e 0020     		movne	r0, #0
  47 0010 7047     		bx	lr
  48              	.LVL2:
  49              	.L3:
  50              		.loc 1 195 0
  51 0012 0548     		ldr	r0, .L9+4
  52              	.LVL3:
  53 0014 7047     		bx	lr
  54              	.LVL4:
  55              	.L4:
  56              		.loc 1 197 0
  57 0016 032A     		cmp	r2, #3
ARM GAS  /var/folders/m4/4md61f0s1_g0rzfghffqnxvr0000gn/T//ccdcdiJ6.s 			page 2


  58              		.loc 1 198 0
  59 0018 9ABF     		itte	ls
  60 001a 044B     		ldrls	r3, .L9+8
  61              	.LVL5:
  62 001c 03EBC200 		addls	r0, r3, r2, lsl #3
  63              	.LVL6:
  64              		.loc 1 200 0
  65 0020 0020     		movhi	r0, #0
  66              		.loc 1 201 0
  67 0022 7047     		bx	lr
  68              	.L10:
  69              		.align	2
  70              	.L9:
  71 0024 00000000 		.word	.LANCHOR0
  72 0028 00000000 		.word	.LANCHOR1
  73 002c 00000000 		.word	.LANCHOR2
  74              		.cfi_endproc
  75              	.LFE268:
  76              		.size	get_descriptor, .-get_descriptor
  77              		.section	.text.sof_handler,"ax",%progbits
  78              		.align	2
  79              		.p2align 4,,15
  80              		.thumb
  81              		.thumb_func
  82              		.type	sof_handler, %function
  83              	sof_handler:
  84              	.LFB270:
  85              		.loc 1 294 0
  86              		.cfi_startproc
  87              		@ args = 0, pretend = 0, frame = 0
  88              		@ frame_needed = 0, uses_anonymous_args = 0
  89              	.LVL7:
  90 0000 08B5     		push	{r3, lr}
  91              		.cfi_def_cfa_offset 8
  92              		.cfi_offset 3, -8
  93              		.cfi_offset 14, -4
  94              	.LBB94:
  95              	.LBB95:
  96              	.LBB96:
  97              	.LBB97:
  98              	.LBB98:
  99              	.LBB99:
 100              		.file 2 "ChibiOS_16.1.4/os/ext/CMSIS/include/core_cmFunc.h"
 101              		.loc 2 548 0
 102 0002 2023     		movs	r3, #32
 103              		.syntax unified
 104              	@ 548 "ChibiOS_16.1.4/os/ext/CMSIS/include/core_cmFunc.h" 1
 105 0004 83F31188 		MSR basepri, r3
 106              	@ 0 "" 2
 107              	.LVL8:
 108              		.thumb
 109              		.syntax unified
 110              	.LBE99:
 111              	.LBE98:
 112              	.LBE97:
 113              	.LBE96:
 114              	.LBE95:
ARM GAS  /var/folders/m4/4md61f0s1_g0rzfghffqnxvr0000gn/T//ccdcdiJ6.s 			page 3


 115              	.LBE94:
 116              		.loc 1 299 0
 117 0008 0348     		ldr	r0, .L13
 118              	.LVL9:
 119 000a FFF7FEFF 		bl	sduSOFHookI
 120              	.LVL10:
 121              	.LBB100:
 122              	.LBB101:
 123              	.LBB102:
 124              	.LBB103:
 125              	.LBB104:
 126              	.LBB105:
 127              		.loc 2 548 0
 128 000e 0023     		movs	r3, #0
 129              		.syntax unified
 130              	@ 548 "ChibiOS_16.1.4/os/ext/CMSIS/include/core_cmFunc.h" 1
 131 0010 83F31188 		MSR basepri, r3
 132              	@ 0 "" 2
 133              	.LVL11:
 134              		.thumb
 135              		.syntax unified
 136 0014 08BD     		pop	{r3, pc}
 137              	.L14:
 138 0016 00BF     		.align	2
 139              	.L13:
 140 0018 00000000 		.word	.LANCHOR3
 141              	.LBE105:
 142              	.LBE104:
 143              	.LBE103:
 144              	.LBE102:
 145              	.LBE101:
 146              	.LBE100:
 147              		.cfi_endproc
 148              	.LFE270:
 149              		.size	sof_handler, .-sof_handler
 150              		.section	.text.usb_event,"ax",%progbits
 151              		.align	2
 152              		.p2align 4,,15
 153              		.thumb
 154              		.thumb_func
 155              		.type	usb_event, %function
 156              	usb_event:
 157              	.LFB269:
 158              		.loc 1 253 0
 159              		.cfi_startproc
 160              		@ args = 0, pretend = 0, frame = 0
 161              		@ frame_needed = 0, uses_anonymous_args = 0
 162              	.LVL12:
 163              		.loc 1 256 0
 164 0000 0229     		cmp	r1, #2
 165              		.loc 1 253 0
 166 0002 38B5     		push	{r3, r4, r5, lr}
 167              		.cfi_def_cfa_offset 16
 168              		.cfi_offset 3, -16
 169              		.cfi_offset 4, -12
 170              		.cfi_offset 5, -8
 171              		.cfi_offset 14, -4
ARM GAS  /var/folders/m4/4md61f0s1_g0rzfghffqnxvr0000gn/T//ccdcdiJ6.s 			page 4


 172              		.loc 1 253 0
 173 0004 0C46     		mov	r4, r1
 174              		.loc 1 256 0
 175 0006 0CD0     		beq	.L17
 176 0008 0329     		cmp	r1, #3
 177 000a 09D1     		bne	.L20
 178              	.LVL13:
 179              	.LBB138:
 180              	.LBB139:
 181              	.LBB140:
 182              	.LBB141:
 183              	.LBB142:
 184              		.loc 2 548 0
 185 000c 2023     		movs	r3, #32
 186              		.syntax unified
 187              	@ 548 "ChibiOS_16.1.4/os/ext/CMSIS/include/core_cmFunc.h" 1
 188 000e 83F31188 		MSR basepri, r3
 189              	@ 0 "" 2
 190              	.LVL14:
 191              		.thumb
 192              		.syntax unified
 193              	.LBE142:
 194              	.LBE141:
 195              	.LBE140:
 196              	.LBE139:
 197              	.LBE138:
 198              		.loc 1 279 0
 199 0012 0E48     		ldr	r0, .L21
 200              	.LVL15:
 201 0014 FFF7FEFF 		bl	sduDisconnectI
 202              	.LVL16:
 203              	.LBB143:
 204              	.LBB144:
 205              	.LBB145:
 206              	.LBB146:
 207              	.LBB147:
 208              		.loc 2 548 0
 209 0018 0023     		movs	r3, #0
 210              		.syntax unified
 211              	@ 548 "ChibiOS_16.1.4/os/ext/CMSIS/include/core_cmFunc.h" 1
 212 001a 83F31188 		MSR basepri, r3
 213              	@ 0 "" 2
 214              	.LVL17:
 215              		.thumb
 216              		.syntax unified
 217 001e 38BD     		pop	{r3, r4, r5, pc}
 218              	.LVL18:
 219              	.L20:
 220 0020 38BD     		pop	{r3, r4, r5, pc}
 221              	.L17:
 222 0022 0546     		mov	r5, r0
 223              	.LVL19:
 224              	.LBE147:
 225              	.LBE146:
 226              	.LBE145:
 227              	.LBE144:
 228              	.LBE143:
ARM GAS  /var/folders/m4/4md61f0s1_g0rzfghffqnxvr0000gn/T//ccdcdiJ6.s 			page 5


 229              	.LBB148:
 230              	.LBB149:
 231              	.LBB150:
 232              	.LBB151:
 233              	.LBB152:
 234              	.LBB153:
 235              	.LBB154:
 236 0024 2023     		movs	r3, #32
 237              		.syntax unified
 238              	@ 548 "ChibiOS_16.1.4/os/ext/CMSIS/include/core_cmFunc.h" 1
 239 0026 83F31188 		MSR basepri, r3
 240              	@ 0 "" 2
 241              	.LVL20:
 242              		.thumb
 243              		.syntax unified
 244              	.LBE154:
 245              	.LBE153:
 246              	.LBE152:
 247              	.LBE151:
 248              	.LBE150:
 249              		.loc 1 267 0
 250 002a 094A     		ldr	r2, .L21+4
 251 002c 0121     		movs	r1, #1
 252              	.LVL21:
 253 002e FFF7FEFF 		bl	usbInitEndpointI
 254              	.LVL22:
 255              		.loc 1 268 0
 256 0032 2146     		mov	r1, r4
 257 0034 2846     		mov	r0, r5
 258 0036 074A     		ldr	r2, .L21+8
 259 0038 FFF7FEFF 		bl	usbInitEndpointI
 260              	.LVL23:
 261              		.loc 1 271 0
 262 003c 0348     		ldr	r0, .L21
 263 003e FFF7FEFF 		bl	sduConfigureHookI
 264              	.LVL24:
 265              	.LBB155:
 266              	.LBB156:
 267              	.LBB157:
 268              	.LBB158:
 269              	.LBB159:
 270              		.loc 2 548 0
 271 0042 0023     		movs	r3, #0
 272              		.syntax unified
 273              	@ 548 "ChibiOS_16.1.4/os/ext/CMSIS/include/core_cmFunc.h" 1
 274 0044 83F31188 		MSR basepri, r3
 275              	@ 0 "" 2
 276              	.LVL25:
 277              		.thumb
 278              		.syntax unified
 279 0048 38BD     		pop	{r3, r4, r5, pc}
 280              	.LVL26:
 281              	.L22:
 282 004a 00BF     		.align	2
 283              	.L21:
 284 004c 00000000 		.word	.LANCHOR3
 285 0050 00000000 		.word	.LANCHOR4
ARM GAS  /var/folders/m4/4md61f0s1_g0rzfghffqnxvr0000gn/T//ccdcdiJ6.s 			page 6


 286 0054 00000000 		.word	.LANCHOR5
 287              	.LBE159:
 288              	.LBE158:
 289              	.LBE157:
 290              	.LBE156:
 291              	.LBE155:
 292              	.LBE149:
 293              	.LBE148:
 294              		.cfi_endproc
 295              	.LFE269:
 296              		.size	usb_event, .-usb_event
 297              		.section	.text.comm_usb_serial_init,"ax",%progbits
 298              		.align	2
 299              		.p2align 4,,15
 300              		.global	comm_usb_serial_init
 301              		.thumb
 302              		.thumb_func
 303              		.type	comm_usb_serial_init, %function
 304              	comm_usb_serial_init:
 305              	.LFB271:
 306              		.loc 1 323 0
 307              		.cfi_startproc
 308              		@ args = 0, pretend = 0, frame = 0
 309              		@ frame_needed = 0, uses_anonymous_args = 0
 310 0000 70B5     		push	{r4, r5, r6, lr}
 311              		.cfi_def_cfa_offset 16
 312              		.cfi_offset 4, -16
 313              		.cfi_offset 5, -12
 314              		.cfi_offset 6, -8
 315              		.cfi_offset 14, -4
 316              		.loc 1 324 0
 317 0002 154E     		ldr	r6, .L25
 318              		.loc 1 326 0
 319 0004 154D     		ldr	r5, .L25+4
 320              		.loc 1 334 0
 321 0006 164C     		ldr	r4, .L25+8
 322              		.loc 1 324 0
 323 0008 3046     		mov	r0, r6
 324 000a 40F20252 		movw	r2, #1282
 325 000e 4FF40061 		mov	r1, #2048
 326 0012 FFF7FEFF 		bl	_pal_lld_setgroupmode
 327              	.LVL27:
 328              		.loc 1 325 0
 329 0016 40F20252 		movw	r2, #1282
 330 001a 4FF48051 		mov	r1, #4096
 331 001e 3046     		mov	r0, r6
 332 0020 FFF7FEFF 		bl	_pal_lld_setgroupmode
 333              	.LVL28:
 334              		.loc 1 326 0
 335 0024 2846     		mov	r0, r5
 336 0026 FFF7FEFF 		bl	sduObjectInit
 337              	.LVL29:
 338              		.loc 1 327 0
 339 002a 0E49     		ldr	r1, .L25+12
 340 002c 2846     		mov	r0, r5
 341 002e FFF7FEFF 		bl	sduStart
 342              	.LVL30:
ARM GAS  /var/folders/m4/4md61f0s1_g0rzfghffqnxvr0000gn/T//ccdcdiJ6.s 			page 7


 343              		.loc 1 334 0
 344 0032 226D     		ldr	r2, [r4, #80]
 345 0034 936B     		ldr	r3, [r2, #56]
 346 0036 23F40023 		bic	r3, r3, #524288
 347 003a 9363     		str	r3, [r2, #56]
 348              		.loc 1 335 0
 349 003c 43F69820 		movw	r0, #15000
 350 0040 FFF7FEFF 		bl	chThdSleep
 351              	.LVL31:
 352              		.loc 1 336 0
 353 0044 2046     		mov	r0, r4
 354 0046 0849     		ldr	r1, .L25+16
 355 0048 FFF7FEFF 		bl	usbStart
 356              	.LVL32:
 357              		.loc 1 337 0
 358 004c 226D     		ldr	r2, [r4, #80]
 359 004e 936B     		ldr	r3, [r2, #56]
 360 0050 43F40023 		orr	r3, r3, #524288
 361 0054 9363     		str	r3, [r2, #56]
 362 0056 70BD     		pop	{r4, r5, r6, pc}
 363              	.L26:
 364              		.align	2
 365              	.L25:
 366 0058 00000240 		.word	1073872896
 367 005c 00000000 		.word	.LANCHOR3
 368 0060 00000000 		.word	USBD1
 369 0064 00000000 		.word	.LANCHOR6
 370 0068 00000000 		.word	.LANCHOR7
 371              		.cfi_endproc
 372              	.LFE271:
 373              		.size	comm_usb_serial_init, .-comm_usb_serial_init
 374              		.section	.text.comm_usb_serial_is_active,"ax",%progbits
 375              		.align	2
 376              		.p2align 4,,15
 377              		.global	comm_usb_serial_is_active
 378              		.thumb
 379              		.thumb_func
 380              		.type	comm_usb_serial_is_active, %function
 381              	comm_usb_serial_is_active:
 382              	.LFB272:
 383              		.loc 1 340 0
 384              		.cfi_startproc
 385              		@ args = 0, pretend = 0, frame = 0
 386              		@ frame_needed = 0, uses_anonymous_args = 0
 387              		@ link register save eliminated.
 388              		.loc 1 341 0
 389 0000 054B     		ldr	r3, .L28
 390 0002 D3F88434 		ldr	r3, [r3, #1156]
 391 0006 1B68     		ldr	r3, [r3]
 392 0008 1878     		ldrb	r0, [r3]	@ zero_extendqisi2
 393              		.loc 1 342 0
 394 000a A0F10400 		sub	r0, #4
 395 000e B0FA80F0 		clz	r0, r0
 396 0012 4009     		lsrs	r0, r0, #5
 397 0014 7047     		bx	lr
 398              	.L29:
 399 0016 00BF     		.align	2
ARM GAS  /var/folders/m4/4md61f0s1_g0rzfghffqnxvr0000gn/T//ccdcdiJ6.s 			page 8


 400              	.L28:
 401 0018 00000000 		.word	.LANCHOR3
 402              		.cfi_endproc
 403              	.LFE272:
 404              		.size	comm_usb_serial_is_active, .-comm_usb_serial_is_active
 405              		.global	serusbcfg
 406              		.global	SDU1
 407              		.section	.rodata.ep1config,"a",%progbits
 408              		.align	2
 409              		.set	.LANCHOR4,. + 0
 410              		.type	ep1config, %object
 411              		.size	ep1config, 36
 412              	ep1config:
 413 0000 02000000 		.word	2
 414 0004 00000000 		.word	0
 415 0008 00000000 		.word	sduDataTransmitted
 416 000c 00000000 		.word	sduDataReceived
 417 0010 4000     		.short	64
 418 0012 4000     		.short	64
 419 0014 00000000 		.word	ep1instate
 420 0018 00000000 		.word	ep1outstate
 421 001c 0200     		.short	2
 422 001e 0000     		.space	2
 423 0020 00000000 		.word	0
 424              		.section	.bss.ep2instate,"aw",%nobits
 425              		.align	2
 426              		.type	ep2instate, %object
 427              		.size	ep2instate, 16
 428              	ep2instate:
 429 0000 00000000 		.space	16
 429      00000000 
 429      00000000 
 429      00000000 
 430              		.section	.bss.SDU1,"aw",%nobits
 431              		.align	2
 432              		.set	.LANCHOR3,. + 0
 433              		.type	SDU1, %object
 434              		.size	SDU1, 1160
 435              	SDU1:
 436 0000 00000000 		.space	1160
 436      00000000 
 436      00000000 
 436      00000000 
 436      00000000 
 437              		.section	.bss.ep1instate,"aw",%nobits
 438              		.align	2
 439              		.type	ep1instate, %object
 440              		.size	ep1instate, 16
 441              	ep1instate:
 442 0000 00000000 		.space	16
 442      00000000 
 442      00000000 
 442      00000000 
 443              		.section	.rodata.vcom_configuration_descriptor,"a",%progbits
 444              		.align	2
 445              		.set	.LANCHOR1,. + 0
 446              		.type	vcom_configuration_descriptor, %object
ARM GAS  /var/folders/m4/4md61f0s1_g0rzfghffqnxvr0000gn/T//ccdcdiJ6.s 			page 9


 447              		.size	vcom_configuration_descriptor, 8
 448              	vcom_configuration_descriptor:
 449 0000 43000000 		.word	67
 450 0004 00000000 		.word	vcom_configuration_descriptor_data
 451              		.section	.rodata.ep2config,"a",%progbits
 452              		.align	2
 453              		.set	.LANCHOR5,. + 0
 454              		.type	ep2config, %object
 455              		.size	ep2config, 36
 456              	ep2config:
 457 0000 03000000 		.word	3
 458 0004 00000000 		.word	0
 459 0008 00000000 		.word	sduInterruptTransmitted
 460 000c 00000000 		.word	0
 461 0010 1000     		.short	16
 462 0012 0000     		.short	0
 463 0014 00000000 		.word	ep2instate
 464 0018 00000000 		.word	0
 465 001c 0100     		.short	1
 466 001e 0000     		.space	2
 467 0020 00000000 		.word	0
 468              		.section	.rodata.usbcfg,"a",%progbits
 469              		.align	2
 470              		.set	.LANCHOR7,. + 0
 471              		.type	usbcfg, %object
 472              		.size	usbcfg, 16
 473              	usbcfg:
 474 0000 00000000 		.word	usb_event
 475 0004 00000000 		.word	get_descriptor
 476 0008 00000000 		.word	sduRequestsHook
 477 000c 00000000 		.word	sof_handler
 478              		.section	.rodata.vcom_configuration_descriptor_data,"a",%progbits
 479              		.align	2
 480              		.type	vcom_configuration_descriptor_data, %object
 481              		.size	vcom_configuration_descriptor_data, 67
 482              	vcom_configuration_descriptor_data:
 483 0000 09       		.byte	9
 484 0001 02       		.byte	2
 485 0002 43       		.byte	67
 486 0003 00       		.byte	0
 487 0004 02       		.byte	2
 488 0005 01       		.byte	1
 489 0006 00       		.byte	0
 490 0007 C0       		.byte	-64
 491 0008 32       		.byte	50
 492 0009 09       		.byte	9
 493 000a 04       		.byte	4
 494 000b 00       		.byte	0
 495 000c 00       		.byte	0
 496 000d 01       		.byte	1
 497 000e 02       		.byte	2
 498 000f 02       		.byte	2
 499 0010 01       		.byte	1
 500 0011 00       		.byte	0
 501 0012 05       		.byte	5
 502 0013 24       		.byte	36
 503 0014 00       		.byte	0
ARM GAS  /var/folders/m4/4md61f0s1_g0rzfghffqnxvr0000gn/T//ccdcdiJ6.s 			page 10


 504 0015 10       		.byte	16
 505 0016 01       		.byte	1
 506 0017 05       		.byte	5
 507 0018 24       		.byte	36
 508 0019 01       		.byte	1
 509 001a 00       		.byte	0
 510 001b 01       		.byte	1
 511 001c 04       		.byte	4
 512 001d 24       		.byte	36
 513 001e 02       		.byte	2
 514 001f 02       		.byte	2
 515 0020 05       		.byte	5
 516 0021 24       		.byte	36
 517 0022 06       		.byte	6
 518 0023 00       		.byte	0
 519 0024 01       		.byte	1
 520 0025 07       		.byte	7
 521 0026 05       		.byte	5
 522 0027 82       		.byte	-126
 523 0028 03       		.byte	3
 524 0029 08       		.byte	8
 525 002a 00       		.byte	0
 526 002b FF       		.byte	-1
 527 002c 09       		.byte	9
 528 002d 04       		.byte	4
 529 002e 01       		.byte	1
 530 002f 00       		.byte	0
 531 0030 02       		.byte	2
 532 0031 0A       		.byte	10
 533 0032 00       		.byte	0
 534 0033 00       		.byte	0
 535 0034 00       		.byte	0
 536 0035 07       		.byte	7
 537 0036 05       		.byte	5
 538 0037 01       		.byte	1
 539 0038 02       		.byte	2
 540 0039 40       		.byte	64
 541 003a 00       		.byte	0
 542 003b 00       		.byte	0
 543 003c 07       		.byte	7
 544 003d 05       		.byte	5
 545 003e 81       		.byte	-127
 546 003f 02       		.byte	2
 547 0040 40       		.byte	64
 548 0041 00       		.byte	0
 549 0042 00       		.byte	0
 550              		.section	.rodata.vcom_device_descriptor_data,"a",%progbits
 551              		.align	2
 552              		.type	vcom_device_descriptor_data, %object
 553              		.size	vcom_device_descriptor_data, 18
 554              	vcom_device_descriptor_data:
 555 0000 12       		.byte	18
 556 0001 01       		.byte	1
 557 0002 10       		.byte	16
 558 0003 01       		.byte	1
 559 0004 02       		.byte	2
 560 0005 00       		.byte	0
ARM GAS  /var/folders/m4/4md61f0s1_g0rzfghffqnxvr0000gn/T//ccdcdiJ6.s 			page 11


 561 0006 00       		.byte	0
 562 0007 40       		.byte	64
 563 0008 83       		.byte	-125
 564 0009 04       		.byte	4
 565 000a 40       		.byte	64
 566 000b 57       		.byte	87
 567 000c 00       		.byte	0
 568 000d 02       		.byte	2
 569 000e 01       		.byte	1
 570 000f 02       		.byte	2
 571 0010 03       		.byte	3
 572 0011 01       		.byte	1
 573              		.section	.bss.ep1outstate,"aw",%nobits
 574              		.align	2
 575              		.type	ep1outstate, %object
 576              		.size	ep1outstate, 16
 577              	ep1outstate:
 578 0000 00000000 		.space	16
 578      00000000 
 578      00000000 
 578      00000000 
 579              		.section	.rodata.vcom_string0,"a",%progbits
 580              		.align	2
 581              		.type	vcom_string0, %object
 582              		.size	vcom_string0, 4
 583              	vcom_string0:
 584 0000 04       		.byte	4
 585 0001 03       		.byte	3
 586 0002 09       		.byte	9
 587 0003 04       		.byte	4
 588              		.section	.rodata.vcom_string1,"a",%progbits
 589              		.align	2
 590              		.type	vcom_string1, %object
 591              		.size	vcom_string1, 38
 592              	vcom_string1:
 593 0000 26       		.byte	38
 594 0001 03       		.byte	3
 595 0002 53       		.byte	83
 596 0003 00       		.byte	0
 597 0004 54       		.byte	84
 598 0005 00       		.byte	0
 599 0006 4D       		.byte	77
 600 0007 00       		.byte	0
 601 0008 69       		.byte	105
 602 0009 00       		.byte	0
 603 000a 63       		.byte	99
 604 000b 00       		.byte	0
 605 000c 72       		.byte	114
 606 000d 00       		.byte	0
 607 000e 6F       		.byte	111
 608 000f 00       		.byte	0
 609 0010 65       		.byte	101
 610 0011 00       		.byte	0
 611 0012 6C       		.byte	108
 612 0013 00       		.byte	0
 613 0014 65       		.byte	101
 614 0015 00       		.byte	0
ARM GAS  /var/folders/m4/4md61f0s1_g0rzfghffqnxvr0000gn/T//ccdcdiJ6.s 			page 12


 615 0016 63       		.byte	99
 616 0017 00       		.byte	0
 617 0018 74       		.byte	116
 618 0019 00       		.byte	0
 619 001a 72       		.byte	114
 620 001b 00       		.byte	0
 621 001c 6F       		.byte	111
 622 001d 00       		.byte	0
 623 001e 6E       		.byte	110
 624 001f 00       		.byte	0
 625 0020 69       		.byte	105
 626 0021 00       		.byte	0
 627 0022 63       		.byte	99
 628 0023 00       		.byte	0
 629 0024 73       		.byte	115
 630 0025 00       		.byte	0
 631              		.section	.rodata.vcom_string2,"a",%progbits
 632              		.align	2
 633              		.type	vcom_string2, %object
 634              		.size	vcom_string2, 56
 635              	vcom_string2:
 636 0000 38       		.byte	56
 637 0001 03       		.byte	3
 638 0002 43       		.byte	67
 639 0003 00       		.byte	0
 640 0004 68       		.byte	104
 641 0005 00       		.byte	0
 642 0006 69       		.byte	105
 643 0007 00       		.byte	0
 644 0008 62       		.byte	98
 645 0009 00       		.byte	0
 646 000a 69       		.byte	105
 647 000b 00       		.byte	0
 648 000c 4F       		.byte	79
 649 000d 00       		.byte	0
 650 000e 53       		.byte	83
 651 000f 00       		.byte	0
 652 0010 2F       		.byte	47
 653 0011 00       		.byte	0
 654 0012 52       		.byte	82
 655 0013 00       		.byte	0
 656 0014 54       		.byte	84
 657 0015 00       		.byte	0
 658 0016 20       		.byte	32
 659 0017 00       		.byte	0
 660 0018 56       		.byte	86
 661 0019 00       		.byte	0
 662 001a 69       		.byte	105
 663 001b 00       		.byte	0
 664 001c 72       		.byte	114
 665 001d 00       		.byte	0
 666 001e 74       		.byte	116
 667 001f 00       		.byte	0
 668 0020 75       		.byte	117
 669 0021 00       		.byte	0
 670 0022 61       		.byte	97
 671 0023 00       		.byte	0
ARM GAS  /var/folders/m4/4md61f0s1_g0rzfghffqnxvr0000gn/T//ccdcdiJ6.s 			page 13


 672 0024 6C       		.byte	108
 673 0025 00       		.byte	0
 674 0026 20       		.byte	32
 675 0027 00       		.byte	0
 676 0028 43       		.byte	67
 677 0029 00       		.byte	0
 678 002a 4F       		.byte	79
 679 002b 00       		.byte	0
 680 002c 4D       		.byte	77
 681 002d 00       		.byte	0
 682 002e 20       		.byte	32
 683 002f 00       		.byte	0
 684 0030 50       		.byte	80
 685 0031 00       		.byte	0
 686 0032 6F       		.byte	111
 687 0033 00       		.byte	0
 688 0034 72       		.byte	114
 689 0035 00       		.byte	0
 690 0036 74       		.byte	116
 691 0037 00       		.byte	0
 692              		.section	.rodata.vcom_string3,"a",%progbits
 693              		.align	2
 694              		.type	vcom_string3, %object
 695              		.size	vcom_string3, 8
 696              	vcom_string3:
 697 0000 08       		.byte	8
 698 0001 03       		.byte	3
 699 0002 33       		.byte	51
 700 0003 00       		.byte	0
 701 0004 31       		.byte	49
 702 0005 00       		.byte	0
 703 0006 33       		.byte	51
 704 0007 00       		.byte	0
 705              		.section	.rodata.vcom_strings,"a",%progbits
 706              		.align	2
 707              		.set	.LANCHOR2,. + 0
 708              		.type	vcom_strings, %object
 709              		.size	vcom_strings, 32
 710              	vcom_strings:
 711 0000 04000000 		.word	4
 712 0004 00000000 		.word	vcom_string0
 713 0008 26000000 		.word	38
 714 000c 00000000 		.word	vcom_string1
 715 0010 38000000 		.word	56
 716 0014 00000000 		.word	vcom_string2
 717 0018 08000000 		.word	8
 718 001c 00000000 		.word	vcom_string3
 719              		.section	.rodata.serusbcfg,"a",%progbits
 720              		.align	2
 721              		.set	.LANCHOR6,. + 0
 722              		.type	serusbcfg, %object
 723              		.size	serusbcfg, 8
 724              	serusbcfg:
 725 0000 00000000 		.word	USBD1
 726 0004 01       		.byte	1
 727 0005 01       		.byte	1
 728 0006 02       		.byte	2
ARM GAS  /var/folders/m4/4md61f0s1_g0rzfghffqnxvr0000gn/T//ccdcdiJ6.s 			page 14


 729 0007 00       		.space	1
 730              		.section	.rodata.vcom_device_descriptor,"a",%progbits
 731              		.align	2
 732              		.set	.LANCHOR0,. + 0
 733              		.type	vcom_device_descriptor, %object
 734              		.size	vcom_device_descriptor, 8
 735              	vcom_device_descriptor:
 736 0000 12000000 		.word	18
 737 0004 00000000 		.word	vcom_device_descriptor_data
 738              		.text
 739              	.Letext0:
 740              		.file 3 "/opt/homebrew-cask/Caskroom/gcc-arm-embedded/5_2-2015q4,20151219/gcc-arm-none-eabi-5_2-20
 741              		.file 4 "/opt/homebrew-cask/Caskroom/gcc-arm-embedded/5_2-2015q4,20151219/gcc-arm-none-eabi-5_2-20
 742              		.file 5 "/opt/homebrew-cask/Caskroom/gcc-arm-embedded/5_2-2015q4,20151219/gcc-arm-none-eabi-5_2-20
 743              		.file 6 "ChibiOS_16.1.4/os/rt/ports/ARMCMx/compilers/GCC/chtypes.h"
 744              		.file 7 "ChibiOS_16.1.4/os/rt/include/chsystypes.h"
 745              		.file 8 "ChibiOS_16.1.4/os/rt/include/chschd.h"
 746              		.file 9 "ChibiOS_16.1.4/os/rt/ports/ARMCMx/chcore.h"
 747              		.file 10 "ChibiOS_16.1.4/os/rt/ports/ARMCMx/chcore_v7m.h"
 748              		.file 11 "ChibiOS_16.1.4/os/rt/include/chtm.h"
 749              		.file 12 "ChibiOS_16.1.4/os/rt/include/chsem.h"
 750              		.file 13 "ChibiOS_16.1.4/os/rt/include/chmtx.h"
 751              		.file 14 "ChibiOS_16.1.4/os/rt/include/chevents.h"
 752              		.file 15 "ChibiOS_16.1.4/os/hal/include/hal_buffers.h"
 753              		.file 16 "ChibiOS_16.1.4/os/hal/ports/STM32/LLD/GPIOv2/pal_lld.h"
 754              		.file 17 "ChibiOS_16.1.4/os/hal/include/usb.h"
 755              		.file 18 "ChibiOS_16.1.4/os/hal/ports/STM32/LLD/OTGv1/usb_lld.h"
 756              		.file 19 "ChibiOS_16.1.4/os/hal/ports/STM32/LLD/OTGv1/stm32_otg.h"
 757              		.file 20 "ChibiOS_16.1.4/os/hal/include/serial_usb.h"
 758              		.file 21 "ChibiOS_16.1.4/os/rt/include/chsys.h"
 759              		.file 22 "ChibiOS_16.1.4/os/hal/osal/rt/osal.h"
 760              		.file 23 "ChibiOS_16.1.4/os/ext/CMSIS/include/core_cm4.h"
 761              		.file 24 "ChibiOS_16.1.4/os/rt/include/chthreads.h"