ARM GAS  /var/folders/m4/4md61f0s1_g0rzfghffqnxvr0000gn/T//ccYShlIe.s 			page 1


   1              		.syntax unified
   2              		.cpu cortex-m4
   3              		.eabi_attribute 27, 1
   4              		.eabi_attribute 28, 1
   5              		.fpu fpv4-sp-d16
   6              		.eabi_attribute 20, 1
   7              		.eabi_attribute 21, 1
   8              		.eabi_attribute 23, 3
   9              		.eabi_attribute 24, 1
  10              		.eabi_attribute 25, 1
  11              		.eabi_attribute 26, 1
  12              		.eabi_attribute 30, 2
  13              		.eabi_attribute 34, 1
  14              		.eabi_attribute 18, 4
  15              		.thumb
  16              		.syntax unified
  17              		.file	"crt1.c"
  18              		.text
  19              	.Ltext0:
  20              		.cfi_sections	.debug_frame
  21              		.section	.text.__core_init,"ax",%progbits
  22              		.align	2
  23              		.p2align 4,,15
  24              		.weak	__core_init
  25              		.thumb
  26              		.thumb_func
  27              		.type	__core_init, %function
  28              	__core_init:
  29              	.LFB131:
  30              		.cfi_startproc
  31              		@ args = 0, pretend = 0, frame = 0
  32              		@ frame_needed = 0, uses_anonymous_args = 0
  33              		@ link register save eliminated.
  34 0000 7047     		bx	lr
  35              		.cfi_endproc
  36              	.LFE131:
  37              		.size	__core_init, .-__core_init
  38 0002 00BF     		.section	.text.__early_init,"ax",%progbits
  39              		.align	2
  40              		.p2align 4,,15
  41              		.weak	__early_init
  42              		.thumb
  43              		.thumb_func
  44              		.type	__early_init, %function
  45              	__early_init:
  46              	.LFB129:
  47              		.cfi_startproc
  48              		@ args = 0, pretend = 0, frame = 0
  49              		@ frame_needed = 0, uses_anonymous_args = 0
  50              		@ link register save eliminated.
  51 0000 7047     		bx	lr
  52              		.cfi_endproc
  53              	.LFE129:
  54              		.size	__early_init, .-__early_init
  55 0002 00BF     		.section	.text.__late_init,"ax",%progbits
  56              		.align	2
  57              		.p2align 4,,15
ARM GAS  /var/folders/m4/4md61f0s1_g0rzfghffqnxvr0000gn/T//ccYShlIe.s 			page 2


  58              		.weak	__late_init
  59              		.thumb
  60              		.thumb_func
  61              		.type	__late_init, %function
  62              	__late_init:
  63              	.LFB125:
  64              		.file 1 "ChibiOS_16.1.4/os/common/ports/ARMCMx/compilers/GCC/crt1.c"
  65              		.loc 1 169 0
  66              		.cfi_startproc
  67              		@ args = 0, pretend = 0, frame = 0
  68              		@ frame_needed = 0, uses_anonymous_args = 0
  69              		@ link register save eliminated.
  70 0000 7047     		bx	lr
  71              		.cfi_endproc
  72              	.LFE125:
  73              		.size	__late_init, .-__late_init
  74 0002 00BF     		.section	.text.__default_exit,"ax",%progbits
  75              		.align	2
  76              		.p2align 4,,15
  77              		.weak	__default_exit
  78              		.thumb
  79              		.thumb_func
  80              		.type	__default_exit, %function
  81              	__default_exit:
  82              	.LFB126:
  83              		.loc 1 182 0
  84              		.cfi_startproc
  85              		@ Volatile: function does not return.
  86              		@ args = 0, pretend = 0, frame = 0
  87              		@ frame_needed = 0, uses_anonymous_args = 0
  88              		@ link register save eliminated.
  89              	.L5:
  90 0000 FEE7     		b	.L5
  91              		.cfi_endproc
  92              	.LFE126:
  93              		.size	__default_exit, .-__default_exit
  94 0002 00BF     		.section	.text.__init_ram_areas,"ax",%progbits
  95              		.align	2
  96              		.p2align 4,,15
  97              		.global	__init_ram_areas
  98              		.thumb
  99              		.thumb_func
 100              		.type	__init_ram_areas, %function
 101              	__init_ram_areas:
 102              	.LFB127:
 103              		.loc 1 192 0
 104              		.cfi_startproc
 105              		@ args = 0, pretend = 0, frame = 0
 106              		@ frame_needed = 0, uses_anonymous_args = 0
 107              	.LVL0:
 108              		.loc 1 192 0
 109 0000 F0B5     		push	{r4, r5, r6, r7, lr}
 110              		.cfi_def_cfa_offset 20
 111              		.cfi_offset 4, -20
 112              		.cfi_offset 5, -16
 113              		.cfi_offset 6, -12
 114              		.cfi_offset 7, -8
ARM GAS  /var/folders/m4/4md61f0s1_g0rzfghffqnxvr0000gn/T//ccYShlIe.s 			page 3


 115              		.cfi_offset 14, -4
 116 0002 134F     		ldr	r7, .L24
 117              		.loc 1 192 0
 118 0004 134D     		ldr	r5, .L24+4
 119 0006 144C     		ldr	r4, .L24+8
 120 0008 144B     		ldr	r3, .L24+12
 121 000a 1549     		ldr	r1, .L24+16
 122 000c 07F1700E 		add	lr, r7, #112
 123              	.LBB2:
 124              		.loc 1 209 0
 125 0010 0026     		movs	r6, #0
 126              	.LVL1:
 127              	.L14:
 128              		.loc 1 201 0
 129 0012 9C42     		cmp	r4, r3
 130 0014 11D9     		bls	.L19
 131 0016 0439     		subs	r1, r1, #4
 132 0018 1A46     		mov	r2, r3
 133              	.LVL2:
 134              	.L8:
 135              		.loc 1 202 0
 136 001a 51F8040F 		ldr	r0, [r1, #4]!
 137              	.LVL3:
 138 001e 42F8040B 		str	r0, [r2], #4
 139              	.LVL4:
 140              		.loc 1 201 0
 141 0022 9442     		cmp	r4, r2
 142 0024 F9D8     		bhi	.L8
 143 0026 DA43     		mvns	r2, r3
 144              	.LVL5:
 145 0028 1444     		add	r4, r4, r2
 146 002a 24F00304 		bic	r4, r4, #3
 147 002e 0434     		adds	r4, r4, #4
 148 0030 2344     		add	r3, r3, r4
 149              	.LVL6:
 150              		.loc 1 208 0
 151 0032 9D42     		cmp	r5, r3
 152 0034 03D9     		bls	.L22
 153              	.LVL7:
 154              	.L12:
 155              		.loc 1 209 0
 156 0036 43F8046B 		str	r6, [r3], #4
 157              	.LVL8:
 158              	.L19:
 159              		.loc 1 208 0
 160 003a 9D42     		cmp	r5, r3
 161 003c FBD8     		bhi	.L12
 162              	.L22:
 163              	.LVL9:
 164              	.LBE2:
 165              		.loc 1 214 0
 166 003e 7745     		cmp	r7, lr
 167 0040 05D0     		beq	.L23
 168 0042 3969     		ldr	r1, [r7, #16]
 169 0044 7B69     		ldr	r3, [r7, #20]
 170              	.LVL10:
 171 0046 BC69     		ldr	r4, [r7, #24]
ARM GAS  /var/folders/m4/4md61f0s1_g0rzfghffqnxvr0000gn/T//ccYShlIe.s 			page 4


 172 0048 FD69     		ldr	r5, [r7, #28]
 173 004a 1037     		adds	r7, r7, #16
 174              	.LVL11:
 175 004c E1E7     		b	.L14
 176              	.LVL12:
 177              	.L23:
 178 004e F0BD     		pop	{r4, r5, r6, r7, pc}
 179              	.LVL13:
 180              	.L25:
 181              		.align	2
 182              	.L24:
 183 0050 00000000 		.word	.LANCHOR0
 184 0054 00000000 		.word	__ram0_noinit__
 185 0058 00000000 		.word	__ram0_clear__
 186 005c 00000000 		.word	__ram0_init__
 187 0060 00000000 		.word	__ram0_init_text__
 188              		.cfi_endproc
 189              	.LFE127:
 190              		.size	__init_ram_areas, .-__init_ram_areas
 191              		.section	.rodata.ram_areas,"a",%progbits
 192              		.align	2
 193              		.set	.LANCHOR0,. + 0
 194              		.type	ram_areas, %object
 195              		.size	ram_areas, 128
 196              	ram_areas:
 197 0000 00000000 		.word	__ram0_init_text__
 198 0004 00000000 		.word	__ram0_init__
 199 0008 00000000 		.word	__ram0_clear__
 200 000c 00000000 		.word	__ram0_noinit__
 201 0010 00000000 		.word	__ram1_init_text__
 202 0014 00000000 		.word	__ram1_init__
 203 0018 00000000 		.word	__ram1_clear__
 204 001c 00000000 		.word	__ram1_noinit__
 205 0020 00000000 		.word	__ram2_init_text__
 206 0024 00000000 		.word	__ram2_init__
 207 0028 00000000 		.word	__ram2_clear__
 208 002c 00000000 		.word	__ram2_noinit__
 209 0030 00000000 		.word	__ram3_init_text__
 210 0034 00000000 		.word	__ram3_init__
 211 0038 00000000 		.word	__ram3_clear__
 212 003c 00000000 		.word	__ram3_noinit__
 213 0040 00000000 		.word	__ram4_init_text__
 214 0044 00000000 		.word	__ram4_init__
 215 0048 00000000 		.word	__ram4_clear__
 216 004c 00000000 		.word	__ram4_noinit__
 217 0050 00000000 		.word	__ram5_init_text__
 218 0054 00000000 		.word	__ram5_init__
 219 0058 00000000 		.word	__ram5_clear__
 220 005c 00000000 		.word	__ram5_noinit__
 221 0060 00000000 		.word	__ram6_init_text__
 222 0064 00000000 		.word	__ram6_init__
 223 0068 00000000 		.word	__ram6_clear__
 224 006c 00000000 		.word	__ram6_noinit__
 225 0070 00000000 		.word	__ram7_init_text__
 226 0074 00000000 		.word	__ram7_init__
 227 0078 00000000 		.word	__ram7_clear__
 228 007c 00000000 		.word	__ram7_noinit__
ARM GAS  /var/folders/m4/4md61f0s1_g0rzfghffqnxvr0000gn/T//ccYShlIe.s 			page 5


 229              		.text
 230              	.Letext0:
 231              		.file 2 "/opt/homebrew-cask/Caskroom/gcc-arm-embedded/5_2-2015q4,20151219/gcc-arm-none-eabi-5_2-20
 232              		.file 3 "/opt/homebrew-cask/Caskroom/gcc-arm-embedded/5_2-2015q4,20151219/gcc-arm-none-eabi-5_2-20
 233              		.file 4 "ChibiOS_16.1.4/os/ext/CMSIS/include/core_cm4.h"