ARM GAS  /var/folders/m4/4md61f0s1_g0rzfghffqnxvr0000gn/T//ccLpMX4y.s 			page 1


   1              		.syntax unified
   2              		.cpu cortex-m4
   3              		.eabi_attribute 27, 1
   4              		.eabi_attribute 28, 1
   5              		.fpu fpv4-sp-d16
   6              		.eabi_attribute 20, 1
   7              		.eabi_attribute 21, 1
   8              		.eabi_attribute 23, 3
   9              		.eabi_attribute 24, 1
  10              		.eabi_attribute 25, 1
  11              		.eabi_attribute 26, 1
  12              		.eabi_attribute 30, 2
  13              		.eabi_attribute 34, 1
  14              		.eabi_attribute 18, 4
  15              		.thumb
  16              		.syntax unified
  17              		.file	"ext.c"
  18              		.text
  19              	.Ltext0:
  20              		.cfi_sections	.debug_frame
  21              		.section	.text.extInit,"ax",%progbits
  22              		.align	2
  23              		.p2align 4,,15
  24              		.global	extInit
  25              		.thumb
  26              		.thumb_func
  27              		.type	extInit, %function
  28              	extInit:
  29              	.LFB268:
  30              		.file 1 "ChibiOS_16.1.4/os/hal/src/ext.c"
  31              		.loc 1 56 0
  32              		.cfi_startproc
  33              		@ args = 0, pretend = 0, frame = 0
  34              		@ frame_needed = 0, uses_anonymous_args = 0
  35              		@ link register save eliminated.
  36              		.loc 1 58 0
  37 0000 FFF7FEBF 		b	ext_lld_init
  38              	.LVL0:
  39              		.cfi_endproc
  40              	.LFE268:
  41              		.size	extInit, .-extInit
  42              		.section	.text.extObjectInit,"ax",%progbits
  43              		.align	2
  44              		.p2align 4,,15
  45              		.global	extObjectInit
  46              		.thumb
  47              		.thumb_func
  48              		.type	extObjectInit, %function
  49              	extObjectInit:
  50              	.LFB269:
  51              		.loc 1 68 0
  52              		.cfi_startproc
  53              		@ args = 0, pretend = 0, frame = 0
  54              		@ frame_needed = 0, uses_anonymous_args = 0
  55              		@ link register save eliminated.
  56              	.LVL1:
  57              		.loc 1 70 0
ARM GAS  /var/folders/m4/4md61f0s1_g0rzfghffqnxvr0000gn/T//ccLpMX4y.s 			page 2


  58 0000 0122     		movs	r2, #1
  59              		.loc 1 71 0
  60 0002 0023     		movs	r3, #0
  61              		.loc 1 70 0
  62 0004 0270     		strb	r2, [r0]
  63              		.loc 1 71 0
  64 0006 4360     		str	r3, [r0, #4]
  65 0008 7047     		bx	lr
  66              		.cfi_endproc
  67              	.LFE269:
  68              		.size	extObjectInit, .-extObjectInit
  69 000a 00BF     		.section	.text.extStart,"ax",%progbits
  70              		.align	2
  71              		.p2align 4,,15
  72              		.global	extStart
  73              		.thumb
  74              		.thumb_func
  75              		.type	extStart, %function
  76              	extStart:
  77              	.LFB270:
  78              		.loc 1 84 0
  79              		.cfi_startproc
  80              		@ args = 0, pretend = 0, frame = 0
  81              		@ frame_needed = 0, uses_anonymous_args = 0
  82              	.LVL2:
  83 0000 10B5     		push	{r4, lr}
  84              		.cfi_def_cfa_offset 8
  85              		.cfi_offset 4, -8
  86              		.cfi_offset 14, -4
  87              	.LBB76:
  88              	.LBB77:
  89              	.LBB78:
  90              	.LBB79:
  91              	.LBB80:
  92              		.file 2 "ChibiOS_16.1.4/os/ext/CMSIS/include/core_cmFunc.h"
  93              		.loc 2 548 0
  94 0002 2023     		movs	r3, #32
  95              	.LBE80:
  96              	.LBE79:
  97              	.LBE78:
  98              	.LBE77:
  99              	.LBE76:
 100              		.loc 1 84 0
 101 0004 0446     		mov	r4, r0
 102              	.LBB85:
 103              	.LBB84:
 104              	.LBB83:
 105              	.LBB82:
 106              	.LBB81:
 107              		.loc 2 548 0
 108              		.syntax unified
 109              	@ 548 "ChibiOS_16.1.4/os/ext/CMSIS/include/core_cmFunc.h" 1
 110 0006 83F31188 		MSR basepri, r3
 111              	@ 0 "" 2
 112              	.LVL3:
 113              		.thumb
 114              		.syntax unified
ARM GAS  /var/folders/m4/4md61f0s1_g0rzfghffqnxvr0000gn/T//ccLpMX4y.s 			page 3


 115              	.LBE81:
 116              	.LBE82:
 117              	.LBE83:
 118              	.LBE84:
 119              	.LBE85:
 120              		.loc 1 91 0
 121 000a 4160     		str	r1, [r0, #4]
 122              		.loc 1 92 0
 123 000c FFF7FEFF 		bl	ext_lld_start
 124              	.LVL4:
 125              		.loc 1 93 0
 126 0010 0223     		movs	r3, #2
 127 0012 2370     		strb	r3, [r4]
 128              	.LVL5:
 129              	.LBB86:
 130              	.LBB87:
 131              	.LBB88:
 132              	.LBB89:
 133              	.LBB90:
 134              	.LBB91:
 135              		.loc 2 548 0
 136 0014 0023     		movs	r3, #0
 137              		.syntax unified
 138              	@ 548 "ChibiOS_16.1.4/os/ext/CMSIS/include/core_cmFunc.h" 1
 139 0016 83F31188 		MSR basepri, r3
 140              	@ 0 "" 2
 141              	.LVL6:
 142              		.thumb
 143              		.syntax unified
 144 001a 10BD     		pop	{r4, pc}
 145              	.LBE91:
 146              	.LBE90:
 147              	.LBE89:
 148              	.LBE88:
 149              	.LBE87:
 150              	.LBE86:
 151              		.cfi_endproc
 152              	.LFE270:
 153              		.size	extStart, .-extStart
 154              		.section	.text.extStop,"ax",%progbits
 155              		.align	2
 156              		.p2align 4,,15
 157              		.global	extStop
 158              		.thumb
 159              		.thumb_func
 160              		.type	extStop, %function
 161              	extStop:
 162              	.LFB271:
 163              		.loc 1 104 0
 164              		.cfi_startproc
 165              		@ args = 0, pretend = 0, frame = 0
 166              		@ frame_needed = 0, uses_anonymous_args = 0
 167              	.LVL7:
 168 0000 10B5     		push	{r4, lr}
 169              		.cfi_def_cfa_offset 8
 170              		.cfi_offset 4, -8
 171              		.cfi_offset 14, -4
ARM GAS  /var/folders/m4/4md61f0s1_g0rzfghffqnxvr0000gn/T//ccLpMX4y.s 			page 4


 172              	.LBB92:
 173              	.LBB93:
 174              	.LBB94:
 175              	.LBB95:
 176              	.LBB96:
 177              		.loc 2 548 0
 178 0002 2023     		movs	r3, #32
 179              	.LBE96:
 180              	.LBE95:
 181              	.LBE94:
 182              	.LBE93:
 183              	.LBE92:
 184              		.loc 1 104 0
 185 0004 0446     		mov	r4, r0
 186              	.LBB101:
 187              	.LBB100:
 188              	.LBB99:
 189              	.LBB98:
 190              	.LBB97:
 191              		.loc 2 548 0
 192              		.syntax unified
 193              	@ 548 "ChibiOS_16.1.4/os/ext/CMSIS/include/core_cmFunc.h" 1
 194 0006 83F31188 		MSR basepri, r3
 195              	@ 0 "" 2
 196              	.LVL8:
 197              		.thumb
 198              		.syntax unified
 199              	.LBE97:
 200              	.LBE98:
 201              	.LBE99:
 202              	.LBE100:
 203              	.LBE101:
 204              		.loc 1 111 0
 205 000a FFF7FEFF 		bl	ext_lld_stop
 206              	.LVL9:
 207              		.loc 1 112 0
 208 000e 0123     		movs	r3, #1
 209 0010 2370     		strb	r3, [r4]
 210              	.LVL10:
 211              	.LBB102:
 212              	.LBB103:
 213              	.LBB104:
 214              	.LBB105:
 215              	.LBB106:
 216              	.LBB107:
 217              		.loc 2 548 0
 218 0012 0023     		movs	r3, #0
 219              		.syntax unified
 220              	@ 548 "ChibiOS_16.1.4/os/ext/CMSIS/include/core_cmFunc.h" 1
 221 0014 83F31188 		MSR basepri, r3
 222              	@ 0 "" 2
 223              	.LVL11:
 224              		.thumb
 225              		.syntax unified
 226 0018 10BD     		pop	{r4, pc}
 227              	.LBE107:
 228              	.LBE106:
ARM GAS  /var/folders/m4/4md61f0s1_g0rzfghffqnxvr0000gn/T//ccLpMX4y.s 			page 5


 229              	.LBE105:
 230              	.LBE104:
 231              	.LBE103:
 232              	.LBE102:
 233              		.cfi_endproc
 234              	.LFE271:
 235              		.size	extStop, .-extStop
 236 001a 00BF     		.section	.text.extChannelEnable,"ax",%progbits
 237              		.align	2
 238              		.p2align 4,,15
 239              		.global	extChannelEnable
 240              		.thumb
 241              		.thumb_func
 242              		.type	extChannelEnable, %function
 243              	extChannelEnable:
 244              	.LFB272:
 245              		.loc 1 125 0
 246              		.cfi_startproc
 247              		@ args = 0, pretend = 0, frame = 0
 248              		@ frame_needed = 0, uses_anonymous_args = 0
 249              	.LVL12:
 250 0000 08B5     		push	{r3, lr}
 251              		.cfi_def_cfa_offset 8
 252              		.cfi_offset 3, -8
 253              		.cfi_offset 14, -4
 254              	.LBB108:
 255              	.LBB109:
 256              	.LBB110:
 257              	.LBB111:
 258              	.LBB112:
 259              		.loc 2 548 0
 260 0002 2023     		movs	r3, #32
 261              		.syntax unified
 262              	@ 548 "ChibiOS_16.1.4/os/ext/CMSIS/include/core_cmFunc.h" 1
 263 0004 83F31188 		MSR basepri, r3
 264              	@ 0 "" 2
 265              	.LVL13:
 266              		.thumb
 267              		.syntax unified
 268              	.LBE112:
 269              	.LBE111:
 270              	.LBE110:
 271              	.LBE109:
 272              	.LBE108:
 273              		.loc 1 134 0
 274 0008 FFF7FEFF 		bl	ext_lld_channel_enable
 275              	.LVL14:
 276              	.LBB113:
 277              	.LBB114:
 278              	.LBB115:
 279              	.LBB116:
 280              	.LBB117:
 281              	.LBB118:
 282              		.loc 2 548 0
 283 000c 0023     		movs	r3, #0
 284              		.syntax unified
 285              	@ 548 "ChibiOS_16.1.4/os/ext/CMSIS/include/core_cmFunc.h" 1
ARM GAS  /var/folders/m4/4md61f0s1_g0rzfghffqnxvr0000gn/T//ccLpMX4y.s 			page 6


 286 000e 83F31188 		MSR basepri, r3
 287              	@ 0 "" 2
 288              	.LVL15:
 289              		.thumb
 290              		.syntax unified
 291 0012 08BD     		pop	{r3, pc}
 292              	.LBE118:
 293              	.LBE117:
 294              	.LBE116:
 295              	.LBE115:
 296              	.LBE114:
 297              	.LBE113:
 298              		.cfi_endproc
 299              	.LFE272:
 300              		.size	extChannelEnable, .-extChannelEnable
 301              		.section	.text.extChannelDisable,"ax",%progbits
 302              		.align	2
 303              		.p2align 4,,15
 304              		.global	extChannelDisable
 305              		.thumb
 306              		.thumb_func
 307              		.type	extChannelDisable, %function
 308              	extChannelDisable:
 309              	.LFB273:
 310              		.loc 1 147 0
 311              		.cfi_startproc
 312              		@ args = 0, pretend = 0, frame = 0
 313              		@ frame_needed = 0, uses_anonymous_args = 0
 314              	.LVL16:
 315 0000 08B5     		push	{r3, lr}
 316              		.cfi_def_cfa_offset 8
 317              		.cfi_offset 3, -8
 318              		.cfi_offset 14, -4
 319              	.LBB119:
 320              	.LBB120:
 321              	.LBB121:
 322              	.LBB122:
 323              	.LBB123:
 324              		.loc 2 548 0
 325 0002 2023     		movs	r3, #32
 326              		.syntax unified
 327              	@ 548 "ChibiOS_16.1.4/os/ext/CMSIS/include/core_cmFunc.h" 1
 328 0004 83F31188 		MSR basepri, r3
 329              	@ 0 "" 2
 330              	.LVL17:
 331              		.thumb
 332              		.syntax unified
 333              	.LBE123:
 334              	.LBE122:
 335              	.LBE121:
 336              	.LBE120:
 337              	.LBE119:
 338              		.loc 1 156 0
 339 0008 FFF7FEFF 		bl	ext_lld_channel_disable
 340              	.LVL18:
 341              	.LBB124:
 342              	.LBB125:
ARM GAS  /var/folders/m4/4md61f0s1_g0rzfghffqnxvr0000gn/T//ccLpMX4y.s 			page 7


 343              	.LBB126:
 344              	.LBB127:
 345              	.LBB128:
 346              	.LBB129:
 347              		.loc 2 548 0
 348 000c 0023     		movs	r3, #0
 349              		.syntax unified
 350              	@ 548 "ChibiOS_16.1.4/os/ext/CMSIS/include/core_cmFunc.h" 1
 351 000e 83F31188 		MSR basepri, r3
 352              	@ 0 "" 2
 353              	.LVL19:
 354              		.thumb
 355              		.syntax unified
 356 0012 08BD     		pop	{r3, pc}
 357              	.LBE129:
 358              	.LBE128:
 359              	.LBE127:
 360              	.LBE126:
 361              	.LBE125:
 362              	.LBE124:
 363              		.cfi_endproc
 364              	.LFE273:
 365              		.size	extChannelDisable, .-extChannelDisable
 366              		.section	.text.extSetChannelModeI,"ax",%progbits
 367              		.align	2
 368              		.p2align 4,,15
 369              		.global	extSetChannelModeI
 370              		.thumb
 371              		.thumb_func
 372              		.type	extSetChannelModeI, %function
 373              	extSetChannelModeI:
 374              	.LFB274:
 375              		.loc 1 179 0
 376              		.cfi_startproc
 377              		@ args = 0, pretend = 0, frame = 0
 378              		@ frame_needed = 0, uses_anonymous_args = 0
 379              		@ link register save eliminated.
 380              	.LVL20:
 381 0000 30B4     		push	{r4, r5}
 382              		.cfi_def_cfa_offset 8
 383              		.cfi_offset 4, -8
 384              		.cfi_offset 5, -4
 385              		.loc 1 196 0
 386 0002 4368     		ldr	r3, [r0, #4]
 387              		.loc 1 179 0
 388 0004 0D46     		mov	r5, r1
 389              	.LVL21:
 390 0006 0446     		mov	r4, r0
 391              		.loc 1 196 0
 392 0008 92E80300 		ldmia	r2, {r0, r1}
 393              	.LVL22:
 394 000c 03EBC503 		add	r3, r3, r5, lsl #3
 395              	.LVL23:
 396 0010 83E80300 		stmia	r3, {r0, r1}
 397              		.loc 1 197 0
 398 0014 2946     		mov	r1, r5
 399 0016 2046     		mov	r0, r4
ARM GAS  /var/folders/m4/4md61f0s1_g0rzfghffqnxvr0000gn/T//ccLpMX4y.s 			page 8


 400              		.loc 1 198 0
 401 0018 30BC     		pop	{r4, r5}
 402              		.cfi_restore 5
 403              		.cfi_restore 4
 404              		.cfi_def_cfa_offset 0
 405              	.LVL24:
 406              		.loc 1 197 0
 407 001a FFF7FEBF 		b	ext_lld_channel_enable
 408              	.LVL25:
 409              		.cfi_endproc
 410              	.LFE274:
 411              		.size	extSetChannelModeI, .-extSetChannelModeI
 412 001e 00BF     		.text
 413              	.Letext0:
 414              		.file 3 "/opt/homebrew-cask/Caskroom/gcc-arm-embedded/5_2-2015q4,20151219/gcc-arm-none-eabi-5_2-20
 415              		.file 4 "/opt/homebrew-cask/Caskroom/gcc-arm-embedded/5_2-2015q4,20151219/gcc-arm-none-eabi-5_2-20
 416              		.file 5 "ChibiOS_16.1.4/os/rt/ports/ARMCMx/compilers/GCC/chtypes.h"
 417              		.file 6 "ChibiOS_16.1.4/os/rt/include/chsystypes.h"
 418              		.file 7 "ChibiOS_16.1.4/os/rt/include/chschd.h"
 419              		.file 8 "ChibiOS_16.1.4/os/rt/ports/ARMCMx/chcore.h"
 420              		.file 9 "ChibiOS_16.1.4/os/rt/ports/ARMCMx/chcore_v7m.h"
 421              		.file 10 "ChibiOS_16.1.4/os/rt/include/chtm.h"
 422              		.file 11 "ChibiOS_16.1.4/os/rt/include/chsem.h"
 423              		.file 12 "ChibiOS_16.1.4/os/rt/include/chmtx.h"
 424              		.file 13 "ChibiOS_16.1.4/os/hal/include/ext.h"
 425              		.file 14 "ChibiOS_16.1.4/os/hal/ports/STM32/LLD/EXTIv1/ext_lld.h"
 426              		.file 15 "ChibiOS_16.1.4/os/rt/include/chsys.h"
 427              		.file 16 "ChibiOS_16.1.4/os/hal/osal/rt/osal.h"
 428              		.file 17 "ChibiOS_16.1.4/os/ext/CMSIS/include/core_cm4.h"