ARM GAS  /var/folders/m4/4md61f0s1_g0rzfghffqnxvr0000gn/T//ccZRL7EU.s 			page 1


   1              		.syntax unified
   2              		.cpu cortex-m4
   3              		.eabi_attribute 27, 1
   4              		.eabi_attribute 28, 1
   5              		.fpu fpv4-sp-d16
   6              		.eabi_attribute 20, 1
   7              		.eabi_attribute 21, 1
   8              		.eabi_attribute 23, 3
   9              		.eabi_attribute 24, 1
  10              		.eabi_attribute 25, 1
  11              		.eabi_attribute 26, 1
  12              		.eabi_attribute 30, 2
  13              		.eabi_attribute 34, 1
  14              		.eabi_attribute 18, 4
  15              		.thumb
  16              		.syntax unified
  17              		.file	"ext_lld_isr.c"
  18              		.text
  19              	.Ltext0:
  20              		.cfi_sections	.debug_frame
  21              		.section	.text.Vector58,"ax",%progbits
  22              		.align	2
  23              		.p2align 4,,15
  24              		.global	Vector58
  25              		.thumb
  26              		.thumb_func
  27              		.type	Vector58, %function
  28              	Vector58:
  29              	.LFB268:
  30              		.file 1 "ChibiOS_16.1.4/os/hal/ports/STM32/STM32F4xx/ext_lld_isr.c"
  31              		.loc 1 56 0
  32              		.cfi_startproc
  33              		@ args = 0, pretend = 0, frame = 0
  34              		@ frame_needed = 0, uses_anonymous_args = 0
  35              		.loc 1 61 0
  36 0000 084A     		ldr	r2, .L8
  37              		.loc 1 56 0
  38 0002 08B5     		push	{r3, lr}
  39              		.cfi_def_cfa_offset 8
  40              		.cfi_offset 3, -8
  41              		.cfi_offset 14, -4
  42              		.loc 1 61 0
  43 0004 5169     		ldr	r1, [r2, #20]
  44              	.LVL0:
  45              		.loc 1 62 0
  46 0006 1368     		ldr	r3, [r2]
  47 0008 0B40     		ands	r3, r3, r1
  48 000a 03F00103 		and	r3, r3, #1
  49              	.LVL1:
  50              		.loc 1 63 0
  51 000e 5361     		str	r3, [r2, #20]
  52              		.loc 1 64 0
  53 0010 23B1     		cbz	r3, .L2
  54              		.loc 1 65 0
  55 0012 0548     		ldr	r0, .L8+4
  56 0014 4368     		ldr	r3, [r0, #4]
  57              	.LVL2:
ARM GAS  /var/folders/m4/4md61f0s1_g0rzfghffqnxvr0000gn/T//ccZRL7EU.s 			page 2


  58 0016 0021     		movs	r1, #0
  59 0018 5B68     		ldr	r3, [r3, #4]
  60 001a 9847     		blx	r3
  61              	.LVL3:
  62              	.L2:
  63              		.loc 1 68 0
  64 001c BDE80840 		pop	{r3, lr}
  65              		.cfi_restore 14
  66              		.cfi_restore 3
  67              		.cfi_def_cfa_offset 0
  68              		.loc 1 67 0
  69 0020 FFF7FEBF 		b	_port_irq_epilogue
  70              	.LVL4:
  71              	.L9:
  72              		.align	2
  73              	.L8:
  74 0024 003C0140 		.word	1073822720
  75 0028 00000000 		.word	EXTD1
  76              		.cfi_endproc
  77              	.LFE268:
  78              		.size	Vector58, .-Vector58
  79              		.section	.text.Vector5C,"ax",%progbits
  80              		.align	2
  81              		.p2align 4,,15
  82              		.global	Vector5C
  83              		.thumb
  84              		.thumb_func
  85              		.type	Vector5C, %function
  86              	Vector5C:
  87              	.LFB269:
  88              		.loc 1 75 0
  89              		.cfi_startproc
  90              		@ args = 0, pretend = 0, frame = 0
  91              		@ frame_needed = 0, uses_anonymous_args = 0
  92              		.loc 1 80 0
  93 0000 084A     		ldr	r2, .L16
  94              		.loc 1 75 0
  95 0002 08B5     		push	{r3, lr}
  96              		.cfi_def_cfa_offset 8
  97              		.cfi_offset 3, -8
  98              		.cfi_offset 14, -4
  99              		.loc 1 80 0
 100 0004 5169     		ldr	r1, [r2, #20]
 101              	.LVL5:
 102              		.loc 1 81 0
 103 0006 1368     		ldr	r3, [r2]
 104 0008 0B40     		ands	r3, r3, r1
 105 000a 03F00203 		and	r3, r3, #2
 106              	.LVL6:
 107              		.loc 1 82 0
 108 000e 5361     		str	r3, [r2, #20]
 109              		.loc 1 83 0
 110 0010 23B1     		cbz	r3, .L11
 111              		.loc 1 84 0
 112 0012 0548     		ldr	r0, .L16+4
 113 0014 4368     		ldr	r3, [r0, #4]
 114              	.LVL7:
ARM GAS  /var/folders/m4/4md61f0s1_g0rzfghffqnxvr0000gn/T//ccZRL7EU.s 			page 3


 115 0016 0121     		movs	r1, #1
 116 0018 DB68     		ldr	r3, [r3, #12]
 117 001a 9847     		blx	r3
 118              	.LVL8:
 119              	.L11:
 120              		.loc 1 87 0
 121 001c BDE80840 		pop	{r3, lr}
 122              		.cfi_restore 14
 123              		.cfi_restore 3
 124              		.cfi_def_cfa_offset 0
 125              		.loc 1 86 0
 126 0020 FFF7FEBF 		b	_port_irq_epilogue
 127              	.LVL9:
 128              	.L17:
 129              		.align	2
 130              	.L16:
 131 0024 003C0140 		.word	1073822720
 132 0028 00000000 		.word	EXTD1
 133              		.cfi_endproc
 134              	.LFE269:
 135              		.size	Vector5C, .-Vector5C
 136              		.section	.text.Vector60,"ax",%progbits
 137              		.align	2
 138              		.p2align 4,,15
 139              		.global	Vector60
 140              		.thumb
 141              		.thumb_func
 142              		.type	Vector60, %function
 143              	Vector60:
 144              	.LFB270:
 145              		.loc 1 94 0
 146              		.cfi_startproc
 147              		@ args = 0, pretend = 0, frame = 0
 148              		@ frame_needed = 0, uses_anonymous_args = 0
 149              		.loc 1 99 0
 150 0000 084A     		ldr	r2, .L24
 151              		.loc 1 94 0
 152 0002 08B5     		push	{r3, lr}
 153              		.cfi_def_cfa_offset 8
 154              		.cfi_offset 3, -8
 155              		.cfi_offset 14, -4
 156              		.loc 1 99 0
 157 0004 5169     		ldr	r1, [r2, #20]
 158              	.LVL10:
 159              		.loc 1 100 0
 160 0006 1368     		ldr	r3, [r2]
 161 0008 0B40     		ands	r3, r3, r1
 162 000a 03F00403 		and	r3, r3, #4
 163              	.LVL11:
 164              		.loc 1 101 0
 165 000e 5361     		str	r3, [r2, #20]
 166              		.loc 1 102 0
 167 0010 23B1     		cbz	r3, .L19
 168              		.loc 1 103 0
 169 0012 0548     		ldr	r0, .L24+4
 170 0014 4368     		ldr	r3, [r0, #4]
 171              	.LVL12:
ARM GAS  /var/folders/m4/4md61f0s1_g0rzfghffqnxvr0000gn/T//ccZRL7EU.s 			page 4


 172 0016 0221     		movs	r1, #2
 173 0018 5B69     		ldr	r3, [r3, #20]
 174 001a 9847     		blx	r3
 175              	.LVL13:
 176              	.L19:
 177              		.loc 1 106 0
 178 001c BDE80840 		pop	{r3, lr}
 179              		.cfi_restore 14
 180              		.cfi_restore 3
 181              		.cfi_def_cfa_offset 0
 182              		.loc 1 105 0
 183 0020 FFF7FEBF 		b	_port_irq_epilogue
 184              	.LVL14:
 185              	.L25:
 186              		.align	2
 187              	.L24:
 188 0024 003C0140 		.word	1073822720
 189 0028 00000000 		.word	EXTD1
 190              		.cfi_endproc
 191              	.LFE270:
 192              		.size	Vector60, .-Vector60
 193              		.section	.text.Vector64,"ax",%progbits
 194              		.align	2
 195              		.p2align 4,,15
 196              		.global	Vector64
 197              		.thumb
 198              		.thumb_func
 199              		.type	Vector64, %function
 200              	Vector64:
 201              	.LFB271:
 202              		.loc 1 113 0
 203              		.cfi_startproc
 204              		@ args = 0, pretend = 0, frame = 0
 205              		@ frame_needed = 0, uses_anonymous_args = 0
 206              		.loc 1 118 0
 207 0000 084A     		ldr	r2, .L32
 208              		.loc 1 113 0
 209 0002 08B5     		push	{r3, lr}
 210              		.cfi_def_cfa_offset 8
 211              		.cfi_offset 3, -8
 212              		.cfi_offset 14, -4
 213              		.loc 1 118 0
 214 0004 5169     		ldr	r1, [r2, #20]
 215              	.LVL15:
 216              		.loc 1 119 0
 217 0006 1368     		ldr	r3, [r2]
 218 0008 0B40     		ands	r3, r3, r1
 219 000a 03F00803 		and	r3, r3, #8
 220              	.LVL16:
 221              		.loc 1 120 0
 222 000e 5361     		str	r3, [r2, #20]
 223              		.loc 1 121 0
 224 0010 23B1     		cbz	r3, .L27
 225              		.loc 1 122 0
 226 0012 0548     		ldr	r0, .L32+4
 227 0014 4368     		ldr	r3, [r0, #4]
 228              	.LVL17:
ARM GAS  /var/folders/m4/4md61f0s1_g0rzfghffqnxvr0000gn/T//ccZRL7EU.s 			page 5


 229 0016 0321     		movs	r1, #3
 230 0018 DB69     		ldr	r3, [r3, #28]
 231 001a 9847     		blx	r3
 232              	.LVL18:
 233              	.L27:
 234              		.loc 1 125 0
 235 001c BDE80840 		pop	{r3, lr}
 236              		.cfi_restore 14
 237              		.cfi_restore 3
 238              		.cfi_def_cfa_offset 0
 239              		.loc 1 124 0
 240 0020 FFF7FEBF 		b	_port_irq_epilogue
 241              	.LVL19:
 242              	.L33:
 243              		.align	2
 244              	.L32:
 245 0024 003C0140 		.word	1073822720
 246 0028 00000000 		.word	EXTD1
 247              		.cfi_endproc
 248              	.LFE271:
 249              		.size	Vector64, .-Vector64
 250              		.section	.text.Vector68,"ax",%progbits
 251              		.align	2
 252              		.p2align 4,,15
 253              		.global	Vector68
 254              		.thumb
 255              		.thumb_func
 256              		.type	Vector68, %function
 257              	Vector68:
 258              	.LFB272:
 259              		.loc 1 132 0
 260              		.cfi_startproc
 261              		@ args = 0, pretend = 0, frame = 0
 262              		@ frame_needed = 0, uses_anonymous_args = 0
 263              		.loc 1 137 0
 264 0000 084A     		ldr	r2, .L40
 265              		.loc 1 132 0
 266 0002 08B5     		push	{r3, lr}
 267              		.cfi_def_cfa_offset 8
 268              		.cfi_offset 3, -8
 269              		.cfi_offset 14, -4
 270              		.loc 1 137 0
 271 0004 5169     		ldr	r1, [r2, #20]
 272              	.LVL20:
 273              		.loc 1 138 0
 274 0006 1368     		ldr	r3, [r2]
 275 0008 0B40     		ands	r3, r3, r1
 276 000a 03F01003 		and	r3, r3, #16
 277              	.LVL21:
 278              		.loc 1 139 0
 279 000e 5361     		str	r3, [r2, #20]
 280              		.loc 1 140 0
 281 0010 23B1     		cbz	r3, .L35
 282              		.loc 1 141 0
 283 0012 0548     		ldr	r0, .L40+4
 284 0014 4368     		ldr	r3, [r0, #4]
 285              	.LVL22:
ARM GAS  /var/folders/m4/4md61f0s1_g0rzfghffqnxvr0000gn/T//ccZRL7EU.s 			page 6


 286 0016 0421     		movs	r1, #4
 287 0018 5B6A     		ldr	r3, [r3, #36]
 288 001a 9847     		blx	r3
 289              	.LVL23:
 290              	.L35:
 291              		.loc 1 144 0
 292 001c BDE80840 		pop	{r3, lr}
 293              		.cfi_restore 14
 294              		.cfi_restore 3
 295              		.cfi_def_cfa_offset 0
 296              		.loc 1 143 0
 297 0020 FFF7FEBF 		b	_port_irq_epilogue
 298              	.LVL24:
 299              	.L41:
 300              		.align	2
 301              	.L40:
 302 0024 003C0140 		.word	1073822720
 303 0028 00000000 		.word	EXTD1
 304              		.cfi_endproc
 305              	.LFE272:
 306              		.size	Vector68, .-Vector68
 307              		.section	.text.Vector9C,"ax",%progbits
 308              		.align	2
 309              		.p2align 4,,15
 310              		.global	Vector9C
 311              		.thumb
 312              		.thumb_func
 313              		.type	Vector9C, %function
 314              	Vector9C:
 315              	.LFB273:
 316              		.loc 1 151 0
 317              		.cfi_startproc
 318              		@ args = 0, pretend = 0, frame = 0
 319              		@ frame_needed = 0, uses_anonymous_args = 0
 320              		.loc 1 156 0
 321 0000 194B     		ldr	r3, .L68
 322              		.loc 1 151 0
 323 0002 10B5     		push	{r4, lr}
 324              		.cfi_def_cfa_offset 8
 325              		.cfi_offset 4, -8
 326              		.cfi_offset 14, -4
 327              		.loc 1 156 0
 328 0004 5C69     		ldr	r4, [r3, #20]
 329              	.LVL25:
 330              		.loc 1 157 0
 331 0006 1A68     		ldr	r2, [r3]
 332 0008 1440     		ands	r4, r4, r2
 333              	.LVL26:
 334 000a 04F47872 		and	r2, r4, #992
 335              	.LVL27:
 336              		.loc 1 159 0
 337 000e 5A61     		str	r2, [r3, #20]
 338              		.loc 1 160 0
 339 0010 A306     		lsls	r3, r4, #26
 340 0012 22D4     		bmi	.L64
 341              	.LVL28:
 342              	.L43:
ARM GAS  /var/folders/m4/4md61f0s1_g0rzfghffqnxvr0000gn/T//ccZRL7EU.s 			page 7


 343              		.loc 1 162 0
 344 0014 6006     		lsls	r0, r4, #25
 345 0016 1AD4     		bmi	.L65
 346              	.L44:
 347              		.loc 1 164 0
 348 0018 2106     		lsls	r1, r4, #24
 349 001a 12D4     		bmi	.L66
 350              	.L45:
 351              		.loc 1 166 0
 352 001c E205     		lsls	r2, r4, #23
 353 001e 0AD4     		bmi	.L67
 354              	.L46:
 355              		.loc 1 168 0
 356 0020 A305     		lsls	r3, r4, #22
 357 0022 04D5     		bpl	.L47
 358              		.loc 1 169 0
 359 0024 1148     		ldr	r0, .L68+4
 360 0026 4368     		ldr	r3, [r0, #4]
 361 0028 0921     		movs	r1, #9
 362 002a DB6C     		ldr	r3, [r3, #76]
 363 002c 9847     		blx	r3
 364              	.LVL29:
 365              	.L47:
 366              		.loc 1 172 0
 367 002e BDE81040 		pop	{r4, lr}
 368              		.cfi_remember_state
 369              		.cfi_restore 14
 370              		.cfi_restore 4
 371              		.cfi_def_cfa_offset 0
 372              	.LVL30:
 373              		.loc 1 171 0
 374 0032 FFF7FEBF 		b	_port_irq_epilogue
 375              	.LVL31:
 376              	.L67:
 377              		.cfi_restore_state
 378              		.loc 1 167 0
 379 0036 0D48     		ldr	r0, .L68+4
 380 0038 4368     		ldr	r3, [r0, #4]
 381 003a 0821     		movs	r1, #8
 382 003c 5B6C     		ldr	r3, [r3, #68]
 383 003e 9847     		blx	r3
 384              	.LVL32:
 385 0040 EEE7     		b	.L46
 386              	.L66:
 387              		.loc 1 165 0
 388 0042 0A48     		ldr	r0, .L68+4
 389 0044 4368     		ldr	r3, [r0, #4]
 390 0046 0721     		movs	r1, #7
 391 0048 DB6B     		ldr	r3, [r3, #60]
 392 004a 9847     		blx	r3
 393              	.LVL33:
 394 004c E6E7     		b	.L45
 395              	.L65:
 396              		.loc 1 163 0
 397 004e 0748     		ldr	r0, .L68+4
 398 0050 4368     		ldr	r3, [r0, #4]
 399 0052 0621     		movs	r1, #6
ARM GAS  /var/folders/m4/4md61f0s1_g0rzfghffqnxvr0000gn/T//ccZRL7EU.s 			page 8


 400 0054 5B6B     		ldr	r3, [r3, #52]
 401 0056 9847     		blx	r3
 402              	.LVL34:
 403 0058 DEE7     		b	.L44
 404              	.LVL35:
 405              	.L64:
 406              		.loc 1 161 0
 407 005a 0448     		ldr	r0, .L68+4
 408 005c 4368     		ldr	r3, [r0, #4]
 409 005e 0521     		movs	r1, #5
 410 0060 DB6A     		ldr	r3, [r3, #44]
 411 0062 9847     		blx	r3
 412              	.LVL36:
 413 0064 D6E7     		b	.L43
 414              	.L69:
 415 0066 00BF     		.align	2
 416              	.L68:
 417 0068 003C0140 		.word	1073822720
 418 006c 00000000 		.word	EXTD1
 419              		.cfi_endproc
 420              	.LFE273:
 421              		.size	Vector9C, .-Vector9C
 422              		.section	.text.VectorE0,"ax",%progbits
 423              		.align	2
 424              		.p2align 4,,15
 425              		.global	VectorE0
 426              		.thumb
 427              		.thumb_func
 428              		.type	VectorE0, %function
 429              	VectorE0:
 430              	.LFB274:
 431              		.loc 1 179 0
 432              		.cfi_startproc
 433              		@ args = 0, pretend = 0, frame = 0
 434              		@ frame_needed = 0, uses_anonymous_args = 0
 435              		.loc 1 184 0
 436 0000 1D4B     		ldr	r3, .L101
 437              		.loc 1 179 0
 438 0002 10B5     		push	{r4, lr}
 439              		.cfi_def_cfa_offset 8
 440              		.cfi_offset 4, -8
 441              		.cfi_offset 14, -4
 442              		.loc 1 184 0
 443 0004 5C69     		ldr	r4, [r3, #20]
 444              	.LVL37:
 445              		.loc 1 185 0
 446 0006 1A68     		ldr	r2, [r3]
 447 0008 1440     		ands	r4, r4, r2
 448              	.LVL38:
 449 000a 04F47C42 		and	r2, r4, #64512
 450              	.LVL39:
 451              		.loc 1 187 0
 452 000e 5A61     		str	r2, [r3, #20]
 453              		.loc 1 188 0
 454 0010 6205     		lsls	r2, r4, #21
 455              	.LVL40:
 456 0012 2AD4     		bmi	.L96
ARM GAS  /var/folders/m4/4md61f0s1_g0rzfghffqnxvr0000gn/T//ccZRL7EU.s 			page 9


 457              	.LVL41:
 458              	.L71:
 459              		.loc 1 190 0
 460 0014 2305     		lsls	r3, r4, #20
 461 0016 22D4     		bmi	.L97
 462              	.L72:
 463              		.loc 1 192 0
 464 0018 E004     		lsls	r0, r4, #19
 465 001a 1AD4     		bmi	.L98
 466              	.L73:
 467              		.loc 1 194 0
 468 001c A104     		lsls	r1, r4, #18
 469 001e 12D4     		bmi	.L99
 470              	.L74:
 471              		.loc 1 196 0
 472 0020 6204     		lsls	r2, r4, #17
 473 0022 0AD4     		bmi	.L100
 474              	.L75:
 475              		.loc 1 198 0
 476 0024 2304     		lsls	r3, r4, #16
 477 0026 04D5     		bpl	.L76
 478              		.loc 1 199 0
 479 0028 1448     		ldr	r0, .L101+4
 480 002a 4368     		ldr	r3, [r0, #4]
 481 002c 0F21     		movs	r1, #15
 482 002e DB6F     		ldr	r3, [r3, #124]
 483 0030 9847     		blx	r3
 484              	.LVL42:
 485              	.L76:
 486              		.loc 1 202 0
 487 0032 BDE81040 		pop	{r4, lr}
 488              		.cfi_remember_state
 489              		.cfi_restore 14
 490              		.cfi_restore 4
 491              		.cfi_def_cfa_offset 0
 492              	.LVL43:
 493              		.loc 1 201 0
 494 0036 FFF7FEBF 		b	_port_irq_epilogue
 495              	.LVL44:
 496              	.L100:
 497              		.cfi_restore_state
 498              		.loc 1 197 0
 499 003a 1048     		ldr	r0, .L101+4
 500 003c 4368     		ldr	r3, [r0, #4]
 501 003e 0E21     		movs	r1, #14
 502 0040 5B6F     		ldr	r3, [r3, #116]
 503 0042 9847     		blx	r3
 504              	.LVL45:
 505 0044 EEE7     		b	.L75
 506              	.L99:
 507              		.loc 1 195 0
 508 0046 0D48     		ldr	r0, .L101+4
 509 0048 4368     		ldr	r3, [r0, #4]
 510 004a 0D21     		movs	r1, #13
 511 004c DB6E     		ldr	r3, [r3, #108]
 512 004e 9847     		blx	r3
 513              	.LVL46:
ARM GAS  /var/folders/m4/4md61f0s1_g0rzfghffqnxvr0000gn/T//ccZRL7EU.s 			page 10


 514 0050 E6E7     		b	.L74
 515              	.L98:
 516              		.loc 1 193 0
 517 0052 0A48     		ldr	r0, .L101+4
 518 0054 4368     		ldr	r3, [r0, #4]
 519 0056 0C21     		movs	r1, #12
 520 0058 5B6E     		ldr	r3, [r3, #100]
 521 005a 9847     		blx	r3
 522              	.LVL47:
 523 005c DEE7     		b	.L73
 524              	.L97:
 525              		.loc 1 191 0
 526 005e 0748     		ldr	r0, .L101+4
 527 0060 4368     		ldr	r3, [r0, #4]
 528 0062 0B21     		movs	r1, #11
 529 0064 DB6D     		ldr	r3, [r3, #92]
 530 0066 9847     		blx	r3
 531              	.LVL48:
 532 0068 D6E7     		b	.L72
 533              	.LVL49:
 534              	.L96:
 535              		.loc 1 189 0
 536 006a 0448     		ldr	r0, .L101+4
 537 006c 4368     		ldr	r3, [r0, #4]
 538              	.LVL50:
 539 006e 0A21     		movs	r1, #10
 540 0070 5B6D     		ldr	r3, [r3, #84]
 541 0072 9847     		blx	r3
 542              	.LVL51:
 543 0074 CEE7     		b	.L71
 544              	.L102:
 545 0076 00BF     		.align	2
 546              	.L101:
 547 0078 003C0140 		.word	1073822720
 548 007c 00000000 		.word	EXTD1
 549              		.cfi_endproc
 550              	.LFE274:
 551              		.size	VectorE0, .-VectorE0
 552              		.section	.text.Vector44,"ax",%progbits
 553              		.align	2
 554              		.p2align 4,,15
 555              		.global	Vector44
 556              		.thumb
 557              		.thumb_func
 558              		.type	Vector44, %function
 559              	Vector44:
 560              	.LFB275:
 561              		.loc 1 209 0
 562              		.cfi_startproc
 563              		@ args = 0, pretend = 0, frame = 0
 564              		@ frame_needed = 0, uses_anonymous_args = 0
 565              		.loc 1 214 0
 566 0000 084A     		ldr	r2, .L109
 567              		.loc 1 209 0
 568 0002 08B5     		push	{r3, lr}
 569              		.cfi_def_cfa_offset 8
 570              		.cfi_offset 3, -8
ARM GAS  /var/folders/m4/4md61f0s1_g0rzfghffqnxvr0000gn/T//ccZRL7EU.s 			page 11


 571              		.cfi_offset 14, -4
 572              		.loc 1 214 0
 573 0004 5369     		ldr	r3, [r2, #20]
 574              		.loc 1 215 0
 575 0006 1368     		ldr	r3, [r2]
 576 0008 03F48033 		and	r3, r3, #65536
 577              	.LVL52:
 578              		.loc 1 216 0
 579 000c 5361     		str	r3, [r2, #20]
 580              		.loc 1 217 0
 581 000e 2BB1     		cbz	r3, .L104
 582              		.loc 1 218 0
 583 0010 0548     		ldr	r0, .L109+4
 584 0012 4368     		ldr	r3, [r0, #4]
 585              	.LVL53:
 586 0014 1021     		movs	r1, #16
 587 0016 D3F88430 		ldr	r3, [r3, #132]
 588 001a 9847     		blx	r3
 589              	.LVL54:
 590              	.L104:
 591              		.loc 1 221 0
 592 001c BDE80840 		pop	{r3, lr}
 593              		.cfi_restore 14
 594              		.cfi_restore 3
 595              		.cfi_def_cfa_offset 0
 596              		.loc 1 220 0
 597 0020 FFF7FEBF 		b	_port_irq_epilogue
 598              	.LVL55:
 599              	.L110:
 600              		.align	2
 601              	.L109:
 602 0024 003C0140 		.word	1073822720
 603 0028 00000000 		.word	EXTD1
 604              		.cfi_endproc
 605              	.LFE275:
 606              		.size	Vector44, .-Vector44
 607              		.section	.text.VectorE4,"ax",%progbits
 608              		.align	2
 609              		.p2align 4,,15
 610              		.global	VectorE4
 611              		.thumb
 612              		.thumb_func
 613              		.type	VectorE4, %function
 614              	VectorE4:
 615              	.LFB276:
 616              		.loc 1 228 0
 617              		.cfi_startproc
 618              		@ args = 0, pretend = 0, frame = 0
 619              		@ frame_needed = 0, uses_anonymous_args = 0
 620              		.loc 1 233 0
 621 0000 084A     		ldr	r2, .L117
 622              		.loc 1 228 0
 623 0002 08B5     		push	{r3, lr}
 624              		.cfi_def_cfa_offset 8
 625              		.cfi_offset 3, -8
 626              		.cfi_offset 14, -4
 627              		.loc 1 233 0
ARM GAS  /var/folders/m4/4md61f0s1_g0rzfghffqnxvr0000gn/T//ccZRL7EU.s 			page 12


 628 0004 5369     		ldr	r3, [r2, #20]
 629              		.loc 1 234 0
 630 0006 1368     		ldr	r3, [r2]
 631 0008 03F40033 		and	r3, r3, #131072
 632              	.LVL56:
 633              		.loc 1 235 0
 634 000c 5361     		str	r3, [r2, #20]
 635              		.loc 1 236 0
 636 000e 2BB1     		cbz	r3, .L112
 637              		.loc 1 237 0
 638 0010 0548     		ldr	r0, .L117+4
 639 0012 4368     		ldr	r3, [r0, #4]
 640              	.LVL57:
 641 0014 1121     		movs	r1, #17
 642 0016 D3F88C30 		ldr	r3, [r3, #140]
 643 001a 9847     		blx	r3
 644              	.LVL58:
 645              	.L112:
 646              		.loc 1 240 0
 647 001c BDE80840 		pop	{r3, lr}
 648              		.cfi_restore 14
 649              		.cfi_restore 3
 650              		.cfi_def_cfa_offset 0
 651              		.loc 1 239 0
 652 0020 FFF7FEBF 		b	_port_irq_epilogue
 653              	.LVL59:
 654              	.L118:
 655              		.align	2
 656              	.L117:
 657 0024 003C0140 		.word	1073822720
 658 0028 00000000 		.word	EXTD1
 659              		.cfi_endproc
 660              	.LFE276:
 661              		.size	VectorE4, .-VectorE4
 662              		.section	.text.VectorE8,"ax",%progbits
 663              		.align	2
 664              		.p2align 4,,15
 665              		.global	VectorE8
 666              		.thumb
 667              		.thumb_func
 668              		.type	VectorE8, %function
 669              	VectorE8:
 670              	.LFB277:
 671              		.loc 1 247 0
 672              		.cfi_startproc
 673              		@ args = 0, pretend = 0, frame = 0
 674              		@ frame_needed = 0, uses_anonymous_args = 0
 675              		.loc 1 252 0
 676 0000 094A     		ldr	r2, .L125
 677              		.loc 1 247 0
 678 0002 08B5     		push	{r3, lr}
 679              		.cfi_def_cfa_offset 8
 680              		.cfi_offset 3, -8
 681              		.cfi_offset 14, -4
 682              		.loc 1 252 0
 683 0004 5169     		ldr	r1, [r2, #20]
 684              	.LVL60:
ARM GAS  /var/folders/m4/4md61f0s1_g0rzfghffqnxvr0000gn/T//ccZRL7EU.s 			page 13


 685              		.loc 1 253 0
 686 0006 1368     		ldr	r3, [r2]
 687 0008 0B40     		ands	r3, r3, r1
 688 000a 03F48023 		and	r3, r3, #262144
 689              	.LVL61:
 690              		.loc 1 254 0
 691 000e 5361     		str	r3, [r2, #20]
 692              		.loc 1 255 0
 693 0010 2BB1     		cbz	r3, .L120
 694              		.loc 1 256 0
 695 0012 0648     		ldr	r0, .L125+4
 696 0014 4368     		ldr	r3, [r0, #4]
 697              	.LVL62:
 698 0016 1221     		movs	r1, #18
 699 0018 D3F89430 		ldr	r3, [r3, #148]
 700 001c 9847     		blx	r3
 701              	.LVL63:
 702              	.L120:
 703              		.loc 1 259 0
 704 001e BDE80840 		pop	{r3, lr}
 705              		.cfi_restore 14
 706              		.cfi_restore 3
 707              		.cfi_def_cfa_offset 0
 708              		.loc 1 258 0
 709 0022 FFF7FEBF 		b	_port_irq_epilogue
 710              	.LVL64:
 711              	.L126:
 712 0026 00BF     		.align	2
 713              	.L125:
 714 0028 003C0140 		.word	1073822720
 715 002c 00000000 		.word	EXTD1
 716              		.cfi_endproc
 717              	.LFE277:
 718              		.size	VectorE8, .-VectorE8
 719              		.section	.text.Vector170,"ax",%progbits
 720              		.align	2
 721              		.p2align 4,,15
 722              		.global	Vector170
 723              		.thumb
 724              		.thumb_func
 725              		.type	Vector170, %function
 726              	Vector170:
 727              	.LFB278:
 728              		.loc 1 288 0
 729              		.cfi_startproc
 730              		@ args = 0, pretend = 0, frame = 0
 731              		@ frame_needed = 0, uses_anonymous_args = 0
 732              		.loc 1 293 0
 733 0000 094A     		ldr	r2, .L133
 734              		.loc 1 288 0
 735 0002 08B5     		push	{r3, lr}
 736              		.cfi_def_cfa_offset 8
 737              		.cfi_offset 3, -8
 738              		.cfi_offset 14, -4
 739              		.loc 1 293 0
 740 0004 5169     		ldr	r1, [r2, #20]
 741              	.LVL65:
ARM GAS  /var/folders/m4/4md61f0s1_g0rzfghffqnxvr0000gn/T//ccZRL7EU.s 			page 14


 742              		.loc 1 294 0
 743 0006 1368     		ldr	r3, [r2]
 744 0008 0B40     		ands	r3, r3, r1
 745 000a 03F48013 		and	r3, r3, #1048576
 746              	.LVL66:
 747              		.loc 1 295 0
 748 000e 5361     		str	r3, [r2, #20]
 749              		.loc 1 296 0
 750 0010 2BB1     		cbz	r3, .L128
 751              		.loc 1 297 0
 752 0012 0648     		ldr	r0, .L133+4
 753 0014 4368     		ldr	r3, [r0, #4]
 754              	.LVL67:
 755 0016 1421     		movs	r1, #20
 756 0018 D3F8A430 		ldr	r3, [r3, #164]
 757 001c 9847     		blx	r3
 758              	.LVL68:
 759              	.L128:
 760              		.loc 1 300 0
 761 001e BDE80840 		pop	{r3, lr}
 762              		.cfi_restore 14
 763              		.cfi_restore 3
 764              		.cfi_def_cfa_offset 0
 765              		.loc 1 299 0
 766 0022 FFF7FEBF 		b	_port_irq_epilogue
 767              	.LVL69:
 768              	.L134:
 769 0026 00BF     		.align	2
 770              	.L133:
 771 0028 003C0140 		.word	1073822720
 772 002c 00000000 		.word	EXTD1
 773              		.cfi_endproc
 774              	.LFE278:
 775              		.size	Vector170, .-Vector170
 776              		.section	.text.Vector48,"ax",%progbits
 777              		.align	2
 778              		.p2align 4,,15
 779              		.global	Vector48
 780              		.thumb
 781              		.thumb_func
 782              		.type	Vector48, %function
 783              	Vector48:
 784              	.LFB279:
 785              		.loc 1 309 0
 786              		.cfi_startproc
 787              		@ args = 0, pretend = 0, frame = 0
 788              		@ frame_needed = 0, uses_anonymous_args = 0
 789              		.loc 1 314 0
 790 0000 094A     		ldr	r2, .L141
 791              		.loc 1 309 0
 792 0002 08B5     		push	{r3, lr}
 793              		.cfi_def_cfa_offset 8
 794              		.cfi_offset 3, -8
 795              		.cfi_offset 14, -4
 796              		.loc 1 314 0
 797 0004 5169     		ldr	r1, [r2, #20]
 798              	.LVL70:
ARM GAS  /var/folders/m4/4md61f0s1_g0rzfghffqnxvr0000gn/T//ccZRL7EU.s 			page 15


 799              		.loc 1 315 0
 800 0006 1368     		ldr	r3, [r2]
 801 0008 0B40     		ands	r3, r3, r1
 802 000a 03F40013 		and	r3, r3, #2097152
 803              	.LVL71:
 804              		.loc 1 316 0
 805 000e 5361     		str	r3, [r2, #20]
 806              		.loc 1 317 0
 807 0010 2BB1     		cbz	r3, .L136
 808              		.loc 1 318 0
 809 0012 0648     		ldr	r0, .L141+4
 810 0014 4368     		ldr	r3, [r0, #4]
 811              	.LVL72:
 812 0016 1521     		movs	r1, #21
 813 0018 D3F8AC30 		ldr	r3, [r3, #172]
 814 001c 9847     		blx	r3
 815              	.LVL73:
 816              	.L136:
 817              		.loc 1 321 0
 818 001e BDE80840 		pop	{r3, lr}
 819              		.cfi_restore 14
 820              		.cfi_restore 3
 821              		.cfi_def_cfa_offset 0
 822              		.loc 1 320 0
 823 0022 FFF7FEBF 		b	_port_irq_epilogue
 824              	.LVL74:
 825              	.L142:
 826 0026 00BF     		.align	2
 827              	.L141:
 828 0028 003C0140 		.word	1073822720
 829 002c 00000000 		.word	EXTD1
 830              		.cfi_endproc
 831              	.LFE279:
 832              		.size	Vector48, .-Vector48
 833              		.section	.text.Vector4C,"ax",%progbits
 834              		.align	2
 835              		.p2align 4,,15
 836              		.global	Vector4C
 837              		.thumb
 838              		.thumb_func
 839              		.type	Vector4C, %function
 840              	Vector4C:
 841              	.LFB280:
 842              		.loc 1 329 0
 843              		.cfi_startproc
 844              		@ args = 0, pretend = 0, frame = 0
 845              		@ frame_needed = 0, uses_anonymous_args = 0
 846              		.loc 1 334 0
 847 0000 094A     		ldr	r2, .L149
 848              		.loc 1 329 0
 849 0002 08B5     		push	{r3, lr}
 850              		.cfi_def_cfa_offset 8
 851              		.cfi_offset 3, -8
 852              		.cfi_offset 14, -4
 853              		.loc 1 334 0
 854 0004 5169     		ldr	r1, [r2, #20]
 855              	.LVL75:
ARM GAS  /var/folders/m4/4md61f0s1_g0rzfghffqnxvr0000gn/T//ccZRL7EU.s 			page 16


 856              		.loc 1 335 0
 857 0006 1368     		ldr	r3, [r2]
 858 0008 0B40     		ands	r3, r3, r1
 859 000a 03F48003 		and	r3, r3, #4194304
 860              	.LVL76:
 861              		.loc 1 336 0
 862 000e 5361     		str	r3, [r2, #20]
 863              		.loc 1 337 0
 864 0010 2BB1     		cbz	r3, .L144
 865              		.loc 1 338 0
 866 0012 0648     		ldr	r0, .L149+4
 867 0014 4368     		ldr	r3, [r0, #4]
 868              	.LVL77:
 869 0016 1621     		movs	r1, #22
 870 0018 D3F8B430 		ldr	r3, [r3, #180]
 871 001c 9847     		blx	r3
 872              	.LVL78:
 873              	.L144:
 874              		.loc 1 341 0
 875 001e BDE80840 		pop	{r3, lr}
 876              		.cfi_restore 14
 877              		.cfi_restore 3
 878              		.cfi_def_cfa_offset 0
 879              		.loc 1 340 0
 880 0022 FFF7FEBF 		b	_port_irq_epilogue
 881              	.LVL79:
 882              	.L150:
 883 0026 00BF     		.align	2
 884              	.L149:
 885 0028 003C0140 		.word	1073822720
 886 002c 00000000 		.word	EXTD1
 887              		.cfi_endproc
 888              	.LFE280:
 889              		.size	Vector4C, .-Vector4C
 890              		.section	.text.ext_lld_exti_irq_enable,"ax",%progbits
 891              		.align	2
 892              		.p2align 4,,15
 893              		.global	ext_lld_exti_irq_enable
 894              		.thumb
 895              		.thumb_func
 896              		.type	ext_lld_exti_irq_enable, %function
 897              	ext_lld_exti_irq_enable:
 898              	.LFB281:
 899              		.loc 1 352 0
 900              		.cfi_startproc
 901              		@ args = 0, pretend = 0, frame = 0
 902              		@ frame_needed = 0, uses_anonymous_args = 0
 903              		.loc 1 354 0
 904 0000 0621     		movs	r1, #6
 905              		.loc 1 352 0
 906 0002 08B5     		push	{r3, lr}
 907              		.cfi_def_cfa_offset 8
 908              		.cfi_offset 3, -8
 909              		.cfi_offset 14, -4
 910              		.loc 1 354 0
 911 0004 0846     		mov	r0, r1
 912 0006 FFF7FEFF 		bl	nvicEnableVector
ARM GAS  /var/folders/m4/4md61f0s1_g0rzfghffqnxvr0000gn/T//ccZRL7EU.s 			page 17


 913              	.LVL80:
 914              		.loc 1 355 0
 915 000a 0621     		movs	r1, #6
 916 000c 0720     		movs	r0, #7
 917 000e FFF7FEFF 		bl	nvicEnableVector
 918              	.LVL81:
 919              		.loc 1 356 0
 920 0012 0621     		movs	r1, #6
 921 0014 0820     		movs	r0, #8
 922 0016 FFF7FEFF 		bl	nvicEnableVector
 923              	.LVL82:
 924              		.loc 1 357 0
 925 001a 0621     		movs	r1, #6
 926 001c 0920     		movs	r0, #9
 927 001e FFF7FEFF 		bl	nvicEnableVector
 928              	.LVL83:
 929              		.loc 1 358 0
 930 0022 0621     		movs	r1, #6
 931 0024 0A20     		movs	r0, #10
 932 0026 FFF7FEFF 		bl	nvicEnableVector
 933              	.LVL84:
 934              		.loc 1 359 0
 935 002a 0621     		movs	r1, #6
 936 002c 1720     		movs	r0, #23
 937 002e FFF7FEFF 		bl	nvicEnableVector
 938              	.LVL85:
 939              		.loc 1 360 0
 940 0032 0621     		movs	r1, #6
 941 0034 2820     		movs	r0, #40
 942 0036 FFF7FEFF 		bl	nvicEnableVector
 943              	.LVL86:
 944              		.loc 1 361 0
 945 003a 0621     		movs	r1, #6
 946 003c 0120     		movs	r0, #1
 947 003e FFF7FEFF 		bl	nvicEnableVector
 948              	.LVL87:
 949              		.loc 1 362 0
 950 0042 0F21     		movs	r1, #15
 951 0044 2920     		movs	r0, #41
 952 0046 FFF7FEFF 		bl	nvicEnableVector
 953              	.LVL88:
 954              		.loc 1 363 0
 955 004a 0621     		movs	r1, #6
 956 004c 2A20     		movs	r0, #42
 957 004e FFF7FEFF 		bl	nvicEnableVector
 958              	.LVL89:
 959              		.loc 1 368 0
 960 0052 0621     		movs	r1, #6
 961 0054 4C20     		movs	r0, #76
 962 0056 FFF7FEFF 		bl	nvicEnableVector
 963              	.LVL90:
 964              		.loc 1 371 0
 965 005a 0F21     		movs	r1, #15
 966 005c 0220     		movs	r0, #2
 967 005e FFF7FEFF 		bl	nvicEnableVector
 968              	.LVL91:
 969              		.loc 1 373 0
ARM GAS  /var/folders/m4/4md61f0s1_g0rzfghffqnxvr0000gn/T//ccZRL7EU.s 			page 18


 970 0062 0F21     		movs	r1, #15
 971 0064 0320     		movs	r0, #3
 972              		.loc 1 374 0
 973 0066 BDE80840 		pop	{r3, lr}
 974              		.cfi_restore 14
 975              		.cfi_restore 3
 976              		.cfi_def_cfa_offset 0
 977              		.loc 1 373 0
 978 006a FFF7FEBF 		b	nvicEnableVector
 979              	.LVL92:
 980              		.cfi_endproc
 981              	.LFE281:
 982              		.size	ext_lld_exti_irq_enable, .-ext_lld_exti_irq_enable
 983 006e 00BF     		.section	.text.ext_lld_exti_irq_disable,"ax",%progbits
 984              		.align	2
 985              		.p2align 4,,15
 986              		.global	ext_lld_exti_irq_disable
 987              		.thumb
 988              		.thumb_func
 989              		.type	ext_lld_exti_irq_disable, %function
 990              	ext_lld_exti_irq_disable:
 991              	.LFB282:
 992              		.loc 1 381 0
 993              		.cfi_startproc
 994              		@ args = 0, pretend = 0, frame = 0
 995              		@ frame_needed = 0, uses_anonymous_args = 0
 996 0000 08B5     		push	{r3, lr}
 997              		.cfi_def_cfa_offset 8
 998              		.cfi_offset 3, -8
 999              		.cfi_offset 14, -4
 1000              		.loc 1 383 0
 1001 0002 0620     		movs	r0, #6
 1002 0004 FFF7FEFF 		bl	nvicDisableVector
 1003              	.LVL93:
 1004              		.loc 1 384 0
 1005 0008 0720     		movs	r0, #7
 1006 000a FFF7FEFF 		bl	nvicDisableVector
 1007              	.LVL94:
 1008              		.loc 1 385 0
 1009 000e 0820     		movs	r0, #8
 1010 0010 FFF7FEFF 		bl	nvicDisableVector
 1011              	.LVL95:
 1012              		.loc 1 386 0
 1013 0014 0920     		movs	r0, #9
 1014 0016 FFF7FEFF 		bl	nvicDisableVector
 1015              	.LVL96:
 1016              		.loc 1 387 0
 1017 001a 0A20     		movs	r0, #10
 1018 001c FFF7FEFF 		bl	nvicDisableVector
 1019              	.LVL97:
 1020              		.loc 1 388 0
 1021 0020 1720     		movs	r0, #23
 1022 0022 FFF7FEFF 		bl	nvicDisableVector
 1023              	.LVL98:
 1024              		.loc 1 389 0
 1025 0026 2820     		movs	r0, #40
 1026 0028 FFF7FEFF 		bl	nvicDisableVector
ARM GAS  /var/folders/m4/4md61f0s1_g0rzfghffqnxvr0000gn/T//ccZRL7EU.s 			page 19


 1027              	.LVL99:
 1028              		.loc 1 390 0
 1029 002c 0120     		movs	r0, #1
 1030 002e FFF7FEFF 		bl	nvicDisableVector
 1031              	.LVL100:
 1032              		.loc 1 391 0
 1033 0032 2920     		movs	r0, #41
 1034 0034 FFF7FEFF 		bl	nvicDisableVector
 1035              	.LVL101:
 1036              		.loc 1 392 0
 1037 0038 2A20     		movs	r0, #42
 1038 003a FFF7FEFF 		bl	nvicDisableVector
 1039              	.LVL102:
 1040              		.loc 1 397 0
 1041 003e 4C20     		movs	r0, #76
 1042 0040 FFF7FEFF 		bl	nvicDisableVector
 1043              	.LVL103:
 1044              		.loc 1 400 0
 1045 0044 0220     		movs	r0, #2
 1046 0046 FFF7FEFF 		bl	nvicDisableVector
 1047              	.LVL104:
 1048              		.loc 1 402 0
 1049 004a 0320     		movs	r0, #3
 1050              		.loc 1 403 0
 1051 004c BDE80840 		pop	{r3, lr}
 1052              		.cfi_restore 14
 1053              		.cfi_restore 3
 1054              		.cfi_def_cfa_offset 0
 1055              		.loc 1 402 0
 1056 0050 FFF7FEBF 		b	nvicDisableVector
 1057              	.LVL105:
 1058              		.cfi_endproc
 1059              	.LFE282:
 1060              		.size	ext_lld_exti_irq_disable, .-ext_lld_exti_irq_disable
 1061              		.text
 1062              	.Letext0:
 1063              		.file 2 "/opt/homebrew-cask/Caskroom/gcc-arm-embedded/5_2-2015q4,20151219/gcc-arm-none-eabi-5_2-20
 1064              		.file 3 "/opt/homebrew-cask/Caskroom/gcc-arm-embedded/5_2-2015q4,20151219/gcc-arm-none-eabi-5_2-20
 1065              		.file 4 "ChibiOS_16.1.4/os/rt/ports/ARMCMx/compilers/GCC/chtypes.h"
 1066              		.file 5 "ChibiOS_16.1.4/os/rt/include/chsystypes.h"
 1067              		.file 6 "ChibiOS_16.1.4/os/rt/include/chschd.h"
 1068              		.file 7 "ChibiOS_16.1.4/os/ext/CMSIS/ST/STM32F4xx/stm32f405xx.h"
 1069              		.file 8 "ChibiOS_16.1.4/os/rt/ports/ARMCMx/chcore.h"
 1070              		.file 9 "ChibiOS_16.1.4/os/rt/ports/ARMCMx/chcore_v7m.h"
 1071              		.file 10 "ChibiOS_16.1.4/os/rt/include/chtm.h"
 1072              		.file 11 "ChibiOS_16.1.4/os/rt/include/chsem.h"
 1073              		.file 12 "ChibiOS_16.1.4/os/rt/include/chmtx.h"
 1074              		.file 13 "ChibiOS_16.1.4/os/hal/include/ext.h"
 1075              		.file 14 "ChibiOS_16.1.4/os/hal/ports/STM32/LLD/EXTIv1/ext_lld.h"
 1076              		.file 15 "ChibiOS_16.1.4/os/ext/CMSIS/include/core_cm4.h"
 1077              		.file 16 "ChibiOS_16.1.4/os/hal/ports/common/ARMCMx/nvic.h"