ARM GAS  /var/folders/m4/4md61f0s1_g0rzfghffqnxvr0000gn/T//ccoTO2Tv.s 			page 1


   1              		.syntax unified
   2              		.cpu cortex-m4
   3              		.eabi_attribute 27, 1
   4              		.eabi_attribute 28, 1
   5              		.fpu fpv4-sp-d16
   6              		.eabi_attribute 20, 1
   7              		.eabi_attribute 21, 1
   8              		.eabi_attribute 23, 3
   9              		.eabi_attribute 24, 1
  10              		.eabi_attribute 25, 1
  11              		.eabi_attribute 26, 1
  12              		.eabi_attribute 30, 2
  13              		.eabi_attribute 34, 1
  14              		.eabi_attribute 18, 4
  15              		.thumb
  16              		.syntax unified
  17              		.file	"ext_lld.c"
  18              		.text
  19              	.Ltext0:
  20              		.cfi_sections	.debug_frame
  21              		.section	.text.ext_lld_init,"ax",%progbits
  22              		.align	2
  23              		.p2align 4,,15
  24              		.global	ext_lld_init
  25              		.thumb
  26              		.thumb_func
  27              		.type	ext_lld_init, %function
  28              	ext_lld_init:
  29              	.LFB268:
  30              		.file 1 "ChibiOS_16.1.4/os/hal/ports/STM32/LLD/EXTIv1/ext_lld.c"
  31              		.loc 1 72 0
  32              		.cfi_startproc
  33              		@ args = 0, pretend = 0, frame = 0
  34              		@ frame_needed = 0, uses_anonymous_args = 0
  35              		@ link register save eliminated.
  36              		.loc 1 75 0
  37 0000 0148     		ldr	r0, .L2
  38 0002 FFF7FEBF 		b	extObjectInit
  39              	.LVL0:
  40              	.L3:
  41 0006 00BF     		.align	2
  42              	.L2:
  43 0008 00000000 		.word	.LANCHOR0
  44              		.cfi_endproc
  45              	.LFE268:
  46              		.size	ext_lld_init, .-ext_lld_init
  47              		.section	.text.ext_lld_stop,"ax",%progbits
  48              		.align	2
  49              		.p2align 4,,15
  50              		.global	ext_lld_stop
  51              		.thumb
  52              		.thumb_func
  53              		.type	ext_lld_stop, %function
  54              	ext_lld_stop:
  55              	.LFB270:
  56              		.loc 1 106 0
  57              		.cfi_startproc
ARM GAS  /var/folders/m4/4md61f0s1_g0rzfghffqnxvr0000gn/T//ccoTO2Tv.s 			page 2


  58              		@ args = 0, pretend = 0, frame = 0
  59              		@ frame_needed = 0, uses_anonymous_args = 0
  60              	.LVL1:
  61 0000 08B5     		push	{r3, lr}
  62              		.cfi_def_cfa_offset 8
  63              		.cfi_offset 3, -8
  64              		.cfi_offset 14, -4
  65              		.loc 1 108 0
  66 0002 0378     		ldrb	r3, [r0]	@ zero_extendqisi2
  67 0004 022B     		cmp	r3, #2
  68 0006 07D0     		beq	.L8
  69              	.LVL2:
  70              	.L5:
  71              		.loc 1 111 0
  72 0008 054B     		ldr	r3, .L9
  73 000a 0022     		movs	r2, #0
  74              		.loc 1 113 0
  75 000c 4FF0FF31 		mov	r1, #-1
  76              		.loc 1 111 0
  77 0010 5A60     		str	r2, [r3, #4]
  78              		.loc 1 112 0
  79 0012 1A60     		str	r2, [r3]
  80              		.loc 1 113 0
  81 0014 5961     		str	r1, [r3, #20]
  82 0016 08BD     		pop	{r3, pc}
  83              	.LVL3:
  84              	.L8:
  85              		.loc 1 109 0
  86 0018 FFF7FEFF 		bl	ext_lld_exti_irq_disable
  87              	.LVL4:
  88 001c F4E7     		b	.L5
  89              	.L10:
  90 001e 00BF     		.align	2
  91              	.L9:
  92 0020 003C0140 		.word	1073822720
  93              		.cfi_endproc
  94              	.LFE270:
  95              		.size	ext_lld_stop, .-ext_lld_stop
  96              		.section	.text.ext_lld_channel_enable,"ax",%progbits
  97              		.align	2
  98              		.p2align 4,,15
  99              		.global	ext_lld_channel_enable
 100              		.thumb
 101              		.thumb_func
 102              		.type	ext_lld_channel_enable, %function
 103              	ext_lld_channel_enable:
 104              	.LFB271:
 105              		.loc 1 128 0
 106              		.cfi_startproc
 107              		@ args = 0, pretend = 0, frame = 0
 108              		@ frame_needed = 0, uses_anonymous_args = 0
 109              	.LVL5:
 110              		.loc 1 129 0
 111 0000 01F01F03 		and	r3, r1, #31
 112 0004 0122     		movs	r2, #1
 113              		.loc 1 132 0
 114 0006 0F29     		cmp	r1, #15
ARM GAS  /var/folders/m4/4md61f0s1_g0rzfghffqnxvr0000gn/T//ccoTO2Tv.s 			page 3


 115              		.loc 1 128 0
 116 0008 F0B5     		push	{r4, r5, r6, r7, lr}
 117              		.cfi_def_cfa_offset 20
 118              		.cfi_offset 4, -20
 119              		.cfi_offset 5, -16
 120              		.cfi_offset 6, -12
 121              		.cfi_offset 7, -8
 122              		.cfi_offset 14, -4
 123              		.loc 1 129 0
 124 000a 02FA03F3 		lsl	r3, r2, r3
 125              	.LVL6:
 126              		.loc 1 132 0
 127 000e 1DD9     		bls	.L12
 128 0010 4268     		ldr	r2, [r0, #4]
 129 0012 52F83100 		ldr	r0, [r2, r1, lsl #3]
 130              	.LVL7:
 131              		.loc 1 155 0
 132 0016 C407     		lsls	r4, r0, #31
 133 0018 31D5     		bpl	.L14
 134              	.L21:
 135              		.loc 1 156 0
 136 001a 204D     		ldr	r5, .L22
 137 001c AC68     		ldr	r4, [r5, #8]
 138 001e 1C43     		orrs	r4, r4, r3
 139 0020 AC60     		str	r4, [r5, #8]
 140 0022 DC43     		mvns	r4, r3
 141              	.L15:
 142              		.loc 1 160 0
 143 0024 1D4D     		ldr	r5, .L22
 144              		.loc 1 165 0
 145 0026 02EBC101 		add	r1, r2, r1, lsl #3
 146              	.LVL8:
 147              		.loc 1 159 0
 148 002a 10F0020F 		tst	r0, #2
 149              		.loc 1 160 0
 150 002e E868     		ldr	r0, [r5, #12]
 151              		.loc 1 165 0
 152 0030 4A68     		ldr	r2, [r1, #4]
 153              		.loc 1 160 0
 154 0032 14BF     		ite	ne
 155 0034 1843     		orrne	r0, r0, r3
 156              		.loc 1 162 0
 157 0036 2040     		andeq	r0, r0, r4
 158 0038 E860     		str	r0, [r5, #12]
 159              		.loc 1 165 0
 160 003a 32B3     		cbz	r2, .L18
 161              		.loc 1 166 0
 162 003c 174A     		ldr	r2, .L22
 163 003e 1168     		ldr	r1, [r2]
 164 0040 0B43     		orrs	r3, r3, r1
 165              	.LVL9:
 166 0042 1360     		str	r3, [r2]
 167              		.loc 1 167 0
 168 0044 5368     		ldr	r3, [r2, #4]
 169 0046 1C40     		ands	r4, r4, r3
 170 0048 5460     		str	r4, [r2, #4]
 171 004a F0BD     		pop	{r4, r5, r6, r7, pc}
ARM GAS  /var/folders/m4/4md61f0s1_g0rzfghffqnxvr0000gn/T//ccoTO2Tv.s 			page 4


 172              	.LVL10:
 173              	.L12:
 174 004c 21F00304 		bic	r4, r1, #3
 175              	.LBB4:
 176              		.loc 1 135 0
 177 0050 4268     		ldr	r2, [r0, #4]
 178 0052 04F18044 		add	r4, r4, #1073741824
 179 0056 04F59C34 		add	r4, r4, #79872
 180 005a 52F83100 		ldr	r0, [r2, r1, lsl #3]
 181              	.LVL11:
 182              		.loc 1 142 0
 183 005e A768     		ldr	r7, [r4, #8]
 184              		.loc 1 134 0
 185 0060 01F00305 		and	r5, r1, #3
 186 0064 AD00     		lsls	r5, r5, #2
 187              	.LVL12:
 188              		.loc 1 142 0
 189 0066 0F26     		movs	r6, #15
 190 0068 AE40     		lsls	r6, r6, r5
 191 006a C0F3031E 		ubfx	lr, r0, #4, #4
 192 006e 27EA0606 		bic	r6, r7, r6
 193 0072 0EFA05F5 		lsl	r5, lr, r5
 194              	.LVL13:
 195 0076 3543     		orrs	r5, r5, r6
 196 0078 A560     		str	r5, [r4, #8]
 197              	.LBE4:
 198              		.loc 1 155 0
 199 007a C407     		lsls	r4, r0, #31
 200 007c CDD4     		bmi	.L21
 201              	.LVL14:
 202              	.L14:
 203              		.loc 1 158 0
 204 007e 074E     		ldr	r6, .L22
 205 0080 B568     		ldr	r5, [r6, #8]
 206 0082 DC43     		mvns	r4, r3
 207 0084 2540     		ands	r5, r5, r4
 208 0086 B560     		str	r5, [r6, #8]
 209 0088 CCE7     		b	.L15
 210              	.LVL15:
 211              	.L18:
 212              		.loc 1 170 0
 213 008a 044A     		ldr	r2, .L22
 214 008c 5168     		ldr	r1, [r2, #4]
 215 008e 0B43     		orrs	r3, r3, r1
 216              	.LVL16:
 217 0090 5360     		str	r3, [r2, #4]
 218              		.loc 1 171 0
 219 0092 1368     		ldr	r3, [r2]
 220 0094 1C40     		ands	r4, r4, r3
 221 0096 1460     		str	r4, [r2]
 222 0098 F0BD     		pop	{r4, r5, r6, r7, pc}
 223              	.L23:
 224 009a 00BF     		.align	2
 225              	.L22:
 226 009c 003C0140 		.word	1073822720
 227              		.cfi_endproc
 228              	.LFE271:
ARM GAS  /var/folders/m4/4md61f0s1_g0rzfghffqnxvr0000gn/T//ccoTO2Tv.s 			page 5


 229              		.size	ext_lld_channel_enable, .-ext_lld_channel_enable
 230              		.section	.text.ext_lld_start,"ax",%progbits
 231              		.align	2
 232              		.p2align 4,,15
 233              		.global	ext_lld_start
 234              		.thumb
 235              		.thumb_func
 236              		.type	ext_lld_start, %function
 237              	ext_lld_start:
 238              	.LFB269:
 239              		.loc 1 85 0
 240              		.cfi_startproc
 241              		@ args = 0, pretend = 0, frame = 0
 242              		@ frame_needed = 0, uses_anonymous_args = 0
 243              	.LVL17:
 244 0000 F8B5     		push	{r3, r4, r5, r6, r7, lr}
 245              		.cfi_def_cfa_offset 24
 246              		.cfi_offset 3, -24
 247              		.cfi_offset 4, -20
 248              		.cfi_offset 5, -16
 249              		.cfi_offset 6, -12
 250              		.cfi_offset 7, -8
 251              		.cfi_offset 14, -4
 252              		.loc 1 88 0
 253 0002 0378     		ldrb	r3, [r0]	@ zero_extendqisi2
 254 0004 012B     		cmp	r3, #1
 255              		.loc 1 85 0
 256 0006 0646     		mov	r6, r0
 257              		.loc 1 88 0
 258 0008 24D0     		beq	.L31
 259              	.LVL18:
 260              	.L25:
 261              	.LBB5:
 262              	.LBB6:
 263              		.loc 1 220 0 discriminator 1
 264 000a 144C     		ldr	r4, .L33
 265              	.LBE6:
 266              	.LBE5:
 267              		.loc 1 85 0 discriminator 1
 268 000c 0025     		movs	r5, #0
 269              	.LBB12:
 270              	.LBB7:
 271              		.loc 1 213 0 discriminator 1
 272 000e 0127     		movs	r7, #1
 273 0010 0FE0     		b	.L28
 274              	.LVL19:
 275              	.L26:
 276              		.loc 1 220 0
 277 0012 2268     		ldr	r2, [r4]
 278 0014 1A40     		ands	r2, r2, r3
 279 0016 2260     		str	r2, [r4]
 280              		.loc 1 221 0
 281 0018 6268     		ldr	r2, [r4, #4]
 282 001a 1A40     		ands	r2, r2, r3
 283 001c 6260     		str	r2, [r4, #4]
 284              		.loc 1 222 0
 285 001e A268     		ldr	r2, [r4, #8]
ARM GAS  /var/folders/m4/4md61f0s1_g0rzfghffqnxvr0000gn/T//ccoTO2Tv.s 			page 6


 286 0020 1A40     		ands	r2, r2, r3
 287 0022 A260     		str	r2, [r4, #8]
 288              		.loc 1 223 0
 289 0024 E268     		ldr	r2, [r4, #12]
 290              	.LBE7:
 291              	.LBE12:
 292              		.loc 1 92 0
 293 0026 0135     		adds	r5, r5, #1
 294              	.LVL20:
 295              	.LBB13:
 296              	.LBB8:
 297              		.loc 1 223 0
 298 0028 1340     		ands	r3, r3, r2
 299              	.LBE8:
 300              	.LBE13:
 301              		.loc 1 92 0
 302 002a 172D     		cmp	r5, #23
 303              	.LBB14:
 304              	.LBB9:
 305              		.loc 1 223 0
 306 002c E360     		str	r3, [r4, #12]
 307              		.loc 1 224 0
 308 002e 6161     		str	r1, [r4, #20]
 309              	.LBE9:
 310              	.LBE14:
 311              		.loc 1 92 0
 312 0030 0FD0     		beq	.L32
 313              	.LVL21:
 314              	.L28:
 315              		.loc 1 93 0
 316 0032 7268     		ldr	r2, [r6, #4]
 317 0034 52F83520 		ldr	r2, [r2, r5, lsl #3]
 318              	.LBB15:
 319              	.LBB10:
 320              		.loc 1 213 0
 321 0038 07FA05F1 		lsl	r1, r7, r5
 322              	.LVL22:
 323              	.LBE10:
 324              	.LBE15:
 325              		.loc 1 93 0
 326 003c 5207     		lsls	r2, r2, #29
 327              	.LBB16:
 328              	.LBB11:
 329              		.loc 1 220 0
 330 003e 6FEA0103 		mvn	r3, r1
 331              	.LBE11:
 332              	.LBE16:
 333              		.loc 1 93 0
 334 0042 E6D5     		bpl	.L26
 335              		.loc 1 94 0
 336 0044 2946     		mov	r1, r5
 337              	.LVL23:
 338 0046 3046     		mov	r0, r6
 339              		.loc 1 92 0
 340 0048 0135     		adds	r5, r5, #1
 341              	.LVL24:
 342              		.loc 1 94 0
ARM GAS  /var/folders/m4/4md61f0s1_g0rzfghffqnxvr0000gn/T//ccoTO2Tv.s 			page 7


 343 004a FFF7FEFF 		bl	ext_lld_channel_enable
 344              	.LVL25:
 345              		.loc 1 92 0
 346 004e 172D     		cmp	r5, #23
 347 0050 EFD1     		bne	.L28
 348              	.LVL26:
 349              	.L32:
 350              		.loc 1 97 0
 351 0052 F8BD     		pop	{r3, r4, r5, r6, r7, pc}
 352              	.LVL27:
 353              	.L31:
 354              		.loc 1 89 0
 355 0054 FFF7FEFF 		bl	ext_lld_exti_irq_enable
 356              	.LVL28:
 357 0058 D7E7     		b	.L25
 358              	.L34:
 359 005a 00BF     		.align	2
 360              	.L33:
 361 005c 003C0140 		.word	1073822720
 362              		.cfi_endproc
 363              	.LFE269:
 364              		.size	ext_lld_start, .-ext_lld_start
 365              		.section	.text.ext_lld_channel_disable,"ax",%progbits
 366              		.align	2
 367              		.p2align 4,,15
 368              		.global	ext_lld_channel_disable
 369              		.thumb
 370              		.thumb_func
 371              		.type	ext_lld_channel_disable, %function
 372              	ext_lld_channel_disable:
 373              	.LFB272:
 374              		.loc 1 212 0
 375              		.cfi_startproc
 376              		@ args = 0, pretend = 0, frame = 0
 377              		@ frame_needed = 0, uses_anonymous_args = 0
 378              		@ link register save eliminated.
 379              	.LVL29:
 380              		.loc 1 220 0
 381 0000 0A4B     		ldr	r3, .L36
 382              		.loc 1 213 0
 383 0002 0122     		movs	r2, #1
 384 0004 01F01F01 		and	r1, r1, #31
 385              	.LVL30:
 386              		.loc 1 220 0
 387 0008 1868     		ldr	r0, [r3]
 388              	.LVL31:
 389              		.loc 1 213 0
 390 000a 02FA01F1 		lsl	r1, r2, r1
 391              	.LVL32:
 392              		.loc 1 220 0
 393 000e CA43     		mvns	r2, r1
 394 0010 1040     		ands	r0, r0, r2
 395 0012 1860     		str	r0, [r3]
 396              		.loc 1 221 0
 397 0014 5868     		ldr	r0, [r3, #4]
 398 0016 1040     		ands	r0, r0, r2
 399 0018 5860     		str	r0, [r3, #4]
ARM GAS  /var/folders/m4/4md61f0s1_g0rzfghffqnxvr0000gn/T//ccoTO2Tv.s 			page 8


 400              		.loc 1 222 0
 401 001a 9868     		ldr	r0, [r3, #8]
 402 001c 1040     		ands	r0, r0, r2
 403 001e 9860     		str	r0, [r3, #8]
 404              		.loc 1 223 0
 405 0020 D868     		ldr	r0, [r3, #12]
 406 0022 0240     		ands	r2, r2, r0
 407 0024 DA60     		str	r2, [r3, #12]
 408              		.loc 1 224 0
 409 0026 5961     		str	r1, [r3, #20]
 410 0028 7047     		bx	lr
 411              	.L37:
 412 002a 00BF     		.align	2
 413              	.L36:
 414 002c 003C0140 		.word	1073822720
 415              		.cfi_endproc
 416              	.LFE272:
 417              		.size	ext_lld_channel_disable, .-ext_lld_channel_disable
 418              		.global	EXTD1
 419              		.section	.bss.EXTD1,"aw",%nobits
 420              		.align	2
 421              		.set	.LANCHOR0,. + 0
 422              		.type	EXTD1, %object
 423              		.size	EXTD1, 8
 424              	EXTD1:
 425 0000 00000000 		.space	8
 425      00000000 
 426              		.text
 427              	.Letext0:
 428              		.file 2 "/opt/homebrew-cask/Caskroom/gcc-arm-embedded/5_2-2015q4,20151219/gcc-arm-none-eabi-5_2-20
 429              		.file 3 "/opt/homebrew-cask/Caskroom/gcc-arm-embedded/5_2-2015q4,20151219/gcc-arm-none-eabi-5_2-20
 430              		.file 4 "/opt/homebrew-cask/Caskroom/gcc-arm-embedded/5_2-2015q4,20151219/gcc-arm-none-eabi-5_2-20
 431              		.file 5 "ChibiOS_16.1.4/os/rt/ports/ARMCMx/compilers/GCC/chtypes.h"
 432              		.file 6 "ChibiOS_16.1.4/os/rt/include/chsystypes.h"
 433              		.file 7 "ChibiOS_16.1.4/os/rt/include/chschd.h"
 434              		.file 8 "ChibiOS_16.1.4/os/ext/CMSIS/ST/STM32F4xx/stm32f405xx.h"
 435              		.file 9 "ChibiOS_16.1.4/os/rt/ports/ARMCMx/chcore.h"
 436              		.file 10 "ChibiOS_16.1.4/os/rt/ports/ARMCMx/chcore_v7m.h"
 437              		.file 11 "ChibiOS_16.1.4/os/rt/include/chtm.h"
 438              		.file 12 "ChibiOS_16.1.4/os/rt/include/chsem.h"
 439              		.file 13 "ChibiOS_16.1.4/os/rt/include/chmtx.h"
 440              		.file 14 "ChibiOS_16.1.4/os/hal/include/ext.h"
 441              		.file 15 "ChibiOS_16.1.4/os/hal/ports/STM32/LLD/EXTIv1/ext_lld.h"
 442              		.file 16 "ChibiOS_16.1.4/os/ext/CMSIS/include/core_cm4.h"
 443              		.file 17 "ChibiOS_16.1.4/os/hal/ports/STM32/STM32F4xx/ext_lld_isr.h"
 444              		.section	.debug_info,"",%progbits
 445              	.Ldebug_info0:
 446 0000 F20A0000 		.4byte	0xaf2
 447 0004 0400     		.2byte	0x4
 448 0006 00000000 		.4byte	.Ldebug_abbrev0
 449 000a 04       		.byte	0x4
 450 000b 01       		.uleb128 0x1
 451 000c 6E030000 		.4byte	.LASF143
 452 0010 0C       		.byte	0xc
 453 0011 C5060000 		.4byte	.LASF144
 454 0015 7C020000 		.4byte	.LASF145
 455 0019 38000000 		.4byte	.Ldebug_ranges0+0x38
ARM GAS  /var/folders/m4/4md61f0s1_g0rzfghffqnxvr0000gn/T//ccoTO2Tv.s 			page 9


 456 001d 00000000 		.4byte	0
 457 0021 00000000 		.4byte	.Ldebug_line0
 458 0025 02       		.uleb128 0x2
 459 0026 04       		.byte	0x4
 460 0027 05       		.byte	0x5
 461 0028 696E7400 		.ascii	"int\000"
 462 002c 03       		.uleb128 0x3
 463 002d 1C000000 		.4byte	.LASF2
 464 0031 02       		.byte	0x2
 465 0032 D8       		.byte	0xd8
 466 0033 37000000 		.4byte	0x37
 467 0037 04       		.uleb128 0x4
 468 0038 04       		.byte	0x4
 469 0039 07       		.byte	0x7
 470 003a DE010000 		.4byte	.LASF0
 471 003e 04       		.uleb128 0x4
 472 003f 01       		.byte	0x1
 473 0040 06       		.byte	0x6
 474 0041 2C000000 		.4byte	.LASF1
 475 0045 03       		.uleb128 0x3
 476 0046 38000000 		.4byte	.LASF3
 477 004a 03       		.byte	0x3
 478 004b 1D       		.byte	0x1d
 479 004c 50000000 		.4byte	0x50
 480 0050 04       		.uleb128 0x4
 481 0051 01       		.byte	0x1
 482 0052 08       		.byte	0x8
 483 0053 3F050000 		.4byte	.LASF4
 484 0057 04       		.uleb128 0x4
 485 0058 02       		.byte	0x2
 486 0059 05       		.byte	0x5
 487 005a 5C050000 		.4byte	.LASF5
 488 005e 04       		.uleb128 0x4
 489 005f 02       		.byte	0x2
 490 0060 07       		.byte	0x7
 491 0061 37020000 		.4byte	.LASF6
 492 0065 03       		.uleb128 0x3
 493 0066 EC020000 		.4byte	.LASF7
 494 006a 03       		.byte	0x3
 495 006b 3F       		.byte	0x3f
 496 006c 70000000 		.4byte	0x70
 497 0070 04       		.uleb128 0x4
 498 0071 04       		.byte	0x4
 499 0072 05       		.byte	0x5
 500 0073 53010000 		.4byte	.LASF8
 501 0077 03       		.uleb128 0x3
 502 0078 70060000 		.4byte	.LASF9
 503 007c 03       		.byte	0x3
 504 007d 41       		.byte	0x41
 505 007e 82000000 		.4byte	0x82
 506 0082 04       		.uleb128 0x4
 507 0083 04       		.byte	0x4
 508 0084 07       		.byte	0x7
 509 0085 08060000 		.4byte	.LASF10
 510 0089 04       		.uleb128 0x4
 511 008a 08       		.byte	0x8
 512 008b 05       		.byte	0x5
ARM GAS  /var/folders/m4/4md61f0s1_g0rzfghffqnxvr0000gn/T//ccoTO2Tv.s 			page 10


 513 008c F5000000 		.4byte	.LASF11
 514 0090 03       		.uleb128 0x3
 515 0091 DB040000 		.4byte	.LASF12
 516 0095 03       		.byte	0x3
 517 0096 5B       		.byte	0x5b
 518 0097 9B000000 		.4byte	0x9b
 519 009b 04       		.uleb128 0x4
 520 009c 08       		.byte	0x8
 521 009d 07       		.byte	0x7
 522 009e 77000000 		.4byte	.LASF13
 523 00a2 03       		.uleb128 0x3
 524 00a3 02070000 		.4byte	.LASF14
 525 00a7 04       		.byte	0x4
 526 00a8 14       		.byte	0x14
 527 00a9 45000000 		.4byte	0x45
 528 00ad 03       		.uleb128 0x3
 529 00ae 37050000 		.4byte	.LASF15
 530 00b2 04       		.byte	0x4
 531 00b3 1F       		.byte	0x1f
 532 00b4 65000000 		.4byte	0x65
 533 00b8 03       		.uleb128 0x3
 534 00b9 E0050000 		.4byte	.LASF16
 535 00bd 04       		.byte	0x4
 536 00be 20       		.byte	0x20
 537 00bf 77000000 		.4byte	0x77
 538 00c3 03       		.uleb128 0x3
 539 00c4 23000000 		.4byte	.LASF17
 540 00c8 04       		.byte	0x4
 541 00c9 26       		.byte	0x26
 542 00ca 90000000 		.4byte	0x90
 543 00ce 03       		.uleb128 0x3
 544 00cf 8C060000 		.4byte	.LASF18
 545 00d3 05       		.byte	0x5
 546 00d4 39       		.byte	0x39
 547 00d5 B8000000 		.4byte	0xb8
 548 00d9 03       		.uleb128 0x3
 549 00da CA020000 		.4byte	.LASF19
 550 00de 05       		.byte	0x5
 551 00df 3C       		.byte	0x3c
 552 00e0 A2000000 		.4byte	0xa2
 553 00e4 03       		.uleb128 0x3
 554 00e5 5C010000 		.4byte	.LASF20
 555 00e9 05       		.byte	0x5
 556 00ea 3D       		.byte	0x3d
 557 00eb A2000000 		.4byte	0xa2
 558 00ef 03       		.uleb128 0x3
 559 00f0 FA040000 		.4byte	.LASF21
 560 00f4 05       		.byte	0x5
 561 00f5 3E       		.byte	0x3e
 562 00f6 A2000000 		.4byte	0xa2
 563 00fa 03       		.uleb128 0x3
 564 00fb 2D010000 		.4byte	.LASF22
 565 00ff 05       		.byte	0x5
 566 0100 3F       		.byte	0x3f
 567 0101 A2000000 		.4byte	0xa2
 568 0105 03       		.uleb128 0x3
 569 0106 19050000 		.4byte	.LASF23
ARM GAS  /var/folders/m4/4md61f0s1_g0rzfghffqnxvr0000gn/T//ccoTO2Tv.s 			page 11


 570 010a 05       		.byte	0x5
 571 010b 40       		.byte	0x40
 572 010c B8000000 		.4byte	0xb8
 573 0110 03       		.uleb128 0x3
 574 0111 76020000 		.4byte	.LASF24
 575 0115 05       		.byte	0x5
 576 0116 41       		.byte	0x41
 577 0117 AD000000 		.4byte	0xad
 578 011b 03       		.uleb128 0x3
 579 011c E0020000 		.4byte	.LASF25
 580 0120 05       		.byte	0x5
 581 0121 43       		.byte	0x43
 582 0122 B8000000 		.4byte	0xb8
 583 0126 03       		.uleb128 0x3
 584 0127 60030000 		.4byte	.LASF26
 585 012b 05       		.byte	0x5
 586 012c 45       		.byte	0x45
 587 012d AD000000 		.4byte	0xad
 588 0131 03       		.uleb128 0x3
 589 0132 52060000 		.4byte	.LASF27
 590 0136 06       		.byte	0x6
 591 0137 33       		.byte	0x33
 592 0138 B8000000 		.4byte	0xb8
 593 013c 03       		.uleb128 0x3
 594 013d 42060000 		.4byte	.LASF28
 595 0141 06       		.byte	0x6
 596 0142 3F       		.byte	0x3f
 597 0143 47010000 		.4byte	0x147
 598 0147 05       		.uleb128 0x5
 599 0148 62020000 		.4byte	.LASF50
 600 014c 48       		.byte	0x48
 601 014d 07       		.byte	0x7
 602 014e C2       		.byte	0xc2
 603 014f 4C020000 		.4byte	0x24c
 604 0153 06       		.uleb128 0x6
 605 0154 8F050000 		.4byte	.LASF29
 606 0158 07       		.byte	0x7
 607 0159 C3       		.byte	0xc3
 608 015a 57020000 		.4byte	0x257
 609 015e 00       		.byte	0
 610 015f 06       		.uleb128 0x6
 611 0160 12050000 		.4byte	.LASF30
 612 0164 07       		.byte	0x7
 613 0165 C5       		.byte	0xc5
 614 0166 57020000 		.4byte	0x257
 615 016a 04       		.byte	0x4
 616 016b 06       		.uleb128 0x6
 617 016c EE000000 		.4byte	.LASF31
 618 0170 07       		.byte	0x7
 619 0171 C7       		.byte	0xc7
 620 0172 05010000 		.4byte	0x105
 621 0176 08       		.byte	0x8
 622 0177 06       		.uleb128 0x6
 623 0178 44070000 		.4byte	.LASF32
 624 017c 07       		.byte	0x7
 625 017d C8       		.byte	0xc8
 626 017e 6B050000 		.4byte	0x56b
ARM GAS  /var/folders/m4/4md61f0s1_g0rzfghffqnxvr0000gn/T//ccoTO2Tv.s 			page 12


 627 0182 0C       		.byte	0xc
 628 0183 06       		.uleb128 0x6
 629 0184 65010000 		.4byte	.LASF33
 630 0188 07       		.byte	0x7
 631 0189 CA       		.byte	0xca
 632 018a 57020000 		.4byte	0x257
 633 018e 10       		.byte	0x10
 634 018f 06       		.uleb128 0x6
 635 0190 66030000 		.4byte	.LASF34
 636 0194 07       		.byte	0x7
 637 0195 CB       		.byte	0xcb
 638 0196 57020000 		.4byte	0x257
 639 019a 14       		.byte	0x14
 640 019b 06       		.uleb128 0x6
 641 019c 11070000 		.4byte	.LASF35
 642 01a0 07       		.byte	0x7
 643 01a1 D2       		.byte	0xd2
 644 01a2 B9070000 		.4byte	0x7b9
 645 01a6 18       		.byte	0x18
 646 01a7 06       		.uleb128 0x6
 647 01a8 66050000 		.4byte	.LASF36
 648 01ac 07       		.byte	0x7
 649 01ad DD       		.byte	0xdd
 650 01ae E4000000 		.4byte	0xe4
 651 01b2 1C       		.byte	0x1c
 652 01b3 06       		.uleb128 0x6
 653 01b4 96050000 		.4byte	.LASF37
 654 01b8 07       		.byte	0x7
 655 01b9 E1       		.byte	0xe1
 656 01ba D9000000 		.4byte	0xd9
 657 01be 1D       		.byte	0x1d
 658 01bf 06       		.uleb128 0x6
 659 01c0 BE060000 		.4byte	.LASF38
 660 01c4 07       		.byte	0x7
 661 01c5 E6       		.byte	0xe6
 662 01c6 EF000000 		.4byte	0xef
 663 01ca 1E       		.byte	0x1e
 664 01cb 06       		.uleb128 0x6
 665 01cc 6E050000 		.4byte	.LASF39
 666 01d0 07       		.byte	0x7
 667 01d1 EC       		.byte	0xec
 668 01d2 FA000000 		.4byte	0xfa
 669 01d6 1F       		.byte	0x1f
 670 01d7 06       		.uleb128 0x6
 671 01d8 F3010000 		.4byte	.LASF40
 672 01dc 07       		.byte	0x7
 673 01dd F3       		.byte	0xf3
 674 01de CB070000 		.4byte	0x7cb
 675 01e2 20       		.byte	0x20
 676 01e3 07       		.uleb128 0x7
 677 01e4 705F7500 		.ascii	"p_u\000"
 678 01e8 07       		.byte	0x7
 679 01e9 3101     		.2byte	0x131
 680 01eb F4060000 		.4byte	0x6f4
 681 01ef 24       		.byte	0x24
 682 01f0 08       		.uleb128 0x8
 683 01f1 12030000 		.4byte	.LASF41
ARM GAS  /var/folders/m4/4md61f0s1_g0rzfghffqnxvr0000gn/T//ccoTO2Tv.s 			page 13


 684 01f5 07       		.byte	0x7
 685 01f6 3601     		.2byte	0x136
 686 01f8 5D020000 		.4byte	0x25d
 687 01fc 28       		.byte	0x28
 688 01fd 08       		.uleb128 0x8
 689 01fe 0A020000 		.4byte	.LASF42
 690 0202 07       		.byte	0x7
 691 0203 3C01     		.2byte	0x13c
 692 0205 81020000 		.4byte	0x281
 693 0209 2C       		.byte	0x2c
 694 020a 08       		.uleb128 0x8
 695 020b 23070000 		.4byte	.LASF43
 696 020f 07       		.byte	0x7
 697 0210 4001     		.2byte	0x140
 698 0212 10010000 		.4byte	0x110
 699 0216 34       		.byte	0x34
 700 0217 08       		.uleb128 0x8
 701 0218 D5050000 		.4byte	.LASF44
 702 021c 07       		.byte	0x7
 703 021d 4601     		.2byte	0x146
 704 021f 1B010000 		.4byte	0x11b
 705 0223 38       		.byte	0x38
 706 0224 08       		.uleb128 0x8
 707 0225 52050000 		.4byte	.LASF45
 708 0229 07       		.byte	0x7
 709 022a 4D01     		.2byte	0x14d
 710 022c B3070000 		.4byte	0x7b3
 711 0230 3C       		.byte	0x3c
 712 0231 08       		.uleb128 0x8
 713 0232 5C060000 		.4byte	.LASF46
 714 0236 07       		.byte	0x7
 715 0237 5101     		.2byte	0x151
 716 0239 05010000 		.4byte	0x105
 717 023d 40       		.byte	0x40
 718 023e 08       		.uleb128 0x8
 719 023f 16010000 		.4byte	.LASF47
 720 0243 07       		.byte	0x7
 721 0244 5801     		.2byte	0x158
 722 0246 34030000 		.4byte	0x334
 723 024a 44       		.byte	0x44
 724 024b 00       		.byte	0
 725 024c 03       		.uleb128 0x3
 726 024d 25030000 		.4byte	.LASF48
 727 0251 06       		.byte	0x6
 728 0252 44       		.byte	0x44
 729 0253 57020000 		.4byte	0x257
 730 0257 09       		.uleb128 0x9
 731 0258 04       		.byte	0x4
 732 0259 3C010000 		.4byte	0x13c
 733 025d 03       		.uleb128 0x3
 734 025e 00000000 		.4byte	.LASF49
 735 0262 06       		.byte	0x6
 736 0263 49       		.byte	0x49
 737 0264 68020000 		.4byte	0x268
 738 0268 05       		.uleb128 0x5
 739 0269 F8050000 		.4byte	.LASF51
 740 026d 04       		.byte	0x4
ARM GAS  /var/folders/m4/4md61f0s1_g0rzfghffqnxvr0000gn/T//ccoTO2Tv.s 			page 14


 741 026e 07       		.byte	0x7
 742 026f B0       		.byte	0xb0
 743 0270 81020000 		.4byte	0x281
 744 0274 06       		.uleb128 0x6
 745 0275 8F050000 		.4byte	.LASF29
 746 0279 07       		.byte	0x7
 747 027a B1       		.byte	0xb1
 748 027b 57020000 		.4byte	0x257
 749 027f 00       		.byte	0
 750 0280 00       		.byte	0
 751 0281 03       		.uleb128 0x3
 752 0282 A5060000 		.4byte	.LASF52
 753 0286 06       		.byte	0x6
 754 0287 50       		.byte	0x50
 755 0288 8C020000 		.4byte	0x28c
 756 028c 05       		.uleb128 0x5
 757 028d C5000000 		.4byte	.LASF53
 758 0291 08       		.byte	0x8
 759 0292 07       		.byte	0x7
 760 0293 B7       		.byte	0xb7
 761 0294 B1020000 		.4byte	0x2b1
 762 0298 06       		.uleb128 0x6
 763 0299 8F050000 		.4byte	.LASF29
 764 029d 07       		.byte	0x7
 765 029e B8       		.byte	0xb8
 766 029f 57020000 		.4byte	0x257
 767 02a3 00       		.byte	0
 768 02a4 06       		.uleb128 0x6
 769 02a5 12050000 		.4byte	.LASF30
 770 02a9 07       		.byte	0x7
 771 02aa B9       		.byte	0xb9
 772 02ab 57020000 		.4byte	0x257
 773 02af 04       		.byte	0x4
 774 02b0 00       		.byte	0
 775 02b1 03       		.uleb128 0x3
 776 02b2 0F000000 		.4byte	.LASF54
 777 02b6 06       		.byte	0x6
 778 02b7 57       		.byte	0x57
 779 02b8 BC020000 		.4byte	0x2bc
 780 02bc 0A       		.uleb128 0xa
 781 02bd D2020000 		.4byte	.LASF55
 782 02c1 1C       		.byte	0x1c
 783 02c2 07       		.byte	0x7
 784 02c3 9001     		.2byte	0x190
 785 02c5 18030000 		.4byte	0x318
 786 02c9 08       		.uleb128 0x8
 787 02ca F0050000 		.4byte	.LASF56
 788 02ce 07       		.byte	0x7
 789 02cf 9101     		.2byte	0x191
 790 02d1 81020000 		.4byte	0x281
 791 02d5 00       		.byte	0
 792 02d6 08       		.uleb128 0x8
 793 02d7 78050000 		.4byte	.LASF57
 794 02db 07       		.byte	0x7
 795 02dc 9201     		.2byte	0x192
 796 02de 05010000 		.4byte	0x105
 797 02e2 08       		.byte	0x8
ARM GAS  /var/folders/m4/4md61f0s1_g0rzfghffqnxvr0000gn/T//ccoTO2Tv.s 			page 15


 798 02e3 08       		.uleb128 0x8
 799 02e4 90040000 		.4byte	.LASF58
 800 02e8 07       		.byte	0x7
 801 02e9 9401     		.2byte	0x194
 802 02eb 6B050000 		.4byte	0x56b
 803 02ef 0C       		.byte	0xc
 804 02f0 08       		.uleb128 0x8
 805 02f1 8B010000 		.4byte	.LASF59
 806 02f5 07       		.byte	0x7
 807 02f6 9701     		.2byte	0x197
 808 02f8 57020000 		.4byte	0x257
 809 02fc 10       		.byte	0x10
 810 02fd 08       		.uleb128 0x8
 811 02fe D3040000 		.4byte	.LASF60
 812 0302 07       		.byte	0x7
 813 0303 9801     		.2byte	0x198
 814 0305 57020000 		.4byte	0x257
 815 0309 14       		.byte	0x14
 816 030a 08       		.uleb128 0x8
 817 030b C9040000 		.4byte	.LASF61
 818 030f 07       		.byte	0x7
 819 0310 9B01     		.2byte	0x19b
 820 0312 57020000 		.4byte	0x257
 821 0316 18       		.byte	0x18
 822 0317 00       		.byte	0
 823 0318 03       		.uleb128 0x3
 824 0319 67060000 		.4byte	.LASF62
 825 031d 06       		.byte	0x6
 826 031e 5C       		.byte	0x5c
 827 031f 23030000 		.4byte	0x323
 828 0323 09       		.uleb128 0x9
 829 0324 04       		.byte	0x4
 830 0325 29030000 		.4byte	0x329
 831 0329 0B       		.uleb128 0xb
 832 032a 34030000 		.4byte	0x334
 833 032e 0C       		.uleb128 0xc
 834 032f 34030000 		.4byte	0x334
 835 0333 00       		.byte	0
 836 0334 0D       		.uleb128 0xd
 837 0335 04       		.byte	0x4
 838 0336 03       		.uleb128 0x3
 839 0337 02050000 		.4byte	.LASF63
 840 033b 06       		.byte	0x6
 841 033c 61       		.byte	0x61
 842 033d 41030000 		.4byte	0x341
 843 0341 0A       		.uleb128 0xa
 844 0342 B7050000 		.4byte	.LASF64
 845 0346 14       		.byte	0x14
 846 0347 07       		.byte	0x7
 847 0348 6B01     		.2byte	0x16b
 848 034a 90030000 		.4byte	0x390
 849 034e 08       		.uleb128 0x8
 850 034f EB010000 		.4byte	.LASF65
 851 0353 07       		.byte	0x7
 852 0354 6C01     		.2byte	0x16c
 853 0356 D0070000 		.4byte	0x7d0
 854 035a 00       		.byte	0
ARM GAS  /var/folders/m4/4md61f0s1_g0rzfghffqnxvr0000gn/T//ccoTO2Tv.s 			page 16


 855 035b 08       		.uleb128 0x8
 856 035c A1010000 		.4byte	.LASF66
 857 0360 07       		.byte	0x7
 858 0361 6D01     		.2byte	0x16d
 859 0363 D0070000 		.4byte	0x7d0
 860 0367 04       		.byte	0x4
 861 0368 08       		.uleb128 0x8
 862 0369 01020000 		.4byte	.LASF67
 863 036d 07       		.byte	0x7
 864 036e 6E01     		.2byte	0x16e
 865 0370 31010000 		.4byte	0x131
 866 0374 08       		.byte	0x8
 867 0375 08       		.uleb128 0x8
 868 0376 4A070000 		.4byte	.LASF68
 869 037a 07       		.byte	0x7
 870 037b 6F01     		.2byte	0x16f
 871 037d 18030000 		.4byte	0x318
 872 0381 0C       		.byte	0xc
 873 0382 08       		.uleb128 0x8
 874 0383 94060000 		.4byte	.LASF69
 875 0387 07       		.byte	0x7
 876 0388 7101     		.2byte	0x171
 877 038a 34030000 		.4byte	0x334
 878 038e 10       		.byte	0x10
 879 038f 00       		.byte	0
 880 0390 03       		.uleb128 0x3
 881 0391 A2000000 		.4byte	.LASF70
 882 0395 06       		.byte	0x6
 883 0396 66       		.byte	0x66
 884 0397 9B030000 		.4byte	0x39b
 885 039b 0A       		.uleb128 0xa
 886 039c 43030000 		.4byte	.LASF71
 887 03a0 10       		.byte	0x10
 888 03a1 07       		.byte	0x7
 889 03a2 7B01     		.2byte	0x17b
 890 03a4 DD030000 		.4byte	0x3dd
 891 03a8 08       		.uleb128 0x8
 892 03a9 EB010000 		.4byte	.LASF65
 893 03ad 07       		.byte	0x7
 894 03ae 7C01     		.2byte	0x17c
 895 03b0 D0070000 		.4byte	0x7d0
 896 03b4 00       		.byte	0
 897 03b5 08       		.uleb128 0x8
 898 03b6 A1010000 		.4byte	.LASF66
 899 03ba 07       		.byte	0x7
 900 03bb 7E01     		.2byte	0x17e
 901 03bd D0070000 		.4byte	0x7d0
 902 03c1 04       		.byte	0x4
 903 03c2 08       		.uleb128 0x8
 904 03c3 01020000 		.4byte	.LASF67
 905 03c7 07       		.byte	0x7
 906 03c8 8001     		.2byte	0x180
 907 03ca 31010000 		.4byte	0x131
 908 03ce 08       		.byte	0x8
 909 03cf 08       		.uleb128 0x8
 910 03d0 18070000 		.4byte	.LASF72
 911 03d4 07       		.byte	0x7
ARM GAS  /var/folders/m4/4md61f0s1_g0rzfghffqnxvr0000gn/T//ccoTO2Tv.s 			page 17


 912 03d5 8201     		.2byte	0x182
 913 03d7 CB070000 		.4byte	0x7cb
 914 03db 0C       		.byte	0xc
 915 03dc 00       		.byte	0
 916 03dd 03       		.uleb128 0x3
 917 03de 5B000000 		.4byte	.LASF73
 918 03e2 06       		.byte	0x6
 919 03e3 6B       		.byte	0x6b
 920 03e4 E8030000 		.4byte	0x3e8
 921 03e8 0A       		.uleb128 0xa
 922 03e9 21050000 		.4byte	.LASF74
 923 03ed 04       		.byte	0x4
 924 03ee 07       		.byte	0x7
 925 03ef A201     		.2byte	0x1a2
 926 03f1 03040000 		.4byte	0x403
 927 03f5 08       		.uleb128 0x8
 928 03f6 7B060000 		.4byte	.LASF75
 929 03fa 07       		.byte	0x7
 930 03fb AA01     		.2byte	0x1aa
 931 03fd D6070000 		.4byte	0x7d6
 932 0401 00       		.byte	0
 933 0402 00       		.byte	0
 934 0403 03       		.uleb128 0x3
 935 0404 BE020000 		.4byte	.LASF76
 936 0408 06       		.byte	0x6
 937 0409 70       		.byte	0x70
 938 040a 0E040000 		.4byte	0x40e
 939 040e 0E       		.uleb128 0xe
 940 040f 9E050000 		.4byte	.LASF77
 941 0413 5802     		.2byte	0x258
 942 0415 07       		.byte	0x7
 943 0416 C201     		.2byte	0x1c2
 944 0418 6A040000 		.4byte	0x46a
 945 041c 08       		.uleb128 0x8
 946 041d FC060000 		.4byte	.LASF78
 947 0421 07       		.byte	0x7
 948 0422 C601     		.2byte	0x1c6
 949 0424 B1020000 		.4byte	0x2b1
 950 0428 00       		.byte	0
 951 0429 08       		.uleb128 0x8
 952 042a 26010000 		.4byte	.LASF79
 953 042e 07       		.byte	0x7
 954 042f CA01     		.2byte	0x1ca
 955 0431 90030000 		.4byte	0x390
 956 0435 1C       		.byte	0x1c
 957 0436 07       		.uleb128 0x7
 958 0437 64626700 		.ascii	"dbg\000"
 959 043b 07       		.byte	0x7
 960 043c CE01     		.2byte	0x1ce
 961 043e DD030000 		.4byte	0x3dd
 962 0442 2C       		.byte	0x2c
 963 0443 08       		.uleb128 0x8
 964 0444 97000000 		.4byte	.LASF80
 965 0448 07       		.byte	0x7
 966 0449 D201     		.2byte	0x1d2
 967 044b 3C010000 		.4byte	0x13c
 968 044f 30       		.byte	0x30
ARM GAS  /var/folders/m4/4md61f0s1_g0rzfghffqnxvr0000gn/T//ccoTO2Tv.s 			page 18


 969 0450 07       		.uleb128 0x7
 970 0451 746D00   		.ascii	"tm\000"
 971 0454 07       		.byte	0x7
 972 0455 D701     		.2byte	0x1d7
 973 0457 E9060000 		.4byte	0x6e9
 974 045b 78       		.byte	0x78
 975 045c 08       		.uleb128 0x8
 976 045d B6010000 		.4byte	.LASF81
 977 0461 07       		.byte	0x7
 978 0462 E301     		.2byte	0x1e3
 979 0464 DB070000 		.4byte	0x7db
 980 0468 80       		.byte	0x80
 981 0469 00       		.byte	0
 982 046a 04       		.uleb128 0x4
 983 046b 04       		.byte	0x4
 984 046c 07       		.byte	0x7
 985 046d 1C030000 		.4byte	.LASF82
 986 0471 0F       		.uleb128 0xf
 987 0472 B8000000 		.4byte	0xb8
 988 0476 10       		.uleb128 0x10
 989 0477 B8000000 		.4byte	0xb8
 990 047b 86040000 		.4byte	0x486
 991 047f 11       		.uleb128 0x11
 992 0480 6A040000 		.4byte	0x46a
 993 0484 01       		.byte	0x1
 994 0485 00       		.byte	0
 995 0486 10       		.uleb128 0x10
 996 0487 B8000000 		.4byte	0xb8
 997 048b 96040000 		.4byte	0x496
 998 048f 11       		.uleb128 0x11
 999 0490 6A040000 		.4byte	0x46a
 1000 0494 03       		.byte	0x3
 1001 0495 00       		.byte	0
 1002 0496 12       		.uleb128 0x12
 1003 0497 18       		.byte	0x18
 1004 0498 08       		.byte	0x8
 1005 0499 6D01     		.2byte	0x16d
 1006 049b ED040000 		.4byte	0x4ed
 1007 049f 07       		.uleb128 0x7
 1008 04a0 494D5200 		.ascii	"IMR\000"
 1009 04a4 08       		.byte	0x8
 1010 04a5 6F01     		.2byte	0x16f
 1011 04a7 71040000 		.4byte	0x471
 1012 04ab 00       		.byte	0
 1013 04ac 07       		.uleb128 0x7
 1014 04ad 454D5200 		.ascii	"EMR\000"
 1015 04b1 08       		.byte	0x8
 1016 04b2 7001     		.2byte	0x170
 1017 04b4 71040000 		.4byte	0x471
 1018 04b8 04       		.byte	0x4
 1019 04b9 08       		.uleb128 0x8
 1020 04ba E6040000 		.4byte	.LASF83
 1021 04be 08       		.byte	0x8
 1022 04bf 7101     		.2byte	0x171
 1023 04c1 71040000 		.4byte	0x471
 1024 04c5 08       		.byte	0x8
 1025 04c6 08       		.uleb128 0x8
ARM GAS  /var/folders/m4/4md61f0s1_g0rzfghffqnxvr0000gn/T//ccoTO2Tv.s 			page 19


 1026 04c7 4D050000 		.4byte	.LASF84
 1027 04cb 08       		.byte	0x8
 1028 04cc 7201     		.2byte	0x172
 1029 04ce 71040000 		.4byte	0x471
 1030 04d2 0C       		.byte	0xc
 1031 04d3 08       		.uleb128 0x8
 1032 04d4 6A000000 		.4byte	.LASF85
 1033 04d8 08       		.byte	0x8
 1034 04d9 7301     		.2byte	0x173
 1035 04db 71040000 		.4byte	0x471
 1036 04df 10       		.byte	0x10
 1037 04e0 07       		.uleb128 0x7
 1038 04e1 505200   		.ascii	"PR\000"
 1039 04e4 08       		.byte	0x8
 1040 04e5 7401     		.2byte	0x174
 1041 04e7 71040000 		.4byte	0x471
 1042 04eb 14       		.byte	0x14
 1043 04ec 00       		.byte	0
 1044 04ed 13       		.uleb128 0x13
 1045 04ee 29070000 		.4byte	.LASF86
 1046 04f2 08       		.byte	0x8
 1047 04f3 7501     		.2byte	0x175
 1048 04f5 96040000 		.4byte	0x496
 1049 04f9 12       		.uleb128 0x12
 1050 04fa 24       		.byte	0x24
 1051 04fb 08       		.byte	0x8
 1052 04fc D201     		.2byte	0x1d2
 1053 04fe 44050000 		.4byte	0x544
 1054 0502 08       		.uleb128 0x8
 1055 0503 70000000 		.4byte	.LASF87
 1056 0507 08       		.byte	0x8
 1057 0508 D401     		.2byte	0x1d4
 1058 050a 71040000 		.4byte	0x471
 1059 050e 00       		.byte	0
 1060 050f 07       		.uleb128 0x7
 1061 0510 504D4300 		.ascii	"PMC\000"
 1062 0514 08       		.byte	0x8
 1063 0515 D501     		.2byte	0x1d5
 1064 0517 71040000 		.4byte	0x471
 1065 051b 04       		.byte	0x4
 1066 051c 08       		.uleb128 0x8
 1067 051d 52070000 		.4byte	.LASF88
 1068 0521 08       		.byte	0x8
 1069 0522 D601     		.2byte	0x1d6
 1070 0524 44050000 		.4byte	0x544
 1071 0528 08       		.byte	0x8
 1072 0529 08       		.uleb128 0x8
 1073 052a 7F050000 		.4byte	.LASF89
 1074 052e 08       		.byte	0x8
 1075 052f D701     		.2byte	0x1d7
 1076 0531 76040000 		.4byte	0x476
 1077 0535 18       		.byte	0x18
 1078 0536 08       		.uleb128 0x8
 1079 0537 15020000 		.4byte	.LASF90
 1080 053b 08       		.byte	0x8
 1081 053c D801     		.2byte	0x1d8
 1082 053e 71040000 		.4byte	0x471
ARM GAS  /var/folders/m4/4md61f0s1_g0rzfghffqnxvr0000gn/T//ccoTO2Tv.s 			page 20


 1083 0542 20       		.byte	0x20
 1084 0543 00       		.byte	0
 1085 0544 0F       		.uleb128 0xf
 1086 0545 86040000 		.4byte	0x486
 1087 0549 13       		.uleb128 0x13
 1088 054a EB040000 		.4byte	.LASF91
 1089 054e 08       		.byte	0x8
 1090 054f D901     		.2byte	0x1d9
 1091 0551 F9040000 		.4byte	0x4f9
 1092 0555 03       		.uleb128 0x3
 1093 0556 98010000 		.4byte	.LASF92
 1094 055a 09       		.byte	0x9
 1095 055b 65       		.byte	0x65
 1096 055c 34030000 		.4byte	0x334
 1097 0560 03       		.uleb128 0x3
 1098 0561 F6020000 		.4byte	.LASF93
 1099 0565 09       		.byte	0x9
 1100 0566 6D       		.byte	0x6d
 1101 0567 C3000000 		.4byte	0xc3
 1102 056b 05       		.uleb128 0x5
 1103 056c 2F020000 		.4byte	.LASF94
 1104 0570 04       		.byte	0x4
 1105 0571 09       		.byte	0x9
 1106 0572 89       		.byte	0x89
 1107 0573 84050000 		.4byte	0x584
 1108 0577 14       		.uleb128 0x14
 1109 0578 72313300 		.ascii	"r13\000"
 1110 057c 09       		.byte	0x9
 1111 057d 8A       		.byte	0x8a
 1112 057e CE060000 		.4byte	0x6ce
 1113 0582 00       		.byte	0
 1114 0583 00       		.byte	0
 1115 0584 05       		.uleb128 0x5
 1116 0585 4F000000 		.4byte	.LASF95
 1117 0589 64       		.byte	0x64
 1118 058a 0A       		.byte	0xa
 1119 058b FD       		.byte	0xfd
 1120 058c CE060000 		.4byte	0x6ce
 1121 0590 14       		.uleb128 0x14
 1122 0591 73313600 		.ascii	"s16\000"
 1123 0595 0A       		.byte	0xa
 1124 0596 FF       		.byte	0xff
 1125 0597 55050000 		.4byte	0x555
 1126 059b 00       		.byte	0
 1127 059c 07       		.uleb128 0x7
 1128 059d 73313700 		.ascii	"s17\000"
 1129 05a1 0A       		.byte	0xa
 1130 05a2 0001     		.2byte	0x100
 1131 05a4 55050000 		.4byte	0x555
 1132 05a8 04       		.byte	0x4
 1133 05a9 07       		.uleb128 0x7
 1134 05aa 73313800 		.ascii	"s18\000"
 1135 05ae 0A       		.byte	0xa
 1136 05af 0101     		.2byte	0x101
 1137 05b1 55050000 		.4byte	0x555
 1138 05b5 08       		.byte	0x8
 1139 05b6 07       		.uleb128 0x7
ARM GAS  /var/folders/m4/4md61f0s1_g0rzfghffqnxvr0000gn/T//ccoTO2Tv.s 			page 21


 1140 05b7 73313900 		.ascii	"s19\000"
 1141 05bb 0A       		.byte	0xa
 1142 05bc 0201     		.2byte	0x102
 1143 05be 55050000 		.4byte	0x555
 1144 05c2 0C       		.byte	0xc
 1145 05c3 07       		.uleb128 0x7
 1146 05c4 73323000 		.ascii	"s20\000"
 1147 05c8 0A       		.byte	0xa
 1148 05c9 0301     		.2byte	0x103
 1149 05cb 55050000 		.4byte	0x555
 1150 05cf 10       		.byte	0x10
 1151 05d0 07       		.uleb128 0x7
 1152 05d1 73323100 		.ascii	"s21\000"
 1153 05d5 0A       		.byte	0xa
 1154 05d6 0401     		.2byte	0x104
 1155 05d8 55050000 		.4byte	0x555
 1156 05dc 14       		.byte	0x14
 1157 05dd 07       		.uleb128 0x7
 1158 05de 73323200 		.ascii	"s22\000"
 1159 05e2 0A       		.byte	0xa
 1160 05e3 0501     		.2byte	0x105
 1161 05e5 55050000 		.4byte	0x555
 1162 05e9 18       		.byte	0x18
 1163 05ea 07       		.uleb128 0x7
 1164 05eb 73323300 		.ascii	"s23\000"
 1165 05ef 0A       		.byte	0xa
 1166 05f0 0601     		.2byte	0x106
 1167 05f2 55050000 		.4byte	0x555
 1168 05f6 1C       		.byte	0x1c
 1169 05f7 07       		.uleb128 0x7
 1170 05f8 73323400 		.ascii	"s24\000"
 1171 05fc 0A       		.byte	0xa
 1172 05fd 0701     		.2byte	0x107
 1173 05ff 55050000 		.4byte	0x555
 1174 0603 20       		.byte	0x20
 1175 0604 07       		.uleb128 0x7
 1176 0605 73323500 		.ascii	"s25\000"
 1177 0609 0A       		.byte	0xa
 1178 060a 0801     		.2byte	0x108
 1179 060c 55050000 		.4byte	0x555
 1180 0610 24       		.byte	0x24
 1181 0611 07       		.uleb128 0x7
 1182 0612 73323600 		.ascii	"s26\000"
 1183 0616 0A       		.byte	0xa
 1184 0617 0901     		.2byte	0x109
 1185 0619 55050000 		.4byte	0x555
 1186 061d 28       		.byte	0x28
 1187 061e 07       		.uleb128 0x7
 1188 061f 73323700 		.ascii	"s27\000"
 1189 0623 0A       		.byte	0xa
 1190 0624 0A01     		.2byte	0x10a
 1191 0626 55050000 		.4byte	0x555
 1192 062a 2C       		.byte	0x2c
 1193 062b 07       		.uleb128 0x7
 1194 062c 73323800 		.ascii	"s28\000"
 1195 0630 0A       		.byte	0xa
 1196 0631 0B01     		.2byte	0x10b
ARM GAS  /var/folders/m4/4md61f0s1_g0rzfghffqnxvr0000gn/T//ccoTO2Tv.s 			page 22


 1197 0633 55050000 		.4byte	0x555
 1198 0637 30       		.byte	0x30
 1199 0638 07       		.uleb128 0x7
 1200 0639 73323900 		.ascii	"s29\000"
 1201 063d 0A       		.byte	0xa
 1202 063e 0C01     		.2byte	0x10c
 1203 0640 55050000 		.4byte	0x555
 1204 0644 34       		.byte	0x34
 1205 0645 07       		.uleb128 0x7
 1206 0646 73333000 		.ascii	"s30\000"
 1207 064a 0A       		.byte	0xa
 1208 064b 0D01     		.2byte	0x10d
 1209 064d 55050000 		.4byte	0x555
 1210 0651 38       		.byte	0x38
 1211 0652 07       		.uleb128 0x7
 1212 0653 73333100 		.ascii	"s31\000"
 1213 0657 0A       		.byte	0xa
 1214 0658 0E01     		.2byte	0x10e
 1215 065a 55050000 		.4byte	0x555
 1216 065e 3C       		.byte	0x3c
 1217 065f 07       		.uleb128 0x7
 1218 0660 723400   		.ascii	"r4\000"
 1219 0663 0A       		.byte	0xa
 1220 0664 1001     		.2byte	0x110
 1221 0666 55050000 		.4byte	0x555
 1222 066a 40       		.byte	0x40
 1223 066b 07       		.uleb128 0x7
 1224 066c 723500   		.ascii	"r5\000"
 1225 066f 0A       		.byte	0xa
 1226 0670 1101     		.2byte	0x111
 1227 0672 55050000 		.4byte	0x555
 1228 0676 44       		.byte	0x44
 1229 0677 07       		.uleb128 0x7
 1230 0678 723600   		.ascii	"r6\000"
 1231 067b 0A       		.byte	0xa
 1232 067c 1201     		.2byte	0x112
 1233 067e 55050000 		.4byte	0x555
 1234 0682 48       		.byte	0x48
 1235 0683 07       		.uleb128 0x7
 1236 0684 723700   		.ascii	"r7\000"
 1237 0687 0A       		.byte	0xa
 1238 0688 1301     		.2byte	0x113
 1239 068a 55050000 		.4byte	0x555
 1240 068e 4C       		.byte	0x4c
 1241 068f 07       		.uleb128 0x7
 1242 0690 723800   		.ascii	"r8\000"
 1243 0693 0A       		.byte	0xa
 1244 0694 1401     		.2byte	0x114
 1245 0696 55050000 		.4byte	0x555
 1246 069a 50       		.byte	0x50
 1247 069b 07       		.uleb128 0x7
 1248 069c 723900   		.ascii	"r9\000"
 1249 069f 0A       		.byte	0xa
 1250 06a0 1501     		.2byte	0x115
 1251 06a2 55050000 		.4byte	0x555
 1252 06a6 54       		.byte	0x54
 1253 06a7 07       		.uleb128 0x7
ARM GAS  /var/folders/m4/4md61f0s1_g0rzfghffqnxvr0000gn/T//ccoTO2Tv.s 			page 23


 1254 06a8 72313000 		.ascii	"r10\000"
 1255 06ac 0A       		.byte	0xa
 1256 06ad 1601     		.2byte	0x116
 1257 06af 55050000 		.4byte	0x555
 1258 06b3 58       		.byte	0x58
 1259 06b4 07       		.uleb128 0x7
 1260 06b5 72313100 		.ascii	"r11\000"
 1261 06b9 0A       		.byte	0xa
 1262 06ba 1701     		.2byte	0x117
 1263 06bc 55050000 		.4byte	0x555
 1264 06c0 5C       		.byte	0x5c
 1265 06c1 07       		.uleb128 0x7
 1266 06c2 6C7200   		.ascii	"lr\000"
 1267 06c5 0A       		.byte	0xa
 1268 06c6 1801     		.2byte	0x118
 1269 06c8 55050000 		.4byte	0x555
 1270 06cc 60       		.byte	0x60
 1271 06cd 00       		.byte	0
 1272 06ce 09       		.uleb128 0x9
 1273 06cf 04       		.byte	0x4
 1274 06d0 84050000 		.4byte	0x584
 1275 06d4 15       		.uleb128 0x15
 1276 06d5 04       		.byte	0x4
 1277 06d6 0B       		.byte	0xb
 1278 06d7 38       		.byte	0x38
 1279 06d8 E9060000 		.4byte	0x6e9
 1280 06dc 06       		.uleb128 0x6
 1281 06dd 85060000 		.4byte	.LASF96
 1282 06e1 0B       		.byte	0xb
 1283 06e2 3C       		.byte	0x3c
 1284 06e3 CE000000 		.4byte	0xce
 1285 06e7 00       		.byte	0
 1286 06e8 00       		.byte	0
 1287 06e9 03       		.uleb128 0x3
 1288 06ea AD040000 		.4byte	.LASF97
 1289 06ee 0B       		.byte	0xb
 1290 06ef 3D       		.byte	0x3d
 1291 06f0 D4060000 		.4byte	0x6d4
 1292 06f4 16       		.uleb128 0x16
 1293 06f5 04       		.byte	0x4
 1294 06f6 07       		.byte	0x7
 1295 06f7 FA       		.byte	0xfa
 1296 06f8 51070000 		.4byte	0x751
 1297 06fc 17       		.uleb128 0x17
 1298 06fd A8050000 		.4byte	.LASF98
 1299 0701 07       		.byte	0x7
 1300 0702 0101     		.2byte	0x101
 1301 0704 10010000 		.4byte	0x110
 1302 0708 17       		.uleb128 0x17
 1303 0709 8E000000 		.4byte	.LASF99
 1304 070d 07       		.byte	0x7
 1305 070e 0801     		.2byte	0x108
 1306 0710 10010000 		.4byte	0x110
 1307 0714 17       		.uleb128 0x17
 1308 0715 0A070000 		.4byte	.LASF100
 1309 0719 07       		.byte	0x7
 1310 071a 0F01     		.2byte	0x10f
ARM GAS  /var/folders/m4/4md61f0s1_g0rzfghffqnxvr0000gn/T//ccoTO2Tv.s 			page 24


 1311 071c 34030000 		.4byte	0x334
 1312 0720 17       		.uleb128 0x17
 1313 0721 5A030000 		.4byte	.LASF101
 1314 0725 07       		.byte	0x7
 1315 0726 1601     		.2byte	0x116
 1316 0728 51070000 		.4byte	0x751
 1317 072c 17       		.uleb128 0x17
 1318 072d FA010000 		.4byte	.LASF102
 1319 0731 07       		.byte	0x7
 1320 0732 1E01     		.2byte	0x11e
 1321 0734 7C070000 		.4byte	0x77c
 1322 0738 17       		.uleb128 0x17
 1323 0739 E9050000 		.4byte	.LASF103
 1324 073d 07       		.byte	0x7
 1325 073e 2701     		.2byte	0x127
 1326 0740 B3070000 		.4byte	0x7b3
 1327 0744 17       		.uleb128 0x17
 1328 0745 88050000 		.4byte	.LASF104
 1329 0749 07       		.byte	0x7
 1330 074a 2F01     		.2byte	0x12f
 1331 074c 1B010000 		.4byte	0x11b
 1332 0750 00       		.byte	0
 1333 0751 09       		.uleb128 0x9
 1334 0752 04       		.byte	0x4
 1335 0753 4C020000 		.4byte	0x24c
 1336 0757 05       		.uleb128 0x5
 1337 0758 C8050000 		.4byte	.LASF105
 1338 075c 0C       		.byte	0xc
 1339 075d 0C       		.byte	0xc
 1340 075e 34       		.byte	0x34
 1341 075f 7C070000 		.4byte	0x77c
 1342 0763 06       		.uleb128 0x6
 1343 0764 6D010000 		.4byte	.LASF106
 1344 0768 0C       		.byte	0xc
 1345 0769 35       		.byte	0x35
 1346 076a 81020000 		.4byte	0x281
 1347 076e 00       		.byte	0
 1348 076f 06       		.uleb128 0x6
 1349 0770 29020000 		.4byte	.LASF107
 1350 0774 0C       		.byte	0xc
 1351 0775 37       		.byte	0x37
 1352 0776 26010000 		.4byte	0x126
 1353 077a 08       		.byte	0x8
 1354 077b 00       		.byte	0
 1355 077c 09       		.uleb128 0x9
 1356 077d 04       		.byte	0x4
 1357 077e 57070000 		.4byte	0x757
 1358 0782 05       		.uleb128 0x5
 1359 0783 B5060000 		.4byte	.LASF108
 1360 0787 10       		.byte	0x10
 1361 0788 0D       		.byte	0xd
 1362 0789 39       		.byte	0x39
 1363 078a B3070000 		.4byte	0x7b3
 1364 078e 06       		.uleb128 0x6
 1365 078f 1E010000 		.4byte	.LASF109
 1366 0793 0D       		.byte	0xd
 1367 0794 3A       		.byte	0x3a
ARM GAS  /var/folders/m4/4md61f0s1_g0rzfghffqnxvr0000gn/T//ccoTO2Tv.s 			page 25


 1368 0795 81020000 		.4byte	0x281
 1369 0799 00       		.byte	0
 1370 079a 06       		.uleb128 0x6
 1371 079b 3C070000 		.4byte	.LASF110
 1372 079f 0D       		.byte	0xd
 1373 07a0 3C       		.byte	0x3c
 1374 07a1 57020000 		.4byte	0x257
 1375 07a5 08       		.byte	0x8
 1376 07a6 06       		.uleb128 0x6
 1377 07a7 4B060000 		.4byte	.LASF111
 1378 07ab 0D       		.byte	0xd
 1379 07ac 3E       		.byte	0x3e
 1380 07ad F6070000 		.4byte	0x7f6
 1381 07b1 0C       		.byte	0xc
 1382 07b2 00       		.byte	0
 1383 07b3 09       		.uleb128 0x9
 1384 07b4 04       		.byte	0x4
 1385 07b5 82070000 		.4byte	0x782
 1386 07b9 09       		.uleb128 0x9
 1387 07ba 04       		.byte	0x4
 1388 07bb C6070000 		.4byte	0x7c6
 1389 07bf 04       		.uleb128 0x4
 1390 07c0 01       		.byte	0x1
 1391 07c1 08       		.byte	0x8
 1392 07c2 23060000 		.4byte	.LASF112
 1393 07c6 18       		.uleb128 0x18
 1394 07c7 BF070000 		.4byte	0x7bf
 1395 07cb 0F       		.uleb128 0xf
 1396 07cc 31010000 		.4byte	0x131
 1397 07d0 09       		.uleb128 0x9
 1398 07d1 04       		.byte	0x4
 1399 07d2 36030000 		.4byte	0x336
 1400 07d6 0F       		.uleb128 0xf
 1401 07d7 B9070000 		.4byte	0x7b9
 1402 07db 10       		.uleb128 0x10
 1403 07dc 60050000 		.4byte	0x560
 1404 07e0 EB070000 		.4byte	0x7eb
 1405 07e4 11       		.uleb128 0x11
 1406 07e5 6A040000 		.4byte	0x46a
 1407 07e9 3A       		.byte	0x3a
 1408 07ea 00       		.byte	0
 1409 07eb 03       		.uleb128 0x3
 1410 07ec AE010000 		.4byte	.LASF113
 1411 07f0 0D       		.byte	0xd
 1412 07f1 34       		.byte	0x34
 1413 07f2 82070000 		.4byte	0x782
 1414 07f6 09       		.uleb128 0x9
 1415 07f7 04       		.byte	0x4
 1416 07f8 EB070000 		.4byte	0x7eb
 1417 07fc 04       		.uleb128 0x4
 1418 07fd 01       		.byte	0x1
 1419 07fe 02       		.byte	0x2
 1420 07ff 31050000 		.4byte	.LASF114
 1421 0803 19       		.uleb128 0x19
 1422 0804 01       		.byte	0x1
 1423 0805 50000000 		.4byte	0x50
 1424 0809 0E       		.byte	0xe
ARM GAS  /var/folders/m4/4md61f0s1_g0rzfghffqnxvr0000gn/T//ccoTO2Tv.s 			page 26


 1425 080a 3F       		.byte	0x3f
 1426 080b 22080000 		.4byte	0x822
 1427 080f 1A       		.uleb128 0x1a
 1428 0810 BE040000 		.4byte	.LASF115
 1429 0814 00       		.byte	0
 1430 0815 1A       		.uleb128 0x1a
 1431 0816 1A060000 		.4byte	.LASF116
 1432 081a 01       		.byte	0x1
 1433 081b 1A       		.uleb128 0x1a
 1434 081c 01030000 		.4byte	.LASF117
 1435 0820 02       		.byte	0x2
 1436 0821 00       		.byte	0
 1437 0822 03       		.uleb128 0x3
 1438 0823 38030000 		.4byte	.LASF118
 1439 0827 0E       		.byte	0xe
 1440 0828 43       		.byte	0x43
 1441 0829 03080000 		.4byte	0x803
 1442 082d 03       		.uleb128 0x3
 1443 082e 9B060000 		.4byte	.LASF119
 1444 0832 0E       		.byte	0xe
 1445 0833 48       		.byte	0x48
 1446 0834 38080000 		.4byte	0x838
 1447 0838 05       		.uleb128 0x5
 1448 0839 9B060000 		.4byte	.LASF119
 1449 083d 08       		.byte	0x8
 1450 083e 0F       		.byte	0xf
 1451 083f 73       		.byte	0x73
 1452 0840 5D080000 		.4byte	0x85d
 1453 0844 06       		.uleb128 0x6
 1454 0845 44010000 		.4byte	.LASF120
 1455 0849 0F       		.byte	0xf
 1456 084a 77       		.byte	0x77
 1457 084b 22080000 		.4byte	0x822
 1458 084f 00       		.byte	0
 1459 0850 06       		.uleb128 0x6
 1460 0851 2D060000 		.4byte	.LASF121
 1461 0855 0F       		.byte	0xf
 1462 0856 7B       		.byte	0x7b
 1463 0857 EA080000 		.4byte	0x8ea
 1464 085b 04       		.byte	0x4
 1465 085c 00       		.byte	0
 1466 085d 03       		.uleb128 0x3
 1467 085e 42000000 		.4byte	.LASF122
 1468 0862 0F       		.byte	0xf
 1469 0863 49       		.byte	0x49
 1470 0864 B8000000 		.4byte	0xb8
 1471 0868 03       		.uleb128 0x3
 1472 0869 34060000 		.4byte	.LASF123
 1473 086d 0F       		.byte	0xf
 1474 086e 51       		.byte	0x51
 1475 086f 73080000 		.4byte	0x873
 1476 0873 09       		.uleb128 0x9
 1477 0874 04       		.byte	0x4
 1478 0875 79080000 		.4byte	0x879
 1479 0879 0B       		.uleb128 0xb
 1480 087a 89080000 		.4byte	0x889
 1481 087e 0C       		.uleb128 0xc
ARM GAS  /var/folders/m4/4md61f0s1_g0rzfghffqnxvr0000gn/T//ccoTO2Tv.s 			page 27


 1482 087f 89080000 		.4byte	0x889
 1483 0883 0C       		.uleb128 0xc
 1484 0884 5D080000 		.4byte	0x85d
 1485 0888 00       		.byte	0
 1486 0889 09       		.uleb128 0x9
 1487 088a 04       		.byte	0x4
 1488 088b 2D080000 		.4byte	0x82d
 1489 088f 15       		.uleb128 0x15
 1490 0890 08       		.byte	0x8
 1491 0891 0F       		.byte	0xf
 1492 0892 56       		.byte	0x56
 1493 0893 AF080000 		.4byte	0x8af
 1494 0897 06       		.uleb128 0x6
 1495 0898 28060000 		.4byte	.LASF124
 1496 089c 0F       		.byte	0xf
 1497 089d 5A       		.byte	0x5a
 1498 089e B8000000 		.4byte	0xb8
 1499 08a2 00       		.byte	0
 1500 08a3 14       		.uleb128 0x14
 1501 08a4 636200   		.ascii	"cb\000"
 1502 08a7 0F       		.byte	0xf
 1503 08a8 61       		.byte	0x61
 1504 08a9 68080000 		.4byte	0x868
 1505 08ad 04       		.byte	0x4
 1506 08ae 00       		.byte	0
 1507 08af 03       		.uleb128 0x3
 1508 08b0 75010000 		.4byte	.LASF125
 1509 08b4 0F       		.byte	0xf
 1510 08b5 62       		.byte	0x62
 1511 08b6 8F080000 		.4byte	0x88f
 1512 08ba 15       		.uleb128 0x15
 1513 08bb B8       		.byte	0xb8
 1514 08bc 0F       		.byte	0xf
 1515 08bd 68       		.byte	0x68
 1516 08be CF080000 		.4byte	0x8cf
 1517 08c2 06       		.uleb128 0x6
 1518 08c3 4A010000 		.4byte	.LASF126
 1519 08c7 0F       		.byte	0xf
 1520 08c8 6C       		.byte	0x6c
 1521 08c9 CF080000 		.4byte	0x8cf
 1522 08cd 00       		.byte	0
 1523 08ce 00       		.byte	0
 1524 08cf 10       		.uleb128 0x10
 1525 08d0 AF080000 		.4byte	0x8af
 1526 08d4 DF080000 		.4byte	0x8df
 1527 08d8 11       		.uleb128 0x11
 1528 08d9 6A040000 		.4byte	0x46a
 1529 08dd 16       		.byte	0x16
 1530 08de 00       		.byte	0
 1531 08df 03       		.uleb128 0x3
 1532 08e0 6C020000 		.4byte	.LASF127
 1533 08e4 0F       		.byte	0xf
 1534 08e5 6E       		.byte	0x6e
 1535 08e6 BA080000 		.4byte	0x8ba
 1536 08ea 09       		.uleb128 0x9
 1537 08eb 04       		.byte	0x4
 1538 08ec F0080000 		.4byte	0x8f0
ARM GAS  /var/folders/m4/4md61f0s1_g0rzfghffqnxvr0000gn/T//ccoTO2Tv.s 			page 28


 1539 08f0 18       		.uleb128 0x18
 1540 08f1 DF080000 		.4byte	0x8df
 1541 08f5 1B       		.uleb128 0x1b
 1542 08f6 D6000000 		.4byte	.LASF146
 1543 08fa 01       		.byte	0x1
 1544 08fb D4       		.byte	0xd4
 1545 08fc 01       		.byte	0x1
 1546 08fd 23090000 		.4byte	0x923
 1547 0901 1C       		.uleb128 0x1c
 1548 0902 03010000 		.4byte	.LASF128
 1549 0906 01       		.byte	0x1
 1550 0907 D4       		.byte	0xd4
 1551 0908 89080000 		.4byte	0x889
 1552 090c 1C       		.uleb128 0x1c
 1553 090d AF050000 		.4byte	.LASF129
 1554 0911 01       		.byte	0x1
 1555 0912 D4       		.byte	0xd4
 1556 0913 5D080000 		.4byte	0x85d
 1557 0917 1D       		.uleb128 0x1d
 1558 0918 0C030000 		.4byte	.LASF133
 1559 091c 01       		.byte	0x1
 1560 091d D5       		.byte	0xd5
 1561 091e B8000000 		.4byte	0xb8
 1562 0922 00       		.byte	0
 1563 0923 1E       		.uleb128 0x1e
 1564 0924 37010000 		.4byte	.LASF130
 1565 0928 01       		.byte	0x1
 1566 0929 48       		.byte	0x48
 1567 092a 00000000 		.4byte	.LFB268
 1568 092e 0C000000 		.4byte	.LFE268-.LFB268
 1569 0932 01       		.uleb128 0x1
 1570 0933 9C       		.byte	0x9c
 1571 0934 4C090000 		.4byte	0x94c
 1572 0938 1F       		.uleb128 0x1f
 1573 0939 06000000 		.4byte	.LVL0
 1574 093d D40A0000 		.4byte	0xad4
 1575 0941 20       		.uleb128 0x20
 1576 0942 01       		.uleb128 0x1
 1577 0943 50       		.byte	0x50
 1578 0944 05       		.uleb128 0x5
 1579 0945 03       		.byte	0x3
 1580 0946 00000000 		.4byte	.LANCHOR0
 1581 094a 00       		.byte	0
 1582 094b 00       		.byte	0
 1583 094c 1E       		.uleb128 0x1e
 1584 094d B1020000 		.4byte	.LASF131
 1585 0951 01       		.byte	0x1
 1586 0952 6A       		.byte	0x6a
 1587 0953 00000000 		.4byte	.LFB270
 1588 0957 24000000 		.4byte	.LFE270-.LFB270
 1589 095b 01       		.uleb128 0x1
 1590 095c 9C       		.byte	0x9c
 1591 095d 7A090000 		.4byte	0x97a
 1592 0961 21       		.uleb128 0x21
 1593 0962 03010000 		.4byte	.LASF128
 1594 0966 01       		.byte	0x1
 1595 0967 6A       		.byte	0x6a
ARM GAS  /var/folders/m4/4md61f0s1_g0rzfghffqnxvr0000gn/T//ccoTO2Tv.s 			page 29


 1596 0968 89080000 		.4byte	0x889
 1597 096c 00000000 		.4byte	.LLST0
 1598 0970 22       		.uleb128 0x22
 1599 0971 1C000000 		.4byte	.LVL4
 1600 0975 DF0A0000 		.4byte	0xadf
 1601 0979 00       		.byte	0
 1602 097a 1E       		.uleb128 0x1e
 1603 097b 96040000 		.4byte	.LASF132
 1604 097f 01       		.byte	0x1
 1605 0980 80       		.byte	0x80
 1606 0981 00000000 		.4byte	.LFB271
 1607 0985 A0000000 		.4byte	.LFE271-.LFB271
 1608 0989 01       		.uleb128 0x1
 1609 098a 9C       		.byte	0x9c
 1610 098b F2090000 		.4byte	0x9f2
 1611 098f 21       		.uleb128 0x21
 1612 0990 03010000 		.4byte	.LASF128
 1613 0994 01       		.byte	0x1
 1614 0995 80       		.byte	0x80
 1615 0996 89080000 		.4byte	0x889
 1616 099a 3A000000 		.4byte	.LLST1
 1617 099e 21       		.uleb128 0x21
 1618 099f AF050000 		.4byte	.LASF129
 1619 09a3 01       		.byte	0x1
 1620 09a4 80       		.byte	0x80
 1621 09a5 5D080000 		.4byte	0x85d
 1622 09a9 74000000 		.4byte	.LLST2
 1623 09ad 23       		.uleb128 0x23
 1624 09ae 0C030000 		.4byte	.LASF133
 1625 09b2 01       		.byte	0x1
 1626 09b3 81       		.byte	0x81
 1627 09b4 B8000000 		.4byte	0xb8
 1628 09b8 AE000000 		.4byte	.LLST3
 1629 09bc 24       		.uleb128 0x24
 1630 09bd 50000000 		.4byte	.LBB4
 1631 09c1 2A000000 		.4byte	.LBE4-.LBB4
 1632 09c5 25       		.uleb128 0x25
 1633 09c6 6E00     		.ascii	"n\000"
 1634 09c8 01       		.byte	0x1
 1635 09c9 85       		.byte	0x85
 1636 09ca B8000000 		.4byte	0xb8
 1637 09ce F0000000 		.4byte	.LLST4
 1638 09d2 23       		.uleb128 0x23
 1639 09d3 93010000 		.4byte	.LASF134
 1640 09d7 01       		.byte	0x1
 1641 09d8 86       		.byte	0x86
 1642 09d9 B8000000 		.4byte	0xb8
 1643 09dd 07010000 		.4byte	.LLST5
 1644 09e1 23       		.uleb128 0x23
 1645 09e2 A9010000 		.4byte	.LASF135
 1646 09e6 01       		.byte	0x1
 1647 09e7 87       		.byte	0x87
 1648 09e8 B8000000 		.4byte	0xb8
 1649 09ec 33010000 		.4byte	.LLST6
 1650 09f0 00       		.byte	0
 1651 09f1 00       		.byte	0
 1652 09f2 1E       		.uleb128 0x1e
ARM GAS  /var/folders/m4/4md61f0s1_g0rzfghffqnxvr0000gn/T//ccoTO2Tv.s 			page 30


 1653 09f3 1B020000 		.4byte	.LASF136
 1654 09f7 01       		.byte	0x1
 1655 09f8 55       		.byte	0x55
 1656 09f9 00000000 		.4byte	.LFB269
 1657 09fd 60000000 		.4byte	.LFE269-.LFB269
 1658 0a01 01       		.uleb128 0x1
 1659 0a02 9C       		.byte	0x9c
 1660 0a03 7A0A0000 		.4byte	0xa7a
 1661 0a07 21       		.uleb128 0x21
 1662 0a08 03010000 		.4byte	.LASF128
 1663 0a0c 01       		.byte	0x1
 1664 0a0d 55       		.byte	0x55
 1665 0a0e 89080000 		.4byte	0x889
 1666 0a12 67010000 		.4byte	.LLST7
 1667 0a16 23       		.uleb128 0x23
 1668 0a17 86010000 		.4byte	.LASF137
 1669 0a1b 01       		.byte	0x1
 1670 0a1c 56       		.byte	0x56
 1671 0a1d 5D080000 		.4byte	0x85d
 1672 0a21 9B010000 		.4byte	.LLST8
 1673 0a25 26       		.uleb128 0x26
 1674 0a26 F5080000 		.4byte	0x8f5
 1675 0a2a 0A000000 		.4byte	.LBB5
 1676 0a2e 00000000 		.4byte	.Ldebug_ranges0+0
 1677 0a32 01       		.byte	0x1
 1678 0a33 60       		.byte	0x60
 1679 0a34 560A0000 		.4byte	0xa56
 1680 0a38 27       		.uleb128 0x27
 1681 0a39 0C090000 		.4byte	0x90c
 1682 0a3d DD010000 		.4byte	.LLST9
 1683 0a41 28       		.uleb128 0x28
 1684 0a42 01090000 		.4byte	0x901
 1685 0a46 29       		.uleb128 0x29
 1686 0a47 00000000 		.4byte	.Ldebug_ranges0+0
 1687 0a4b 2A       		.uleb128 0x2a
 1688 0a4c 17090000 		.4byte	0x917
 1689 0a50 20020000 		.4byte	.LLST10
 1690 0a54 00       		.byte	0
 1691 0a55 00       		.byte	0
 1692 0a56 2B       		.uleb128 0x2b
 1693 0a57 4E000000 		.4byte	.LVL25
 1694 0a5b 7A090000 		.4byte	0x97a
 1695 0a5f 700A0000 		.4byte	0xa70
 1696 0a63 20       		.uleb128 0x20
 1697 0a64 01       		.uleb128 0x1
 1698 0a65 50       		.byte	0x50
 1699 0a66 02       		.uleb128 0x2
 1700 0a67 76       		.byte	0x76
 1701 0a68 00       		.sleb128 0
 1702 0a69 20       		.uleb128 0x20
 1703 0a6a 01       		.uleb128 0x1
 1704 0a6b 51       		.byte	0x51
 1705 0a6c 02       		.uleb128 0x2
 1706 0a6d 75       		.byte	0x75
 1707 0a6e 7F       		.sleb128 -1
 1708 0a6f 00       		.byte	0
 1709 0a70 22       		.uleb128 0x22
ARM GAS  /var/folders/m4/4md61f0s1_g0rzfghffqnxvr0000gn/T//ccoTO2Tv.s 			page 31


 1710 0a71 58000000 		.4byte	.LVL28
 1711 0a75 EA0A0000 		.4byte	0xaea
 1712 0a79 00       		.byte	0
 1713 0a7a 2C       		.uleb128 0x2c
 1714 0a7b F5080000 		.4byte	0x8f5
 1715 0a7f 00000000 		.4byte	.LFB272
 1716 0a83 30000000 		.4byte	.LFE272-.LFB272
 1717 0a87 01       		.uleb128 0x1
 1718 0a88 9C       		.byte	0x9c
 1719 0a89 A70A0000 		.4byte	0xaa7
 1720 0a8d 27       		.uleb128 0x27
 1721 0a8e 01090000 		.4byte	0x901
 1722 0a92 5C020000 		.4byte	.LLST11
 1723 0a96 27       		.uleb128 0x27
 1724 0a97 0C090000 		.4byte	0x90c
 1725 0a9b 7D020000 		.4byte	.LLST12
 1726 0a9f 2D       		.uleb128 0x2d
 1727 0aa0 17090000 		.4byte	0x917
 1728 0aa4 01       		.uleb128 0x1
 1729 0aa5 51       		.byte	0x51
 1730 0aa6 00       		.byte	0
 1731 0aa7 2E       		.uleb128 0x2e
 1732 0aa8 B8000000 		.4byte	.LASF138
 1733 0aac 10       		.byte	0x10
 1734 0aad FA06     		.2byte	0x6fa
 1735 0aaf B30A0000 		.4byte	0xab3
 1736 0ab3 0F       		.uleb128 0xf
 1737 0ab4 AD000000 		.4byte	0xad
 1738 0ab8 2F       		.uleb128 0x2f
 1739 0ab9 636800   		.ascii	"ch\000"
 1740 0abc 07       		.byte	0x7
 1741 0abd 0902     		.2byte	0x209
 1742 0abf 03040000 		.4byte	0x403
 1743 0ac3 30       		.uleb128 0x30
 1744 0ac4 36070000 		.4byte	.LASF139
 1745 0ac8 01       		.byte	0x1
 1746 0ac9 31       		.byte	0x31
 1747 0aca 2D080000 		.4byte	0x82d
 1748 0ace 05       		.uleb128 0x5
 1749 0acf 03       		.byte	0x3
 1750 0ad0 00000000 		.4byte	EXTD1
 1751 0ad4 31       		.uleb128 0x31
 1752 0ad5 08010000 		.4byte	.LASF140
 1753 0ad9 08010000 		.4byte	.LASF140
 1754 0add 0E       		.byte	0xe
 1755 0ade 86       		.byte	0x86
 1756 0adf 31       		.uleb128 0x31
 1757 0ae0 C5010000 		.4byte	.LASF141
 1758 0ae4 C5010000 		.4byte	.LASF141
 1759 0ae8 11       		.byte	0x11
 1760 0ae9 A1       		.byte	0xa1
 1761 0aea 31       		.uleb128 0x31
 1762 0aeb 4A020000 		.4byte	.LASF142
 1763 0aef 4A020000 		.4byte	.LASF142
 1764 0af3 11       		.byte	0x11
 1765 0af4 A0       		.byte	0xa0
 1766 0af5 00       		.byte	0
ARM GAS  /var/folders/m4/4md61f0s1_g0rzfghffqnxvr0000gn/T//ccoTO2Tv.s 			page 32


 1767              		.section	.debug_abbrev,"",%progbits
 1768              	.Ldebug_abbrev0:
 1769 0000 01       		.uleb128 0x1
 1770 0001 11       		.uleb128 0x11
 1771 0002 01       		.byte	0x1
 1772 0003 25       		.uleb128 0x25
 1773 0004 0E       		.uleb128 0xe
 1774 0005 13       		.uleb128 0x13
 1775 0006 0B       		.uleb128 0xb
 1776 0007 03       		.uleb128 0x3
 1777 0008 0E       		.uleb128 0xe
 1778 0009 1B       		.uleb128 0x1b
 1779 000a 0E       		.uleb128 0xe
 1780 000b 55       		.uleb128 0x55
 1781 000c 17       		.uleb128 0x17
 1782 000d 11       		.uleb128 0x11
 1783 000e 01       		.uleb128 0x1
 1784 000f 10       		.uleb128 0x10
 1785 0010 17       		.uleb128 0x17
 1786 0011 00       		.byte	0
 1787 0012 00       		.byte	0
 1788 0013 02       		.uleb128 0x2
 1789 0014 24       		.uleb128 0x24
 1790 0015 00       		.byte	0
 1791 0016 0B       		.uleb128 0xb
 1792 0017 0B       		.uleb128 0xb
 1793 0018 3E       		.uleb128 0x3e
 1794 0019 0B       		.uleb128 0xb
 1795 001a 03       		.uleb128 0x3
 1796 001b 08       		.uleb128 0x8
 1797 001c 00       		.byte	0
 1798 001d 00       		.byte	0
 1799 001e 03       		.uleb128 0x3
 1800 001f 16       		.uleb128 0x16
 1801 0020 00       		.byte	0
 1802 0021 03       		.uleb128 0x3
 1803 0022 0E       		.uleb128 0xe
 1804 0023 3A       		.uleb128 0x3a
 1805 0024 0B       		.uleb128 0xb
 1806 0025 3B       		.uleb128 0x3b
 1807 0026 0B       		.uleb128 0xb
 1808 0027 49       		.uleb128 0x49
 1809 0028 13       		.uleb128 0x13
 1810 0029 00       		.byte	0
 1811 002a 00       		.byte	0
 1812 002b 04       		.uleb128 0x4
 1813 002c 24       		.uleb128 0x24
 1814 002d 00       		.byte	0
 1815 002e 0B       		.uleb128 0xb
 1816 002f 0B       		.uleb128 0xb
 1817 0030 3E       		.uleb128 0x3e
 1818 0031 0B       		.uleb128 0xb
 1819 0032 03       		.uleb128 0x3
 1820 0033 0E       		.uleb128 0xe
 1821 0034 00       		.byte	0
 1822 0035 00       		.byte	0
 1823 0036 05       		.uleb128 0x5
ARM GAS  /var/folders/m4/4md61f0s1_g0rzfghffqnxvr0000gn/T//ccoTO2Tv.s 			page 33


 1824 0037 13       		.uleb128 0x13
 1825 0038 01       		.byte	0x1
 1826 0039 03       		.uleb128 0x3
 1827 003a 0E       		.uleb128 0xe
 1828 003b 0B       		.uleb128 0xb
 1829 003c 0B       		.uleb128 0xb
 1830 003d 3A       		.uleb128 0x3a
 1831 003e 0B       		.uleb128 0xb
 1832 003f 3B       		.uleb128 0x3b
 1833 0040 0B       		.uleb128 0xb
 1834 0041 01       		.uleb128 0x1
 1835 0042 13       		.uleb128 0x13
 1836 0043 00       		.byte	0
 1837 0044 00       		.byte	0
 1838 0045 06       		.uleb128 0x6
 1839 0046 0D       		.uleb128 0xd
 1840 0047 00       		.byte	0
 1841 0048 03       		.uleb128 0x3
 1842 0049 0E       		.uleb128 0xe
 1843 004a 3A       		.uleb128 0x3a
 1844 004b 0B       		.uleb128 0xb
 1845 004c 3B       		.uleb128 0x3b
 1846 004d 0B       		.uleb128 0xb
 1847 004e 49       		.uleb128 0x49
 1848 004f 13       		.uleb128 0x13
 1849 0050 38       		.uleb128 0x38
 1850 0051 0B       		.uleb128 0xb
 1851 0052 00       		.byte	0
 1852 0053 00       		.byte	0
 1853 0054 07       		.uleb128 0x7
 1854 0055 0D       		.uleb128 0xd
 1855 0056 00       		.byte	0
 1856 0057 03       		.uleb128 0x3
 1857 0058 08       		.uleb128 0x8
 1858 0059 3A       		.uleb128 0x3a
 1859 005a 0B       		.uleb128 0xb
 1860 005b 3B       		.uleb128 0x3b
 1861 005c 05       		.uleb128 0x5
 1862 005d 49       		.uleb128 0x49
 1863 005e 13       		.uleb128 0x13
 1864 005f 38       		.uleb128 0x38
 1865 0060 0B       		.uleb128 0xb
 1866 0061 00       		.byte	0
 1867 0062 00       		.byte	0
 1868 0063 08       		.uleb128 0x8
 1869 0064 0D       		.uleb128 0xd
 1870 0065 00       		.byte	0
 1871 0066 03       		.uleb128 0x3
 1872 0067 0E       		.uleb128 0xe
 1873 0068 3A       		.uleb128 0x3a
 1874 0069 0B       		.uleb128 0xb
 1875 006a 3B       		.uleb128 0x3b
 1876 006b 05       		.uleb128 0x5
 1877 006c 49       		.uleb128 0x49
 1878 006d 13       		.uleb128 0x13
 1879 006e 38       		.uleb128 0x38
 1880 006f 0B       		.uleb128 0xb
ARM GAS  /var/folders/m4/4md61f0s1_g0rzfghffqnxvr0000gn/T//ccoTO2Tv.s 			page 34


 1881 0070 00       		.byte	0
 1882 0071 00       		.byte	0
 1883 0072 09       		.uleb128 0x9
 1884 0073 0F       		.uleb128 0xf
 1885 0074 00       		.byte	0
 1886 0075 0B       		.uleb128 0xb
 1887 0076 0B       		.uleb128 0xb
 1888 0077 49       		.uleb128 0x49
 1889 0078 13       		.uleb128 0x13
 1890 0079 00       		.byte	0
 1891 007a 00       		.byte	0
 1892 007b 0A       		.uleb128 0xa
 1893 007c 13       		.uleb128 0x13
 1894 007d 01       		.byte	0x1
 1895 007e 03       		.uleb128 0x3
 1896 007f 0E       		.uleb128 0xe
 1897 0080 0B       		.uleb128 0xb
 1898 0081 0B       		.uleb128 0xb
 1899 0082 3A       		.uleb128 0x3a
 1900 0083 0B       		.uleb128 0xb
 1901 0084 3B       		.uleb128 0x3b
 1902 0085 05       		.uleb128 0x5
 1903 0086 01       		.uleb128 0x1
 1904 0087 13       		.uleb128 0x13
 1905 0088 00       		.byte	0
 1906 0089 00       		.byte	0
 1907 008a 0B       		.uleb128 0xb
 1908 008b 15       		.uleb128 0x15
 1909 008c 01       		.byte	0x1
 1910 008d 27       		.uleb128 0x27
 1911 008e 19       		.uleb128 0x19
 1912 008f 01       		.uleb128 0x1
 1913 0090 13       		.uleb128 0x13
 1914 0091 00       		.byte	0
 1915 0092 00       		.byte	0
 1916 0093 0C       		.uleb128 0xc
 1917 0094 05       		.uleb128 0x5
 1918 0095 00       		.byte	0
 1919 0096 49       		.uleb128 0x49
 1920 0097 13       		.uleb128 0x13
 1921 0098 00       		.byte	0
 1922 0099 00       		.byte	0
 1923 009a 0D       		.uleb128 0xd
 1924 009b 0F       		.uleb128 0xf
 1925 009c 00       		.byte	0
 1926 009d 0B       		.uleb128 0xb
 1927 009e 0B       		.uleb128 0xb
 1928 009f 00       		.byte	0
 1929 00a0 00       		.byte	0
 1930 00a1 0E       		.uleb128 0xe
 1931 00a2 13       		.uleb128 0x13
 1932 00a3 01       		.byte	0x1
 1933 00a4 03       		.uleb128 0x3
 1934 00a5 0E       		.uleb128 0xe
 1935 00a6 0B       		.uleb128 0xb
 1936 00a7 05       		.uleb128 0x5
 1937 00a8 3A       		.uleb128 0x3a
ARM GAS  /var/folders/m4/4md61f0s1_g0rzfghffqnxvr0000gn/T//ccoTO2Tv.s 			page 35


 1938 00a9 0B       		.uleb128 0xb
 1939 00aa 3B       		.uleb128 0x3b
 1940 00ab 05       		.uleb128 0x5
 1941 00ac 01       		.uleb128 0x1
 1942 00ad 13       		.uleb128 0x13
 1943 00ae 00       		.byte	0
 1944 00af 00       		.byte	0
 1945 00b0 0F       		.uleb128 0xf
 1946 00b1 35       		.uleb128 0x35
 1947 00b2 00       		.byte	0
 1948 00b3 49       		.uleb128 0x49
 1949 00b4 13       		.uleb128 0x13
 1950 00b5 00       		.byte	0
 1951 00b6 00       		.byte	0
 1952 00b7 10       		.uleb128 0x10
 1953 00b8 01       		.uleb128 0x1
 1954 00b9 01       		.byte	0x1
 1955 00ba 49       		.uleb128 0x49
 1956 00bb 13       		.uleb128 0x13
 1957 00bc 01       		.uleb128 0x1
 1958 00bd 13       		.uleb128 0x13
 1959 00be 00       		.byte	0
 1960 00bf 00       		.byte	0
 1961 00c0 11       		.uleb128 0x11
 1962 00c1 21       		.uleb128 0x21
 1963 00c2 00       		.byte	0
 1964 00c3 49       		.uleb128 0x49
 1965 00c4 13       		.uleb128 0x13
 1966 00c5 2F       		.uleb128 0x2f
 1967 00c6 0B       		.uleb128 0xb
 1968 00c7 00       		.byte	0
 1969 00c8 00       		.byte	0
 1970 00c9 12       		.uleb128 0x12
 1971 00ca 13       		.uleb128 0x13
 1972 00cb 01       		.byte	0x1
 1973 00cc 0B       		.uleb128 0xb
 1974 00cd 0B       		.uleb128 0xb
 1975 00ce 3A       		.uleb128 0x3a
 1976 00cf 0B       		.uleb128 0xb
 1977 00d0 3B       		.uleb128 0x3b
 1978 00d1 05       		.uleb128 0x5
 1979 00d2 01       		.uleb128 0x1
 1980 00d3 13       		.uleb128 0x13
 1981 00d4 00       		.byte	0
 1982 00d5 00       		.byte	0
 1983 00d6 13       		.uleb128 0x13
 1984 00d7 16       		.uleb128 0x16
 1985 00d8 00       		.byte	0
 1986 00d9 03       		.uleb128 0x3
 1987 00da 0E       		.uleb128 0xe
 1988 00db 3A       		.uleb128 0x3a
 1989 00dc 0B       		.uleb128 0xb
 1990 00dd 3B       		.uleb128 0x3b
 1991 00de 05       		.uleb128 0x5
 1992 00df 49       		.uleb128 0x49
 1993 00e0 13       		.uleb128 0x13
 1994 00e1 00       		.byte	0
ARM GAS  /var/folders/m4/4md61f0s1_g0rzfghffqnxvr0000gn/T//ccoTO2Tv.s 			page 36


 1995 00e2 00       		.byte	0
 1996 00e3 14       		.uleb128 0x14
 1997 00e4 0D       		.uleb128 0xd
 1998 00e5 00       		.byte	0
 1999 00e6 03       		.uleb128 0x3
 2000 00e7 08       		.uleb128 0x8
 2001 00e8 3A       		.uleb128 0x3a
 2002 00e9 0B       		.uleb128 0xb
 2003 00ea 3B       		.uleb128 0x3b
 2004 00eb 0B       		.uleb128 0xb
 2005 00ec 49       		.uleb128 0x49
 2006 00ed 13       		.uleb128 0x13
 2007 00ee 38       		.uleb128 0x38
 2008 00ef 0B       		.uleb128 0xb
 2009 00f0 00       		.byte	0
 2010 00f1 00       		.byte	0
 2011 00f2 15       		.uleb128 0x15
 2012 00f3 13       		.uleb128 0x13
 2013 00f4 01       		.byte	0x1
 2014 00f5 0B       		.uleb128 0xb
 2015 00f6 0B       		.uleb128 0xb
 2016 00f7 3A       		.uleb128 0x3a
 2017 00f8 0B       		.uleb128 0xb
 2018 00f9 3B       		.uleb128 0x3b
 2019 00fa 0B       		.uleb128 0xb
 2020 00fb 01       		.uleb128 0x1
 2021 00fc 13       		.uleb128 0x13
 2022 00fd 00       		.byte	0
 2023 00fe 00       		.byte	0
 2024 00ff 16       		.uleb128 0x16
 2025 0100 17       		.uleb128 0x17
 2026 0101 01       		.byte	0x1
 2027 0102 0B       		.uleb128 0xb
 2028 0103 0B       		.uleb128 0xb
 2029 0104 3A       		.uleb128 0x3a
 2030 0105 0B       		.uleb128 0xb
 2031 0106 3B       		.uleb128 0x3b
 2032 0107 0B       		.uleb128 0xb
 2033 0108 01       		.uleb128 0x1
 2034 0109 13       		.uleb128 0x13
 2035 010a 00       		.byte	0
 2036 010b 00       		.byte	0
 2037 010c 17       		.uleb128 0x17
 2038 010d 0D       		.uleb128 0xd
 2039 010e 00       		.byte	0
 2040 010f 03       		.uleb128 0x3
 2041 0110 0E       		.uleb128 0xe
 2042 0111 3A       		.uleb128 0x3a
 2043 0112 0B       		.uleb128 0xb
 2044 0113 3B       		.uleb128 0x3b
 2045 0114 05       		.uleb128 0x5
 2046 0115 49       		.uleb128 0x49
 2047 0116 13       		.uleb128 0x13
 2048 0117 00       		.byte	0
 2049 0118 00       		.byte	0
 2050 0119 18       		.uleb128 0x18
 2051 011a 26       		.uleb128 0x26
ARM GAS  /var/folders/m4/4md61f0s1_g0rzfghffqnxvr0000gn/T//ccoTO2Tv.s 			page 37


 2052 011b 00       		.byte	0
 2053 011c 49       		.uleb128 0x49
 2054 011d 13       		.uleb128 0x13
 2055 011e 00       		.byte	0
 2056 011f 00       		.byte	0
 2057 0120 19       		.uleb128 0x19
 2058 0121 04       		.uleb128 0x4
 2059 0122 01       		.byte	0x1
 2060 0123 0B       		.uleb128 0xb
 2061 0124 0B       		.uleb128 0xb
 2062 0125 49       		.uleb128 0x49
 2063 0126 13       		.uleb128 0x13
 2064 0127 3A       		.uleb128 0x3a
 2065 0128 0B       		.uleb128 0xb
 2066 0129 3B       		.uleb128 0x3b
 2067 012a 0B       		.uleb128 0xb
 2068 012b 01       		.uleb128 0x1
 2069 012c 13       		.uleb128 0x13
 2070 012d 00       		.byte	0
 2071 012e 00       		.byte	0
 2072 012f 1A       		.uleb128 0x1a
 2073 0130 28       		.uleb128 0x28
 2074 0131 00       		.byte	0
 2075 0132 03       		.uleb128 0x3
 2076 0133 0E       		.uleb128 0xe
 2077 0134 1C       		.uleb128 0x1c
 2078 0135 0B       		.uleb128 0xb
 2079 0136 00       		.byte	0
 2080 0137 00       		.byte	0
 2081 0138 1B       		.uleb128 0x1b
 2082 0139 2E       		.uleb128 0x2e
 2083 013a 01       		.byte	0x1
 2084 013b 3F       		.uleb128 0x3f
 2085 013c 19       		.uleb128 0x19
 2086 013d 03       		.uleb128 0x3
 2087 013e 0E       		.uleb128 0xe
 2088 013f 3A       		.uleb128 0x3a
 2089 0140 0B       		.uleb128 0xb
 2090 0141 3B       		.uleb128 0x3b
 2091 0142 0B       		.uleb128 0xb
 2092 0143 27       		.uleb128 0x27
 2093 0144 19       		.uleb128 0x19
 2094 0145 20       		.uleb128 0x20
 2095 0146 0B       		.uleb128 0xb
 2096 0147 01       		.uleb128 0x1
 2097 0148 13       		.uleb128 0x13
 2098 0149 00       		.byte	0
 2099 014a 00       		.byte	0
 2100 014b 1C       		.uleb128 0x1c
 2101 014c 05       		.uleb128 0x5
 2102 014d 00       		.byte	0
 2103 014e 03       		.uleb128 0x3
 2104 014f 0E       		.uleb128 0xe
 2105 0150 3A       		.uleb128 0x3a
 2106 0151 0B       		.uleb128 0xb
 2107 0152 3B       		.uleb128 0x3b
 2108 0153 0B       		.uleb128 0xb
ARM GAS  /var/folders/m4/4md61f0s1_g0rzfghffqnxvr0000gn/T//ccoTO2Tv.s 			page 38


 2109 0154 49       		.uleb128 0x49
 2110 0155 13       		.uleb128 0x13
 2111 0156 00       		.byte	0
 2112 0157 00       		.byte	0
 2113 0158 1D       		.uleb128 0x1d
 2114 0159 34       		.uleb128 0x34
 2115 015a 00       		.byte	0
 2116 015b 03       		.uleb128 0x3
 2117 015c 0E       		.uleb128 0xe
 2118 015d 3A       		.uleb128 0x3a
 2119 015e 0B       		.uleb128 0xb
 2120 015f 3B       		.uleb128 0x3b
 2121 0160 0B       		.uleb128 0xb
 2122 0161 49       		.uleb128 0x49
 2123 0162 13       		.uleb128 0x13
 2124 0163 00       		.byte	0
 2125 0164 00       		.byte	0
 2126 0165 1E       		.uleb128 0x1e
 2127 0166 2E       		.uleb128 0x2e
 2128 0167 01       		.byte	0x1
 2129 0168 3F       		.uleb128 0x3f
 2130 0169 19       		.uleb128 0x19
 2131 016a 03       		.uleb128 0x3
 2132 016b 0E       		.uleb128 0xe
 2133 016c 3A       		.uleb128 0x3a
 2134 016d 0B       		.uleb128 0xb
 2135 016e 3B       		.uleb128 0x3b
 2136 016f 0B       		.uleb128 0xb
 2137 0170 27       		.uleb128 0x27
 2138 0171 19       		.uleb128 0x19
 2139 0172 11       		.uleb128 0x11
 2140 0173 01       		.uleb128 0x1
 2141 0174 12       		.uleb128 0x12
 2142 0175 06       		.uleb128 0x6
 2143 0176 40       		.uleb128 0x40
 2144 0177 18       		.uleb128 0x18
 2145 0178 9742     		.uleb128 0x2117
 2146 017a 19       		.uleb128 0x19
 2147 017b 01       		.uleb128 0x1
 2148 017c 13       		.uleb128 0x13
 2149 017d 00       		.byte	0
 2150 017e 00       		.byte	0
 2151 017f 1F       		.uleb128 0x1f
 2152 0180 898201   		.uleb128 0x4109
 2153 0183 01       		.byte	0x1
 2154 0184 11       		.uleb128 0x11
 2155 0185 01       		.uleb128 0x1
 2156 0186 9542     		.uleb128 0x2115
 2157 0188 19       		.uleb128 0x19
 2158 0189 31       		.uleb128 0x31
 2159 018a 13       		.uleb128 0x13
 2160 018b 00       		.byte	0
 2161 018c 00       		.byte	0
 2162 018d 20       		.uleb128 0x20
 2163 018e 8A8201   		.uleb128 0x410a
 2164 0191 00       		.byte	0
 2165 0192 02       		.uleb128 0x2
ARM GAS  /var/folders/m4/4md61f0s1_g0rzfghffqnxvr0000gn/T//ccoTO2Tv.s 			page 39


 2166 0193 18       		.uleb128 0x18
 2167 0194 9142     		.uleb128 0x2111
 2168 0196 18       		.uleb128 0x18
 2169 0197 00       		.byte	0
 2170 0198 00       		.byte	0
 2171 0199 21       		.uleb128 0x21
 2172 019a 05       		.uleb128 0x5
 2173 019b 00       		.byte	0
 2174 019c 03       		.uleb128 0x3
 2175 019d 0E       		.uleb128 0xe
 2176 019e 3A       		.uleb128 0x3a
 2177 019f 0B       		.uleb128 0xb
 2178 01a0 3B       		.uleb128 0x3b
 2179 01a1 0B       		.uleb128 0xb
 2180 01a2 49       		.uleb128 0x49
 2181 01a3 13       		.uleb128 0x13
 2182 01a4 02       		.uleb128 0x2
 2183 01a5 17       		.uleb128 0x17
 2184 01a6 00       		.byte	0
 2185 01a7 00       		.byte	0
 2186 01a8 22       		.uleb128 0x22
 2187 01a9 898201   		.uleb128 0x4109
 2188 01ac 00       		.byte	0
 2189 01ad 11       		.uleb128 0x11
 2190 01ae 01       		.uleb128 0x1
 2191 01af 31       		.uleb128 0x31
 2192 01b0 13       		.uleb128 0x13
 2193 01b1 00       		.byte	0
 2194 01b2 00       		.byte	0
 2195 01b3 23       		.uleb128 0x23
 2196 01b4 34       		.uleb128 0x34
 2197 01b5 00       		.byte	0
 2198 01b6 03       		.uleb128 0x3
 2199 01b7 0E       		.uleb128 0xe
 2200 01b8 3A       		.uleb128 0x3a
 2201 01b9 0B       		.uleb128 0xb
 2202 01ba 3B       		.uleb128 0x3b
 2203 01bb 0B       		.uleb128 0xb
 2204 01bc 49       		.uleb128 0x49
 2205 01bd 13       		.uleb128 0x13
 2206 01be 02       		.uleb128 0x2
 2207 01bf 17       		.uleb128 0x17
 2208 01c0 00       		.byte	0
 2209 01c1 00       		.byte	0
 2210 01c2 24       		.uleb128 0x24
 2211 01c3 0B       		.uleb128 0xb
 2212 01c4 01       		.byte	0x1
 2213 01c5 11       		.uleb128 0x11
 2214 01c6 01       		.uleb128 0x1
 2215 01c7 12       		.uleb128 0x12
 2216 01c8 06       		.uleb128 0x6
 2217 01c9 00       		.byte	0
 2218 01ca 00       		.byte	0
 2219 01cb 25       		.uleb128 0x25
 2220 01cc 34       		.uleb128 0x34
 2221 01cd 00       		.byte	0
 2222 01ce 03       		.uleb128 0x3
ARM GAS  /var/folders/m4/4md61f0s1_g0rzfghffqnxvr0000gn/T//ccoTO2Tv.s 			page 40


 2223 01cf 08       		.uleb128 0x8
 2224 01d0 3A       		.uleb128 0x3a
 2225 01d1 0B       		.uleb128 0xb
 2226 01d2 3B       		.uleb128 0x3b
 2227 01d3 0B       		.uleb128 0xb
 2228 01d4 49       		.uleb128 0x49
 2229 01d5 13       		.uleb128 0x13
 2230 01d6 02       		.uleb128 0x2
 2231 01d7 17       		.uleb128 0x17
 2232 01d8 00       		.byte	0
 2233 01d9 00       		.byte	0
 2234 01da 26       		.uleb128 0x26
 2235 01db 1D       		.uleb128 0x1d
 2236 01dc 01       		.byte	0x1
 2237 01dd 31       		.uleb128 0x31
 2238 01de 13       		.uleb128 0x13
 2239 01df 52       		.uleb128 0x52
 2240 01e0 01       		.uleb128 0x1
 2241 01e1 55       		.uleb128 0x55
 2242 01e2 17       		.uleb128 0x17
 2243 01e3 58       		.uleb128 0x58
 2244 01e4 0B       		.uleb128 0xb
 2245 01e5 59       		.uleb128 0x59
 2246 01e6 0B       		.uleb128 0xb
 2247 01e7 01       		.uleb128 0x1
 2248 01e8 13       		.uleb128 0x13
 2249 01e9 00       		.byte	0
 2250 01ea 00       		.byte	0
 2251 01eb 27       		.uleb128 0x27
 2252 01ec 05       		.uleb128 0x5
 2253 01ed 00       		.byte	0
 2254 01ee 31       		.uleb128 0x31
 2255 01ef 13       		.uleb128 0x13
 2256 01f0 02       		.uleb128 0x2
 2257 01f1 17       		.uleb128 0x17
 2258 01f2 00       		.byte	0
 2259 01f3 00       		.byte	0
 2260 01f4 28       		.uleb128 0x28
 2261 01f5 05       		.uleb128 0x5
 2262 01f6 00       		.byte	0
 2263 01f7 31       		.uleb128 0x31
 2264 01f8 13       		.uleb128 0x13
 2265 01f9 00       		.byte	0
 2266 01fa 00       		.byte	0
 2267 01fb 29       		.uleb128 0x29
 2268 01fc 0B       		.uleb128 0xb
 2269 01fd 01       		.byte	0x1
 2270 01fe 55       		.uleb128 0x55
 2271 01ff 17       		.uleb128 0x17
 2272 0200 00       		.byte	0
 2273 0201 00       		.byte	0
 2274 0202 2A       		.uleb128 0x2a
 2275 0203 34       		.uleb128 0x34
 2276 0204 00       		.byte	0
 2277 0205 31       		.uleb128 0x31
 2278 0206 13       		.uleb128 0x13
 2279 0207 02       		.uleb128 0x2
ARM GAS  /var/folders/m4/4md61f0s1_g0rzfghffqnxvr0000gn/T//ccoTO2Tv.s 			page 41


 2280 0208 17       		.uleb128 0x17
 2281 0209 00       		.byte	0
 2282 020a 00       		.byte	0
 2283 020b 2B       		.uleb128 0x2b
 2284 020c 898201   		.uleb128 0x4109
 2285 020f 01       		.byte	0x1
 2286 0210 11       		.uleb128 0x11
 2287 0211 01       		.uleb128 0x1
 2288 0212 31       		.uleb128 0x31
 2289 0213 13       		.uleb128 0x13
 2290 0214 01       		.uleb128 0x1
 2291 0215 13       		.uleb128 0x13
 2292 0216 00       		.byte	0
 2293 0217 00       		.byte	0
 2294 0218 2C       		.uleb128 0x2c
 2295 0219 2E       		.uleb128 0x2e
 2296 021a 01       		.byte	0x1
 2297 021b 31       		.uleb128 0x31
 2298 021c 13       		.uleb128 0x13
 2299 021d 11       		.uleb128 0x11
 2300 021e 01       		.uleb128 0x1
 2301 021f 12       		.uleb128 0x12
 2302 0220 06       		.uleb128 0x6
 2303 0221 40       		.uleb128 0x40
 2304 0222 18       		.uleb128 0x18
 2305 0223 9742     		.uleb128 0x2117
 2306 0225 19       		.uleb128 0x19
 2307 0226 01       		.uleb128 0x1
 2308 0227 13       		.uleb128 0x13
 2309 0228 00       		.byte	0
 2310 0229 00       		.byte	0
 2311 022a 2D       		.uleb128 0x2d
 2312 022b 34       		.uleb128 0x34
 2313 022c 00       		.byte	0
 2314 022d 31       		.uleb128 0x31
 2315 022e 13       		.uleb128 0x13
 2316 022f 02       		.uleb128 0x2
 2317 0230 18       		.uleb128 0x18
 2318 0231 00       		.byte	0
 2319 0232 00       		.byte	0
 2320 0233 2E       		.uleb128 0x2e
 2321 0234 34       		.uleb128 0x34
 2322 0235 00       		.byte	0
 2323 0236 03       		.uleb128 0x3
 2324 0237 0E       		.uleb128 0xe
 2325 0238 3A       		.uleb128 0x3a
 2326 0239 0B       		.uleb128 0xb
 2327 023a 3B       		.uleb128 0x3b
 2328 023b 05       		.uleb128 0x5
 2329 023c 49       		.uleb128 0x49
 2330 023d 13       		.uleb128 0x13
 2331 023e 3F       		.uleb128 0x3f
 2332 023f 19       		.uleb128 0x19
 2333 0240 3C       		.uleb128 0x3c
 2334 0241 19       		.uleb128 0x19
 2335 0242 00       		.byte	0
 2336 0243 00       		.byte	0
ARM GAS  /var/folders/m4/4md61f0s1_g0rzfghffqnxvr0000gn/T//ccoTO2Tv.s 			page 42


 2337 0244 2F       		.uleb128 0x2f
 2338 0245 34       		.uleb128 0x34
 2339 0246 00       		.byte	0
 2340 0247 03       		.uleb128 0x3
 2341 0248 08       		.uleb128 0x8
 2342 0249 3A       		.uleb128 0x3a
 2343 024a 0B       		.uleb128 0xb
 2344 024b 3B       		.uleb128 0x3b
 2345 024c 05       		.uleb128 0x5
 2346 024d 49       		.uleb128 0x49
 2347 024e 13       		.uleb128 0x13
 2348 024f 3F       		.uleb128 0x3f
 2349 0250 19       		.uleb128 0x19
 2350 0251 3C       		.uleb128 0x3c
 2351 0252 19       		.uleb128 0x19
 2352 0253 00       		.byte	0
 2353 0254 00       		.byte	0
 2354 0255 30       		.uleb128 0x30
 2355 0256 34       		.uleb128 0x34
 2356 0257 00       		.byte	0
 2357 0258 03       		.uleb128 0x3
 2358 0259 0E       		.uleb128 0xe
 2359 025a 3A       		.uleb128 0x3a
 2360 025b 0B       		.uleb128 0xb
 2361 025c 3B       		.uleb128 0x3b
 2362 025d 0B       		.uleb128 0xb
 2363 025e 49       		.uleb128 0x49
 2364 025f 13       		.uleb128 0x13
 2365 0260 3F       		.uleb128 0x3f
 2366 0261 19       		.uleb128 0x19
 2367 0262 02       		.uleb128 0x2
 2368 0263 18       		.uleb128 0x18
 2369 0264 00       		.byte	0
 2370 0265 00       		.byte	0
 2371 0266 31       		.uleb128 0x31
 2372 0267 2E       		.uleb128 0x2e
 2373 0268 00       		.byte	0
 2374 0269 3F       		.uleb128 0x3f
 2375 026a 19       		.uleb128 0x19
 2376 026b 3C       		.uleb128 0x3c
 2377 026c 19       		.uleb128 0x19
 2378 026d 6E       		.uleb128 0x6e
 2379 026e 0E       		.uleb128 0xe
 2380 026f 03       		.uleb128 0x3
 2381 0270 0E       		.uleb128 0xe
 2382 0271 3A       		.uleb128 0x3a
 2383 0272 0B       		.uleb128 0xb
 2384 0273 3B       		.uleb128 0x3b
 2385 0274 0B       		.uleb128 0xb
 2386 0275 00       		.byte	0
 2387 0276 00       		.byte	0
 2388 0277 00       		.byte	0
 2389              		.section	.debug_loc,"",%progbits
 2390              	.Ldebug_loc0:
 2391              	.LLST0:
 2392 0000 00000000 		.4byte	.LVL1
 2393 0004 08000000 		.4byte	.LVL2
ARM GAS  /var/folders/m4/4md61f0s1_g0rzfghffqnxvr0000gn/T//ccoTO2Tv.s 			page 43


 2394 0008 0100     		.2byte	0x1
 2395 000a 50       		.byte	0x50
 2396 000b 08000000 		.4byte	.LVL2
 2397 000f 18000000 		.4byte	.LVL3
 2398 0013 0400     		.2byte	0x4
 2399 0015 F3       		.byte	0xf3
 2400 0016 01       		.uleb128 0x1
 2401 0017 50       		.byte	0x50
 2402 0018 9F       		.byte	0x9f
 2403 0019 18000000 		.4byte	.LVL3
 2404 001d 1B000000 		.4byte	.LVL4-1
 2405 0021 0100     		.2byte	0x1
 2406 0023 50       		.byte	0x50
 2407 0024 1B000000 		.4byte	.LVL4-1
 2408 0028 24000000 		.4byte	.LFE270
 2409 002c 0400     		.2byte	0x4
 2410 002e F3       		.byte	0xf3
 2411 002f 01       		.uleb128 0x1
 2412 0030 50       		.byte	0x50
 2413 0031 9F       		.byte	0x9f
 2414 0032 00000000 		.4byte	0
 2415 0036 00000000 		.4byte	0
 2416              	.LLST1:
 2417 003a 00000000 		.4byte	.LVL5
 2418 003e 16000000 		.4byte	.LVL7
 2419 0042 0100     		.2byte	0x1
 2420 0044 50       		.byte	0x50
 2421 0045 16000000 		.4byte	.LVL7
 2422 0049 4C000000 		.4byte	.LVL10
 2423 004d 0400     		.2byte	0x4
 2424 004f F3       		.byte	0xf3
 2425 0050 01       		.uleb128 0x1
 2426 0051 50       		.byte	0x50
 2427 0052 9F       		.byte	0x9f
 2428 0053 4C000000 		.4byte	.LVL10
 2429 0057 5E000000 		.4byte	.LVL11
 2430 005b 0100     		.2byte	0x1
 2431 005d 50       		.byte	0x50
 2432 005e 5E000000 		.4byte	.LVL11
 2433 0062 A0000000 		.4byte	.LFE271
 2434 0066 0400     		.2byte	0x4
 2435 0068 F3       		.byte	0xf3
 2436 0069 01       		.uleb128 0x1
 2437 006a 50       		.byte	0x50
 2438 006b 9F       		.byte	0x9f
 2439 006c 00000000 		.4byte	0
 2440 0070 00000000 		.4byte	0
 2441              	.LLST2:
 2442 0074 00000000 		.4byte	.LVL5
 2443 0078 2A000000 		.4byte	.LVL8
 2444 007c 0100     		.2byte	0x1
 2445 007e 51       		.byte	0x51
 2446 007f 2A000000 		.4byte	.LVL8
 2447 0083 4C000000 		.4byte	.LVL10
 2448 0087 0400     		.2byte	0x4
 2449 0089 F3       		.byte	0xf3
 2450 008a 01       		.uleb128 0x1
ARM GAS  /var/folders/m4/4md61f0s1_g0rzfghffqnxvr0000gn/T//ccoTO2Tv.s 			page 44


 2451 008b 51       		.byte	0x51
 2452 008c 9F       		.byte	0x9f
 2453 008d 4C000000 		.4byte	.LVL10
 2454 0091 8A000000 		.4byte	.LVL15
 2455 0095 0100     		.2byte	0x1
 2456 0097 51       		.byte	0x51
 2457 0098 8A000000 		.4byte	.LVL15
 2458 009c A0000000 		.4byte	.LFE271
 2459 00a0 0400     		.2byte	0x4
 2460 00a2 F3       		.byte	0xf3
 2461 00a3 01       		.uleb128 0x1
 2462 00a4 51       		.byte	0x51
 2463 00a5 9F       		.byte	0x9f
 2464 00a6 00000000 		.4byte	0
 2465 00aa 00000000 		.4byte	0
 2466              	.LLST3:
 2467 00ae 0E000000 		.4byte	.LVL6
 2468 00b2 42000000 		.4byte	.LVL9
 2469 00b6 0100     		.2byte	0x1
 2470 00b8 53       		.byte	0x53
 2471 00b9 42000000 		.4byte	.LVL9
 2472 00bd 4C000000 		.4byte	.LVL10
 2473 00c1 0800     		.2byte	0x8
 2474 00c3 31       		.byte	0x31
 2475 00c4 F3       		.byte	0xf3
 2476 00c5 01       		.uleb128 0x1
 2477 00c6 51       		.byte	0x51
 2478 00c7 4F       		.byte	0x4f
 2479 00c8 1A       		.byte	0x1a
 2480 00c9 24       		.byte	0x24
 2481 00ca 9F       		.byte	0x9f
 2482 00cb 4C000000 		.4byte	.LVL10
 2483 00cf 90000000 		.4byte	.LVL16
 2484 00d3 0100     		.2byte	0x1
 2485 00d5 53       		.byte	0x53
 2486 00d6 90000000 		.4byte	.LVL16
 2487 00da A0000000 		.4byte	.LFE271
 2488 00de 0800     		.2byte	0x8
 2489 00e0 31       		.byte	0x31
 2490 00e1 F3       		.byte	0xf3
 2491 00e2 01       		.uleb128 0x1
 2492 00e3 51       		.byte	0x51
 2493 00e4 4F       		.byte	0x4f
 2494 00e5 1A       		.byte	0x1a
 2495 00e6 24       		.byte	0x24
 2496 00e7 9F       		.byte	0x9f
 2497 00e8 00000000 		.4byte	0
 2498 00ec 00000000 		.4byte	0
 2499              	.LLST4:
 2500 00f0 4C000000 		.4byte	.LVL10
 2501 00f4 7E000000 		.4byte	.LVL14
 2502 00f8 0500     		.2byte	0x5
 2503 00fa 71       		.byte	0x71
 2504 00fb 00       		.sleb128 0
 2505 00fc 32       		.byte	0x32
 2506 00fd 25       		.byte	0x25
 2507 00fe 9F       		.byte	0x9f
ARM GAS  /var/folders/m4/4md61f0s1_g0rzfghffqnxvr0000gn/T//ccoTO2Tv.s 			page 45


 2508 00ff 00000000 		.4byte	0
 2509 0103 00000000 		.4byte	0
 2510              	.LLST5:
 2511 0107 66000000 		.4byte	.LVL12
 2512 010b 76000000 		.4byte	.LVL13
 2513 010f 0600     		.2byte	0x6
 2514 0111 3F       		.byte	0x3f
 2515 0112 75       		.byte	0x75
 2516 0113 00       		.sleb128 0
 2517 0114 24       		.byte	0x24
 2518 0115 20       		.byte	0x20
 2519 0116 9F       		.byte	0x9f
 2520 0117 76000000 		.4byte	.LVL13
 2521 011b 7E000000 		.4byte	.LVL14
 2522 011f 0A00     		.2byte	0xa
 2523 0121 3F       		.byte	0x3f
 2524 0122 71       		.byte	0x71
 2525 0123 00       		.sleb128 0
 2526 0124 33       		.byte	0x33
 2527 0125 1A       		.byte	0x1a
 2528 0126 32       		.byte	0x32
 2529 0127 24       		.byte	0x24
 2530 0128 24       		.byte	0x24
 2531 0129 20       		.byte	0x20
 2532 012a 9F       		.byte	0x9f
 2533 012b 00000000 		.4byte	0
 2534 012f 00000000 		.4byte	0
 2535              	.LLST6:
 2536 0133 66000000 		.4byte	.LVL12
 2537 0137 76000000 		.4byte	.LVL13
 2538 013b 0A00     		.2byte	0xa
 2539 013d 70       		.byte	0x70
 2540 013e 00       		.sleb128 0
 2541 013f 34       		.byte	0x34
 2542 0140 25       		.byte	0x25
 2543 0141 3F       		.byte	0x3f
 2544 0142 1A       		.byte	0x1a
 2545 0143 75       		.byte	0x75
 2546 0144 00       		.sleb128 0
 2547 0145 24       		.byte	0x24
 2548 0146 9F       		.byte	0x9f
 2549 0147 76000000 		.4byte	.LVL13
 2550 014b 7E000000 		.4byte	.LVL14
 2551 014f 0E00     		.2byte	0xe
 2552 0151 70       		.byte	0x70
 2553 0152 00       		.sleb128 0
 2554 0153 34       		.byte	0x34
 2555 0154 25       		.byte	0x25
 2556 0155 3F       		.byte	0x3f
 2557 0156 1A       		.byte	0x1a
 2558 0157 71       		.byte	0x71
 2559 0158 00       		.sleb128 0
 2560 0159 33       		.byte	0x33
 2561 015a 1A       		.byte	0x1a
 2562 015b 32       		.byte	0x32
 2563 015c 24       		.byte	0x24
 2564 015d 24       		.byte	0x24
ARM GAS  /var/folders/m4/4md61f0s1_g0rzfghffqnxvr0000gn/T//ccoTO2Tv.s 			page 46


 2565 015e 9F       		.byte	0x9f
 2566 015f 00000000 		.4byte	0
 2567 0163 00000000 		.4byte	0
 2568              	.LLST7:
 2569 0167 00000000 		.4byte	.LVL17
 2570 016b 0A000000 		.4byte	.LVL18
 2571 016f 0100     		.2byte	0x1
 2572 0171 50       		.byte	0x50
 2573 0172 0A000000 		.4byte	.LVL18
 2574 0176 54000000 		.4byte	.LVL27
 2575 017a 0100     		.2byte	0x1
 2576 017c 56       		.byte	0x56
 2577 017d 54000000 		.4byte	.LVL27
 2578 0181 57000000 		.4byte	.LVL28-1
 2579 0185 0100     		.2byte	0x1
 2580 0187 50       		.byte	0x50
 2581 0188 57000000 		.4byte	.LVL28-1
 2582 018c 60000000 		.4byte	.LFE269
 2583 0190 0100     		.2byte	0x1
 2584 0192 56       		.byte	0x56
 2585 0193 00000000 		.4byte	0
 2586 0197 00000000 		.4byte	0
 2587              	.LLST8:
 2588 019b 0A000000 		.4byte	.LVL18
 2589 019f 12000000 		.4byte	.LVL19
 2590 01a3 0200     		.2byte	0x2
 2591 01a5 30       		.byte	0x30
 2592 01a6 9F       		.byte	0x9f
 2593 01a7 12000000 		.4byte	.LVL19
 2594 01ab 4A000000 		.4byte	.LVL24
 2595 01af 0100     		.2byte	0x1
 2596 01b1 55       		.byte	0x55
 2597 01b2 4A000000 		.4byte	.LVL24
 2598 01b6 4D000000 		.4byte	.LVL25-1
 2599 01ba 0100     		.2byte	0x1
 2600 01bc 51       		.byte	0x51
 2601 01bd 4D000000 		.4byte	.LVL25-1
 2602 01c1 4E000000 		.4byte	.LVL25
 2603 01c5 0300     		.2byte	0x3
 2604 01c7 75       		.byte	0x75
 2605 01c8 7F       		.sleb128 -1
 2606 01c9 9F       		.byte	0x9f
 2607 01ca 4E000000 		.4byte	.LVL25
 2608 01ce 54000000 		.4byte	.LVL27
 2609 01d2 0100     		.2byte	0x1
 2610 01d4 55       		.byte	0x55
 2611 01d5 00000000 		.4byte	0
 2612 01d9 00000000 		.4byte	0
 2613              	.LLST9:
 2614 01dd 12000000 		.4byte	.LVL19
 2615 01e1 28000000 		.4byte	.LVL20
 2616 01e5 0100     		.2byte	0x1
 2617 01e7 55       		.byte	0x55
 2618 01e8 28000000 		.4byte	.LVL20
 2619 01ec 32000000 		.4byte	.LVL21
 2620 01f0 0300     		.2byte	0x3
 2621 01f2 75       		.byte	0x75
ARM GAS  /var/folders/m4/4md61f0s1_g0rzfghffqnxvr0000gn/T//ccoTO2Tv.s 			page 47


 2622 01f3 7F       		.sleb128 -1
 2623 01f4 9F       		.byte	0x9f
 2624 01f5 32000000 		.4byte	.LVL21
 2625 01f9 4A000000 		.4byte	.LVL24
 2626 01fd 0100     		.2byte	0x1
 2627 01ff 55       		.byte	0x55
 2628 0200 4A000000 		.4byte	.LVL24
 2629 0204 4D000000 		.4byte	.LVL25-1
 2630 0208 0100     		.2byte	0x1
 2631 020a 51       		.byte	0x51
 2632 020b 4D000000 		.4byte	.LVL25-1
 2633 020f 52000000 		.4byte	.LVL26
 2634 0213 0300     		.2byte	0x3
 2635 0215 75       		.byte	0x75
 2636 0216 7F       		.sleb128 -1
 2637 0217 9F       		.byte	0x9f
 2638 0218 00000000 		.4byte	0
 2639 021c 00000000 		.4byte	0
 2640              	.LLST10:
 2641 0220 12000000 		.4byte	.LVL19
 2642 0224 32000000 		.4byte	.LVL21
 2643 0228 0100     		.2byte	0x1
 2644 022a 51       		.byte	0x51
 2645 022b 3C000000 		.4byte	.LVL22
 2646 022f 46000000 		.4byte	.LVL23
 2647 0233 0100     		.2byte	0x1
 2648 0235 51       		.byte	0x51
 2649 0236 46000000 		.4byte	.LVL23
 2650 023a 4D000000 		.4byte	.LVL25-1
 2651 023e 0400     		.2byte	0x4
 2652 0240 73       		.byte	0x73
 2653 0241 00       		.sleb128 0
 2654 0242 20       		.byte	0x20
 2655 0243 9F       		.byte	0x9f
 2656 0244 4D000000 		.4byte	.LVL25-1
 2657 0248 52000000 		.4byte	.LVL26
 2658 024c 0600     		.2byte	0x6
 2659 024e 77       		.byte	0x77
 2660 024f 00       		.sleb128 0
 2661 0250 75       		.byte	0x75
 2662 0251 7F       		.sleb128 -1
 2663 0252 24       		.byte	0x24
 2664 0253 9F       		.byte	0x9f
 2665 0254 00000000 		.4byte	0
 2666 0258 00000000 		.4byte	0
 2667              	.LLST11:
 2668 025c 00000000 		.4byte	.LVL29
 2669 0260 0A000000 		.4byte	.LVL31
 2670 0264 0100     		.2byte	0x1
 2671 0266 50       		.byte	0x50
 2672 0267 0A000000 		.4byte	.LVL31
 2673 026b 30000000 		.4byte	.LFE272
 2674 026f 0400     		.2byte	0x4
 2675 0271 F3       		.byte	0xf3
 2676 0272 01       		.uleb128 0x1
 2677 0273 50       		.byte	0x50
 2678 0274 9F       		.byte	0x9f
ARM GAS  /var/folders/m4/4md61f0s1_g0rzfghffqnxvr0000gn/T//ccoTO2Tv.s 			page 48


 2679 0275 00000000 		.4byte	0
 2680 0279 00000000 		.4byte	0
 2681              	.LLST12:
 2682 027d 00000000 		.4byte	.LVL29
 2683 0281 08000000 		.4byte	.LVL30
 2684 0285 0100     		.2byte	0x1
 2685 0287 51       		.byte	0x51
 2686 0288 08000000 		.4byte	.LVL30
 2687 028c 30000000 		.4byte	.LFE272
 2688 0290 0400     		.2byte	0x4
 2689 0292 F3       		.byte	0xf3
 2690 0293 01       		.uleb128 0x1
 2691 0294 51       		.byte	0x51
 2692 0295 9F       		.byte	0x9f
 2693 0296 00000000 		.4byte	0
 2694 029a 00000000 		.4byte	0
 2695              		.section	.debug_aranges,"",%progbits
 2696 0000 3C000000 		.4byte	0x3c
 2697 0004 0200     		.2byte	0x2
 2698 0006 00000000 		.4byte	.Ldebug_info0
 2699 000a 04       		.byte	0x4
 2700 000b 00       		.byte	0
 2701 000c 0000     		.2byte	0
 2702 000e 0000     		.2byte	0
 2703 0010 00000000 		.4byte	.LFB268
 2704 0014 0C000000 		.4byte	.LFE268-.LFB268
 2705 0018 00000000 		.4byte	.LFB270
 2706 001c 24000000 		.4byte	.LFE270-.LFB270
 2707 0020 00000000 		.4byte	.LFB271
 2708 0024 A0000000 		.4byte	.LFE271-.LFB271
 2709 0028 00000000 		.4byte	.LFB269
 2710 002c 60000000 		.4byte	.LFE269-.LFB269
 2711 0030 00000000 		.4byte	.LFB272
 2712 0034 30000000 		.4byte	.LFE272-.LFB272
 2713 0038 00000000 		.4byte	0
 2714 003c 00000000 		.4byte	0
 2715              		.section	.debug_ranges,"",%progbits
 2716              	.Ldebug_ranges0:
 2717 0000 0A000000 		.4byte	.LBB5
 2718 0004 0C000000 		.4byte	.LBE5
 2719 0008 0E000000 		.4byte	.LBB12
 2720 000c 26000000 		.4byte	.LBE12
 2721 0010 28000000 		.4byte	.LBB13
 2722 0014 2A000000 		.4byte	.LBE13
 2723 0018 2C000000 		.4byte	.LBB14
 2724 001c 30000000 		.4byte	.LBE14
 2725 0020 38000000 		.4byte	.LBB15
 2726 0024 3C000000 		.4byte	.LBE15
 2727 0028 3E000000 		.4byte	.LBB16
 2728 002c 42000000 		.4byte	.LBE16
 2729 0030 00000000 		.4byte	0
 2730 0034 00000000 		.4byte	0
 2731 0038 00000000 		.4byte	.LFB268
 2732 003c 0C000000 		.4byte	.LFE268
 2733 0040 00000000 		.4byte	.LFB270
 2734 0044 24000000 		.4byte	.LFE270
 2735 0048 00000000 		.4byte	.LFB271
ARM GAS  /var/folders/m4/4md61f0s1_g0rzfghffqnxvr0000gn/T//ccoTO2Tv.s 			page 49


 2736 004c A0000000 		.4byte	.LFE271
 2737 0050 00000000 		.4byte	.LFB269
 2738 0054 60000000 		.4byte	.LFE269
 2739 0058 00000000 		.4byte	.LFB272
 2740 005c 30000000 		.4byte	.LFE272
 2741 0060 00000000 		.4byte	0
 2742 0064 00000000 		.4byte	0
 2743              		.section	.debug_line,"",%progbits
 2744              	.Ldebug_line0:
 2745 0000 7E040000 		.section	.debug_str,"MS",%progbits,1
 2745      0200A103 
 2745      00000201 
 2745      FB0E0D00 
 2745      01010101 
 2746              	.LASF49:
 2747 0000 74687265 		.ascii	"threads_list_t\000"
 2747      6164735F 
 2747      6C697374 
 2747      5F7400
 2748              	.LASF54:
 2749 000f 72656164 		.ascii	"ready_list_t\000"
 2749      795F6C69 
 2749      73745F74 
 2749      00
 2750              	.LASF2:
 2751 001c 73697A65 		.ascii	"size_t\000"
 2751      5F7400
 2752              	.LASF17:
 2753 0023 75696E74 		.ascii	"uint64_t\000"
 2753      36345F74 
 2753      00
 2754              	.LASF1:
 2755 002c 7369676E 		.ascii	"signed char\000"
 2755      65642063 
 2755      68617200 
 2756              	.LASF3:
 2757 0038 5F5F7569 		.ascii	"__uint8_t\000"
 2757      6E74385F 
 2757      7400
 2758              	.LASF122:
 2759 0042 65787063 		.ascii	"expchannel_t\000"
 2759      68616E6E 
 2759      656C5F74 
 2759      00
 2760              	.LASF95:
 2761 004f 706F7274 		.ascii	"port_intctx\000"
 2761      5F696E74 
 2761      63747800 
 2762              	.LASF73:
 2763 005b 73797374 		.ascii	"system_debug_t\000"
 2763      656D5F64 
 2763      65627567 
 2763      5F7400
 2764              	.LASF85:
 2765 006a 53574945 		.ascii	"SWIER\000"
 2765      5200
 2766              	.LASF87:
ARM GAS  /var/folders/m4/4md61f0s1_g0rzfghffqnxvr0000gn/T//ccoTO2Tv.s 			page 50


 2767 0070 4D454D52 		.ascii	"MEMRMP\000"
 2767      4D5000
 2768              	.LASF13:
 2769 0077 6C6F6E67 		.ascii	"long long unsigned int\000"
 2769      206C6F6E 
 2769      6720756E 
 2769      7369676E 
 2769      65642069 
 2770              	.LASF99:
 2771 008e 65786974 		.ascii	"exitcode\000"
 2771      636F6465 
 2771      00
 2772              	.LASF80:
 2773 0097 6D61696E 		.ascii	"mainthread\000"
 2773      74687265 
 2773      616400
 2774              	.LASF70:
 2775 00a2 76697274 		.ascii	"virtual_timers_list_t\000"
 2775      75616C5F 
 2775      74696D65 
 2775      72735F6C 
 2775      6973745F 
 2776              	.LASF138:
 2777 00b8 49544D5F 		.ascii	"ITM_RxBuffer\000"
 2777      52784275 
 2777      66666572 
 2777      00
 2778              	.LASF53:
 2779 00c5 63685F74 		.ascii	"ch_threads_queue\000"
 2779      68726561 
 2779      64735F71 
 2779      75657565 
 2779      00
 2780              	.LASF146:
 2781 00d6 6578745F 		.ascii	"ext_lld_channel_disable\000"
 2781      6C6C645F 
 2781      6368616E 
 2781      6E656C5F 
 2781      64697361 
 2782              	.LASF31:
 2783 00ee 705F7072 		.ascii	"p_prio\000"
 2783      696F00
 2784              	.LASF11:
 2785 00f5 6C6F6E67 		.ascii	"long long int\000"
 2785      206C6F6E 
 2785      6720696E 
 2785      7400
 2786              	.LASF128:
 2787 0103 65787470 		.ascii	"extp\000"
 2787      00
 2788              	.LASF140:
 2789 0108 6578744F 		.ascii	"extObjectInit\000"
 2789      626A6563 
 2789      74496E69 
 2789      7400
 2790              	.LASF47:
 2791 0116 705F6D70 		.ascii	"p_mpool\000"
ARM GAS  /var/folders/m4/4md61f0s1_g0rzfghffqnxvr0000gn/T//ccoTO2Tv.s 			page 51


 2791      6F6F6C00 
 2792              	.LASF109:
 2793 011e 6D5F7175 		.ascii	"m_queue\000"
 2793      65756500 
 2794              	.LASF79:
 2795 0126 76746C69 		.ascii	"vtlist\000"
 2795      737400
 2796              	.LASF22:
 2797 012d 74736C69 		.ascii	"tslices_t\000"
 2797      6365735F 
 2797      7400
 2798              	.LASF130:
 2799 0137 6578745F 		.ascii	"ext_lld_init\000"
 2799      6C6C645F 
 2799      696E6974 
 2799      00
 2800              	.LASF120:
 2801 0144 73746174 		.ascii	"state\000"
 2801      6500
 2802              	.LASF126:
 2803 014a 6368616E 		.ascii	"channels\000"
 2803      6E656C73 
 2803      00
 2804              	.LASF8:
 2805 0153 6C6F6E67 		.ascii	"long int\000"
 2805      20696E74 
 2805      00
 2806              	.LASF20:
 2807 015c 74737461 		.ascii	"tstate_t\000"
 2807      74655F74 
 2807      00
 2808              	.LASF33:
 2809 0165 705F6E65 		.ascii	"p_newer\000"
 2809      77657200 
 2810              	.LASF106:
 2811 016d 735F7175 		.ascii	"s_queue\000"
 2811      65756500 
 2812              	.LASF125:
 2813 0175 45585443 		.ascii	"EXTChannelConfig\000"
 2813      68616E6E 
 2813      656C436F 
 2813      6E666967 
 2813      00
 2814              	.LASF137:
 2815 0186 6C696E65 		.ascii	"line\000"
 2815      00
 2816              	.LASF59:
 2817 018b 725F6E65 		.ascii	"r_newer\000"
 2817      77657200 
 2818              	.LASF134:
 2819 0193 6D61736B 		.ascii	"mask\000"
 2819      00
 2820              	.LASF92:
 2821 0198 72656761 		.ascii	"regarm_t\000"
 2821      726D5F74 
 2821      00
 2822              	.LASF66:
ARM GAS  /var/folders/m4/4md61f0s1_g0rzfghffqnxvr0000gn/T//ccoTO2Tv.s 			page 52


 2823 01a1 76745F70 		.ascii	"vt_prev\000"
 2823      72657600 
 2824              	.LASF135:
 2825 01a9 706F7274 		.ascii	"port\000"
 2825      00
 2826              	.LASF113:
 2827 01ae 6D757465 		.ascii	"mutex_t\000"
 2827      785F7400 
 2828              	.LASF81:
 2829 01b6 69646C65 		.ascii	"idle_thread_wa\000"
 2829      5F746872 
 2829      6561645F 
 2829      776100
 2830              	.LASF141:
 2831 01c5 6578745F 		.ascii	"ext_lld_exti_irq_disable\000"
 2831      6C6C645F 
 2831      65787469 
 2831      5F697271 
 2831      5F646973 
 2832              	.LASF0:
 2833 01de 756E7369 		.ascii	"unsigned int\000"
 2833      676E6564 
 2833      20696E74 
 2833      00
 2834              	.LASF65:
 2835 01eb 76745F6E 		.ascii	"vt_next\000"
 2835      65787400 
 2836              	.LASF40:
 2837 01f3 705F7469 		.ascii	"p_time\000"
 2837      6D6500
 2838              	.LASF102:
 2839 01fa 77747365 		.ascii	"wtsemp\000"
 2839      6D7000
 2840              	.LASF67:
 2841 0201 76745F64 		.ascii	"vt_delta\000"
 2841      656C7461 
 2841      00
 2842              	.LASF42:
 2843 020a 705F6D73 		.ascii	"p_msgqueue\000"
 2843      67717565 
 2843      756500
 2844              	.LASF90:
 2845 0215 434D5043 		.ascii	"CMPCR\000"
 2845      5200
 2846              	.LASF136:
 2847 021b 6578745F 		.ascii	"ext_lld_start\000"
 2847      6C6C645F 
 2847      73746172 
 2847      7400
 2848              	.LASF107:
 2849 0229 735F636E 		.ascii	"s_cnt\000"
 2849      7400
 2850              	.LASF94:
 2851 022f 636F6E74 		.ascii	"context\000"
 2851      65787400 
 2852              	.LASF6:
 2853 0237 73686F72 		.ascii	"short unsigned int\000"
ARM GAS  /var/folders/m4/4md61f0s1_g0rzfghffqnxvr0000gn/T//ccoTO2Tv.s 			page 53


 2853      7420756E 
 2853      7369676E 
 2853      65642069 
 2853      6E7400
 2854              	.LASF142:
 2855 024a 6578745F 		.ascii	"ext_lld_exti_irq_enable\000"
 2855      6C6C645F 
 2855      65787469 
 2855      5F697271 
 2855      5F656E61 
 2856              	.LASF50:
 2857 0262 63685F74 		.ascii	"ch_thread\000"
 2857      68726561 
 2857      6400
 2858              	.LASF127:
 2859 026c 45585443 		.ascii	"EXTConfig\000"
 2859      6F6E6669 
 2859      6700
 2860              	.LASF24:
 2861 0276 6D73675F 		.ascii	"msg_t\000"
 2861      7400
 2862              	.LASF145:
 2863 027c 2F557365 		.ascii	"/Users/raphael/Documents/Projects/rESC/resc-firmwar"
 2863      72732F72 
 2863      61706861 
 2863      656C2F44 
 2863      6F63756D 
 2864 02af 6500     		.ascii	"e\000"
 2865              	.LASF131:
 2866 02b1 6578745F 		.ascii	"ext_lld_stop\000"
 2866      6C6C645F 
 2866      73746F70 
 2866      00
 2867              	.LASF76:
 2868 02be 63685F73 		.ascii	"ch_system_t\000"
 2868      79737465 
 2868      6D5F7400 
 2869              	.LASF19:
 2870 02ca 746D6F64 		.ascii	"tmode_t\000"
 2870      655F7400 
 2871              	.LASF55:
 2872 02d2 63685F72 		.ascii	"ch_ready_list\000"
 2872      65616479 
 2872      5F6C6973 
 2872      7400
 2873              	.LASF25:
 2874 02e0 6576656E 		.ascii	"eventmask_t\000"
 2874      746D6173 
 2874      6B5F7400 
 2875              	.LASF7:
 2876 02ec 5F5F696E 		.ascii	"__int32_t\000"
 2876      7433325F 
 2876      7400
 2877              	.LASF93:
 2878 02f6 73746B61 		.ascii	"stkalign_t\000"
 2878      6C69676E 
 2878      5F7400
ARM GAS  /var/folders/m4/4md61f0s1_g0rzfghffqnxvr0000gn/T//ccoTO2Tv.s 			page 54


 2879              	.LASF117:
 2880 0301 4558545F 		.ascii	"EXT_ACTIVE\000"
 2880      41435449 
 2880      564500
 2881              	.LASF133:
 2882 030c 636D6173 		.ascii	"cmask\000"
 2882      6B00
 2883              	.LASF41:
 2884 0312 705F7761 		.ascii	"p_waiting\000"
 2884      6974696E 
 2884      6700
 2885              	.LASF82:
 2886 031c 73697A65 		.ascii	"sizetype\000"
 2886      74797065 
 2886      00
 2887              	.LASF48:
 2888 0325 74687265 		.ascii	"thread_reference_t\000"
 2888      61645F72 
 2888      65666572 
 2888      656E6365 
 2888      5F7400
 2889              	.LASF118:
 2890 0338 65787473 		.ascii	"extstate_t\000"
 2890      74617465 
 2890      5F7400
 2891              	.LASF71:
 2892 0343 63685F76 		.ascii	"ch_virtual_timers_list\000"
 2892      69727475 
 2892      616C5F74 
 2892      696D6572 
 2892      735F6C69 
 2893              	.LASF101:
 2894 035a 77747472 		.ascii	"wttrp\000"
 2894      7000
 2895              	.LASF26:
 2896 0360 636E745F 		.ascii	"cnt_t\000"
 2896      7400
 2897              	.LASF34:
 2898 0366 705F6F6C 		.ascii	"p_older\000"
 2898      64657200 
 2899              	.LASF143:
 2900 036e 474E5520 		.ascii	"GNU C99 5.2.1 20151202 (release) [ARM/embedded-5-br"
 2900      43393920 
 2900      352E322E 
 2900      31203230 
 2900      31353132 
 2901 03a1 616E6368 		.ascii	"anch revision 231848] -mcpu=cortex-m4 -mfloat-abi=h"
 2901      20726576 
 2901      6973696F 
 2901      6E203233 
 2901      31383438 
 2902 03d4 61726420 		.ascii	"ard -mfpu=fpv4-sp-d16 -mno-thumb-interwork -mthumb "
 2902      2D6D6670 
 2902      753D6670 
 2902      76342D73 
 2902      702D6431 
 2903 0407 2D676764 		.ascii	"-ggdb -O2 -std=c99 -fomit-frame-pointer -falign-fun"
ARM GAS  /var/folders/m4/4md61f0s1_g0rzfghffqnxvr0000gn/T//ccoTO2Tv.s 			page 55


 2903      62202D4F 
 2903      32202D73 
 2903      74643D63 
 2903      3939202D 
 2904 043a 6374696F 		.ascii	"ctions=16 -fsingle-precision-constant -ffunction-se"
 2904      6E733D31 
 2904      36202D66 
 2904      73696E67 
 2904      6C652D70 
 2905 046d 6374696F 		.ascii	"ctions -fdata-sections -fno-common\000"
 2905      6E73202D 
 2905      66646174 
 2905      612D7365 
 2905      6374696F 
 2906              	.LASF58:
 2907 0490 725F6374 		.ascii	"r_ctx\000"
 2907      7800
 2908              	.LASF132:
 2909 0496 6578745F 		.ascii	"ext_lld_channel_enable\000"
 2909      6C6C645F 
 2909      6368616E 
 2909      6E656C5F 
 2909      656E6162 
 2910              	.LASF97:
 2911 04ad 746D5F63 		.ascii	"tm_calibration_t\000"
 2911      616C6962 
 2911      72617469 
 2911      6F6E5F74 
 2911      00
 2912              	.LASF115:
 2913 04be 4558545F 		.ascii	"EXT_UNINIT\000"
 2913      554E494E 
 2913      495400
 2914              	.LASF61:
 2915 04c9 725F6375 		.ascii	"r_current\000"
 2915      7272656E 
 2915      7400
 2916              	.LASF60:
 2917 04d3 725F6F6C 		.ascii	"r_older\000"
 2917      64657200 
 2918              	.LASF12:
 2919 04db 5F5F7569 		.ascii	"__uint64_t\000"
 2919      6E743634 
 2919      5F7400
 2920              	.LASF83:
 2921 04e6 52545352 		.ascii	"RTSR\000"
 2921      00
 2922              	.LASF91:
 2923 04eb 53595343 		.ascii	"SYSCFG_TypeDef\000"
 2923      46475F54 
 2923      79706544 
 2923      656600
 2924              	.LASF21:
 2925 04fa 74726566 		.ascii	"trefs_t\000"
 2925      735F7400 
 2926              	.LASF63:
 2927 0502 76697274 		.ascii	"virtual_timer_t\000"
ARM GAS  /var/folders/m4/4md61f0s1_g0rzfghffqnxvr0000gn/T//ccoTO2Tv.s 			page 56


 2927      75616C5F 
 2927      74696D65 
 2927      725F7400 
 2928              	.LASF30:
 2929 0512 705F7072 		.ascii	"p_prev\000"
 2929      657600
 2930              	.LASF23:
 2931 0519 74707269 		.ascii	"tprio_t\000"
 2931      6F5F7400 
 2932              	.LASF74:
 2933 0521 63685F73 		.ascii	"ch_system_debug\000"
 2933      79737465 
 2933      6D5F6465 
 2933      62756700 
 2934              	.LASF114:
 2935 0531 5F426F6F 		.ascii	"_Bool\000"
 2935      6C00
 2936              	.LASF15:
 2937 0537 696E7433 		.ascii	"int32_t\000"
 2937      325F7400 
 2938              	.LASF4:
 2939 053f 756E7369 		.ascii	"unsigned char\000"
 2939      676E6564 
 2939      20636861 
 2939      7200
 2940              	.LASF84:
 2941 054d 46545352 		.ascii	"FTSR\000"
 2941      00
 2942              	.LASF45:
 2943 0552 705F6D74 		.ascii	"p_mtxlist\000"
 2943      786C6973 
 2943      7400
 2944              	.LASF5:
 2945 055c 73686F72 		.ascii	"short int\000"
 2945      7420696E 
 2945      7400
 2946              	.LASF36:
 2947 0566 705F7374 		.ascii	"p_state\000"
 2947      61746500 
 2948              	.LASF39:
 2949 056e 705F7072 		.ascii	"p_preempt\000"
 2949      65656D70 
 2949      7400
 2950              	.LASF57:
 2951 0578 725F7072 		.ascii	"r_prio\000"
 2951      696F00
 2952              	.LASF89:
 2953 057f 52455345 		.ascii	"RESERVED\000"
 2953      52564544 
 2953      00
 2954              	.LASF104:
 2955 0588 65776D61 		.ascii	"ewmask\000"
 2955      736B00
 2956              	.LASF29:
 2957 058f 705F6E65 		.ascii	"p_next\000"
 2957      787400
 2958              	.LASF37:
ARM GAS  /var/folders/m4/4md61f0s1_g0rzfghffqnxvr0000gn/T//ccoTO2Tv.s 			page 57


 2959 0596 705F666C 		.ascii	"p_flags\000"
 2959      61677300 
 2960              	.LASF77:
 2961 059e 63685F73 		.ascii	"ch_system\000"
 2961      79737465 
 2961      6D00
 2962              	.LASF98:
 2963 05a8 7264796D 		.ascii	"rdymsg\000"
 2963      736700
 2964              	.LASF129:
 2965 05af 6368616E 		.ascii	"channel\000"
 2965      6E656C00 
 2966              	.LASF64:
 2967 05b7 63685F76 		.ascii	"ch_virtual_timer\000"
 2967      69727475 
 2967      616C5F74 
 2967      696D6572 
 2967      00
 2968              	.LASF105:
 2969 05c8 63685F73 		.ascii	"ch_semaphore\000"
 2969      656D6170 
 2969      686F7265 
 2969      00
 2970              	.LASF44:
 2971 05d5 705F6570 		.ascii	"p_epending\000"
 2971      656E6469 
 2971      6E6700
 2972              	.LASF16:
 2973 05e0 75696E74 		.ascii	"uint32_t\000"
 2973      33325F74 
 2973      00
 2974              	.LASF103:
 2975 05e9 77746D74 		.ascii	"wtmtxp\000"
 2975      787000
 2976              	.LASF56:
 2977 05f0 725F7175 		.ascii	"r_queue\000"
 2977      65756500 
 2978              	.LASF51:
 2979 05f8 63685F74 		.ascii	"ch_threads_list\000"
 2979      68726561 
 2979      64735F6C 
 2979      69737400 
 2980              	.LASF10:
 2981 0608 6C6F6E67 		.ascii	"long unsigned int\000"
 2981      20756E73 
 2981      69676E65 
 2981      6420696E 
 2981      7400
 2982              	.LASF116:
 2983 061a 4558545F 		.ascii	"EXT_STOP\000"
 2983      53544F50 
 2983      00
 2984              	.LASF112:
 2985 0623 63686172 		.ascii	"char\000"
 2985      00
 2986              	.LASF124:
 2987 0628 6D6F6465 		.ascii	"mode\000"
ARM GAS  /var/folders/m4/4md61f0s1_g0rzfghffqnxvr0000gn/T//ccoTO2Tv.s 			page 58


 2987      00
 2988              	.LASF121:
 2989 062d 636F6E66 		.ascii	"config\000"
 2989      696700
 2990              	.LASF123:
 2991 0634 65787463 		.ascii	"extcallback_t\000"
 2991      616C6C62 
 2991      61636B5F 
 2991      7400
 2992              	.LASF28:
 2993 0642 74687265 		.ascii	"thread_t\000"
 2993      61645F74 
 2993      00
 2994              	.LASF111:
 2995 064b 6D5F6E65 		.ascii	"m_next\000"
 2995      787400
 2996              	.LASF27:
 2997 0652 73797374 		.ascii	"systime_t\000"
 2997      696D655F 
 2997      7400
 2998              	.LASF46:
 2999 065c 705F7265 		.ascii	"p_realprio\000"
 2999      616C7072 
 2999      696F00
 3000              	.LASF62:
 3001 0667 76746675 		.ascii	"vtfunc_t\000"
 3001      6E635F74 
 3001      00
 3002              	.LASF9:
 3003 0670 5F5F7569 		.ascii	"__uint32_t\000"
 3003      6E743332 
 3003      5F7400
 3004              	.LASF75:
 3005 067b 70616E69 		.ascii	"panic_msg\000"
 3005      635F6D73 
 3005      6700
 3006              	.LASF96:
 3007 0685 6F666673 		.ascii	"offset\000"
 3007      657400
 3008              	.LASF18:
 3009 068c 7274636E 		.ascii	"rtcnt_t\000"
 3009      745F7400 
 3010              	.LASF69:
 3011 0694 76745F70 		.ascii	"vt_par\000"
 3011      617200
 3012              	.LASF119:
 3013 069b 45585444 		.ascii	"EXTDriver\000"
 3013      72697665 
 3013      7200
 3014              	.LASF52:
 3015 06a5 74687265 		.ascii	"threads_queue_t\000"
 3015      6164735F 
 3015      71756575 
 3015      655F7400 
 3016              	.LASF108:
 3017 06b5 63685F6D 		.ascii	"ch_mutex\000"
 3017      75746578 
ARM GAS  /var/folders/m4/4md61f0s1_g0rzfghffqnxvr0000gn/T//ccoTO2Tv.s 			page 59


 3017      00
 3018              	.LASF38:
 3019 06be 705F7265 		.ascii	"p_refs\000"
 3019      667300
 3020              	.LASF144:
 3021 06c5 43686962 		.ascii	"ChibiOS_16.1.4/os/hal/ports/STM32/LLD/EXTIv1/ext_ll"
 3021      694F535F 
 3021      31362E31 
 3021      2E342F6F 
 3021      732F6861 
 3022 06f8 642E6300 		.ascii	"d.c\000"
 3023              	.LASF78:
 3024 06fc 726C6973 		.ascii	"rlist\000"
 3024      7400
 3025              	.LASF14:
 3026 0702 75696E74 		.ascii	"uint8_t\000"
 3026      385F7400 
 3027              	.LASF100:
 3028 070a 77746F62 		.ascii	"wtobjp\000"
 3028      6A7000
 3029              	.LASF35:
 3030 0711 705F6E61 		.ascii	"p_name\000"
 3030      6D6500
 3031              	.LASF72:
 3032 0718 76745F73 		.ascii	"vt_systime\000"
 3032      79737469 
 3032      6D6500
 3033              	.LASF43:
 3034 0723 705F6D73 		.ascii	"p_msg\000"
 3034      6700
 3035              	.LASF86:
 3036 0729 45585449 		.ascii	"EXTI_TypeDef\000"
 3036      5F547970 
 3036      65446566 
 3036      00
 3037              	.LASF139:
 3038 0736 45585444 		.ascii	"EXTD1\000"
 3038      3100
 3039              	.LASF110:
 3040 073c 6D5F6F77 		.ascii	"m_owner\000"
 3040      6E657200 
 3041              	.LASF32:
 3042 0744 705F6374 		.ascii	"p_ctx\000"
 3042      7800
 3043              	.LASF68:
 3044 074a 76745F66 		.ascii	"vt_func\000"
 3044      756E6300 
 3045              	.LASF88:
 3046 0752 45585449 		.ascii	"EXTICR\000"
 3046      435200
 3047              		.ident	"GCC: (GNU Tools for ARM Embedded Processors) 5.2.1 20151202 (release) [ARM/embedded-5-bran
ARM GAS  /var/folders/m4/4md61f0s1_g0rzfghffqnxvr0000gn/T//ccoTO2Tv.s 			page 60


DEFINED SYMBOLS
                            *ABS*:0000000000000000 ext_lld.c
/var/folders/m4/4md61f0s1_g0rzfghffqnxvr0000gn/T//ccoTO2Tv.s:22     .text.ext_lld_init:0000000000000000 $t
/var/folders/m4/4md61f0s1_g0rzfghffqnxvr0000gn/T//ccoTO2Tv.s:28     .text.ext_lld_init:0000000000000000 ext_lld_init
/var/folders/m4/4md61f0s1_g0rzfghffqnxvr0000gn/T//ccoTO2Tv.s:43     .text.ext_lld_init:0000000000000008 $d
/var/folders/m4/4md61f0s1_g0rzfghffqnxvr0000gn/T//ccoTO2Tv.s:48     .text.ext_lld_stop:0000000000000000 $t
/var/folders/m4/4md61f0s1_g0rzfghffqnxvr0000gn/T//ccoTO2Tv.s:54     .text.ext_lld_stop:0000000000000000 ext_lld_stop
/var/folders/m4/4md61f0s1_g0rzfghffqnxvr0000gn/T//ccoTO2Tv.s:92     .text.ext_lld_stop:0000000000000020 $d
/var/folders/m4/4md61f0s1_g0rzfghffqnxvr0000gn/T//ccoTO2Tv.s:97     .text.ext_lld_channel_enable:0000000000000000 $t
/var/folders/m4/4md61f0s1_g0rzfghffqnxvr0000gn/T//ccoTO2Tv.s:103    .text.ext_lld_channel_enable:0000000000000000 ext_lld_channel_enable
/var/folders/m4/4md61f0s1_g0rzfghffqnxvr0000gn/T//ccoTO2Tv.s:226    .text.ext_lld_channel_enable:000000000000009c $d
/var/folders/m4/4md61f0s1_g0rzfghffqnxvr0000gn/T//ccoTO2Tv.s:231    .text.ext_lld_start:0000000000000000 $t
/var/folders/m4/4md61f0s1_g0rzfghffqnxvr0000gn/T//ccoTO2Tv.s:237    .text.ext_lld_start:0000000000000000 ext_lld_start
/var/folders/m4/4md61f0s1_g0rzfghffqnxvr0000gn/T//ccoTO2Tv.s:361    .text.ext_lld_start:000000000000005c $d
/var/folders/m4/4md61f0s1_g0rzfghffqnxvr0000gn/T//ccoTO2Tv.s:366    .text.ext_lld_channel_disable:0000000000000000 $t
/var/folders/m4/4md61f0s1_g0rzfghffqnxvr0000gn/T//ccoTO2Tv.s:372    .text.ext_lld_channel_disable:0000000000000000 ext_lld_channel_disable
/var/folders/m4/4md61f0s1_g0rzfghffqnxvr0000gn/T//ccoTO2Tv.s:414    .text.ext_lld_channel_disable:000000000000002c $d
/var/folders/m4/4md61f0s1_g0rzfghffqnxvr0000gn/T//ccoTO2Tv.s:424    .bss.EXTD1:0000000000000000 EXTD1
/var/folders/m4/4md61f0s1_g0rzfghffqnxvr0000gn/T//ccoTO2Tv.s:420    .bss.EXTD1:0000000000000000 $d
                     .debug_frame:0000000000000010 $d

UNDEFINED SYMBOLS
extObjectInit
ext_lld_exti_irq_disable
ext_lld_exti_irq_enable
