ARM GAS  /var/folders/m4/4md61f0s1_g0rzfghffqnxvr0000gn/T//ccoTO2Tv.s 			page 1


   1              		.syntax unified
   2              		.cpu cortex-m4
   3              		.eabi_attribute 27, 1
   4              		.eabi_attribute 28, 1
   5              		.fpu fpv4-sp-d16
   6              		.eabi_attribute 20, 1
   7              		.eabi_attribute 21, 1
   8              		.eabi_attribute 23, 3
   9              		.eabi_attribute 24, 1
  10              		.eabi_attribute 25, 1
  11              		.eabi_attribute 26, 1
  12              		.eabi_attribute 30, 2
  13              		.eabi_attribute 34, 1
  14              		.eabi_attribute 18, 4
  15              		.thumb
  16              		.syntax unified
  17              		.file	"ext_lld.c"
  18              		.text
  19              	.Ltext0:
  20              		.cfi_sections	.debug_frame
  21              		.section	.text.ext_lld_init,"ax",%progbits
  22              		.align	2
  23              		.p2align 4,,15
  24              		.global	ext_lld_init
  25              		.thumb
  26              		.thumb_func
  27              		.type	ext_lld_init, %function
  28              	ext_lld_init:
  29              	.LFB268:
  30              		.file 1 "ChibiOS_16.1.4/os/hal/ports/STM32/LLD/EXTIv1/ext_lld.c"
  31              		.loc 1 72 0
  32              		.cfi_startproc
  33              		@ args = 0, pretend = 0, frame = 0
  34              		@ frame_needed = 0, uses_anonymous_args = 0
  35              		@ link register save eliminated.
  36              		.loc 1 75 0
  37 0000 0148     		ldr	r0, .L2
  38 0002 FFF7FEBF 		b	extObjectInit
  39              	.LVL0:
  40              	.L3:
  41 0006 00BF     		.align	2
  42              	.L2:
  43 0008 00000000 		.word	.LANCHOR0
  44              		.cfi_endproc
  45              	.LFE268:
  46              		.size	ext_lld_init, .-ext_lld_init
  47              		.section	.text.ext_lld_stop,"ax",%progbits
  48              		.align	2
  49              		.p2align 4,,15
  50              		.global	ext_lld_stop
  51              		.thumb
  52              		.thumb_func
  53              		.type	ext_lld_stop, %function
  54              	ext_lld_stop:
  55              	.LFB270:
  56              		.loc 1 106 0
  57              		.cfi_startproc
ARM GAS  /var/folders/m4/4md61f0s1_g0rzfghffqnxvr0000gn/T//ccoTO2Tv.s 			page 2


  58              		@ args = 0, pretend = 0, frame = 0
  59              		@ frame_needed = 0, uses_anonymous_args = 0
  60              	.LVL1:
  61 0000 08B5     		push	{r3, lr}
  62              		.cfi_def_cfa_offset 8
  63              		.cfi_offset 3, -8
  64              		.cfi_offset 14, -4
  65              		.loc 1 108 0
  66 0002 0378     		ldrb	r3, [r0]	@ zero_extendqisi2
  67 0004 022B     		cmp	r3, #2
  68 0006 07D0     		beq	.L8
  69              	.LVL2:
  70              	.L5:
  71              		.loc 1 111 0
  72 0008 054B     		ldr	r3, .L9
  73 000a 0022     		movs	r2, #0
  74              		.loc 1 113 0
  75 000c 4FF0FF31 		mov	r1, #-1
  76              		.loc 1 111 0
  77 0010 5A60     		str	r2, [r3, #4]
  78              		.loc 1 112 0
  79 0012 1A60     		str	r2, [r3]
  80              		.loc 1 113 0
  81 0014 5961     		str	r1, [r3, #20]
  82 0016 08BD     		pop	{r3, pc}
  83              	.LVL3:
  84              	.L8:
  85              		.loc 1 109 0
  86 0018 FFF7FEFF 		bl	ext_lld_exti_irq_disable
  87              	.LVL4:
  88 001c F4E7     		b	.L5
  89              	.L10:
  90 001e 00BF     		.align	2
  91              	.L9:
  92 0020 003C0140 		.word	1073822720
  93              		.cfi_endproc
  94              	.LFE270:
  95              		.size	ext_lld_stop, .-ext_lld_stop
  96              		.section	.text.ext_lld_channel_enable,"ax",%progbits
  97              		.align	2
  98              		.p2align 4,,15
  99              		.global	ext_lld_channel_enable
 100              		.thumb
 101              		.thumb_func
 102              		.type	ext_lld_channel_enable, %function
 103              	ext_lld_channel_enable:
 104              	.LFB271:
 105              		.loc 1 128 0
 106              		.cfi_startproc
 107              		@ args = 0, pretend = 0, frame = 0
 108              		@ frame_needed = 0, uses_anonymous_args = 0
 109              	.LVL5:
 110              		.loc 1 129 0
 111 0000 01F01F03 		and	r3, r1, #31
 112 0004 0122     		movs	r2, #1
 113              		.loc 1 132 0
 114 0006 0F29     		cmp	r1, #15
ARM GAS  /var/folders/m4/4md61f0s1_g0rzfghffqnxvr0000gn/T//ccoTO2Tv.s 			page 3


 115              		.loc 1 128 0
 116 0008 F0B5     		push	{r4, r5, r6, r7, lr}
 117              		.cfi_def_cfa_offset 20
 118              		.cfi_offset 4, -20
 119              		.cfi_offset 5, -16
 120              		.cfi_offset 6, -12
 121              		.cfi_offset 7, -8
 122              		.cfi_offset 14, -4
 123              		.loc 1 129 0
 124 000a 02FA03F3 		lsl	r3, r2, r3
 125              	.LVL6:
 126              		.loc 1 132 0
 127 000e 1DD9     		bls	.L12
 128 0010 4268     		ldr	r2, [r0, #4]
 129 0012 52F83100 		ldr	r0, [r2, r1, lsl #3]
 130              	.LVL7:
 131              		.loc 1 155 0
 132 0016 C407     		lsls	r4, r0, #31
 133 0018 31D5     		bpl	.L14
 134              	.L21:
 135              		.loc 1 156 0
 136 001a 204D     		ldr	r5, .L22
 137 001c AC68     		ldr	r4, [r5, #8]
 138 001e 1C43     		orrs	r4, r4, r3
 139 0020 AC60     		str	r4, [r5, #8]
 140 0022 DC43     		mvns	r4, r3
 141              	.L15:
 142              		.loc 1 160 0
 143 0024 1D4D     		ldr	r5, .L22
 144              		.loc 1 165 0
 145 0026 02EBC101 		add	r1, r2, r1, lsl #3
 146              	.LVL8:
 147              		.loc 1 159 0
 148 002a 10F0020F 		tst	r0, #2
 149              		.loc 1 160 0
 150 002e E868     		ldr	r0, [r5, #12]
 151              		.loc 1 165 0
 152 0030 4A68     		ldr	r2, [r1, #4]
 153              		.loc 1 160 0
 154 0032 14BF     		ite	ne
 155 0034 1843     		orrne	r0, r0, r3
 156              		.loc 1 162 0
 157 0036 2040     		andeq	r0, r0, r4
 158 0038 E860     		str	r0, [r5, #12]
 159              		.loc 1 165 0
 160 003a 32B3     		cbz	r2, .L18
 161              		.loc 1 166 0
 162 003c 174A     		ldr	r2, .L22
 163 003e 1168     		ldr	r1, [r2]
 164 0040 0B43     		orrs	r3, r3, r1
 165              	.LVL9:
 166 0042 1360     		str	r3, [r2]
 167              		.loc 1 167 0
 168 0044 5368     		ldr	r3, [r2, #4]
 169 0046 1C40     		ands	r4, r4, r3
 170 0048 5460     		str	r4, [r2, #4]
 171 004a F0BD     		pop	{r4, r5, r6, r7, pc}
ARM GAS  /var/folders/m4/4md61f0s1_g0rzfghffqnxvr0000gn/T//ccoTO2Tv.s 			page 4


 172              	.LVL10:
 173              	.L12:
 174 004c 21F00304 		bic	r4, r1, #3
 175              	.LBB4:
 176              		.loc 1 135 0
 177 0050 4268     		ldr	r2, [r0, #4]
 178 0052 04F18044 		add	r4, r4, #1073741824
 179 0056 04F59C34 		add	r4, r4, #79872
 180 005a 52F83100 		ldr	r0, [r2, r1, lsl #3]
 181              	.LVL11:
 182              		.loc 1 142 0
 183 005e A768     		ldr	r7, [r4, #8]
 184              		.loc 1 134 0
 185 0060 01F00305 		and	r5, r1, #3
 186 0064 AD00     		lsls	r5, r5, #2
 187              	.LVL12:
 188              		.loc 1 142 0
 189 0066 0F26     		movs	r6, #15
 190 0068 AE40     		lsls	r6, r6, r5
 191 006a C0F3031E 		ubfx	lr, r0, #4, #4
 192 006e 27EA0606 		bic	r6, r7, r6
 193 0072 0EFA05F5 		lsl	r5, lr, r5
 194              	.LVL13:
 195 0076 3543     		orrs	r5, r5, r6
 196 0078 A560     		str	r5, [r4, #8]
 197              	.LBE4:
 198              		.loc 1 155 0
 199 007a C407     		lsls	r4, r0, #31
 200 007c CDD4     		bmi	.L21
 201              	.LVL14:
 202              	.L14:
 203              		.loc 1 158 0
 204 007e 074E     		ldr	r6, .L22
 205 0080 B568     		ldr	r5, [r6, #8]
 206 0082 DC43     		mvns	r4, r3
 207 0084 2540     		ands	r5, r5, r4
 208 0086 B560     		str	r5, [r6, #8]
 209 0088 CCE7     		b	.L15
 210              	.LVL15:
 211              	.L18:
 212              		.loc 1 170 0
 213 008a 044A     		ldr	r2, .L22
 214 008c 5168     		ldr	r1, [r2, #4]
 215 008e 0B43     		orrs	r3, r3, r1
 216              	.LVL16:
 217 0090 5360     		str	r3, [r2, #4]
 218              		.loc 1 171 0
 219 0092 1368     		ldr	r3, [r2]
 220 0094 1C40     		ands	r4, r4, r3
 221 0096 1460     		str	r4, [r2]
 222 0098 F0BD     		pop	{r4, r5, r6, r7, pc}
 223              	.L23:
 224 009a 00BF     		.align	2
 225              	.L22:
 226 009c 003C0140 		.word	1073822720
 227              		.cfi_endproc
 228              	.LFE271:
ARM GAS  /var/folders/m4/4md61f0s1_g0rzfghffqnxvr0000gn/T//ccoTO2Tv.s 			page 5


 229              		.size	ext_lld_channel_enable, .-ext_lld_channel_enable
 230              		.section	.text.ext_lld_start,"ax",%progbits
 231              		.align	2
 232              		.p2align 4,,15
 233              		.global	ext_lld_start
 234              		.thumb
 235              		.thumb_func
 236              		.type	ext_lld_start, %function
 237              	ext_lld_start:
 238              	.LFB269:
 239              		.loc 1 85 0
 240              		.cfi_startproc
 241              		@ args = 0, pretend = 0, frame = 0
 242              		@ frame_needed = 0, uses_anonymous_args = 0
 243              	.LVL17:
 244 0000 F8B5     		push	{r3, r4, r5, r6, r7, lr}
 245              		.cfi_def_cfa_offset 24
 246              		.cfi_offset 3, -24
 247              		.cfi_offset 4, -20
 248              		.cfi_offset 5, -16
 249              		.cfi_offset 6, -12
 250              		.cfi_offset 7, -8
 251              		.cfi_offset 14, -4
 252              		.loc 1 88 0
 253 0002 0378     		ldrb	r3, [r0]	@ zero_extendqisi2
 254 0004 012B     		cmp	r3, #1
 255              		.loc 1 85 0
 256 0006 0646     		mov	r6, r0
 257              		.loc 1 88 0
 258 0008 24D0     		beq	.L31
 259              	.LVL18:
 260              	.L25:
 261              	.LBB5:
 262              	.LBB6:
 263              		.loc 1 220 0 discriminator 1
 264 000a 144C     		ldr	r4, .L33
 265              	.LBE6:
 266              	.LBE5:
 267              		.loc 1 85 0 discriminator 1
 268 000c 0025     		movs	r5, #0
 269              	.LBB12:
 270              	.LBB7:
 271              		.loc 1 213 0 discriminator 1
 272 000e 0127     		movs	r7, #1
 273 0010 0FE0     		b	.L28
 274              	.LVL19:
 275              	.L26:
 276              		.loc 1 220 0
 277 0012 2268     		ldr	r2, [r4]
 278 0014 1A40     		ands	r2, r2, r3
 279 0016 2260     		str	r2, [r4]
 280              		.loc 1 221 0
 281 0018 6268     		ldr	r2, [r4, #4]
 282 001a 1A40     		ands	r2, r2, r3
 283 001c 6260     		str	r2, [r4, #4]
 284              		.loc 1 222 0
 285 001e A268     		ldr	r2, [r4, #8]
ARM GAS  /var/folders/m4/4md61f0s1_g0rzfghffqnxvr0000gn/T//ccoTO2Tv.s 			page 6


 286 0020 1A40     		ands	r2, r2, r3
 287 0022 A260     		str	r2, [r4, #8]
 288              		.loc 1 223 0
 289 0024 E268     		ldr	r2, [r4, #12]
 290              	.LBE7:
 291              	.LBE12:
 292              		.loc 1 92 0
 293 0026 0135     		adds	r5, r5, #1
 294              	.LVL20:
 295              	.LBB13:
 296              	.LBB8:
 297              		.loc 1 223 0
 298 0028 1340     		ands	r3, r3, r2
 299              	.LBE8:
 300              	.LBE13:
 301              		.loc 1 92 0
 302 002a 172D     		cmp	r5, #23
 303              	.LBB14:
 304              	.LBB9:
 305              		.loc 1 223 0
 306 002c E360     		str	r3, [r4, #12]
 307              		.loc 1 224 0
 308 002e 6161     		str	r1, [r4, #20]
 309              	.LBE9:
 310              	.LBE14:
 311              		.loc 1 92 0
 312 0030 0FD0     		beq	.L32
 313              	.LVL21:
 314              	.L28:
 315              		.loc 1 93 0
 316 0032 7268     		ldr	r2, [r6, #4]
 317 0034 52F83520 		ldr	r2, [r2, r5, lsl #3]
 318              	.LBB15:
 319              	.LBB10:
 320              		.loc 1 213 0
 321 0038 07FA05F1 		lsl	r1, r7, r5
 322              	.LVL22:
 323              	.LBE10:
 324              	.LBE15:
 325              		.loc 1 93 0
 326 003c 5207     		lsls	r2, r2, #29
 327              	.LBB16:
 328              	.LBB11:
 329              		.loc 1 220 0
 330 003e 6FEA0103 		mvn	r3, r1
 331              	.LBE11:
 332              	.LBE16:
 333              		.loc 1 93 0
 334 0042 E6D5     		bpl	.L26
 335              		.loc 1 94 0
 336 0044 2946     		mov	r1, r5
 337              	.LVL23:
 338 0046 3046     		mov	r0, r6
 339              		.loc 1 92 0
 340 0048 0135     		adds	r5, r5, #1
 341              	.LVL24:
 342              		.loc 1 94 0
ARM GAS  /var/folders/m4/4md61f0s1_g0rzfghffqnxvr0000gn/T//ccoTO2Tv.s 			page 7


 343 004a FFF7FEFF 		bl	ext_lld_channel_enable
 344              	.LVL25:
 345              		.loc 1 92 0
 346 004e 172D     		cmp	r5, #23
 347 0050 EFD1     		bne	.L28
 348              	.LVL26:
 349              	.L32:
 350              		.loc 1 97 0
 351 0052 F8BD     		pop	{r3, r4, r5, r6, r7, pc}
 352              	.LVL27:
 353              	.L31:
 354              		.loc 1 89 0
 355 0054 FFF7FEFF 		bl	ext_lld_exti_irq_enable
 356              	.LVL28:
 357 0058 D7E7     		b	.L25
 358              	.L34:
 359 005a 00BF     		.align	2
 360              	.L33:
 361 005c 003C0140 		.word	1073822720
 362              		.cfi_endproc
 363              	.LFE269:
 364              		.size	ext_lld_start, .-ext_lld_start
 365              		.section	.text.ext_lld_channel_disable,"ax",%progbits
 366              		.align	2
 367              		.p2align 4,,15
 368              		.global	ext_lld_channel_disable
 369              		.thumb
 370              		.thumb_func
 371              		.type	ext_lld_channel_disable, %function
 372              	ext_lld_channel_disable:
 373              	.LFB272:
 374              		.loc 1 212 0
 375              		.cfi_startproc
 376              		@ args = 0, pretend = 0, frame = 0
 377              		@ frame_needed = 0, uses_anonymous_args = 0
 378              		@ link register save eliminated.
 379              	.LVL29:
 380              		.loc 1 220 0
 381 0000 0A4B     		ldr	r3, .L36
 382              		.loc 1 213 0
 383 0002 0122     		movs	r2, #1
 384 0004 01F01F01 		and	r1, r1, #31
 385              	.LVL30:
 386              		.loc 1 220 0
 387 0008 1868     		ldr	r0, [r3]
 388              	.LVL31:
 389              		.loc 1 213 0
 390 000a 02FA01F1 		lsl	r1, r2, r1
 391              	.LVL32:
 392              		.loc 1 220 0
 393 000e CA43     		mvns	r2, r1
 394 0010 1040     		ands	r0, r0, r2
 395 0012 1860     		str	r0, [r3]
 396              		.loc 1 221 0
 397 0014 5868     		ldr	r0, [r3, #4]
 398 0016 1040     		ands	r0, r0, r2
 399 0018 5860     		str	r0, [r3, #4]
ARM GAS  /var/folders/m4/4md61f0s1_g0rzfghffqnxvr0000gn/T//ccoTO2Tv.s 			page 8


 400              		.loc 1 222 0
 401 001a 9868     		ldr	r0, [r3, #8]
 402 001c 1040     		ands	r0, r0, r2
 403 001e 9860     		str	r0, [r3, #8]
 404              		.loc 1 223 0
 405 0020 D868     		ldr	r0, [r3, #12]
 406 0022 0240     		ands	r2, r2, r0
 407 0024 DA60     		str	r2, [r3, #12]
 408              		.loc 1 224 0
 409 0026 5961     		str	r1, [r3, #20]
 410 0028 7047     		bx	lr
 411              	.L37:
 412 002a 00BF     		.align	2
 413              	.L36:
 414 002c 003C0140 		.word	1073822720
 415              		.cfi_endproc
 416              	.LFE272:
 417              		.size	ext_lld_channel_disable, .-ext_lld_channel_disable
 418              		.global	EXTD1
 419              		.section	.bss.EXTD1,"aw",%nobits
 420              		.align	2
 421              		.set	.LANCHOR0,. + 0
 422              		.type	EXTD1, %object
 423              		.size	EXTD1, 8
 424              	EXTD1:
 425 0000 00000000 		.space	8
 425      00000000 
 426              		.text
 427              	.Letext0:
 428              		.file 2 "/opt/homebrew-cask/Caskroom/gcc-arm-embedded/5_2-2015q4,20151219/gcc-arm-none-eabi-5_2-20
 429              		.file 3 "/opt/homebrew-cask/Caskroom/gcc-arm-embedded/5_2-2015q4,20151219/gcc-arm-none-eabi-5_2-20
 430              		.file 4 "/opt/homebrew-cask/Caskroom/gcc-arm-embedded/5_2-2015q4,20151219/gcc-arm-none-eabi-5_2-20
 431              		.file 5 "ChibiOS_16.1.4/os/rt/ports/ARMCMx/compilers/GCC/chtypes.h"
 432              		.file 6 "ChibiOS_16.1.4/os/rt/include/chsystypes.h"
 433              		.file 7 "ChibiOS_16.1.4/os/rt/include/chschd.h"
 434              		.file 8 "ChibiOS_16.1.4/os/ext/CMSIS/ST/STM32F4xx/stm32f405xx.h"
 435              		.file 9 "ChibiOS_16.1.4/os/rt/ports/ARMCMx/chcore.h"
 436              		.file 10 "ChibiOS_16.1.4/os/rt/ports/ARMCMx/chcore_v7m.h"
 437              		.file 11 "ChibiOS_16.1.4/os/rt/include/chtm.h"
 438              		.file 12 "ChibiOS_16.1.4/os/rt/include/chsem.h"
 439              		.file 13 "ChibiOS_16.1.4/os/rt/include/chmtx.h"
 440              		.file 14 "ChibiOS_16.1.4/os/hal/include/ext.h"
 441              		.file 15 "ChibiOS_16.1.4/os/hal/ports/STM32/LLD/EXTIv1/ext_lld.h"
 442              		.file 16 "ChibiOS_16.1.4/os/ext/CMSIS/include/core_cm4.h"
 443              		.file 17 "ChibiOS_16.1.4/os/hal/ports/STM32/STM32F4xx/ext_lld_isr.h"