ARM GAS  /var/folders/m4/4md61f0s1_g0rzfghffqnxvr0000gn/T//ccZRL7EU.s 			page 1


   1              		.syntax unified
   2              		.cpu cortex-m4
   3              		.eabi_attribute 27, 1
   4              		.eabi_attribute 28, 1
   5              		.fpu fpv4-sp-d16
   6              		.eabi_attribute 20, 1
   7              		.eabi_attribute 21, 1
   8              		.eabi_attribute 23, 3
   9              		.eabi_attribute 24, 1
  10              		.eabi_attribute 25, 1
  11              		.eabi_attribute 26, 1
  12              		.eabi_attribute 30, 2
  13              		.eabi_attribute 34, 1
  14              		.eabi_attribute 18, 4
  15              		.thumb
  16              		.syntax unified
  17              		.file	"ext_lld_isr.c"
  18              		.text
  19              	.Ltext0:
  20              		.cfi_sections	.debug_frame
  21              		.section	.text.Vector58,"ax",%progbits
  22              		.align	2
  23              		.p2align 4,,15
  24              		.global	Vector58
  25              		.thumb
  26              		.thumb_func
  27              		.type	Vector58, %function
  28              	Vector58:
  29              	.LFB268:
  30              		.file 1 "ChibiOS_16.1.4/os/hal/ports/STM32/STM32F4xx/ext_lld_isr.c"
  31              		.loc 1 56 0
  32              		.cfi_startproc
  33              		@ args = 0, pretend = 0, frame = 0
  34              		@ frame_needed = 0, uses_anonymous_args = 0
  35              		.loc 1 61 0
  36 0000 084A     		ldr	r2, .L8
  37              		.loc 1 56 0
  38 0002 08B5     		push	{r3, lr}
  39              		.cfi_def_cfa_offset 8
  40              		.cfi_offset 3, -8
  41              		.cfi_offset 14, -4
  42              		.loc 1 61 0
  43 0004 5169     		ldr	r1, [r2, #20]
  44              	.LVL0:
  45              		.loc 1 62 0
  46 0006 1368     		ldr	r3, [r2]
  47 0008 0B40     		ands	r3, r3, r1
  48 000a 03F00103 		and	r3, r3, #1
  49              	.LVL1:
  50              		.loc 1 63 0
  51 000e 5361     		str	r3, [r2, #20]
  52              		.loc 1 64 0
  53 0010 23B1     		cbz	r3, .L2
  54              		.loc 1 65 0
  55 0012 0548     		ldr	r0, .L8+4
  56 0014 4368     		ldr	r3, [r0, #4]
  57              	.LVL2:
ARM GAS  /var/folders/m4/4md61f0s1_g0rzfghffqnxvr0000gn/T//ccZRL7EU.s 			page 2


  58 0016 0021     		movs	r1, #0
  59 0018 5B68     		ldr	r3, [r3, #4]
  60 001a 9847     		blx	r3
  61              	.LVL3:
  62              	.L2:
  63              		.loc 1 68 0
  64 001c BDE80840 		pop	{r3, lr}
  65              		.cfi_restore 14
  66              		.cfi_restore 3
  67              		.cfi_def_cfa_offset 0
  68              		.loc 1 67 0
  69 0020 FFF7FEBF 		b	_port_irq_epilogue
  70              	.LVL4:
  71              	.L9:
  72              		.align	2
  73              	.L8:
  74 0024 003C0140 		.word	1073822720
  75 0028 00000000 		.word	EXTD1
  76              		.cfi_endproc
  77              	.LFE268:
  78              		.size	Vector58, .-Vector58
  79              		.section	.text.Vector5C,"ax",%progbits
  80              		.align	2
  81              		.p2align 4,,15
  82              		.global	Vector5C
  83              		.thumb
  84              		.thumb_func
  85              		.type	Vector5C, %function
  86              	Vector5C:
  87              	.LFB269:
  88              		.loc 1 75 0
  89              		.cfi_startproc
  90              		@ args = 0, pretend = 0, frame = 0
  91              		@ frame_needed = 0, uses_anonymous_args = 0
  92              		.loc 1 80 0
  93 0000 084A     		ldr	r2, .L16
  94              		.loc 1 75 0
  95 0002 08B5     		push	{r3, lr}
  96              		.cfi_def_cfa_offset 8
  97              		.cfi_offset 3, -8
  98              		.cfi_offset 14, -4
  99              		.loc 1 80 0
 100 0004 5169     		ldr	r1, [r2, #20]
 101              	.LVL5:
 102              		.loc 1 81 0
 103 0006 1368     		ldr	r3, [r2]
 104 0008 0B40     		ands	r3, r3, r1
 105 000a 03F00203 		and	r3, r3, #2
 106              	.LVL6:
 107              		.loc 1 82 0
 108 000e 5361     		str	r3, [r2, #20]
 109              		.loc 1 83 0
 110 0010 23B1     		cbz	r3, .L11
 111              		.loc 1 84 0
 112 0012 0548     		ldr	r0, .L16+4
 113 0014 4368     		ldr	r3, [r0, #4]
 114              	.LVL7:
ARM GAS  /var/folders/m4/4md61f0s1_g0rzfghffqnxvr0000gn/T//ccZRL7EU.s 			page 3


 115 0016 0121     		movs	r1, #1
 116 0018 DB68     		ldr	r3, [r3, #12]
 117 001a 9847     		blx	r3
 118              	.LVL8:
 119              	.L11:
 120              		.loc 1 87 0
 121 001c BDE80840 		pop	{r3, lr}
 122              		.cfi_restore 14
 123              		.cfi_restore 3
 124              		.cfi_def_cfa_offset 0
 125              		.loc 1 86 0
 126 0020 FFF7FEBF 		b	_port_irq_epilogue
 127              	.LVL9:
 128              	.L17:
 129              		.align	2
 130              	.L16:
 131 0024 003C0140 		.word	1073822720
 132 0028 00000000 		.word	EXTD1
 133              		.cfi_endproc
 134              	.LFE269:
 135              		.size	Vector5C, .-Vector5C
 136              		.section	.text.Vector60,"ax",%progbits
 137              		.align	2
 138              		.p2align 4,,15
 139              		.global	Vector60
 140              		.thumb
 141              		.thumb_func
 142              		.type	Vector60, %function
 143              	Vector60:
 144              	.LFB270:
 145              		.loc 1 94 0
 146              		.cfi_startproc
 147              		@ args = 0, pretend = 0, frame = 0
 148              		@ frame_needed = 0, uses_anonymous_args = 0
 149              		.loc 1 99 0
 150 0000 084A     		ldr	r2, .L24
 151              		.loc 1 94 0
 152 0002 08B5     		push	{r3, lr}
 153              		.cfi_def_cfa_offset 8
 154              		.cfi_offset 3, -8
 155              		.cfi_offset 14, -4
 156              		.loc 1 99 0
 157 0004 5169     		ldr	r1, [r2, #20]
 158              	.LVL10:
 159              		.loc 1 100 0
 160 0006 1368     		ldr	r3, [r2]
 161 0008 0B40     		ands	r3, r3, r1
 162 000a 03F00403 		and	r3, r3, #4
 163              	.LVL11:
 164              		.loc 1 101 0
 165 000e 5361     		str	r3, [r2, #20]
 166              		.loc 1 102 0
 167 0010 23B1     		cbz	r3, .L19
 168              		.loc 1 103 0
 169 0012 0548     		ldr	r0, .L24+4
 170 0014 4368     		ldr	r3, [r0, #4]
 171              	.LVL12:
ARM GAS  /var/folders/m4/4md61f0s1_g0rzfghffqnxvr0000gn/T//ccZRL7EU.s 			page 4


 172 0016 0221     		movs	r1, #2
 173 0018 5B69     		ldr	r3, [r3, #20]
 174 001a 9847     		blx	r3
 175              	.LVL13:
 176              	.L19:
 177              		.loc 1 106 0
 178 001c BDE80840 		pop	{r3, lr}
 179              		.cfi_restore 14
 180              		.cfi_restore 3
 181              		.cfi_def_cfa_offset 0
 182              		.loc 1 105 0
 183 0020 FFF7FEBF 		b	_port_irq_epilogue
 184              	.LVL14:
 185              	.L25:
 186              		.align	2
 187              	.L24:
 188 0024 003C0140 		.word	1073822720
 189 0028 00000000 		.word	EXTD1
 190              		.cfi_endproc
 191              	.LFE270:
 192              		.size	Vector60, .-Vector60
 193              		.section	.text.Vector64,"ax",%progbits
 194              		.align	2
 195              		.p2align 4,,15
 196              		.global	Vector64
 197              		.thumb
 198              		.thumb_func
 199              		.type	Vector64, %function
 200              	Vector64:
 201              	.LFB271:
 202              		.loc 1 113 0
 203              		.cfi_startproc
 204              		@ args = 0, pretend = 0, frame = 0
 205              		@ frame_needed = 0, uses_anonymous_args = 0
 206              		.loc 1 118 0
 207 0000 084A     		ldr	r2, .L32
 208              		.loc 1 113 0
 209 0002 08B5     		push	{r3, lr}
 210              		.cfi_def_cfa_offset 8
 211              		.cfi_offset 3, -8
 212              		.cfi_offset 14, -4
 213              		.loc 1 118 0
 214 0004 5169     		ldr	r1, [r2, #20]
 215              	.LVL15:
 216              		.loc 1 119 0
 217 0006 1368     		ldr	r3, [r2]
 218 0008 0B40     		ands	r3, r3, r1
 219 000a 03F00803 		and	r3, r3, #8
 220              	.LVL16:
 221              		.loc 1 120 0
 222 000e 5361     		str	r3, [r2, #20]
 223              		.loc 1 121 0
 224 0010 23B1     		cbz	r3, .L27
 225              		.loc 1 122 0
 226 0012 0548     		ldr	r0, .L32+4
 227 0014 4368     		ldr	r3, [r0, #4]
 228              	.LVL17:
ARM GAS  /var/folders/m4/4md61f0s1_g0rzfghffqnxvr0000gn/T//ccZRL7EU.s 			page 5


 229 0016 0321     		movs	r1, #3
 230 0018 DB69     		ldr	r3, [r3, #28]
 231 001a 9847     		blx	r3
 232              	.LVL18:
 233              	.L27:
 234              		.loc 1 125 0
 235 001c BDE80840 		pop	{r3, lr}
 236              		.cfi_restore 14
 237              		.cfi_restore 3
 238              		.cfi_def_cfa_offset 0
 239              		.loc 1 124 0
 240 0020 FFF7FEBF 		b	_port_irq_epilogue
 241              	.LVL19:
 242              	.L33:
 243              		.align	2
 244              	.L32:
 245 0024 003C0140 		.word	1073822720
 246 0028 00000000 		.word	EXTD1
 247              		.cfi_endproc
 248              	.LFE271:
 249              		.size	Vector64, .-Vector64
 250              		.section	.text.Vector68,"ax",%progbits
 251              		.align	2
 252              		.p2align 4,,15
 253              		.global	Vector68
 254              		.thumb
 255              		.thumb_func
 256              		.type	Vector68, %function
 257              	Vector68:
 258              	.LFB272:
 259              		.loc 1 132 0
 260              		.cfi_startproc
 261              		@ args = 0, pretend = 0, frame = 0
 262              		@ frame_needed = 0, uses_anonymous_args = 0
 263              		.loc 1 137 0
 264 0000 084A     		ldr	r2, .L40
 265              		.loc 1 132 0
 266 0002 08B5     		push	{r3, lr}
 267              		.cfi_def_cfa_offset 8
 268              		.cfi_offset 3, -8
 269              		.cfi_offset 14, -4
 270              		.loc 1 137 0
 271 0004 5169     		ldr	r1, [r2, #20]
 272              	.LVL20:
 273              		.loc 1 138 0
 274 0006 1368     		ldr	r3, [r2]
 275 0008 0B40     		ands	r3, r3, r1
 276 000a 03F01003 		and	r3, r3, #16
 277              	.LVL21:
 278              		.loc 1 139 0
 279 000e 5361     		str	r3, [r2, #20]
 280              		.loc 1 140 0
 281 0010 23B1     		cbz	r3, .L35
 282              		.loc 1 141 0
 283 0012 0548     		ldr	r0, .L40+4
 284 0014 4368     		ldr	r3, [r0, #4]
 285              	.LVL22:
ARM GAS  /var/folders/m4/4md61f0s1_g0rzfghffqnxvr0000gn/T//ccZRL7EU.s 			page 6


 286 0016 0421     		movs	r1, #4
 287 0018 5B6A     		ldr	r3, [r3, #36]
 288 001a 9847     		blx	r3
 289              	.LVL23:
 290              	.L35:
 291              		.loc 1 144 0
 292 001c BDE80840 		pop	{r3, lr}
 293              		.cfi_restore 14
 294              		.cfi_restore 3
 295              		.cfi_def_cfa_offset 0
 296              		.loc 1 143 0
 297 0020 FFF7FEBF 		b	_port_irq_epilogue
 298              	.LVL24:
 299              	.L41:
 300              		.align	2
 301              	.L40:
 302 0024 003C0140 		.word	1073822720
 303 0028 00000000 		.word	EXTD1
 304              		.cfi_endproc
 305              	.LFE272:
 306              		.size	Vector68, .-Vector68
 307              		.section	.text.Vector9C,"ax",%progbits
 308              		.align	2
 309              		.p2align 4,,15
 310              		.global	Vector9C
 311              		.thumb
 312              		.thumb_func
 313              		.type	Vector9C, %function
 314              	Vector9C:
 315              	.LFB273:
 316              		.loc 1 151 0
 317              		.cfi_startproc
 318              		@ args = 0, pretend = 0, frame = 0
 319              		@ frame_needed = 0, uses_anonymous_args = 0
 320              		.loc 1 156 0
 321 0000 194B     		ldr	r3, .L68
 322              		.loc 1 151 0
 323 0002 10B5     		push	{r4, lr}
 324              		.cfi_def_cfa_offset 8
 325              		.cfi_offset 4, -8
 326              		.cfi_offset 14, -4
 327              		.loc 1 156 0
 328 0004 5C69     		ldr	r4, [r3, #20]
 329              	.LVL25:
 330              		.loc 1 157 0
 331 0006 1A68     		ldr	r2, [r3]
 332 0008 1440     		ands	r4, r4, r2
 333              	.LVL26:
 334 000a 04F47872 		and	r2, r4, #992
 335              	.LVL27:
 336              		.loc 1 159 0
 337 000e 5A61     		str	r2, [r3, #20]
 338              		.loc 1 160 0
 339 0010 A306     		lsls	r3, r4, #26
 340 0012 22D4     		bmi	.L64
 341              	.LVL28:
 342              	.L43:
ARM GAS  /var/folders/m4/4md61f0s1_g0rzfghffqnxvr0000gn/T//ccZRL7EU.s 			page 7


 343              		.loc 1 162 0
 344 0014 6006     		lsls	r0, r4, #25
 345 0016 1AD4     		bmi	.L65
 346              	.L44:
 347              		.loc 1 164 0
 348 0018 2106     		lsls	r1, r4, #24
 349 001a 12D4     		bmi	.L66
 350              	.L45:
 351              		.loc 1 166 0
 352 001c E205     		lsls	r2, r4, #23
 353 001e 0AD4     		bmi	.L67
 354              	.L46:
 355              		.loc 1 168 0
 356 0020 A305     		lsls	r3, r4, #22
 357 0022 04D5     		bpl	.L47
 358              		.loc 1 169 0
 359 0024 1148     		ldr	r0, .L68+4
 360 0026 4368     		ldr	r3, [r0, #4]
 361 0028 0921     		movs	r1, #9
 362 002a DB6C     		ldr	r3, [r3, #76]
 363 002c 9847     		blx	r3
 364              	.LVL29:
 365              	.L47:
 366              		.loc 1 172 0
 367 002e BDE81040 		pop	{r4, lr}
 368              		.cfi_remember_state
 369              		.cfi_restore 14
 370              		.cfi_restore 4
 371              		.cfi_def_cfa_offset 0
 372              	.LVL30:
 373              		.loc 1 171 0
 374 0032 FFF7FEBF 		b	_port_irq_epilogue
 375              	.LVL31:
 376              	.L67:
 377              		.cfi_restore_state
 378              		.loc 1 167 0
 379 0036 0D48     		ldr	r0, .L68+4
 380 0038 4368     		ldr	r3, [r0, #4]
 381 003a 0821     		movs	r1, #8
 382 003c 5B6C     		ldr	r3, [r3, #68]
 383 003e 9847     		blx	r3
 384              	.LVL32:
 385 0040 EEE7     		b	.L46
 386              	.L66:
 387              		.loc 1 165 0
 388 0042 0A48     		ldr	r0, .L68+4
 389 0044 4368     		ldr	r3, [r0, #4]
 390 0046 0721     		movs	r1, #7
 391 0048 DB6B     		ldr	r3, [r3, #60]
 392 004a 9847     		blx	r3
 393              	.LVL33:
 394 004c E6E7     		b	.L45
 395              	.L65:
 396              		.loc 1 163 0
 397 004e 0748     		ldr	r0, .L68+4
 398 0050 4368     		ldr	r3, [r0, #4]
 399 0052 0621     		movs	r1, #6
ARM GAS  /var/folders/m4/4md61f0s1_g0rzfghffqnxvr0000gn/T//ccZRL7EU.s 			page 8


 400 0054 5B6B     		ldr	r3, [r3, #52]
 401 0056 9847     		blx	r3
 402              	.LVL34:
 403 0058 DEE7     		b	.L44
 404              	.LVL35:
 405              	.L64:
 406              		.loc 1 161 0
 407 005a 0448     		ldr	r0, .L68+4
 408 005c 4368     		ldr	r3, [r0, #4]
 409 005e 0521     		movs	r1, #5
 410 0060 DB6A     		ldr	r3, [r3, #44]
 411 0062 9847     		blx	r3
 412              	.LVL36:
 413 0064 D6E7     		b	.L43
 414              	.L69:
 415 0066 00BF     		.align	2
 416              	.L68:
 417 0068 003C0140 		.word	1073822720
 418 006c 00000000 		.word	EXTD1
 419              		.cfi_endproc
 420              	.LFE273:
 421              		.size	Vector9C, .-Vector9C
 422              		.section	.text.VectorE0,"ax",%progbits
 423              		.align	2
 424              		.p2align 4,,15
 425              		.global	VectorE0
 426              		.thumb
 427              		.thumb_func
 428              		.type	VectorE0, %function
 429              	VectorE0:
 430              	.LFB274:
 431              		.loc 1 179 0
 432              		.cfi_startproc
 433              		@ args = 0, pretend = 0, frame = 0
 434              		@ frame_needed = 0, uses_anonymous_args = 0
 435              		.loc 1 184 0
 436 0000 1D4B     		ldr	r3, .L101
 437              		.loc 1 179 0
 438 0002 10B5     		push	{r4, lr}
 439              		.cfi_def_cfa_offset 8
 440              		.cfi_offset 4, -8
 441              		.cfi_offset 14, -4
 442              		.loc 1 184 0
 443 0004 5C69     		ldr	r4, [r3, #20]
 444              	.LVL37:
 445              		.loc 1 185 0
 446 0006 1A68     		ldr	r2, [r3]
 447 0008 1440     		ands	r4, r4, r2
 448              	.LVL38:
 449 000a 04F47C42 		and	r2, r4, #64512
 450              	.LVL39:
 451              		.loc 1 187 0
 452 000e 5A61     		str	r2, [r3, #20]
 453              		.loc 1 188 0
 454 0010 6205     		lsls	r2, r4, #21
 455              	.LVL40:
 456 0012 2AD4     		bmi	.L96
ARM GAS  /var/folders/m4/4md61f0s1_g0rzfghffqnxvr0000gn/T//ccZRL7EU.s 			page 9


 457              	.LVL41:
 458              	.L71:
 459              		.loc 1 190 0
 460 0014 2305     		lsls	r3, r4, #20
 461 0016 22D4     		bmi	.L97
 462              	.L72:
 463              		.loc 1 192 0
 464 0018 E004     		lsls	r0, r4, #19
 465 001a 1AD4     		bmi	.L98
 466              	.L73:
 467              		.loc 1 194 0
 468 001c A104     		lsls	r1, r4, #18
 469 001e 12D4     		bmi	.L99
 470              	.L74:
 471              		.loc 1 196 0
 472 0020 6204     		lsls	r2, r4, #17
 473 0022 0AD4     		bmi	.L100
 474              	.L75:
 475              		.loc 1 198 0
 476 0024 2304     		lsls	r3, r4, #16
 477 0026 04D5     		bpl	.L76
 478              		.loc 1 199 0
 479 0028 1448     		ldr	r0, .L101+4
 480 002a 4368     		ldr	r3, [r0, #4]
 481 002c 0F21     		movs	r1, #15
 482 002e DB6F     		ldr	r3, [r3, #124]
 483 0030 9847     		blx	r3
 484              	.LVL42:
 485              	.L76:
 486              		.loc 1 202 0
 487 0032 BDE81040 		pop	{r4, lr}
 488              		.cfi_remember_state
 489              		.cfi_restore 14
 490              		.cfi_restore 4
 491              		.cfi_def_cfa_offset 0
 492              	.LVL43:
 493              		.loc 1 201 0
 494 0036 FFF7FEBF 		b	_port_irq_epilogue
 495              	.LVL44:
 496              	.L100:
 497              		.cfi_restore_state
 498              		.loc 1 197 0
 499 003a 1048     		ldr	r0, .L101+4
 500 003c 4368     		ldr	r3, [r0, #4]
 501 003e 0E21     		movs	r1, #14
 502 0040 5B6F     		ldr	r3, [r3, #116]
 503 0042 9847     		blx	r3
 504              	.LVL45:
 505 0044 EEE7     		b	.L75
 506              	.L99:
 507              		.loc 1 195 0
 508 0046 0D48     		ldr	r0, .L101+4
 509 0048 4368     		ldr	r3, [r0, #4]
 510 004a 0D21     		movs	r1, #13
 511 004c DB6E     		ldr	r3, [r3, #108]
 512 004e 9847     		blx	r3
 513              	.LVL46:
ARM GAS  /var/folders/m4/4md61f0s1_g0rzfghffqnxvr0000gn/T//ccZRL7EU.s 			page 10


 514 0050 E6E7     		b	.L74
 515              	.L98:
 516              		.loc 1 193 0
 517 0052 0A48     		ldr	r0, .L101+4
 518 0054 4368     		ldr	r3, [r0, #4]
 519 0056 0C21     		movs	r1, #12
 520 0058 5B6E     		ldr	r3, [r3, #100]
 521 005a 9847     		blx	r3
 522              	.LVL47:
 523 005c DEE7     		b	.L73
 524              	.L97:
 525              		.loc 1 191 0
 526 005e 0748     		ldr	r0, .L101+4
 527 0060 4368     		ldr	r3, [r0, #4]
 528 0062 0B21     		movs	r1, #11
 529 0064 DB6D     		ldr	r3, [r3, #92]
 530 0066 9847     		blx	r3
 531              	.LVL48:
 532 0068 D6E7     		b	.L72
 533              	.LVL49:
 534              	.L96:
 535              		.loc 1 189 0
 536 006a 0448     		ldr	r0, .L101+4
 537 006c 4368     		ldr	r3, [r0, #4]
 538              	.LVL50:
 539 006e 0A21     		movs	r1, #10
 540 0070 5B6D     		ldr	r3, [r3, #84]
 541 0072 9847     		blx	r3
 542              	.LVL51:
 543 0074 CEE7     		b	.L71
 544              	.L102:
 545 0076 00BF     		.align	2
 546              	.L101:
 547 0078 003C0140 		.word	1073822720
 548 007c 00000000 		.word	EXTD1
 549              		.cfi_endproc
 550              	.LFE274:
 551              		.size	VectorE0, .-VectorE0
 552              		.section	.text.Vector44,"ax",%progbits
 553              		.align	2
 554              		.p2align 4,,15
 555              		.global	Vector44
 556              		.thumb
 557              		.thumb_func
 558              		.type	Vector44, %function
 559              	Vector44:
 560              	.LFB275:
 561              		.loc 1 209 0
 562              		.cfi_startproc
 563              		@ args = 0, pretend = 0, frame = 0
 564              		@ frame_needed = 0, uses_anonymous_args = 0
 565              		.loc 1 214 0
 566 0000 084A     		ldr	r2, .L109
 567              		.loc 1 209 0
 568 0002 08B5     		push	{r3, lr}
 569              		.cfi_def_cfa_offset 8
 570              		.cfi_offset 3, -8
ARM GAS  /var/folders/m4/4md61f0s1_g0rzfghffqnxvr0000gn/T//ccZRL7EU.s 			page 11


 571              		.cfi_offset 14, -4
 572              		.loc 1 214 0
 573 0004 5369     		ldr	r3, [r2, #20]
 574              		.loc 1 215 0
 575 0006 1368     		ldr	r3, [r2]
 576 0008 03F48033 		and	r3, r3, #65536
 577              	.LVL52:
 578              		.loc 1 216 0
 579 000c 5361     		str	r3, [r2, #20]
 580              		.loc 1 217 0
 581 000e 2BB1     		cbz	r3, .L104
 582              		.loc 1 218 0
 583 0010 0548     		ldr	r0, .L109+4
 584 0012 4368     		ldr	r3, [r0, #4]
 585              	.LVL53:
 586 0014 1021     		movs	r1, #16
 587 0016 D3F88430 		ldr	r3, [r3, #132]
 588 001a 9847     		blx	r3
 589              	.LVL54:
 590              	.L104:
 591              		.loc 1 221 0
 592 001c BDE80840 		pop	{r3, lr}
 593              		.cfi_restore 14
 594              		.cfi_restore 3
 595              		.cfi_def_cfa_offset 0
 596              		.loc 1 220 0
 597 0020 FFF7FEBF 		b	_port_irq_epilogue
 598              	.LVL55:
 599              	.L110:
 600              		.align	2
 601              	.L109:
 602 0024 003C0140 		.word	1073822720
 603 0028 00000000 		.word	EXTD1
 604              		.cfi_endproc
 605              	.LFE275:
 606              		.size	Vector44, .-Vector44
 607              		.section	.text.VectorE4,"ax",%progbits
 608              		.align	2
 609              		.p2align 4,,15
 610              		.global	VectorE4
 611              		.thumb
 612              		.thumb_func
 613              		.type	VectorE4, %function
 614              	VectorE4:
 615              	.LFB276:
 616              		.loc 1 228 0
 617              		.cfi_startproc
 618              		@ args = 0, pretend = 0, frame = 0
 619              		@ frame_needed = 0, uses_anonymous_args = 0
 620              		.loc 1 233 0
 621 0000 084A     		ldr	r2, .L117
 622              		.loc 1 228 0
 623 0002 08B5     		push	{r3, lr}
 624              		.cfi_def_cfa_offset 8
 625              		.cfi_offset 3, -8
 626              		.cfi_offset 14, -4
 627              		.loc 1 233 0
ARM GAS  /var/folders/m4/4md61f0s1_g0rzfghffqnxvr0000gn/T//ccZRL7EU.s 			page 12


 628 0004 5369     		ldr	r3, [r2, #20]
 629              		.loc 1 234 0
 630 0006 1368     		ldr	r3, [r2]
 631 0008 03F40033 		and	r3, r3, #131072
 632              	.LVL56:
 633              		.loc 1 235 0
 634 000c 5361     		str	r3, [r2, #20]
 635              		.loc 1 236 0
 636 000e 2BB1     		cbz	r3, .L112
 637              		.loc 1 237 0
 638 0010 0548     		ldr	r0, .L117+4
 639 0012 4368     		ldr	r3, [r0, #4]
 640              	.LVL57:
 641 0014 1121     		movs	r1, #17
 642 0016 D3F88C30 		ldr	r3, [r3, #140]
 643 001a 9847     		blx	r3
 644              	.LVL58:
 645              	.L112:
 646              		.loc 1 240 0
 647 001c BDE80840 		pop	{r3, lr}
 648              		.cfi_restore 14
 649              		.cfi_restore 3
 650              		.cfi_def_cfa_offset 0
 651              		.loc 1 239 0
 652 0020 FFF7FEBF 		b	_port_irq_epilogue
 653              	.LVL59:
 654              	.L118:
 655              		.align	2
 656              	.L117:
 657 0024 003C0140 		.word	1073822720
 658 0028 00000000 		.word	EXTD1
 659              		.cfi_endproc
 660              	.LFE276:
 661              		.size	VectorE4, .-VectorE4
 662              		.section	.text.VectorE8,"ax",%progbits
 663              		.align	2
 664              		.p2align 4,,15
 665              		.global	VectorE8
 666              		.thumb
 667              		.thumb_func
 668              		.type	VectorE8, %function
 669              	VectorE8:
 670              	.LFB277:
 671              		.loc 1 247 0
 672              		.cfi_startproc
 673              		@ args = 0, pretend = 0, frame = 0
 674              		@ frame_needed = 0, uses_anonymous_args = 0
 675              		.loc 1 252 0
 676 0000 094A     		ldr	r2, .L125
 677              		.loc 1 247 0
 678 0002 08B5     		push	{r3, lr}
 679              		.cfi_def_cfa_offset 8
 680              		.cfi_offset 3, -8
 681              		.cfi_offset 14, -4
 682              		.loc 1 252 0
 683 0004 5169     		ldr	r1, [r2, #20]
 684              	.LVL60:
ARM GAS  /var/folders/m4/4md61f0s1_g0rzfghffqnxvr0000gn/T//ccZRL7EU.s 			page 13


 685              		.loc 1 253 0
 686 0006 1368     		ldr	r3, [r2]
 687 0008 0B40     		ands	r3, r3, r1
 688 000a 03F48023 		and	r3, r3, #262144
 689              	.LVL61:
 690              		.loc 1 254 0
 691 000e 5361     		str	r3, [r2, #20]
 692              		.loc 1 255 0
 693 0010 2BB1     		cbz	r3, .L120
 694              		.loc 1 256 0
 695 0012 0648     		ldr	r0, .L125+4
 696 0014 4368     		ldr	r3, [r0, #4]
 697              	.LVL62:
 698 0016 1221     		movs	r1, #18
 699 0018 D3F89430 		ldr	r3, [r3, #148]
 700 001c 9847     		blx	r3
 701              	.LVL63:
 702              	.L120:
 703              		.loc 1 259 0
 704 001e BDE80840 		pop	{r3, lr}
 705              		.cfi_restore 14
 706              		.cfi_restore 3
 707              		.cfi_def_cfa_offset 0
 708              		.loc 1 258 0
 709 0022 FFF7FEBF 		b	_port_irq_epilogue
 710              	.LVL64:
 711              	.L126:
 712 0026 00BF     		.align	2
 713              	.L125:
 714 0028 003C0140 		.word	1073822720
 715 002c 00000000 		.word	EXTD1
 716              		.cfi_endproc
 717              	.LFE277:
 718              		.size	VectorE8, .-VectorE8
 719              		.section	.text.Vector170,"ax",%progbits
 720              		.align	2
 721              		.p2align 4,,15
 722              		.global	Vector170
 723              		.thumb
 724              		.thumb_func
 725              		.type	Vector170, %function
 726              	Vector170:
 727              	.LFB278:
 728              		.loc 1 288 0
 729              		.cfi_startproc
 730              		@ args = 0, pretend = 0, frame = 0
 731              		@ frame_needed = 0, uses_anonymous_args = 0
 732              		.loc 1 293 0
 733 0000 094A     		ldr	r2, .L133
 734              		.loc 1 288 0
 735 0002 08B5     		push	{r3, lr}
 736              		.cfi_def_cfa_offset 8
 737              		.cfi_offset 3, -8
 738              		.cfi_offset 14, -4
 739              		.loc 1 293 0
 740 0004 5169     		ldr	r1, [r2, #20]
 741              	.LVL65:
ARM GAS  /var/folders/m4/4md61f0s1_g0rzfghffqnxvr0000gn/T//ccZRL7EU.s 			page 14


 742              		.loc 1 294 0
 743 0006 1368     		ldr	r3, [r2]
 744 0008 0B40     		ands	r3, r3, r1
 745 000a 03F48013 		and	r3, r3, #1048576
 746              	.LVL66:
 747              		.loc 1 295 0
 748 000e 5361     		str	r3, [r2, #20]
 749              		.loc 1 296 0
 750 0010 2BB1     		cbz	r3, .L128
 751              		.loc 1 297 0
 752 0012 0648     		ldr	r0, .L133+4
 753 0014 4368     		ldr	r3, [r0, #4]
 754              	.LVL67:
 755 0016 1421     		movs	r1, #20
 756 0018 D3F8A430 		ldr	r3, [r3, #164]
 757 001c 9847     		blx	r3
 758              	.LVL68:
 759              	.L128:
 760              		.loc 1 300 0
 761 001e BDE80840 		pop	{r3, lr}
 762              		.cfi_restore 14
 763              		.cfi_restore 3
 764              		.cfi_def_cfa_offset 0
 765              		.loc 1 299 0
 766 0022 FFF7FEBF 		b	_port_irq_epilogue
 767              	.LVL69:
 768              	.L134:
 769 0026 00BF     		.align	2
 770              	.L133:
 771 0028 003C0140 		.word	1073822720
 772 002c 00000000 		.word	EXTD1
 773              		.cfi_endproc
 774              	.LFE278:
 775              		.size	Vector170, .-Vector170
 776              		.section	.text.Vector48,"ax",%progbits
 777              		.align	2
 778              		.p2align 4,,15
 779              		.global	Vector48
 780              		.thumb
 781              		.thumb_func
 782              		.type	Vector48, %function
 783              	Vector48:
 784              	.LFB279:
 785              		.loc 1 309 0
 786              		.cfi_startproc
 787              		@ args = 0, pretend = 0, frame = 0
 788              		@ frame_needed = 0, uses_anonymous_args = 0
 789              		.loc 1 314 0
 790 0000 094A     		ldr	r2, .L141
 791              		.loc 1 309 0
 792 0002 08B5     		push	{r3, lr}
 793              		.cfi_def_cfa_offset 8
 794              		.cfi_offset 3, -8
 795              		.cfi_offset 14, -4
 796              		.loc 1 314 0
 797 0004 5169     		ldr	r1, [r2, #20]
 798              	.LVL70:
ARM GAS  /var/folders/m4/4md61f0s1_g0rzfghffqnxvr0000gn/T//ccZRL7EU.s 			page 15


 799              		.loc 1 315 0
 800 0006 1368     		ldr	r3, [r2]
 801 0008 0B40     		ands	r3, r3, r1
 802 000a 03F40013 		and	r3, r3, #2097152
 803              	.LVL71:
 804              		.loc 1 316 0
 805 000e 5361     		str	r3, [r2, #20]
 806              		.loc 1 317 0
 807 0010 2BB1     		cbz	r3, .L136
 808              		.loc 1 318 0
 809 0012 0648     		ldr	r0, .L141+4
 810 0014 4368     		ldr	r3, [r0, #4]
 811              	.LVL72:
 812 0016 1521     		movs	r1, #21
 813 0018 D3F8AC30 		ldr	r3, [r3, #172]
 814 001c 9847     		blx	r3
 815              	.LVL73:
 816              	.L136:
 817              		.loc 1 321 0
 818 001e BDE80840 		pop	{r3, lr}
 819              		.cfi_restore 14
 820              		.cfi_restore 3
 821              		.cfi_def_cfa_offset 0
 822              		.loc 1 320 0
 823 0022 FFF7FEBF 		b	_port_irq_epilogue
 824              	.LVL74:
 825              	.L142:
 826 0026 00BF     		.align	2
 827              	.L141:
 828 0028 003C0140 		.word	1073822720
 829 002c 00000000 		.word	EXTD1
 830              		.cfi_endproc
 831              	.LFE279:
 832              		.size	Vector48, .-Vector48
 833              		.section	.text.Vector4C,"ax",%progbits
 834              		.align	2
 835              		.p2align 4,,15
 836              		.global	Vector4C
 837              		.thumb
 838              		.thumb_func
 839              		.type	Vector4C, %function
 840              	Vector4C:
 841              	.LFB280:
 842              		.loc 1 329 0
 843              		.cfi_startproc
 844              		@ args = 0, pretend = 0, frame = 0
 845              		@ frame_needed = 0, uses_anonymous_args = 0
 846              		.loc 1 334 0
 847 0000 094A     		ldr	r2, .L149
 848              		.loc 1 329 0
 849 0002 08B5     		push	{r3, lr}
 850              		.cfi_def_cfa_offset 8
 851              		.cfi_offset 3, -8
 852              		.cfi_offset 14, -4
 853              		.loc 1 334 0
 854 0004 5169     		ldr	r1, [r2, #20]
 855              	.LVL75:
ARM GAS  /var/folders/m4/4md61f0s1_g0rzfghffqnxvr0000gn/T//ccZRL7EU.s 			page 16


 856              		.loc 1 335 0
 857 0006 1368     		ldr	r3, [r2]
 858 0008 0B40     		ands	r3, r3, r1
 859 000a 03F48003 		and	r3, r3, #4194304
 860              	.LVL76:
 861              		.loc 1 336 0
 862 000e 5361     		str	r3, [r2, #20]
 863              		.loc 1 337 0
 864 0010 2BB1     		cbz	r3, .L144
 865              		.loc 1 338 0
 866 0012 0648     		ldr	r0, .L149+4
 867 0014 4368     		ldr	r3, [r0, #4]
 868              	.LVL77:
 869 0016 1621     		movs	r1, #22
 870 0018 D3F8B430 		ldr	r3, [r3, #180]
 871 001c 9847     		blx	r3
 872              	.LVL78:
 873              	.L144:
 874              		.loc 1 341 0
 875 001e BDE80840 		pop	{r3, lr}
 876              		.cfi_restore 14
 877              		.cfi_restore 3
 878              		.cfi_def_cfa_offset 0
 879              		.loc 1 340 0
 880 0022 FFF7FEBF 		b	_port_irq_epilogue
 881              	.LVL79:
 882              	.L150:
 883 0026 00BF     		.align	2
 884              	.L149:
 885 0028 003C0140 		.word	1073822720
 886 002c 00000000 		.word	EXTD1
 887              		.cfi_endproc
 888              	.LFE280:
 889              		.size	Vector4C, .-Vector4C
 890              		.section	.text.ext_lld_exti_irq_enable,"ax",%progbits
 891              		.align	2
 892              		.p2align 4,,15
 893              		.global	ext_lld_exti_irq_enable
 894              		.thumb
 895              		.thumb_func
 896              		.type	ext_lld_exti_irq_enable, %function
 897              	ext_lld_exti_irq_enable:
 898              	.LFB281:
 899              		.loc 1 352 0
 900              		.cfi_startproc
 901              		@ args = 0, pretend = 0, frame = 0
 902              		@ frame_needed = 0, uses_anonymous_args = 0
 903              		.loc 1 354 0
 904 0000 0621     		movs	r1, #6
 905              		.loc 1 352 0
 906 0002 08B5     		push	{r3, lr}
 907              		.cfi_def_cfa_offset 8
 908              		.cfi_offset 3, -8
 909              		.cfi_offset 14, -4
 910              		.loc 1 354 0
 911 0004 0846     		mov	r0, r1
 912 0006 FFF7FEFF 		bl	nvicEnableVector
ARM GAS  /var/folders/m4/4md61f0s1_g0rzfghffqnxvr0000gn/T//ccZRL7EU.s 			page 17


 913              	.LVL80:
 914              		.loc 1 355 0
 915 000a 0621     		movs	r1, #6
 916 000c 0720     		movs	r0, #7
 917 000e FFF7FEFF 		bl	nvicEnableVector
 918              	.LVL81:
 919              		.loc 1 356 0
 920 0012 0621     		movs	r1, #6
 921 0014 0820     		movs	r0, #8
 922 0016 FFF7FEFF 		bl	nvicEnableVector
 923              	.LVL82:
 924              		.loc 1 357 0
 925 001a 0621     		movs	r1, #6
 926 001c 0920     		movs	r0, #9
 927 001e FFF7FEFF 		bl	nvicEnableVector
 928              	.LVL83:
 929              		.loc 1 358 0
 930 0022 0621     		movs	r1, #6
 931 0024 0A20     		movs	r0, #10
 932 0026 FFF7FEFF 		bl	nvicEnableVector
 933              	.LVL84:
 934              		.loc 1 359 0
 935 002a 0621     		movs	r1, #6
 936 002c 1720     		movs	r0, #23
 937 002e FFF7FEFF 		bl	nvicEnableVector
 938              	.LVL85:
 939              		.loc 1 360 0
 940 0032 0621     		movs	r1, #6
 941 0034 2820     		movs	r0, #40
 942 0036 FFF7FEFF 		bl	nvicEnableVector
 943              	.LVL86:
 944              		.loc 1 361 0
 945 003a 0621     		movs	r1, #6
 946 003c 0120     		movs	r0, #1
 947 003e FFF7FEFF 		bl	nvicEnableVector
 948              	.LVL87:
 949              		.loc 1 362 0
 950 0042 0F21     		movs	r1, #15
 951 0044 2920     		movs	r0, #41
 952 0046 FFF7FEFF 		bl	nvicEnableVector
 953              	.LVL88:
 954              		.loc 1 363 0
 955 004a 0621     		movs	r1, #6
 956 004c 2A20     		movs	r0, #42
 957 004e FFF7FEFF 		bl	nvicEnableVector
 958              	.LVL89:
 959              		.loc 1 368 0
 960 0052 0621     		movs	r1, #6
 961 0054 4C20     		movs	r0, #76
 962 0056 FFF7FEFF 		bl	nvicEnableVector
 963              	.LVL90:
 964              		.loc 1 371 0
 965 005a 0F21     		movs	r1, #15
 966 005c 0220     		movs	r0, #2
 967 005e FFF7FEFF 		bl	nvicEnableVector
 968              	.LVL91:
 969              		.loc 1 373 0
ARM GAS  /var/folders/m4/4md61f0s1_g0rzfghffqnxvr0000gn/T//ccZRL7EU.s 			page 18


 970 0062 0F21     		movs	r1, #15
 971 0064 0320     		movs	r0, #3
 972              		.loc 1 374 0
 973 0066 BDE80840 		pop	{r3, lr}
 974              		.cfi_restore 14
 975              		.cfi_restore 3
 976              		.cfi_def_cfa_offset 0
 977              		.loc 1 373 0
 978 006a FFF7FEBF 		b	nvicEnableVector
 979              	.LVL92:
 980              		.cfi_endproc
 981              	.LFE281:
 982              		.size	ext_lld_exti_irq_enable, .-ext_lld_exti_irq_enable
 983 006e 00BF     		.section	.text.ext_lld_exti_irq_disable,"ax",%progbits
 984              		.align	2
 985              		.p2align 4,,15
 986              		.global	ext_lld_exti_irq_disable
 987              		.thumb
 988              		.thumb_func
 989              		.type	ext_lld_exti_irq_disable, %function
 990              	ext_lld_exti_irq_disable:
 991              	.LFB282:
 992              		.loc 1 381 0
 993              		.cfi_startproc
 994              		@ args = 0, pretend = 0, frame = 0
 995              		@ frame_needed = 0, uses_anonymous_args = 0
 996 0000 08B5     		push	{r3, lr}
 997              		.cfi_def_cfa_offset 8
 998              		.cfi_offset 3, -8
 999              		.cfi_offset 14, -4
 1000              		.loc 1 383 0
 1001 0002 0620     		movs	r0, #6
 1002 0004 FFF7FEFF 		bl	nvicDisableVector
 1003              	.LVL93:
 1004              		.loc 1 384 0
 1005 0008 0720     		movs	r0, #7
 1006 000a FFF7FEFF 		bl	nvicDisableVector
 1007              	.LVL94:
 1008              		.loc 1 385 0
 1009 000e 0820     		movs	r0, #8
 1010 0010 FFF7FEFF 		bl	nvicDisableVector
 1011              	.LVL95:
 1012              		.loc 1 386 0
 1013 0014 0920     		movs	r0, #9
 1014 0016 FFF7FEFF 		bl	nvicDisableVector
 1015              	.LVL96:
 1016              		.loc 1 387 0
 1017 001a 0A20     		movs	r0, #10
 1018 001c FFF7FEFF 		bl	nvicDisableVector
 1019              	.LVL97:
 1020              		.loc 1 388 0
 1021 0020 1720     		movs	r0, #23
 1022 0022 FFF7FEFF 		bl	nvicDisableVector
 1023              	.LVL98:
 1024              		.loc 1 389 0
 1025 0026 2820     		movs	r0, #40
 1026 0028 FFF7FEFF 		bl	nvicDisableVector
ARM GAS  /var/folders/m4/4md61f0s1_g0rzfghffqnxvr0000gn/T//ccZRL7EU.s 			page 19


 1027              	.LVL99:
 1028              		.loc 1 390 0
 1029 002c 0120     		movs	r0, #1
 1030 002e FFF7FEFF 		bl	nvicDisableVector
 1031              	.LVL100:
 1032              		.loc 1 391 0
 1033 0032 2920     		movs	r0, #41
 1034 0034 FFF7FEFF 		bl	nvicDisableVector
 1035              	.LVL101:
 1036              		.loc 1 392 0
 1037 0038 2A20     		movs	r0, #42
 1038 003a FFF7FEFF 		bl	nvicDisableVector
 1039              	.LVL102:
 1040              		.loc 1 397 0
 1041 003e 4C20     		movs	r0, #76
 1042 0040 FFF7FEFF 		bl	nvicDisableVector
 1043              	.LVL103:
 1044              		.loc 1 400 0
 1045 0044 0220     		movs	r0, #2
 1046 0046 FFF7FEFF 		bl	nvicDisableVector
 1047              	.LVL104:
 1048              		.loc 1 402 0
 1049 004a 0320     		movs	r0, #3
 1050              		.loc 1 403 0
 1051 004c BDE80840 		pop	{r3, lr}
 1052              		.cfi_restore 14
 1053              		.cfi_restore 3
 1054              		.cfi_def_cfa_offset 0
 1055              		.loc 1 402 0
 1056 0050 FFF7FEBF 		b	nvicDisableVector
 1057              	.LVL105:
 1058              		.cfi_endproc
 1059              	.LFE282:
 1060              		.size	ext_lld_exti_irq_disable, .-ext_lld_exti_irq_disable
 1061              		.text
 1062              	.Letext0:
 1063              		.file 2 "/opt/homebrew-cask/Caskroom/gcc-arm-embedded/5_2-2015q4,20151219/gcc-arm-none-eabi-5_2-20
 1064              		.file 3 "/opt/homebrew-cask/Caskroom/gcc-arm-embedded/5_2-2015q4,20151219/gcc-arm-none-eabi-5_2-20
 1065              		.file 4 "ChibiOS_16.1.4/os/rt/ports/ARMCMx/compilers/GCC/chtypes.h"
 1066              		.file 5 "ChibiOS_16.1.4/os/rt/include/chsystypes.h"
 1067              		.file 6 "ChibiOS_16.1.4/os/rt/include/chschd.h"
 1068              		.file 7 "ChibiOS_16.1.4/os/ext/CMSIS/ST/STM32F4xx/stm32f405xx.h"
 1069              		.file 8 "ChibiOS_16.1.4/os/rt/ports/ARMCMx/chcore.h"
 1070              		.file 9 "ChibiOS_16.1.4/os/rt/ports/ARMCMx/chcore_v7m.h"
 1071              		.file 10 "ChibiOS_16.1.4/os/rt/include/chtm.h"
 1072              		.file 11 "ChibiOS_16.1.4/os/rt/include/chsem.h"
 1073              		.file 12 "ChibiOS_16.1.4/os/rt/include/chmtx.h"
 1074              		.file 13 "ChibiOS_16.1.4/os/hal/include/ext.h"
 1075              		.file 14 "ChibiOS_16.1.4/os/hal/ports/STM32/LLD/EXTIv1/ext_lld.h"
 1076              		.file 15 "ChibiOS_16.1.4/os/ext/CMSIS/include/core_cm4.h"
 1077              		.file 16 "ChibiOS_16.1.4/os/hal/ports/common/ARMCMx/nvic.h"
 1078              		.section	.debug_info,"",%progbits
 1079              	.Ldebug_info0:
 1080 0000 B3100000 		.4byte	0x10b3
 1081 0004 0400     		.2byte	0x4
 1082 0006 00000000 		.4byte	.Ldebug_abbrev0
 1083 000a 04       		.byte	0x4
ARM GAS  /var/folders/m4/4md61f0s1_g0rzfghffqnxvr0000gn/T//ccZRL7EU.s 			page 20


 1084 000b 01       		.uleb128 0x1
 1085 000c 43070000 		.4byte	.LASF228
 1086 0010 0C       		.byte	0xc
 1087 0011 04030000 		.4byte	.LASF229
 1088 0015 C4090000 		.4byte	.LASF230
 1089 0019 00000000 		.4byte	.Ldebug_ranges0+0
 1090 001d 00000000 		.4byte	0
 1091 0021 00000000 		.4byte	.Ldebug_line0
 1092 0025 02       		.uleb128 0x2
 1093 0026 04       		.byte	0x4
 1094 0027 05       		.byte	0x5
 1095 0028 696E7400 		.ascii	"int\000"
 1096 002c 03       		.uleb128 0x3
 1097 002d 04       		.byte	0x4
 1098 002e 07       		.byte	0x7
 1099 002f 58060000 		.4byte	.LASF0
 1100 0033 03       		.uleb128 0x3
 1101 0034 01       		.byte	0x1
 1102 0035 06       		.byte	0x6
 1103 0036 19020000 		.4byte	.LASF1
 1104 003a 04       		.uleb128 0x4
 1105 003b 3E010000 		.4byte	.LASF5
 1106 003f 02       		.byte	0x2
 1107 0040 1D       		.byte	0x1d
 1108 0041 45000000 		.4byte	0x45
 1109 0045 03       		.uleb128 0x3
 1110 0046 01       		.byte	0x1
 1111 0047 08       		.byte	0x8
 1112 0048 63020000 		.4byte	.LASF2
 1113 004c 03       		.uleb128 0x3
 1114 004d 02       		.byte	0x2
 1115 004e 05       		.byte	0x5
 1116 004f 440A0000 		.4byte	.LASF3
 1117 0053 03       		.uleb128 0x3
 1118 0054 02       		.byte	0x2
 1119 0055 07       		.byte	0x7
 1120 0056 4C0B0000 		.4byte	.LASF4
 1121 005a 04       		.uleb128 0x4
 1122 005b D00B0000 		.4byte	.LASF6
 1123 005f 02       		.byte	0x2
 1124 0060 3F       		.byte	0x3f
 1125 0061 65000000 		.4byte	0x65
 1126 0065 03       		.uleb128 0x3
 1127 0066 04       		.byte	0x4
 1128 0067 05       		.byte	0x5
 1129 0068 7F010000 		.4byte	.LASF7
 1130 006c 04       		.uleb128 0x4
 1131 006d 9B050000 		.4byte	.LASF8
 1132 0071 02       		.byte	0x2
 1133 0072 41       		.byte	0x41
 1134 0073 77000000 		.4byte	0x77
 1135 0077 03       		.uleb128 0x3
 1136 0078 04       		.byte	0x4
 1137 0079 07       		.byte	0x7
 1138 007a 82040000 		.4byte	.LASF9
 1139 007e 03       		.uleb128 0x3
 1140 007f 08       		.byte	0x8
ARM GAS  /var/folders/m4/4md61f0s1_g0rzfghffqnxvr0000gn/T//ccZRL7EU.s 			page 21


 1141 0080 05       		.byte	0x5
 1142 0081 B0050000 		.4byte	.LASF10
 1143 0085 04       		.uleb128 0x4
 1144 0086 62040000 		.4byte	.LASF11
 1145 008a 02       		.byte	0x2
 1146 008b 5B       		.byte	0x5b
 1147 008c 90000000 		.4byte	0x90
 1148 0090 03       		.uleb128 0x3
 1149 0091 08       		.byte	0x8
 1150 0092 07       		.byte	0x7
 1151 0093 D4080000 		.4byte	.LASF12
 1152 0097 04       		.uleb128 0x4
 1153 0098 2F020000 		.4byte	.LASF13
 1154 009c 03       		.byte	0x3
 1155 009d 14       		.byte	0x14
 1156 009e 3A000000 		.4byte	0x3a
 1157 00a2 04       		.uleb128 0x4
 1158 00a3 80000000 		.4byte	.LASF14
 1159 00a7 03       		.byte	0x3
 1160 00a8 1F       		.byte	0x1f
 1161 00a9 5A000000 		.4byte	0x5a
 1162 00ad 04       		.uleb128 0x4
 1163 00ae 160B0000 		.4byte	.LASF15
 1164 00b2 03       		.byte	0x3
 1165 00b3 20       		.byte	0x20
 1166 00b4 6C000000 		.4byte	0x6c
 1167 00b8 04       		.uleb128 0x4
 1168 00b9 4E0A0000 		.4byte	.LASF16
 1169 00bd 03       		.byte	0x3
 1170 00be 26       		.byte	0x26
 1171 00bf 85000000 		.4byte	0x85
 1172 00c3 04       		.uleb128 0x4
 1173 00c4 65060000 		.4byte	.LASF17
 1174 00c8 04       		.byte	0x4
 1175 00c9 39       		.byte	0x39
 1176 00ca AD000000 		.4byte	0xad
 1177 00ce 04       		.uleb128 0x4
 1178 00cf 8B090000 		.4byte	.LASF18
 1179 00d3 04       		.byte	0x4
 1180 00d4 3C       		.byte	0x3c
 1181 00d5 97000000 		.4byte	0x97
 1182 00d9 04       		.uleb128 0x4
 1183 00da A8010000 		.4byte	.LASF19
 1184 00de 04       		.byte	0x4
 1185 00df 3D       		.byte	0x3d
 1186 00e0 97000000 		.4byte	0x97
 1187 00e4 04       		.uleb128 0x4
 1188 00e5 D00A0000 		.4byte	.LASF20
 1189 00e9 04       		.byte	0x4
 1190 00ea 3E       		.byte	0x3e
 1191 00eb 97000000 		.4byte	0x97
 1192 00ef 04       		.uleb128 0x4
 1193 00f0 20090000 		.4byte	.LASF21
 1194 00f4 04       		.byte	0x4
 1195 00f5 3F       		.byte	0x3f
 1196 00f6 97000000 		.4byte	0x97
 1197 00fa 04       		.uleb128 0x4
ARM GAS  /var/folders/m4/4md61f0s1_g0rzfghffqnxvr0000gn/T//ccZRL7EU.s 			page 22


 1198 00fb 5E000000 		.4byte	.LASF22
 1199 00ff 04       		.byte	0x4
 1200 0100 40       		.byte	0x40
 1201 0101 AD000000 		.4byte	0xad
 1202 0105 04       		.uleb128 0x4
 1203 0106 F3080000 		.4byte	.LASF23
 1204 010a 04       		.byte	0x4
 1205 010b 41       		.byte	0x41
 1206 010c A2000000 		.4byte	0xa2
 1207 0110 04       		.uleb128 0x4
 1208 0111 37020000 		.4byte	.LASF24
 1209 0115 04       		.byte	0x4
 1210 0116 43       		.byte	0x43
 1211 0117 AD000000 		.4byte	0xad
 1212 011b 04       		.uleb128 0x4
 1213 011c 74030000 		.4byte	.LASF25
 1214 0120 04       		.byte	0x4
 1215 0121 45       		.byte	0x45
 1216 0122 A2000000 		.4byte	0xa2
 1217 0126 04       		.uleb128 0x4
 1218 0127 4E000000 		.4byte	.LASF26
 1219 012b 05       		.byte	0x5
 1220 012c 33       		.byte	0x33
 1221 012d AD000000 		.4byte	0xad
 1222 0131 04       		.uleb128 0x4
 1223 0132 0A070000 		.4byte	.LASF27
 1224 0136 05       		.byte	0x5
 1225 0137 3F       		.byte	0x3f
 1226 0138 3C010000 		.4byte	0x13c
 1227 013c 05       		.uleb128 0x5
 1228 013d E3040000 		.4byte	.LASF49
 1229 0141 48       		.byte	0x48
 1230 0142 06       		.byte	0x6
 1231 0143 C2       		.byte	0xc2
 1232 0144 41020000 		.4byte	0x241
 1233 0148 06       		.uleb128 0x6
 1234 0149 88010000 		.4byte	.LASF28
 1235 014d 06       		.byte	0x6
 1236 014e C3       		.byte	0xc3
 1237 014f 4C020000 		.4byte	0x24c
 1238 0153 00       		.byte	0
 1239 0154 06       		.uleb128 0x6
 1240 0155 8F010000 		.4byte	.LASF29
 1241 0159 06       		.byte	0x6
 1242 015a C5       		.byte	0xc5
 1243 015b 4C020000 		.4byte	0x24c
 1244 015f 04       		.byte	0x4
 1245 0160 06       		.uleb128 0x6
 1246 0161 FD020000 		.4byte	.LASF30
 1247 0165 06       		.byte	0x6
 1248 0166 C7       		.byte	0xc7
 1249 0167 FA000000 		.4byte	0xfa
 1250 016b 08       		.byte	0x8
 1251 016c 06       		.uleb128 0x6
 1252 016d 58000000 		.4byte	.LASF31
 1253 0171 06       		.byte	0x6
 1254 0172 C8       		.byte	0xc8
ARM GAS  /var/folders/m4/4md61f0s1_g0rzfghffqnxvr0000gn/T//ccZRL7EU.s 			page 23


 1255 0173 F5060000 		.4byte	0x6f5
 1256 0177 0C       		.byte	0xc
 1257 0178 06       		.uleb128 0x6
 1258 0179 77010000 		.4byte	.LASF32
 1259 017d 06       		.byte	0x6
 1260 017e CA       		.byte	0xca
 1261 017f 4C020000 		.4byte	0x24c
 1262 0183 10       		.byte	0x10
 1263 0184 06       		.uleb128 0x6
 1264 0185 EB080000 		.4byte	.LASF33
 1265 0189 06       		.byte	0x6
 1266 018a CB       		.byte	0xcb
 1267 018b 4C020000 		.4byte	0x24c
 1268 018f 14       		.byte	0x14
 1269 0190 06       		.uleb128 0x6
 1270 0191 E40B0000 		.4byte	.LASF34
 1271 0195 06       		.byte	0x6
 1272 0196 D2       		.byte	0xd2
 1273 0197 43090000 		.4byte	0x943
 1274 019b 18       		.byte	0x18
 1275 019c 06       		.uleb128 0x6
 1276 019d 180C0000 		.4byte	.LASF35
 1277 01a1 06       		.byte	0x6
 1278 01a2 DD       		.byte	0xdd
 1279 01a3 D9000000 		.4byte	0xd9
 1280 01a7 1C       		.byte	0x1c
 1281 01a8 06       		.uleb128 0x6
 1282 01a9 38060000 		.4byte	.LASF36
 1283 01ad 06       		.byte	0x6
 1284 01ae E1       		.byte	0xe1
 1285 01af CE000000 		.4byte	0xce
 1286 01b3 1D       		.byte	0x1d
 1287 01b4 06       		.uleb128 0x6
 1288 01b5 82060000 		.4byte	.LASF37
 1289 01b9 06       		.byte	0x6
 1290 01ba E6       		.byte	0xe6
 1291 01bb E4000000 		.4byte	0xe4
 1292 01bf 1E       		.byte	0x1e
 1293 01c0 06       		.uleb128 0x6
 1294 01c1 25020000 		.4byte	.LASF38
 1295 01c5 06       		.byte	0x6
 1296 01c6 EC       		.byte	0xec
 1297 01c7 EF000000 		.4byte	0xef
 1298 01cb 1F       		.byte	0x1f
 1299 01cc 06       		.uleb128 0x6
 1300 01cd DD060000 		.4byte	.LASF39
 1301 01d1 06       		.byte	0x6
 1302 01d2 F3       		.byte	0xf3
 1303 01d3 55090000 		.4byte	0x955
 1304 01d7 20       		.byte	0x20
 1305 01d8 07       		.uleb128 0x7
 1306 01d9 705F7500 		.ascii	"p_u\000"
 1307 01dd 06       		.byte	0x6
 1308 01de 3101     		.2byte	0x131
 1309 01e0 7E080000 		.4byte	0x87e
 1310 01e4 24       		.byte	0x24
 1311 01e5 08       		.uleb128 0x8
ARM GAS  /var/folders/m4/4md61f0s1_g0rzfghffqnxvr0000gn/T//ccZRL7EU.s 			page 24


 1312 01e6 1D060000 		.4byte	.LASF40
 1313 01ea 06       		.byte	0x6
 1314 01eb 3601     		.2byte	0x136
 1315 01ed 52020000 		.4byte	0x252
 1316 01f1 28       		.byte	0x28
 1317 01f2 08       		.uleb128 0x8
 1318 01f3 6F000000 		.4byte	.LASF41
 1319 01f7 06       		.byte	0x6
 1320 01f8 3C01     		.2byte	0x13c
 1321 01fa 76020000 		.4byte	0x276
 1322 01fe 2C       		.byte	0x2c
 1323 01ff 08       		.uleb128 0x8
 1324 0200 120C0000 		.4byte	.LASF42
 1325 0204 06       		.byte	0x6
 1326 0205 4001     		.2byte	0x140
 1327 0207 05010000 		.4byte	0x105
 1328 020b 34       		.byte	0x34
 1329 020c 08       		.uleb128 0x8
 1330 020d 8F030000 		.4byte	.LASF43
 1331 0211 06       		.byte	0x6
 1332 0212 4601     		.2byte	0x146
 1333 0214 10010000 		.4byte	0x110
 1334 0218 38       		.byte	0x38
 1335 0219 08       		.uleb128 0x8
 1336 021a C1010000 		.4byte	.LASF44
 1337 021e 06       		.byte	0x6
 1338 021f 4D01     		.2byte	0x14d
 1339 0221 3D090000 		.4byte	0x93d
 1340 0225 3C       		.byte	0x3c
 1341 0226 08       		.uleb128 0x8
 1342 0227 38070000 		.4byte	.LASF45
 1343 022b 06       		.byte	0x6
 1344 022c 5101     		.2byte	0x151
 1345 022e FA000000 		.4byte	0xfa
 1346 0232 40       		.byte	0x40
 1347 0233 08       		.uleb128 0x8
 1348 0234 6D060000 		.4byte	.LASF46
 1349 0238 06       		.byte	0x6
 1350 0239 5801     		.2byte	0x158
 1351 023b 29030000 		.4byte	0x329
 1352 023f 44       		.byte	0x44
 1353 0240 00       		.byte	0
 1354 0241 04       		.uleb128 0x4
 1355 0242 25070000 		.4byte	.LASF47
 1356 0246 05       		.byte	0x5
 1357 0247 44       		.byte	0x44
 1358 0248 4C020000 		.4byte	0x24c
 1359 024c 09       		.uleb128 0x9
 1360 024d 04       		.byte	0x4
 1361 024e 31010000 		.4byte	0x131
 1362 0252 04       		.uleb128 0x4
 1363 0253 EC0A0000 		.4byte	.LASF48
 1364 0257 05       		.byte	0x5
 1365 0258 49       		.byte	0x49
 1366 0259 5D020000 		.4byte	0x25d
 1367 025d 05       		.uleb128 0x5
 1368 025e 5F050000 		.4byte	.LASF50
ARM GAS  /var/folders/m4/4md61f0s1_g0rzfghffqnxvr0000gn/T//ccZRL7EU.s 			page 25


 1369 0262 04       		.byte	0x4
 1370 0263 06       		.byte	0x6
 1371 0264 B0       		.byte	0xb0
 1372 0265 76020000 		.4byte	0x276
 1373 0269 06       		.uleb128 0x6
 1374 026a 88010000 		.4byte	.LASF28
 1375 026e 06       		.byte	0x6
 1376 026f B1       		.byte	0xb1
 1377 0270 4C020000 		.4byte	0x24c
 1378 0274 00       		.byte	0
 1379 0275 00       		.byte	0
 1380 0276 04       		.uleb128 0x4
 1381 0277 B1010000 		.4byte	.LASF51
 1382 027b 05       		.byte	0x5
 1383 027c 50       		.byte	0x50
 1384 027d 81020000 		.4byte	0x281
 1385 0281 05       		.uleb128 0x5
 1386 0282 F9080000 		.4byte	.LASF52
 1387 0286 08       		.byte	0x8
 1388 0287 06       		.byte	0x6
 1389 0288 B7       		.byte	0xb7
 1390 0289 A6020000 		.4byte	0x2a6
 1391 028d 06       		.uleb128 0x6
 1392 028e 88010000 		.4byte	.LASF28
 1393 0292 06       		.byte	0x6
 1394 0293 B8       		.byte	0xb8
 1395 0294 4C020000 		.4byte	0x24c
 1396 0298 00       		.byte	0
 1397 0299 06       		.uleb128 0x6
 1398 029a 8F010000 		.4byte	.LASF29
 1399 029e 06       		.byte	0x6
 1400 029f B9       		.byte	0xb9
 1401 02a0 4C020000 		.4byte	0x24c
 1402 02a4 04       		.byte	0x4
 1403 02a5 00       		.byte	0
 1404 02a6 04       		.uleb128 0x4
 1405 02a7 3C050000 		.4byte	.LASF53
 1406 02ab 05       		.byte	0x5
 1407 02ac 57       		.byte	0x57
 1408 02ad B1020000 		.4byte	0x2b1
 1409 02b1 0A       		.uleb128 0xa
 1410 02b2 A1030000 		.4byte	.LASF54
 1411 02b6 1C       		.byte	0x1c
 1412 02b7 06       		.byte	0x6
 1413 02b8 9001     		.2byte	0x190
 1414 02ba 0D030000 		.4byte	0x30d
 1415 02be 08       		.uleb128 0x8
 1416 02bf 5F090000 		.4byte	.LASF55
 1417 02c3 06       		.byte	0x6
 1418 02c4 9101     		.2byte	0x191
 1419 02c6 76020000 		.4byte	0x276
 1420 02ca 00       		.byte	0
 1421 02cb 08       		.uleb128 0x8
 1422 02cc 6E0A0000 		.4byte	.LASF56
 1423 02d0 06       		.byte	0x6
 1424 02d1 9201     		.2byte	0x192
 1425 02d3 FA000000 		.4byte	0xfa
ARM GAS  /var/folders/m4/4md61f0s1_g0rzfghffqnxvr0000gn/T//ccZRL7EU.s 			page 26


 1426 02d7 08       		.byte	0x8
 1427 02d8 08       		.uleb128 0x8
 1428 02d9 7A000000 		.4byte	.LASF57
 1429 02dd 06       		.byte	0x6
 1430 02de 9401     		.2byte	0x194
 1431 02e0 F5060000 		.4byte	0x6f5
 1432 02e4 0C       		.byte	0xc
 1433 02e5 08       		.uleb128 0x8
 1434 02e6 B3020000 		.4byte	.LASF58
 1435 02ea 06       		.byte	0x6
 1436 02eb 9701     		.2byte	0x197
 1437 02ed 4C020000 		.4byte	0x24c
 1438 02f1 10       		.byte	0x10
 1439 02f2 08       		.uleb128 0x8
 1440 02f3 230A0000 		.4byte	.LASF59
 1441 02f7 06       		.byte	0x6
 1442 02f8 9801     		.2byte	0x198
 1443 02fa 4C020000 		.4byte	0x24c
 1444 02fe 14       		.byte	0x14
 1445 02ff 08       		.uleb128 0x8
 1446 0300 33090000 		.4byte	.LASF60
 1447 0304 06       		.byte	0x6
 1448 0305 9B01     		.2byte	0x19b
 1449 0307 4C020000 		.4byte	0x24c
 1450 030b 18       		.byte	0x18
 1451 030c 00       		.byte	0
 1452 030d 04       		.uleb128 0x4
 1453 030e 91000000 		.4byte	.LASF61
 1454 0312 05       		.byte	0x5
 1455 0313 5C       		.byte	0x5c
 1456 0314 18030000 		.4byte	0x318
 1457 0318 09       		.uleb128 0x9
 1458 0319 04       		.byte	0x4
 1459 031a 1E030000 		.4byte	0x31e
 1460 031e 0B       		.uleb128 0xb
 1461 031f 29030000 		.4byte	0x329
 1462 0323 0C       		.uleb128 0xc
 1463 0324 29030000 		.4byte	0x329
 1464 0328 00       		.byte	0
 1465 0329 0D       		.uleb128 0xd
 1466 032a 04       		.byte	0x4
 1467 032b 04       		.uleb128 0x4
 1468 032c 2C050000 		.4byte	.LASF62
 1469 0330 05       		.byte	0x5
 1470 0331 61       		.byte	0x61
 1471 0332 36030000 		.4byte	0x336
 1472 0336 0A       		.uleb128 0xa
 1473 0337 92080000 		.4byte	.LASF63
 1474 033b 14       		.byte	0x14
 1475 033c 06       		.byte	0x6
 1476 033d 6B01     		.2byte	0x16b
 1477 033f 85030000 		.4byte	0x385
 1478 0343 08       		.uleb128 0x8
 1479 0344 DD050000 		.4byte	.LASF64
 1480 0348 06       		.byte	0x6
 1481 0349 6C01     		.2byte	0x16c
 1482 034b 5A090000 		.4byte	0x95a
ARM GAS  /var/folders/m4/4md61f0s1_g0rzfghffqnxvr0000gn/T//ccZRL7EU.s 			page 27


 1483 034f 00       		.byte	0
 1484 0350 08       		.uleb128 0x8
 1485 0351 F5050000 		.4byte	.LASF65
 1486 0355 06       		.byte	0x6
 1487 0356 6D01     		.2byte	0x16d
 1488 0358 5A090000 		.4byte	0x95a
 1489 035c 04       		.byte	0x4
 1490 035d 08       		.uleb128 0x8
 1491 035e 71080000 		.4byte	.LASF66
 1492 0362 06       		.byte	0x6
 1493 0363 6E01     		.2byte	0x16e
 1494 0365 26010000 		.4byte	0x126
 1495 0369 08       		.byte	0x8
 1496 036a 08       		.uleb128 0x8
 1497 036b 87030000 		.4byte	.LASF67
 1498 036f 06       		.byte	0x6
 1499 0370 6F01     		.2byte	0x16f
 1500 0372 0D030000 		.4byte	0x30d
 1501 0376 0C       		.byte	0xc
 1502 0377 08       		.uleb128 0x8
 1503 0378 2E010000 		.4byte	.LASF68
 1504 037c 06       		.byte	0x6
 1505 037d 7101     		.2byte	0x171
 1506 037f 29030000 		.4byte	0x329
 1507 0383 10       		.byte	0x10
 1508 0384 00       		.byte	0
 1509 0385 04       		.uleb128 0x4
 1510 0386 FB040000 		.4byte	.LASF69
 1511 038a 05       		.byte	0x5
 1512 038b 66       		.byte	0x66
 1513 038c 90030000 		.4byte	0x390
 1514 0390 0A       		.uleb128 0xa
 1515 0391 9A000000 		.4byte	.LASF70
 1516 0395 10       		.byte	0x10
 1517 0396 06       		.byte	0x6
 1518 0397 7B01     		.2byte	0x17b
 1519 0399 D2030000 		.4byte	0x3d2
 1520 039d 08       		.uleb128 0x8
 1521 039e DD050000 		.4byte	.LASF64
 1522 03a2 06       		.byte	0x6
 1523 03a3 7C01     		.2byte	0x17c
 1524 03a5 5A090000 		.4byte	0x95a
 1525 03a9 00       		.byte	0
 1526 03aa 08       		.uleb128 0x8
 1527 03ab F5050000 		.4byte	.LASF65
 1528 03af 06       		.byte	0x6
 1529 03b0 7E01     		.2byte	0x17e
 1530 03b2 5A090000 		.4byte	0x95a
 1531 03b6 04       		.byte	0x4
 1532 03b7 08       		.uleb128 0x8
 1533 03b8 71080000 		.4byte	.LASF66
 1534 03bc 06       		.byte	0x6
 1535 03bd 8001     		.2byte	0x180
 1536 03bf 26010000 		.4byte	0x126
 1537 03c3 08       		.byte	0x8
 1538 03c4 08       		.uleb128 0x8
 1539 03c5 0B0A0000 		.4byte	.LASF71
ARM GAS  /var/folders/m4/4md61f0s1_g0rzfghffqnxvr0000gn/T//ccZRL7EU.s 			page 28


 1540 03c9 06       		.byte	0x6
 1541 03ca 8201     		.2byte	0x182
 1542 03cc 55090000 		.4byte	0x955
 1543 03d0 0C       		.byte	0xc
 1544 03d1 00       		.byte	0
 1545 03d2 04       		.uleb128 0x4
 1546 03d3 BB020000 		.4byte	.LASF72
 1547 03d7 05       		.byte	0x5
 1548 03d8 6B       		.byte	0x6b
 1549 03d9 DD030000 		.4byte	0x3dd
 1550 03dd 0A       		.uleb128 0xa
 1551 03de 870A0000 		.4byte	.LASF73
 1552 03e2 04       		.byte	0x4
 1553 03e3 06       		.byte	0x6
 1554 03e4 A201     		.2byte	0x1a2
 1555 03e6 F8030000 		.4byte	0x3f8
 1556 03ea 08       		.uleb128 0x8
 1557 03eb 9C020000 		.4byte	.LASF74
 1558 03ef 06       		.byte	0x6
 1559 03f0 AA01     		.2byte	0x1aa
 1560 03f2 60090000 		.4byte	0x960
 1561 03f6 00       		.byte	0
 1562 03f7 00       		.byte	0
 1563 03f8 04       		.uleb128 0x4
 1564 03f9 760B0000 		.4byte	.LASF75
 1565 03fd 05       		.byte	0x5
 1566 03fe 70       		.byte	0x70
 1567 03ff 03040000 		.4byte	0x403
 1568 0403 0E       		.uleb128 0xe
 1569 0404 FB0A0000 		.4byte	.LASF76
 1570 0408 5802     		.2byte	0x258
 1571 040a 06       		.byte	0x6
 1572 040b C201     		.2byte	0x1c2
 1573 040d 5F040000 		.4byte	0x45f
 1574 0411 08       		.uleb128 0x8
 1575 0412 85090000 		.4byte	.LASF77
 1576 0416 06       		.byte	0x6
 1577 0417 C601     		.2byte	0x1c6
 1578 0419 A6020000 		.4byte	0x2a6
 1579 041d 00       		.byte	0
 1580 041e 08       		.uleb128 0x8
 1581 041f B70A0000 		.4byte	.LASF78
 1582 0423 06       		.byte	0x6
 1583 0424 CA01     		.2byte	0x1ca
 1584 0426 85030000 		.4byte	0x385
 1585 042a 1C       		.byte	0x1c
 1586 042b 07       		.uleb128 0x7
 1587 042c 64626700 		.ascii	"dbg\000"
 1588 0430 06       		.byte	0x6
 1589 0431 CE01     		.2byte	0x1ce
 1590 0433 D2030000 		.4byte	0x3d2
 1591 0437 2C       		.byte	0x2c
 1592 0438 08       		.uleb128 0x8
 1593 0439 54090000 		.4byte	.LASF79
 1594 043d 06       		.byte	0x6
 1595 043e D201     		.2byte	0x1d2
 1596 0440 31010000 		.4byte	0x131
ARM GAS  /var/folders/m4/4md61f0s1_g0rzfghffqnxvr0000gn/T//ccZRL7EU.s 			page 29


 1597 0444 30       		.byte	0x30
 1598 0445 07       		.uleb128 0x7
 1599 0446 746D00   		.ascii	"tm\000"
 1600 0449 06       		.byte	0x6
 1601 044a D701     		.2byte	0x1d7
 1602 044c 73080000 		.4byte	0x873
 1603 0450 78       		.byte	0x78
 1604 0451 08       		.uleb128 0x8
 1605 0452 49060000 		.4byte	.LASF80
 1606 0456 06       		.byte	0x6
 1607 0457 E301     		.2byte	0x1e3
 1608 0459 65090000 		.4byte	0x965
 1609 045d 80       		.byte	0x80
 1610 045e 00       		.byte	0
 1611 045f 0F       		.uleb128 0xf
 1612 0460 01       		.byte	0x1
 1613 0461 33000000 		.4byte	0x33
 1614 0465 07       		.byte	0x7
 1615 0466 56       		.byte	0x56
 1616 0467 70060000 		.4byte	0x670
 1617 046b 10       		.uleb128 0x10
 1618 046c 4E040000 		.4byte	.LASF81
 1619 0470 72       		.sleb128 -14
 1620 0471 10       		.uleb128 0x10
 1621 0472 9D040000 		.4byte	.LASF82
 1622 0476 74       		.sleb128 -12
 1623 0477 10       		.uleb128 0x10
 1624 0478 6F050000 		.4byte	.LASF83
 1625 047c 75       		.sleb128 -11
 1626 047d 10       		.uleb128 0x10
 1627 047e E8020000 		.4byte	.LASF84
 1628 0482 76       		.sleb128 -10
 1629 0483 10       		.uleb128 0x10
 1630 0484 FD050000 		.4byte	.LASF85
 1631 0488 7B       		.sleb128 -5
 1632 0489 10       		.uleb128 0x10
 1633 048a F9090000 		.4byte	.LASF86
 1634 048e 7C       		.sleb128 -4
 1635 048f 10       		.uleb128 0x10
 1636 0490 9F0B0000 		.4byte	.LASF87
 1637 0494 7E       		.sleb128 -2
 1638 0495 10       		.uleb128 0x10
 1639 0496 F5010000 		.4byte	.LASF88
 1640 049a 7F       		.sleb128 -1
 1641 049b 11       		.uleb128 0x11
 1642 049c 78040000 		.4byte	.LASF89
 1643 04a0 00       		.byte	0
 1644 04a1 11       		.uleb128 0x11
 1645 04a2 67090000 		.4byte	.LASF90
 1646 04a6 01       		.byte	0x1
 1647 04a7 11       		.uleb128 0x11
 1648 04a8 C9040000 		.4byte	.LASF91
 1649 04ac 02       		.byte	0x2
 1650 04ad 11       		.uleb128 0x11
 1651 04ae 00000000 		.4byte	.LASF92
 1652 04b2 03       		.byte	0x3
 1653 04b3 11       		.uleb128 0x11
ARM GAS  /var/folders/m4/4md61f0s1_g0rzfghffqnxvr0000gn/T//ccZRL7EU.s 			page 30


 1654 04b4 D4000000 		.4byte	.LASF93
 1655 04b8 04       		.byte	0x4
 1656 04b9 11       		.uleb128 0x11
 1657 04ba 570A0000 		.4byte	.LASF94
 1658 04be 05       		.byte	0x5
 1659 04bf 11       		.uleb128 0x11
 1660 04c0 7A090000 		.4byte	.LASF95
 1661 04c4 06       		.byte	0x6
 1662 04c5 11       		.uleb128 0x11
 1663 04c6 E5030000 		.4byte	.LASF96
 1664 04ca 07       		.byte	0x7
 1665 04cb 11       		.uleb128 0x11
 1666 04cc 0E000000 		.4byte	.LASF97
 1667 04d0 08       		.byte	0x8
 1668 04d1 11       		.uleb128 0x11
 1669 04d2 940B0000 		.4byte	.LASF98
 1670 04d6 09       		.byte	0x9
 1671 04d7 11       		.uleb128 0x11
 1672 04d8 410B0000 		.4byte	.LASF99
 1673 04dc 0A       		.byte	0xa
 1674 04dd 11       		.uleb128 0x11
 1675 04de 7A080000 		.4byte	.LASF100
 1676 04e2 0B       		.byte	0xb
 1677 04e3 11       		.uleb128 0x11
 1678 04e4 A3060000 		.4byte	.LASF101
 1679 04e8 0C       		.byte	0xc
 1680 04e9 11       		.uleb128 0x11
 1681 04ea 51020000 		.4byte	.LASF102
 1682 04ee 0D       		.byte	0xd
 1683 04ef 11       		.uleb128 0x11
 1684 04f0 750A0000 		.4byte	.LASF103
 1685 04f4 0E       		.byte	0xe
 1686 04f5 11       		.uleb128 0x11
 1687 04f6 93090000 		.4byte	.LASF104
 1688 04fa 0F       		.byte	0xf
 1689 04fb 11       		.uleb128 0x11
 1690 04fc 06040000 		.4byte	.LASF105
 1691 0500 10       		.byte	0x10
 1692 0501 11       		.uleb128 0x11
 1693 0502 19000000 		.4byte	.LASF106
 1694 0506 11       		.byte	0x11
 1695 0507 11       		.uleb128 0x11
 1696 0508 4B090000 		.4byte	.LASF107
 1697 050c 12       		.byte	0x12
 1698 050d 11       		.uleb128 0x11
 1699 050e F9030000 		.4byte	.LASF108
 1700 0512 13       		.byte	0x13
 1701 0513 11       		.uleb128 0x11
 1702 0514 45030000 		.4byte	.LASF109
 1703 0518 14       		.byte	0x14
 1704 0519 11       		.uleb128 0x11
 1705 051a 1F0B0000 		.4byte	.LASF110
 1706 051e 15       		.byte	0x15
 1707 051f 11       		.uleb128 0x11
 1708 0520 ED040000 		.4byte	.LASF111
 1709 0524 16       		.byte	0x16
 1710 0525 11       		.uleb128 0x11
ARM GAS  /var/folders/m4/4md61f0s1_g0rzfghffqnxvr0000gn/T//ccZRL7EU.s 			page 31


 1711 0526 2D0B0000 		.4byte	.LASF112
 1712 052a 17       		.byte	0x17
 1713 052b 11       		.uleb128 0x11
 1714 052c 88050000 		.4byte	.LASF113
 1715 0530 18       		.byte	0x18
 1716 0531 11       		.uleb128 0x11
 1717 0532 970A0000 		.4byte	.LASF114
 1718 0536 19       		.byte	0x19
 1719 0537 11       		.uleb128 0x11
 1720 0538 CB010000 		.4byte	.LASF115
 1721 053c 1A       		.byte	0x1a
 1722 053d 11       		.uleb128 0x11
 1723 053e CA030000 		.4byte	.LASF116
 1724 0542 1B       		.byte	0x1b
 1725 0543 11       		.uleb128 0x11
 1726 0544 EC000000 		.4byte	.LASF117
 1727 0548 1C       		.byte	0x1c
 1728 0549 11       		.uleb128 0x11
 1729 054a 0A090000 		.4byte	.LASF118
 1730 054e 1D       		.byte	0x1d
 1731 054f 11       		.uleb128 0x11
 1732 0550 5E030000 		.4byte	.LASF119
 1733 0554 1E       		.byte	0x1e
 1734 0555 11       		.uleb128 0x11
 1735 0556 7A030000 		.4byte	.LASF120
 1736 055a 1F       		.byte	0x1f
 1737 055b 11       		.uleb128 0x11
 1738 055c A6020000 		.4byte	.LASF121
 1739 0560 20       		.byte	0x20
 1740 0561 11       		.uleb128 0x11
 1741 0562 75060000 		.4byte	.LASF122
 1742 0566 21       		.byte	0x21
 1743 0567 11       		.uleb128 0x11
 1744 0568 52050000 		.4byte	.LASF123
 1745 056c 22       		.byte	0x22
 1746 056d 11       		.uleb128 0x11
 1747 056e E5050000 		.4byte	.LASF124
 1748 0572 23       		.byte	0x23
 1749 0573 11       		.uleb128 0x11
 1750 0574 59010000 		.4byte	.LASF125
 1751 0578 24       		.byte	0x24
 1752 0579 11       		.uleb128 0x11
 1753 057a 14090000 		.4byte	.LASF126
 1754 057e 25       		.byte	0x25
 1755 057f 11       		.uleb128 0x11
 1756 0580 68030000 		.4byte	.LASF127
 1757 0584 26       		.byte	0x26
 1758 0585 11       		.uleb128 0x11
 1759 0586 02020000 		.4byte	.LASF128
 1760 058a 27       		.byte	0x27
 1761 058b 11       		.uleb128 0x11
 1762 058c C5080000 		.4byte	.LASF129
 1763 0590 28       		.byte	0x28
 1764 0591 11       		.uleb128 0x11
 1765 0592 A3080000 		.4byte	.LASF130
 1766 0596 29       		.byte	0x29
 1767 0597 11       		.uleb128 0x11
ARM GAS  /var/folders/m4/4md61f0s1_g0rzfghffqnxvr0000gn/T//ccZRL7EU.s 			page 32


 1768 0598 27060000 		.4byte	.LASF131
 1769 059c 2A       		.byte	0x2a
 1770 059d 11       		.uleb128 0x11
 1771 059e 63010000 		.4byte	.LASF132
 1772 05a2 2B       		.byte	0x2b
 1773 05a3 11       		.uleb128 0x11
 1774 05a4 2B000000 		.4byte	.LASF133
 1775 05a8 2C       		.byte	0x2c
 1776 05a9 11       		.uleb128 0x11
 1777 05aa 18040000 		.4byte	.LASF134
 1778 05ae 2D       		.byte	0x2d
 1779 05af 11       		.uleb128 0x11
 1780 05b0 5F0B0000 		.4byte	.LASF135
 1781 05b4 2E       		.byte	0x2e
 1782 05b5 11       		.uleb128 0x11
 1783 05b6 BE0B0000 		.4byte	.LASF136
 1784 05ba 2F       		.byte	0x2f
 1785 05bb 11       		.uleb128 0x11
 1786 05bc 70090000 		.4byte	.LASF137
 1787 05c0 30       		.byte	0x30
 1788 05c1 11       		.uleb128 0x11
 1789 05c2 6C0B0000 		.4byte	.LASF138
 1790 05c6 31       		.byte	0x31
 1791 05c7 11       		.uleb128 0x11
 1792 05c8 DE020000 		.4byte	.LASF139
 1793 05cc 32       		.byte	0x32
 1794 05cd 11       		.uleb128 0x11
 1795 05ce CA000000 		.4byte	.LASF140
 1796 05d2 33       		.byte	0x33
 1797 05d3 11       		.uleb128 0x11
 1798 05d4 12060000 		.4byte	.LASF141
 1799 05d8 34       		.byte	0x34
 1800 05d9 11       		.uleb128 0x11
 1801 05da 7D050000 		.4byte	.LASF142
 1802 05de 35       		.byte	0x35
 1803 05df 11       		.uleb128 0x11
 1804 05e0 F20B0000 		.4byte	.LASF143
 1805 05e4 36       		.byte	0x36
 1806 05e5 11       		.uleb128 0x11
 1807 05e6 A6050000 		.4byte	.LASF144
 1808 05ea 37       		.byte	0x37
 1809 05eb 11       		.uleb128 0x11
 1810 05ec 11050000 		.4byte	.LASF145
 1811 05f0 38       		.byte	0x38
 1812 05f1 11       		.uleb128 0x11
 1813 05f2 B8000000 		.4byte	.LASF146
 1814 05f6 39       		.byte	0x39
 1815 05f7 11       		.uleb128 0x11
 1816 05f8 000C0000 		.4byte	.LASF147
 1817 05fc 3A       		.byte	0x3a
 1818 05fd 11       		.uleb128 0x11
 1819 05fe B5060000 		.4byte	.LASF148
 1820 0602 3B       		.byte	0x3b
 1821 0603 11       		.uleb128 0x11
 1822 0604 71020000 		.4byte	.LASF149
 1823 0608 3C       		.byte	0x3c
 1824 0609 11       		.uleb128 0x11
ARM GAS  /var/folders/m4/4md61f0s1_g0rzfghffqnxvr0000gn/T//ccZRL7EU.s 			page 33


 1825 060a C7060000 		.4byte	.LASF150
 1826 060e 3F       		.byte	0x3f
 1827 060f 11       		.uleb128 0x11
 1828 0610 0C010000 		.4byte	.LASF151
 1829 0614 40       		.byte	0x40
 1830 0615 11       		.uleb128 0x11
 1831 0616 3D090000 		.4byte	.LASF152
 1832 061a 41       		.byte	0x41
 1833 061b 11       		.uleb128 0x11
 1834 061c CA020000 		.4byte	.LASF153
 1835 0620 42       		.byte	0x42
 1836 0621 11       		.uleb128 0x11
 1837 0622 42040000 		.4byte	.LASF154
 1838 0626 43       		.byte	0x43
 1839 0627 11       		.uleb128 0x11
 1840 0628 96010000 		.4byte	.LASF155
 1841 062c 44       		.byte	0x44
 1842 062d 11       		.uleb128 0x11
 1843 062e B2090000 		.4byte	.LASF156
 1844 0632 45       		.byte	0x45
 1845 0633 11       		.uleb128 0x11
 1846 0634 30040000 		.4byte	.LASF157
 1847 0638 46       		.byte	0x46
 1848 0639 11       		.uleb128 0x11
 1849 063a 1A010000 		.4byte	.LASF158
 1850 063e 47       		.byte	0x47
 1851 063f 11       		.uleb128 0x11
 1852 0640 160A0000 		.4byte	.LASF159
 1853 0644 48       		.byte	0x48
 1854 0645 11       		.uleb128 0x11
 1855 0646 B8080000 		.4byte	.LASF160
 1856 064a 49       		.byte	0x49
 1857 064b 11       		.uleb128 0x11
 1858 064c D80A0000 		.4byte	.LASF161
 1859 0650 4A       		.byte	0x4a
 1860 0651 11       		.uleb128 0x11
 1861 0652 AB0B0000 		.4byte	.LASF162
 1862 0656 4B       		.byte	0x4b
 1863 0657 11       		.uleb128 0x11
 1864 0658 48010000 		.4byte	.LASF163
 1865 065c 4C       		.byte	0x4c
 1866 065d 11       		.uleb128 0x11
 1867 065e BE050000 		.4byte	.LASF164
 1868 0662 4D       		.byte	0x4d
 1869 0663 11       		.uleb128 0x11
 1870 0664 D7030000 		.4byte	.LASF165
 1871 0668 50       		.byte	0x50
 1872 0669 11       		.uleb128 0x11
 1873 066a 09060000 		.4byte	.LASF166
 1874 066e 51       		.byte	0x51
 1875 066f 00       		.byte	0
 1876 0670 03       		.uleb128 0x3
 1877 0671 04       		.byte	0x4
 1878 0672 07       		.byte	0x7
 1879 0673 3E000000 		.4byte	.LASF167
 1880 0677 12       		.uleb128 0x12
 1881 0678 AD000000 		.4byte	0xad
ARM GAS  /var/folders/m4/4md61f0s1_g0rzfghffqnxvr0000gn/T//ccZRL7EU.s 			page 34


 1882 067c 13       		.uleb128 0x13
 1883 067d 18       		.byte	0x18
 1884 067e 07       		.byte	0x7
 1885 067f 6D01     		.2byte	0x16d
 1886 0681 D3060000 		.4byte	0x6d3
 1887 0685 07       		.uleb128 0x7
 1888 0686 494D5200 		.ascii	"IMR\000"
 1889 068a 07       		.byte	0x7
 1890 068b 6F01     		.2byte	0x16f
 1891 068d 77060000 		.4byte	0x677
 1892 0691 00       		.byte	0
 1893 0692 07       		.uleb128 0x7
 1894 0693 454D5200 		.ascii	"EMR\000"
 1895 0697 07       		.byte	0x7
 1896 0698 7001     		.2byte	0x170
 1897 069a 77060000 		.4byte	0x677
 1898 069e 04       		.byte	0x4
 1899 069f 08       		.uleb128 0x8
 1900 06a0 E3010000 		.4byte	.LASF168
 1901 06a4 07       		.byte	0x7
 1902 06a5 7101     		.2byte	0x171
 1903 06a7 77060000 		.4byte	0x677
 1904 06ab 08       		.byte	0x8
 1905 06ac 08       		.uleb128 0x8
 1906 06ad 07010000 		.4byte	.LASF169
 1907 06b1 07       		.byte	0x7
 1908 06b2 7201     		.2byte	0x172
 1909 06b4 77060000 		.4byte	0x677
 1910 06b8 0C       		.byte	0xc
 1911 06b9 08       		.uleb128 0x8
 1912 06ba 8C080000 		.4byte	.LASF170
 1913 06be 07       		.byte	0x7
 1914 06bf 7301     		.2byte	0x173
 1915 06c1 77060000 		.4byte	0x677
 1916 06c5 10       		.byte	0x10
 1917 06c6 07       		.uleb128 0x7
 1918 06c7 505200   		.ascii	"PR\000"
 1919 06ca 07       		.byte	0x7
 1920 06cb 7401     		.2byte	0x174
 1921 06cd 77060000 		.4byte	0x677
 1922 06d1 14       		.byte	0x14
 1923 06d2 00       		.byte	0
 1924 06d3 14       		.uleb128 0x14
 1925 06d4 E8010000 		.4byte	.LASF171
 1926 06d8 07       		.byte	0x7
 1927 06d9 7501     		.2byte	0x175
 1928 06db 7C060000 		.4byte	0x67c
 1929 06df 04       		.uleb128 0x4
 1930 06e0 D4060000 		.4byte	.LASF172
 1931 06e4 08       		.byte	0x8
 1932 06e5 65       		.byte	0x65
 1933 06e6 29030000 		.4byte	0x329
 1934 06ea 04       		.uleb128 0x4
 1935 06eb 53030000 		.4byte	.LASF173
 1936 06ef 08       		.byte	0x8
 1937 06f0 6D       		.byte	0x6d
 1938 06f1 B8000000 		.4byte	0xb8
ARM GAS  /var/folders/m4/4md61f0s1_g0rzfghffqnxvr0000gn/T//ccZRL7EU.s 			page 35


 1939 06f5 05       		.uleb128 0x5
 1940 06f6 43020000 		.4byte	.LASF174
 1941 06fa 04       		.byte	0x4
 1942 06fb 08       		.byte	0x8
 1943 06fc 89       		.byte	0x89
 1944 06fd 0E070000 		.4byte	0x70e
 1945 0701 15       		.uleb128 0x15
 1946 0702 72313300 		.ascii	"r13\000"
 1947 0706 08       		.byte	0x8
 1948 0707 8A       		.byte	0x8a
 1949 0708 58080000 		.4byte	0x858
 1950 070c 00       		.byte	0
 1951 070d 00       		.byte	0
 1952 070e 05       		.uleb128 0x5
 1953 070f 65080000 		.4byte	.LASF175
 1954 0713 64       		.byte	0x64
 1955 0714 09       		.byte	0x9
 1956 0715 FD       		.byte	0xfd
 1957 0716 58080000 		.4byte	0x858
 1958 071a 15       		.uleb128 0x15
 1959 071b 73313600 		.ascii	"s16\000"
 1960 071f 09       		.byte	0x9
 1961 0720 FF       		.byte	0xff
 1962 0721 DF060000 		.4byte	0x6df
 1963 0725 00       		.byte	0
 1964 0726 07       		.uleb128 0x7
 1965 0727 73313700 		.ascii	"s17\000"
 1966 072b 09       		.byte	0x9
 1967 072c 0001     		.2byte	0x100
 1968 072e DF060000 		.4byte	0x6df
 1969 0732 04       		.byte	0x4
 1970 0733 07       		.uleb128 0x7
 1971 0734 73313800 		.ascii	"s18\000"
 1972 0738 09       		.byte	0x9
 1973 0739 0101     		.2byte	0x101
 1974 073b DF060000 		.4byte	0x6df
 1975 073f 08       		.byte	0x8
 1976 0740 07       		.uleb128 0x7
 1977 0741 73313900 		.ascii	"s19\000"
 1978 0745 09       		.byte	0x9
 1979 0746 0201     		.2byte	0x102
 1980 0748 DF060000 		.4byte	0x6df
 1981 074c 0C       		.byte	0xc
 1982 074d 07       		.uleb128 0x7
 1983 074e 73323000 		.ascii	"s20\000"
 1984 0752 09       		.byte	0x9
 1985 0753 0301     		.2byte	0x103
 1986 0755 DF060000 		.4byte	0x6df
 1987 0759 10       		.byte	0x10
 1988 075a 07       		.uleb128 0x7
 1989 075b 73323100 		.ascii	"s21\000"
 1990 075f 09       		.byte	0x9
 1991 0760 0401     		.2byte	0x104
 1992 0762 DF060000 		.4byte	0x6df
 1993 0766 14       		.byte	0x14
 1994 0767 07       		.uleb128 0x7
 1995 0768 73323200 		.ascii	"s22\000"
ARM GAS  /var/folders/m4/4md61f0s1_g0rzfghffqnxvr0000gn/T//ccZRL7EU.s 			page 36


 1996 076c 09       		.byte	0x9
 1997 076d 0501     		.2byte	0x105
 1998 076f DF060000 		.4byte	0x6df
 1999 0773 18       		.byte	0x18
 2000 0774 07       		.uleb128 0x7
 2001 0775 73323300 		.ascii	"s23\000"
 2002 0779 09       		.byte	0x9
 2003 077a 0601     		.2byte	0x106
 2004 077c DF060000 		.4byte	0x6df
 2005 0780 1C       		.byte	0x1c
 2006 0781 07       		.uleb128 0x7
 2007 0782 73323400 		.ascii	"s24\000"
 2008 0786 09       		.byte	0x9
 2009 0787 0701     		.2byte	0x107
 2010 0789 DF060000 		.4byte	0x6df
 2011 078d 20       		.byte	0x20
 2012 078e 07       		.uleb128 0x7
 2013 078f 73323500 		.ascii	"s25\000"
 2014 0793 09       		.byte	0x9
 2015 0794 0801     		.2byte	0x108
 2016 0796 DF060000 		.4byte	0x6df
 2017 079a 24       		.byte	0x24
 2018 079b 07       		.uleb128 0x7
 2019 079c 73323600 		.ascii	"s26\000"
 2020 07a0 09       		.byte	0x9
 2021 07a1 0901     		.2byte	0x109
 2022 07a3 DF060000 		.4byte	0x6df
 2023 07a7 28       		.byte	0x28
 2024 07a8 07       		.uleb128 0x7
 2025 07a9 73323700 		.ascii	"s27\000"
 2026 07ad 09       		.byte	0x9
 2027 07ae 0A01     		.2byte	0x10a
 2028 07b0 DF060000 		.4byte	0x6df
 2029 07b4 2C       		.byte	0x2c
 2030 07b5 07       		.uleb128 0x7
 2031 07b6 73323800 		.ascii	"s28\000"
 2032 07ba 09       		.byte	0x9
 2033 07bb 0B01     		.2byte	0x10b
 2034 07bd DF060000 		.4byte	0x6df
 2035 07c1 30       		.byte	0x30
 2036 07c2 07       		.uleb128 0x7
 2037 07c3 73323900 		.ascii	"s29\000"
 2038 07c7 09       		.byte	0x9
 2039 07c8 0C01     		.2byte	0x10c
 2040 07ca DF060000 		.4byte	0x6df
 2041 07ce 34       		.byte	0x34
 2042 07cf 07       		.uleb128 0x7
 2043 07d0 73333000 		.ascii	"s30\000"
 2044 07d4 09       		.byte	0x9
 2045 07d5 0D01     		.2byte	0x10d
 2046 07d7 DF060000 		.4byte	0x6df
 2047 07db 38       		.byte	0x38
 2048 07dc 07       		.uleb128 0x7
 2049 07dd 73333100 		.ascii	"s31\000"
 2050 07e1 09       		.byte	0x9
 2051 07e2 0E01     		.2byte	0x10e
 2052 07e4 DF060000 		.4byte	0x6df
ARM GAS  /var/folders/m4/4md61f0s1_g0rzfghffqnxvr0000gn/T//ccZRL7EU.s 			page 37


 2053 07e8 3C       		.byte	0x3c
 2054 07e9 07       		.uleb128 0x7
 2055 07ea 723400   		.ascii	"r4\000"
 2056 07ed 09       		.byte	0x9
 2057 07ee 1001     		.2byte	0x110
 2058 07f0 DF060000 		.4byte	0x6df
 2059 07f4 40       		.byte	0x40
 2060 07f5 07       		.uleb128 0x7
 2061 07f6 723500   		.ascii	"r5\000"
 2062 07f9 09       		.byte	0x9
 2063 07fa 1101     		.2byte	0x111
 2064 07fc DF060000 		.4byte	0x6df
 2065 0800 44       		.byte	0x44
 2066 0801 07       		.uleb128 0x7
 2067 0802 723600   		.ascii	"r6\000"
 2068 0805 09       		.byte	0x9
 2069 0806 1201     		.2byte	0x112
 2070 0808 DF060000 		.4byte	0x6df
 2071 080c 48       		.byte	0x48
 2072 080d 07       		.uleb128 0x7
 2073 080e 723700   		.ascii	"r7\000"
 2074 0811 09       		.byte	0x9
 2075 0812 1301     		.2byte	0x113
 2076 0814 DF060000 		.4byte	0x6df
 2077 0818 4C       		.byte	0x4c
 2078 0819 07       		.uleb128 0x7
 2079 081a 723800   		.ascii	"r8\000"
 2080 081d 09       		.byte	0x9
 2081 081e 1401     		.2byte	0x114
 2082 0820 DF060000 		.4byte	0x6df
 2083 0824 50       		.byte	0x50
 2084 0825 07       		.uleb128 0x7
 2085 0826 723900   		.ascii	"r9\000"
 2086 0829 09       		.byte	0x9
 2087 082a 1501     		.2byte	0x115
 2088 082c DF060000 		.4byte	0x6df
 2089 0830 54       		.byte	0x54
 2090 0831 07       		.uleb128 0x7
 2091 0832 72313000 		.ascii	"r10\000"
 2092 0836 09       		.byte	0x9
 2093 0837 1601     		.2byte	0x116
 2094 0839 DF060000 		.4byte	0x6df
 2095 083d 58       		.byte	0x58
 2096 083e 07       		.uleb128 0x7
 2097 083f 72313100 		.ascii	"r11\000"
 2098 0843 09       		.byte	0x9
 2099 0844 1701     		.2byte	0x117
 2100 0846 DF060000 		.4byte	0x6df
 2101 084a 5C       		.byte	0x5c
 2102 084b 07       		.uleb128 0x7
 2103 084c 6C7200   		.ascii	"lr\000"
 2104 084f 09       		.byte	0x9
 2105 0850 1801     		.2byte	0x118
 2106 0852 DF060000 		.4byte	0x6df
 2107 0856 60       		.byte	0x60
 2108 0857 00       		.byte	0
 2109 0858 09       		.uleb128 0x9
ARM GAS  /var/folders/m4/4md61f0s1_g0rzfghffqnxvr0000gn/T//ccZRL7EU.s 			page 38


 2110 0859 04       		.byte	0x4
 2111 085a 0E070000 		.4byte	0x70e
 2112 085e 16       		.uleb128 0x16
 2113 085f 04       		.byte	0x4
 2114 0860 0A       		.byte	0xa
 2115 0861 38       		.byte	0x38
 2116 0862 73080000 		.4byte	0x873
 2117 0866 06       		.uleb128 0x6
 2118 0867 9C060000 		.4byte	.LASF176
 2119 086b 0A       		.byte	0xa
 2120 086c 3C       		.byte	0x3c
 2121 086d C3000000 		.4byte	0xc3
 2122 0871 00       		.byte	0
 2123 0872 00       		.byte	0
 2124 0873 04       		.uleb128 0x4
 2125 0874 2B0A0000 		.4byte	.LASF177
 2126 0878 0A       		.byte	0xa
 2127 0879 3D       		.byte	0x3d
 2128 087a 5E080000 		.4byte	0x85e
 2129 087e 17       		.uleb128 0x17
 2130 087f 04       		.byte	0x4
 2131 0880 06       		.byte	0x6
 2132 0881 FA       		.byte	0xfa
 2133 0882 DB080000 		.4byte	0x8db
 2134 0886 18       		.uleb128 0x18
 2135 0887 3A0B0000 		.4byte	.LASF178
 2136 088b 06       		.byte	0x6
 2137 088c 0101     		.2byte	0x101
 2138 088e 05010000 		.4byte	0x105
 2139 0892 18       		.uleb128 0x18
 2140 0893 35010000 		.4byte	.LASF179
 2141 0897 06       		.byte	0x6
 2142 0898 0801     		.2byte	0x108
 2143 089a 05010000 		.4byte	0x105
 2144 089e 18       		.uleb128 0x18
 2145 089f 3E030000 		.4byte	.LASF180
 2146 08a3 06       		.byte	0x6
 2147 08a4 0F01     		.2byte	0x10f
 2148 08a6 29030000 		.4byte	0x329
 2149 08aa 18       		.uleb128 0x18
 2150 08ab 4B020000 		.4byte	.LASF181
 2151 08af 06       		.byte	0x6
 2152 08b0 1601     		.2byte	0x116
 2153 08b2 DB080000 		.4byte	0x8db
 2154 08b6 18       		.uleb128 0x18
 2155 08b7 47000000 		.4byte	.LASF182
 2156 08bb 06       		.byte	0x6
 2157 08bc 1E01     		.2byte	0x11e
 2158 08be 06090000 		.4byte	0x906
 2159 08c2 18       		.uleb128 0x18
 2160 08c3 9A030000 		.4byte	.LASF183
 2161 08c7 06       		.byte	0x6
 2162 08c8 2701     		.2byte	0x127
 2163 08ca 3D090000 		.4byte	0x93d
 2164 08ce 18       		.uleb128 0x18
 2165 08cf B1000000 		.4byte	.LASF184
 2166 08d3 06       		.byte	0x6
ARM GAS  /var/folders/m4/4md61f0s1_g0rzfghffqnxvr0000gn/T//ccZRL7EU.s 			page 39


 2167 08d4 2F01     		.2byte	0x12f
 2168 08d6 10010000 		.4byte	0x110
 2169 08da 00       		.byte	0
 2170 08db 09       		.uleb128 0x9
 2171 08dc 04       		.byte	0x4
 2172 08dd 41020000 		.4byte	0x241
 2173 08e1 05       		.uleb128 0x5
 2174 08e2 BC040000 		.4byte	.LASF185
 2175 08e6 0C       		.byte	0xc
 2176 08e7 0B       		.byte	0xb
 2177 08e8 34       		.byte	0x34
 2178 08e9 06090000 		.4byte	0x906
 2179 08ed 06       		.uleb128 0x6
 2180 08ee 3C0A0000 		.4byte	.LASF186
 2181 08f2 0B       		.byte	0xb
 2182 08f3 35       		.byte	0x35
 2183 08f4 76020000 		.4byte	0x276
 2184 08f8 00       		.byte	0
 2185 08f9 06       		.uleb128 0x6
 2186 08fa B2080000 		.4byte	.LASF187
 2187 08fe 0B       		.byte	0xb
 2188 08ff 37       		.byte	0x37
 2189 0900 1B010000 		.4byte	0x11b
 2190 0904 08       		.byte	0x8
 2191 0905 00       		.byte	0
 2192 0906 09       		.uleb128 0x9
 2193 0907 04       		.byte	0x4
 2194 0908 E1080000 		.4byte	0x8e1
 2195 090c 05       		.uleb128 0x5
 2196 090d 650A0000 		.4byte	.LASF188
 2197 0911 10       		.byte	0x10
 2198 0912 0C       		.byte	0xc
 2199 0913 39       		.byte	0x39
 2200 0914 3D090000 		.4byte	0x93d
 2201 0918 06       		.uleb128 0x6
 2202 0919 CA050000 		.4byte	.LASF189
 2203 091d 0C       		.byte	0xc
 2204 091e 3A       		.byte	0x3a
 2205 091f 76020000 		.4byte	0x276
 2206 0923 00       		.byte	0
 2207 0924 06       		.uleb128 0x6
 2208 0925 26010000 		.4byte	.LASF190
 2209 0929 0C       		.byte	0xc
 2210 092a 3C       		.byte	0x3c
 2211 092b 4C020000 		.4byte	0x24c
 2212 092f 08       		.byte	0x8
 2213 0930 06       		.uleb128 0x6
 2214 0931 EB0B0000 		.4byte	.LASF191
 2215 0935 0C       		.byte	0xc
 2216 0936 3E       		.byte	0x3e
 2217 0937 80090000 		.4byte	0x980
 2218 093b 0C       		.byte	0xc
 2219 093c 00       		.byte	0
 2220 093d 09       		.uleb128 0x9
 2221 093e 04       		.byte	0x4
 2222 093f 0C090000 		.4byte	0x90c
 2223 0943 09       		.uleb128 0x9
ARM GAS  /var/folders/m4/4md61f0s1_g0rzfghffqnxvr0000gn/T//ccZRL7EU.s 			page 40


 2224 0944 04       		.byte	0x4
 2225 0945 50090000 		.4byte	0x950
 2226 0949 03       		.uleb128 0x3
 2227 094a 01       		.byte	0x1
 2228 094b 08       		.byte	0x8
 2229 094c F8020000 		.4byte	.LASF192
 2230 0950 19       		.uleb128 0x19
 2231 0951 49090000 		.4byte	0x949
 2232 0955 12       		.uleb128 0x12
 2233 0956 26010000 		.4byte	0x126
 2234 095a 09       		.uleb128 0x9
 2235 095b 04       		.byte	0x4
 2236 095c 2B030000 		.4byte	0x32b
 2237 0960 12       		.uleb128 0x12
 2238 0961 43090000 		.4byte	0x943
 2239 0965 1A       		.uleb128 0x1a
 2240 0966 EA060000 		.4byte	0x6ea
 2241 096a 75090000 		.4byte	0x975
 2242 096e 1B       		.uleb128 0x1b
 2243 096f 70060000 		.4byte	0x670
 2244 0973 3A       		.byte	0x3a
 2245 0974 00       		.byte	0
 2246 0975 04       		.uleb128 0x4
 2247 0976 C80A0000 		.4byte	.LASF193
 2248 097a 0C       		.byte	0xc
 2249 097b 34       		.byte	0x34
 2250 097c 0C090000 		.4byte	0x90c
 2251 0980 09       		.uleb128 0x9
 2252 0981 04       		.byte	0x4
 2253 0982 75090000 		.4byte	0x975
 2254 0986 03       		.uleb128 0x3
 2255 0987 01       		.byte	0x1
 2256 0988 02       		.byte	0x2
 2257 0989 D8020000 		.4byte	.LASF194
 2258 098d 0F       		.uleb128 0xf
 2259 098e 01       		.byte	0x1
 2260 098f 45000000 		.4byte	0x45
 2261 0993 0D       		.byte	0xd
 2262 0994 3F       		.byte	0x3f
 2263 0995 AC090000 		.4byte	0x9ac
 2264 0999 11       		.uleb128 0x11
 2265 099a 6D040000 		.4byte	.LASF195
 2266 099e 00       		.byte	0
 2267 099f 11       		.uleb128 0x11
 2268 09a0 AF030000 		.4byte	.LASF196
 2269 09a4 01       		.byte	0x1
 2270 09a5 11       		.uleb128 0x11
 2271 09a6 D2050000 		.4byte	.LASF197
 2272 09aa 02       		.byte	0x2
 2273 09ab 00       		.byte	0
 2274 09ac 04       		.uleb128 0x4
 2275 09ad 0E020000 		.4byte	.LASF198
 2276 09b1 0D       		.byte	0xd
 2277 09b2 43       		.byte	0x43
 2278 09b3 8D090000 		.4byte	0x98d
 2279 09b7 04       		.uleb128 0x4
 2280 09b8 DA0B0000 		.4byte	.LASF199
ARM GAS  /var/folders/m4/4md61f0s1_g0rzfghffqnxvr0000gn/T//ccZRL7EU.s 			page 41


 2281 09bc 0D       		.byte	0xd
 2282 09bd 48       		.byte	0x48
 2283 09be C2090000 		.4byte	0x9c2
 2284 09c2 05       		.uleb128 0x5
 2285 09c3 DA0B0000 		.4byte	.LASF199
 2286 09c7 08       		.byte	0x8
 2287 09c8 0E       		.byte	0xe
 2288 09c9 73       		.byte	0x73
 2289 09ca E7090000 		.4byte	0x9e7
 2290 09ce 06       		.uleb128 0x6
 2291 09cf E6000000 		.4byte	.LASF200
 2292 09d3 0E       		.byte	0xe
 2293 09d4 77       		.byte	0x77
 2294 09d5 AC090000 		.4byte	0x9ac
 2295 09d9 00       		.byte	0
 2296 09da 06       		.uleb128 0x6
 2297 09db DF000000 		.4byte	.LASF201
 2298 09df 0E       		.byte	0xe
 2299 09e0 7B       		.byte	0x7b
 2300 09e1 740A0000 		.4byte	0xa74
 2301 09e5 04       		.byte	0x4
 2302 09e6 00       		.byte	0
 2303 09e7 04       		.uleb128 0x4
 2304 09e8 A5090000 		.4byte	.LASF202
 2305 09ec 0E       		.byte	0xe
 2306 09ed 49       		.byte	0x49
 2307 09ee AD000000 		.4byte	0xad
 2308 09f2 04       		.uleb128 0x4
 2309 09f3 FC060000 		.4byte	.LASF203
 2310 09f7 0E       		.byte	0xe
 2311 09f8 51       		.byte	0x51
 2312 09f9 FD090000 		.4byte	0x9fd
 2313 09fd 09       		.uleb128 0x9
 2314 09fe 04       		.byte	0x4
 2315 09ff 030A0000 		.4byte	0xa03
 2316 0a03 0B       		.uleb128 0xb
 2317 0a04 130A0000 		.4byte	0xa13
 2318 0a08 0C       		.uleb128 0xc
 2319 0a09 130A0000 		.4byte	0xa13
 2320 0a0d 0C       		.uleb128 0xc
 2321 0a0e E7090000 		.4byte	0x9e7
 2322 0a12 00       		.byte	0
 2323 0a13 09       		.uleb128 0x9
 2324 0a14 04       		.byte	0x4
 2325 0a15 B7090000 		.4byte	0x9b7
 2326 0a19 16       		.uleb128 0x16
 2327 0a1a 08       		.byte	0x8
 2328 0a1b 0E       		.byte	0xe
 2329 0a1c 56       		.byte	0x56
 2330 0a1d 390A0000 		.4byte	0xa39
 2331 0a21 06       		.uleb128 0x6
 2332 0a22 600A0000 		.4byte	.LASF204
 2333 0a26 0E       		.byte	0xe
 2334 0a27 5A       		.byte	0x5a
 2335 0a28 AD000000 		.4byte	0xad
 2336 0a2c 00       		.byte	0
 2337 0a2d 15       		.uleb128 0x15
ARM GAS  /var/folders/m4/4md61f0s1_g0rzfghffqnxvr0000gn/T//ccZRL7EU.s 			page 42


 2338 0a2e 636200   		.ascii	"cb\000"
 2339 0a31 0E       		.byte	0xe
 2340 0a32 61       		.byte	0x61
 2341 0a33 F2090000 		.4byte	0x9f2
 2342 0a37 04       		.byte	0x4
 2343 0a38 00       		.byte	0
 2344 0a39 04       		.uleb128 0x4
 2345 0a3a F6000000 		.4byte	.LASF205
 2346 0a3e 0E       		.byte	0xe
 2347 0a3f 62       		.byte	0x62
 2348 0a40 190A0000 		.4byte	0xa19
 2349 0a44 16       		.uleb128 0x16
 2350 0a45 B8       		.byte	0xb8
 2351 0a46 0E       		.byte	0xe
 2352 0a47 68       		.byte	0x68
 2353 0a48 590A0000 		.4byte	0xa59
 2354 0a4c 06       		.uleb128 0x6
 2355 0a4d 2A090000 		.4byte	.LASF206
 2356 0a51 0E       		.byte	0xe
 2357 0a52 6C       		.byte	0x6c
 2358 0a53 590A0000 		.4byte	0xa59
 2359 0a57 00       		.byte	0
 2360 0a58 00       		.byte	0
 2361 0a59 1A       		.uleb128 0x1a
 2362 0a5a 390A0000 		.4byte	0xa39
 2363 0a5e 690A0000 		.4byte	0xa69
 2364 0a62 1B       		.uleb128 0x1b
 2365 0a63 70060000 		.4byte	0x670
 2366 0a67 16       		.byte	0x16
 2367 0a68 00       		.byte	0
 2368 0a69 04       		.uleb128 0x4
 2369 0a6a D9040000 		.4byte	.LASF207
 2370 0a6e 0E       		.byte	0xe
 2371 0a6f 6E       		.byte	0x6e
 2372 0a70 440A0000 		.4byte	0xa44
 2373 0a74 09       		.uleb128 0x9
 2374 0a75 04       		.byte	0x4
 2375 0a76 7A0A0000 		.4byte	0xa7a
 2376 0a7a 19       		.uleb128 0x19
 2377 0a7b 690A0000 		.4byte	0xa69
 2378 0a7f 1C       		.uleb128 0x1c
 2379 0a80 94040000 		.4byte	.LASF208
 2380 0a84 01       		.byte	0x1
 2381 0a85 38       		.byte	0x38
 2382 0a86 00000000 		.4byte	.LFB268
 2383 0a8a 2C000000 		.4byte	.LFE268-.LFB268
 2384 0a8e 01       		.uleb128 0x1
 2385 0a8f 9C       		.byte	0x9c
 2386 0a90 BB0A0000 		.4byte	0xabb
 2387 0a94 1D       		.uleb128 0x1d
 2388 0a95 707200   		.ascii	"pr\000"
 2389 0a98 01       		.byte	0x1
 2390 0a99 39       		.byte	0x39
 2391 0a9a AD000000 		.4byte	0xad
 2392 0a9e 00000000 		.4byte	.LLST0
 2393 0aa2 1E       		.uleb128 0x1e
 2394 0aa3 1C000000 		.4byte	.LVL3
ARM GAS  /var/folders/m4/4md61f0s1_g0rzfghffqnxvr0000gn/T//ccZRL7EU.s 			page 43


 2395 0aa7 B10A0000 		.4byte	0xab1
 2396 0aab 1F       		.uleb128 0x1f
 2397 0aac 01       		.uleb128 0x1
 2398 0aad 51       		.byte	0x51
 2399 0aae 01       		.uleb128 0x1
 2400 0aaf 30       		.byte	0x30
 2401 0ab0 00       		.byte	0
 2402 0ab1 20       		.uleb128 0x20
 2403 0ab2 24000000 		.4byte	.LVL4
 2404 0ab6 94100000 		.4byte	0x1094
 2405 0aba 00       		.byte	0
 2406 0abb 1C       		.uleb128 0x1c
 2407 0abc B3040000 		.4byte	.LASF209
 2408 0ac0 01       		.byte	0x1
 2409 0ac1 4B       		.byte	0x4b
 2410 0ac2 00000000 		.4byte	.LFB269
 2411 0ac6 2C000000 		.4byte	.LFE269-.LFB269
 2412 0aca 01       		.uleb128 0x1
 2413 0acb 9C       		.byte	0x9c
 2414 0acc F70A0000 		.4byte	0xaf7
 2415 0ad0 1D       		.uleb128 0x1d
 2416 0ad1 707200   		.ascii	"pr\000"
 2417 0ad4 01       		.byte	0x1
 2418 0ad5 4C       		.byte	0x4c
 2419 0ad6 AD000000 		.4byte	0xad
 2420 0ada 2A000000 		.4byte	.LLST1
 2421 0ade 1E       		.uleb128 0x1e
 2422 0adf 1C000000 		.4byte	.LVL8
 2423 0ae3 ED0A0000 		.4byte	0xaed
 2424 0ae7 1F       		.uleb128 0x1f
 2425 0ae8 01       		.uleb128 0x1
 2426 0ae9 51       		.byte	0x51
 2427 0aea 01       		.uleb128 0x1
 2428 0aeb 31       		.byte	0x31
 2429 0aec 00       		.byte	0
 2430 0aed 20       		.uleb128 0x20
 2431 0aee 24000000 		.4byte	.LVL9
 2432 0af2 94100000 		.4byte	0x1094
 2433 0af6 00       		.byte	0
 2434 0af7 1C       		.uleb128 0x1c
 2435 0af8 23050000 		.4byte	.LASF210
 2436 0afc 01       		.byte	0x1
 2437 0afd 5E       		.byte	0x5e
 2438 0afe 00000000 		.4byte	.LFB270
 2439 0b02 2C000000 		.4byte	.LFE270-.LFB270
 2440 0b06 01       		.uleb128 0x1
 2441 0b07 9C       		.byte	0x9c
 2442 0b08 330B0000 		.4byte	0xb33
 2443 0b0c 1D       		.uleb128 0x1d
 2444 0b0d 707200   		.ascii	"pr\000"
 2445 0b10 01       		.byte	0x1
 2446 0b11 5F       		.byte	0x5f
 2447 0b12 AD000000 		.4byte	0xad
 2448 0b16 54000000 		.4byte	.LLST2
 2449 0b1a 1E       		.uleb128 0x1e
 2450 0b1b 1C000000 		.4byte	.LVL13
 2451 0b1f 290B0000 		.4byte	0xb29
ARM GAS  /var/folders/m4/4md61f0s1_g0rzfghffqnxvr0000gn/T//ccZRL7EU.s 			page 44


 2452 0b23 1F       		.uleb128 0x1f
 2453 0b24 01       		.uleb128 0x1
 2454 0b25 51       		.byte	0x51
 2455 0b26 01       		.uleb128 0x1
 2456 0b27 32       		.byte	0x32
 2457 0b28 00       		.byte	0
 2458 0b29 20       		.uleb128 0x20
 2459 0b2a 24000000 		.4byte	.LVL14
 2460 0b2e 94100000 		.4byte	0x1094
 2461 0b32 00       		.byte	0
 2462 0b33 1C       		.uleb128 0x1c
 2463 0b34 88000000 		.4byte	.LASF211
 2464 0b38 01       		.byte	0x1
 2465 0b39 71       		.byte	0x71
 2466 0b3a 00000000 		.4byte	.LFB271
 2467 0b3e 2C000000 		.4byte	.LFE271-.LFB271
 2468 0b42 01       		.uleb128 0x1
 2469 0b43 9C       		.byte	0x9c
 2470 0b44 6F0B0000 		.4byte	0xb6f
 2471 0b48 1D       		.uleb128 0x1d
 2472 0b49 707200   		.ascii	"pr\000"
 2473 0b4c 01       		.byte	0x1
 2474 0b4d 72       		.byte	0x72
 2475 0b4e AD000000 		.4byte	0xad
 2476 0b52 7E000000 		.4byte	.LLST3
 2477 0b56 1E       		.uleb128 0x1e
 2478 0b57 1C000000 		.4byte	.LVL18
 2479 0b5b 650B0000 		.4byte	0xb65
 2480 0b5f 1F       		.uleb128 0x1f
 2481 0b60 01       		.uleb128 0x1
 2482 0b61 51       		.byte	0x51
 2483 0b62 01       		.uleb128 0x1
 2484 0b63 33       		.byte	0x33
 2485 0b64 00       		.byte	0
 2486 0b65 20       		.uleb128 0x20
 2487 0b66 24000000 		.4byte	.LVL19
 2488 0b6a 94100000 		.4byte	0x1094
 2489 0b6e 00       		.byte	0
 2490 0b6f 1C       		.uleb128 0x1c
 2491 0b70 49050000 		.4byte	.LASF212
 2492 0b74 01       		.byte	0x1
 2493 0b75 84       		.byte	0x84
 2494 0b76 00000000 		.4byte	.LFB272
 2495 0b7a 2C000000 		.4byte	.LFE272-.LFB272
 2496 0b7e 01       		.uleb128 0x1
 2497 0b7f 9C       		.byte	0x9c
 2498 0b80 AB0B0000 		.4byte	0xbab
 2499 0b84 1D       		.uleb128 0x1d
 2500 0b85 707200   		.ascii	"pr\000"
 2501 0b88 01       		.byte	0x1
 2502 0b89 85       		.byte	0x85
 2503 0b8a AD000000 		.4byte	0xad
 2504 0b8e A8000000 		.4byte	.LLST4
 2505 0b92 1E       		.uleb128 0x1e
 2506 0b93 1C000000 		.4byte	.LVL23
 2507 0b97 A10B0000 		.4byte	0xba1
 2508 0b9b 1F       		.uleb128 0x1f
ARM GAS  /var/folders/m4/4md61f0s1_g0rzfghffqnxvr0000gn/T//ccZRL7EU.s 			page 45


 2509 0b9c 01       		.uleb128 0x1
 2510 0b9d 51       		.byte	0x51
 2511 0b9e 01       		.uleb128 0x1
 2512 0b9f 34       		.byte	0x34
 2513 0ba0 00       		.byte	0
 2514 0ba1 20       		.uleb128 0x20
 2515 0ba2 24000000 		.4byte	.LVL24
 2516 0ba6 94100000 		.4byte	0x1094
 2517 0baa 00       		.byte	0
 2518 0bab 1C       		.uleb128 0x1c
 2519 0bac 40060000 		.4byte	.LASF213
 2520 0bb0 01       		.byte	0x1
 2521 0bb1 97       		.byte	0x97
 2522 0bb2 00000000 		.4byte	.LFB273
 2523 0bb6 70000000 		.4byte	.LFE273-.LFB273
 2524 0bba 01       		.uleb128 0x1
 2525 0bbb 9C       		.byte	0x9c
 2526 0bbc 1F0C0000 		.4byte	0xc1f
 2527 0bc0 1D       		.uleb128 0x1d
 2528 0bc1 707200   		.ascii	"pr\000"
 2529 0bc4 01       		.byte	0x1
 2530 0bc5 98       		.byte	0x98
 2531 0bc6 AD000000 		.4byte	0xad
 2532 0bca D2000000 		.4byte	.LLST5
 2533 0bce 1E       		.uleb128 0x1e
 2534 0bcf 2E000000 		.4byte	.LVL29
 2535 0bd3 DD0B0000 		.4byte	0xbdd
 2536 0bd7 1F       		.uleb128 0x1f
 2537 0bd8 01       		.uleb128 0x1
 2538 0bd9 51       		.byte	0x51
 2539 0bda 01       		.uleb128 0x1
 2540 0bdb 39       		.byte	0x39
 2541 0bdc 00       		.byte	0
 2542 0bdd 20       		.uleb128 0x20
 2543 0bde 36000000 		.4byte	.LVL31
 2544 0be2 94100000 		.4byte	0x1094
 2545 0be6 1E       		.uleb128 0x1e
 2546 0be7 40000000 		.4byte	.LVL32
 2547 0beb F50B0000 		.4byte	0xbf5
 2548 0bef 1F       		.uleb128 0x1f
 2549 0bf0 01       		.uleb128 0x1
 2550 0bf1 51       		.byte	0x51
 2551 0bf2 01       		.uleb128 0x1
 2552 0bf3 38       		.byte	0x38
 2553 0bf4 00       		.byte	0
 2554 0bf5 1E       		.uleb128 0x1e
 2555 0bf6 4C000000 		.4byte	.LVL33
 2556 0bfa 040C0000 		.4byte	0xc04
 2557 0bfe 1F       		.uleb128 0x1f
 2558 0bff 01       		.uleb128 0x1
 2559 0c00 51       		.byte	0x51
 2560 0c01 01       		.uleb128 0x1
 2561 0c02 37       		.byte	0x37
 2562 0c03 00       		.byte	0
 2563 0c04 1E       		.uleb128 0x1e
 2564 0c05 58000000 		.4byte	.LVL34
 2565 0c09 130C0000 		.4byte	0xc13
ARM GAS  /var/folders/m4/4md61f0s1_g0rzfghffqnxvr0000gn/T//ccZRL7EU.s 			page 46


 2566 0c0d 1F       		.uleb128 0x1f
 2567 0c0e 01       		.uleb128 0x1
 2568 0c0f 51       		.byte	0x51
 2569 0c10 01       		.uleb128 0x1
 2570 0c11 36       		.byte	0x36
 2571 0c12 00       		.byte	0
 2572 0c13 21       		.uleb128 0x21
 2573 0c14 64000000 		.4byte	.LVL36
 2574 0c18 1F       		.uleb128 0x1f
 2575 0c19 01       		.uleb128 0x1
 2576 0c1a 51       		.byte	0x51
 2577 0c1b 01       		.uleb128 0x1
 2578 0c1c 35       		.byte	0x35
 2579 0c1d 00       		.byte	0
 2580 0c1e 00       		.byte	0
 2581 0c1f 1C       		.uleb128 0x1c
 2582 0c20 820B0000 		.4byte	.LASF214
 2583 0c24 01       		.byte	0x1
 2584 0c25 B3       		.byte	0xb3
 2585 0c26 00000000 		.4byte	.LFB274
 2586 0c2a 80000000 		.4byte	.LFE274-.LFB274
 2587 0c2e 01       		.uleb128 0x1
 2588 0c2f 9C       		.byte	0x9c
 2589 0c30 A20C0000 		.4byte	0xca2
 2590 0c34 1D       		.uleb128 0x1d
 2591 0c35 707200   		.ascii	"pr\000"
 2592 0c38 01       		.byte	0x1
 2593 0c39 B4       		.byte	0xb4
 2594 0c3a AD000000 		.4byte	0xad
 2595 0c3e 2E010000 		.4byte	.LLST6
 2596 0c42 1E       		.uleb128 0x1e
 2597 0c43 32000000 		.4byte	.LVL42
 2598 0c47 510C0000 		.4byte	0xc51
 2599 0c4b 1F       		.uleb128 0x1f
 2600 0c4c 01       		.uleb128 0x1
 2601 0c4d 51       		.byte	0x51
 2602 0c4e 01       		.uleb128 0x1
 2603 0c4f 3F       		.byte	0x3f
 2604 0c50 00       		.byte	0
 2605 0c51 20       		.uleb128 0x20
 2606 0c52 3A000000 		.4byte	.LVL44
 2607 0c56 94100000 		.4byte	0x1094
 2608 0c5a 1E       		.uleb128 0x1e
 2609 0c5b 44000000 		.4byte	.LVL45
 2610 0c5f 690C0000 		.4byte	0xc69
 2611 0c63 1F       		.uleb128 0x1f
 2612 0c64 01       		.uleb128 0x1
 2613 0c65 51       		.byte	0x51
 2614 0c66 01       		.uleb128 0x1
 2615 0c67 3E       		.byte	0x3e
 2616 0c68 00       		.byte	0
 2617 0c69 1E       		.uleb128 0x1e
 2618 0c6a 50000000 		.4byte	.LVL46
 2619 0c6e 780C0000 		.4byte	0xc78
 2620 0c72 1F       		.uleb128 0x1f
 2621 0c73 01       		.uleb128 0x1
 2622 0c74 51       		.byte	0x51
ARM GAS  /var/folders/m4/4md61f0s1_g0rzfghffqnxvr0000gn/T//ccZRL7EU.s 			page 47


 2623 0c75 01       		.uleb128 0x1
 2624 0c76 3D       		.byte	0x3d
 2625 0c77 00       		.byte	0
 2626 0c78 1E       		.uleb128 0x1e
 2627 0c79 5C000000 		.4byte	.LVL47
 2628 0c7d 870C0000 		.4byte	0xc87
 2629 0c81 1F       		.uleb128 0x1f
 2630 0c82 01       		.uleb128 0x1
 2631 0c83 51       		.byte	0x51
 2632 0c84 01       		.uleb128 0x1
 2633 0c85 3C       		.byte	0x3c
 2634 0c86 00       		.byte	0
 2635 0c87 1E       		.uleb128 0x1e
 2636 0c88 68000000 		.4byte	.LVL48
 2637 0c8c 960C0000 		.4byte	0xc96
 2638 0c90 1F       		.uleb128 0x1f
 2639 0c91 01       		.uleb128 0x1
 2640 0c92 51       		.byte	0x51
 2641 0c93 01       		.uleb128 0x1
 2642 0c94 3B       		.byte	0x3b
 2643 0c95 00       		.byte	0
 2644 0c96 21       		.uleb128 0x21
 2645 0c97 74000000 		.4byte	.LVL51
 2646 0c9b 1F       		.uleb128 0x1f
 2647 0c9c 01       		.uleb128 0x1
 2648 0c9d 51       		.byte	0x51
 2649 0c9e 01       		.uleb128 0x1
 2650 0c9f 3A       		.byte	0x3a
 2651 0ca0 00       		.byte	0
 2652 0ca1 00       		.byte	0
 2653 0ca2 1C       		.uleb128 0x1c
 2654 0ca3 B8030000 		.4byte	.LASF215
 2655 0ca7 01       		.byte	0x1
 2656 0ca8 D1       		.byte	0xd1
 2657 0ca9 00000000 		.4byte	.LFB275
 2658 0cad 2C000000 		.4byte	.LFE275-.LFB275
 2659 0cb1 01       		.uleb128 0x1
 2660 0cb2 9C       		.byte	0x9c
 2661 0cb3 DE0C0000 		.4byte	0xcde
 2662 0cb7 1D       		.uleb128 0x1d
 2663 0cb8 707200   		.ascii	"pr\000"
 2664 0cbb 01       		.byte	0x1
 2665 0cbc D2       		.byte	0xd2
 2666 0cbd AD000000 		.4byte	0xad
 2667 0cc1 A6010000 		.4byte	.LLST7
 2668 0cc5 1E       		.uleb128 0x1e
 2669 0cc6 1C000000 		.4byte	.LVL54
 2670 0cca D40C0000 		.4byte	0xcd4
 2671 0cce 1F       		.uleb128 0x1f
 2672 0ccf 01       		.uleb128 0x1
 2673 0cd0 51       		.byte	0x51
 2674 0cd1 01       		.uleb128 0x1
 2675 0cd2 40       		.byte	0x40
 2676 0cd3 00       		.byte	0
 2677 0cd4 20       		.uleb128 0x20
 2678 0cd5 24000000 		.4byte	.LVL55
 2679 0cd9 94100000 		.4byte	0x1094
ARM GAS  /var/folders/m4/4md61f0s1_g0rzfghffqnxvr0000gn/T//ccZRL7EU.s 			page 48


 2680 0cdd 00       		.byte	0
 2681 0cde 1C       		.uleb128 0x1c
 2682 0cdf 8B0B0000 		.4byte	.LASF216
 2683 0ce3 01       		.byte	0x1
 2684 0ce4 E4       		.byte	0xe4
 2685 0ce5 00000000 		.4byte	.LFB276
 2686 0ce9 2C000000 		.4byte	.LFE276-.LFB276
 2687 0ced 01       		.uleb128 0x1
 2688 0cee 9C       		.byte	0x9c
 2689 0cef 1A0D0000 		.4byte	0xd1a
 2690 0cf3 1D       		.uleb128 0x1d
 2691 0cf4 707200   		.ascii	"pr\000"
 2692 0cf7 01       		.byte	0x1
 2693 0cf8 E5       		.byte	0xe5
 2694 0cf9 AD000000 		.4byte	0xad
 2695 0cfd C5010000 		.4byte	.LLST8
 2696 0d01 1E       		.uleb128 0x1e
 2697 0d02 1C000000 		.4byte	.LVL58
 2698 0d06 100D0000 		.4byte	0xd10
 2699 0d0a 1F       		.uleb128 0x1f
 2700 0d0b 01       		.uleb128 0x1
 2701 0d0c 51       		.byte	0x51
 2702 0d0d 01       		.uleb128 0x1
 2703 0d0e 41       		.byte	0x41
 2704 0d0f 00       		.byte	0
 2705 0d10 20       		.uleb128 0x20
 2706 0d11 24000000 		.4byte	.LVL59
 2707 0d15 94100000 		.4byte	0x1094
 2708 0d19 00       		.byte	0
 2709 0d1a 1C       		.uleb128 0x1c
 2710 0d1b 66000000 		.4byte	.LASF217
 2711 0d1f 01       		.byte	0x1
 2712 0d20 F7       		.byte	0xf7
 2713 0d21 00000000 		.4byte	.LFB277
 2714 0d25 30000000 		.4byte	.LFE277-.LFB277
 2715 0d29 01       		.uleb128 0x1
 2716 0d2a 9C       		.byte	0x9c
 2717 0d2b 560D0000 		.4byte	0xd56
 2718 0d2f 1D       		.uleb128 0x1d
 2719 0d30 707200   		.ascii	"pr\000"
 2720 0d33 01       		.byte	0x1
 2721 0d34 F8       		.byte	0xf8
 2722 0d35 AD000000 		.4byte	0xad
 2723 0d39 E4010000 		.4byte	.LLST9
 2724 0d3d 1E       		.uleb128 0x1e
 2725 0d3e 1E000000 		.4byte	.LVL63
 2726 0d42 4C0D0000 		.4byte	0xd4c
 2727 0d46 1F       		.uleb128 0x1f
 2728 0d47 01       		.uleb128 0x1
 2729 0d48 51       		.byte	0x51
 2730 0d49 01       		.uleb128 0x1
 2731 0d4a 42       		.byte	0x42
 2732 0d4b 00       		.byte	0
 2733 0d4c 20       		.uleb128 0x20
 2734 0d4d 26000000 		.4byte	.LVL64
 2735 0d51 94100000 		.4byte	0x1094
 2736 0d55 00       		.byte	0
ARM GAS  /var/folders/m4/4md61f0s1_g0rzfghffqnxvr0000gn/T//ccZRL7EU.s 			page 49


 2737 0d56 22       		.uleb128 0x22
 2738 0d57 BE0A0000 		.4byte	.LASF218
 2739 0d5b 01       		.byte	0x1
 2740 0d5c 2001     		.2byte	0x120
 2741 0d5e 00000000 		.4byte	.LFB278
 2742 0d62 30000000 		.4byte	.LFE278-.LFB278
 2743 0d66 01       		.uleb128 0x1
 2744 0d67 9C       		.byte	0x9c
 2745 0d68 940D0000 		.4byte	0xd94
 2746 0d6c 23       		.uleb128 0x23
 2747 0d6d 707200   		.ascii	"pr\000"
 2748 0d70 01       		.byte	0x1
 2749 0d71 2101     		.2byte	0x121
 2750 0d73 AD000000 		.4byte	0xad
 2751 0d77 0E020000 		.4byte	.LLST10
 2752 0d7b 1E       		.uleb128 0x1e
 2753 0d7c 1E000000 		.4byte	.LVL68
 2754 0d80 8A0D0000 		.4byte	0xd8a
 2755 0d84 1F       		.uleb128 0x1f
 2756 0d85 01       		.uleb128 0x1
 2757 0d86 51       		.byte	0x51
 2758 0d87 01       		.uleb128 0x1
 2759 0d88 44       		.byte	0x44
 2760 0d89 00       		.byte	0
 2761 0d8a 20       		.uleb128 0x20
 2762 0d8b 26000000 		.4byte	.LVL69
 2763 0d8f 94100000 		.4byte	0x1094
 2764 0d93 00       		.byte	0
 2765 0d94 22       		.uleb128 0x22
 2766 0d95 C1030000 		.4byte	.LASF219
 2767 0d99 01       		.byte	0x1
 2768 0d9a 3501     		.2byte	0x135
 2769 0d9c 00000000 		.4byte	.LFB279
 2770 0da0 30000000 		.4byte	.LFE279-.LFB279
 2771 0da4 01       		.uleb128 0x1
 2772 0da5 9C       		.byte	0x9c
 2773 0da6 D20D0000 		.4byte	0xdd2
 2774 0daa 23       		.uleb128 0x23
 2775 0dab 707200   		.ascii	"pr\000"
 2776 0dae 01       		.byte	0x1
 2777 0daf 3601     		.2byte	0x136
 2778 0db1 AD000000 		.4byte	0xad
 2779 0db5 38020000 		.4byte	.LLST11
 2780 0db9 1E       		.uleb128 0x1e
 2781 0dba 1E000000 		.4byte	.LVL73
 2782 0dbe C80D0000 		.4byte	0xdc8
 2783 0dc2 1F       		.uleb128 0x1f
 2784 0dc3 01       		.uleb128 0x1
 2785 0dc4 51       		.byte	0x51
 2786 0dc5 01       		.uleb128 0x1
 2787 0dc6 45       		.byte	0x45
 2788 0dc7 00       		.byte	0
 2789 0dc8 20       		.uleb128 0x20
 2790 0dc9 26000000 		.4byte	.LVL74
 2791 0dcd 94100000 		.4byte	0x1094
 2792 0dd1 00       		.byte	0
 2793 0dd2 22       		.uleb128 0x22
ARM GAS  /var/folders/m4/4md61f0s1_g0rzfghffqnxvr0000gn/T//ccZRL7EU.s 			page 50


 2794 0dd3 F0030000 		.4byte	.LASF220
 2795 0dd7 01       		.byte	0x1
 2796 0dd8 4901     		.2byte	0x149
 2797 0dda 00000000 		.4byte	.LFB280
 2798 0dde 30000000 		.4byte	.LFE280-.LFB280
 2799 0de2 01       		.uleb128 0x1
 2800 0de3 9C       		.byte	0x9c
 2801 0de4 100E0000 		.4byte	0xe10
 2802 0de8 23       		.uleb128 0x23
 2803 0de9 707200   		.ascii	"pr\000"
 2804 0dec 01       		.byte	0x1
 2805 0ded 4A01     		.2byte	0x14a
 2806 0def AD000000 		.4byte	0xad
 2807 0df3 62020000 		.4byte	.LLST12
 2808 0df7 1E       		.uleb128 0x1e
 2809 0df8 1E000000 		.4byte	.LVL78
 2810 0dfc 060E0000 		.4byte	0xe06
 2811 0e00 1F       		.uleb128 0x1f
 2812 0e01 01       		.uleb128 0x1
 2813 0e02 51       		.byte	0x51
 2814 0e03 01       		.uleb128 0x1
 2815 0e04 46       		.byte	0x46
 2816 0e05 00       		.byte	0
 2817 0e06 20       		.uleb128 0x20
 2818 0e07 26000000 		.4byte	.LVL79
 2819 0e0b 94100000 		.4byte	0x1094
 2820 0e0f 00       		.byte	0
 2821 0e10 22       		.uleb128 0x22
 2822 0e11 E4060000 		.4byte	.LASF221
 2823 0e15 01       		.byte	0x1
 2824 0e16 6001     		.2byte	0x160
 2825 0e18 00000000 		.4byte	.LFB281
 2826 0e1c 6E000000 		.4byte	.LFE281-.LFB281
 2827 0e20 01       		.uleb128 0x1
 2828 0e21 9C       		.byte	0x9c
 2829 0e22 5F0F0000 		.4byte	0xf5f
 2830 0e26 24       		.uleb128 0x24
 2831 0e27 0A000000 		.4byte	.LVL80
 2832 0e2b A0100000 		.4byte	0x10a0
 2833 0e2f 3E0E0000 		.4byte	0xe3e
 2834 0e33 1F       		.uleb128 0x1f
 2835 0e34 01       		.uleb128 0x1
 2836 0e35 50       		.byte	0x50
 2837 0e36 01       		.uleb128 0x1
 2838 0e37 36       		.byte	0x36
 2839 0e38 1F       		.uleb128 0x1f
 2840 0e39 01       		.uleb128 0x1
 2841 0e3a 51       		.byte	0x51
 2842 0e3b 01       		.uleb128 0x1
 2843 0e3c 36       		.byte	0x36
 2844 0e3d 00       		.byte	0
 2845 0e3e 24       		.uleb128 0x24
 2846 0e3f 12000000 		.4byte	.LVL81
 2847 0e43 A0100000 		.4byte	0x10a0
 2848 0e47 560E0000 		.4byte	0xe56
 2849 0e4b 1F       		.uleb128 0x1f
 2850 0e4c 01       		.uleb128 0x1
ARM GAS  /var/folders/m4/4md61f0s1_g0rzfghffqnxvr0000gn/T//ccZRL7EU.s 			page 51


 2851 0e4d 50       		.byte	0x50
 2852 0e4e 01       		.uleb128 0x1
 2853 0e4f 37       		.byte	0x37
 2854 0e50 1F       		.uleb128 0x1f
 2855 0e51 01       		.uleb128 0x1
 2856 0e52 51       		.byte	0x51
 2857 0e53 01       		.uleb128 0x1
 2858 0e54 36       		.byte	0x36
 2859 0e55 00       		.byte	0
 2860 0e56 24       		.uleb128 0x24
 2861 0e57 1A000000 		.4byte	.LVL82
 2862 0e5b A0100000 		.4byte	0x10a0
 2863 0e5f 6E0E0000 		.4byte	0xe6e
 2864 0e63 1F       		.uleb128 0x1f
 2865 0e64 01       		.uleb128 0x1
 2866 0e65 50       		.byte	0x50
 2867 0e66 01       		.uleb128 0x1
 2868 0e67 38       		.byte	0x38
 2869 0e68 1F       		.uleb128 0x1f
 2870 0e69 01       		.uleb128 0x1
 2871 0e6a 51       		.byte	0x51
 2872 0e6b 01       		.uleb128 0x1
 2873 0e6c 36       		.byte	0x36
 2874 0e6d 00       		.byte	0
 2875 0e6e 24       		.uleb128 0x24
 2876 0e6f 22000000 		.4byte	.LVL83
 2877 0e73 A0100000 		.4byte	0x10a0
 2878 0e77 860E0000 		.4byte	0xe86
 2879 0e7b 1F       		.uleb128 0x1f
 2880 0e7c 01       		.uleb128 0x1
 2881 0e7d 50       		.byte	0x50
 2882 0e7e 01       		.uleb128 0x1
 2883 0e7f 39       		.byte	0x39
 2884 0e80 1F       		.uleb128 0x1f
 2885 0e81 01       		.uleb128 0x1
 2886 0e82 51       		.byte	0x51
 2887 0e83 01       		.uleb128 0x1
 2888 0e84 36       		.byte	0x36
 2889 0e85 00       		.byte	0
 2890 0e86 24       		.uleb128 0x24
 2891 0e87 2A000000 		.4byte	.LVL84
 2892 0e8b A0100000 		.4byte	0x10a0
 2893 0e8f 9E0E0000 		.4byte	0xe9e
 2894 0e93 1F       		.uleb128 0x1f
 2895 0e94 01       		.uleb128 0x1
 2896 0e95 50       		.byte	0x50
 2897 0e96 01       		.uleb128 0x1
 2898 0e97 3A       		.byte	0x3a
 2899 0e98 1F       		.uleb128 0x1f
 2900 0e99 01       		.uleb128 0x1
 2901 0e9a 51       		.byte	0x51
 2902 0e9b 01       		.uleb128 0x1
 2903 0e9c 36       		.byte	0x36
 2904 0e9d 00       		.byte	0
 2905 0e9e 24       		.uleb128 0x24
 2906 0e9f 32000000 		.4byte	.LVL85
 2907 0ea3 A0100000 		.4byte	0x10a0
ARM GAS  /var/folders/m4/4md61f0s1_g0rzfghffqnxvr0000gn/T//ccZRL7EU.s 			page 52


 2908 0ea7 B60E0000 		.4byte	0xeb6
 2909 0eab 1F       		.uleb128 0x1f
 2910 0eac 01       		.uleb128 0x1
 2911 0ead 50       		.byte	0x50
 2912 0eae 01       		.uleb128 0x1
 2913 0eaf 47       		.byte	0x47
 2914 0eb0 1F       		.uleb128 0x1f
 2915 0eb1 01       		.uleb128 0x1
 2916 0eb2 51       		.byte	0x51
 2917 0eb3 01       		.uleb128 0x1
 2918 0eb4 36       		.byte	0x36
 2919 0eb5 00       		.byte	0
 2920 0eb6 24       		.uleb128 0x24
 2921 0eb7 3A000000 		.4byte	.LVL86
 2922 0ebb A0100000 		.4byte	0x10a0
 2923 0ebf CF0E0000 		.4byte	0xecf
 2924 0ec3 1F       		.uleb128 0x1f
 2925 0ec4 01       		.uleb128 0x1
 2926 0ec5 50       		.byte	0x50
 2927 0ec6 02       		.uleb128 0x2
 2928 0ec7 08       		.byte	0x8
 2929 0ec8 28       		.byte	0x28
 2930 0ec9 1F       		.uleb128 0x1f
 2931 0eca 01       		.uleb128 0x1
 2932 0ecb 51       		.byte	0x51
 2933 0ecc 01       		.uleb128 0x1
 2934 0ecd 36       		.byte	0x36
 2935 0ece 00       		.byte	0
 2936 0ecf 24       		.uleb128 0x24
 2937 0ed0 42000000 		.4byte	.LVL87
 2938 0ed4 A0100000 		.4byte	0x10a0
 2939 0ed8 E70E0000 		.4byte	0xee7
 2940 0edc 1F       		.uleb128 0x1f
 2941 0edd 01       		.uleb128 0x1
 2942 0ede 50       		.byte	0x50
 2943 0edf 01       		.uleb128 0x1
 2944 0ee0 31       		.byte	0x31
 2945 0ee1 1F       		.uleb128 0x1f
 2946 0ee2 01       		.uleb128 0x1
 2947 0ee3 51       		.byte	0x51
 2948 0ee4 01       		.uleb128 0x1
 2949 0ee5 36       		.byte	0x36
 2950 0ee6 00       		.byte	0
 2951 0ee7 24       		.uleb128 0x24
 2952 0ee8 4A000000 		.4byte	.LVL88
 2953 0eec A0100000 		.4byte	0x10a0
 2954 0ef0 000F0000 		.4byte	0xf00
 2955 0ef4 1F       		.uleb128 0x1f
 2956 0ef5 01       		.uleb128 0x1
 2957 0ef6 50       		.byte	0x50
 2958 0ef7 02       		.uleb128 0x2
 2959 0ef8 08       		.byte	0x8
 2960 0ef9 29       		.byte	0x29
 2961 0efa 1F       		.uleb128 0x1f
 2962 0efb 01       		.uleb128 0x1
 2963 0efc 51       		.byte	0x51
 2964 0efd 01       		.uleb128 0x1
ARM GAS  /var/folders/m4/4md61f0s1_g0rzfghffqnxvr0000gn/T//ccZRL7EU.s 			page 53


 2965 0efe 3F       		.byte	0x3f
 2966 0eff 00       		.byte	0
 2967 0f00 24       		.uleb128 0x24
 2968 0f01 52000000 		.4byte	.LVL89
 2969 0f05 A0100000 		.4byte	0x10a0
 2970 0f09 190F0000 		.4byte	0xf19
 2971 0f0d 1F       		.uleb128 0x1f
 2972 0f0e 01       		.uleb128 0x1
 2973 0f0f 50       		.byte	0x50
 2974 0f10 02       		.uleb128 0x2
 2975 0f11 08       		.byte	0x8
 2976 0f12 2A       		.byte	0x2a
 2977 0f13 1F       		.uleb128 0x1f
 2978 0f14 01       		.uleb128 0x1
 2979 0f15 51       		.byte	0x51
 2980 0f16 01       		.uleb128 0x1
 2981 0f17 36       		.byte	0x36
 2982 0f18 00       		.byte	0
 2983 0f19 24       		.uleb128 0x24
 2984 0f1a 5A000000 		.4byte	.LVL90
 2985 0f1e A0100000 		.4byte	0x10a0
 2986 0f22 320F0000 		.4byte	0xf32
 2987 0f26 1F       		.uleb128 0x1f
 2988 0f27 01       		.uleb128 0x1
 2989 0f28 50       		.byte	0x50
 2990 0f29 02       		.uleb128 0x2
 2991 0f2a 08       		.byte	0x8
 2992 0f2b 4C       		.byte	0x4c
 2993 0f2c 1F       		.uleb128 0x1f
 2994 0f2d 01       		.uleb128 0x1
 2995 0f2e 51       		.byte	0x51
 2996 0f2f 01       		.uleb128 0x1
 2997 0f30 36       		.byte	0x36
 2998 0f31 00       		.byte	0
 2999 0f32 24       		.uleb128 0x24
 3000 0f33 62000000 		.4byte	.LVL91
 3001 0f37 A0100000 		.4byte	0x10a0
 3002 0f3b 4A0F0000 		.4byte	0xf4a
 3003 0f3f 1F       		.uleb128 0x1f
 3004 0f40 01       		.uleb128 0x1
 3005 0f41 50       		.byte	0x50
 3006 0f42 01       		.uleb128 0x1
 3007 0f43 32       		.byte	0x32
 3008 0f44 1F       		.uleb128 0x1f
 3009 0f45 01       		.uleb128 0x1
 3010 0f46 51       		.byte	0x51
 3011 0f47 01       		.uleb128 0x1
 3012 0f48 3F       		.byte	0x3f
 3013 0f49 00       		.byte	0
 3014 0f4a 25       		.uleb128 0x25
 3015 0f4b 6E000000 		.4byte	.LVL92
 3016 0f4f A0100000 		.4byte	0x10a0
 3017 0f53 1F       		.uleb128 0x1f
 3018 0f54 01       		.uleb128 0x1
 3019 0f55 50       		.byte	0x50
 3020 0f56 01       		.uleb128 0x1
 3021 0f57 33       		.byte	0x33
ARM GAS  /var/folders/m4/4md61f0s1_g0rzfghffqnxvr0000gn/T//ccZRL7EU.s 			page 54


 3022 0f58 1F       		.uleb128 0x1f
 3023 0f59 01       		.uleb128 0x1
 3024 0f5a 51       		.byte	0x51
 3025 0f5b 01       		.uleb128 0x1
 3026 0f5c 3F       		.byte	0x3f
 3027 0f5d 00       		.byte	0
 3028 0f5e 00       		.byte	0
 3029 0f5f 22       		.uleb128 0x22
 3030 0f60 83020000 		.4byte	.LASF222
 3031 0f64 01       		.byte	0x1
 3032 0f65 7D01     		.2byte	0x17d
 3033 0f67 00000000 		.4byte	.LFB282
 3034 0f6b 54000000 		.4byte	.LFE282-.LFB282
 3035 0f6f 01       		.uleb128 0x1
 3036 0f70 9C       		.byte	0x9c
 3037 0f71 6D100000 		.4byte	0x106d
 3038 0f75 24       		.uleb128 0x24
 3039 0f76 08000000 		.4byte	.LVL93
 3040 0f7a AB100000 		.4byte	0x10ab
 3041 0f7e 880F0000 		.4byte	0xf88
 3042 0f82 1F       		.uleb128 0x1f
 3043 0f83 01       		.uleb128 0x1
 3044 0f84 50       		.byte	0x50
 3045 0f85 01       		.uleb128 0x1
 3046 0f86 36       		.byte	0x36
 3047 0f87 00       		.byte	0
 3048 0f88 24       		.uleb128 0x24
 3049 0f89 0E000000 		.4byte	.LVL94
 3050 0f8d AB100000 		.4byte	0x10ab
 3051 0f91 9B0F0000 		.4byte	0xf9b
 3052 0f95 1F       		.uleb128 0x1f
 3053 0f96 01       		.uleb128 0x1
 3054 0f97 50       		.byte	0x50
 3055 0f98 01       		.uleb128 0x1
 3056 0f99 37       		.byte	0x37
 3057 0f9a 00       		.byte	0
 3058 0f9b 24       		.uleb128 0x24
 3059 0f9c 14000000 		.4byte	.LVL95
 3060 0fa0 AB100000 		.4byte	0x10ab
 3061 0fa4 AE0F0000 		.4byte	0xfae
 3062 0fa8 1F       		.uleb128 0x1f
 3063 0fa9 01       		.uleb128 0x1
 3064 0faa 50       		.byte	0x50
 3065 0fab 01       		.uleb128 0x1
 3066 0fac 38       		.byte	0x38
 3067 0fad 00       		.byte	0
 3068 0fae 24       		.uleb128 0x24
 3069 0faf 1A000000 		.4byte	.LVL96
 3070 0fb3 AB100000 		.4byte	0x10ab
 3071 0fb7 C10F0000 		.4byte	0xfc1
 3072 0fbb 1F       		.uleb128 0x1f
 3073 0fbc 01       		.uleb128 0x1
 3074 0fbd 50       		.byte	0x50
 3075 0fbe 01       		.uleb128 0x1
 3076 0fbf 39       		.byte	0x39
 3077 0fc0 00       		.byte	0
 3078 0fc1 24       		.uleb128 0x24
ARM GAS  /var/folders/m4/4md61f0s1_g0rzfghffqnxvr0000gn/T//ccZRL7EU.s 			page 55


 3079 0fc2 20000000 		.4byte	.LVL97
 3080 0fc6 AB100000 		.4byte	0x10ab
 3081 0fca D40F0000 		.4byte	0xfd4
 3082 0fce 1F       		.uleb128 0x1f
 3083 0fcf 01       		.uleb128 0x1
 3084 0fd0 50       		.byte	0x50
 3085 0fd1 01       		.uleb128 0x1
 3086 0fd2 3A       		.byte	0x3a
 3087 0fd3 00       		.byte	0
 3088 0fd4 24       		.uleb128 0x24
 3089 0fd5 26000000 		.4byte	.LVL98
 3090 0fd9 AB100000 		.4byte	0x10ab
 3091 0fdd E70F0000 		.4byte	0xfe7
 3092 0fe1 1F       		.uleb128 0x1f
 3093 0fe2 01       		.uleb128 0x1
 3094 0fe3 50       		.byte	0x50
 3095 0fe4 01       		.uleb128 0x1
 3096 0fe5 47       		.byte	0x47
 3097 0fe6 00       		.byte	0
 3098 0fe7 24       		.uleb128 0x24
 3099 0fe8 2C000000 		.4byte	.LVL99
 3100 0fec AB100000 		.4byte	0x10ab
 3101 0ff0 FB0F0000 		.4byte	0xffb
 3102 0ff4 1F       		.uleb128 0x1f
 3103 0ff5 01       		.uleb128 0x1
 3104 0ff6 50       		.byte	0x50
 3105 0ff7 02       		.uleb128 0x2
 3106 0ff8 08       		.byte	0x8
 3107 0ff9 28       		.byte	0x28
 3108 0ffa 00       		.byte	0
 3109 0ffb 24       		.uleb128 0x24
 3110 0ffc 32000000 		.4byte	.LVL100
 3111 1000 AB100000 		.4byte	0x10ab
 3112 1004 0E100000 		.4byte	0x100e
 3113 1008 1F       		.uleb128 0x1f
 3114 1009 01       		.uleb128 0x1
 3115 100a 50       		.byte	0x50
 3116 100b 01       		.uleb128 0x1
 3117 100c 31       		.byte	0x31
 3118 100d 00       		.byte	0
 3119 100e 24       		.uleb128 0x24
 3120 100f 38000000 		.4byte	.LVL101
 3121 1013 AB100000 		.4byte	0x10ab
 3122 1017 22100000 		.4byte	0x1022
 3123 101b 1F       		.uleb128 0x1f
 3124 101c 01       		.uleb128 0x1
 3125 101d 50       		.byte	0x50
 3126 101e 02       		.uleb128 0x2
 3127 101f 08       		.byte	0x8
 3128 1020 29       		.byte	0x29
 3129 1021 00       		.byte	0
 3130 1022 24       		.uleb128 0x24
 3131 1023 3E000000 		.4byte	.LVL102
 3132 1027 AB100000 		.4byte	0x10ab
 3133 102b 36100000 		.4byte	0x1036
 3134 102f 1F       		.uleb128 0x1f
 3135 1030 01       		.uleb128 0x1
ARM GAS  /var/folders/m4/4md61f0s1_g0rzfghffqnxvr0000gn/T//ccZRL7EU.s 			page 56


 3136 1031 50       		.byte	0x50
 3137 1032 02       		.uleb128 0x2
 3138 1033 08       		.byte	0x8
 3139 1034 2A       		.byte	0x2a
 3140 1035 00       		.byte	0
 3141 1036 24       		.uleb128 0x24
 3142 1037 44000000 		.4byte	.LVL103
 3143 103b AB100000 		.4byte	0x10ab
 3144 103f 4A100000 		.4byte	0x104a
 3145 1043 1F       		.uleb128 0x1f
 3146 1044 01       		.uleb128 0x1
 3147 1045 50       		.byte	0x50
 3148 1046 02       		.uleb128 0x2
 3149 1047 08       		.byte	0x8
 3150 1048 4C       		.byte	0x4c
 3151 1049 00       		.byte	0
 3152 104a 24       		.uleb128 0x24
 3153 104b 4A000000 		.4byte	.LVL104
 3154 104f AB100000 		.4byte	0x10ab
 3155 1053 5D100000 		.4byte	0x105d
 3156 1057 1F       		.uleb128 0x1f
 3157 1058 01       		.uleb128 0x1
 3158 1059 50       		.byte	0x50
 3159 105a 01       		.uleb128 0x1
 3160 105b 32       		.byte	0x32
 3161 105c 00       		.byte	0
 3162 105d 25       		.uleb128 0x25
 3163 105e 54000000 		.4byte	.LVL105
 3164 1062 AB100000 		.4byte	0x10ab
 3165 1066 1F       		.uleb128 0x1f
 3166 1067 01       		.uleb128 0x1
 3167 1068 50       		.byte	0x50
 3168 1069 01       		.uleb128 0x1
 3169 106a 33       		.byte	0x33
 3170 106b 00       		.byte	0
 3171 106c 00       		.byte	0
 3172 106d 26       		.uleb128 0x26
 3173 106e AA0A0000 		.4byte	.LASF223
 3174 1072 0F       		.byte	0xf
 3175 1073 FA06     		.2byte	0x6fa
 3176 1075 79100000 		.4byte	0x1079
 3177 1079 12       		.uleb128 0x12
 3178 107a A2000000 		.4byte	0xa2
 3179 107e 27       		.uleb128 0x27
 3180 107f 636800   		.ascii	"ch\000"
 3181 1082 06       		.byte	0x6
 3182 1083 0902     		.2byte	0x209
 3183 1085 F8030000 		.4byte	0x3f8
 3184 1089 28       		.uleb128 0x28
 3185 108a EF050000 		.4byte	.LASF224
 3186 108e 0E       		.byte	0xe
 3187 108f 88       		.byte	0x88
 3188 1090 B7090000 		.4byte	0x9b7
 3189 1094 29       		.uleb128 0x29
 3190 1095 89060000 		.4byte	.LASF225
 3191 1099 89060000 		.4byte	.LASF225
 3192 109d 09       		.byte	0x9
ARM GAS  /var/folders/m4/4md61f0s1_g0rzfghffqnxvr0000gn/T//ccZRL7EU.s 			page 57


 3193 109e 6F01     		.2byte	0x16f
 3194 10a0 2A       		.uleb128 0x2a
 3195 10a1 050B0000 		.4byte	.LASF226
 3196 10a5 050B0000 		.4byte	.LASF226
 3197 10a9 10       		.byte	0x10
 3198 10aa 4E       		.byte	0x4e
 3199 10ab 2A       		.uleb128 0x2a
 3200 10ac 13070000 		.4byte	.LASF227
 3201 10b0 13070000 		.4byte	.LASF227
 3202 10b4 10       		.byte	0x10
 3203 10b5 4F       		.byte	0x4f
 3204 10b6 00       		.byte	0
 3205              		.section	.debug_abbrev,"",%progbits
 3206              	.Ldebug_abbrev0:
 3207 0000 01       		.uleb128 0x1
 3208 0001 11       		.uleb128 0x11
 3209 0002 01       		.byte	0x1
 3210 0003 25       		.uleb128 0x25
 3211 0004 0E       		.uleb128 0xe
 3212 0005 13       		.uleb128 0x13
 3213 0006 0B       		.uleb128 0xb
 3214 0007 03       		.uleb128 0x3
 3215 0008 0E       		.uleb128 0xe
 3216 0009 1B       		.uleb128 0x1b
 3217 000a 0E       		.uleb128 0xe
 3218 000b 55       		.uleb128 0x55
 3219 000c 17       		.uleb128 0x17
 3220 000d 11       		.uleb128 0x11
 3221 000e 01       		.uleb128 0x1
 3222 000f 10       		.uleb128 0x10
 3223 0010 17       		.uleb128 0x17
 3224 0011 00       		.byte	0
 3225 0012 00       		.byte	0
 3226 0013 02       		.uleb128 0x2
 3227 0014 24       		.uleb128 0x24
 3228 0015 00       		.byte	0
 3229 0016 0B       		.uleb128 0xb
 3230 0017 0B       		.uleb128 0xb
 3231 0018 3E       		.uleb128 0x3e
 3232 0019 0B       		.uleb128 0xb
 3233 001a 03       		.uleb128 0x3
 3234 001b 08       		.uleb128 0x8
 3235 001c 00       		.byte	0
 3236 001d 00       		.byte	0
 3237 001e 03       		.uleb128 0x3
 3238 001f 24       		.uleb128 0x24
 3239 0020 00       		.byte	0
 3240 0021 0B       		.uleb128 0xb
 3241 0022 0B       		.uleb128 0xb
 3242 0023 3E       		.uleb128 0x3e
 3243 0024 0B       		.uleb128 0xb
 3244 0025 03       		.uleb128 0x3
 3245 0026 0E       		.uleb128 0xe
 3246 0027 00       		.byte	0
 3247 0028 00       		.byte	0
 3248 0029 04       		.uleb128 0x4
 3249 002a 16       		.uleb128 0x16
ARM GAS  /var/folders/m4/4md61f0s1_g0rzfghffqnxvr0000gn/T//ccZRL7EU.s 			page 58


 3250 002b 00       		.byte	0
 3251 002c 03       		.uleb128 0x3
 3252 002d 0E       		.uleb128 0xe
 3253 002e 3A       		.uleb128 0x3a
 3254 002f 0B       		.uleb128 0xb
 3255 0030 3B       		.uleb128 0x3b
 3256 0031 0B       		.uleb128 0xb
 3257 0032 49       		.uleb128 0x49
 3258 0033 13       		.uleb128 0x13
 3259 0034 00       		.byte	0
 3260 0035 00       		.byte	0
 3261 0036 05       		.uleb128 0x5
 3262 0037 13       		.uleb128 0x13
 3263 0038 01       		.byte	0x1
 3264 0039 03       		.uleb128 0x3
 3265 003a 0E       		.uleb128 0xe
 3266 003b 0B       		.uleb128 0xb
 3267 003c 0B       		.uleb128 0xb
 3268 003d 3A       		.uleb128 0x3a
 3269 003e 0B       		.uleb128 0xb
 3270 003f 3B       		.uleb128 0x3b
 3271 0040 0B       		.uleb128 0xb
 3272 0041 01       		.uleb128 0x1
 3273 0042 13       		.uleb128 0x13
 3274 0043 00       		.byte	0
 3275 0044 00       		.byte	0
 3276 0045 06       		.uleb128 0x6
 3277 0046 0D       		.uleb128 0xd
 3278 0047 00       		.byte	0
 3279 0048 03       		.uleb128 0x3
 3280 0049 0E       		.uleb128 0xe
 3281 004a 3A       		.uleb128 0x3a
 3282 004b 0B       		.uleb128 0xb
 3283 004c 3B       		.uleb128 0x3b
 3284 004d 0B       		.uleb128 0xb
 3285 004e 49       		.uleb128 0x49
 3286 004f 13       		.uleb128 0x13
 3287 0050 38       		.uleb128 0x38
 3288 0051 0B       		.uleb128 0xb
 3289 0052 00       		.byte	0
 3290 0053 00       		.byte	0
 3291 0054 07       		.uleb128 0x7
 3292 0055 0D       		.uleb128 0xd
 3293 0056 00       		.byte	0
 3294 0057 03       		.uleb128 0x3
 3295 0058 08       		.uleb128 0x8
 3296 0059 3A       		.uleb128 0x3a
 3297 005a 0B       		.uleb128 0xb
 3298 005b 3B       		.uleb128 0x3b
 3299 005c 05       		.uleb128 0x5
 3300 005d 49       		.uleb128 0x49
 3301 005e 13       		.uleb128 0x13
 3302 005f 38       		.uleb128 0x38
 3303 0060 0B       		.uleb128 0xb
 3304 0061 00       		.byte	0
 3305 0062 00       		.byte	0
 3306 0063 08       		.uleb128 0x8
ARM GAS  /var/folders/m4/4md61f0s1_g0rzfghffqnxvr0000gn/T//ccZRL7EU.s 			page 59


 3307 0064 0D       		.uleb128 0xd
 3308 0065 00       		.byte	0
 3309 0066 03       		.uleb128 0x3
 3310 0067 0E       		.uleb128 0xe
 3311 0068 3A       		.uleb128 0x3a
 3312 0069 0B       		.uleb128 0xb
 3313 006a 3B       		.uleb128 0x3b
 3314 006b 05       		.uleb128 0x5
 3315 006c 49       		.uleb128 0x49
 3316 006d 13       		.uleb128 0x13
 3317 006e 38       		.uleb128 0x38
 3318 006f 0B       		.uleb128 0xb
 3319 0070 00       		.byte	0
 3320 0071 00       		.byte	0
 3321 0072 09       		.uleb128 0x9
 3322 0073 0F       		.uleb128 0xf
 3323 0074 00       		.byte	0
 3324 0075 0B       		.uleb128 0xb
 3325 0076 0B       		.uleb128 0xb
 3326 0077 49       		.uleb128 0x49
 3327 0078 13       		.uleb128 0x13
 3328 0079 00       		.byte	0
 3329 007a 00       		.byte	0
 3330 007b 0A       		.uleb128 0xa
 3331 007c 13       		.uleb128 0x13
 3332 007d 01       		.byte	0x1
 3333 007e 03       		.uleb128 0x3
 3334 007f 0E       		.uleb128 0xe
 3335 0080 0B       		.uleb128 0xb
 3336 0081 0B       		.uleb128 0xb
 3337 0082 3A       		.uleb128 0x3a
 3338 0083 0B       		.uleb128 0xb
 3339 0084 3B       		.uleb128 0x3b
 3340 0085 05       		.uleb128 0x5
 3341 0086 01       		.uleb128 0x1
 3342 0087 13       		.uleb128 0x13
 3343 0088 00       		.byte	0
 3344 0089 00       		.byte	0
 3345 008a 0B       		.uleb128 0xb
 3346 008b 15       		.uleb128 0x15
 3347 008c 01       		.byte	0x1
 3348 008d 27       		.uleb128 0x27
 3349 008e 19       		.uleb128 0x19
 3350 008f 01       		.uleb128 0x1
 3351 0090 13       		.uleb128 0x13
 3352 0091 00       		.byte	0
 3353 0092 00       		.byte	0
 3354 0093 0C       		.uleb128 0xc
 3355 0094 05       		.uleb128 0x5
 3356 0095 00       		.byte	0
 3357 0096 49       		.uleb128 0x49
 3358 0097 13       		.uleb128 0x13
 3359 0098 00       		.byte	0
 3360 0099 00       		.byte	0
 3361 009a 0D       		.uleb128 0xd
 3362 009b 0F       		.uleb128 0xf
 3363 009c 00       		.byte	0
ARM GAS  /var/folders/m4/4md61f0s1_g0rzfghffqnxvr0000gn/T//ccZRL7EU.s 			page 60


 3364 009d 0B       		.uleb128 0xb
 3365 009e 0B       		.uleb128 0xb
 3366 009f 00       		.byte	0
 3367 00a0 00       		.byte	0
 3368 00a1 0E       		.uleb128 0xe
 3369 00a2 13       		.uleb128 0x13
 3370 00a3 01       		.byte	0x1
 3371 00a4 03       		.uleb128 0x3
 3372 00a5 0E       		.uleb128 0xe
 3373 00a6 0B       		.uleb128 0xb
 3374 00a7 05       		.uleb128 0x5
 3375 00a8 3A       		.uleb128 0x3a
 3376 00a9 0B       		.uleb128 0xb
 3377 00aa 3B       		.uleb128 0x3b
 3378 00ab 05       		.uleb128 0x5
 3379 00ac 01       		.uleb128 0x1
 3380 00ad 13       		.uleb128 0x13
 3381 00ae 00       		.byte	0
 3382 00af 00       		.byte	0
 3383 00b0 0F       		.uleb128 0xf
 3384 00b1 04       		.uleb128 0x4
 3385 00b2 01       		.byte	0x1
 3386 00b3 0B       		.uleb128 0xb
 3387 00b4 0B       		.uleb128 0xb
 3388 00b5 49       		.uleb128 0x49
 3389 00b6 13       		.uleb128 0x13
 3390 00b7 3A       		.uleb128 0x3a
 3391 00b8 0B       		.uleb128 0xb
 3392 00b9 3B       		.uleb128 0x3b
 3393 00ba 0B       		.uleb128 0xb
 3394 00bb 01       		.uleb128 0x1
 3395 00bc 13       		.uleb128 0x13
 3396 00bd 00       		.byte	0
 3397 00be 00       		.byte	0
 3398 00bf 10       		.uleb128 0x10
 3399 00c0 28       		.uleb128 0x28
 3400 00c1 00       		.byte	0
 3401 00c2 03       		.uleb128 0x3
 3402 00c3 0E       		.uleb128 0xe
 3403 00c4 1C       		.uleb128 0x1c
 3404 00c5 0D       		.uleb128 0xd
 3405 00c6 00       		.byte	0
 3406 00c7 00       		.byte	0
 3407 00c8 11       		.uleb128 0x11
 3408 00c9 28       		.uleb128 0x28
 3409 00ca 00       		.byte	0
 3410 00cb 03       		.uleb128 0x3
 3411 00cc 0E       		.uleb128 0xe
 3412 00cd 1C       		.uleb128 0x1c
 3413 00ce 0B       		.uleb128 0xb
 3414 00cf 00       		.byte	0
 3415 00d0 00       		.byte	0
 3416 00d1 12       		.uleb128 0x12
 3417 00d2 35       		.uleb128 0x35
 3418 00d3 00       		.byte	0
 3419 00d4 49       		.uleb128 0x49
 3420 00d5 13       		.uleb128 0x13
ARM GAS  /var/folders/m4/4md61f0s1_g0rzfghffqnxvr0000gn/T//ccZRL7EU.s 			page 61


 3421 00d6 00       		.byte	0
 3422 00d7 00       		.byte	0
 3423 00d8 13       		.uleb128 0x13
 3424 00d9 13       		.uleb128 0x13
 3425 00da 01       		.byte	0x1
 3426 00db 0B       		.uleb128 0xb
 3427 00dc 0B       		.uleb128 0xb
 3428 00dd 3A       		.uleb128 0x3a
 3429 00de 0B       		.uleb128 0xb
 3430 00df 3B       		.uleb128 0x3b
 3431 00e0 05       		.uleb128 0x5
 3432 00e1 01       		.uleb128 0x1
 3433 00e2 13       		.uleb128 0x13
 3434 00e3 00       		.byte	0
 3435 00e4 00       		.byte	0
 3436 00e5 14       		.uleb128 0x14
 3437 00e6 16       		.uleb128 0x16
 3438 00e7 00       		.byte	0
 3439 00e8 03       		.uleb128 0x3
 3440 00e9 0E       		.uleb128 0xe
 3441 00ea 3A       		.uleb128 0x3a
 3442 00eb 0B       		.uleb128 0xb
 3443 00ec 3B       		.uleb128 0x3b
 3444 00ed 05       		.uleb128 0x5
 3445 00ee 49       		.uleb128 0x49
 3446 00ef 13       		.uleb128 0x13
 3447 00f0 00       		.byte	0
 3448 00f1 00       		.byte	0
 3449 00f2 15       		.uleb128 0x15
 3450 00f3 0D       		.uleb128 0xd
 3451 00f4 00       		.byte	0
 3452 00f5 03       		.uleb128 0x3
 3453 00f6 08       		.uleb128 0x8
 3454 00f7 3A       		.uleb128 0x3a
 3455 00f8 0B       		.uleb128 0xb
 3456 00f9 3B       		.uleb128 0x3b
 3457 00fa 0B       		.uleb128 0xb
 3458 00fb 49       		.uleb128 0x49
 3459 00fc 13       		.uleb128 0x13
 3460 00fd 38       		.uleb128 0x38
 3461 00fe 0B       		.uleb128 0xb
 3462 00ff 00       		.byte	0
 3463 0100 00       		.byte	0
 3464 0101 16       		.uleb128 0x16
 3465 0102 13       		.uleb128 0x13
 3466 0103 01       		.byte	0x1
 3467 0104 0B       		.uleb128 0xb
 3468 0105 0B       		.uleb128 0xb
 3469 0106 3A       		.uleb128 0x3a
 3470 0107 0B       		.uleb128 0xb
 3471 0108 3B       		.uleb128 0x3b
 3472 0109 0B       		.uleb128 0xb
 3473 010a 01       		.uleb128 0x1
 3474 010b 13       		.uleb128 0x13
 3475 010c 00       		.byte	0
 3476 010d 00       		.byte	0
 3477 010e 17       		.uleb128 0x17
ARM GAS  /var/folders/m4/4md61f0s1_g0rzfghffqnxvr0000gn/T//ccZRL7EU.s 			page 62


 3478 010f 17       		.uleb128 0x17
 3479 0110 01       		.byte	0x1
 3480 0111 0B       		.uleb128 0xb
 3481 0112 0B       		.uleb128 0xb
 3482 0113 3A       		.uleb128 0x3a
 3483 0114 0B       		.uleb128 0xb
 3484 0115 3B       		.uleb128 0x3b
 3485 0116 0B       		.uleb128 0xb
 3486 0117 01       		.uleb128 0x1
 3487 0118 13       		.uleb128 0x13
 3488 0119 00       		.byte	0
 3489 011a 00       		.byte	0
 3490 011b 18       		.uleb128 0x18
 3491 011c 0D       		.uleb128 0xd
 3492 011d 00       		.byte	0
 3493 011e 03       		.uleb128 0x3
 3494 011f 0E       		.uleb128 0xe
 3495 0120 3A       		.uleb128 0x3a
 3496 0121 0B       		.uleb128 0xb
 3497 0122 3B       		.uleb128 0x3b
 3498 0123 05       		.uleb128 0x5
 3499 0124 49       		.uleb128 0x49
 3500 0125 13       		.uleb128 0x13
 3501 0126 00       		.byte	0
 3502 0127 00       		.byte	0
 3503 0128 19       		.uleb128 0x19
 3504 0129 26       		.uleb128 0x26
 3505 012a 00       		.byte	0
 3506 012b 49       		.uleb128 0x49
 3507 012c 13       		.uleb128 0x13
 3508 012d 00       		.byte	0
 3509 012e 00       		.byte	0
 3510 012f 1A       		.uleb128 0x1a
 3511 0130 01       		.uleb128 0x1
 3512 0131 01       		.byte	0x1
 3513 0132 49       		.uleb128 0x49
 3514 0133 13       		.uleb128 0x13
 3515 0134 01       		.uleb128 0x1
 3516 0135 13       		.uleb128 0x13
 3517 0136 00       		.byte	0
 3518 0137 00       		.byte	0
 3519 0138 1B       		.uleb128 0x1b
 3520 0139 21       		.uleb128 0x21
 3521 013a 00       		.byte	0
 3522 013b 49       		.uleb128 0x49
 3523 013c 13       		.uleb128 0x13
 3524 013d 2F       		.uleb128 0x2f
 3525 013e 0B       		.uleb128 0xb
 3526 013f 00       		.byte	0
 3527 0140 00       		.byte	0
 3528 0141 1C       		.uleb128 0x1c
 3529 0142 2E       		.uleb128 0x2e
 3530 0143 01       		.byte	0x1
 3531 0144 3F       		.uleb128 0x3f
 3532 0145 19       		.uleb128 0x19
 3533 0146 03       		.uleb128 0x3
 3534 0147 0E       		.uleb128 0xe
ARM GAS  /var/folders/m4/4md61f0s1_g0rzfghffqnxvr0000gn/T//ccZRL7EU.s 			page 63


 3535 0148 3A       		.uleb128 0x3a
 3536 0149 0B       		.uleb128 0xb
 3537 014a 3B       		.uleb128 0x3b
 3538 014b 0B       		.uleb128 0xb
 3539 014c 27       		.uleb128 0x27
 3540 014d 19       		.uleb128 0x19
 3541 014e 11       		.uleb128 0x11
 3542 014f 01       		.uleb128 0x1
 3543 0150 12       		.uleb128 0x12
 3544 0151 06       		.uleb128 0x6
 3545 0152 40       		.uleb128 0x40
 3546 0153 18       		.uleb128 0x18
 3547 0154 9742     		.uleb128 0x2117
 3548 0156 19       		.uleb128 0x19
 3549 0157 01       		.uleb128 0x1
 3550 0158 13       		.uleb128 0x13
 3551 0159 00       		.byte	0
 3552 015a 00       		.byte	0
 3553 015b 1D       		.uleb128 0x1d
 3554 015c 34       		.uleb128 0x34
 3555 015d 00       		.byte	0
 3556 015e 03       		.uleb128 0x3
 3557 015f 08       		.uleb128 0x8
 3558 0160 3A       		.uleb128 0x3a
 3559 0161 0B       		.uleb128 0xb
 3560 0162 3B       		.uleb128 0x3b
 3561 0163 0B       		.uleb128 0xb
 3562 0164 49       		.uleb128 0x49
 3563 0165 13       		.uleb128 0x13
 3564 0166 02       		.uleb128 0x2
 3565 0167 17       		.uleb128 0x17
 3566 0168 00       		.byte	0
 3567 0169 00       		.byte	0
 3568 016a 1E       		.uleb128 0x1e
 3569 016b 898201   		.uleb128 0x4109
 3570 016e 01       		.byte	0x1
 3571 016f 11       		.uleb128 0x11
 3572 0170 01       		.uleb128 0x1
 3573 0171 01       		.uleb128 0x1
 3574 0172 13       		.uleb128 0x13
 3575 0173 00       		.byte	0
 3576 0174 00       		.byte	0
 3577 0175 1F       		.uleb128 0x1f
 3578 0176 8A8201   		.uleb128 0x410a
 3579 0179 00       		.byte	0
 3580 017a 02       		.uleb128 0x2
 3581 017b 18       		.uleb128 0x18
 3582 017c 9142     		.uleb128 0x2111
 3583 017e 18       		.uleb128 0x18
 3584 017f 00       		.byte	0
 3585 0180 00       		.byte	0
 3586 0181 20       		.uleb128 0x20
 3587 0182 898201   		.uleb128 0x4109
 3588 0185 00       		.byte	0
 3589 0186 11       		.uleb128 0x11
 3590 0187 01       		.uleb128 0x1
 3591 0188 9542     		.uleb128 0x2115
ARM GAS  /var/folders/m4/4md61f0s1_g0rzfghffqnxvr0000gn/T//ccZRL7EU.s 			page 64


 3592 018a 19       		.uleb128 0x19
 3593 018b 31       		.uleb128 0x31
 3594 018c 13       		.uleb128 0x13
 3595 018d 00       		.byte	0
 3596 018e 00       		.byte	0
 3597 018f 21       		.uleb128 0x21
 3598 0190 898201   		.uleb128 0x4109
 3599 0193 01       		.byte	0x1
 3600 0194 11       		.uleb128 0x11
 3601 0195 01       		.uleb128 0x1
 3602 0196 00       		.byte	0
 3603 0197 00       		.byte	0
 3604 0198 22       		.uleb128 0x22
 3605 0199 2E       		.uleb128 0x2e
 3606 019a 01       		.byte	0x1
 3607 019b 3F       		.uleb128 0x3f
 3608 019c 19       		.uleb128 0x19
 3609 019d 03       		.uleb128 0x3
 3610 019e 0E       		.uleb128 0xe
 3611 019f 3A       		.uleb128 0x3a
 3612 01a0 0B       		.uleb128 0xb
 3613 01a1 3B       		.uleb128 0x3b
 3614 01a2 05       		.uleb128 0x5
 3615 01a3 27       		.uleb128 0x27
 3616 01a4 19       		.uleb128 0x19
 3617 01a5 11       		.uleb128 0x11
 3618 01a6 01       		.uleb128 0x1
 3619 01a7 12       		.uleb128 0x12
 3620 01a8 06       		.uleb128 0x6
 3621 01a9 40       		.uleb128 0x40
 3622 01aa 18       		.uleb128 0x18
 3623 01ab 9742     		.uleb128 0x2117
 3624 01ad 19       		.uleb128 0x19
 3625 01ae 01       		.uleb128 0x1
 3626 01af 13       		.uleb128 0x13
 3627 01b0 00       		.byte	0
 3628 01b1 00       		.byte	0
 3629 01b2 23       		.uleb128 0x23
 3630 01b3 34       		.uleb128 0x34
 3631 01b4 00       		.byte	0
 3632 01b5 03       		.uleb128 0x3
 3633 01b6 08       		.uleb128 0x8
 3634 01b7 3A       		.uleb128 0x3a
 3635 01b8 0B       		.uleb128 0xb
 3636 01b9 3B       		.uleb128 0x3b
 3637 01ba 05       		.uleb128 0x5
 3638 01bb 49       		.uleb128 0x49
 3639 01bc 13       		.uleb128 0x13
 3640 01bd 02       		.uleb128 0x2
 3641 01be 17       		.uleb128 0x17
 3642 01bf 00       		.byte	0
 3643 01c0 00       		.byte	0
 3644 01c1 24       		.uleb128 0x24
 3645 01c2 898201   		.uleb128 0x4109
 3646 01c5 01       		.byte	0x1
 3647 01c6 11       		.uleb128 0x11
 3648 01c7 01       		.uleb128 0x1
ARM GAS  /var/folders/m4/4md61f0s1_g0rzfghffqnxvr0000gn/T//ccZRL7EU.s 			page 65


 3649 01c8 31       		.uleb128 0x31
 3650 01c9 13       		.uleb128 0x13
 3651 01ca 01       		.uleb128 0x1
 3652 01cb 13       		.uleb128 0x13
 3653 01cc 00       		.byte	0
 3654 01cd 00       		.byte	0
 3655 01ce 25       		.uleb128 0x25
 3656 01cf 898201   		.uleb128 0x4109
 3657 01d2 01       		.byte	0x1
 3658 01d3 11       		.uleb128 0x11
 3659 01d4 01       		.uleb128 0x1
 3660 01d5 9542     		.uleb128 0x2115
 3661 01d7 19       		.uleb128 0x19
 3662 01d8 31       		.uleb128 0x31
 3663 01d9 13       		.uleb128 0x13
 3664 01da 00       		.byte	0
 3665 01db 00       		.byte	0
 3666 01dc 26       		.uleb128 0x26
 3667 01dd 34       		.uleb128 0x34
 3668 01de 00       		.byte	0
 3669 01df 03       		.uleb128 0x3
 3670 01e0 0E       		.uleb128 0xe
 3671 01e1 3A       		.uleb128 0x3a
 3672 01e2 0B       		.uleb128 0xb
 3673 01e3 3B       		.uleb128 0x3b
 3674 01e4 05       		.uleb128 0x5
 3675 01e5 49       		.uleb128 0x49
 3676 01e6 13       		.uleb128 0x13
 3677 01e7 3F       		.uleb128 0x3f
 3678 01e8 19       		.uleb128 0x19
 3679 01e9 3C       		.uleb128 0x3c
 3680 01ea 19       		.uleb128 0x19
 3681 01eb 00       		.byte	0
 3682 01ec 00       		.byte	0
 3683 01ed 27       		.uleb128 0x27
 3684 01ee 34       		.uleb128 0x34
 3685 01ef 00       		.byte	0
 3686 01f0 03       		.uleb128 0x3
 3687 01f1 08       		.uleb128 0x8
 3688 01f2 3A       		.uleb128 0x3a
 3689 01f3 0B       		.uleb128 0xb
 3690 01f4 3B       		.uleb128 0x3b
 3691 01f5 05       		.uleb128 0x5
 3692 01f6 49       		.uleb128 0x49
 3693 01f7 13       		.uleb128 0x13
 3694 01f8 3F       		.uleb128 0x3f
 3695 01f9 19       		.uleb128 0x19
 3696 01fa 3C       		.uleb128 0x3c
 3697 01fb 19       		.uleb128 0x19
 3698 01fc 00       		.byte	0
 3699 01fd 00       		.byte	0
 3700 01fe 28       		.uleb128 0x28
 3701 01ff 34       		.uleb128 0x34
 3702 0200 00       		.byte	0
 3703 0201 03       		.uleb128 0x3
 3704 0202 0E       		.uleb128 0xe
 3705 0203 3A       		.uleb128 0x3a
ARM GAS  /var/folders/m4/4md61f0s1_g0rzfghffqnxvr0000gn/T//ccZRL7EU.s 			page 66


 3706 0204 0B       		.uleb128 0xb
 3707 0205 3B       		.uleb128 0x3b
 3708 0206 0B       		.uleb128 0xb
 3709 0207 49       		.uleb128 0x49
 3710 0208 13       		.uleb128 0x13
 3711 0209 3F       		.uleb128 0x3f
 3712 020a 19       		.uleb128 0x19
 3713 020b 3C       		.uleb128 0x3c
 3714 020c 19       		.uleb128 0x19
 3715 020d 00       		.byte	0
 3716 020e 00       		.byte	0
 3717 020f 29       		.uleb128 0x29
 3718 0210 2E       		.uleb128 0x2e
 3719 0211 00       		.byte	0
 3720 0212 3F       		.uleb128 0x3f
 3721 0213 19       		.uleb128 0x19
 3722 0214 3C       		.uleb128 0x3c
 3723 0215 19       		.uleb128 0x19
 3724 0216 6E       		.uleb128 0x6e
 3725 0217 0E       		.uleb128 0xe
 3726 0218 03       		.uleb128 0x3
 3727 0219 0E       		.uleb128 0xe
 3728 021a 3A       		.uleb128 0x3a
 3729 021b 0B       		.uleb128 0xb
 3730 021c 3B       		.uleb128 0x3b
 3731 021d 05       		.uleb128 0x5
 3732 021e 00       		.byte	0
 3733 021f 00       		.byte	0
 3734 0220 2A       		.uleb128 0x2a
 3735 0221 2E       		.uleb128 0x2e
 3736 0222 00       		.byte	0
 3737 0223 3F       		.uleb128 0x3f
 3738 0224 19       		.uleb128 0x19
 3739 0225 3C       		.uleb128 0x3c
 3740 0226 19       		.uleb128 0x19
 3741 0227 6E       		.uleb128 0x6e
 3742 0228 0E       		.uleb128 0xe
 3743 0229 03       		.uleb128 0x3
 3744 022a 0E       		.uleb128 0xe
 3745 022b 3A       		.uleb128 0x3a
 3746 022c 0B       		.uleb128 0xb
 3747 022d 3B       		.uleb128 0x3b
 3748 022e 0B       		.uleb128 0xb
 3749 022f 00       		.byte	0
 3750 0230 00       		.byte	0
 3751 0231 00       		.byte	0
 3752              		.section	.debug_loc,"",%progbits
 3753              	.Ldebug_loc0:
 3754              	.LLST0:
 3755 0000 06000000 		.4byte	.LVL0
 3756 0004 0E000000 		.4byte	.LVL1
 3757 0008 0100     		.2byte	0x1
 3758 000a 51       		.byte	0x51
 3759 000b 0E000000 		.4byte	.LVL1
 3760 000f 16000000 		.4byte	.LVL2
 3761 0013 0100     		.2byte	0x1
 3762 0015 53       		.byte	0x53
ARM GAS  /var/folders/m4/4md61f0s1_g0rzfghffqnxvr0000gn/T//ccZRL7EU.s 			page 67


 3763 0016 16000000 		.4byte	.LVL2
 3764 001a 1B000000 		.4byte	.LVL3-1
 3765 001e 0200     		.2byte	0x2
 3766 0020 72       		.byte	0x72
 3767 0021 14       		.sleb128 20
 3768 0022 00000000 		.4byte	0
 3769 0026 00000000 		.4byte	0
 3770              	.LLST1:
 3771 002a 06000000 		.4byte	.LVL5
 3772 002e 0E000000 		.4byte	.LVL6
 3773 0032 0100     		.2byte	0x1
 3774 0034 51       		.byte	0x51
 3775 0035 0E000000 		.4byte	.LVL6
 3776 0039 16000000 		.4byte	.LVL7
 3777 003d 0100     		.2byte	0x1
 3778 003f 53       		.byte	0x53
 3779 0040 16000000 		.4byte	.LVL7
 3780 0044 1B000000 		.4byte	.LVL8-1
 3781 0048 0200     		.2byte	0x2
 3782 004a 72       		.byte	0x72
 3783 004b 14       		.sleb128 20
 3784 004c 00000000 		.4byte	0
 3785 0050 00000000 		.4byte	0
 3786              	.LLST2:
 3787 0054 06000000 		.4byte	.LVL10
 3788 0058 0E000000 		.4byte	.LVL11
 3789 005c 0100     		.2byte	0x1
 3790 005e 51       		.byte	0x51
 3791 005f 0E000000 		.4byte	.LVL11
 3792 0063 16000000 		.4byte	.LVL12
 3793 0067 0100     		.2byte	0x1
 3794 0069 53       		.byte	0x53
 3795 006a 16000000 		.4byte	.LVL12
 3796 006e 1B000000 		.4byte	.LVL13-1
 3797 0072 0200     		.2byte	0x2
 3798 0074 72       		.byte	0x72
 3799 0075 14       		.sleb128 20
 3800 0076 00000000 		.4byte	0
 3801 007a 00000000 		.4byte	0
 3802              	.LLST3:
 3803 007e 06000000 		.4byte	.LVL15
 3804 0082 0E000000 		.4byte	.LVL16
 3805 0086 0100     		.2byte	0x1
 3806 0088 51       		.byte	0x51
 3807 0089 0E000000 		.4byte	.LVL16
 3808 008d 16000000 		.4byte	.LVL17
 3809 0091 0100     		.2byte	0x1
 3810 0093 53       		.byte	0x53
 3811 0094 16000000 		.4byte	.LVL17
 3812 0098 1B000000 		.4byte	.LVL18-1
 3813 009c 0200     		.2byte	0x2
 3814 009e 72       		.byte	0x72
 3815 009f 14       		.sleb128 20
 3816 00a0 00000000 		.4byte	0
 3817 00a4 00000000 		.4byte	0
 3818              	.LLST4:
 3819 00a8 06000000 		.4byte	.LVL20
ARM GAS  /var/folders/m4/4md61f0s1_g0rzfghffqnxvr0000gn/T//ccZRL7EU.s 			page 68


 3820 00ac 0E000000 		.4byte	.LVL21
 3821 00b0 0100     		.2byte	0x1
 3822 00b2 51       		.byte	0x51
 3823 00b3 0E000000 		.4byte	.LVL21
 3824 00b7 16000000 		.4byte	.LVL22
 3825 00bb 0100     		.2byte	0x1
 3826 00bd 53       		.byte	0x53
 3827 00be 16000000 		.4byte	.LVL22
 3828 00c2 1B000000 		.4byte	.LVL23-1
 3829 00c6 0200     		.2byte	0x2
 3830 00c8 72       		.byte	0x72
 3831 00c9 14       		.sleb128 20
 3832 00ca 00000000 		.4byte	0
 3833 00ce 00000000 		.4byte	0
 3834              	.LLST5:
 3835 00d2 06000000 		.4byte	.LVL25
 3836 00d6 0A000000 		.4byte	.LVL26
 3837 00da 0100     		.2byte	0x1
 3838 00dc 54       		.byte	0x54
 3839 00dd 0E000000 		.4byte	.LVL27
 3840 00e1 14000000 		.4byte	.LVL28
 3841 00e5 0100     		.2byte	0x1
 3842 00e7 52       		.byte	0x52
 3843 00e8 14000000 		.4byte	.LVL28
 3844 00ec 32000000 		.4byte	.LVL30
 3845 00f0 0700     		.2byte	0x7
 3846 00f2 74       		.byte	0x74
 3847 00f3 00       		.sleb128 0
 3848 00f4 0A       		.byte	0xa
 3849 00f5 E003     		.2byte	0x3e0
 3850 00f7 1A       		.byte	0x1a
 3851 00f8 9F       		.byte	0x9f
 3852 00f9 36000000 		.4byte	.LVL31
 3853 00fd 5A000000 		.4byte	.LVL35
 3854 0101 0700     		.2byte	0x7
 3855 0103 74       		.byte	0x74
 3856 0104 00       		.sleb128 0
 3857 0105 0A       		.byte	0xa
 3858 0106 E003     		.2byte	0x3e0
 3859 0108 1A       		.byte	0x1a
 3860 0109 9F       		.byte	0x9f
 3861 010a 5A000000 		.4byte	.LVL35
 3862 010e 63000000 		.4byte	.LVL36-1
 3863 0112 0100     		.2byte	0x1
 3864 0114 52       		.byte	0x52
 3865 0115 63000000 		.4byte	.LVL36-1
 3866 0119 70000000 		.4byte	.LFE273
 3867 011d 0700     		.2byte	0x7
 3868 011f 74       		.byte	0x74
 3869 0120 00       		.sleb128 0
 3870 0121 0A       		.byte	0xa
 3871 0122 E003     		.2byte	0x3e0
 3872 0124 1A       		.byte	0x1a
 3873 0125 9F       		.byte	0x9f
 3874 0126 00000000 		.4byte	0
 3875 012a 00000000 		.4byte	0
 3876              	.LLST6:
ARM GAS  /var/folders/m4/4md61f0s1_g0rzfghffqnxvr0000gn/T//ccZRL7EU.s 			page 69


 3877 012e 06000000 		.4byte	.LVL37
 3878 0132 0A000000 		.4byte	.LVL38
 3879 0136 0100     		.2byte	0x1
 3880 0138 54       		.byte	0x54
 3881 0139 0E000000 		.4byte	.LVL39
 3882 013d 12000000 		.4byte	.LVL40
 3883 0141 0100     		.2byte	0x1
 3884 0143 52       		.byte	0x52
 3885 0144 12000000 		.4byte	.LVL40
 3886 0148 14000000 		.4byte	.LVL41
 3887 014c 0200     		.2byte	0x2
 3888 014e 73       		.byte	0x73
 3889 014f 14       		.sleb128 20
 3890 0150 14000000 		.4byte	.LVL41
 3891 0154 36000000 		.4byte	.LVL43
 3892 0158 0700     		.2byte	0x7
 3893 015a 74       		.byte	0x74
 3894 015b 00       		.sleb128 0
 3895 015c 0A       		.byte	0xa
 3896 015d 00FC     		.2byte	0xfc00
 3897 015f 1A       		.byte	0x1a
 3898 0160 9F       		.byte	0x9f
 3899 0161 3A000000 		.4byte	.LVL44
 3900 0165 6A000000 		.4byte	.LVL49
 3901 0169 0700     		.2byte	0x7
 3902 016b 74       		.byte	0x74
 3903 016c 00       		.sleb128 0
 3904 016d 0A       		.byte	0xa
 3905 016e 00FC     		.2byte	0xfc00
 3906 0170 1A       		.byte	0x1a
 3907 0171 9F       		.byte	0x9f
 3908 0172 6A000000 		.4byte	.LVL49
 3909 0176 6E000000 		.4byte	.LVL50
 3910 017a 0200     		.2byte	0x2
 3911 017c 73       		.byte	0x73
 3912 017d 14       		.sleb128 20
 3913 017e 6E000000 		.4byte	.LVL50
 3914 0182 73000000 		.4byte	.LVL51-1
 3915 0186 0500     		.2byte	0x5
 3916 0188 0C       		.byte	0xc
 3917 0189 143C0140 		.4byte	0x40013c14
 3918 018d 73000000 		.4byte	.LVL51-1
 3919 0191 80000000 		.4byte	.LFE274
 3920 0195 0700     		.2byte	0x7
 3921 0197 74       		.byte	0x74
 3922 0198 00       		.sleb128 0
 3923 0199 0A       		.byte	0xa
 3924 019a 00FC     		.2byte	0xfc00
 3925 019c 1A       		.byte	0x1a
 3926 019d 9F       		.byte	0x9f
 3927 019e 00000000 		.4byte	0
 3928 01a2 00000000 		.4byte	0
 3929              	.LLST7:
 3930 01a6 0C000000 		.4byte	.LVL52
 3931 01aa 14000000 		.4byte	.LVL53
 3932 01ae 0100     		.2byte	0x1
 3933 01b0 53       		.byte	0x53
ARM GAS  /var/folders/m4/4md61f0s1_g0rzfghffqnxvr0000gn/T//ccZRL7EU.s 			page 70


 3934 01b1 14000000 		.4byte	.LVL53
 3935 01b5 1B000000 		.4byte	.LVL54-1
 3936 01b9 0200     		.2byte	0x2
 3937 01bb 72       		.byte	0x72
 3938 01bc 14       		.sleb128 20
 3939 01bd 00000000 		.4byte	0
 3940 01c1 00000000 		.4byte	0
 3941              	.LLST8:
 3942 01c5 0C000000 		.4byte	.LVL56
 3943 01c9 14000000 		.4byte	.LVL57
 3944 01cd 0100     		.2byte	0x1
 3945 01cf 53       		.byte	0x53
 3946 01d0 14000000 		.4byte	.LVL57
 3947 01d4 1B000000 		.4byte	.LVL58-1
 3948 01d8 0200     		.2byte	0x2
 3949 01da 72       		.byte	0x72
 3950 01db 14       		.sleb128 20
 3951 01dc 00000000 		.4byte	0
 3952 01e0 00000000 		.4byte	0
 3953              	.LLST9:
 3954 01e4 06000000 		.4byte	.LVL60
 3955 01e8 0E000000 		.4byte	.LVL61
 3956 01ec 0100     		.2byte	0x1
 3957 01ee 51       		.byte	0x51
 3958 01ef 0E000000 		.4byte	.LVL61
 3959 01f3 16000000 		.4byte	.LVL62
 3960 01f7 0100     		.2byte	0x1
 3961 01f9 53       		.byte	0x53
 3962 01fa 16000000 		.4byte	.LVL62
 3963 01fe 1D000000 		.4byte	.LVL63-1
 3964 0202 0200     		.2byte	0x2
 3965 0204 72       		.byte	0x72
 3966 0205 14       		.sleb128 20
 3967 0206 00000000 		.4byte	0
 3968 020a 00000000 		.4byte	0
 3969              	.LLST10:
 3970 020e 06000000 		.4byte	.LVL65
 3971 0212 0E000000 		.4byte	.LVL66
 3972 0216 0100     		.2byte	0x1
 3973 0218 51       		.byte	0x51
 3974 0219 0E000000 		.4byte	.LVL66
 3975 021d 16000000 		.4byte	.LVL67
 3976 0221 0100     		.2byte	0x1
 3977 0223 53       		.byte	0x53
 3978 0224 16000000 		.4byte	.LVL67
 3979 0228 1D000000 		.4byte	.LVL68-1
 3980 022c 0200     		.2byte	0x2
 3981 022e 72       		.byte	0x72
 3982 022f 14       		.sleb128 20
 3983 0230 00000000 		.4byte	0
 3984 0234 00000000 		.4byte	0
 3985              	.LLST11:
 3986 0238 06000000 		.4byte	.LVL70
 3987 023c 0E000000 		.4byte	.LVL71
 3988 0240 0100     		.2byte	0x1
 3989 0242 51       		.byte	0x51
 3990 0243 0E000000 		.4byte	.LVL71
ARM GAS  /var/folders/m4/4md61f0s1_g0rzfghffqnxvr0000gn/T//ccZRL7EU.s 			page 71


 3991 0247 16000000 		.4byte	.LVL72
 3992 024b 0100     		.2byte	0x1
 3993 024d 53       		.byte	0x53
 3994 024e 16000000 		.4byte	.LVL72
 3995 0252 1D000000 		.4byte	.LVL73-1
 3996 0256 0200     		.2byte	0x2
 3997 0258 72       		.byte	0x72
 3998 0259 14       		.sleb128 20
 3999 025a 00000000 		.4byte	0
 4000 025e 00000000 		.4byte	0
 4001              	.LLST12:
 4002 0262 06000000 		.4byte	.LVL75
 4003 0266 0E000000 		.4byte	.LVL76
 4004 026a 0100     		.2byte	0x1
 4005 026c 51       		.byte	0x51
 4006 026d 0E000000 		.4byte	.LVL76
 4007 0271 16000000 		.4byte	.LVL77
 4008 0275 0100     		.2byte	0x1
 4009 0277 53       		.byte	0x53
 4010 0278 16000000 		.4byte	.LVL77
 4011 027c 1D000000 		.4byte	.LVL78-1
 4012 0280 0200     		.2byte	0x2
 4013 0282 72       		.byte	0x72
 4014 0283 14       		.sleb128 20
 4015 0284 00000000 		.4byte	0
 4016 0288 00000000 		.4byte	0
 4017              		.section	.debug_aranges,"",%progbits
 4018 0000 8C000000 		.4byte	0x8c
 4019 0004 0200     		.2byte	0x2
 4020 0006 00000000 		.4byte	.Ldebug_info0
 4021 000a 04       		.byte	0x4
 4022 000b 00       		.byte	0
 4023 000c 0000     		.2byte	0
 4024 000e 0000     		.2byte	0
 4025 0010 00000000 		.4byte	.LFB268
 4026 0014 2C000000 		.4byte	.LFE268-.LFB268
 4027 0018 00000000 		.4byte	.LFB269
 4028 001c 2C000000 		.4byte	.LFE269-.LFB269
 4029 0020 00000000 		.4byte	.LFB270
 4030 0024 2C000000 		.4byte	.LFE270-.LFB270
 4031 0028 00000000 		.4byte	.LFB271
 4032 002c 2C000000 		.4byte	.LFE271-.LFB271
 4033 0030 00000000 		.4byte	.LFB272
 4034 0034 2C000000 		.4byte	.LFE272-.LFB272
 4035 0038 00000000 		.4byte	.LFB273
 4036 003c 70000000 		.4byte	.LFE273-.LFB273
 4037 0040 00000000 		.4byte	.LFB274
 4038 0044 80000000 		.4byte	.LFE274-.LFB274
 4039 0048 00000000 		.4byte	.LFB275
 4040 004c 2C000000 		.4byte	.LFE275-.LFB275
 4041 0050 00000000 		.4byte	.LFB276
 4042 0054 2C000000 		.4byte	.LFE276-.LFB276
 4043 0058 00000000 		.4byte	.LFB277
 4044 005c 30000000 		.4byte	.LFE277-.LFB277
 4045 0060 00000000 		.4byte	.LFB278
 4046 0064 30000000 		.4byte	.LFE278-.LFB278
 4047 0068 00000000 		.4byte	.LFB279
ARM GAS  /var/folders/m4/4md61f0s1_g0rzfghffqnxvr0000gn/T//ccZRL7EU.s 			page 72


 4048 006c 30000000 		.4byte	.LFE279-.LFB279
 4049 0070 00000000 		.4byte	.LFB280
 4050 0074 30000000 		.4byte	.LFE280-.LFB280
 4051 0078 00000000 		.4byte	.LFB281
 4052 007c 6E000000 		.4byte	.LFE281-.LFB281
 4053 0080 00000000 		.4byte	.LFB282
 4054 0084 54000000 		.4byte	.LFE282-.LFB282
 4055 0088 00000000 		.4byte	0
 4056 008c 00000000 		.4byte	0
 4057              		.section	.debug_ranges,"",%progbits
 4058              	.Ldebug_ranges0:
 4059 0000 00000000 		.4byte	.LFB268
 4060 0004 2C000000 		.4byte	.LFE268
 4061 0008 00000000 		.4byte	.LFB269
 4062 000c 2C000000 		.4byte	.LFE269
 4063 0010 00000000 		.4byte	.LFB270
 4064 0014 2C000000 		.4byte	.LFE270
 4065 0018 00000000 		.4byte	.LFB271
 4066 001c 2C000000 		.4byte	.LFE271
 4067 0020 00000000 		.4byte	.LFB272
 4068 0024 2C000000 		.4byte	.LFE272
 4069 0028 00000000 		.4byte	.LFB273
 4070 002c 70000000 		.4byte	.LFE273
 4071 0030 00000000 		.4byte	.LFB274
 4072 0034 80000000 		.4byte	.LFE274
 4073 0038 00000000 		.4byte	.LFB275
 4074 003c 2C000000 		.4byte	.LFE275
 4075 0040 00000000 		.4byte	.LFB276
 4076 0044 2C000000 		.4byte	.LFE276
 4077 0048 00000000 		.4byte	.LFB277
 4078 004c 30000000 		.4byte	.LFE277
 4079 0050 00000000 		.4byte	.LFB278
 4080 0054 30000000 		.4byte	.LFE278
 4081 0058 00000000 		.4byte	.LFB279
 4082 005c 30000000 		.4byte	.LFE279
 4083 0060 00000000 		.4byte	.LFB280
 4084 0064 30000000 		.4byte	.LFE280
 4085 0068 00000000 		.4byte	.LFB281
 4086 006c 6E000000 		.4byte	.LFE281
 4087 0070 00000000 		.4byte	.LFB282
 4088 0074 54000000 		.4byte	.LFE282
 4089 0078 00000000 		.4byte	0
 4090 007c 00000000 		.4byte	0
 4091              		.section	.debug_line,"",%progbits
 4092              	.Ldebug_line0:
 4093 0000 D6040000 		.section	.debug_str,"MS",%progbits,1
 4093      02003A03 
 4093      00000201 
 4093      FB0E0D00 
 4093      01010101 
 4094              	.LASF92:
 4095 0000 5254435F 		.ascii	"RTC_WKUP_IRQn\000"
 4095      574B5550 
 4095      5F495251 
 4095      6E00
 4096              	.LASF97:
 4097 000e 45585449 		.ascii	"EXTI2_IRQn\000"
ARM GAS  /var/folders/m4/4md61f0s1_g0rzfghffqnxvr0000gn/T//ccZRL7EU.s 			page 73


 4097      325F4952 
 4097      516E00
 4098              	.LASF106:
 4099 0019 444D4131 		.ascii	"DMA1_Stream6_IRQn\000"
 4099      5F537472 
 4099      65616D36 
 4099      5F495251 
 4099      6E00
 4100              	.LASF133:
 4101 002b 54494D38 		.ascii	"TIM8_UP_TIM13_IRQn\000"
 4101      5F55505F 
 4101      54494D31 
 4101      335F4952 
 4101      516E00
 4102              	.LASF167:
 4103 003e 73697A65 		.ascii	"sizetype\000"
 4103      74797065 
 4103      00
 4104              	.LASF182:
 4105 0047 77747365 		.ascii	"wtsemp\000"
 4105      6D7000
 4106              	.LASF26:
 4107 004e 73797374 		.ascii	"systime_t\000"
 4107      696D655F 
 4107      7400
 4108              	.LASF31:
 4109 0058 705F6374 		.ascii	"p_ctx\000"
 4109      7800
 4110              	.LASF22:
 4111 005e 74707269 		.ascii	"tprio_t\000"
 4111      6F5F7400 
 4112              	.LASF217:
 4113 0066 56656374 		.ascii	"VectorE8\000"
 4113      6F724538 
 4113      00
 4114              	.LASF41:
 4115 006f 705F6D73 		.ascii	"p_msgqueue\000"
 4115      67717565 
 4115      756500
 4116              	.LASF57:
 4117 007a 725F6374 		.ascii	"r_ctx\000"
 4117      7800
 4118              	.LASF14:
 4119 0080 696E7433 		.ascii	"int32_t\000"
 4119      325F7400 
 4120              	.LASF211:
 4121 0088 56656374 		.ascii	"Vector64\000"
 4121      6F723634 
 4121      00
 4122              	.LASF61:
 4123 0091 76746675 		.ascii	"vtfunc_t\000"
 4123      6E635F74 
 4123      00
 4124              	.LASF70:
 4125 009a 63685F76 		.ascii	"ch_virtual_timers_list\000"
 4125      69727475 
 4125      616C5F74 
ARM GAS  /var/folders/m4/4md61f0s1_g0rzfghffqnxvr0000gn/T//ccZRL7EU.s 			page 74


 4125      696D6572 
 4125      735F6C69 
 4126              	.LASF184:
 4127 00b1 65776D61 		.ascii	"ewmask\000"
 4127      736B00
 4128              	.LASF146:
 4129 00b8 444D4132 		.ascii	"DMA2_Stream1_IRQn\000"
 4129      5F537472 
 4129      65616D31 
 4129      5F495251 
 4129      6E00
 4130              	.LASF140:
 4131 00ca 53504933 		.ascii	"SPI3_IRQn\000"
 4131      5F495251 
 4131      6E00
 4132              	.LASF93:
 4133 00d4 464C4153 		.ascii	"FLASH_IRQn\000"
 4133      485F4952 
 4133      516E00
 4134              	.LASF201:
 4135 00df 636F6E66 		.ascii	"config\000"
 4135      696700
 4136              	.LASF200:
 4137 00e6 73746174 		.ascii	"state\000"
 4137      6500
 4138              	.LASF117:
 4139 00ec 54494D32 		.ascii	"TIM2_IRQn\000"
 4139      5F495251 
 4139      6E00
 4140              	.LASF205:
 4141 00f6 45585443 		.ascii	"EXTChannelConfig\000"
 4141      68616E6E 
 4141      656C436F 
 4141      6E666967 
 4141      00
 4142              	.LASF169:
 4143 0107 46545352 		.ascii	"FTSR\000"
 4143      00
 4144              	.LASF151:
 4145 010c 43414E32 		.ascii	"CAN2_RX0_IRQn\000"
 4145      5F525830 
 4145      5F495251 
 4145      6E00
 4146              	.LASF158:
 4147 011a 55534152 		.ascii	"USART6_IRQn\000"
 4147      54365F49 
 4147      52516E00 
 4148              	.LASF190:
 4149 0126 6D5F6F77 		.ascii	"m_owner\000"
 4149      6E657200 
 4150              	.LASF68:
 4151 012e 76745F70 		.ascii	"vt_par\000"
 4151      617200
 4152              	.LASF179:
 4153 0135 65786974 		.ascii	"exitcode\000"
 4153      636F6465 
 4153      00
ARM GAS  /var/folders/m4/4md61f0s1_g0rzfghffqnxvr0000gn/T//ccZRL7EU.s 			page 75


 4154              	.LASF5:
 4155 013e 5F5F7569 		.ascii	"__uint8_t\000"
 4155      6E74385F 
 4155      7400
 4156              	.LASF163:
 4157 0148 4F54475F 		.ascii	"OTG_HS_WKUP_IRQn\000"
 4157      48535F57 
 4157      4B55505F 
 4157      4952516E 
 4157      00
 4158              	.LASF125:
 4159 0159 53504932 		.ascii	"SPI2_IRQn\000"
 4159      5F495251 
 4159      6E00
 4160              	.LASF132:
 4161 0163 54494D38 		.ascii	"TIM8_BRK_TIM12_IRQn\000"
 4161      5F42524B 
 4161      5F54494D 
 4161      31325F49 
 4161      52516E00 
 4162              	.LASF32:
 4163 0177 705F6E65 		.ascii	"p_newer\000"
 4163      77657200 
 4164              	.LASF7:
 4165 017f 6C6F6E67 		.ascii	"long int\000"
 4165      20696E74 
 4165      00
 4166              	.LASF28:
 4167 0188 705F6E65 		.ascii	"p_next\000"
 4167      787400
 4168              	.LASF29:
 4169 018f 705F7072 		.ascii	"p_prev\000"
 4169      657600
 4170              	.LASF155:
 4171 0196 444D4132 		.ascii	"DMA2_Stream5_IRQn\000"
 4171      5F537472 
 4171      65616D35 
 4171      5F495251 
 4171      6E00
 4172              	.LASF19:
 4173 01a8 74737461 		.ascii	"tstate_t\000"
 4173      74655F74 
 4173      00
 4174              	.LASF51:
 4175 01b1 74687265 		.ascii	"threads_queue_t\000"
 4175      6164735F 
 4175      71756575 
 4175      655F7400 
 4176              	.LASF44:
 4177 01c1 705F6D74 		.ascii	"p_mtxlist\000"
 4177      786C6973 
 4177      7400
 4178              	.LASF115:
 4179 01cb 54494D31 		.ascii	"TIM1_TRG_COM_TIM11_IRQn\000"
 4179      5F545247 
 4179      5F434F4D 
 4179      5F54494D 
ARM GAS  /var/folders/m4/4md61f0s1_g0rzfghffqnxvr0000gn/T//ccZRL7EU.s 			page 76


 4179      31315F49 
 4180              	.LASF168:
 4181 01e3 52545352 		.ascii	"RTSR\000"
 4181      00
 4182              	.LASF171:
 4183 01e8 45585449 		.ascii	"EXTI_TypeDef\000"
 4183      5F547970 
 4183      65446566 
 4183      00
 4184              	.LASF88:
 4185 01f5 53797354 		.ascii	"SysTick_IRQn\000"
 4185      69636B5F 
 4185      4952516E 
 4185      00
 4186              	.LASF128:
 4187 0202 55534152 		.ascii	"USART3_IRQn\000"
 4187      54335F49 
 4187      52516E00 
 4188              	.LASF198:
 4189 020e 65787473 		.ascii	"extstate_t\000"
 4189      74617465 
 4189      5F7400
 4190              	.LASF1:
 4191 0219 7369676E 		.ascii	"signed char\000"
 4191      65642063 
 4191      68617200 
 4192              	.LASF38:
 4193 0225 705F7072 		.ascii	"p_preempt\000"
 4193      65656D70 
 4193      7400
 4194              	.LASF13:
 4195 022f 75696E74 		.ascii	"uint8_t\000"
 4195      385F7400 
 4196              	.LASF24:
 4197 0237 6576656E 		.ascii	"eventmask_t\000"
 4197      746D6173 
 4197      6B5F7400 
 4198              	.LASF174:
 4199 0243 636F6E74 		.ascii	"context\000"
 4199      65787400 
 4200              	.LASF181:
 4201 024b 77747472 		.ascii	"wttrp\000"
 4201      7000
 4202              	.LASF102:
 4203 0251 444D4131 		.ascii	"DMA1_Stream2_IRQn\000"
 4203      5F537472 
 4203      65616D32 
 4203      5F495251 
 4203      6E00
 4204              	.LASF2:
 4205 0263 756E7369 		.ascii	"unsigned char\000"
 4205      676E6564 
 4205      20636861 
 4205      7200
 4206              	.LASF149:
 4207 0271 444D4132 		.ascii	"DMA2_Stream4_IRQn\000"
 4207      5F537472 
ARM GAS  /var/folders/m4/4md61f0s1_g0rzfghffqnxvr0000gn/T//ccZRL7EU.s 			page 77


 4207      65616D34 
 4207      5F495251 
 4207      6E00
 4208              	.LASF222:
 4209 0283 6578745F 		.ascii	"ext_lld_exti_irq_disable\000"
 4209      6C6C645F 
 4209      65787469 
 4209      5F697271 
 4209      5F646973 
 4210              	.LASF74:
 4211 029c 70616E69 		.ascii	"panic_msg\000"
 4211      635F6D73 
 4211      6700
 4212              	.LASF121:
 4213 02a6 49324331 		.ascii	"I2C1_ER_IRQn\000"
 4213      5F45525F 
 4213      4952516E 
 4213      00
 4214              	.LASF58:
 4215 02b3 725F6E65 		.ascii	"r_newer\000"
 4215      77657200 
 4216              	.LASF72:
 4217 02bb 73797374 		.ascii	"system_debug_t\000"
 4217      656D5F64 
 4217      65627567 
 4217      5F7400
 4218              	.LASF153:
 4219 02ca 43414E32 		.ascii	"CAN2_SCE_IRQn\000"
 4219      5F534345 
 4219      5F495251 
 4219      6E00
 4220              	.LASF194:
 4221 02d8 5F426F6F 		.ascii	"_Bool\000"
 4221      6C00
 4222              	.LASF139:
 4223 02de 54494D35 		.ascii	"TIM5_IRQn\000"
 4223      5F495251 
 4223      6E00
 4224              	.LASF84:
 4225 02e8 55736167 		.ascii	"UsageFault_IRQn\000"
 4225      65466175 
 4225      6C745F49 
 4225      52516E00 
 4226              	.LASF192:
 4227 02f8 63686172 		.ascii	"char\000"
 4227      00
 4228              	.LASF30:
 4229 02fd 705F7072 		.ascii	"p_prio\000"
 4229      696F00
 4230              	.LASF229:
 4231 0304 43686962 		.ascii	"ChibiOS_16.1.4/os/hal/ports/STM32/STM32F4xx/ext_lld"
 4231      694F535F 
 4231      31362E31 
 4231      2E342F6F 
 4231      732F6861 
 4232 0337 5F697372 		.ascii	"_isr.c\000"
 4232      2E6300
ARM GAS  /var/folders/m4/4md61f0s1_g0rzfghffqnxvr0000gn/T//ccZRL7EU.s 			page 78


 4233              	.LASF180:
 4234 033e 77746F62 		.ascii	"wtobjp\000"
 4234      6A7000
 4235              	.LASF109:
 4236 0345 43414E31 		.ascii	"CAN1_RX0_IRQn\000"
 4236      5F525830 
 4236      5F495251 
 4236      6E00
 4237              	.LASF173:
 4238 0353 73746B61 		.ascii	"stkalign_t\000"
 4238      6C69676E 
 4238      5F7400
 4239              	.LASF119:
 4240 035e 54494D34 		.ascii	"TIM4_IRQn\000"
 4240      5F495251 
 4240      6E00
 4241              	.LASF127:
 4242 0368 55534152 		.ascii	"USART2_IRQn\000"
 4242      54325F49 
 4242      52516E00 
 4243              	.LASF25:
 4244 0374 636E745F 		.ascii	"cnt_t\000"
 4244      7400
 4245              	.LASF120:
 4246 037a 49324331 		.ascii	"I2C1_EV_IRQn\000"
 4246      5F45565F 
 4246      4952516E 
 4246      00
 4247              	.LASF67:
 4248 0387 76745F66 		.ascii	"vt_func\000"
 4248      756E6300 
 4249              	.LASF43:
 4250 038f 705F6570 		.ascii	"p_epending\000"
 4250      656E6469 
 4250      6E6700
 4251              	.LASF183:
 4252 039a 77746D74 		.ascii	"wtmtxp\000"
 4252      787000
 4253              	.LASF54:
 4254 03a1 63685F72 		.ascii	"ch_ready_list\000"
 4254      65616479 
 4254      5F6C6973 
 4254      7400
 4255              	.LASF196:
 4256 03af 4558545F 		.ascii	"EXT_STOP\000"
 4256      53544F50 
 4256      00
 4257              	.LASF215:
 4258 03b8 56656374 		.ascii	"Vector44\000"
 4258      6F723434 
 4258      00
 4259              	.LASF219:
 4260 03c1 56656374 		.ascii	"Vector48\000"
 4260      6F723438 
 4260      00
 4261              	.LASF116:
 4262 03ca 54494D31 		.ascii	"TIM1_CC_IRQn\000"
ARM GAS  /var/folders/m4/4md61f0s1_g0rzfghffqnxvr0000gn/T//ccZRL7EU.s 			page 79


 4262      5F43435F 
 4262      4952516E 
 4262      00
 4263              	.LASF165:
 4264 03d7 48415348 		.ascii	"HASH_RNG_IRQn\000"
 4264      5F524E47 
 4264      5F495251 
 4264      6E00
 4265              	.LASF96:
 4266 03e5 45585449 		.ascii	"EXTI1_IRQn\000"
 4266      315F4952 
 4266      516E00
 4267              	.LASF220:
 4268 03f0 56656374 		.ascii	"Vector4C\000"
 4268      6F723443 
 4268      00
 4269              	.LASF108:
 4270 03f9 43414E31 		.ascii	"CAN1_TX_IRQn\000"
 4270      5F54585F 
 4270      4952516E 
 4270      00
 4271              	.LASF105:
 4272 0406 444D4131 		.ascii	"DMA1_Stream5_IRQn\000"
 4272      5F537472 
 4272      65616D35 
 4272      5F495251 
 4272      6E00
 4273              	.LASF134:
 4274 0418 54494D38 		.ascii	"TIM8_TRG_COM_TIM14_IRQn\000"
 4274      5F545247 
 4274      5F434F4D 
 4274      5F54494D 
 4274      31345F49 
 4275              	.LASF157:
 4276 0430 444D4132 		.ascii	"DMA2_Stream7_IRQn\000"
 4276      5F537472 
 4276      65616D37 
 4276      5F495251 
 4276      6E00
 4277              	.LASF154:
 4278 0442 4F54475F 		.ascii	"OTG_FS_IRQn\000"
 4278      46535F49 
 4278      52516E00 
 4279              	.LASF81:
 4280 044e 4E6F6E4D 		.ascii	"NonMaskableInt_IRQn\000"
 4280      61736B61 
 4280      626C6549 
 4280      6E745F49 
 4280      52516E00 
 4281              	.LASF11:
 4282 0462 5F5F7569 		.ascii	"__uint64_t\000"
 4282      6E743634 
 4282      5F7400
 4283              	.LASF195:
 4284 046d 4558545F 		.ascii	"EXT_UNINIT\000"
 4284      554E494E 
 4284      495400
ARM GAS  /var/folders/m4/4md61f0s1_g0rzfghffqnxvr0000gn/T//ccZRL7EU.s 			page 80


 4285              	.LASF89:
 4286 0478 57574447 		.ascii	"WWDG_IRQn\000"
 4286      5F495251 
 4286      6E00
 4287              	.LASF9:
 4288 0482 6C6F6E67 		.ascii	"long unsigned int\000"
 4288      20756E73 
 4288      69676E65 
 4288      6420696E 
 4288      7400
 4289              	.LASF208:
 4290 0494 56656374 		.ascii	"Vector58\000"
 4290      6F723538 
 4290      00
 4291              	.LASF82:
 4292 049d 4D656D6F 		.ascii	"MemoryManagement_IRQn\000"
 4292      72794D61 
 4292      6E616765 
 4292      6D656E74 
 4292      5F495251 
 4293              	.LASF209:
 4294 04b3 56656374 		.ascii	"Vector5C\000"
 4294      6F723543 
 4294      00
 4295              	.LASF185:
 4296 04bc 63685F73 		.ascii	"ch_semaphore\000"
 4296      656D6170 
 4296      686F7265 
 4296      00
 4297              	.LASF91:
 4298 04c9 54414D50 		.ascii	"TAMP_STAMP_IRQn\000"
 4298      5F535441 
 4298      4D505F49 
 4298      52516E00 
 4299              	.LASF207:
 4300 04d9 45585443 		.ascii	"EXTConfig\000"
 4300      6F6E6669 
 4300      6700
 4301              	.LASF49:
 4302 04e3 63685F74 		.ascii	"ch_thread\000"
 4302      68726561 
 4302      6400
 4303              	.LASF111:
 4304 04ed 43414E31 		.ascii	"CAN1_SCE_IRQn\000"
 4304      5F534345 
 4304      5F495251 
 4304      6E00
 4305              	.LASF69:
 4306 04fb 76697274 		.ascii	"virtual_timers_list_t\000"
 4306      75616C5F 
 4306      74696D65 
 4306      72735F6C 
 4306      6973745F 
 4307              	.LASF145:
 4308 0511 444D4132 		.ascii	"DMA2_Stream0_IRQn\000"
 4308      5F537472 
 4308      65616D30 
ARM GAS  /var/folders/m4/4md61f0s1_g0rzfghffqnxvr0000gn/T//ccZRL7EU.s 			page 81


 4308      5F495251 
 4308      6E00
 4309              	.LASF210:
 4310 0523 56656374 		.ascii	"Vector60\000"
 4310      6F723630 
 4310      00
 4311              	.LASF62:
 4312 052c 76697274 		.ascii	"virtual_timer_t\000"
 4312      75616C5F 
 4312      74696D65 
 4312      725F7400 
 4313              	.LASF53:
 4314 053c 72656164 		.ascii	"ready_list_t\000"
 4314      795F6C69 
 4314      73745F74 
 4314      00
 4315              	.LASF212:
 4316 0549 56656374 		.ascii	"Vector68\000"
 4316      6F723638 
 4316      00
 4317              	.LASF123:
 4318 0552 49324332 		.ascii	"I2C2_ER_IRQn\000"
 4318      5F45525F 
 4318      4952516E 
 4318      00
 4319              	.LASF50:
 4320 055f 63685F74 		.ascii	"ch_threads_list\000"
 4320      68726561 
 4320      64735F6C 
 4320      69737400 
 4321              	.LASF83:
 4322 056f 42757346 		.ascii	"BusFault_IRQn\000"
 4322      61756C74 
 4322      5F495251 
 4322      6E00
 4323              	.LASF142:
 4324 057d 55415254 		.ascii	"UART5_IRQn\000"
 4324      355F4952 
 4324      516E00
 4325              	.LASF113:
 4326 0588 54494D31 		.ascii	"TIM1_BRK_TIM9_IRQn\000"
 4326      5F42524B 
 4326      5F54494D 
 4326      395F4952 
 4326      516E00
 4327              	.LASF8:
 4328 059b 5F5F7569 		.ascii	"__uint32_t\000"
 4328      6E743332 
 4328      5F7400
 4329              	.LASF144:
 4330 05a6 54494D37 		.ascii	"TIM7_IRQn\000"
 4330      5F495251 
 4330      6E00
 4331              	.LASF10:
 4332 05b0 6C6F6E67 		.ascii	"long long int\000"
 4332      206C6F6E 
 4332      6720696E 
ARM GAS  /var/folders/m4/4md61f0s1_g0rzfghffqnxvr0000gn/T//ccZRL7EU.s 			page 82


 4332      7400
 4333              	.LASF164:
 4334 05be 4F54475F 		.ascii	"OTG_HS_IRQn\000"
 4334      48535F49 
 4334      52516E00 
 4335              	.LASF189:
 4336 05ca 6D5F7175 		.ascii	"m_queue\000"
 4336      65756500 
 4337              	.LASF197:
 4338 05d2 4558545F 		.ascii	"EXT_ACTIVE\000"
 4338      41435449 
 4338      564500
 4339              	.LASF64:
 4340 05dd 76745F6E 		.ascii	"vt_next\000"
 4340      65787400 
 4341              	.LASF124:
 4342 05e5 53504931 		.ascii	"SPI1_IRQn\000"
 4342      5F495251 
 4342      6E00
 4343              	.LASF224:
 4344 05ef 45585444 		.ascii	"EXTD1\000"
 4344      3100
 4345              	.LASF65:
 4346 05f5 76745F70 		.ascii	"vt_prev\000"
 4346      72657600 
 4347              	.LASF85:
 4348 05fd 53564361 		.ascii	"SVCall_IRQn\000"
 4348      6C6C5F49 
 4348      52516E00 
 4349              	.LASF166:
 4350 0609 4650555F 		.ascii	"FPU_IRQn\000"
 4350      4952516E 
 4350      00
 4351              	.LASF141:
 4352 0612 55415254 		.ascii	"UART4_IRQn\000"
 4352      345F4952 
 4352      516E00
 4353              	.LASF40:
 4354 061d 705F7761 		.ascii	"p_waiting\000"
 4354      6974696E 
 4354      6700
 4355              	.LASF131:
 4356 0627 4F54475F 		.ascii	"OTG_FS_WKUP_IRQn\000"
 4356      46535F57 
 4356      4B55505F 
 4356      4952516E 
 4356      00
 4357              	.LASF36:
 4358 0638 705F666C 		.ascii	"p_flags\000"
 4358      61677300 
 4359              	.LASF213:
 4360 0640 56656374 		.ascii	"Vector9C\000"
 4360      6F723943 
 4360      00
 4361              	.LASF80:
 4362 0649 69646C65 		.ascii	"idle_thread_wa\000"
 4362      5F746872 
ARM GAS  /var/folders/m4/4md61f0s1_g0rzfghffqnxvr0000gn/T//ccZRL7EU.s 			page 83


 4362      6561645F 
 4362      776100
 4363              	.LASF0:
 4364 0658 756E7369 		.ascii	"unsigned int\000"
 4364      676E6564 
 4364      20696E74 
 4364      00
 4365              	.LASF17:
 4366 0665 7274636E 		.ascii	"rtcnt_t\000"
 4366      745F7400 
 4367              	.LASF46:
 4368 066d 705F6D70 		.ascii	"p_mpool\000"
 4368      6F6F6C00 
 4369              	.LASF122:
 4370 0675 49324332 		.ascii	"I2C2_EV_IRQn\000"
 4370      5F45565F 
 4370      4952516E 
 4370      00
 4371              	.LASF37:
 4372 0682 705F7265 		.ascii	"p_refs\000"
 4372      667300
 4373              	.LASF225:
 4374 0689 5F706F72 		.ascii	"_port_irq_epilogue\000"
 4374      745F6972 
 4374      715F6570 
 4374      696C6F67 
 4374      756500
 4375              	.LASF176:
 4376 069c 6F666673 		.ascii	"offset\000"
 4376      657400
 4377              	.LASF101:
 4378 06a3 444D4131 		.ascii	"DMA1_Stream1_IRQn\000"
 4378      5F537472 
 4378      65616D31 
 4378      5F495251 
 4378      6E00
 4379              	.LASF148:
 4380 06b5 444D4132 		.ascii	"DMA2_Stream3_IRQn\000"
 4380      5F537472 
 4380      65616D33 
 4380      5F495251 
 4380      6E00
 4381              	.LASF150:
 4382 06c7 43414E32 		.ascii	"CAN2_TX_IRQn\000"
 4382      5F54585F 
 4382      4952516E 
 4382      00
 4383              	.LASF172:
 4384 06d4 72656761 		.ascii	"regarm_t\000"
 4384      726D5F74 
 4384      00
 4385              	.LASF39:
 4386 06dd 705F7469 		.ascii	"p_time\000"
 4386      6D6500
 4387              	.LASF221:
 4388 06e4 6578745F 		.ascii	"ext_lld_exti_irq_enable\000"
 4388      6C6C645F 
ARM GAS  /var/folders/m4/4md61f0s1_g0rzfghffqnxvr0000gn/T//ccZRL7EU.s 			page 84


 4388      65787469 
 4388      5F697271 
 4388      5F656E61 
 4389              	.LASF203:
 4390 06fc 65787463 		.ascii	"extcallback_t\000"
 4390      616C6C62 
 4390      61636B5F 
 4390      7400
 4391              	.LASF27:
 4392 070a 74687265 		.ascii	"thread_t\000"
 4392      61645F74 
 4392      00
 4393              	.LASF227:
 4394 0713 6E766963 		.ascii	"nvicDisableVector\000"
 4394      44697361 
 4394      626C6556 
 4394      6563746F 
 4394      7200
 4395              	.LASF47:
 4396 0725 74687265 		.ascii	"thread_reference_t\000"
 4396      61645F72 
 4396      65666572 
 4396      656E6365 
 4396      5F7400
 4397              	.LASF45:
 4398 0738 705F7265 		.ascii	"p_realprio\000"
 4398      616C7072 
 4398      696F00
 4399              	.LASF228:
 4400 0743 474E5520 		.ascii	"GNU C99 5.2.1 20151202 (release) [ARM/embedded-5-br"
 4400      43393920 
 4400      352E322E 
 4400      31203230 
 4400      31353132 
 4401 0776 616E6368 		.ascii	"anch revision 231848] -mcpu=cortex-m4 -mfloat-abi=h"
 4401      20726576 
 4401      6973696F 
 4401      6E203233 
 4401      31383438 
 4402 07a9 61726420 		.ascii	"ard -mfpu=fpv4-sp-d16 -mno-thumb-interwork -mthumb "
 4402      2D6D6670 
 4402      753D6670 
 4402      76342D73 
 4402      702D6431 
 4403 07dc 2D676764 		.ascii	"-ggdb -O2 -std=c99 -fomit-frame-pointer -falign-fun"
 4403      62202D4F 
 4403      32202D73 
 4403      74643D63 
 4403      3939202D 
 4404 080f 6374696F 		.ascii	"ctions=16 -fsingle-precision-constant -ffunction-se"
 4404      6E733D31 
 4404      36202D66 
 4404      73696E67 
 4404      6C652D70 
 4405 0842 6374696F 		.ascii	"ctions -fdata-sections -fno-common\000"
 4405      6E73202D 
 4405      66646174 
ARM GAS  /var/folders/m4/4md61f0s1_g0rzfghffqnxvr0000gn/T//ccZRL7EU.s 			page 85


 4405      612D7365 
 4405      6374696F 
 4406              	.LASF175:
 4407 0865 706F7274 		.ascii	"port_intctx\000"
 4407      5F696E74 
 4407      63747800 
 4408              	.LASF66:
 4409 0871 76745F64 		.ascii	"vt_delta\000"
 4409      656C7461 
 4409      00
 4410              	.LASF100:
 4411 087a 444D4131 		.ascii	"DMA1_Stream0_IRQn\000"
 4411      5F537472 
 4411      65616D30 
 4411      5F495251 
 4411      6E00
 4412              	.LASF170:
 4413 088c 53574945 		.ascii	"SWIER\000"
 4413      5200
 4414              	.LASF63:
 4415 0892 63685F76 		.ascii	"ch_virtual_timer\000"
 4415      69727475 
 4415      616C5F74 
 4415      696D6572 
 4415      00
 4416              	.LASF130:
 4417 08a3 5254435F 		.ascii	"RTC_Alarm_IRQn\000"
 4417      416C6172 
 4417      6D5F4952 
 4417      516E00
 4418              	.LASF187:
 4419 08b2 735F636E 		.ascii	"s_cnt\000"
 4419      7400
 4420              	.LASF160:
 4421 08b8 49324333 		.ascii	"I2C3_ER_IRQn\000"
 4421      5F45525F 
 4421      4952516E 
 4421      00
 4422              	.LASF129:
 4423 08c5 45585449 		.ascii	"EXTI15_10_IRQn\000"
 4423      31355F31 
 4423      305F4952 
 4423      516E00
 4424              	.LASF12:
 4425 08d4 6C6F6E67 		.ascii	"long long unsigned int\000"
 4425      206C6F6E 
 4425      6720756E 
 4425      7369676E 
 4425      65642069 
 4426              	.LASF33:
 4427 08eb 705F6F6C 		.ascii	"p_older\000"
 4427      64657200 
 4428              	.LASF23:
 4429 08f3 6D73675F 		.ascii	"msg_t\000"
 4429      7400
 4430              	.LASF52:
 4431 08f9 63685F74 		.ascii	"ch_threads_queue\000"
ARM GAS  /var/folders/m4/4md61f0s1_g0rzfghffqnxvr0000gn/T//ccZRL7EU.s 			page 86


 4431      68726561 
 4431      64735F71 
 4431      75657565 
 4431      00
 4432              	.LASF118:
 4433 090a 54494D33 		.ascii	"TIM3_IRQn\000"
 4433      5F495251 
 4433      6E00
 4434              	.LASF126:
 4435 0914 55534152 		.ascii	"USART1_IRQn\000"
 4435      54315F49 
 4435      52516E00 
 4436              	.LASF21:
 4437 0920 74736C69 		.ascii	"tslices_t\000"
 4437      6365735F 
 4437      7400
 4438              	.LASF206:
 4439 092a 6368616E 		.ascii	"channels\000"
 4439      6E656C73 
 4439      00
 4440              	.LASF60:
 4441 0933 725F6375 		.ascii	"r_current\000"
 4441      7272656E 
 4441      7400
 4442              	.LASF152:
 4443 093d 43414E32 		.ascii	"CAN2_RX1_IRQn\000"
 4443      5F525831 
 4443      5F495251 
 4443      6E00
 4444              	.LASF107:
 4445 094b 4144435F 		.ascii	"ADC_IRQn\000"
 4445      4952516E 
 4445      00
 4446              	.LASF79:
 4447 0954 6D61696E 		.ascii	"mainthread\000"
 4447      74687265 
 4447      616400
 4448              	.LASF55:
 4449 095f 725F7175 		.ascii	"r_queue\000"
 4449      65756500 
 4450              	.LASF90:
 4451 0967 5056445F 		.ascii	"PVD_IRQn\000"
 4451      4952516E 
 4451      00
 4452              	.LASF137:
 4453 0970 46534D43 		.ascii	"FSMC_IRQn\000"
 4453      5F495251 
 4453      6E00
 4454              	.LASF95:
 4455 097a 45585449 		.ascii	"EXTI0_IRQn\000"
 4455      305F4952 
 4455      516E00
 4456              	.LASF77:
 4457 0985 726C6973 		.ascii	"rlist\000"
 4457      7400
 4458              	.LASF18:
 4459 098b 746D6F64 		.ascii	"tmode_t\000"
ARM GAS  /var/folders/m4/4md61f0s1_g0rzfghffqnxvr0000gn/T//ccZRL7EU.s 			page 87


 4459      655F7400 
 4460              	.LASF104:
 4461 0993 444D4131 		.ascii	"DMA1_Stream4_IRQn\000"
 4461      5F537472 
 4461      65616D34 
 4461      5F495251 
 4461      6E00
 4462              	.LASF202:
 4463 09a5 65787063 		.ascii	"expchannel_t\000"
 4463      68616E6E 
 4463      656C5F74 
 4463      00
 4464              	.LASF156:
 4465 09b2 444D4132 		.ascii	"DMA2_Stream6_IRQn\000"
 4465      5F537472 
 4465      65616D36 
 4465      5F495251 
 4465      6E00
 4466              	.LASF230:
 4467 09c4 2F557365 		.ascii	"/Users/raphael/Documents/Projects/rESC/resc-firmwar"
 4467      72732F72 
 4467      61706861 
 4467      656C2F44 
 4467      6F63756D 
 4468 09f7 6500     		.ascii	"e\000"
 4469              	.LASF86:
 4470 09f9 44656275 		.ascii	"DebugMonitor_IRQn\000"
 4470      674D6F6E 
 4470      69746F72 
 4470      5F495251 
 4470      6E00
 4471              	.LASF71:
 4472 0a0b 76745F73 		.ascii	"vt_systime\000"
 4472      79737469 
 4472      6D6500
 4473              	.LASF159:
 4474 0a16 49324333 		.ascii	"I2C3_EV_IRQn\000"
 4474      5F45565F 
 4474      4952516E 
 4474      00
 4475              	.LASF59:
 4476 0a23 725F6F6C 		.ascii	"r_older\000"
 4476      64657200 
 4477              	.LASF177:
 4478 0a2b 746D5F63 		.ascii	"tm_calibration_t\000"
 4478      616C6962 
 4478      72617469 
 4478      6F6E5F74 
 4478      00
 4479              	.LASF186:
 4480 0a3c 735F7175 		.ascii	"s_queue\000"
 4480      65756500 
 4481              	.LASF3:
 4482 0a44 73686F72 		.ascii	"short int\000"
 4482      7420696E 
 4482      7400
 4483              	.LASF16:
ARM GAS  /var/folders/m4/4md61f0s1_g0rzfghffqnxvr0000gn/T//ccZRL7EU.s 			page 88


 4484 0a4e 75696E74 		.ascii	"uint64_t\000"
 4484      36345F74 
 4484      00
 4485              	.LASF94:
 4486 0a57 5243435F 		.ascii	"RCC_IRQn\000"
 4486      4952516E 
 4486      00
 4487              	.LASF204:
 4488 0a60 6D6F6465 		.ascii	"mode\000"
 4488      00
 4489              	.LASF188:
 4490 0a65 63685F6D 		.ascii	"ch_mutex\000"
 4490      75746578 
 4490      00
 4491              	.LASF56:
 4492 0a6e 725F7072 		.ascii	"r_prio\000"
 4492      696F00
 4493              	.LASF103:
 4494 0a75 444D4131 		.ascii	"DMA1_Stream3_IRQn\000"
 4494      5F537472 
 4494      65616D33 
 4494      5F495251 
 4494      6E00
 4495              	.LASF73:
 4496 0a87 63685F73 		.ascii	"ch_system_debug\000"
 4496      79737465 
 4496      6D5F6465 
 4496      62756700 
 4497              	.LASF114:
 4498 0a97 54494D31 		.ascii	"TIM1_UP_TIM10_IRQn\000"
 4498      5F55505F 
 4498      54494D31 
 4498      305F4952 
 4498      516E00
 4499              	.LASF223:
 4500 0aaa 49544D5F 		.ascii	"ITM_RxBuffer\000"
 4500      52784275 
 4500      66666572 
 4500      00
 4501              	.LASF78:
 4502 0ab7 76746C69 		.ascii	"vtlist\000"
 4502      737400
 4503              	.LASF218:
 4504 0abe 56656374 		.ascii	"Vector170\000"
 4504      6F723137 
 4504      3000
 4505              	.LASF193:
 4506 0ac8 6D757465 		.ascii	"mutex_t\000"
 4506      785F7400 
 4507              	.LASF20:
 4508 0ad0 74726566 		.ascii	"trefs_t\000"
 4508      735F7400 
 4509              	.LASF161:
 4510 0ad8 4F54475F 		.ascii	"OTG_HS_EP1_OUT_IRQn\000"
 4510      48535F45 
 4510      50315F4F 
 4510      55545F49 
ARM GAS  /var/folders/m4/4md61f0s1_g0rzfghffqnxvr0000gn/T//ccZRL7EU.s 			page 89


 4510      52516E00 
 4511              	.LASF48:
 4512 0aec 74687265 		.ascii	"threads_list_t\000"
 4512      6164735F 
 4512      6C697374 
 4512      5F7400
 4513              	.LASF76:
 4514 0afb 63685F73 		.ascii	"ch_system\000"
 4514      79737465 
 4514      6D00
 4515              	.LASF226:
 4516 0b05 6E766963 		.ascii	"nvicEnableVector\000"
 4516      456E6162 
 4516      6C655665 
 4516      63746F72 
 4516      00
 4517              	.LASF15:
 4518 0b16 75696E74 		.ascii	"uint32_t\000"
 4518      33325F74 
 4518      00
 4519              	.LASF110:
 4520 0b1f 43414E31 		.ascii	"CAN1_RX1_IRQn\000"
 4520      5F525831 
 4520      5F495251 
 4520      6E00
 4521              	.LASF112:
 4522 0b2d 45585449 		.ascii	"EXTI9_5_IRQn\000"
 4522      395F355F 
 4522      4952516E 
 4522      00
 4523              	.LASF178:
 4524 0b3a 7264796D 		.ascii	"rdymsg\000"
 4524      736700
 4525              	.LASF99:
 4526 0b41 45585449 		.ascii	"EXTI4_IRQn\000"
 4526      345F4952 
 4526      516E00
 4527              	.LASF4:
 4528 0b4c 73686F72 		.ascii	"short unsigned int\000"
 4528      7420756E 
 4528      7369676E 
 4528      65642069 
 4528      6E7400
 4529              	.LASF135:
 4530 0b5f 54494D38 		.ascii	"TIM8_CC_IRQn\000"
 4530      5F43435F 
 4530      4952516E 
 4530      00
 4531              	.LASF138:
 4532 0b6c 5344494F 		.ascii	"SDIO_IRQn\000"
 4532      5F495251 
 4532      6E00
 4533              	.LASF75:
 4534 0b76 63685F73 		.ascii	"ch_system_t\000"
 4534      79737465 
 4534      6D5F7400 
 4535              	.LASF214:
ARM GAS  /var/folders/m4/4md61f0s1_g0rzfghffqnxvr0000gn/T//ccZRL7EU.s 			page 90


 4536 0b82 56656374 		.ascii	"VectorE0\000"
 4536      6F724530 
 4536      00
 4537              	.LASF216:
 4538 0b8b 56656374 		.ascii	"VectorE4\000"
 4538      6F724534 
 4538      00
 4539              	.LASF98:
 4540 0b94 45585449 		.ascii	"EXTI3_IRQn\000"
 4540      335F4952 
 4540      516E00
 4541              	.LASF87:
 4542 0b9f 50656E64 		.ascii	"PendSV_IRQn\000"
 4542      53565F49 
 4542      52516E00 
 4543              	.LASF162:
 4544 0bab 4F54475F 		.ascii	"OTG_HS_EP1_IN_IRQn\000"
 4544      48535F45 
 4544      50315F49 
 4544      4E5F4952 
 4544      516E00
 4545              	.LASF136:
 4546 0bbe 444D4131 		.ascii	"DMA1_Stream7_IRQn\000"
 4546      5F537472 
 4546      65616D37 
 4546      5F495251 
 4546      6E00
 4547              	.LASF6:
 4548 0bd0 5F5F696E 		.ascii	"__int32_t\000"
 4548      7433325F 
 4548      7400
 4549              	.LASF199:
 4550 0bda 45585444 		.ascii	"EXTDriver\000"
 4550      72697665 
 4550      7200
 4551              	.LASF34:
 4552 0be4 705F6E61 		.ascii	"p_name\000"
 4552      6D6500
 4553              	.LASF191:
 4554 0beb 6D5F6E65 		.ascii	"m_next\000"
 4554      787400
 4555              	.LASF143:
 4556 0bf2 54494D36 		.ascii	"TIM6_DAC_IRQn\000"
 4556      5F444143 
 4556      5F495251 
 4556      6E00
 4557              	.LASF147:
 4558 0c00 444D4132 		.ascii	"DMA2_Stream2_IRQn\000"
 4558      5F537472 
 4558      65616D32 
 4558      5F495251 
 4558      6E00
 4559              	.LASF42:
 4560 0c12 705F6D73 		.ascii	"p_msg\000"
 4560      6700
 4561              	.LASF35:
 4562 0c18 705F7374 		.ascii	"p_state\000"
ARM GAS  /var/folders/m4/4md61f0s1_g0rzfghffqnxvr0000gn/T//ccZRL7EU.s 			page 91


 4562      61746500 
 4563              		.ident	"GCC: (GNU Tools for ARM Embedded Processors) 5.2.1 20151202 (release) [ARM/embedded-5-bran
ARM GAS  /var/folders/m4/4md61f0s1_g0rzfghffqnxvr0000gn/T//ccZRL7EU.s 			page 92


DEFINED SYMBOLS
                            *ABS*:0000000000000000 ext_lld_isr.c
/var/folders/m4/4md61f0s1_g0rzfghffqnxvr0000gn/T//ccZRL7EU.s:22     .text.Vector58:0000000000000000 $t
/var/folders/m4/4md61f0s1_g0rzfghffqnxvr0000gn/T//ccZRL7EU.s:28     .text.Vector58:0000000000000000 Vector58
/var/folders/m4/4md61f0s1_g0rzfghffqnxvr0000gn/T//ccZRL7EU.s:74     .text.Vector58:0000000000000024 $d
/var/folders/m4/4md61f0s1_g0rzfghffqnxvr0000gn/T//ccZRL7EU.s:80     .text.Vector5C:0000000000000000 $t
/var/folders/m4/4md61f0s1_g0rzfghffqnxvr0000gn/T//ccZRL7EU.s:86     .text.Vector5C:0000000000000000 Vector5C
/var/folders/m4/4md61f0s1_g0rzfghffqnxvr0000gn/T//ccZRL7EU.s:131    .text.Vector5C:0000000000000024 $d
/var/folders/m4/4md61f0s1_g0rzfghffqnxvr0000gn/T//ccZRL7EU.s:137    .text.Vector60:0000000000000000 $t
/var/folders/m4/4md61f0s1_g0rzfghffqnxvr0000gn/T//ccZRL7EU.s:143    .text.Vector60:0000000000000000 Vector60
/var/folders/m4/4md61f0s1_g0rzfghffqnxvr0000gn/T//ccZRL7EU.s:188    .text.Vector60:0000000000000024 $d
/var/folders/m4/4md61f0s1_g0rzfghffqnxvr0000gn/T//ccZRL7EU.s:194    .text.Vector64:0000000000000000 $t
/var/folders/m4/4md61f0s1_g0rzfghffqnxvr0000gn/T//ccZRL7EU.s:200    .text.Vector64:0000000000000000 Vector64
/var/folders/m4/4md61f0s1_g0rzfghffqnxvr0000gn/T//ccZRL7EU.s:245    .text.Vector64:0000000000000024 $d
/var/folders/m4/4md61f0s1_g0rzfghffqnxvr0000gn/T//ccZRL7EU.s:251    .text.Vector68:0000000000000000 $t
/var/folders/m4/4md61f0s1_g0rzfghffqnxvr0000gn/T//ccZRL7EU.s:257    .text.Vector68:0000000000000000 Vector68
/var/folders/m4/4md61f0s1_g0rzfghffqnxvr0000gn/T//ccZRL7EU.s:302    .text.Vector68:0000000000000024 $d
/var/folders/m4/4md61f0s1_g0rzfghffqnxvr0000gn/T//ccZRL7EU.s:308    .text.Vector9C:0000000000000000 $t
/var/folders/m4/4md61f0s1_g0rzfghffqnxvr0000gn/T//ccZRL7EU.s:314    .text.Vector9C:0000000000000000 Vector9C
/var/folders/m4/4md61f0s1_g0rzfghffqnxvr0000gn/T//ccZRL7EU.s:417    .text.Vector9C:0000000000000068 $d
/var/folders/m4/4md61f0s1_g0rzfghffqnxvr0000gn/T//ccZRL7EU.s:423    .text.VectorE0:0000000000000000 $t
/var/folders/m4/4md61f0s1_g0rzfghffqnxvr0000gn/T//ccZRL7EU.s:429    .text.VectorE0:0000000000000000 VectorE0
/var/folders/m4/4md61f0s1_g0rzfghffqnxvr0000gn/T//ccZRL7EU.s:547    .text.VectorE0:0000000000000078 $d
/var/folders/m4/4md61f0s1_g0rzfghffqnxvr0000gn/T//ccZRL7EU.s:553    .text.Vector44:0000000000000000 $t
/var/folders/m4/4md61f0s1_g0rzfghffqnxvr0000gn/T//ccZRL7EU.s:559    .text.Vector44:0000000000000000 Vector44
/var/folders/m4/4md61f0s1_g0rzfghffqnxvr0000gn/T//ccZRL7EU.s:602    .text.Vector44:0000000000000024 $d
/var/folders/m4/4md61f0s1_g0rzfghffqnxvr0000gn/T//ccZRL7EU.s:608    .text.VectorE4:0000000000000000 $t
/var/folders/m4/4md61f0s1_g0rzfghffqnxvr0000gn/T//ccZRL7EU.s:614    .text.VectorE4:0000000000000000 VectorE4
/var/folders/m4/4md61f0s1_g0rzfghffqnxvr0000gn/T//ccZRL7EU.s:657    .text.VectorE4:0000000000000024 $d
/var/folders/m4/4md61f0s1_g0rzfghffqnxvr0000gn/T//ccZRL7EU.s:663    .text.VectorE8:0000000000000000 $t
/var/folders/m4/4md61f0s1_g0rzfghffqnxvr0000gn/T//ccZRL7EU.s:669    .text.VectorE8:0000000000000000 VectorE8
/var/folders/m4/4md61f0s1_g0rzfghffqnxvr0000gn/T//ccZRL7EU.s:714    .text.VectorE8:0000000000000028 $d
/var/folders/m4/4md61f0s1_g0rzfghffqnxvr0000gn/T//ccZRL7EU.s:720    .text.Vector170:0000000000000000 $t
/var/folders/m4/4md61f0s1_g0rzfghffqnxvr0000gn/T//ccZRL7EU.s:726    .text.Vector170:0000000000000000 Vector170
/var/folders/m4/4md61f0s1_g0rzfghffqnxvr0000gn/T//ccZRL7EU.s:771    .text.Vector170:0000000000000028 $d
/var/folders/m4/4md61f0s1_g0rzfghffqnxvr0000gn/T//ccZRL7EU.s:777    .text.Vector48:0000000000000000 $t
/var/folders/m4/4md61f0s1_g0rzfghffqnxvr0000gn/T//ccZRL7EU.s:783    .text.Vector48:0000000000000000 Vector48
/var/folders/m4/4md61f0s1_g0rzfghffqnxvr0000gn/T//ccZRL7EU.s:828    .text.Vector48:0000000000000028 $d
/var/folders/m4/4md61f0s1_g0rzfghffqnxvr0000gn/T//ccZRL7EU.s:834    .text.Vector4C:0000000000000000 $t
/var/folders/m4/4md61f0s1_g0rzfghffqnxvr0000gn/T//ccZRL7EU.s:840    .text.Vector4C:0000000000000000 Vector4C
/var/folders/m4/4md61f0s1_g0rzfghffqnxvr0000gn/T//ccZRL7EU.s:885    .text.Vector4C:0000000000000028 $d
/var/folders/m4/4md61f0s1_g0rzfghffqnxvr0000gn/T//ccZRL7EU.s:891    .text.ext_lld_exti_irq_enable:0000000000000000 $t
/var/folders/m4/4md61f0s1_g0rzfghffqnxvr0000gn/T//ccZRL7EU.s:897    .text.ext_lld_exti_irq_enable:0000000000000000 ext_lld_exti_irq_enable
/var/folders/m4/4md61f0s1_g0rzfghffqnxvr0000gn/T//ccZRL7EU.s:984    .text.ext_lld_exti_irq_disable:0000000000000000 $t
/var/folders/m4/4md61f0s1_g0rzfghffqnxvr0000gn/T//ccZRL7EU.s:990    .text.ext_lld_exti_irq_disable:0000000000000000 ext_lld_exti_irq_disable
                     .debug_frame:0000000000000010 $d

UNDEFINED SYMBOLS
_port_irq_epilogue
EXTD1
nvicEnableVector
nvicDisableVector
