ARM GAS  /var/folders/m4/4md61f0s1_g0rzfghffqnxvr0000gn/T//ccj51wIT.s 			page 1


   1              		.syntax unified
   2              		.cpu cortex-m4
   3              		.eabi_attribute 27, 1
   4              		.eabi_attribute 28, 1
   5              		.fpu fpv4-sp-d16
   6              		.eabi_attribute 20, 1
   7              		.eabi_attribute 21, 1
   8              		.eabi_attribute 23, 3
   9              		.eabi_attribute 24, 1
  10              		.eabi_attribute 25, 1
  11              		.eabi_attribute 26, 1
  12              		.eabi_attribute 30, 2
  13              		.eabi_attribute 34, 1
  14              		.eabi_attribute 18, 4
  15              		.thumb
  16              		.syntax unified
  17              		.file	"hal.c"
  18              		.text
  19              	.Ltext0:
  20              		.cfi_sections	.debug_frame
  21              		.section	.text.halInit,"ax",%progbits
  22              		.align	2
  23              		.p2align 4,,15
  24              		.global	halInit
  25              		.thumb
  26              		.thumb_func
  27              		.type	halInit, %function
  28              	halInit:
  29              	.LFB268:
  30              		.file 1 "ChibiOS_16.1.4/os/hal/src/hal.c"
  31              		.loc 1 56 0
  32              		.cfi_startproc
  33              		@ args = 0, pretend = 0, frame = 0
  34              		@ frame_needed = 0, uses_anonymous_args = 0
  35 0000 08B5     		push	{r3, lr}
  36              		.cfi_def_cfa_offset 8
  37              		.cfi_offset 3, -8
  38              		.cfi_offset 14, -4
  39              		.loc 1 62 0
  40 0002 FFF7FEFF 		bl	hal_lld_init
  41              	.LVL0:
  42              		.loc 1 65 0
  43 0006 0948     		ldr	r0, .L3
  44 0008 FFF7FEFF 		bl	_pal_lld_init
  45              	.LVL1:
  46              		.loc 1 77 0
  47 000c FFF7FEFF 		bl	extInit
  48              	.LVL2:
  49              		.loc 1 83 0
  50 0010 FFF7FEFF 		bl	i2cInit
  51              	.LVL3:
  52              		.loc 1 104 0
  53 0014 FFF7FEFF 		bl	spiInit
  54              	.LVL4:
  55              		.loc 1 110 0
  56 0018 FFF7FEFF 		bl	usbInit
  57              	.LVL5:
ARM GAS  /var/folders/m4/4md61f0s1_g0rzfghffqnxvr0000gn/T//ccj51wIT.s 			page 2


  58              		.loc 1 116 0
  59 001c FFF7FEFF 		bl	sduInit
  60              	.LVL6:
  61              		.loc 1 133 0
  62 0020 FFF7FEFF 		bl	boardInit
  63              	.LVL7:
  64              		.loc 1 142 0
  65 0024 BDE80840 		pop	{r3, lr}
  66              		.cfi_restore 14
  67              		.cfi_restore 3
  68              		.cfi_def_cfa_offset 0
  69              		.loc 1 140 0
  70 0028 FFF7FEBF 		b	stInit
  71              	.LVL8:
  72              	.L4:
  73              		.align	2
  74              	.L3:
  75 002c 00000000 		.word	pal_default_config
  76              		.cfi_endproc
  77              	.LFE268:
  78              		.size	halInit, .-halInit
  79              		.text
  80              	.Letext0:
  81              		.file 2 "/opt/homebrew-cask/Caskroom/gcc-arm-embedded/5_2-2015q4,20151219/gcc-arm-none-eabi-5_2-20
  82              		.file 3 "/opt/homebrew-cask/Caskroom/gcc-arm-embedded/5_2-2015q4,20151219/gcc-arm-none-eabi-5_2-20
  83              		.file 4 "ChibiOS_16.1.4/os/rt/ports/ARMCMx/compilers/GCC/chtypes.h"
  84              		.file 5 "ChibiOS_16.1.4/os/rt/include/chsystypes.h"
  85              		.file 6 "ChibiOS_16.1.4/os/rt/include/chschd.h"
  86              		.file 7 "ChibiOS_16.1.4/os/rt/ports/ARMCMx/chcore.h"
  87              		.file 8 "ChibiOS_16.1.4/os/rt/ports/ARMCMx/chcore_v7m.h"
  88              		.file 9 "ChibiOS_16.1.4/os/rt/include/chtm.h"
  89              		.file 10 "ChibiOS_16.1.4/os/rt/include/chsem.h"
  90              		.file 11 "ChibiOS_16.1.4/os/rt/include/chmtx.h"
  91              		.file 12 "ChibiOS_16.1.4/os/hal/ports/STM32/LLD/GPIOv2/pal_lld.h"
  92              		.file 13 "ChibiOS_16.1.4/os/ext/CMSIS/include/core_cm4.h"
  93              		.file 14 "ChibiOS_16.1.4/os/hal/ports/STM32/STM32F4xx/hal_lld.h"
  94              		.file 15 "ChibiOS_16.1.4/os/hal/include/ext.h"
  95              		.file 16 "ChibiOS_16.1.4/os/hal/include/i2c.h"
  96              		.file 17 "ChibiOS_16.1.4/os/hal/include/spi.h"
  97              		.file 18 "ChibiOS_16.1.4/os/hal/include/usb.h"
  98              		.file 19 "ChibiOS_16.1.4/os/hal/include/serial_usb.h"
  99              		.file 20 "board/board.h"
 100              		.file 21 "ChibiOS_16.1.4/os/hal/include/st.h"
 101              		.file 22 "ChibiOS_16.1.4/os/hal/osal/rt/osal.h"