ARM GAS  /var/folders/m4/4md61f0s1_g0rzfghffqnxvr0000gn/T//ccA7UFTV.s 			page 1


   1              		.syntax unified
   2              		.cpu cortex-m4
   3              		.eabi_attribute 27, 1
   4              		.eabi_attribute 28, 1
   5              		.fpu fpv4-sp-d16
   6              		.eabi_attribute 20, 1
   7              		.eabi_attribute 21, 1
   8              		.eabi_attribute 23, 3
   9              		.eabi_attribute 24, 1
  10              		.eabi_attribute 25, 1
  11              		.eabi_attribute 26, 1
  12              		.eabi_attribute 30, 2
  13              		.eabi_attribute 34, 1
  14              		.eabi_attribute 18, 4
  15              		.thumb
  16              		.syntax unified
  17              		.file	"i2c.c"
  18              		.text
  19              	.Ltext0:
  20              		.cfi_sections	.debug_frame
  21              		.section	.text.i2cInit,"ax",%progbits
  22              		.align	2
  23              		.p2align 4,,15
  24              		.global	i2cInit
  25              		.thumb
  26              		.thumb_func
  27              		.type	i2cInit, %function
  28              	i2cInit:
  29              	.LFB268:
  30              		.file 1 "ChibiOS_16.1.4/os/hal/src/i2c.c"
  31              		.loc 1 59 0
  32              		.cfi_startproc
  33              		@ args = 0, pretend = 0, frame = 0
  34              		@ frame_needed = 0, uses_anonymous_args = 0
  35              		@ link register save eliminated.
  36              		.loc 1 61 0
  37 0000 FFF7FEBF 		b	i2c_lld_init
  38              	.LVL0:
  39              		.cfi_endproc
  40              	.LFE268:
  41              		.size	i2cInit, .-i2cInit
  42              		.section	.text.i2cObjectInit,"ax",%progbits
  43              		.align	2
  44              		.p2align 4,,15
  45              		.global	i2cObjectInit
  46              		.thumb
  47              		.thumb_func
  48              		.type	i2cObjectInit, %function
  49              	i2cObjectInit:
  50              	.LFB269:
  51              		.loc 1 71 0
  52              		.cfi_startproc
  53              		@ args = 0, pretend = 0, frame = 0
  54              		@ frame_needed = 0, uses_anonymous_args = 0
  55              		@ link register save eliminated.
  56              	.LVL1:
  57              		.loc 1 73 0
ARM GAS  /var/folders/m4/4md61f0s1_g0rzfghffqnxvr0000gn/T//ccA7UFTV.s 			page 2


  58 0000 0122     		movs	r2, #1
  59              		.loc 1 74 0
  60 0002 0023     		movs	r3, #0
  61              		.loc 1 73 0
  62 0004 0270     		strb	r2, [r0]
  63              		.loc 1 74 0
  64 0006 4360     		str	r3, [r0, #4]
  65              	.LVL2:
  66              	.LBB82:
  67              	.LBB83:
  68              		.file 2 "ChibiOS_16.1.4/os/hal/osal/rt/osal.h"
  69              		.loc 2 887 0
  70 0008 0C30     		adds	r0, r0, #12
  71              	.LVL3:
  72 000a FFF7FEBF 		b	chMtxObjectInit
  73              	.LVL4:
  74              	.LBE83:
  75              	.LBE82:
  76              		.cfi_endproc
  77              	.LFE269:
  78              		.size	i2cObjectInit, .-i2cObjectInit
  79 000e 00BF     		.section	.text.i2cStart,"ax",%progbits
  80              		.align	2
  81              		.p2align 4,,15
  82              		.global	i2cStart
  83              		.thumb
  84              		.thumb_func
  85              		.type	i2cStart, %function
  86              	i2cStart:
  87              	.LFB270:
  88              		.loc 1 93 0
  89              		.cfi_startproc
  90              		@ args = 0, pretend = 0, frame = 0
  91              		@ frame_needed = 0, uses_anonymous_args = 0
  92              	.LVL5:
  93 0000 10B5     		push	{r4, lr}
  94              		.cfi_def_cfa_offset 8
  95              		.cfi_offset 4, -8
  96              		.cfi_offset 14, -4
  97              	.LBB84:
  98              	.LBB85:
  99              	.LBB86:
 100              	.LBB87:
 101              	.LBB88:
 102              		.file 3 "ChibiOS_16.1.4/os/ext/CMSIS/include/core_cmFunc.h"
 103              		.loc 3 548 0
 104 0002 2023     		movs	r3, #32
 105              	.LBE88:
 106              	.LBE87:
 107              	.LBE86:
 108              	.LBE85:
 109              	.LBE84:
 110              		.loc 1 93 0
 111 0004 0446     		mov	r4, r0
 112              	.LBB93:
 113              	.LBB92:
 114              	.LBB91:
ARM GAS  /var/folders/m4/4md61f0s1_g0rzfghffqnxvr0000gn/T//ccA7UFTV.s 			page 3


 115              	.LBB90:
 116              	.LBB89:
 117              		.loc 3 548 0
 118              		.syntax unified
 119              	@ 548 "ChibiOS_16.1.4/os/ext/CMSIS/include/core_cmFunc.h" 1
 120 0006 83F31188 		MSR basepri, r3
 121              	@ 0 "" 2
 122              	.LVL6:
 123              		.thumb
 124              		.syntax unified
 125              	.LBE89:
 126              	.LBE90:
 127              	.LBE91:
 128              	.LBE92:
 129              	.LBE93:
 130              		.loc 1 100 0
 131 000a 4160     		str	r1, [r0, #4]
 132              		.loc 1 101 0
 133 000c FFF7FEFF 		bl	i2c_lld_start
 134              	.LVL7:
 135              		.loc 1 102 0
 136 0010 0223     		movs	r3, #2
 137 0012 2370     		strb	r3, [r4]
 138              	.LVL8:
 139              	.LBB94:
 140              	.LBB95:
 141              	.LBB96:
 142              	.LBB97:
 143              	.LBB98:
 144              	.LBB99:
 145              		.loc 3 548 0
 146 0014 0023     		movs	r3, #0
 147              		.syntax unified
 148              	@ 548 "ChibiOS_16.1.4/os/ext/CMSIS/include/core_cmFunc.h" 1
 149 0016 83F31188 		MSR basepri, r3
 150              	@ 0 "" 2
 151              	.LVL9:
 152              		.thumb
 153              		.syntax unified
 154 001a 10BD     		pop	{r4, pc}
 155              	.LBE99:
 156              	.LBE98:
 157              	.LBE97:
 158              	.LBE96:
 159              	.LBE95:
 160              	.LBE94:
 161              		.cfi_endproc
 162              	.LFE270:
 163              		.size	i2cStart, .-i2cStart
 164              		.section	.text.i2cStop,"ax",%progbits
 165              		.align	2
 166              		.p2align 4,,15
 167              		.global	i2cStop
 168              		.thumb
 169              		.thumb_func
 170              		.type	i2cStop, %function
 171              	i2cStop:
ARM GAS  /var/folders/m4/4md61f0s1_g0rzfghffqnxvr0000gn/T//ccA7UFTV.s 			page 4


 172              	.LFB271:
 173              		.loc 1 113 0
 174              		.cfi_startproc
 175              		@ args = 0, pretend = 0, frame = 0
 176              		@ frame_needed = 0, uses_anonymous_args = 0
 177              	.LVL10:
 178 0000 10B5     		push	{r4, lr}
 179              		.cfi_def_cfa_offset 8
 180              		.cfi_offset 4, -8
 181              		.cfi_offset 14, -4
 182              	.LBB100:
 183              	.LBB101:
 184              	.LBB102:
 185              	.LBB103:
 186              	.LBB104:
 187              		.loc 3 548 0
 188 0002 2023     		movs	r3, #32
 189              	.LBE104:
 190              	.LBE103:
 191              	.LBE102:
 192              	.LBE101:
 193              	.LBE100:
 194              		.loc 1 113 0
 195 0004 0446     		mov	r4, r0
 196              	.LBB109:
 197              	.LBB108:
 198              	.LBB107:
 199              	.LBB106:
 200              	.LBB105:
 201              		.loc 3 548 0
 202              		.syntax unified
 203              	@ 548 "ChibiOS_16.1.4/os/ext/CMSIS/include/core_cmFunc.h" 1
 204 0006 83F31188 		MSR basepri, r3
 205              	@ 0 "" 2
 206              	.LVL11:
 207              		.thumb
 208              		.syntax unified
 209              	.LBE105:
 210              	.LBE106:
 211              	.LBE107:
 212              	.LBE108:
 213              	.LBE109:
 214              		.loc 1 120 0
 215 000a FFF7FEFF 		bl	i2c_lld_stop
 216              	.LVL12:
 217              		.loc 1 121 0
 218 000e 0123     		movs	r3, #1
 219 0010 2370     		strb	r3, [r4]
 220              	.LVL13:
 221              	.LBB110:
 222              	.LBB111:
 223              	.LBB112:
 224              	.LBB113:
 225              	.LBB114:
 226              	.LBB115:
 227              		.loc 3 548 0
 228 0012 0023     		movs	r3, #0
ARM GAS  /var/folders/m4/4md61f0s1_g0rzfghffqnxvr0000gn/T//ccA7UFTV.s 			page 5


 229              		.syntax unified
 230              	@ 548 "ChibiOS_16.1.4/os/ext/CMSIS/include/core_cmFunc.h" 1
 231 0014 83F31188 		MSR basepri, r3
 232              	@ 0 "" 2
 233              	.LVL14:
 234              		.thumb
 235              		.syntax unified
 236 0018 10BD     		pop	{r4, pc}
 237              	.LBE115:
 238              	.LBE114:
 239              	.LBE113:
 240              	.LBE112:
 241              	.LBE111:
 242              	.LBE110:
 243              		.cfi_endproc
 244              	.LFE271:
 245              		.size	i2cStop, .-i2cStop
 246 001a 00BF     		.section	.text.i2cGetErrors,"ax",%progbits
 247              		.align	2
 248              		.p2align 4,,15
 249              		.global	i2cGetErrors
 250              		.thumb
 251              		.thumb_func
 252              		.type	i2cGetErrors, %function
 253              	i2cGetErrors:
 254              	.LFB272:
 255              		.loc 1 133 0
 256              		.cfi_startproc
 257              		@ args = 0, pretend = 0, frame = 0
 258              		@ frame_needed = 0, uses_anonymous_args = 0
 259              		@ link register save eliminated.
 260              	.LVL15:
 261              		.loc 1 138 0
 262 0000 8068     		ldr	r0, [r0, #8]
 263              	.LVL16:
 264 0002 7047     		bx	lr
 265              		.cfi_endproc
 266              	.LFE272:
 267              		.size	i2cGetErrors, .-i2cGetErrors
 268              		.section	.text.i2cMasterTransmitTimeout,"ax",%progbits
 269              		.align	2
 270              		.p2align 4,,15
 271              		.global	i2cMasterTransmitTimeout
 272              		.thumb
 273              		.thumb_func
 274              		.type	i2cMasterTransmitTimeout, %function
 275              	i2cMasterTransmitTimeout:
 276              	.LFB273:
 277              		.loc 1 172 0
 278              		.cfi_startproc
 279              		@ args = 12, pretend = 0, frame = 0
 280              		@ frame_needed = 0, uses_anonymous_args = 0
 281              	.LVL17:
 282 0000 F0B5     		push	{r4, r5, r6, r7, lr}
 283              		.cfi_def_cfa_offset 20
 284              		.cfi_offset 4, -20
 285              		.cfi_offset 5, -16
ARM GAS  /var/folders/m4/4md61f0s1_g0rzfghffqnxvr0000gn/T//ccA7UFTV.s 			page 6


 286              		.cfi_offset 6, -12
 287              		.cfi_offset 7, -8
 288              		.cfi_offset 14, -4
 289 0002 85B0     		sub	sp, sp, #20
 290              		.cfi_def_cfa_offset 40
 291              		.loc 1 172 0
 292 0004 0446     		mov	r4, r0
 293 0006 0B9E     		ldr	r6, [sp, #44]
 294 0008 0C9F     		ldr	r7, [sp, #48]
 295              	.LBB116:
 296              	.LBB117:
 297              	.LBB118:
 298              	.LBB119:
 299              	.LBB120:
 300              		.loc 3 548 0
 301 000a 4FF0200E 		mov	lr, #32
 302              		.syntax unified
 303              	@ 548 "ChibiOS_16.1.4/os/ext/CMSIS/include/core_cmFunc.h" 1
 304 000e 8EF31188 		MSR basepri, lr
 305              	@ 0 "" 2
 306              	.LVL18:
 307              		.thumb
 308              		.syntax unified
 309              	.LBE120:
 310              	.LBE119:
 311              	.LBE118:
 312              	.LBE117:
 313              	.LBE116:
 314              		.loc 1 184 0
 315 0012 4FF0030E 		mov	lr, #3
 316              		.loc 1 185 0
 317 0016 0196     		str	r6, [sp, #4]
 318              		.loc 1 183 0
 319 0018 0025     		movs	r5, #0
 320              		.loc 1 185 0
 321 001a 0A9E     		ldr	r6, [sp, #40]
 322 001c 0297     		str	r7, [sp, #8]
 323 001e 0096     		str	r6, [sp]
 324              		.loc 1 183 0
 325 0020 8560     		str	r5, [r0, #8]
 326              		.loc 1 184 0
 327 0022 80F800E0 		strb	lr, [r0]
 328              		.loc 1 185 0
 329 0026 FFF7FEFF 		bl	i2c_lld_master_transmit_timeout
 330              	.LVL19:
 331              		.loc 1 187 0
 332 002a 431C     		adds	r3, r0, #1
 333              		.loc 1 188 0
 334 002c 0CBF     		ite	eq
 335 002e 0523     		moveq	r3, #5
 336              		.loc 1 191 0
 337 0030 0223     		movne	r3, #2
 338 0032 2370     		strb	r3, [r4]
 339              	.LVL20:
 340              	.LBB121:
 341              	.LBB122:
 342              	.LBB123:
ARM GAS  /var/folders/m4/4md61f0s1_g0rzfghffqnxvr0000gn/T//ccA7UFTV.s 			page 7


 343              	.LBB124:
 344              	.LBB125:
 345              	.LBB126:
 346              		.loc 3 548 0
 347 0034 0023     		movs	r3, #0
 348              		.syntax unified
 349              	@ 548 "ChibiOS_16.1.4/os/ext/CMSIS/include/core_cmFunc.h" 1
 350 0036 83F31188 		MSR basepri, r3
 351              	@ 0 "" 2
 352              	.LVL21:
 353              		.thumb
 354              		.syntax unified
 355              	.LBE126:
 356              	.LBE125:
 357              	.LBE124:
 358              	.LBE123:
 359              	.LBE122:
 360              	.LBE121:
 361              		.loc 1 195 0
 362 003a 05B0     		add	sp, sp, #20
 363              		.cfi_def_cfa_offset 20
 364              		@ sp needed
 365 003c F0BD     		pop	{r4, r5, r6, r7, pc}
 366              		.cfi_endproc
 367              	.LFE273:
 368              		.size	i2cMasterTransmitTimeout, .-i2cMasterTransmitTimeout
 369 003e 00BF     		.section	.text.i2cMasterReceiveTimeout,"ax",%progbits
 370              		.align	2
 371              		.p2align 4,,15
 372              		.global	i2cMasterReceiveTimeout
 373              		.thumb
 374              		.thumb_func
 375              		.type	i2cMasterReceiveTimeout, %function
 376              	i2cMasterReceiveTimeout:
 377              	.LFB274:
 378              		.loc 1 221 0
 379              		.cfi_startproc
 380              		@ args = 4, pretend = 0, frame = 0
 381              		@ frame_needed = 0, uses_anonymous_args = 0
 382              	.LVL22:
 383 0000 F0B5     		push	{r4, r5, r6, r7, lr}
 384              		.cfi_def_cfa_offset 20
 385              		.cfi_offset 4, -20
 386              		.cfi_offset 5, -16
 387              		.cfi_offset 6, -12
 388              		.cfi_offset 7, -8
 389              		.cfi_offset 14, -4
 390 0002 83B0     		sub	sp, sp, #12
 391              		.cfi_def_cfa_offset 32
 392              		.loc 1 221 0
 393 0004 0446     		mov	r4, r0
 394 0006 089F     		ldr	r7, [sp, #32]
 395              	.LBB127:
 396              	.LBB128:
 397              	.LBB129:
 398              	.LBB130:
 399              	.LBB131:
ARM GAS  /var/folders/m4/4md61f0s1_g0rzfghffqnxvr0000gn/T//ccA7UFTV.s 			page 8


 400              		.loc 3 548 0
 401 0008 2025     		movs	r5, #32
 402              		.syntax unified
 403              	@ 548 "ChibiOS_16.1.4/os/ext/CMSIS/include/core_cmFunc.h" 1
 404 000a 85F31188 		MSR basepri, r5
 405              	@ 0 "" 2
 406              	.LVL23:
 407              		.thumb
 408              		.syntax unified
 409              	.LBE131:
 410              	.LBE130:
 411              	.LBE129:
 412              	.LBE128:
 413              	.LBE127:
 414              		.loc 1 232 0
 415 000e 0026     		movs	r6, #0
 416              		.loc 1 233 0
 417 0010 0425     		movs	r5, #4
 418              		.loc 1 234 0
 419 0012 0097     		str	r7, [sp]
 420              		.loc 1 232 0
 421 0014 8660     		str	r6, [r0, #8]
 422              		.loc 1 233 0
 423 0016 0570     		strb	r5, [r0]
 424              		.loc 1 234 0
 425 0018 FFF7FEFF 		bl	i2c_lld_master_receive_timeout
 426              	.LVL24:
 427              		.loc 1 235 0
 428 001c 431C     		adds	r3, r0, #1
 429              		.loc 1 236 0
 430 001e 0CBF     		ite	eq
 431 0020 0523     		moveq	r3, #5
 432              		.loc 1 239 0
 433 0022 0223     		movne	r3, #2
 434 0024 2370     		strb	r3, [r4]
 435              	.LVL25:
 436              	.LBB132:
 437              	.LBB133:
 438              	.LBB134:
 439              	.LBB135:
 440              	.LBB136:
 441              	.LBB137:
 442              		.loc 3 548 0
 443 0026 0023     		movs	r3, #0
 444              		.syntax unified
 445              	@ 548 "ChibiOS_16.1.4/os/ext/CMSIS/include/core_cmFunc.h" 1
 446 0028 83F31188 		MSR basepri, r3
 447              	@ 0 "" 2
 448              	.LVL26:
 449              		.thumb
 450              		.syntax unified
 451              	.LBE137:
 452              	.LBE136:
 453              	.LBE135:
 454              	.LBE134:
 455              	.LBE133:
 456              	.LBE132:
ARM GAS  /var/folders/m4/4md61f0s1_g0rzfghffqnxvr0000gn/T//ccA7UFTV.s 			page 9


 457              		.loc 1 243 0
 458 002c 03B0     		add	sp, sp, #12
 459              		.cfi_def_cfa_offset 20
 460              		@ sp needed
 461 002e F0BD     		pop	{r4, r5, r6, r7, pc}
 462              		.cfi_endproc
 463              	.LFE274:
 464              		.size	i2cMasterReceiveTimeout, .-i2cMasterReceiveTimeout
 465              		.section	.text.i2cAcquireBus,"ax",%progbits
 466              		.align	2
 467              		.p2align 4,,15
 468              		.global	i2cAcquireBus
 469              		.thumb
 470              		.thumb_func
 471              		.type	i2cAcquireBus, %function
 472              	i2cAcquireBus:
 473              	.LFB275:
 474              		.loc 1 257 0
 475              		.cfi_startproc
 476              		@ args = 0, pretend = 0, frame = 0
 477              		@ frame_needed = 0, uses_anonymous_args = 0
 478              		@ link register save eliminated.
 479              	.LVL27:
 480              	.LBB138:
 481              	.LBB139:
 482              		.loc 2 907 0
 483 0000 0C30     		adds	r0, r0, #12
 484              	.LVL28:
 485 0002 FFF7FEBF 		b	chMtxLock
 486              	.LVL29:
 487              	.LBE139:
 488              	.LBE138:
 489              		.cfi_endproc
 490              	.LFE275:
 491              		.size	i2cAcquireBus, .-i2cAcquireBus
 492 0006 00BF     		.section	.text.i2cReleaseBus,"ax",%progbits
 493              		.align	2
 494              		.p2align 4,,15
 495              		.global	i2cReleaseBus
 496              		.thumb
 497              		.thumb_func
 498              		.type	i2cReleaseBus, %function
 499              	i2cReleaseBus:
 500              	.LFB276:
 501              		.loc 1 273 0
 502              		.cfi_startproc
 503              		@ args = 0, pretend = 0, frame = 0
 504              		@ frame_needed = 0, uses_anonymous_args = 0
 505              		@ link register save eliminated.
 506              	.LVL30:
 507              	.LBB140:
 508              	.LBB141:
 509              		.loc 2 931 0
 510 0000 0C30     		adds	r0, r0, #12
 511              	.LVL31:
 512 0002 FFF7FEBF 		b	chMtxUnlock
 513              	.LVL32:
ARM GAS  /var/folders/m4/4md61f0s1_g0rzfghffqnxvr0000gn/T//ccA7UFTV.s 			page 10


 514              	.LBE141:
 515              	.LBE140:
 516              		.cfi_endproc
 517              	.LFE276:
 518              		.size	i2cReleaseBus, .-i2cReleaseBus
 519 0006 00BF     		.text
 520              	.Letext0:
 521              		.file 4 "/opt/homebrew-cask/Caskroom/gcc-arm-embedded/5_2-2015q4,20151219/gcc-arm-none-eabi-5_2-20
 522              		.file 5 "/opt/homebrew-cask/Caskroom/gcc-arm-embedded/5_2-2015q4,20151219/gcc-arm-none-eabi-5_2-20
 523              		.file 6 "/opt/homebrew-cask/Caskroom/gcc-arm-embedded/5_2-2015q4,20151219/gcc-arm-none-eabi-5_2-20
 524              		.file 7 "ChibiOS_16.1.4/os/rt/ports/ARMCMx/compilers/GCC/chtypes.h"
 525              		.file 8 "ChibiOS_16.1.4/os/rt/include/chsystypes.h"
 526              		.file 9 "ChibiOS_16.1.4/os/rt/include/chschd.h"
 527              		.file 10 "ChibiOS_16.1.4/os/ext/CMSIS/ST/STM32F4xx/stm32f405xx.h"
 528              		.file 11 "ChibiOS_16.1.4/os/rt/ports/ARMCMx/chcore.h"
 529              		.file 12 "ChibiOS_16.1.4/os/rt/ports/ARMCMx/chcore_v7m.h"
 530              		.file 13 "ChibiOS_16.1.4/os/rt/include/chtm.h"
 531              		.file 14 "ChibiOS_16.1.4/os/rt/include/chsem.h"
 532              		.file 15 "ChibiOS_16.1.4/os/rt/include/chmtx.h"
 533              		.file 16 "ChibiOS_16.1.4/os/hal/ports/STM32/LLD/DMAv2/stm32_dma.h"
 534              		.file 17 "ChibiOS_16.1.4/os/hal/include/i2c.h"
 535              		.file 18 "ChibiOS_16.1.4/os/hal/ports/STM32/LLD/I2Cv1/i2c_lld.h"
 536              		.file 19 "ChibiOS_16.1.4/os/rt/include/chsys.h"
 537              		.file 20 "ChibiOS_16.1.4/os/ext/CMSIS/include/core_cm4.h"
 538              		.section	.debug_info,"",%progbits
 539              	.Ldebug_info0:
 540 0000 06120000 		.4byte	0x1206
 541 0004 0400     		.2byte	0x4
 542 0006 00000000 		.4byte	.Ldebug_abbrev0
 543 000a 04       		.byte	0x4
 544 000b 01       		.uleb128 0x1
 545 000c 9F000000 		.4byte	.LASF191
 546 0010 0C       		.byte	0xc
 547 0011 C2080000 		.4byte	.LASF192
 548 0015 36040000 		.4byte	.LASF193
 549 0019 30000000 		.4byte	.Ldebug_ranges0+0x30
 550 001d 00000000 		.4byte	0
 551 0021 00000000 		.4byte	.Ldebug_line0
 552 0025 02       		.uleb128 0x2
 553 0026 04       		.byte	0x4
 554 0027 05       		.byte	0x5
 555 0028 696E7400 		.ascii	"int\000"
 556 002c 03       		.uleb128 0x3
 557 002d 27000000 		.4byte	.LASF2
 558 0031 04       		.byte	0x4
 559 0032 D8       		.byte	0xd8
 560 0033 37000000 		.4byte	0x37
 561 0037 04       		.uleb128 0x4
 562 0038 04       		.byte	0x4
 563 0039 07       		.byte	0x7
 564 003a 91030000 		.4byte	.LASF0
 565 003e 04       		.uleb128 0x4
 566 003f 01       		.byte	0x1
 567 0040 06       		.byte	0x6
 568 0041 70020000 		.4byte	.LASF1
 569 0045 03       		.uleb128 0x3
 570 0046 45000000 		.4byte	.LASF3
ARM GAS  /var/folders/m4/4md61f0s1_g0rzfghffqnxvr0000gn/T//ccA7UFTV.s 			page 11


 571 004a 05       		.byte	0x5
 572 004b 1D       		.byte	0x1d
 573 004c 50000000 		.4byte	0x50
 574 0050 04       		.uleb128 0x4
 575 0051 01       		.byte	0x1
 576 0052 08       		.byte	0x8
 577 0053 83060000 		.4byte	.LASF4
 578 0057 04       		.uleb128 0x4
 579 0058 02       		.byte	0x2
 580 0059 05       		.byte	0x5
 581 005a B1040000 		.4byte	.LASF5
 582 005e 03       		.uleb128 0x3
 583 005f A9070000 		.4byte	.LASF6
 584 0063 05       		.byte	0x5
 585 0064 2B       		.byte	0x2b
 586 0065 69000000 		.4byte	0x69
 587 0069 04       		.uleb128 0x4
 588 006a 02       		.byte	0x2
 589 006b 07       		.byte	0x7
 590 006c FE030000 		.4byte	.LASF7
 591 0070 03       		.uleb128 0x3
 592 0071 BB040000 		.4byte	.LASF8
 593 0075 05       		.byte	0x5
 594 0076 3F       		.byte	0x3f
 595 0077 7B000000 		.4byte	0x7b
 596 007b 04       		.uleb128 0x4
 597 007c 04       		.byte	0x4
 598 007d 05       		.byte	0x5
 599 007e F2020000 		.4byte	.LASF9
 600 0082 03       		.uleb128 0x3
 601 0083 E2070000 		.4byte	.LASF10
 602 0087 05       		.byte	0x5
 603 0088 41       		.byte	0x41
 604 0089 8D000000 		.4byte	0x8d
 605 008d 04       		.uleb128 0x4
 606 008e 04       		.byte	0x4
 607 008f 07       		.byte	0x7
 608 0090 7B070000 		.4byte	.LASF11
 609 0094 04       		.uleb128 0x4
 610 0095 08       		.byte	0x8
 611 0096 05       		.byte	0x5
 612 0097 68030000 		.4byte	.LASF12
 613 009b 03       		.uleb128 0x3
 614 009c C3050000 		.4byte	.LASF13
 615 00a0 05       		.byte	0x5
 616 00a1 5B       		.byte	0x5b
 617 00a2 A6000000 		.4byte	0xa6
 618 00a6 04       		.uleb128 0x4
 619 00a7 08       		.byte	0x8
 620 00a8 07       		.byte	0x7
 621 00a9 C1010000 		.4byte	.LASF14
 622 00ad 03       		.uleb128 0x3
 623 00ae B0080000 		.4byte	.LASF15
 624 00b2 06       		.byte	0x6
 625 00b3 14       		.byte	0x14
 626 00b4 45000000 		.4byte	0x45
 627 00b8 03       		.uleb128 0x3
ARM GAS  /var/folders/m4/4md61f0s1_g0rzfghffqnxvr0000gn/T//ccA7UFTV.s 			page 12


 628 00b9 7F040000 		.4byte	.LASF16
 629 00bd 06       		.byte	0x6
 630 00be 1A       		.byte	0x1a
 631 00bf 5E000000 		.4byte	0x5e
 632 00c3 03       		.uleb128 0x3
 633 00c4 7B060000 		.4byte	.LASF17
 634 00c8 06       		.byte	0x6
 635 00c9 1F       		.byte	0x1f
 636 00ca 70000000 		.4byte	0x70
 637 00ce 03       		.uleb128 0x3
 638 00cf 45070000 		.4byte	.LASF18
 639 00d3 06       		.byte	0x6
 640 00d4 20       		.byte	0x20
 641 00d5 82000000 		.4byte	0x82
 642 00d9 03       		.uleb128 0x3
 643 00da 35000000 		.4byte	.LASF19
 644 00de 06       		.byte	0x6
 645 00df 26       		.byte	0x26
 646 00e0 9B000000 		.4byte	0x9b
 647 00e4 03       		.uleb128 0x3
 648 00e5 5E080000 		.4byte	.LASF20
 649 00e9 07       		.byte	0x7
 650 00ea 39       		.byte	0x39
 651 00eb CE000000 		.4byte	0xce
 652 00ef 03       		.uleb128 0x3
 653 00f0 77040000 		.4byte	.LASF21
 654 00f4 07       		.byte	0x7
 655 00f5 3C       		.byte	0x3c
 656 00f6 AD000000 		.4byte	0xad
 657 00fa 03       		.uleb128 0x3
 658 00fb FB020000 		.4byte	.LASF22
 659 00ff 07       		.byte	0x7
 660 0100 3D       		.byte	0x3d
 661 0101 AD000000 		.4byte	0xad
 662 0105 03       		.uleb128 0x3
 663 0106 CE050000 		.4byte	.LASF23
 664 010a 07       		.byte	0x7
 665 010b 3E       		.byte	0x3e
 666 010c AD000000 		.4byte	0xad
 667 0110 03       		.uleb128 0x3
 668 0111 CE020000 		.4byte	.LASF24
 669 0115 07       		.byte	0x7
 670 0116 3F       		.byte	0x3f
 671 0117 AD000000 		.4byte	0xad
 672 011b 03       		.uleb128 0x3
 673 011c 2E060000 		.4byte	.LASF25
 674 0120 07       		.byte	0x7
 675 0121 40       		.byte	0x40
 676 0122 CE000000 		.4byte	0xce
 677 0126 03       		.uleb128 0x3
 678 0127 30040000 		.4byte	.LASF26
 679 012b 07       		.byte	0x7
 680 012c 41       		.byte	0x41
 681 012d C3000000 		.4byte	0xc3
 682 0131 03       		.uleb128 0x3
 683 0132 A5040000 		.4byte	.LASF27
 684 0136 07       		.byte	0x7
ARM GAS  /var/folders/m4/4md61f0s1_g0rzfghffqnxvr0000gn/T//ccA7UFTV.s 			page 13


 685 0137 43       		.byte	0x43
 686 0138 CE000000 		.4byte	0xce
 687 013c 03       		.uleb128 0x3
 688 013d 8B030000 		.4byte	.LASF28
 689 0141 07       		.byte	0x7
 690 0142 45       		.byte	0x45
 691 0143 C3000000 		.4byte	0xc3
 692 0147 03       		.uleb128 0x3
 693 0148 C4070000 		.4byte	.LASF29
 694 014c 08       		.byte	0x8
 695 014d 33       		.byte	0x33
 696 014e CE000000 		.4byte	0xce
 697 0152 03       		.uleb128 0x3
 698 0153 B4070000 		.4byte	.LASF30
 699 0157 08       		.byte	0x8
 700 0158 3F       		.byte	0x3f
 701 0159 5D010000 		.4byte	0x15d
 702 015d 05       		.uleb128 0x5
 703 015e 1B040000 		.4byte	.LASF52
 704 0162 48       		.byte	0x48
 705 0163 09       		.byte	0x9
 706 0164 C2       		.byte	0xc2
 707 0165 62020000 		.4byte	0x262
 708 0169 06       		.uleb128 0x6
 709 016a DB060000 		.4byte	.LASF31
 710 016e 09       		.byte	0x9
 711 016f C3       		.byte	0xc3
 712 0170 6D020000 		.4byte	0x26d
 713 0174 00       		.byte	0
 714 0175 06       		.uleb128 0x6
 715 0176 06060000 		.4byte	.LASF32
 716 017a 09       		.byte	0x9
 717 017b C5       		.byte	0xc5
 718 017c 6D020000 		.4byte	0x26d
 719 0180 04       		.byte	0x4
 720 0181 06       		.uleb128 0x6
 721 0182 28020000 		.4byte	.LASF33
 722 0186 09       		.byte	0x9
 723 0187 C7       		.byte	0xc7
 724 0188 1B010000 		.4byte	0x11b
 725 018c 08       		.byte	0x8
 726 018d 06       		.uleb128 0x6
 727 018e 62090000 		.4byte	.LASF34
 728 0192 09       		.byte	0x9
 729 0193 C8       		.byte	0xc8
 730 0194 9C050000 		.4byte	0x59c
 731 0198 0C       		.byte	0xc
 732 0199 06       		.uleb128 0x6
 733 019a 09030000 		.4byte	.LASF35
 734 019e 09       		.byte	0x9
 735 019f CA       		.byte	0xca
 736 01a0 6D020000 		.4byte	0x26d
 737 01a4 10       		.byte	0x10
 738 01a5 06       		.uleb128 0x6
 739 01a6 65050000 		.4byte	.LASF36
 740 01aa 09       		.byte	0x9
 741 01ab CB       		.byte	0xcb
ARM GAS  /var/folders/m4/4md61f0s1_g0rzfghffqnxvr0000gn/T//ccA7UFTV.s 			page 14


 742 01ac 6D020000 		.4byte	0x26d
 743 01b0 14       		.byte	0x14
 744 01b1 06       		.uleb128 0x6
 745 01b2 01090000 		.4byte	.LASF37
 746 01b6 09       		.byte	0x9
 747 01b7 D2       		.byte	0xd2
 748 01b8 EA070000 		.4byte	0x7ea
 749 01bc 18       		.byte	0x18
 750 01bd 06       		.uleb128 0x6
 751 01be AE060000 		.4byte	.LASF38
 752 01c2 09       		.byte	0x9
 753 01c3 DD       		.byte	0xdd
 754 01c4 FA000000 		.4byte	0xfa
 755 01c8 1C       		.byte	0x1c
 756 01c9 06       		.uleb128 0x6
 757 01ca E2060000 		.4byte	.LASF39
 758 01ce 09       		.byte	0x9
 759 01cf E1       		.byte	0xe1
 760 01d0 EF000000 		.4byte	0xef
 761 01d4 1D       		.byte	0x1d
 762 01d5 06       		.uleb128 0x6
 763 01d6 A3080000 		.4byte	.LASF40
 764 01da 09       		.byte	0x9
 765 01db E6       		.byte	0xe6
 766 01dc 05010000 		.4byte	0x105
 767 01e0 1E       		.byte	0x1e
 768 01e1 06       		.uleb128 0x6
 769 01e2 B6060000 		.4byte	.LASF41
 770 01e6 09       		.byte	0x9
 771 01e7 EC       		.byte	0xec
 772 01e8 10010000 		.4byte	0x110
 773 01ec 1F       		.byte	0x1f
 774 01ed 06       		.uleb128 0x6
 775 01ee AC030000 		.4byte	.LASF42
 776 01f2 09       		.byte	0x9
 777 01f3 F3       		.byte	0xf3
 778 01f4 FC070000 		.4byte	0x7fc
 779 01f8 20       		.byte	0x20
 780 01f9 07       		.uleb128 0x7
 781 01fa 705F7500 		.ascii	"p_u\000"
 782 01fe 09       		.byte	0x9
 783 01ff 3101     		.2byte	0x131
 784 0201 25070000 		.4byte	0x725
 785 0205 24       		.byte	0x24
 786 0206 08       		.uleb128 0x8
 787 0207 EC040000 		.4byte	.LASF43
 788 020b 09       		.byte	0x9
 789 020c 3601     		.2byte	0x136
 790 020e 73020000 		.4byte	0x273
 791 0212 28       		.byte	0x28
 792 0213 08       		.uleb128 0x8
 793 0214 CA030000 		.4byte	.LASF44
 794 0218 09       		.byte	0x9
 795 0219 3C01     		.2byte	0x13c
 796 021b 97020000 		.4byte	0x297
 797 021f 2C       		.byte	0x2c
 798 0220 08       		.uleb128 0x8
ARM GAS  /var/folders/m4/4md61f0s1_g0rzfghffqnxvr0000gn/T//ccA7UFTV.s 			page 15


 799 0221 27090000 		.4byte	.LASF45
 800 0225 09       		.byte	0x9
 801 0226 4001     		.2byte	0x140
 802 0228 26010000 		.4byte	0x126
 803 022c 34       		.byte	0x34
 804 022d 08       		.uleb128 0x8
 805 022e 35070000 		.4byte	.LASF46
 806 0232 09       		.byte	0x9
 807 0233 4601     		.2byte	0x146
 808 0235 31010000 		.4byte	0x131
 809 0239 38       		.byte	0x38
 810 023a 08       		.uleb128 0x8
 811 023b 99060000 		.4byte	.LASF47
 812 023f 09       		.byte	0x9
 813 0240 4D01     		.2byte	0x14d
 814 0242 E4070000 		.4byte	0x7e4
 815 0246 3C       		.byte	0x3c
 816 0247 08       		.uleb128 0x8
 817 0248 CE070000 		.4byte	.LASF48
 818 024c 09       		.byte	0x9
 819 024d 5101     		.2byte	0x151
 820 024f 1B010000 		.4byte	0x11b
 821 0253 40       		.byte	0x40
 822 0254 08       		.uleb128 0x8
 823 0255 88020000 		.4byte	.LASF49
 824 0259 09       		.byte	0x9
 825 025a 5801     		.2byte	0x158
 826 025c 4A030000 		.4byte	0x34a
 827 0260 44       		.byte	0x44
 828 0261 00       		.byte	0
 829 0262 03       		.uleb128 0x3
 830 0263 0D050000 		.4byte	.LASF50
 831 0267 08       		.byte	0x8
 832 0268 44       		.byte	0x44
 833 0269 6D020000 		.4byte	0x26d
 834 026d 09       		.uleb128 0x9
 835 026e 04       		.byte	0x4
 836 026f 52010000 		.4byte	0x152
 837 0273 03       		.uleb128 0x3
 838 0274 DD040000 		.4byte	.LASF51
 839 0278 08       		.byte	0x8
 840 0279 49       		.byte	0x49
 841 027a 7E020000 		.4byte	0x27e
 842 027e 05       		.uleb128 0x5
 843 027f 5D070000 		.4byte	.LASF53
 844 0283 04       		.byte	0x4
 845 0284 09       		.byte	0x9
 846 0285 B0       		.byte	0xb0
 847 0286 97020000 		.4byte	0x297
 848 028a 06       		.uleb128 0x6
 849 028b DB060000 		.4byte	.LASF31
 850 028f 09       		.byte	0x9
 851 0290 B1       		.byte	0xb1
 852 0291 6D020000 		.4byte	0x26d
 853 0295 00       		.byte	0
 854 0296 00       		.byte	0
 855 0297 03       		.uleb128 0x3
ARM GAS  /var/folders/m4/4md61f0s1_g0rzfghffqnxvr0000gn/T//ccA7UFTV.s 			page 16


 856 0298 86080000 		.4byte	.LASF54
 857 029c 08       		.byte	0x8
 858 029d 50       		.byte	0x50
 859 029e A2020000 		.4byte	0x2a2
 860 02a2 05       		.uleb128 0x5
 861 02a3 17020000 		.4byte	.LASF55
 862 02a7 08       		.byte	0x8
 863 02a8 09       		.byte	0x9
 864 02a9 B7       		.byte	0xb7
 865 02aa C7020000 		.4byte	0x2c7
 866 02ae 06       		.uleb128 0x6
 867 02af DB060000 		.4byte	.LASF31
 868 02b3 09       		.byte	0x9
 869 02b4 B8       		.byte	0xb8
 870 02b5 6D020000 		.4byte	0x26d
 871 02b9 00       		.byte	0
 872 02ba 06       		.uleb128 0x6
 873 02bb 06060000 		.4byte	.LASF32
 874 02bf 09       		.byte	0x9
 875 02c0 B9       		.byte	0xb9
 876 02c1 6D020000 		.4byte	0x26d
 877 02c5 04       		.byte	0x4
 878 02c6 00       		.byte	0
 879 02c7 03       		.uleb128 0x3
 880 02c8 15000000 		.4byte	.LASF56
 881 02cc 08       		.byte	0x8
 882 02cd 57       		.byte	0x57
 883 02ce D2020000 		.4byte	0x2d2
 884 02d2 0A       		.uleb128 0xa
 885 02d3 97040000 		.4byte	.LASF57
 886 02d7 1C       		.byte	0x1c
 887 02d8 09       		.byte	0x9
 888 02d9 9001     		.2byte	0x190
 889 02db 2E030000 		.4byte	0x32e
 890 02df 08       		.uleb128 0x8
 891 02e0 55070000 		.4byte	.LASF58
 892 02e4 09       		.byte	0x9
 893 02e5 9101     		.2byte	0x191
 894 02e7 97020000 		.4byte	0x297
 895 02eb 00       		.byte	0
 896 02ec 08       		.uleb128 0x8
 897 02ed C0060000 		.4byte	.LASF59
 898 02f1 09       		.byte	0x9
 899 02f2 9201     		.2byte	0x192
 900 02f4 1B010000 		.4byte	0x11b
 901 02f8 08       		.byte	0x8
 902 02f9 08       		.uleb128 0x8
 903 02fa 7D050000 		.4byte	.LASF60
 904 02fe 09       		.byte	0x9
 905 02ff 9401     		.2byte	0x194
 906 0301 9C050000 		.4byte	0x59c
 907 0305 0C       		.byte	0xc
 908 0306 08       		.uleb128 0x8
 909 0307 3B030000 		.4byte	.LASF61
 910 030b 09       		.byte	0x9
 911 030c 9701     		.2byte	0x197
 912 030e 6D020000 		.4byte	0x26d
ARM GAS  /var/folders/m4/4md61f0s1_g0rzfghffqnxvr0000gn/T//ccA7UFTV.s 			page 17


 913 0312 10       		.byte	0x10
 914 0313 08       		.uleb128 0x8
 915 0314 B3050000 		.4byte	.LASF62
 916 0318 09       		.byte	0x9
 917 0319 9801     		.2byte	0x198
 918 031b 6D020000 		.4byte	0x26d
 919 031f 14       		.byte	0x14
 920 0320 08       		.uleb128 0x8
 921 0321 A9050000 		.4byte	.LASF63
 922 0325 09       		.byte	0x9
 923 0326 9B01     		.2byte	0x19b
 924 0328 6D020000 		.4byte	0x26d
 925 032c 18       		.byte	0x18
 926 032d 00       		.byte	0
 927 032e 03       		.uleb128 0x3
 928 032f D9070000 		.4byte	.LASF64
 929 0333 08       		.byte	0x8
 930 0334 5C       		.byte	0x5c
 931 0335 39030000 		.4byte	0x339
 932 0339 09       		.uleb128 0x9
 933 033a 04       		.byte	0x4
 934 033b 3F030000 		.4byte	0x33f
 935 033f 0B       		.uleb128 0xb
 936 0340 4A030000 		.4byte	0x34a
 937 0344 0C       		.uleb128 0xc
 938 0345 4A030000 		.4byte	0x34a
 939 0349 00       		.byte	0
 940 034a 0D       		.uleb128 0xd
 941 034b 04       		.byte	0x4
 942 034c 03       		.uleb128 0x3
 943 034d F6050000 		.4byte	.LASF65
 944 0351 08       		.byte	0x8
 945 0352 61       		.byte	0x61
 946 0353 57030000 		.4byte	0x357
 947 0357 0A       		.uleb128 0xa
 948 0358 4D080000 		.4byte	.LASF66
 949 035c 14       		.byte	0x14
 950 035d 09       		.byte	0x9
 951 035e 6B01     		.2byte	0x16b
 952 0360 A6030000 		.4byte	0x3a6
 953 0364 08       		.uleb128 0x8
 954 0365 9E030000 		.4byte	.LASF67
 955 0369 09       		.byte	0x9
 956 036a 6C01     		.2byte	0x16c
 957 036c 01080000 		.4byte	0x801
 958 0370 00       		.byte	0
 959 0371 08       		.uleb128 0x8
 960 0372 4C030000 		.4byte	.LASF68
 961 0376 09       		.byte	0x9
 962 0377 6D01     		.2byte	0x16d
 963 0379 01080000 		.4byte	0x801
 964 037d 04       		.byte	0x4
 965 037e 08       		.uleb128 0x8
 966 037f C1030000 		.4byte	.LASF69
 967 0383 09       		.byte	0x9
 968 0384 6E01     		.2byte	0x16e
 969 0386 47010000 		.4byte	0x147
ARM GAS  /var/folders/m4/4md61f0s1_g0rzfghffqnxvr0000gn/T//ccA7UFTV.s 			page 18


 970 038a 08       		.byte	0x8
 971 038b 08       		.uleb128 0x8
 972 038c 68090000 		.4byte	.LASF70
 973 0390 09       		.byte	0x9
 974 0391 6F01     		.2byte	0x16f
 975 0393 2E030000 		.4byte	0x32e
 976 0397 0C       		.byte	0xc
 977 0398 08       		.uleb128 0x8
 978 0399 75080000 		.4byte	.LASF71
 979 039d 09       		.byte	0x9
 980 039e 7101     		.2byte	0x171
 981 03a0 4A030000 		.4byte	0x34a
 982 03a4 10       		.byte	0x10
 983 03a5 00       		.byte	0
 984 03a6 03       		.uleb128 0x3
 985 03a7 EF010000 		.4byte	.LASF72
 986 03ab 08       		.byte	0x8
 987 03ac 66       		.byte	0x66
 988 03ad B1030000 		.4byte	0x3b1
 989 03b1 0A       		.uleb128 0xa
 990 03b2 20050000 		.4byte	.LASF73
 991 03b6 10       		.byte	0x10
 992 03b7 09       		.byte	0x9
 993 03b8 7B01     		.2byte	0x17b
 994 03ba F3030000 		.4byte	0x3f3
 995 03be 08       		.uleb128 0x8
 996 03bf 9E030000 		.4byte	.LASF67
 997 03c3 09       		.byte	0x9
 998 03c4 7C01     		.2byte	0x17c
 999 03c6 01080000 		.4byte	0x801
 1000 03ca 00       		.byte	0
 1001 03cb 08       		.uleb128 0x8
 1002 03cc 4C030000 		.4byte	.LASF68
 1003 03d0 09       		.byte	0x9
 1004 03d1 7E01     		.2byte	0x17e
 1005 03d3 01080000 		.4byte	0x801
 1006 03d7 04       		.byte	0x4
 1007 03d8 08       		.uleb128 0x8
 1008 03d9 C1030000 		.4byte	.LASF69
 1009 03dd 09       		.byte	0x9
 1010 03de 8001     		.2byte	0x180
 1011 03e0 47010000 		.4byte	0x147
 1012 03e4 08       		.byte	0x8
 1013 03e5 08       		.uleb128 0x8
 1014 03e6 08090000 		.4byte	.LASF74
 1015 03ea 09       		.byte	0x9
 1016 03eb 8201     		.2byte	0x182
 1017 03ed FC070000 		.4byte	0x7fc
 1018 03f1 0C       		.byte	0xc
 1019 03f2 00       		.byte	0
 1020 03f3 03       		.uleb128 0x3
 1021 03f4 64000000 		.4byte	.LASF75
 1022 03f8 08       		.byte	0x8
 1023 03f9 6B       		.byte	0x6b
 1024 03fa FE030000 		.4byte	0x3fe
 1025 03fe 0A       		.uleb128 0xa
 1026 03ff 65060000 		.4byte	.LASF76
ARM GAS  /var/folders/m4/4md61f0s1_g0rzfghffqnxvr0000gn/T//ccA7UFTV.s 			page 19


 1027 0403 04       		.byte	0x4
 1028 0404 09       		.byte	0x9
 1029 0405 A201     		.2byte	0x1a2
 1030 0407 19040000 		.4byte	0x419
 1031 040b 08       		.uleb128 0x8
 1032 040c 0E080000 		.4byte	.LASF77
 1033 0410 09       		.byte	0x9
 1034 0411 AA01     		.2byte	0x1aa
 1035 0413 07080000 		.4byte	0x807
 1036 0417 00       		.byte	0
 1037 0418 00       		.byte	0
 1038 0419 03       		.uleb128 0x3
 1039 041a 6B040000 		.4byte	.LASF78
 1040 041e 08       		.byte	0x8
 1041 041f 70       		.byte	0x70
 1042 0420 24040000 		.4byte	0x424
 1043 0424 0E       		.uleb128 0xe
 1044 0425 E8020000 		.4byte	.LASF79
 1045 0429 5802     		.2byte	0x258
 1046 042b 09       		.byte	0x9
 1047 042c C201     		.2byte	0x1c2
 1048 042e 80040000 		.4byte	0x480
 1049 0432 08       		.uleb128 0x8
 1050 0433 AA080000 		.4byte	.LASF80
 1051 0437 09       		.byte	0x9
 1052 0438 C601     		.2byte	0x1c6
 1053 043a C7020000 		.4byte	0x2c7
 1054 043e 00       		.byte	0
 1055 043f 08       		.uleb128 0x8
 1056 0440 BB020000 		.4byte	.LASF81
 1057 0444 09       		.byte	0x9
 1058 0445 CA01     		.2byte	0x1ca
 1059 0447 A6030000 		.4byte	0x3a6
 1060 044b 1C       		.byte	0x1c
 1061 044c 07       		.uleb128 0x7
 1062 044d 64626700 		.ascii	"dbg\000"
 1063 0451 09       		.byte	0x9
 1064 0452 CE01     		.2byte	0x1ce
 1065 0454 F3030000 		.4byte	0x3f3
 1066 0458 2C       		.byte	0x2c
 1067 0459 08       		.uleb128 0x8
 1068 045a 25040000 		.4byte	.LASF82
 1069 045e 09       		.byte	0x9
 1070 045f D201     		.2byte	0x1d2
 1071 0461 52010000 		.4byte	0x152
 1072 0465 30       		.byte	0x30
 1073 0466 07       		.uleb128 0x7
 1074 0467 746D00   		.ascii	"tm\000"
 1075 046a 09       		.byte	0x9
 1076 046b D701     		.2byte	0x1d7
 1077 046d 1A070000 		.4byte	0x71a
 1078 0471 78       		.byte	0x78
 1079 0472 08       		.uleb128 0x8
 1080 0473 7C030000 		.4byte	.LASF83
 1081 0477 09       		.byte	0x9
 1082 0478 E301     		.2byte	0x1e3
 1083 047a 0C080000 		.4byte	0x80c
ARM GAS  /var/folders/m4/4md61f0s1_g0rzfghffqnxvr0000gn/T//ccA7UFTV.s 			page 20


 1084 047e 80       		.byte	0x80
 1085 047f 00       		.byte	0
 1086 0480 04       		.uleb128 0x4
 1087 0481 04       		.byte	0x4
 1088 0482 07       		.byte	0x7
 1089 0483 04050000 		.4byte	.LASF84
 1090 0487 0F       		.uleb128 0xf
 1091 0488 CE000000 		.4byte	0xce
 1092 048c 10       		.uleb128 0x10
 1093 048d 18       		.byte	0x18
 1094 048e 0A       		.byte	0xa
 1095 048f 5601     		.2byte	0x156
 1096 0491 E3040000 		.4byte	0x4e3
 1097 0495 07       		.uleb128 0x7
 1098 0496 435200   		.ascii	"CR\000"
 1099 0499 0A       		.byte	0xa
 1100 049a 5801     		.2byte	0x158
 1101 049c 87040000 		.4byte	0x487
 1102 04a0 00       		.byte	0
 1103 04a1 08       		.uleb128 0x8
 1104 04a2 09080000 		.4byte	.LASF85
 1105 04a6 0A       		.byte	0xa
 1106 04a7 5901     		.2byte	0x159
 1107 04a9 87040000 		.4byte	0x487
 1108 04ad 04       		.byte	0x4
 1109 04ae 07       		.uleb128 0x7
 1110 04af 50415200 		.ascii	"PAR\000"
 1111 04b3 0A       		.byte	0xa
 1112 04b4 5A01     		.2byte	0x15a
 1113 04b6 87040000 		.4byte	0x487
 1114 04ba 08       		.byte	0x8
 1115 04bb 08       		.uleb128 0x8
 1116 04bc 22000000 		.4byte	.LASF86
 1117 04c0 0A       		.byte	0xa
 1118 04c1 5B01     		.2byte	0x15b
 1119 04c3 87040000 		.4byte	0x487
 1120 04c7 0C       		.byte	0xc
 1121 04c8 08       		.uleb128 0x8
 1122 04c9 66080000 		.4byte	.LASF87
 1123 04cd 0A       		.byte	0xa
 1124 04ce 5C01     		.2byte	0x15c
 1125 04d0 87040000 		.4byte	0x487
 1126 04d4 10       		.byte	0x10
 1127 04d5 07       		.uleb128 0x7
 1128 04d6 46435200 		.ascii	"FCR\000"
 1129 04da 0A       		.byte	0xa
 1130 04db 5D01     		.2byte	0x15d
 1131 04dd 87040000 		.4byte	0x487
 1132 04e1 14       		.byte	0x14
 1133 04e2 00       		.byte	0
 1134 04e3 11       		.uleb128 0x11
 1135 04e4 29080000 		.4byte	.LASF88
 1136 04e8 0A       		.byte	0xa
 1137 04e9 5E01     		.2byte	0x15e
 1138 04eb 8C040000 		.4byte	0x48c
 1139 04ef 10       		.uleb128 0x10
 1140 04f0 28       		.byte	0x28
ARM GAS  /var/folders/m4/4md61f0s1_g0rzfghffqnxvr0000gn/T//ccA7UFTV.s 			page 21


 1141 04f1 0A       		.byte	0xa
 1142 04f2 DF01     		.2byte	0x1df
 1143 04f4 7A050000 		.4byte	0x57a
 1144 04f8 07       		.uleb128 0x7
 1145 04f9 43523100 		.ascii	"CR1\000"
 1146 04fd 0A       		.byte	0xa
 1147 04fe E101     		.2byte	0x1e1
 1148 0500 87040000 		.4byte	0x487
 1149 0504 00       		.byte	0
 1150 0505 07       		.uleb128 0x7
 1151 0506 43523200 		.ascii	"CR2\000"
 1152 050a 0A       		.byte	0xa
 1153 050b E201     		.2byte	0x1e2
 1154 050d 87040000 		.4byte	0x487
 1155 0511 04       		.byte	0x4
 1156 0512 08       		.uleb128 0x8
 1157 0513 B8080000 		.4byte	.LASF89
 1158 0517 0A       		.byte	0xa
 1159 0518 E301     		.2byte	0x1e3
 1160 051a 87040000 		.4byte	0x487
 1161 051e 08       		.byte	0x8
 1162 051f 08       		.uleb128 0x8
 1163 0520 BD080000 		.4byte	.LASF90
 1164 0524 0A       		.byte	0xa
 1165 0525 E401     		.2byte	0x1e4
 1166 0527 87040000 		.4byte	0x487
 1167 052b 0C       		.byte	0xc
 1168 052c 07       		.uleb128 0x7
 1169 052d 445200   		.ascii	"DR\000"
 1170 0530 0A       		.byte	0xa
 1171 0531 E501     		.2byte	0x1e5
 1172 0533 87040000 		.4byte	0x487
 1173 0537 10       		.byte	0x10
 1174 0538 07       		.uleb128 0x7
 1175 0539 53523100 		.ascii	"SR1\000"
 1176 053d 0A       		.byte	0xa
 1177 053e E601     		.2byte	0x1e6
 1178 0540 87040000 		.4byte	0x487
 1179 0544 14       		.byte	0x14
 1180 0545 07       		.uleb128 0x7
 1181 0546 53523200 		.ascii	"SR2\000"
 1182 054a 0A       		.byte	0xa
 1183 054b E701     		.2byte	0x1e7
 1184 054d 87040000 		.4byte	0x487
 1185 0551 18       		.byte	0x18
 1186 0552 07       		.uleb128 0x7
 1187 0553 43435200 		.ascii	"CCR\000"
 1188 0557 0A       		.byte	0xa
 1189 0558 E801     		.2byte	0x1e8
 1190 055a 87040000 		.4byte	0x487
 1191 055e 1C       		.byte	0x1c
 1192 055f 08       		.uleb128 0x8
 1193 0560 92000000 		.4byte	.LASF91
 1194 0564 0A       		.byte	0xa
 1195 0565 E901     		.2byte	0x1e9
 1196 0567 87040000 		.4byte	0x487
 1197 056b 20       		.byte	0x20
ARM GAS  /var/folders/m4/4md61f0s1_g0rzfghffqnxvr0000gn/T//ccA7UFTV.s 			page 22


 1198 056c 08       		.uleb128 0x8
 1199 056d 04030000 		.4byte	.LASF92
 1200 0571 0A       		.byte	0xa
 1201 0572 EA01     		.2byte	0x1ea
 1202 0574 87040000 		.4byte	0x487
 1203 0578 24       		.byte	0x24
 1204 0579 00       		.byte	0
 1205 057a 11       		.uleb128 0x11
 1206 057b 2D090000 		.4byte	.LASF93
 1207 057f 0A       		.byte	0xa
 1208 0580 EB01     		.2byte	0x1eb
 1209 0582 EF040000 		.4byte	0x4ef
 1210 0586 03       		.uleb128 0x3
 1211 0587 43030000 		.4byte	.LASF94
 1212 058b 0B       		.byte	0xb
 1213 058c 65       		.byte	0x65
 1214 058d 4A030000 		.4byte	0x34a
 1215 0591 03       		.uleb128 0x3
 1216 0592 C5040000 		.4byte	.LASF95
 1217 0596 0B       		.byte	0xb
 1218 0597 6D       		.byte	0x6d
 1219 0598 D9000000 		.4byte	0xd9
 1220 059c 05       		.uleb128 0x5
 1221 059d 45080000 		.4byte	.LASF96
 1222 05a1 04       		.byte	0x4
 1223 05a2 0B       		.byte	0xb
 1224 05a3 89       		.byte	0x89
 1225 05a4 B5050000 		.4byte	0x5b5
 1226 05a8 12       		.uleb128 0x12
 1227 05a9 72313300 		.ascii	"r13\000"
 1228 05ad 0B       		.byte	0xb
 1229 05ae 8A       		.byte	0x8a
 1230 05af FF060000 		.4byte	0x6ff
 1231 05b3 00       		.byte	0
 1232 05b4 00       		.byte	0
 1233 05b5 05       		.uleb128 0x5
 1234 05b6 58000000 		.4byte	.LASF97
 1235 05ba 64       		.byte	0x64
 1236 05bb 0C       		.byte	0xc
 1237 05bc FD       		.byte	0xfd
 1238 05bd FF060000 		.4byte	0x6ff
 1239 05c1 12       		.uleb128 0x12
 1240 05c2 73313600 		.ascii	"s16\000"
 1241 05c6 0C       		.byte	0xc
 1242 05c7 FF       		.byte	0xff
 1243 05c8 86050000 		.4byte	0x586
 1244 05cc 00       		.byte	0
 1245 05cd 07       		.uleb128 0x7
 1246 05ce 73313700 		.ascii	"s17\000"
 1247 05d2 0C       		.byte	0xc
 1248 05d3 0001     		.2byte	0x100
 1249 05d5 86050000 		.4byte	0x586
 1250 05d9 04       		.byte	0x4
 1251 05da 07       		.uleb128 0x7
 1252 05db 73313800 		.ascii	"s18\000"
 1253 05df 0C       		.byte	0xc
 1254 05e0 0101     		.2byte	0x101
ARM GAS  /var/folders/m4/4md61f0s1_g0rzfghffqnxvr0000gn/T//ccA7UFTV.s 			page 23


 1255 05e2 86050000 		.4byte	0x586
 1256 05e6 08       		.byte	0x8
 1257 05e7 07       		.uleb128 0x7
 1258 05e8 73313900 		.ascii	"s19\000"
 1259 05ec 0C       		.byte	0xc
 1260 05ed 0201     		.2byte	0x102
 1261 05ef 86050000 		.4byte	0x586
 1262 05f3 0C       		.byte	0xc
 1263 05f4 07       		.uleb128 0x7
 1264 05f5 73323000 		.ascii	"s20\000"
 1265 05f9 0C       		.byte	0xc
 1266 05fa 0301     		.2byte	0x103
 1267 05fc 86050000 		.4byte	0x586
 1268 0600 10       		.byte	0x10
 1269 0601 07       		.uleb128 0x7
 1270 0602 73323100 		.ascii	"s21\000"
 1271 0606 0C       		.byte	0xc
 1272 0607 0401     		.2byte	0x104
 1273 0609 86050000 		.4byte	0x586
 1274 060d 14       		.byte	0x14
 1275 060e 07       		.uleb128 0x7
 1276 060f 73323200 		.ascii	"s22\000"
 1277 0613 0C       		.byte	0xc
 1278 0614 0501     		.2byte	0x105
 1279 0616 86050000 		.4byte	0x586
 1280 061a 18       		.byte	0x18
 1281 061b 07       		.uleb128 0x7
 1282 061c 73323300 		.ascii	"s23\000"
 1283 0620 0C       		.byte	0xc
 1284 0621 0601     		.2byte	0x106
 1285 0623 86050000 		.4byte	0x586
 1286 0627 1C       		.byte	0x1c
 1287 0628 07       		.uleb128 0x7
 1288 0629 73323400 		.ascii	"s24\000"
 1289 062d 0C       		.byte	0xc
 1290 062e 0701     		.2byte	0x107
 1291 0630 86050000 		.4byte	0x586
 1292 0634 20       		.byte	0x20
 1293 0635 07       		.uleb128 0x7
 1294 0636 73323500 		.ascii	"s25\000"
 1295 063a 0C       		.byte	0xc
 1296 063b 0801     		.2byte	0x108
 1297 063d 86050000 		.4byte	0x586
 1298 0641 24       		.byte	0x24
 1299 0642 07       		.uleb128 0x7
 1300 0643 73323600 		.ascii	"s26\000"
 1301 0647 0C       		.byte	0xc
 1302 0648 0901     		.2byte	0x109
 1303 064a 86050000 		.4byte	0x586
 1304 064e 28       		.byte	0x28
 1305 064f 07       		.uleb128 0x7
 1306 0650 73323700 		.ascii	"s27\000"
 1307 0654 0C       		.byte	0xc
 1308 0655 0A01     		.2byte	0x10a
 1309 0657 86050000 		.4byte	0x586
 1310 065b 2C       		.byte	0x2c
 1311 065c 07       		.uleb128 0x7
ARM GAS  /var/folders/m4/4md61f0s1_g0rzfghffqnxvr0000gn/T//ccA7UFTV.s 			page 24


 1312 065d 73323800 		.ascii	"s28\000"
 1313 0661 0C       		.byte	0xc
 1314 0662 0B01     		.2byte	0x10b
 1315 0664 86050000 		.4byte	0x586
 1316 0668 30       		.byte	0x30
 1317 0669 07       		.uleb128 0x7
 1318 066a 73323900 		.ascii	"s29\000"
 1319 066e 0C       		.byte	0xc
 1320 066f 0C01     		.2byte	0x10c
 1321 0671 86050000 		.4byte	0x586
 1322 0675 34       		.byte	0x34
 1323 0676 07       		.uleb128 0x7
 1324 0677 73333000 		.ascii	"s30\000"
 1325 067b 0C       		.byte	0xc
 1326 067c 0D01     		.2byte	0x10d
 1327 067e 86050000 		.4byte	0x586
 1328 0682 38       		.byte	0x38
 1329 0683 07       		.uleb128 0x7
 1330 0684 73333100 		.ascii	"s31\000"
 1331 0688 0C       		.byte	0xc
 1332 0689 0E01     		.2byte	0x10e
 1333 068b 86050000 		.4byte	0x586
 1334 068f 3C       		.byte	0x3c
 1335 0690 07       		.uleb128 0x7
 1336 0691 723400   		.ascii	"r4\000"
 1337 0694 0C       		.byte	0xc
 1338 0695 1001     		.2byte	0x110
 1339 0697 86050000 		.4byte	0x586
 1340 069b 40       		.byte	0x40
 1341 069c 07       		.uleb128 0x7
 1342 069d 723500   		.ascii	"r5\000"
 1343 06a0 0C       		.byte	0xc
 1344 06a1 1101     		.2byte	0x111
 1345 06a3 86050000 		.4byte	0x586
 1346 06a7 44       		.byte	0x44
 1347 06a8 07       		.uleb128 0x7
 1348 06a9 723600   		.ascii	"r6\000"
 1349 06ac 0C       		.byte	0xc
 1350 06ad 1201     		.2byte	0x112
 1351 06af 86050000 		.4byte	0x586
 1352 06b3 48       		.byte	0x48
 1353 06b4 07       		.uleb128 0x7
 1354 06b5 723700   		.ascii	"r7\000"
 1355 06b8 0C       		.byte	0xc
 1356 06b9 1301     		.2byte	0x113
 1357 06bb 86050000 		.4byte	0x586
 1358 06bf 4C       		.byte	0x4c
 1359 06c0 07       		.uleb128 0x7
 1360 06c1 723800   		.ascii	"r8\000"
 1361 06c4 0C       		.byte	0xc
 1362 06c5 1401     		.2byte	0x114
 1363 06c7 86050000 		.4byte	0x586
 1364 06cb 50       		.byte	0x50
 1365 06cc 07       		.uleb128 0x7
 1366 06cd 723900   		.ascii	"r9\000"
 1367 06d0 0C       		.byte	0xc
 1368 06d1 1501     		.2byte	0x115
ARM GAS  /var/folders/m4/4md61f0s1_g0rzfghffqnxvr0000gn/T//ccA7UFTV.s 			page 25


 1369 06d3 86050000 		.4byte	0x586
 1370 06d7 54       		.byte	0x54
 1371 06d8 07       		.uleb128 0x7
 1372 06d9 72313000 		.ascii	"r10\000"
 1373 06dd 0C       		.byte	0xc
 1374 06de 1601     		.2byte	0x116
 1375 06e0 86050000 		.4byte	0x586
 1376 06e4 58       		.byte	0x58
 1377 06e5 07       		.uleb128 0x7
 1378 06e6 72313100 		.ascii	"r11\000"
 1379 06ea 0C       		.byte	0xc
 1380 06eb 1701     		.2byte	0x117
 1381 06ed 86050000 		.4byte	0x586
 1382 06f1 5C       		.byte	0x5c
 1383 06f2 07       		.uleb128 0x7
 1384 06f3 6C7200   		.ascii	"lr\000"
 1385 06f6 0C       		.byte	0xc
 1386 06f7 1801     		.2byte	0x118
 1387 06f9 86050000 		.4byte	0x586
 1388 06fd 60       		.byte	0x60
 1389 06fe 00       		.byte	0
 1390 06ff 09       		.uleb128 0x9
 1391 0700 04       		.byte	0x4
 1392 0701 B5050000 		.4byte	0x5b5
 1393 0705 13       		.uleb128 0x13
 1394 0706 04       		.byte	0x4
 1395 0707 0D       		.byte	0xd
 1396 0708 38       		.byte	0x38
 1397 0709 1A070000 		.4byte	0x71a
 1398 070d 06       		.uleb128 0x6
 1399 070e 22080000 		.4byte	.LASF98
 1400 0712 0D       		.byte	0xd
 1401 0713 3C       		.byte	0x3c
 1402 0714 E4000000 		.4byte	0xe4
 1403 0718 00       		.byte	0
 1404 0719 00       		.byte	0
 1405 071a 03       		.uleb128 0x3
 1406 071b 8D050000 		.4byte	.LASF99
 1407 071f 0D       		.byte	0xd
 1408 0720 3D       		.byte	0x3d
 1409 0721 05070000 		.4byte	0x705
 1410 0725 14       		.uleb128 0x14
 1411 0726 04       		.byte	0x4
 1412 0727 09       		.byte	0x9
 1413 0728 FA       		.byte	0xfa
 1414 0729 82070000 		.4byte	0x782
 1415 072d 15       		.uleb128 0x15
 1416 072e 2E000000 		.4byte	.LASF100
 1417 0732 09       		.byte	0x9
 1418 0733 0101     		.2byte	0x101
 1419 0735 26010000 		.4byte	0x126
 1420 0739 15       		.uleb128 0x15
 1421 073a D8010000 		.4byte	.LASF101
 1422 073e 09       		.byte	0x9
 1423 073f 0801     		.2byte	0x108
 1424 0741 26010000 		.4byte	0x126
 1425 0745 15       		.uleb128 0x15
ARM GAS  /var/folders/m4/4md61f0s1_g0rzfghffqnxvr0000gn/T//ccA7UFTV.s 			page 26


 1426 0746 FA080000 		.4byte	.LASF102
 1427 074a 09       		.byte	0x9
 1428 074b 0F01     		.2byte	0x10f
 1429 074d 4A030000 		.4byte	0x34a
 1430 0751 15       		.uleb128 0x15
 1431 0752 37050000 		.4byte	.LASF103
 1432 0756 09       		.byte	0x9
 1433 0757 1601     		.2byte	0x116
 1434 0759 82070000 		.4byte	0x782
 1435 075d 15       		.uleb128 0x15
 1436 075e B3030000 		.4byte	.LASF104
 1437 0762 09       		.byte	0x9
 1438 0763 1E01     		.2byte	0x11e
 1439 0765 AD070000 		.4byte	0x7ad
 1440 0769 15       		.uleb128 0x15
 1441 076a 4E070000 		.4byte	.LASF105
 1442 076e 09       		.byte	0x9
 1443 076f 2701     		.2byte	0x127
 1444 0771 E4070000 		.4byte	0x7e4
 1445 0775 15       		.uleb128 0x15
 1446 0776 D4060000 		.4byte	.LASF106
 1447 077a 09       		.byte	0x9
 1448 077b 2F01     		.2byte	0x12f
 1449 077d 31010000 		.4byte	0x131
 1450 0781 00       		.byte	0
 1451 0782 09       		.uleb128 0x9
 1452 0783 04       		.byte	0x4
 1453 0784 62020000 		.4byte	0x262
 1454 0788 05       		.uleb128 0x5
 1455 0789 28070000 		.4byte	.LASF107
 1456 078d 0C       		.byte	0xc
 1457 078e 0E       		.byte	0xe
 1458 078f 34       		.byte	0x34
 1459 0790 AD070000 		.4byte	0x7ad
 1460 0794 06       		.uleb128 0x6
 1461 0795 11030000 		.4byte	.LASF108
 1462 0799 0E       		.byte	0xe
 1463 079a 35       		.byte	0x35
 1464 079b 97020000 		.4byte	0x297
 1465 079f 00       		.byte	0
 1466 07a0 06       		.uleb128 0x6
 1467 07a1 E4030000 		.4byte	.LASF109
 1468 07a5 0E       		.byte	0xe
 1469 07a6 37       		.byte	0x37
 1470 07a7 3C010000 		.4byte	0x13c
 1471 07ab 08       		.byte	0x8
 1472 07ac 00       		.byte	0
 1473 07ad 09       		.uleb128 0x9
 1474 07ae 04       		.byte	0x4
 1475 07af 88070000 		.4byte	0x788
 1476 07b3 05       		.uleb128 0x5
 1477 07b4 3C080000 		.4byte	.LASF110
 1478 07b8 10       		.byte	0x10
 1479 07b9 0F       		.byte	0xf
 1480 07ba 39       		.byte	0x39
 1481 07bb E4070000 		.4byte	0x7e4
 1482 07bf 06       		.uleb128 0x6
ARM GAS  /var/folders/m4/4md61f0s1_g0rzfghffqnxvr0000gn/T//ccA7UFTV.s 			page 27


 1483 07c0 91060000 		.4byte	.LASF111
 1484 07c4 0F       		.byte	0xf
 1485 07c5 3A       		.byte	0x3a
 1486 07c6 97020000 		.4byte	0x297
 1487 07ca 00       		.byte	0
 1488 07cb 06       		.uleb128 0x6
 1489 07cc 5A090000 		.4byte	.LASF112
 1490 07d0 0F       		.byte	0xf
 1491 07d1 3C       		.byte	0x3c
 1492 07d2 6D020000 		.4byte	0x26d
 1493 07d6 08       		.byte	0x8
 1494 07d7 06       		.uleb128 0x6
 1495 07d8 BD070000 		.4byte	.LASF113
 1496 07dc 0F       		.byte	0xf
 1497 07dd 3E       		.byte	0x3e
 1498 07de 27080000 		.4byte	0x827
 1499 07e2 0C       		.byte	0xc
 1500 07e3 00       		.byte	0
 1501 07e4 09       		.uleb128 0x9
 1502 07e5 04       		.byte	0x4
 1503 07e6 B3070000 		.4byte	0x7b3
 1504 07ea 09       		.uleb128 0x9
 1505 07eb 04       		.byte	0x4
 1506 07ec F7070000 		.4byte	0x7f7
 1507 07f0 04       		.uleb128 0x4
 1508 07f1 01       		.byte	0x1
 1509 07f2 08       		.byte	0x8
 1510 07f3 8D070000 		.4byte	.LASF114
 1511 07f7 16       		.uleb128 0x16
 1512 07f8 F0070000 		.4byte	0x7f0
 1513 07fc 0F       		.uleb128 0xf
 1514 07fd 47010000 		.4byte	0x147
 1515 0801 09       		.uleb128 0x9
 1516 0802 04       		.byte	0x4
 1517 0803 4C030000 		.4byte	0x34c
 1518 0807 0F       		.uleb128 0xf
 1519 0808 EA070000 		.4byte	0x7ea
 1520 080c 17       		.uleb128 0x17
 1521 080d 91050000 		.4byte	0x591
 1522 0811 1C080000 		.4byte	0x81c
 1523 0815 18       		.uleb128 0x18
 1524 0816 80040000 		.4byte	0x480
 1525 081a 3A       		.byte	0x3a
 1526 081b 00       		.byte	0
 1527 081c 03       		.uleb128 0x3
 1528 081d 5C020000 		.4byte	.LASF115
 1529 0821 0F       		.byte	0xf
 1530 0822 34       		.byte	0x34
 1531 0823 B3070000 		.4byte	0x7b3
 1532 0827 09       		.uleb128 0x9
 1533 0828 04       		.byte	0x4
 1534 0829 1C080000 		.4byte	0x81c
 1535 082d 09       		.uleb128 0x9
 1536 082e 04       		.byte	0x4
 1537 082f AD000000 		.4byte	0xad
 1538 0833 09       		.uleb128 0x9
 1539 0834 04       		.byte	0x4
ARM GAS  /var/folders/m4/4md61f0s1_g0rzfghffqnxvr0000gn/T//ccA7UFTV.s 			page 28


 1540 0835 39080000 		.4byte	0x839
 1541 0839 16       		.uleb128 0x16
 1542 083a AD000000 		.4byte	0xad
 1543 083e 10       		.uleb128 0x10
 1544 083f 0C       		.byte	0xc
 1545 0840 10       		.byte	0x10
 1546 0841 6D01     		.2byte	0x16d
 1547 0843 89080000 		.4byte	0x889
 1548 0847 08       		.uleb128 0x8
 1549 0848 98000000 		.4byte	.LASF116
 1550 084c 10       		.byte	0x10
 1551 084d 6E01     		.2byte	0x16e
 1552 084f 89080000 		.4byte	0x889
 1553 0853 00       		.byte	0
 1554 0854 08       		.uleb128 0x8
 1555 0855 40070000 		.4byte	.LASF117
 1556 0859 10       		.byte	0x10
 1557 085a 6F01     		.2byte	0x16f
 1558 085c 8F080000 		.4byte	0x88f
 1559 0860 04       		.byte	0x4
 1560 0861 08       		.uleb128 0x8
 1561 0862 DD030000 		.4byte	.LASF118
 1562 0866 10       		.byte	0x10
 1563 0867 7001     		.2byte	0x170
 1564 0869 AD000000 		.4byte	0xad
 1565 086d 08       		.byte	0x8
 1566 086e 08       		.uleb128 0x8
 1567 086f 6B080000 		.4byte	.LASF119
 1568 0873 10       		.byte	0x10
 1569 0874 7201     		.2byte	0x172
 1570 0876 AD000000 		.4byte	0xad
 1571 087a 09       		.byte	0x9
 1572 087b 08       		.uleb128 0x8
 1573 087c 3E000000 		.4byte	.LASF120
 1574 0880 10       		.byte	0x10
 1575 0881 7301     		.2byte	0x173
 1576 0883 AD000000 		.4byte	0xad
 1577 0887 0A       		.byte	0xa
 1578 0888 00       		.byte	0
 1579 0889 09       		.uleb128 0x9
 1580 088a 04       		.byte	0x4
 1581 088b E3040000 		.4byte	0x4e3
 1582 088f 09       		.uleb128 0x9
 1583 0890 04       		.byte	0x4
 1584 0891 87040000 		.4byte	0x487
 1585 0895 11       		.uleb128 0x11
 1586 0896 0D060000 		.4byte	.LASF121
 1587 089a 10       		.byte	0x10
 1588 089b 7401     		.2byte	0x174
 1589 089d 3E080000 		.4byte	0x83e
 1590 08a1 04       		.uleb128 0x4
 1591 08a2 01       		.byte	0x1
 1592 08a3 02       		.byte	0x2
 1593 08a4 75060000 		.4byte	.LASF122
 1594 08a8 19       		.uleb128 0x19
 1595 08a9 01       		.byte	0x1
 1596 08aa 50000000 		.4byte	0x50
ARM GAS  /var/folders/m4/4md61f0s1_g0rzfghffqnxvr0000gn/T//ccA7UFTV.s 			page 29


 1597 08ae 11       		.byte	0x11
 1598 08af 4C       		.byte	0x4c
 1599 08b0 D9080000 		.4byte	0x8d9
 1600 08b4 1A       		.uleb128 0x1a
 1601 08b5 A3060000 		.4byte	.LASF123
 1602 08b9 00       		.byte	0
 1603 08ba 1A       		.uleb128 0x1a
 1604 08bb 4F000000 		.4byte	.LASF124
 1605 08bf 01       		.byte	0x1
 1606 08c0 1A       		.uleb128 0x1a
 1607 08c1 18080000 		.4byte	.LASF125
 1608 08c5 02       		.byte	0x2
 1609 08c6 1A       		.uleb128 0x1a
 1610 08c7 36060000 		.4byte	.LASF126
 1611 08cb 03       		.byte	0x3
 1612 08cc 1A       		.uleb128 0x1a
 1613 08cd 6D070000 		.4byte	.LASF127
 1614 08d1 04       		.byte	0x4
 1615 08d2 1A       		.uleb128 0x1a
 1616 08d3 1D070000 		.4byte	.LASF128
 1617 08d7 05       		.byte	0x5
 1618 08d8 00       		.byte	0
 1619 08d9 03       		.uleb128 0x3
 1620 08da D6050000 		.4byte	.LASF129
 1621 08de 11       		.byte	0x11
 1622 08df 53       		.byte	0x53
 1623 08e0 A8080000 		.4byte	0x8a8
 1624 08e4 11       		.uleb128 0x11
 1625 08e5 D8020000 		.4byte	.LASF130
 1626 08e9 12       		.byte	0x12
 1627 08ea 6A01     		.2byte	0x16a
 1628 08ec B8000000 		.4byte	0xb8
 1629 08f0 11       		.uleb128 0x11
 1630 08f1 44060000 		.4byte	.LASF131
 1631 08f5 12       		.byte	0x12
 1632 08f6 6F01     		.2byte	0x16f
 1633 08f8 CE000000 		.4byte	0xce
 1634 08fc 1B       		.uleb128 0x1b
 1635 08fd 01       		.byte	0x1
 1636 08fe 50000000 		.4byte	0x50
 1637 0902 12       		.byte	0x12
 1638 0903 7401     		.2byte	0x174
 1639 0905 1C090000 		.4byte	0x91c
 1640 0909 1A       		.uleb128 0x1a
 1641 090a 9E050000 		.4byte	.LASF132
 1642 090e 01       		.byte	0x1
 1643 090f 1A       		.uleb128 0x1a
 1644 0910 EA030000 		.4byte	.LASF133
 1645 0914 02       		.byte	0x2
 1646 0915 1A       		.uleb128 0x1a
 1647 0916 29030000 		.4byte	.LASF134
 1648 091a 03       		.byte	0x3
 1649 091b 00       		.byte	0
 1650 091c 11       		.uleb128 0x11
 1651 091d 39090000 		.4byte	.LASF135
 1652 0921 12       		.byte	0x12
 1653 0922 7801     		.2byte	0x178
ARM GAS  /var/folders/m4/4md61f0s1_g0rzfghffqnxvr0000gn/T//ccA7UFTV.s 			page 30


 1654 0924 FC080000 		.4byte	0x8fc
 1655 0928 1B       		.uleb128 0x1b
 1656 0929 01       		.byte	0x1
 1657 092a 50000000 		.4byte	0x50
 1658 092e 12       		.byte	0x12
 1659 092f 7D01     		.2byte	0x17d
 1660 0931 48090000 		.4byte	0x948
 1661 0935 1A       		.uleb128 0x1a
 1662 0936 88040000 		.4byte	.LASF136
 1663 093a 01       		.byte	0x1
 1664 093b 1A       		.uleb128 0x1a
 1665 093c 0B070000 		.4byte	.LASF137
 1666 0940 02       		.byte	0x2
 1667 0941 1A       		.uleb128 0x1a
 1668 0942 E1050000 		.4byte	.LASF138
 1669 0946 03       		.byte	0x3
 1670 0947 00       		.byte	0
 1671 0948 11       		.uleb128 0x11
 1672 0949 06000000 		.4byte	.LASF139
 1673 094d 12       		.byte	0x12
 1674 094e 8101     		.2byte	0x181
 1675 0950 28090000 		.4byte	0x928
 1676 0954 10       		.uleb128 0x10
 1677 0955 0C       		.byte	0xc
 1678 0956 12       		.byte	0x12
 1679 0957 8601     		.2byte	0x186
 1680 0959 85090000 		.4byte	0x985
 1681 095d 08       		.uleb128 0x8
 1682 095e 54030000 		.4byte	.LASF140
 1683 0962 12       		.byte	0x12
 1684 0963 8801     		.2byte	0x188
 1685 0965 1C090000 		.4byte	0x91c
 1686 0969 00       		.byte	0
 1687 096a 08       		.uleb128 0x8
 1688 096b 7C020000 		.4byte	.LASF141
 1689 096f 12       		.byte	0x12
 1690 0970 8901     		.2byte	0x189
 1691 0972 CE000000 		.4byte	0xce
 1692 0976 04       		.byte	0x4
 1693 0977 08       		.uleb128 0x8
 1694 0978 46050000 		.4byte	.LASF142
 1695 097c 12       		.byte	0x12
 1696 097d 8C01     		.2byte	0x18c
 1697 097f 48090000 		.4byte	0x948
 1698 0983 08       		.byte	0x8
 1699 0984 00       		.byte	0
 1700 0985 11       		.uleb128 0x11
 1701 0986 7C080000 		.4byte	.LASF143
 1702 098a 12       		.byte	0x12
 1703 098b 8E01     		.2byte	0x18e
 1704 098d 54090000 		.4byte	0x954
 1705 0991 11       		.uleb128 0x11
 1706 0992 11040000 		.4byte	.LASF144
 1707 0996 12       		.byte	0x12
 1708 0997 9301     		.2byte	0x193
 1709 0999 9D090000 		.4byte	0x99d
 1710 099d 0A       		.uleb128 0xa
ARM GAS  /var/folders/m4/4md61f0s1_g0rzfghffqnxvr0000gn/T//ccA7UFTV.s 			page 31


 1711 099e 11040000 		.4byte	.LASF144
 1712 09a2 38       		.byte	0x38
 1713 09a3 12       		.byte	0x12
 1714 09a4 9801     		.2byte	0x198
 1715 09a6 3A0A0000 		.4byte	0xa3a
 1716 09aa 08       		.uleb128 0x8
 1717 09ab E2020000 		.4byte	.LASF145
 1718 09af 12       		.byte	0x12
 1719 09b0 9C01     		.2byte	0x19c
 1720 09b2 D9080000 		.4byte	0x8d9
 1721 09b6 00       		.byte	0
 1722 09b7 08       		.uleb128 0x8
 1723 09b8 92070000 		.4byte	.LASF146
 1724 09bc 12       		.byte	0x12
 1725 09bd A001     		.2byte	0x1a0
 1726 09bf 3A0A0000 		.4byte	0xa3a
 1727 09c3 04       		.byte	0x4
 1728 09c4 08       		.uleb128 0x8
 1729 09c5 BA030000 		.4byte	.LASF147
 1730 09c9 12       		.byte	0x12
 1731 09ca A401     		.2byte	0x1a4
 1732 09cc F0080000 		.4byte	0x8f0
 1733 09d0 08       		.byte	0x8
 1734 09d1 08       		.uleb128 0x8
 1735 09d2 4F060000 		.4byte	.LASF148
 1736 09d6 12       		.byte	0x12
 1737 09d7 A901     		.2byte	0x1a9
 1738 09d9 1C080000 		.4byte	0x81c
 1739 09dd 0C       		.byte	0xc
 1740 09de 08       		.uleb128 0x8
 1741 09df 45090000 		.4byte	.LASF149
 1742 09e3 12       		.byte	0x12
 1743 09e4 B201     		.2byte	0x1b2
 1744 09e6 62020000 		.4byte	0x262
 1745 09ea 1C       		.byte	0x1c
 1746 09eb 08       		.uleb128 0x8
 1747 09ec 96020000 		.4byte	.LASF150
 1748 09f0 12       		.byte	0x12
 1749 09f1 B601     		.2byte	0x1b6
 1750 09f3 E4080000 		.4byte	0x8e4
 1751 09f7 20       		.byte	0x20
 1752 09f8 08       		.uleb128 0x8
 1753 09f9 19030000 		.4byte	.LASF151
 1754 09fd 12       		.byte	0x12
 1755 09fe BA01     		.2byte	0x1ba
 1756 0a00 CE000000 		.4byte	0xce
 1757 0a04 24       		.byte	0x24
 1758 0a05 08       		.uleb128 0x8
 1759 0a06 83050000 		.4byte	.LASF152
 1760 0a0a 12       		.byte	0x12
 1761 0a0b BE01     		.2byte	0x1be
 1762 0a0d CE000000 		.4byte	0xce
 1763 0a11 28       		.byte	0x28
 1764 0a12 08       		.uleb128 0x8
 1765 0a13 00000000 		.4byte	.LASF153
 1766 0a17 12       		.byte	0x12
 1767 0a18 C201     		.2byte	0x1c2
ARM GAS  /var/folders/m4/4md61f0s1_g0rzfghffqnxvr0000gn/T//ccA7UFTV.s 			page 32


 1768 0a1a 450A0000 		.4byte	0xa45
 1769 0a1e 2C       		.byte	0x2c
 1770 0a1f 08       		.uleb128 0x8
 1771 0a20 23030000 		.4byte	.LASF154
 1772 0a24 12       		.byte	0x12
 1773 0a25 C601     		.2byte	0x1c6
 1774 0a27 450A0000 		.4byte	0xa45
 1775 0a2b 30       		.byte	0x30
 1776 0a2c 07       		.uleb128 0x7
 1777 0a2d 69326300 		.ascii	"i2c\000"
 1778 0a31 12       		.byte	0x12
 1779 0a32 CA01     		.2byte	0x1ca
 1780 0a34 500A0000 		.4byte	0xa50
 1781 0a38 34       		.byte	0x34
 1782 0a39 00       		.byte	0
 1783 0a3a 09       		.uleb128 0x9
 1784 0a3b 04       		.byte	0x4
 1785 0a3c 400A0000 		.4byte	0xa40
 1786 0a40 16       		.uleb128 0x16
 1787 0a41 85090000 		.4byte	0x985
 1788 0a45 09       		.uleb128 0x9
 1789 0a46 04       		.byte	0x4
 1790 0a47 4B0A0000 		.4byte	0xa4b
 1791 0a4b 16       		.uleb128 0x16
 1792 0a4c 95080000 		.4byte	0x895
 1793 0a50 09       		.uleb128 0x9
 1794 0a51 04       		.byte	0x4
 1795 0a52 7A050000 		.4byte	0x57a
 1796 0a56 1C       		.uleb128 0x1c
 1797 0a57 ED070000 		.4byte	.LASF158
 1798 0a5b 03       		.byte	0x3
 1799 0a5c 2202     		.2byte	0x222
 1800 0a5e 03       		.byte	0x3
 1801 0a5f 700A0000 		.4byte	0xa70
 1802 0a63 1D       		.uleb128 0x1d
 1803 0a64 76030000 		.4byte	.LASF161
 1804 0a68 03       		.byte	0x3
 1805 0a69 2202     		.2byte	0x222
 1806 0a6b CE000000 		.4byte	0xce
 1807 0a6f 00       		.byte	0
 1808 0a70 1E       		.uleb128 0x1e
 1809 0a71 51050000 		.4byte	.LASF155
 1810 0a75 0C       		.byte	0xc
 1811 0a76 C801     		.2byte	0x1c8
 1812 0a78 03       		.byte	0x3
 1813 0a79 1E       		.uleb128 0x1e
 1814 0a7a C2020000 		.4byte	.LASF156
 1815 0a7e 0C       		.byte	0xc
 1816 0a7f E001     		.2byte	0x1e0
 1817 0a81 03       		.byte	0x3
 1818 0a82 1E       		.uleb128 0x1e
 1819 0a83 F3060000 		.4byte	.LASF157
 1820 0a87 13       		.byte	0x13
 1821 0a88 5A01     		.2byte	0x15a
 1822 0a8a 03       		.byte	0x3
 1823 0a8b 1C       		.uleb128 0x1c
 1824 0a8c 1B090000 		.4byte	.LASF159
ARM GAS  /var/folders/m4/4md61f0s1_g0rzfghffqnxvr0000gn/T//ccA7UFTV.s 			page 33


 1825 0a90 13       		.byte	0x13
 1826 0a91 6601     		.2byte	0x166
 1827 0a93 03       		.byte	0x3
 1828 0a94 A60A0000 		.4byte	0xaa6
 1829 0a98 1F       		.uleb128 0x1f
 1830 0a99 EA060000 		.4byte	.LASF171
 1831 0a9d B60A0000 		.4byte	0xab6
 1832 0aa1 1B090000 		.4byte	.LASF159
 1833 0aa5 00       		.byte	0
 1834 0aa6 17       		.uleb128 0x17
 1835 0aa7 F0070000 		.4byte	0x7f0
 1836 0aab B60A0000 		.4byte	0xab6
 1837 0aaf 18       		.uleb128 0x18
 1838 0ab0 80040000 		.4byte	0x480
 1839 0ab4 0B       		.byte	0xb
 1840 0ab5 00       		.byte	0
 1841 0ab6 16       		.uleb128 0x16
 1842 0ab7 A60A0000 		.4byte	0xaa6
 1843 0abb 1C       		.uleb128 0x1c
 1844 0abc 48020000 		.4byte	.LASF160
 1845 0ac0 02       		.byte	0x2
 1846 0ac1 7403     		.2byte	0x374
 1847 0ac3 03       		.byte	0x3
 1848 0ac4 D40A0000 		.4byte	0xad4
 1849 0ac8 20       		.uleb128 0x20
 1850 0ac9 6D7000   		.ascii	"mp\000"
 1851 0acc 02       		.byte	0x2
 1852 0acd 7403     		.2byte	0x374
 1853 0acf 27080000 		.4byte	0x827
 1854 0ad3 00       		.byte	0
 1855 0ad4 1E       		.uleb128 0x1e
 1856 0ad5 FD060000 		.4byte	.LASF162
 1857 0ad9 02       		.byte	0x2
 1858 0ada F601     		.2byte	0x1f6
 1859 0adc 03       		.byte	0x3
 1860 0add 1E       		.uleb128 0x1e
 1861 0ade 5C030000 		.4byte	.LASF163
 1862 0ae2 02       		.byte	0x2
 1863 0ae3 EB01     		.2byte	0x1eb
 1864 0ae5 03       		.byte	0x3
 1865 0ae6 1C       		.uleb128 0x1c
 1866 0ae7 FB070000 		.4byte	.LASF164
 1867 0aeb 02       		.byte	0x2
 1868 0aec 8803     		.2byte	0x388
 1869 0aee 03       		.byte	0x3
 1870 0aef FF0A0000 		.4byte	0xaff
 1871 0af3 20       		.uleb128 0x20
 1872 0af4 6D7000   		.ascii	"mp\000"
 1873 0af7 02       		.byte	0x2
 1874 0af8 8803     		.2byte	0x388
 1875 0afa 27080000 		.4byte	0x827
 1876 0afe 00       		.byte	0
 1877 0aff 1C       		.uleb128 0x1c
 1878 0b00 99070000 		.4byte	.LASF165
 1879 0b04 02       		.byte	0x2
 1880 0b05 A003     		.2byte	0x3a0
 1881 0b07 03       		.byte	0x3
ARM GAS  /var/folders/m4/4md61f0s1_g0rzfghffqnxvr0000gn/T//ccA7UFTV.s 			page 34


 1882 0b08 180B0000 		.4byte	0xb18
 1883 0b0c 20       		.uleb128 0x20
 1884 0b0d 6D7000   		.ascii	"mp\000"
 1885 0b10 02       		.byte	0x2
 1886 0b11 A003     		.2byte	0x3a0
 1887 0b13 27080000 		.4byte	0x827
 1888 0b17 00       		.byte	0
 1889 0b18 21       		.uleb128 0x21
 1890 0b19 13090000 		.4byte	.LASF166
 1891 0b1d 01       		.byte	0x1
 1892 0b1e 3B       		.byte	0x3b
 1893 0b1f 00000000 		.4byte	.LFB268
 1894 0b23 04000000 		.4byte	.LFE268-.LFB268
 1895 0b27 01       		.uleb128 0x1
 1896 0b28 9C       		.byte	0x9c
 1897 0b29 370B0000 		.4byte	0xb37
 1898 0b2d 22       		.uleb128 0x22
 1899 0b2e 04000000 		.4byte	.LVL0
 1900 0b32 AC110000 		.4byte	0x11ac
 1901 0b36 00       		.byte	0
 1902 0b37 21       		.uleb128 0x21
 1903 0b38 4C090000 		.4byte	.LASF167
 1904 0b3c 01       		.byte	0x1
 1905 0b3d 47       		.byte	0x47
 1906 0b3e 00000000 		.4byte	.LFB269
 1907 0b42 0E000000 		.4byte	.LFE269-.LFB269
 1908 0b46 01       		.uleb128 0x1
 1909 0b47 9C       		.byte	0x9c
 1910 0b48 880B0000 		.4byte	0xb88
 1911 0b4c 23       		.uleb128 0x23
 1912 0b4d 12020000 		.4byte	.LASF169
 1913 0b51 01       		.byte	0x1
 1914 0b52 47       		.byte	0x47
 1915 0b53 880B0000 		.4byte	0xb88
 1916 0b57 00000000 		.4byte	.LLST0
 1917 0b5b 24       		.uleb128 0x24
 1918 0b5c BB0A0000 		.4byte	0xabb
 1919 0b60 08000000 		.4byte	.LBB82
 1920 0b64 06000000 		.4byte	.LBE82-.LBB82
 1921 0b68 01       		.byte	0x1
 1922 0b69 4D       		.byte	0x4d
 1923 0b6a 25       		.uleb128 0x25
 1924 0b6b C80A0000 		.4byte	0xac8
 1925 0b6f 2E000000 		.4byte	.LLST1
 1926 0b73 26       		.uleb128 0x26
 1927 0b74 0E000000 		.4byte	.LVL4
 1928 0b78 B8110000 		.4byte	0x11b8
 1929 0b7c 27       		.uleb128 0x27
 1930 0b7d 01       		.uleb128 0x1
 1931 0b7e 50       		.byte	0x50
 1932 0b7f 05       		.uleb128 0x5
 1933 0b80 F3       		.byte	0xf3
 1934 0b81 01       		.uleb128 0x1
 1935 0b82 50       		.byte	0x50
 1936 0b83 23       		.byte	0x23
 1937 0b84 0C       		.uleb128 0xc
 1938 0b85 00       		.byte	0
ARM GAS  /var/folders/m4/4md61f0s1_g0rzfghffqnxvr0000gn/T//ccA7UFTV.s 			page 35


 1939 0b86 00       		.byte	0
 1940 0b87 00       		.byte	0
 1941 0b88 09       		.uleb128 0x9
 1942 0b89 04       		.byte	0x4
 1943 0b8a 91090000 		.4byte	0x991
 1944 0b8e 21       		.uleb128 0x21
 1945 0b8f 3D050000 		.4byte	.LASF168
 1946 0b93 01       		.byte	0x1
 1947 0b94 5D       		.byte	0x5d
 1948 0b95 00000000 		.4byte	.LFB270
 1949 0b99 1C000000 		.4byte	.LFE270-.LFB270
 1950 0b9d 01       		.uleb128 0x1
 1951 0b9e 9C       		.byte	0x9c
 1952 0b9f 8A0C0000 		.4byte	0xc8a
 1953 0ba3 23       		.uleb128 0x23
 1954 0ba4 12020000 		.4byte	.LASF169
 1955 0ba8 01       		.byte	0x1
 1956 0ba9 5D       		.byte	0x5d
 1957 0baa 880B0000 		.4byte	0xb88
 1958 0bae 5E000000 		.4byte	.LLST2
 1959 0bb2 23       		.uleb128 0x23
 1960 0bb3 92070000 		.4byte	.LASF146
 1961 0bb7 01       		.byte	0x1
 1962 0bb8 5D       		.byte	0x5d
 1963 0bb9 3A0A0000 		.4byte	0xa3a
 1964 0bbd 7C000000 		.4byte	.LLST3
 1965 0bc1 28       		.uleb128 0x28
 1966 0bc2 EA060000 		.4byte	.LASF171
 1967 0bc6 9A0C0000 		.4byte	0xc9a
 1968 0bca 29       		.uleb128 0x29
 1969 0bcb DD0A0000 		.4byte	0xadd
 1970 0bcf 02000000 		.4byte	.LBB84
 1971 0bd3 00000000 		.4byte	.Ldebug_ranges0+0
 1972 0bd7 01       		.byte	0x1
 1973 0bd8 63       		.byte	0x63
 1974 0bd9 1A0C0000 		.4byte	0xc1a
 1975 0bdd 2A       		.uleb128 0x2a
 1976 0bde 820A0000 		.4byte	0xa82
 1977 0be2 02000000 		.4byte	.LBB85
 1978 0be6 00000000 		.4byte	.Ldebug_ranges0+0
 1979 0bea 02       		.byte	0x2
 1980 0beb ED01     		.2byte	0x1ed
 1981 0bed 2A       		.uleb128 0x2a
 1982 0bee 700A0000 		.4byte	0xa70
 1983 0bf2 02000000 		.4byte	.LBB86
 1984 0bf6 00000000 		.4byte	.Ldebug_ranges0+0
 1985 0bfa 13       		.byte	0x13
 1986 0bfb 5C01     		.2byte	0x15c
 1987 0bfd 2A       		.uleb128 0x2a
 1988 0bfe 560A0000 		.4byte	0xa56
 1989 0c02 02000000 		.4byte	.LBB87
 1990 0c06 00000000 		.4byte	.Ldebug_ranges0+0
 1991 0c0a 0C       		.byte	0xc
 1992 0c0b D001     		.2byte	0x1d0
 1993 0c0d 25       		.uleb128 0x25
 1994 0c0e 630A0000 		.4byte	0xa63
 1995 0c12 9D000000 		.4byte	.LLST4
ARM GAS  /var/folders/m4/4md61f0s1_g0rzfghffqnxvr0000gn/T//ccA7UFTV.s 			page 36


 1996 0c16 00       		.byte	0
 1997 0c17 00       		.byte	0
 1998 0c18 00       		.byte	0
 1999 0c19 00       		.byte	0
 2000 0c1a 2B       		.uleb128 0x2b
 2001 0c1b D40A0000 		.4byte	0xad4
 2002 0c1f 14000000 		.4byte	.LBB94
 2003 0c23 08000000 		.4byte	.LBE94-.LBB94
 2004 0c27 01       		.byte	0x1
 2005 0c28 67       		.byte	0x67
 2006 0c29 790C0000 		.4byte	0xc79
 2007 0c2d 2C       		.uleb128 0x2c
 2008 0c2e 8B0A0000 		.4byte	0xa8b
 2009 0c32 14000000 		.4byte	.LBB95
 2010 0c36 08000000 		.4byte	.LBE95-.LBB95
 2011 0c3a 02       		.byte	0x2
 2012 0c3b F801     		.2byte	0x1f8
 2013 0c3d 2D       		.uleb128 0x2d
 2014 0c3e 14000000 		.4byte	.LBB96
 2015 0c42 08000000 		.4byte	.LBE96-.LBB96
 2016 0c46 2E       		.uleb128 0x2e
 2017 0c47 980A0000 		.4byte	0xa98
 2018 0c4b 2C       		.uleb128 0x2c
 2019 0c4c 790A0000 		.4byte	0xa79
 2020 0c50 14000000 		.4byte	.LBB97
 2021 0c54 08000000 		.4byte	.LBE97-.LBB97
 2022 0c58 13       		.byte	0x13
 2023 0c59 7301     		.2byte	0x173
 2024 0c5b 2C       		.uleb128 0x2c
 2025 0c5c 560A0000 		.4byte	0xa56
 2026 0c60 14000000 		.4byte	.LBB98
 2027 0c64 08000000 		.4byte	.LBE98-.LBB98
 2028 0c68 0C       		.byte	0xc
 2029 0c69 E301     		.2byte	0x1e3
 2030 0c6b 25       		.uleb128 0x25
 2031 0c6c 630A0000 		.4byte	0xa63
 2032 0c70 B2000000 		.4byte	.LLST5
 2033 0c74 00       		.byte	0
 2034 0c75 00       		.byte	0
 2035 0c76 00       		.byte	0
 2036 0c77 00       		.byte	0
 2037 0c78 00       		.byte	0
 2038 0c79 2F       		.uleb128 0x2f
 2039 0c7a 10000000 		.4byte	.LVL7
 2040 0c7e C3110000 		.4byte	0x11c3
 2041 0c82 27       		.uleb128 0x27
 2042 0c83 01       		.uleb128 0x1
 2043 0c84 50       		.byte	0x50
 2044 0c85 02       		.uleb128 0x2
 2045 0c86 74       		.byte	0x74
 2046 0c87 00       		.sleb128 0
 2047 0c88 00       		.byte	0
 2048 0c89 00       		.byte	0
 2049 0c8a 17       		.uleb128 0x17
 2050 0c8b F0070000 		.4byte	0x7f0
 2051 0c8f 9A0C0000 		.4byte	0xc9a
 2052 0c93 18       		.uleb128 0x18
ARM GAS  /var/folders/m4/4md61f0s1_g0rzfghffqnxvr0000gn/T//ccA7UFTV.s 			page 37


 2053 0c94 80040000 		.4byte	0x480
 2054 0c98 08       		.byte	0x8
 2055 0c99 00       		.byte	0
 2056 0c9a 16       		.uleb128 0x16
 2057 0c9b 8A0C0000 		.4byte	0xc8a
 2058 0c9f 21       		.uleb128 0x21
 2059 0ca0 75050000 		.4byte	.LASF170
 2060 0ca4 01       		.byte	0x1
 2061 0ca5 71       		.byte	0x71
 2062 0ca6 00000000 		.4byte	.LFB271
 2063 0caa 1A000000 		.4byte	.LFE271-.LFB271
 2064 0cae 01       		.uleb128 0x1
 2065 0caf 9C       		.byte	0x9c
 2066 0cb0 8C0D0000 		.4byte	0xd8c
 2067 0cb4 23       		.uleb128 0x23
 2068 0cb5 12020000 		.4byte	.LASF169
 2069 0cb9 01       		.byte	0x1
 2070 0cba 71       		.byte	0x71
 2071 0cbb 880B0000 		.4byte	0xb88
 2072 0cbf C6000000 		.4byte	.LLST6
 2073 0cc3 28       		.uleb128 0x28
 2074 0cc4 EA060000 		.4byte	.LASF171
 2075 0cc8 9C0D0000 		.4byte	0xd9c
 2076 0ccc 29       		.uleb128 0x29
 2077 0ccd DD0A0000 		.4byte	0xadd
 2078 0cd1 02000000 		.4byte	.LBB100
 2079 0cd5 18000000 		.4byte	.Ldebug_ranges0+0x18
 2080 0cd9 01       		.byte	0x1
 2081 0cda 77       		.byte	0x77
 2082 0cdb 1C0D0000 		.4byte	0xd1c
 2083 0cdf 2A       		.uleb128 0x2a
 2084 0ce0 820A0000 		.4byte	0xa82
 2085 0ce4 02000000 		.4byte	.LBB101
 2086 0ce8 18000000 		.4byte	.Ldebug_ranges0+0x18
 2087 0cec 02       		.byte	0x2
 2088 0ced ED01     		.2byte	0x1ed
 2089 0cef 2A       		.uleb128 0x2a
 2090 0cf0 700A0000 		.4byte	0xa70
 2091 0cf4 02000000 		.4byte	.LBB102
 2092 0cf8 18000000 		.4byte	.Ldebug_ranges0+0x18
 2093 0cfc 13       		.byte	0x13
 2094 0cfd 5C01     		.2byte	0x15c
 2095 0cff 2A       		.uleb128 0x2a
 2096 0d00 560A0000 		.4byte	0xa56
 2097 0d04 02000000 		.4byte	.LBB103
 2098 0d08 18000000 		.4byte	.Ldebug_ranges0+0x18
 2099 0d0c 0C       		.byte	0xc
 2100 0d0d D001     		.2byte	0x1d0
 2101 0d0f 25       		.uleb128 0x25
 2102 0d10 630A0000 		.4byte	0xa63
 2103 0d14 E4000000 		.4byte	.LLST7
 2104 0d18 00       		.byte	0
 2105 0d19 00       		.byte	0
 2106 0d1a 00       		.byte	0
 2107 0d1b 00       		.byte	0
 2108 0d1c 2B       		.uleb128 0x2b
 2109 0d1d D40A0000 		.4byte	0xad4
ARM GAS  /var/folders/m4/4md61f0s1_g0rzfghffqnxvr0000gn/T//ccA7UFTV.s 			page 38


 2110 0d21 12000000 		.4byte	.LBB110
 2111 0d25 08000000 		.4byte	.LBE110-.LBB110
 2112 0d29 01       		.byte	0x1
 2113 0d2a 7A       		.byte	0x7a
 2114 0d2b 7B0D0000 		.4byte	0xd7b
 2115 0d2f 2C       		.uleb128 0x2c
 2116 0d30 8B0A0000 		.4byte	0xa8b
 2117 0d34 12000000 		.4byte	.LBB111
 2118 0d38 08000000 		.4byte	.LBE111-.LBB111
 2119 0d3c 02       		.byte	0x2
 2120 0d3d F801     		.2byte	0x1f8
 2121 0d3f 2D       		.uleb128 0x2d
 2122 0d40 12000000 		.4byte	.LBB112
 2123 0d44 08000000 		.4byte	.LBE112-.LBB112
 2124 0d48 2E       		.uleb128 0x2e
 2125 0d49 980A0000 		.4byte	0xa98
 2126 0d4d 2C       		.uleb128 0x2c
 2127 0d4e 790A0000 		.4byte	0xa79
 2128 0d52 12000000 		.4byte	.LBB113
 2129 0d56 08000000 		.4byte	.LBE113-.LBB113
 2130 0d5a 13       		.byte	0x13
 2131 0d5b 7301     		.2byte	0x173
 2132 0d5d 2C       		.uleb128 0x2c
 2133 0d5e 560A0000 		.4byte	0xa56
 2134 0d62 12000000 		.4byte	.LBB114
 2135 0d66 08000000 		.4byte	.LBE114-.LBB114
 2136 0d6a 0C       		.byte	0xc
 2137 0d6b E301     		.2byte	0x1e3
 2138 0d6d 25       		.uleb128 0x25
 2139 0d6e 630A0000 		.4byte	0xa63
 2140 0d72 F9000000 		.4byte	.LLST8
 2141 0d76 00       		.byte	0
 2142 0d77 00       		.byte	0
 2143 0d78 00       		.byte	0
 2144 0d79 00       		.byte	0
 2145 0d7a 00       		.byte	0
 2146 0d7b 2F       		.uleb128 0x2f
 2147 0d7c 0E000000 		.4byte	.LVL12
 2148 0d80 CF110000 		.4byte	0x11cf
 2149 0d84 27       		.uleb128 0x27
 2150 0d85 01       		.uleb128 0x1
 2151 0d86 50       		.byte	0x50
 2152 0d87 02       		.uleb128 0x2
 2153 0d88 74       		.byte	0x74
 2154 0d89 00       		.sleb128 0
 2155 0d8a 00       		.byte	0
 2156 0d8b 00       		.byte	0
 2157 0d8c 17       		.uleb128 0x17
 2158 0d8d F0070000 		.4byte	0x7f0
 2159 0d91 9C0D0000 		.4byte	0xd9c
 2160 0d95 18       		.uleb128 0x18
 2161 0d96 80040000 		.4byte	0x480
 2162 0d9a 07       		.byte	0x7
 2163 0d9b 00       		.byte	0
 2164 0d9c 16       		.uleb128 0x16
 2165 0d9d 8C0D0000 		.4byte	0xd8c
 2166 0da1 30       		.uleb128 0x30
ARM GAS  /var/folders/m4/4md61f0s1_g0rzfghffqnxvr0000gn/T//ccA7UFTV.s 			page 39


 2167 0da2 C7060000 		.4byte	.LASF172
 2168 0da6 01       		.byte	0x1
 2169 0da7 85       		.byte	0x85
 2170 0da8 F0080000 		.4byte	0x8f0
 2171 0dac 00000000 		.4byte	.LFB272
 2172 0db0 04000000 		.4byte	.LFE272-.LFB272
 2173 0db4 01       		.uleb128 0x1
 2174 0db5 9C       		.byte	0x9c
 2175 0db6 D30D0000 		.4byte	0xdd3
 2176 0dba 23       		.uleb128 0x23
 2177 0dbb 12020000 		.4byte	.LASF169
 2178 0dbf 01       		.byte	0x1
 2179 0dc0 85       		.byte	0x85
 2180 0dc1 880B0000 		.4byte	0xb88
 2181 0dc5 0D010000 		.4byte	.LLST9
 2182 0dc9 28       		.uleb128 0x28
 2183 0dca EA060000 		.4byte	.LASF171
 2184 0dce E30D0000 		.4byte	0xde3
 2185 0dd2 00       		.byte	0
 2186 0dd3 17       		.uleb128 0x17
 2187 0dd4 F0070000 		.4byte	0x7f0
 2188 0dd8 E30D0000 		.4byte	0xde3
 2189 0ddc 18       		.uleb128 0x18
 2190 0ddd 80040000 		.4byte	0x480
 2191 0de1 0C       		.byte	0xc
 2192 0de2 00       		.byte	0
 2193 0de3 16       		.uleb128 0x16
 2194 0de4 D30D0000 		.4byte	0xdd3
 2195 0de8 30       		.uleb128 0x30
 2196 0de9 2F020000 		.4byte	.LASF173
 2197 0ded 01       		.byte	0x1
 2198 0dee A6       		.byte	0xa6
 2199 0def 26010000 		.4byte	0x126
 2200 0df3 00000000 		.4byte	.LFB273
 2201 0df7 3E000000 		.4byte	.LFE273-.LFB273
 2202 0dfb 01       		.uleb128 0x1
 2203 0dfc 9C       		.byte	0x9c
 2204 0dfd 4B0F0000 		.4byte	0xf4b
 2205 0e01 23       		.uleb128 0x23
 2206 0e02 12020000 		.4byte	.LASF169
 2207 0e06 01       		.byte	0x1
 2208 0e07 A6       		.byte	0xa6
 2209 0e08 880B0000 		.4byte	0xb88
 2210 0e0c 2E010000 		.4byte	.LLST10
 2211 0e10 23       		.uleb128 0x23
 2212 0e11 96020000 		.4byte	.LASF150
 2213 0e15 01       		.byte	0x1
 2214 0e16 A7       		.byte	0xa7
 2215 0e17 E4080000 		.4byte	0x8e4
 2216 0e1b 4C010000 		.4byte	.LLST11
 2217 0e1f 23       		.uleb128 0x23
 2218 0e20 A6030000 		.4byte	.LASF174
 2219 0e24 01       		.byte	0x1
 2220 0e25 A8       		.byte	0xa8
 2221 0e26 33080000 		.4byte	0x833
 2222 0e2a 6D010000 		.4byte	.LLST12
 2223 0e2e 23       		.uleb128 0x23
ARM GAS  /var/folders/m4/4md61f0s1_g0rzfghffqnxvr0000gn/T//ccA7UFTV.s 			page 40


 2224 0e2f BB050000 		.4byte	.LASF175
 2225 0e33 01       		.byte	0x1
 2226 0e34 A9       		.byte	0xa9
 2227 0e35 2C000000 		.4byte	0x2c
 2228 0e39 8E010000 		.4byte	.LLST13
 2229 0e3d 31       		.uleb128 0x31
 2230 0e3e 90020000 		.4byte	.LASF176
 2231 0e42 01       		.byte	0x1
 2232 0e43 AA       		.byte	0xaa
 2233 0e44 2D080000 		.4byte	0x82d
 2234 0e48 02       		.uleb128 0x2
 2235 0e49 91       		.byte	0x91
 2236 0e4a 00       		.sleb128 0
 2237 0e4b 31       		.uleb128 0x31
 2238 0e4c 6D050000 		.4byte	.LASF177
 2239 0e50 01       		.byte	0x1
 2240 0e51 AB       		.byte	0xab
 2241 0e52 2C000000 		.4byte	0x2c
 2242 0e56 02       		.uleb128 0x2
 2243 0e57 91       		.byte	0x91
 2244 0e58 04       		.sleb128 4
 2245 0e59 31       		.uleb128 0x31
 2246 0e5a D5030000 		.4byte	.LASF178
 2247 0e5e 01       		.byte	0x1
 2248 0e5f AC       		.byte	0xac
 2249 0e60 47010000 		.4byte	0x147
 2250 0e64 02       		.uleb128 0x2
 2251 0e65 91       		.byte	0x91
 2252 0e66 08       		.sleb128 8
 2253 0e67 32       		.uleb128 0x32
 2254 0e68 2E000000 		.4byte	.LASF100
 2255 0e6c 01       		.byte	0x1
 2256 0e6d AD       		.byte	0xad
 2257 0e6e 26010000 		.4byte	0x126
 2258 0e72 01       		.uleb128 0x1
 2259 0e73 50       		.byte	0x50
 2260 0e74 28       		.uleb128 0x28
 2261 0e75 EA060000 		.4byte	.LASF171
 2262 0e79 5B0F0000 		.4byte	0xf5b
 2263 0e7d 2B       		.uleb128 0x2b
 2264 0e7e DD0A0000 		.4byte	0xadd
 2265 0e82 0A000000 		.4byte	.LBB116
 2266 0e86 08000000 		.4byte	.LBE116-.LBB116
 2267 0e8a 01       		.byte	0x1
 2268 0e8b B6       		.byte	0xb6
 2269 0e8c CD0E0000 		.4byte	0xecd
 2270 0e90 2C       		.uleb128 0x2c
 2271 0e91 820A0000 		.4byte	0xa82
 2272 0e95 0A000000 		.4byte	.LBB117
 2273 0e99 08000000 		.4byte	.LBE117-.LBB117
 2274 0e9d 02       		.byte	0x2
 2275 0e9e ED01     		.2byte	0x1ed
 2276 0ea0 2C       		.uleb128 0x2c
 2277 0ea1 700A0000 		.4byte	0xa70
 2278 0ea5 0A000000 		.4byte	.LBB118
 2279 0ea9 08000000 		.4byte	.LBE118-.LBB118
 2280 0ead 13       		.byte	0x13
ARM GAS  /var/folders/m4/4md61f0s1_g0rzfghffqnxvr0000gn/T//ccA7UFTV.s 			page 41


 2281 0eae 5C01     		.2byte	0x15c
 2282 0eb0 2C       		.uleb128 0x2c
 2283 0eb1 560A0000 		.4byte	0xa56
 2284 0eb5 0A000000 		.4byte	.LBB119
 2285 0eb9 08000000 		.4byte	.LBE119-.LBB119
 2286 0ebd 0C       		.byte	0xc
 2287 0ebe D001     		.2byte	0x1d0
 2288 0ec0 25       		.uleb128 0x25
 2289 0ec1 630A0000 		.4byte	0xa63
 2290 0ec5 AF010000 		.4byte	.LLST14
 2291 0ec9 00       		.byte	0
 2292 0eca 00       		.byte	0
 2293 0ecb 00       		.byte	0
 2294 0ecc 00       		.byte	0
 2295 0ecd 2B       		.uleb128 0x2b
 2296 0ece D40A0000 		.4byte	0xad4
 2297 0ed2 34000000 		.4byte	.LBB121
 2298 0ed6 06000000 		.4byte	.LBE121-.LBB121
 2299 0eda 01       		.byte	0x1
 2300 0edb C1       		.byte	0xc1
 2301 0edc 2C0F0000 		.4byte	0xf2c
 2302 0ee0 2C       		.uleb128 0x2c
 2303 0ee1 8B0A0000 		.4byte	0xa8b
 2304 0ee5 34000000 		.4byte	.LBB122
 2305 0ee9 06000000 		.4byte	.LBE122-.LBB122
 2306 0eed 02       		.byte	0x2
 2307 0eee F801     		.2byte	0x1f8
 2308 0ef0 2D       		.uleb128 0x2d
 2309 0ef1 34000000 		.4byte	.LBB123
 2310 0ef5 06000000 		.4byte	.LBE123-.LBB123
 2311 0ef9 2E       		.uleb128 0x2e
 2312 0efa 980A0000 		.4byte	0xa98
 2313 0efe 2C       		.uleb128 0x2c
 2314 0eff 790A0000 		.4byte	0xa79
 2315 0f03 34000000 		.4byte	.LBB124
 2316 0f07 06000000 		.4byte	.LBE124-.LBB124
 2317 0f0b 13       		.byte	0x13
 2318 0f0c 7301     		.2byte	0x173
 2319 0f0e 2C       		.uleb128 0x2c
 2320 0f0f 560A0000 		.4byte	0xa56
 2321 0f13 34000000 		.4byte	.LBB125
 2322 0f17 06000000 		.4byte	.LBE125-.LBB125
 2323 0f1b 0C       		.byte	0xc
 2324 0f1c E301     		.2byte	0x1e3
 2325 0f1e 25       		.uleb128 0x25
 2326 0f1f 630A0000 		.4byte	0xa63
 2327 0f23 C4010000 		.4byte	.LLST15
 2328 0f27 00       		.byte	0
 2329 0f28 00       		.byte	0
 2330 0f29 00       		.byte	0
 2331 0f2a 00       		.byte	0
 2332 0f2b 00       		.byte	0
 2333 0f2c 2F       		.uleb128 0x2f
 2334 0f2d 2A000000 		.4byte	.LVL19
 2335 0f31 DB110000 		.4byte	0x11db
 2336 0f35 27       		.uleb128 0x27
 2337 0f36 01       		.uleb128 0x1
ARM GAS  /var/folders/m4/4md61f0s1_g0rzfghffqnxvr0000gn/T//ccA7UFTV.s 			page 42


 2338 0f37 50       		.byte	0x50
 2339 0f38 02       		.uleb128 0x2
 2340 0f39 74       		.byte	0x74
 2341 0f3a 00       		.sleb128 0
 2342 0f3b 27       		.uleb128 0x27
 2343 0f3c 01       		.uleb128 0x1
 2344 0f3d 52       		.byte	0x52
 2345 0f3e 03       		.uleb128 0x3
 2346 0f3f F3       		.byte	0xf3
 2347 0f40 01       		.uleb128 0x1
 2348 0f41 52       		.byte	0x52
 2349 0f42 27       		.uleb128 0x27
 2350 0f43 01       		.uleb128 0x1
 2351 0f44 53       		.byte	0x53
 2352 0f45 03       		.uleb128 0x3
 2353 0f46 F3       		.byte	0xf3
 2354 0f47 01       		.uleb128 0x1
 2355 0f48 53       		.byte	0x53
 2356 0f49 00       		.byte	0
 2357 0f4a 00       		.byte	0
 2358 0f4b 17       		.uleb128 0x17
 2359 0f4c F0070000 		.4byte	0x7f0
 2360 0f50 5B0F0000 		.4byte	0xf5b
 2361 0f54 18       		.uleb128 0x18
 2362 0f55 80040000 		.4byte	0x480
 2363 0f59 18       		.byte	0x18
 2364 0f5a 00       		.byte	0
 2365 0f5b 16       		.uleb128 0x16
 2366 0f5c 4B0F0000 		.4byte	0xf4b
 2367 0f60 30       		.uleb128 0x30
 2368 0f61 E2080000 		.4byte	.LASF179
 2369 0f65 01       		.byte	0x1
 2370 0f66 D9       		.byte	0xd9
 2371 0f67 26010000 		.4byte	0x126
 2372 0f6b 00000000 		.4byte	.LFB274
 2373 0f6f 30000000 		.4byte	.LFE274-.LFB274
 2374 0f73 01       		.uleb128 0x1
 2375 0f74 9C       		.byte	0x9c
 2376 0f75 A7100000 		.4byte	0x10a7
 2377 0f79 23       		.uleb128 0x23
 2378 0f7a 12020000 		.4byte	.LASF169
 2379 0f7e 01       		.byte	0x1
 2380 0f7f D9       		.byte	0xd9
 2381 0f80 880B0000 		.4byte	0xb88
 2382 0f84 D8010000 		.4byte	.LLST16
 2383 0f88 23       		.uleb128 0x23
 2384 0f89 96020000 		.4byte	.LASF150
 2385 0f8d 01       		.byte	0x1
 2386 0f8e DA       		.byte	0xda
 2387 0f8f E4080000 		.4byte	0x8e4
 2388 0f93 F6010000 		.4byte	.LLST17
 2389 0f97 23       		.uleb128 0x23
 2390 0f98 90020000 		.4byte	.LASF176
 2391 0f9c 01       		.byte	0x1
 2392 0f9d DB       		.byte	0xdb
 2393 0f9e 2D080000 		.4byte	0x82d
 2394 0fa2 17020000 		.4byte	.LLST18
ARM GAS  /var/folders/m4/4md61f0s1_g0rzfghffqnxvr0000gn/T//ccA7UFTV.s 			page 43


 2395 0fa6 23       		.uleb128 0x23
 2396 0fa7 6D050000 		.4byte	.LASF177
 2397 0fab 01       		.byte	0x1
 2398 0fac DC       		.byte	0xdc
 2399 0fad 2C000000 		.4byte	0x2c
 2400 0fb1 38020000 		.4byte	.LLST19
 2401 0fb5 31       		.uleb128 0x31
 2402 0fb6 D5030000 		.4byte	.LASF178
 2403 0fba 01       		.byte	0x1
 2404 0fbb DD       		.byte	0xdd
 2405 0fbc 47010000 		.4byte	0x147
 2406 0fc0 02       		.uleb128 0x2
 2407 0fc1 91       		.byte	0x91
 2408 0fc2 00       		.sleb128 0
 2409 0fc3 32       		.uleb128 0x32
 2410 0fc4 2E000000 		.4byte	.LASF100
 2411 0fc8 01       		.byte	0x1
 2412 0fc9 DF       		.byte	0xdf
 2413 0fca 26010000 		.4byte	0x126
 2414 0fce 01       		.uleb128 0x1
 2415 0fcf 50       		.byte	0x50
 2416 0fd0 28       		.uleb128 0x28
 2417 0fd1 EA060000 		.4byte	.LASF171
 2418 0fd5 B7100000 		.4byte	0x10b7
 2419 0fd9 2B       		.uleb128 0x2b
 2420 0fda DD0A0000 		.4byte	0xadd
 2421 0fde 08000000 		.4byte	.LBB127
 2422 0fe2 06000000 		.4byte	.LBE127-.LBB127
 2423 0fe6 01       		.byte	0x1
 2424 0fe7 E7       		.byte	0xe7
 2425 0fe8 29100000 		.4byte	0x1029
 2426 0fec 2C       		.uleb128 0x2c
 2427 0fed 820A0000 		.4byte	0xa82
 2428 0ff1 08000000 		.4byte	.LBB128
 2429 0ff5 06000000 		.4byte	.LBE128-.LBB128
 2430 0ff9 02       		.byte	0x2
 2431 0ffa ED01     		.2byte	0x1ed
 2432 0ffc 2C       		.uleb128 0x2c
 2433 0ffd 700A0000 		.4byte	0xa70
 2434 1001 08000000 		.4byte	.LBB129
 2435 1005 06000000 		.4byte	.LBE129-.LBB129
 2436 1009 13       		.byte	0x13
 2437 100a 5C01     		.2byte	0x15c
 2438 100c 2C       		.uleb128 0x2c
 2439 100d 560A0000 		.4byte	0xa56
 2440 1011 08000000 		.4byte	.LBB130
 2441 1015 06000000 		.4byte	.LBE130-.LBB130
 2442 1019 0C       		.byte	0xc
 2443 101a D001     		.2byte	0x1d0
 2444 101c 25       		.uleb128 0x25
 2445 101d 630A0000 		.4byte	0xa63
 2446 1021 59020000 		.4byte	.LLST20
 2447 1025 00       		.byte	0
 2448 1026 00       		.byte	0
 2449 1027 00       		.byte	0
 2450 1028 00       		.byte	0
 2451 1029 2B       		.uleb128 0x2b
ARM GAS  /var/folders/m4/4md61f0s1_g0rzfghffqnxvr0000gn/T//ccA7UFTV.s 			page 44


 2452 102a D40A0000 		.4byte	0xad4
 2453 102e 26000000 		.4byte	.LBB132
 2454 1032 06000000 		.4byte	.LBE132-.LBB132
 2455 1036 01       		.byte	0x1
 2456 1037 F1       		.byte	0xf1
 2457 1038 88100000 		.4byte	0x1088
 2458 103c 2C       		.uleb128 0x2c
 2459 103d 8B0A0000 		.4byte	0xa8b
 2460 1041 26000000 		.4byte	.LBB133
 2461 1045 06000000 		.4byte	.LBE133-.LBB133
 2462 1049 02       		.byte	0x2
 2463 104a F801     		.2byte	0x1f8
 2464 104c 2D       		.uleb128 0x2d
 2465 104d 26000000 		.4byte	.LBB134
 2466 1051 06000000 		.4byte	.LBE134-.LBB134
 2467 1055 2E       		.uleb128 0x2e
 2468 1056 980A0000 		.4byte	0xa98
 2469 105a 2C       		.uleb128 0x2c
 2470 105b 790A0000 		.4byte	0xa79
 2471 105f 26000000 		.4byte	.LBB135
 2472 1063 06000000 		.4byte	.LBE135-.LBB135
 2473 1067 13       		.byte	0x13
 2474 1068 7301     		.2byte	0x173
 2475 106a 2C       		.uleb128 0x2c
 2476 106b 560A0000 		.4byte	0xa56
 2477 106f 26000000 		.4byte	.LBB136
 2478 1073 06000000 		.4byte	.LBE136-.LBB136
 2479 1077 0C       		.byte	0xc
 2480 1078 E301     		.2byte	0x1e3
 2481 107a 25       		.uleb128 0x25
 2482 107b 630A0000 		.4byte	0xa63
 2483 107f 6E020000 		.4byte	.LLST21
 2484 1083 00       		.byte	0
 2485 1084 00       		.byte	0
 2486 1085 00       		.byte	0
 2487 1086 00       		.byte	0
 2488 1087 00       		.byte	0
 2489 1088 2F       		.uleb128 0x2f
 2490 1089 1C000000 		.4byte	.LVL24
 2491 108d E7110000 		.4byte	0x11e7
 2492 1091 27       		.uleb128 0x27
 2493 1092 01       		.uleb128 0x1
 2494 1093 50       		.byte	0x50
 2495 1094 02       		.uleb128 0x2
 2496 1095 74       		.byte	0x74
 2497 1096 00       		.sleb128 0
 2498 1097 27       		.uleb128 0x27
 2499 1098 01       		.uleb128 0x1
 2500 1099 52       		.byte	0x52
 2501 109a 03       		.uleb128 0x3
 2502 109b F3       		.byte	0xf3
 2503 109c 01       		.uleb128 0x1
 2504 109d 52       		.byte	0x52
 2505 109e 27       		.uleb128 0x27
 2506 109f 01       		.uleb128 0x1
 2507 10a0 53       		.byte	0x53
 2508 10a1 03       		.uleb128 0x3
ARM GAS  /var/folders/m4/4md61f0s1_g0rzfghffqnxvr0000gn/T//ccA7UFTV.s 			page 45


 2509 10a2 F3       		.byte	0xf3
 2510 10a3 01       		.uleb128 0x1
 2511 10a4 53       		.byte	0x53
 2512 10a5 00       		.byte	0
 2513 10a6 00       		.byte	0
 2514 10a7 17       		.uleb128 0x17
 2515 10a8 F0070000 		.4byte	0x7f0
 2516 10ac B7100000 		.4byte	0x10b7
 2517 10b0 18       		.uleb128 0x18
 2518 10b1 80040000 		.4byte	0x480
 2519 10b5 17       		.byte	0x17
 2520 10b6 00       		.byte	0
 2521 10b7 16       		.uleb128 0x16
 2522 10b8 A7100000 		.4byte	0x10a7
 2523 10bc 33       		.uleb128 0x33
 2524 10bd 20060000 		.4byte	.LASF180
 2525 10c1 01       		.byte	0x1
 2526 10c2 0101     		.2byte	0x101
 2527 10c4 00000000 		.4byte	.LFB275
 2528 10c8 06000000 		.4byte	.LFE275-.LFB275
 2529 10cc 01       		.uleb128 0x1
 2530 10cd 9C       		.byte	0x9c
 2531 10ce 19110000 		.4byte	0x1119
 2532 10d2 34       		.uleb128 0x34
 2533 10d3 12020000 		.4byte	.LASF169
 2534 10d7 01       		.byte	0x1
 2535 10d8 0101     		.2byte	0x101
 2536 10da 880B0000 		.4byte	0xb88
 2537 10de 82020000 		.4byte	.LLST22
 2538 10e2 28       		.uleb128 0x28
 2539 10e3 EA060000 		.4byte	.LASF171
 2540 10e7 29110000 		.4byte	0x1129
 2541 10eb 2C       		.uleb128 0x2c
 2542 10ec E60A0000 		.4byte	0xae6
 2543 10f0 00000000 		.4byte	.LBB138
 2544 10f4 06000000 		.4byte	.LBE138-.LBB138
 2545 10f8 01       		.byte	0x1
 2546 10f9 0501     		.2byte	0x105
 2547 10fb 25       		.uleb128 0x25
 2548 10fc F30A0000 		.4byte	0xaf3
 2549 1100 B0020000 		.4byte	.LLST23
 2550 1104 26       		.uleb128 0x26
 2551 1105 06000000 		.4byte	.LVL29
 2552 1109 F3110000 		.4byte	0x11f3
 2553 110d 27       		.uleb128 0x27
 2554 110e 01       		.uleb128 0x1
 2555 110f 50       		.byte	0x50
 2556 1110 05       		.uleb128 0x5
 2557 1111 F3       		.byte	0xf3
 2558 1112 01       		.uleb128 0x1
 2559 1113 50       		.byte	0x50
 2560 1114 23       		.byte	0x23
 2561 1115 0C       		.uleb128 0xc
 2562 1116 00       		.byte	0
 2563 1117 00       		.byte	0
 2564 1118 00       		.byte	0
 2565 1119 17       		.uleb128 0x17
ARM GAS  /var/folders/m4/4md61f0s1_g0rzfghffqnxvr0000gn/T//ccA7UFTV.s 			page 46


 2566 111a F0070000 		.4byte	0x7f0
 2567 111e 29110000 		.4byte	0x1129
 2568 1122 18       		.uleb128 0x18
 2569 1123 80040000 		.4byte	0x480
 2570 1127 0D       		.byte	0xd
 2571 1128 00       		.byte	0
 2572 1129 16       		.uleb128 0x16
 2573 112a 19110000 		.4byte	0x1119
 2574 112e 33       		.uleb128 0x33
 2575 112f E1010000 		.4byte	.LASF181
 2576 1133 01       		.byte	0x1
 2577 1134 1101     		.2byte	0x111
 2578 1136 00000000 		.4byte	.LFB276
 2579 113a 06000000 		.4byte	.LFE276-.LFB276
 2580 113e 01       		.uleb128 0x1
 2581 113f 9C       		.byte	0x9c
 2582 1140 8B110000 		.4byte	0x118b
 2583 1144 34       		.uleb128 0x34
 2584 1145 12020000 		.4byte	.LASF169
 2585 1149 01       		.byte	0x1
 2586 114a 1101     		.2byte	0x111
 2587 114c 880B0000 		.4byte	0xb88
 2588 1150 E0020000 		.4byte	.LLST24
 2589 1154 28       		.uleb128 0x28
 2590 1155 EA060000 		.4byte	.LASF171
 2591 1159 8B110000 		.4byte	0x118b
 2592 115d 2C       		.uleb128 0x2c
 2593 115e FF0A0000 		.4byte	0xaff
 2594 1162 00000000 		.4byte	.LBB140
 2595 1166 06000000 		.4byte	.LBE140-.LBB140
 2596 116a 01       		.byte	0x1
 2597 116b 1501     		.2byte	0x115
 2598 116d 25       		.uleb128 0x25
 2599 116e 0C0B0000 		.4byte	0xb0c
 2600 1172 0E030000 		.4byte	.LLST25
 2601 1176 26       		.uleb128 0x26
 2602 1177 06000000 		.4byte	.LVL32
 2603 117b FE110000 		.4byte	0x11fe
 2604 117f 27       		.uleb128 0x27
 2605 1180 01       		.uleb128 0x1
 2606 1181 50       		.byte	0x50
 2607 1182 05       		.uleb128 0x5
 2608 1183 F3       		.byte	0xf3
 2609 1184 01       		.uleb128 0x1
 2610 1185 50       		.byte	0x50
 2611 1186 23       		.byte	0x23
 2612 1187 0C       		.uleb128 0xc
 2613 1188 00       		.byte	0
 2614 1189 00       		.byte	0
 2615 118a 00       		.byte	0
 2616 118b 16       		.uleb128 0x16
 2617 118c 19110000 		.4byte	0x1119
 2618 1190 35       		.uleb128 0x35
 2619 1191 05020000 		.4byte	.LASF182
 2620 1195 14       		.byte	0x14
 2621 1196 FA06     		.2byte	0x6fa
 2622 1198 9C110000 		.4byte	0x119c
ARM GAS  /var/folders/m4/4md61f0s1_g0rzfghffqnxvr0000gn/T//ccA7UFTV.s 			page 47


 2623 119c 0F       		.uleb128 0xf
 2624 119d C3000000 		.4byte	0xc3
 2625 11a1 36       		.uleb128 0x36
 2626 11a2 636800   		.ascii	"ch\000"
 2627 11a5 09       		.byte	0x9
 2628 11a6 0902     		.2byte	0x209
 2629 11a8 19040000 		.4byte	0x419
 2630 11ac 37       		.uleb128 0x37
 2631 11ad 96080000 		.4byte	.LASF183
 2632 11b1 96080000 		.4byte	.LASF183
 2633 11b5 12       		.byte	0x12
 2634 11b6 EF01     		.2byte	0x1ef
 2635 11b8 38       		.uleb128 0x38
 2636 11b9 55060000 		.4byte	.LASF184
 2637 11bd 55060000 		.4byte	.LASF184
 2638 11c1 0F       		.byte	0xf
 2639 11c2 67       		.byte	0x67
 2640 11c3 37       		.uleb128 0x37
 2641 11c4 F6040000 		.4byte	.LASF185
 2642 11c8 F6040000 		.4byte	.LASF185
 2643 11cc 12       		.byte	0x12
 2644 11cd F001     		.2byte	0x1f0
 2645 11cf 37       		.uleb128 0x37
 2646 11d0 D0040000 		.4byte	.LASF186
 2647 11d4 D0040000 		.4byte	.LASF186
 2648 11d8 12       		.byte	0x12
 2649 11d9 F101     		.2byte	0x1f1
 2650 11db 37       		.uleb128 0x37
 2651 11dc 9B020000 		.4byte	.LASF187
 2652 11e0 9B020000 		.4byte	.LASF187
 2653 11e4 12       		.byte	0x12
 2654 11e5 F201     		.2byte	0x1f2
 2655 11e7 37       		.uleb128 0x37
 2656 11e8 73000000 		.4byte	.LASF188
 2657 11ec 73000000 		.4byte	.LASF188
 2658 11f0 12       		.byte	0x12
 2659 11f1 F601     		.2byte	0x1f6
 2660 11f3 38       		.uleb128 0x38
 2661 11f4 5B050000 		.4byte	.LASF189
 2662 11f8 5B050000 		.4byte	.LASF189
 2663 11fc 0F       		.byte	0xf
 2664 11fd 68       		.byte	0x68
 2665 11fe 38       		.uleb128 0x38
 2666 11ff 64020000 		.4byte	.LASF190
 2667 1203 64020000 		.4byte	.LASF190
 2668 1207 0F       		.byte	0xf
 2669 1208 6C       		.byte	0x6c
 2670 1209 00       		.byte	0
 2671              		.section	.debug_abbrev,"",%progbits
 2672              	.Ldebug_abbrev0:
 2673 0000 01       		.uleb128 0x1
 2674 0001 11       		.uleb128 0x11
 2675 0002 01       		.byte	0x1
 2676 0003 25       		.uleb128 0x25
 2677 0004 0E       		.uleb128 0xe
 2678 0005 13       		.uleb128 0x13
 2679 0006 0B       		.uleb128 0xb
ARM GAS  /var/folders/m4/4md61f0s1_g0rzfghffqnxvr0000gn/T//ccA7UFTV.s 			page 48


 2680 0007 03       		.uleb128 0x3
 2681 0008 0E       		.uleb128 0xe
 2682 0009 1B       		.uleb128 0x1b
 2683 000a 0E       		.uleb128 0xe
 2684 000b 55       		.uleb128 0x55
 2685 000c 17       		.uleb128 0x17
 2686 000d 11       		.uleb128 0x11
 2687 000e 01       		.uleb128 0x1
 2688 000f 10       		.uleb128 0x10
 2689 0010 17       		.uleb128 0x17
 2690 0011 00       		.byte	0
 2691 0012 00       		.byte	0
 2692 0013 02       		.uleb128 0x2
 2693 0014 24       		.uleb128 0x24
 2694 0015 00       		.byte	0
 2695 0016 0B       		.uleb128 0xb
 2696 0017 0B       		.uleb128 0xb
 2697 0018 3E       		.uleb128 0x3e
 2698 0019 0B       		.uleb128 0xb
 2699 001a 03       		.uleb128 0x3
 2700 001b 08       		.uleb128 0x8
 2701 001c 00       		.byte	0
 2702 001d 00       		.byte	0
 2703 001e 03       		.uleb128 0x3
 2704 001f 16       		.uleb128 0x16
 2705 0020 00       		.byte	0
 2706 0021 03       		.uleb128 0x3
 2707 0022 0E       		.uleb128 0xe
 2708 0023 3A       		.uleb128 0x3a
 2709 0024 0B       		.uleb128 0xb
 2710 0025 3B       		.uleb128 0x3b
 2711 0026 0B       		.uleb128 0xb
 2712 0027 49       		.uleb128 0x49
 2713 0028 13       		.uleb128 0x13
 2714 0029 00       		.byte	0
 2715 002a 00       		.byte	0
 2716 002b 04       		.uleb128 0x4
 2717 002c 24       		.uleb128 0x24
 2718 002d 00       		.byte	0
 2719 002e 0B       		.uleb128 0xb
 2720 002f 0B       		.uleb128 0xb
 2721 0030 3E       		.uleb128 0x3e
 2722 0031 0B       		.uleb128 0xb
 2723 0032 03       		.uleb128 0x3
 2724 0033 0E       		.uleb128 0xe
 2725 0034 00       		.byte	0
 2726 0035 00       		.byte	0
 2727 0036 05       		.uleb128 0x5
 2728 0037 13       		.uleb128 0x13
 2729 0038 01       		.byte	0x1
 2730 0039 03       		.uleb128 0x3
 2731 003a 0E       		.uleb128 0xe
 2732 003b 0B       		.uleb128 0xb
 2733 003c 0B       		.uleb128 0xb
 2734 003d 3A       		.uleb128 0x3a
 2735 003e 0B       		.uleb128 0xb
 2736 003f 3B       		.uleb128 0x3b
ARM GAS  /var/folders/m4/4md61f0s1_g0rzfghffqnxvr0000gn/T//ccA7UFTV.s 			page 49


 2737 0040 0B       		.uleb128 0xb
 2738 0041 01       		.uleb128 0x1
 2739 0042 13       		.uleb128 0x13
 2740 0043 00       		.byte	0
 2741 0044 00       		.byte	0
 2742 0045 06       		.uleb128 0x6
 2743 0046 0D       		.uleb128 0xd
 2744 0047 00       		.byte	0
 2745 0048 03       		.uleb128 0x3
 2746 0049 0E       		.uleb128 0xe
 2747 004a 3A       		.uleb128 0x3a
 2748 004b 0B       		.uleb128 0xb
 2749 004c 3B       		.uleb128 0x3b
 2750 004d 0B       		.uleb128 0xb
 2751 004e 49       		.uleb128 0x49
 2752 004f 13       		.uleb128 0x13
 2753 0050 38       		.uleb128 0x38
 2754 0051 0B       		.uleb128 0xb
 2755 0052 00       		.byte	0
 2756 0053 00       		.byte	0
 2757 0054 07       		.uleb128 0x7
 2758 0055 0D       		.uleb128 0xd
 2759 0056 00       		.byte	0
 2760 0057 03       		.uleb128 0x3
 2761 0058 08       		.uleb128 0x8
 2762 0059 3A       		.uleb128 0x3a
 2763 005a 0B       		.uleb128 0xb
 2764 005b 3B       		.uleb128 0x3b
 2765 005c 05       		.uleb128 0x5
 2766 005d 49       		.uleb128 0x49
 2767 005e 13       		.uleb128 0x13
 2768 005f 38       		.uleb128 0x38
 2769 0060 0B       		.uleb128 0xb
 2770 0061 00       		.byte	0
 2771 0062 00       		.byte	0
 2772 0063 08       		.uleb128 0x8
 2773 0064 0D       		.uleb128 0xd
 2774 0065 00       		.byte	0
 2775 0066 03       		.uleb128 0x3
 2776 0067 0E       		.uleb128 0xe
 2777 0068 3A       		.uleb128 0x3a
 2778 0069 0B       		.uleb128 0xb
 2779 006a 3B       		.uleb128 0x3b
 2780 006b 05       		.uleb128 0x5
 2781 006c 49       		.uleb128 0x49
 2782 006d 13       		.uleb128 0x13
 2783 006e 38       		.uleb128 0x38
 2784 006f 0B       		.uleb128 0xb
 2785 0070 00       		.byte	0
 2786 0071 00       		.byte	0
 2787 0072 09       		.uleb128 0x9
 2788 0073 0F       		.uleb128 0xf
 2789 0074 00       		.byte	0
 2790 0075 0B       		.uleb128 0xb
 2791 0076 0B       		.uleb128 0xb
 2792 0077 49       		.uleb128 0x49
 2793 0078 13       		.uleb128 0x13
ARM GAS  /var/folders/m4/4md61f0s1_g0rzfghffqnxvr0000gn/T//ccA7UFTV.s 			page 50


 2794 0079 00       		.byte	0
 2795 007a 00       		.byte	0
 2796 007b 0A       		.uleb128 0xa
 2797 007c 13       		.uleb128 0x13
 2798 007d 01       		.byte	0x1
 2799 007e 03       		.uleb128 0x3
 2800 007f 0E       		.uleb128 0xe
 2801 0080 0B       		.uleb128 0xb
 2802 0081 0B       		.uleb128 0xb
 2803 0082 3A       		.uleb128 0x3a
 2804 0083 0B       		.uleb128 0xb
 2805 0084 3B       		.uleb128 0x3b
 2806 0085 05       		.uleb128 0x5
 2807 0086 01       		.uleb128 0x1
 2808 0087 13       		.uleb128 0x13
 2809 0088 00       		.byte	0
 2810 0089 00       		.byte	0
 2811 008a 0B       		.uleb128 0xb
 2812 008b 15       		.uleb128 0x15
 2813 008c 01       		.byte	0x1
 2814 008d 27       		.uleb128 0x27
 2815 008e 19       		.uleb128 0x19
 2816 008f 01       		.uleb128 0x1
 2817 0090 13       		.uleb128 0x13
 2818 0091 00       		.byte	0
 2819 0092 00       		.byte	0
 2820 0093 0C       		.uleb128 0xc
 2821 0094 05       		.uleb128 0x5
 2822 0095 00       		.byte	0
 2823 0096 49       		.uleb128 0x49
 2824 0097 13       		.uleb128 0x13
 2825 0098 00       		.byte	0
 2826 0099 00       		.byte	0
 2827 009a 0D       		.uleb128 0xd
 2828 009b 0F       		.uleb128 0xf
 2829 009c 00       		.byte	0
 2830 009d 0B       		.uleb128 0xb
 2831 009e 0B       		.uleb128 0xb
 2832 009f 00       		.byte	0
 2833 00a0 00       		.byte	0
 2834 00a1 0E       		.uleb128 0xe
 2835 00a2 13       		.uleb128 0x13
 2836 00a3 01       		.byte	0x1
 2837 00a4 03       		.uleb128 0x3
 2838 00a5 0E       		.uleb128 0xe
 2839 00a6 0B       		.uleb128 0xb
 2840 00a7 05       		.uleb128 0x5
 2841 00a8 3A       		.uleb128 0x3a
 2842 00a9 0B       		.uleb128 0xb
 2843 00aa 3B       		.uleb128 0x3b
 2844 00ab 05       		.uleb128 0x5
 2845 00ac 01       		.uleb128 0x1
 2846 00ad 13       		.uleb128 0x13
 2847 00ae 00       		.byte	0
 2848 00af 00       		.byte	0
 2849 00b0 0F       		.uleb128 0xf
 2850 00b1 35       		.uleb128 0x35
ARM GAS  /var/folders/m4/4md61f0s1_g0rzfghffqnxvr0000gn/T//ccA7UFTV.s 			page 51


 2851 00b2 00       		.byte	0
 2852 00b3 49       		.uleb128 0x49
 2853 00b4 13       		.uleb128 0x13
 2854 00b5 00       		.byte	0
 2855 00b6 00       		.byte	0
 2856 00b7 10       		.uleb128 0x10
 2857 00b8 13       		.uleb128 0x13
 2858 00b9 01       		.byte	0x1
 2859 00ba 0B       		.uleb128 0xb
 2860 00bb 0B       		.uleb128 0xb
 2861 00bc 3A       		.uleb128 0x3a
 2862 00bd 0B       		.uleb128 0xb
 2863 00be 3B       		.uleb128 0x3b
 2864 00bf 05       		.uleb128 0x5
 2865 00c0 01       		.uleb128 0x1
 2866 00c1 13       		.uleb128 0x13
 2867 00c2 00       		.byte	0
 2868 00c3 00       		.byte	0
 2869 00c4 11       		.uleb128 0x11
 2870 00c5 16       		.uleb128 0x16
 2871 00c6 00       		.byte	0
 2872 00c7 03       		.uleb128 0x3
 2873 00c8 0E       		.uleb128 0xe
 2874 00c9 3A       		.uleb128 0x3a
 2875 00ca 0B       		.uleb128 0xb
 2876 00cb 3B       		.uleb128 0x3b
 2877 00cc 05       		.uleb128 0x5
 2878 00cd 49       		.uleb128 0x49
 2879 00ce 13       		.uleb128 0x13
 2880 00cf 00       		.byte	0
 2881 00d0 00       		.byte	0
 2882 00d1 12       		.uleb128 0x12
 2883 00d2 0D       		.uleb128 0xd
 2884 00d3 00       		.byte	0
 2885 00d4 03       		.uleb128 0x3
 2886 00d5 08       		.uleb128 0x8
 2887 00d6 3A       		.uleb128 0x3a
 2888 00d7 0B       		.uleb128 0xb
 2889 00d8 3B       		.uleb128 0x3b
 2890 00d9 0B       		.uleb128 0xb
 2891 00da 49       		.uleb128 0x49
 2892 00db 13       		.uleb128 0x13
 2893 00dc 38       		.uleb128 0x38
 2894 00dd 0B       		.uleb128 0xb
 2895 00de 00       		.byte	0
 2896 00df 00       		.byte	0
 2897 00e0 13       		.uleb128 0x13
 2898 00e1 13       		.uleb128 0x13
 2899 00e2 01       		.byte	0x1
 2900 00e3 0B       		.uleb128 0xb
 2901 00e4 0B       		.uleb128 0xb
 2902 00e5 3A       		.uleb128 0x3a
 2903 00e6 0B       		.uleb128 0xb
 2904 00e7 3B       		.uleb128 0x3b
 2905 00e8 0B       		.uleb128 0xb
 2906 00e9 01       		.uleb128 0x1
 2907 00ea 13       		.uleb128 0x13
ARM GAS  /var/folders/m4/4md61f0s1_g0rzfghffqnxvr0000gn/T//ccA7UFTV.s 			page 52


 2908 00eb 00       		.byte	0
 2909 00ec 00       		.byte	0
 2910 00ed 14       		.uleb128 0x14
 2911 00ee 17       		.uleb128 0x17
 2912 00ef 01       		.byte	0x1
 2913 00f0 0B       		.uleb128 0xb
 2914 00f1 0B       		.uleb128 0xb
 2915 00f2 3A       		.uleb128 0x3a
 2916 00f3 0B       		.uleb128 0xb
 2917 00f4 3B       		.uleb128 0x3b
 2918 00f5 0B       		.uleb128 0xb
 2919 00f6 01       		.uleb128 0x1
 2920 00f7 13       		.uleb128 0x13
 2921 00f8 00       		.byte	0
 2922 00f9 00       		.byte	0
 2923 00fa 15       		.uleb128 0x15
 2924 00fb 0D       		.uleb128 0xd
 2925 00fc 00       		.byte	0
 2926 00fd 03       		.uleb128 0x3
 2927 00fe 0E       		.uleb128 0xe
 2928 00ff 3A       		.uleb128 0x3a
 2929 0100 0B       		.uleb128 0xb
 2930 0101 3B       		.uleb128 0x3b
 2931 0102 05       		.uleb128 0x5
 2932 0103 49       		.uleb128 0x49
 2933 0104 13       		.uleb128 0x13
 2934 0105 00       		.byte	0
 2935 0106 00       		.byte	0
 2936 0107 16       		.uleb128 0x16
 2937 0108 26       		.uleb128 0x26
 2938 0109 00       		.byte	0
 2939 010a 49       		.uleb128 0x49
 2940 010b 13       		.uleb128 0x13
 2941 010c 00       		.byte	0
 2942 010d 00       		.byte	0
 2943 010e 17       		.uleb128 0x17
 2944 010f 01       		.uleb128 0x1
 2945 0110 01       		.byte	0x1
 2946 0111 49       		.uleb128 0x49
 2947 0112 13       		.uleb128 0x13
 2948 0113 01       		.uleb128 0x1
 2949 0114 13       		.uleb128 0x13
 2950 0115 00       		.byte	0
 2951 0116 00       		.byte	0
 2952 0117 18       		.uleb128 0x18
 2953 0118 21       		.uleb128 0x21
 2954 0119 00       		.byte	0
 2955 011a 49       		.uleb128 0x49
 2956 011b 13       		.uleb128 0x13
 2957 011c 2F       		.uleb128 0x2f
 2958 011d 0B       		.uleb128 0xb
 2959 011e 00       		.byte	0
 2960 011f 00       		.byte	0
 2961 0120 19       		.uleb128 0x19
 2962 0121 04       		.uleb128 0x4
 2963 0122 01       		.byte	0x1
 2964 0123 0B       		.uleb128 0xb
ARM GAS  /var/folders/m4/4md61f0s1_g0rzfghffqnxvr0000gn/T//ccA7UFTV.s 			page 53


 2965 0124 0B       		.uleb128 0xb
 2966 0125 49       		.uleb128 0x49
 2967 0126 13       		.uleb128 0x13
 2968 0127 3A       		.uleb128 0x3a
 2969 0128 0B       		.uleb128 0xb
 2970 0129 3B       		.uleb128 0x3b
 2971 012a 0B       		.uleb128 0xb
 2972 012b 01       		.uleb128 0x1
 2973 012c 13       		.uleb128 0x13
 2974 012d 00       		.byte	0
 2975 012e 00       		.byte	0
 2976 012f 1A       		.uleb128 0x1a
 2977 0130 28       		.uleb128 0x28
 2978 0131 00       		.byte	0
 2979 0132 03       		.uleb128 0x3
 2980 0133 0E       		.uleb128 0xe
 2981 0134 1C       		.uleb128 0x1c
 2982 0135 0B       		.uleb128 0xb
 2983 0136 00       		.byte	0
 2984 0137 00       		.byte	0
 2985 0138 1B       		.uleb128 0x1b
 2986 0139 04       		.uleb128 0x4
 2987 013a 01       		.byte	0x1
 2988 013b 0B       		.uleb128 0xb
 2989 013c 0B       		.uleb128 0xb
 2990 013d 49       		.uleb128 0x49
 2991 013e 13       		.uleb128 0x13
 2992 013f 3A       		.uleb128 0x3a
 2993 0140 0B       		.uleb128 0xb
 2994 0141 3B       		.uleb128 0x3b
 2995 0142 05       		.uleb128 0x5
 2996 0143 01       		.uleb128 0x1
 2997 0144 13       		.uleb128 0x13
 2998 0145 00       		.byte	0
 2999 0146 00       		.byte	0
 3000 0147 1C       		.uleb128 0x1c
 3001 0148 2E       		.uleb128 0x2e
 3002 0149 01       		.byte	0x1
 3003 014a 03       		.uleb128 0x3
 3004 014b 0E       		.uleb128 0xe
 3005 014c 3A       		.uleb128 0x3a
 3006 014d 0B       		.uleb128 0xb
 3007 014e 3B       		.uleb128 0x3b
 3008 014f 05       		.uleb128 0x5
 3009 0150 27       		.uleb128 0x27
 3010 0151 19       		.uleb128 0x19
 3011 0152 20       		.uleb128 0x20
 3012 0153 0B       		.uleb128 0xb
 3013 0154 01       		.uleb128 0x1
 3014 0155 13       		.uleb128 0x13
 3015 0156 00       		.byte	0
 3016 0157 00       		.byte	0
 3017 0158 1D       		.uleb128 0x1d
 3018 0159 05       		.uleb128 0x5
 3019 015a 00       		.byte	0
 3020 015b 03       		.uleb128 0x3
 3021 015c 0E       		.uleb128 0xe
ARM GAS  /var/folders/m4/4md61f0s1_g0rzfghffqnxvr0000gn/T//ccA7UFTV.s 			page 54


 3022 015d 3A       		.uleb128 0x3a
 3023 015e 0B       		.uleb128 0xb
 3024 015f 3B       		.uleb128 0x3b
 3025 0160 05       		.uleb128 0x5
 3026 0161 49       		.uleb128 0x49
 3027 0162 13       		.uleb128 0x13
 3028 0163 00       		.byte	0
 3029 0164 00       		.byte	0
 3030 0165 1E       		.uleb128 0x1e
 3031 0166 2E       		.uleb128 0x2e
 3032 0167 00       		.byte	0
 3033 0168 03       		.uleb128 0x3
 3034 0169 0E       		.uleb128 0xe
 3035 016a 3A       		.uleb128 0x3a
 3036 016b 0B       		.uleb128 0xb
 3037 016c 3B       		.uleb128 0x3b
 3038 016d 05       		.uleb128 0x5
 3039 016e 27       		.uleb128 0x27
 3040 016f 19       		.uleb128 0x19
 3041 0170 20       		.uleb128 0x20
 3042 0171 0B       		.uleb128 0xb
 3043 0172 00       		.byte	0
 3044 0173 00       		.byte	0
 3045 0174 1F       		.uleb128 0x1f
 3046 0175 34       		.uleb128 0x34
 3047 0176 00       		.byte	0
 3048 0177 03       		.uleb128 0x3
 3049 0178 0E       		.uleb128 0xe
 3050 0179 49       		.uleb128 0x49
 3051 017a 13       		.uleb128 0x13
 3052 017b 34       		.uleb128 0x34
 3053 017c 19       		.uleb128 0x19
 3054 017d 1C       		.uleb128 0x1c
 3055 017e 0E       		.uleb128 0xe
 3056 017f 00       		.byte	0
 3057 0180 00       		.byte	0
 3058 0181 20       		.uleb128 0x20
 3059 0182 05       		.uleb128 0x5
 3060 0183 00       		.byte	0
 3061 0184 03       		.uleb128 0x3
 3062 0185 08       		.uleb128 0x8
 3063 0186 3A       		.uleb128 0x3a
 3064 0187 0B       		.uleb128 0xb
 3065 0188 3B       		.uleb128 0x3b
 3066 0189 05       		.uleb128 0x5
 3067 018a 49       		.uleb128 0x49
 3068 018b 13       		.uleb128 0x13
 3069 018c 00       		.byte	0
 3070 018d 00       		.byte	0
 3071 018e 21       		.uleb128 0x21
 3072 018f 2E       		.uleb128 0x2e
 3073 0190 01       		.byte	0x1
 3074 0191 3F       		.uleb128 0x3f
 3075 0192 19       		.uleb128 0x19
 3076 0193 03       		.uleb128 0x3
 3077 0194 0E       		.uleb128 0xe
 3078 0195 3A       		.uleb128 0x3a
ARM GAS  /var/folders/m4/4md61f0s1_g0rzfghffqnxvr0000gn/T//ccA7UFTV.s 			page 55


 3079 0196 0B       		.uleb128 0xb
 3080 0197 3B       		.uleb128 0x3b
 3081 0198 0B       		.uleb128 0xb
 3082 0199 27       		.uleb128 0x27
 3083 019a 19       		.uleb128 0x19
 3084 019b 11       		.uleb128 0x11
 3085 019c 01       		.uleb128 0x1
 3086 019d 12       		.uleb128 0x12
 3087 019e 06       		.uleb128 0x6
 3088 019f 40       		.uleb128 0x40
 3089 01a0 18       		.uleb128 0x18
 3090 01a1 9742     		.uleb128 0x2117
 3091 01a3 19       		.uleb128 0x19
 3092 01a4 01       		.uleb128 0x1
 3093 01a5 13       		.uleb128 0x13
 3094 01a6 00       		.byte	0
 3095 01a7 00       		.byte	0
 3096 01a8 22       		.uleb128 0x22
 3097 01a9 898201   		.uleb128 0x4109
 3098 01ac 00       		.byte	0
 3099 01ad 11       		.uleb128 0x11
 3100 01ae 01       		.uleb128 0x1
 3101 01af 9542     		.uleb128 0x2115
 3102 01b1 19       		.uleb128 0x19
 3103 01b2 31       		.uleb128 0x31
 3104 01b3 13       		.uleb128 0x13
 3105 01b4 00       		.byte	0
 3106 01b5 00       		.byte	0
 3107 01b6 23       		.uleb128 0x23
 3108 01b7 05       		.uleb128 0x5
 3109 01b8 00       		.byte	0
 3110 01b9 03       		.uleb128 0x3
 3111 01ba 0E       		.uleb128 0xe
 3112 01bb 3A       		.uleb128 0x3a
 3113 01bc 0B       		.uleb128 0xb
 3114 01bd 3B       		.uleb128 0x3b
 3115 01be 0B       		.uleb128 0xb
 3116 01bf 49       		.uleb128 0x49
 3117 01c0 13       		.uleb128 0x13
 3118 01c1 02       		.uleb128 0x2
 3119 01c2 17       		.uleb128 0x17
 3120 01c3 00       		.byte	0
 3121 01c4 00       		.byte	0
 3122 01c5 24       		.uleb128 0x24
 3123 01c6 1D       		.uleb128 0x1d
 3124 01c7 01       		.byte	0x1
 3125 01c8 31       		.uleb128 0x31
 3126 01c9 13       		.uleb128 0x13
 3127 01ca 11       		.uleb128 0x11
 3128 01cb 01       		.uleb128 0x1
 3129 01cc 12       		.uleb128 0x12
 3130 01cd 06       		.uleb128 0x6
 3131 01ce 58       		.uleb128 0x58
 3132 01cf 0B       		.uleb128 0xb
 3133 01d0 59       		.uleb128 0x59
 3134 01d1 0B       		.uleb128 0xb
 3135 01d2 00       		.byte	0
ARM GAS  /var/folders/m4/4md61f0s1_g0rzfghffqnxvr0000gn/T//ccA7UFTV.s 			page 56


 3136 01d3 00       		.byte	0
 3137 01d4 25       		.uleb128 0x25
 3138 01d5 05       		.uleb128 0x5
 3139 01d6 00       		.byte	0
 3140 01d7 31       		.uleb128 0x31
 3141 01d8 13       		.uleb128 0x13
 3142 01d9 02       		.uleb128 0x2
 3143 01da 17       		.uleb128 0x17
 3144 01db 00       		.byte	0
 3145 01dc 00       		.byte	0
 3146 01dd 26       		.uleb128 0x26
 3147 01de 898201   		.uleb128 0x4109
 3148 01e1 01       		.byte	0x1
 3149 01e2 11       		.uleb128 0x11
 3150 01e3 01       		.uleb128 0x1
 3151 01e4 9542     		.uleb128 0x2115
 3152 01e6 19       		.uleb128 0x19
 3153 01e7 31       		.uleb128 0x31
 3154 01e8 13       		.uleb128 0x13
 3155 01e9 00       		.byte	0
 3156 01ea 00       		.byte	0
 3157 01eb 27       		.uleb128 0x27
 3158 01ec 8A8201   		.uleb128 0x410a
 3159 01ef 00       		.byte	0
 3160 01f0 02       		.uleb128 0x2
 3161 01f1 18       		.uleb128 0x18
 3162 01f2 9142     		.uleb128 0x2111
 3163 01f4 18       		.uleb128 0x18
 3164 01f5 00       		.byte	0
 3165 01f6 00       		.byte	0
 3166 01f7 28       		.uleb128 0x28
 3167 01f8 34       		.uleb128 0x34
 3168 01f9 00       		.byte	0
 3169 01fa 03       		.uleb128 0x3
 3170 01fb 0E       		.uleb128 0xe
 3171 01fc 49       		.uleb128 0x49
 3172 01fd 13       		.uleb128 0x13
 3173 01fe 34       		.uleb128 0x34
 3174 01ff 19       		.uleb128 0x19
 3175 0200 00       		.byte	0
 3176 0201 00       		.byte	0
 3177 0202 29       		.uleb128 0x29
 3178 0203 1D       		.uleb128 0x1d
 3179 0204 01       		.byte	0x1
 3180 0205 31       		.uleb128 0x31
 3181 0206 13       		.uleb128 0x13
 3182 0207 52       		.uleb128 0x52
 3183 0208 01       		.uleb128 0x1
 3184 0209 55       		.uleb128 0x55
 3185 020a 17       		.uleb128 0x17
 3186 020b 58       		.uleb128 0x58
 3187 020c 0B       		.uleb128 0xb
 3188 020d 59       		.uleb128 0x59
 3189 020e 0B       		.uleb128 0xb
 3190 020f 01       		.uleb128 0x1
 3191 0210 13       		.uleb128 0x13
 3192 0211 00       		.byte	0
ARM GAS  /var/folders/m4/4md61f0s1_g0rzfghffqnxvr0000gn/T//ccA7UFTV.s 			page 57


 3193 0212 00       		.byte	0
 3194 0213 2A       		.uleb128 0x2a
 3195 0214 1D       		.uleb128 0x1d
 3196 0215 01       		.byte	0x1
 3197 0216 31       		.uleb128 0x31
 3198 0217 13       		.uleb128 0x13
 3199 0218 52       		.uleb128 0x52
 3200 0219 01       		.uleb128 0x1
 3201 021a 55       		.uleb128 0x55
 3202 021b 17       		.uleb128 0x17
 3203 021c 58       		.uleb128 0x58
 3204 021d 0B       		.uleb128 0xb
 3205 021e 59       		.uleb128 0x59
 3206 021f 05       		.uleb128 0x5
 3207 0220 00       		.byte	0
 3208 0221 00       		.byte	0
 3209 0222 2B       		.uleb128 0x2b
 3210 0223 1D       		.uleb128 0x1d
 3211 0224 01       		.byte	0x1
 3212 0225 31       		.uleb128 0x31
 3213 0226 13       		.uleb128 0x13
 3214 0227 11       		.uleb128 0x11
 3215 0228 01       		.uleb128 0x1
 3216 0229 12       		.uleb128 0x12
 3217 022a 06       		.uleb128 0x6
 3218 022b 58       		.uleb128 0x58
 3219 022c 0B       		.uleb128 0xb
 3220 022d 59       		.uleb128 0x59
 3221 022e 0B       		.uleb128 0xb
 3222 022f 01       		.uleb128 0x1
 3223 0230 13       		.uleb128 0x13
 3224 0231 00       		.byte	0
 3225 0232 00       		.byte	0
 3226 0233 2C       		.uleb128 0x2c
 3227 0234 1D       		.uleb128 0x1d
 3228 0235 01       		.byte	0x1
 3229 0236 31       		.uleb128 0x31
 3230 0237 13       		.uleb128 0x13
 3231 0238 11       		.uleb128 0x11
 3232 0239 01       		.uleb128 0x1
 3233 023a 12       		.uleb128 0x12
 3234 023b 06       		.uleb128 0x6
 3235 023c 58       		.uleb128 0x58
 3236 023d 0B       		.uleb128 0xb
 3237 023e 59       		.uleb128 0x59
 3238 023f 05       		.uleb128 0x5
 3239 0240 00       		.byte	0
 3240 0241 00       		.byte	0
 3241 0242 2D       		.uleb128 0x2d
 3242 0243 0B       		.uleb128 0xb
 3243 0244 01       		.byte	0x1
 3244 0245 11       		.uleb128 0x11
 3245 0246 01       		.uleb128 0x1
 3246 0247 12       		.uleb128 0x12
 3247 0248 06       		.uleb128 0x6
 3248 0249 00       		.byte	0
 3249 024a 00       		.byte	0
ARM GAS  /var/folders/m4/4md61f0s1_g0rzfghffqnxvr0000gn/T//ccA7UFTV.s 			page 58


 3250 024b 2E       		.uleb128 0x2e
 3251 024c 34       		.uleb128 0x34
 3252 024d 00       		.byte	0
 3253 024e 31       		.uleb128 0x31
 3254 024f 13       		.uleb128 0x13
 3255 0250 00       		.byte	0
 3256 0251 00       		.byte	0
 3257 0252 2F       		.uleb128 0x2f
 3258 0253 898201   		.uleb128 0x4109
 3259 0256 01       		.byte	0x1
 3260 0257 11       		.uleb128 0x11
 3261 0258 01       		.uleb128 0x1
 3262 0259 31       		.uleb128 0x31
 3263 025a 13       		.uleb128 0x13
 3264 025b 00       		.byte	0
 3265 025c 00       		.byte	0
 3266 025d 30       		.uleb128 0x30
 3267 025e 2E       		.uleb128 0x2e
 3268 025f 01       		.byte	0x1
 3269 0260 3F       		.uleb128 0x3f
 3270 0261 19       		.uleb128 0x19
 3271 0262 03       		.uleb128 0x3
 3272 0263 0E       		.uleb128 0xe
 3273 0264 3A       		.uleb128 0x3a
 3274 0265 0B       		.uleb128 0xb
 3275 0266 3B       		.uleb128 0x3b
 3276 0267 0B       		.uleb128 0xb
 3277 0268 27       		.uleb128 0x27
 3278 0269 19       		.uleb128 0x19
 3279 026a 49       		.uleb128 0x49
 3280 026b 13       		.uleb128 0x13
 3281 026c 11       		.uleb128 0x11
 3282 026d 01       		.uleb128 0x1
 3283 026e 12       		.uleb128 0x12
 3284 026f 06       		.uleb128 0x6
 3285 0270 40       		.uleb128 0x40
 3286 0271 18       		.uleb128 0x18
 3287 0272 9742     		.uleb128 0x2117
 3288 0274 19       		.uleb128 0x19
 3289 0275 01       		.uleb128 0x1
 3290 0276 13       		.uleb128 0x13
 3291 0277 00       		.byte	0
 3292 0278 00       		.byte	0
 3293 0279 31       		.uleb128 0x31
 3294 027a 05       		.uleb128 0x5
 3295 027b 00       		.byte	0
 3296 027c 03       		.uleb128 0x3
 3297 027d 0E       		.uleb128 0xe
 3298 027e 3A       		.uleb128 0x3a
 3299 027f 0B       		.uleb128 0xb
 3300 0280 3B       		.uleb128 0x3b
 3301 0281 0B       		.uleb128 0xb
 3302 0282 49       		.uleb128 0x49
 3303 0283 13       		.uleb128 0x13
 3304 0284 02       		.uleb128 0x2
 3305 0285 18       		.uleb128 0x18
 3306 0286 00       		.byte	0
ARM GAS  /var/folders/m4/4md61f0s1_g0rzfghffqnxvr0000gn/T//ccA7UFTV.s 			page 59


 3307 0287 00       		.byte	0
 3308 0288 32       		.uleb128 0x32
 3309 0289 34       		.uleb128 0x34
 3310 028a 00       		.byte	0
 3311 028b 03       		.uleb128 0x3
 3312 028c 0E       		.uleb128 0xe
 3313 028d 3A       		.uleb128 0x3a
 3314 028e 0B       		.uleb128 0xb
 3315 028f 3B       		.uleb128 0x3b
 3316 0290 0B       		.uleb128 0xb
 3317 0291 49       		.uleb128 0x49
 3318 0292 13       		.uleb128 0x13
 3319 0293 02       		.uleb128 0x2
 3320 0294 18       		.uleb128 0x18
 3321 0295 00       		.byte	0
 3322 0296 00       		.byte	0
 3323 0297 33       		.uleb128 0x33
 3324 0298 2E       		.uleb128 0x2e
 3325 0299 01       		.byte	0x1
 3326 029a 3F       		.uleb128 0x3f
 3327 029b 19       		.uleb128 0x19
 3328 029c 03       		.uleb128 0x3
 3329 029d 0E       		.uleb128 0xe
 3330 029e 3A       		.uleb128 0x3a
 3331 029f 0B       		.uleb128 0xb
 3332 02a0 3B       		.uleb128 0x3b
 3333 02a1 05       		.uleb128 0x5
 3334 02a2 27       		.uleb128 0x27
 3335 02a3 19       		.uleb128 0x19
 3336 02a4 11       		.uleb128 0x11
 3337 02a5 01       		.uleb128 0x1
 3338 02a6 12       		.uleb128 0x12
 3339 02a7 06       		.uleb128 0x6
 3340 02a8 40       		.uleb128 0x40
 3341 02a9 18       		.uleb128 0x18
 3342 02aa 9742     		.uleb128 0x2117
 3343 02ac 19       		.uleb128 0x19
 3344 02ad 01       		.uleb128 0x1
 3345 02ae 13       		.uleb128 0x13
 3346 02af 00       		.byte	0
 3347 02b0 00       		.byte	0
 3348 02b1 34       		.uleb128 0x34
 3349 02b2 05       		.uleb128 0x5
 3350 02b3 00       		.byte	0
 3351 02b4 03       		.uleb128 0x3
 3352 02b5 0E       		.uleb128 0xe
 3353 02b6 3A       		.uleb128 0x3a
 3354 02b7 0B       		.uleb128 0xb
 3355 02b8 3B       		.uleb128 0x3b
 3356 02b9 05       		.uleb128 0x5
 3357 02ba 49       		.uleb128 0x49
 3358 02bb 13       		.uleb128 0x13
 3359 02bc 02       		.uleb128 0x2
 3360 02bd 17       		.uleb128 0x17
 3361 02be 00       		.byte	0
 3362 02bf 00       		.byte	0
 3363 02c0 35       		.uleb128 0x35
ARM GAS  /var/folders/m4/4md61f0s1_g0rzfghffqnxvr0000gn/T//ccA7UFTV.s 			page 60


 3364 02c1 34       		.uleb128 0x34
 3365 02c2 00       		.byte	0
 3366 02c3 03       		.uleb128 0x3
 3367 02c4 0E       		.uleb128 0xe
 3368 02c5 3A       		.uleb128 0x3a
 3369 02c6 0B       		.uleb128 0xb
 3370 02c7 3B       		.uleb128 0x3b
 3371 02c8 05       		.uleb128 0x5
 3372 02c9 49       		.uleb128 0x49
 3373 02ca 13       		.uleb128 0x13
 3374 02cb 3F       		.uleb128 0x3f
 3375 02cc 19       		.uleb128 0x19
 3376 02cd 3C       		.uleb128 0x3c
 3377 02ce 19       		.uleb128 0x19
 3378 02cf 00       		.byte	0
 3379 02d0 00       		.byte	0
 3380 02d1 36       		.uleb128 0x36
 3381 02d2 34       		.uleb128 0x34
 3382 02d3 00       		.byte	0
 3383 02d4 03       		.uleb128 0x3
 3384 02d5 08       		.uleb128 0x8
 3385 02d6 3A       		.uleb128 0x3a
 3386 02d7 0B       		.uleb128 0xb
 3387 02d8 3B       		.uleb128 0x3b
 3388 02d9 05       		.uleb128 0x5
 3389 02da 49       		.uleb128 0x49
 3390 02db 13       		.uleb128 0x13
 3391 02dc 3F       		.uleb128 0x3f
 3392 02dd 19       		.uleb128 0x19
 3393 02de 3C       		.uleb128 0x3c
 3394 02df 19       		.uleb128 0x19
 3395 02e0 00       		.byte	0
 3396 02e1 00       		.byte	0
 3397 02e2 37       		.uleb128 0x37
 3398 02e3 2E       		.uleb128 0x2e
 3399 02e4 00       		.byte	0
 3400 02e5 3F       		.uleb128 0x3f
 3401 02e6 19       		.uleb128 0x19
 3402 02e7 3C       		.uleb128 0x3c
 3403 02e8 19       		.uleb128 0x19
 3404 02e9 6E       		.uleb128 0x6e
 3405 02ea 0E       		.uleb128 0xe
 3406 02eb 03       		.uleb128 0x3
 3407 02ec 0E       		.uleb128 0xe
 3408 02ed 3A       		.uleb128 0x3a
 3409 02ee 0B       		.uleb128 0xb
 3410 02ef 3B       		.uleb128 0x3b
 3411 02f0 05       		.uleb128 0x5
 3412 02f1 00       		.byte	0
 3413 02f2 00       		.byte	0
 3414 02f3 38       		.uleb128 0x38
 3415 02f4 2E       		.uleb128 0x2e
 3416 02f5 00       		.byte	0
 3417 02f6 3F       		.uleb128 0x3f
 3418 02f7 19       		.uleb128 0x19
 3419 02f8 3C       		.uleb128 0x3c
 3420 02f9 19       		.uleb128 0x19
ARM GAS  /var/folders/m4/4md61f0s1_g0rzfghffqnxvr0000gn/T//ccA7UFTV.s 			page 61


 3421 02fa 6E       		.uleb128 0x6e
 3422 02fb 0E       		.uleb128 0xe
 3423 02fc 03       		.uleb128 0x3
 3424 02fd 0E       		.uleb128 0xe
 3425 02fe 3A       		.uleb128 0x3a
 3426 02ff 0B       		.uleb128 0xb
 3427 0300 3B       		.uleb128 0x3b
 3428 0301 0B       		.uleb128 0xb
 3429 0302 00       		.byte	0
 3430 0303 00       		.byte	0
 3431 0304 00       		.byte	0
 3432              		.section	.debug_loc,"",%progbits
 3433              	.Ldebug_loc0:
 3434              	.LLST0:
 3435 0000 00000000 		.4byte	.LVL1
 3436 0004 0A000000 		.4byte	.LVL3
 3437 0008 0100     		.2byte	0x1
 3438 000a 50       		.byte	0x50
 3439 000b 0A000000 		.4byte	.LVL3
 3440 000f 0D000000 		.4byte	.LVL4-1
 3441 0013 0300     		.2byte	0x3
 3442 0015 70       		.byte	0x70
 3443 0016 74       		.sleb128 -12
 3444 0017 9F       		.byte	0x9f
 3445 0018 0D000000 		.4byte	.LVL4-1
 3446 001c 0E000000 		.4byte	.LFE269
 3447 0020 0400     		.2byte	0x4
 3448 0022 F3       		.byte	0xf3
 3449 0023 01       		.uleb128 0x1
 3450 0024 50       		.byte	0x50
 3451 0025 9F       		.byte	0x9f
 3452 0026 00000000 		.4byte	0
 3453 002a 00000000 		.4byte	0
 3454              	.LLST1:
 3455 002e 08000000 		.4byte	.LVL2
 3456 0032 0A000000 		.4byte	.LVL3
 3457 0036 0300     		.2byte	0x3
 3458 0038 70       		.byte	0x70
 3459 0039 0C       		.sleb128 12
 3460 003a 9F       		.byte	0x9f
 3461 003b 0A000000 		.4byte	.LVL3
 3462 003f 0D000000 		.4byte	.LVL4-1
 3463 0043 0100     		.2byte	0x1
 3464 0045 50       		.byte	0x50
 3465 0046 0D000000 		.4byte	.LVL4-1
 3466 004a 0E000000 		.4byte	.LFE269
 3467 004e 0600     		.2byte	0x6
 3468 0050 F3       		.byte	0xf3
 3469 0051 01       		.uleb128 0x1
 3470 0052 50       		.byte	0x50
 3471 0053 23       		.byte	0x23
 3472 0054 0C       		.uleb128 0xc
 3473 0055 9F       		.byte	0x9f
 3474 0056 00000000 		.4byte	0
 3475 005a 00000000 		.4byte	0
 3476              	.LLST2:
 3477 005e 00000000 		.4byte	.LVL5
ARM GAS  /var/folders/m4/4md61f0s1_g0rzfghffqnxvr0000gn/T//ccA7UFTV.s 			page 62


 3478 0062 0F000000 		.4byte	.LVL7-1
 3479 0066 0100     		.2byte	0x1
 3480 0068 50       		.byte	0x50
 3481 0069 0F000000 		.4byte	.LVL7-1
 3482 006d 1C000000 		.4byte	.LFE270
 3483 0071 0100     		.2byte	0x1
 3484 0073 54       		.byte	0x54
 3485 0074 00000000 		.4byte	0
 3486 0078 00000000 		.4byte	0
 3487              	.LLST3:
 3488 007c 00000000 		.4byte	.LVL5
 3489 0080 0F000000 		.4byte	.LVL7-1
 3490 0084 0100     		.2byte	0x1
 3491 0086 51       		.byte	0x51
 3492 0087 0F000000 		.4byte	.LVL7-1
 3493 008b 1C000000 		.4byte	.LFE270
 3494 008f 0400     		.2byte	0x4
 3495 0091 F3       		.byte	0xf3
 3496 0092 01       		.uleb128 0x1
 3497 0093 51       		.byte	0x51
 3498 0094 9F       		.byte	0x9f
 3499 0095 00000000 		.4byte	0
 3500 0099 00000000 		.4byte	0
 3501              	.LLST4:
 3502 009d 00000000 		.4byte	.LVL5
 3503 00a1 0A000000 		.4byte	.LVL6
 3504 00a5 0300     		.2byte	0x3
 3505 00a7 08       		.byte	0x8
 3506 00a8 20       		.byte	0x20
 3507 00a9 9F       		.byte	0x9f
 3508 00aa 00000000 		.4byte	0
 3509 00ae 00000000 		.4byte	0
 3510              	.LLST5:
 3511 00b2 14000000 		.4byte	.LVL8
 3512 00b6 1A000000 		.4byte	.LVL9
 3513 00ba 0200     		.2byte	0x2
 3514 00bc 30       		.byte	0x30
 3515 00bd 9F       		.byte	0x9f
 3516 00be 00000000 		.4byte	0
 3517 00c2 00000000 		.4byte	0
 3518              	.LLST6:
 3519 00c6 00000000 		.4byte	.LVL10
 3520 00ca 0D000000 		.4byte	.LVL12-1
 3521 00ce 0100     		.2byte	0x1
 3522 00d0 50       		.byte	0x50
 3523 00d1 0D000000 		.4byte	.LVL12-1
 3524 00d5 1A000000 		.4byte	.LFE271
 3525 00d9 0100     		.2byte	0x1
 3526 00db 54       		.byte	0x54
 3527 00dc 00000000 		.4byte	0
 3528 00e0 00000000 		.4byte	0
 3529              	.LLST7:
 3530 00e4 00000000 		.4byte	.LVL10
 3531 00e8 0A000000 		.4byte	.LVL11
 3532 00ec 0300     		.2byte	0x3
 3533 00ee 08       		.byte	0x8
 3534 00ef 20       		.byte	0x20
ARM GAS  /var/folders/m4/4md61f0s1_g0rzfghffqnxvr0000gn/T//ccA7UFTV.s 			page 63


 3535 00f0 9F       		.byte	0x9f
 3536 00f1 00000000 		.4byte	0
 3537 00f5 00000000 		.4byte	0
 3538              	.LLST8:
 3539 00f9 12000000 		.4byte	.LVL13
 3540 00fd 18000000 		.4byte	.LVL14
 3541 0101 0200     		.2byte	0x2
 3542 0103 30       		.byte	0x30
 3543 0104 9F       		.byte	0x9f
 3544 0105 00000000 		.4byte	0
 3545 0109 00000000 		.4byte	0
 3546              	.LLST9:
 3547 010d 00000000 		.4byte	.LVL15
 3548 0111 02000000 		.4byte	.LVL16
 3549 0115 0100     		.2byte	0x1
 3550 0117 50       		.byte	0x50
 3551 0118 02000000 		.4byte	.LVL16
 3552 011c 04000000 		.4byte	.LFE272
 3553 0120 0400     		.2byte	0x4
 3554 0122 F3       		.byte	0xf3
 3555 0123 01       		.uleb128 0x1
 3556 0124 50       		.byte	0x50
 3557 0125 9F       		.byte	0x9f
 3558 0126 00000000 		.4byte	0
 3559 012a 00000000 		.4byte	0
 3560              	.LLST10:
 3561 012e 00000000 		.4byte	.LVL17
 3562 0132 29000000 		.4byte	.LVL19-1
 3563 0136 0100     		.2byte	0x1
 3564 0138 50       		.byte	0x50
 3565 0139 29000000 		.4byte	.LVL19-1
 3566 013d 3E000000 		.4byte	.LFE273
 3567 0141 0100     		.2byte	0x1
 3568 0143 54       		.byte	0x54
 3569 0144 00000000 		.4byte	0
 3570 0148 00000000 		.4byte	0
 3571              	.LLST11:
 3572 014c 00000000 		.4byte	.LVL17
 3573 0150 29000000 		.4byte	.LVL19-1
 3574 0154 0100     		.2byte	0x1
 3575 0156 51       		.byte	0x51
 3576 0157 29000000 		.4byte	.LVL19-1
 3577 015b 3E000000 		.4byte	.LFE273
 3578 015f 0400     		.2byte	0x4
 3579 0161 F3       		.byte	0xf3
 3580 0162 01       		.uleb128 0x1
 3581 0163 51       		.byte	0x51
 3582 0164 9F       		.byte	0x9f
 3583 0165 00000000 		.4byte	0
 3584 0169 00000000 		.4byte	0
 3585              	.LLST12:
 3586 016d 00000000 		.4byte	.LVL17
 3587 0171 29000000 		.4byte	.LVL19-1
 3588 0175 0100     		.2byte	0x1
 3589 0177 52       		.byte	0x52
 3590 0178 29000000 		.4byte	.LVL19-1
 3591 017c 3E000000 		.4byte	.LFE273
ARM GAS  /var/folders/m4/4md61f0s1_g0rzfghffqnxvr0000gn/T//ccA7UFTV.s 			page 64


 3592 0180 0400     		.2byte	0x4
 3593 0182 F3       		.byte	0xf3
 3594 0183 01       		.uleb128 0x1
 3595 0184 52       		.byte	0x52
 3596 0185 9F       		.byte	0x9f
 3597 0186 00000000 		.4byte	0
 3598 018a 00000000 		.4byte	0
 3599              	.LLST13:
 3600 018e 00000000 		.4byte	.LVL17
 3601 0192 29000000 		.4byte	.LVL19-1
 3602 0196 0100     		.2byte	0x1
 3603 0198 53       		.byte	0x53
 3604 0199 29000000 		.4byte	.LVL19-1
 3605 019d 3E000000 		.4byte	.LFE273
 3606 01a1 0400     		.2byte	0x4
 3607 01a3 F3       		.byte	0xf3
 3608 01a4 01       		.uleb128 0x1
 3609 01a5 53       		.byte	0x53
 3610 01a6 9F       		.byte	0x9f
 3611 01a7 00000000 		.4byte	0
 3612 01ab 00000000 		.4byte	0
 3613              	.LLST14:
 3614 01af 00000000 		.4byte	.LVL17
 3615 01b3 12000000 		.4byte	.LVL18
 3616 01b7 0300     		.2byte	0x3
 3617 01b9 08       		.byte	0x8
 3618 01ba 20       		.byte	0x20
 3619 01bb 9F       		.byte	0x9f
 3620 01bc 00000000 		.4byte	0
 3621 01c0 00000000 		.4byte	0
 3622              	.LLST15:
 3623 01c4 34000000 		.4byte	.LVL20
 3624 01c8 3A000000 		.4byte	.LVL21
 3625 01cc 0200     		.2byte	0x2
 3626 01ce 30       		.byte	0x30
 3627 01cf 9F       		.byte	0x9f
 3628 01d0 00000000 		.4byte	0
 3629 01d4 00000000 		.4byte	0
 3630              	.LLST16:
 3631 01d8 00000000 		.4byte	.LVL22
 3632 01dc 1B000000 		.4byte	.LVL24-1
 3633 01e0 0100     		.2byte	0x1
 3634 01e2 50       		.byte	0x50
 3635 01e3 1B000000 		.4byte	.LVL24-1
 3636 01e7 30000000 		.4byte	.LFE274
 3637 01eb 0100     		.2byte	0x1
 3638 01ed 54       		.byte	0x54
 3639 01ee 00000000 		.4byte	0
 3640 01f2 00000000 		.4byte	0
 3641              	.LLST17:
 3642 01f6 00000000 		.4byte	.LVL22
 3643 01fa 1B000000 		.4byte	.LVL24-1
 3644 01fe 0100     		.2byte	0x1
 3645 0200 51       		.byte	0x51
 3646 0201 1B000000 		.4byte	.LVL24-1
 3647 0205 30000000 		.4byte	.LFE274
 3648 0209 0400     		.2byte	0x4
ARM GAS  /var/folders/m4/4md61f0s1_g0rzfghffqnxvr0000gn/T//ccA7UFTV.s 			page 65


 3649 020b F3       		.byte	0xf3
 3650 020c 01       		.uleb128 0x1
 3651 020d 51       		.byte	0x51
 3652 020e 9F       		.byte	0x9f
 3653 020f 00000000 		.4byte	0
 3654 0213 00000000 		.4byte	0
 3655              	.LLST18:
 3656 0217 00000000 		.4byte	.LVL22
 3657 021b 1B000000 		.4byte	.LVL24-1
 3658 021f 0100     		.2byte	0x1
 3659 0221 52       		.byte	0x52
 3660 0222 1B000000 		.4byte	.LVL24-1
 3661 0226 30000000 		.4byte	.LFE274
 3662 022a 0400     		.2byte	0x4
 3663 022c F3       		.byte	0xf3
 3664 022d 01       		.uleb128 0x1
 3665 022e 52       		.byte	0x52
 3666 022f 9F       		.byte	0x9f
 3667 0230 00000000 		.4byte	0
 3668 0234 00000000 		.4byte	0
 3669              	.LLST19:
 3670 0238 00000000 		.4byte	.LVL22
 3671 023c 1B000000 		.4byte	.LVL24-1
 3672 0240 0100     		.2byte	0x1
 3673 0242 53       		.byte	0x53
 3674 0243 1B000000 		.4byte	.LVL24-1
 3675 0247 30000000 		.4byte	.LFE274
 3676 024b 0400     		.2byte	0x4
 3677 024d F3       		.byte	0xf3
 3678 024e 01       		.uleb128 0x1
 3679 024f 53       		.byte	0x53
 3680 0250 9F       		.byte	0x9f
 3681 0251 00000000 		.4byte	0
 3682 0255 00000000 		.4byte	0
 3683              	.LLST20:
 3684 0259 00000000 		.4byte	.LVL22
 3685 025d 0E000000 		.4byte	.LVL23
 3686 0261 0300     		.2byte	0x3
 3687 0263 08       		.byte	0x8
 3688 0264 20       		.byte	0x20
 3689 0265 9F       		.byte	0x9f
 3690 0266 00000000 		.4byte	0
 3691 026a 00000000 		.4byte	0
 3692              	.LLST21:
 3693 026e 26000000 		.4byte	.LVL25
 3694 0272 2C000000 		.4byte	.LVL26
 3695 0276 0200     		.2byte	0x2
 3696 0278 30       		.byte	0x30
 3697 0279 9F       		.byte	0x9f
 3698 027a 00000000 		.4byte	0
 3699 027e 00000000 		.4byte	0
 3700              	.LLST22:
 3701 0282 00000000 		.4byte	.LVL27
 3702 0286 02000000 		.4byte	.LVL28
 3703 028a 0100     		.2byte	0x1
 3704 028c 50       		.byte	0x50
 3705 028d 02000000 		.4byte	.LVL28
ARM GAS  /var/folders/m4/4md61f0s1_g0rzfghffqnxvr0000gn/T//ccA7UFTV.s 			page 66


 3706 0291 05000000 		.4byte	.LVL29-1
 3707 0295 0300     		.2byte	0x3
 3708 0297 70       		.byte	0x70
 3709 0298 74       		.sleb128 -12
 3710 0299 9F       		.byte	0x9f
 3711 029a 05000000 		.4byte	.LVL29-1
 3712 029e 06000000 		.4byte	.LFE275
 3713 02a2 0400     		.2byte	0x4
 3714 02a4 F3       		.byte	0xf3
 3715 02a5 01       		.uleb128 0x1
 3716 02a6 50       		.byte	0x50
 3717 02a7 9F       		.byte	0x9f
 3718 02a8 00000000 		.4byte	0
 3719 02ac 00000000 		.4byte	0
 3720              	.LLST23:
 3721 02b0 00000000 		.4byte	.LVL27
 3722 02b4 02000000 		.4byte	.LVL28
 3723 02b8 0300     		.2byte	0x3
 3724 02ba 70       		.byte	0x70
 3725 02bb 0C       		.sleb128 12
 3726 02bc 9F       		.byte	0x9f
 3727 02bd 02000000 		.4byte	.LVL28
 3728 02c1 05000000 		.4byte	.LVL29-1
 3729 02c5 0100     		.2byte	0x1
 3730 02c7 50       		.byte	0x50
 3731 02c8 05000000 		.4byte	.LVL29-1
 3732 02cc 06000000 		.4byte	.LFE275
 3733 02d0 0600     		.2byte	0x6
 3734 02d2 F3       		.byte	0xf3
 3735 02d3 01       		.uleb128 0x1
 3736 02d4 50       		.byte	0x50
 3737 02d5 23       		.byte	0x23
 3738 02d6 0C       		.uleb128 0xc
 3739 02d7 9F       		.byte	0x9f
 3740 02d8 00000000 		.4byte	0
 3741 02dc 00000000 		.4byte	0
 3742              	.LLST24:
 3743 02e0 00000000 		.4byte	.LVL30
 3744 02e4 02000000 		.4byte	.LVL31
 3745 02e8 0100     		.2byte	0x1
 3746 02ea 50       		.byte	0x50
 3747 02eb 02000000 		.4byte	.LVL31
 3748 02ef 05000000 		.4byte	.LVL32-1
 3749 02f3 0300     		.2byte	0x3
 3750 02f5 70       		.byte	0x70
 3751 02f6 74       		.sleb128 -12
 3752 02f7 9F       		.byte	0x9f
 3753 02f8 05000000 		.4byte	.LVL32-1
 3754 02fc 06000000 		.4byte	.LFE276
 3755 0300 0400     		.2byte	0x4
 3756 0302 F3       		.byte	0xf3
 3757 0303 01       		.uleb128 0x1
 3758 0304 50       		.byte	0x50
 3759 0305 9F       		.byte	0x9f
 3760 0306 00000000 		.4byte	0
 3761 030a 00000000 		.4byte	0
 3762              	.LLST25:
ARM GAS  /var/folders/m4/4md61f0s1_g0rzfghffqnxvr0000gn/T//ccA7UFTV.s 			page 67


 3763 030e 00000000 		.4byte	.LVL30
 3764 0312 02000000 		.4byte	.LVL31
 3765 0316 0300     		.2byte	0x3
 3766 0318 70       		.byte	0x70
 3767 0319 0C       		.sleb128 12
 3768 031a 9F       		.byte	0x9f
 3769 031b 02000000 		.4byte	.LVL31
 3770 031f 05000000 		.4byte	.LVL32-1
 3771 0323 0100     		.2byte	0x1
 3772 0325 50       		.byte	0x50
 3773 0326 05000000 		.4byte	.LVL32-1
 3774 032a 06000000 		.4byte	.LFE276
 3775 032e 0600     		.2byte	0x6
 3776 0330 F3       		.byte	0xf3
 3777 0331 01       		.uleb128 0x1
 3778 0332 50       		.byte	0x50
 3779 0333 23       		.byte	0x23
 3780 0334 0C       		.uleb128 0xc
 3781 0335 9F       		.byte	0x9f
 3782 0336 00000000 		.4byte	0
 3783 033a 00000000 		.4byte	0
 3784              		.section	.debug_aranges,"",%progbits
 3785 0000 5C000000 		.4byte	0x5c
 3786 0004 0200     		.2byte	0x2
 3787 0006 00000000 		.4byte	.Ldebug_info0
 3788 000a 04       		.byte	0x4
 3789 000b 00       		.byte	0
 3790 000c 0000     		.2byte	0
 3791 000e 0000     		.2byte	0
 3792 0010 00000000 		.4byte	.LFB268
 3793 0014 04000000 		.4byte	.LFE268-.LFB268
 3794 0018 00000000 		.4byte	.LFB269
 3795 001c 0E000000 		.4byte	.LFE269-.LFB269
 3796 0020 00000000 		.4byte	.LFB270
 3797 0024 1C000000 		.4byte	.LFE270-.LFB270
 3798 0028 00000000 		.4byte	.LFB271
 3799 002c 1A000000 		.4byte	.LFE271-.LFB271
 3800 0030 00000000 		.4byte	.LFB272
 3801 0034 04000000 		.4byte	.LFE272-.LFB272
 3802 0038 00000000 		.4byte	.LFB273
 3803 003c 3E000000 		.4byte	.LFE273-.LFB273
 3804 0040 00000000 		.4byte	.LFB274
 3805 0044 30000000 		.4byte	.LFE274-.LFB274
 3806 0048 00000000 		.4byte	.LFB275
 3807 004c 06000000 		.4byte	.LFE275-.LFB275
 3808 0050 00000000 		.4byte	.LFB276
 3809 0054 06000000 		.4byte	.LFE276-.LFB276
 3810 0058 00000000 		.4byte	0
 3811 005c 00000000 		.4byte	0
 3812              		.section	.debug_ranges,"",%progbits
 3813              	.Ldebug_ranges0:
 3814 0000 02000000 		.4byte	.LBB84
 3815 0004 04000000 		.4byte	.LBE84
 3816 0008 06000000 		.4byte	.LBB93
 3817 000c 0A000000 		.4byte	.LBE93
 3818 0010 00000000 		.4byte	0
 3819 0014 00000000 		.4byte	0
ARM GAS  /var/folders/m4/4md61f0s1_g0rzfghffqnxvr0000gn/T//ccA7UFTV.s 			page 68


 3820 0018 02000000 		.4byte	.LBB100
 3821 001c 04000000 		.4byte	.LBE100
 3822 0020 06000000 		.4byte	.LBB109
 3823 0024 0A000000 		.4byte	.LBE109
 3824 0028 00000000 		.4byte	0
 3825 002c 00000000 		.4byte	0
 3826 0030 00000000 		.4byte	.LFB268
 3827 0034 04000000 		.4byte	.LFE268
 3828 0038 00000000 		.4byte	.LFB269
 3829 003c 0E000000 		.4byte	.LFE269
 3830 0040 00000000 		.4byte	.LFB270
 3831 0044 1C000000 		.4byte	.LFE270
 3832 0048 00000000 		.4byte	.LFB271
 3833 004c 1A000000 		.4byte	.LFE271
 3834 0050 00000000 		.4byte	.LFB272
 3835 0054 04000000 		.4byte	.LFE272
 3836 0058 00000000 		.4byte	.LFB273
 3837 005c 3E000000 		.4byte	.LFE273
 3838 0060 00000000 		.4byte	.LFB274
 3839 0064 30000000 		.4byte	.LFE274
 3840 0068 00000000 		.4byte	.LFB275
 3841 006c 06000000 		.4byte	.LFE275
 3842 0070 00000000 		.4byte	.LFB276
 3843 0074 06000000 		.4byte	.LFE276
 3844 0078 00000000 		.4byte	0
 3845 007c 00000000 		.4byte	0
 3846              		.section	.debug_line,"",%progbits
 3847              	.Ldebug_line0:
 3848 0000 27050000 		.section	.debug_str,"MS",%progbits,1
 3848      0200F803 
 3848      00000201 
 3848      FB0E0D00 
 3848      01010101 
 3849              	.LASF153:
 3850 0000 646D6172 		.ascii	"dmarx\000"
 3850      7800
 3851              	.LASF139:
 3852 0006 69326364 		.ascii	"i2cdutycycle_t\000"
 3852      75747963 
 3852      79636C65 
 3852      5F7400
 3853              	.LASF56:
 3854 0015 72656164 		.ascii	"ready_list_t\000"
 3854      795F6C69 
 3854      73745F74 
 3854      00
 3855              	.LASF86:
 3856 0022 4D304152 		.ascii	"M0AR\000"
 3856      00
 3857              	.LASF2:
 3858 0027 73697A65 		.ascii	"size_t\000"
 3858      5F7400
 3859              	.LASF100:
 3860 002e 7264796D 		.ascii	"rdymsg\000"
 3860      736700
 3861              	.LASF19:
 3862 0035 75696E74 		.ascii	"uint64_t\000"
ARM GAS  /var/folders/m4/4md61f0s1_g0rzfghffqnxvr0000gn/T//ccA7UFTV.s 			page 69


 3862      36345F74 
 3862      00
 3863              	.LASF120:
 3864 003e 76656374 		.ascii	"vector\000"
 3864      6F7200
 3865              	.LASF3:
 3866 0045 5F5F7569 		.ascii	"__uint8_t\000"
 3866      6E74385F 
 3866      7400
 3867              	.LASF124:
 3868 004f 4932435F 		.ascii	"I2C_STOP\000"
 3868      53544F50 
 3868      00
 3869              	.LASF97:
 3870 0058 706F7274 		.ascii	"port_intctx\000"
 3870      5F696E74 
 3870      63747800 
 3871              	.LASF75:
 3872 0064 73797374 		.ascii	"system_debug_t\000"
 3872      656D5F64 
 3872      65627567 
 3872      5F7400
 3873              	.LASF188:
 3874 0073 6932635F 		.ascii	"i2c_lld_master_receive_timeout\000"
 3874      6C6C645F 
 3874      6D617374 
 3874      65725F72 
 3874      65636569 
 3875              	.LASF91:
 3876 0092 54524953 		.ascii	"TRISE\000"
 3876      4500
 3877              	.LASF116:
 3878 0098 73747265 		.ascii	"stream\000"
 3878      616D00
 3879              	.LASF191:
 3880 009f 474E5520 		.ascii	"GNU C99 5.2.1 20151202 (release) [ARM/embedded-5-br"
 3880      43393920 
 3880      352E322E 
 3880      31203230 
 3880      31353132 
 3881 00d2 616E6368 		.ascii	"anch revision 231848] -mcpu=cortex-m4 -mfloat-abi=h"
 3881      20726576 
 3881      6973696F 
 3881      6E203233 
 3881      31383438 
 3882 0105 61726420 		.ascii	"ard -mfpu=fpv4-sp-d16 -mno-thumb-interwork -mthumb "
 3882      2D6D6670 
 3882      753D6670 
 3882      76342D73 
 3882      702D6431 
 3883 0138 2D676764 		.ascii	"-ggdb -O2 -std=c99 -fomit-frame-pointer -falign-fun"
 3883      62202D4F 
 3883      32202D73 
 3883      74643D63 
 3883      3939202D 
 3884 016b 6374696F 		.ascii	"ctions=16 -fsingle-precision-constant -ffunction-se"
 3884      6E733D31 
ARM GAS  /var/folders/m4/4md61f0s1_g0rzfghffqnxvr0000gn/T//ccA7UFTV.s 			page 70


 3884      36202D66 
 3884      73696E67 
 3884      6C652D70 
 3885 019e 6374696F 		.ascii	"ctions -fdata-sections -fno-common\000"
 3885      6E73202D 
 3885      66646174 
 3885      612D7365 
 3885      6374696F 
 3886              	.LASF14:
 3887 01c1 6C6F6E67 		.ascii	"long long unsigned int\000"
 3887      206C6F6E 
 3887      6720756E 
 3887      7369676E 
 3887      65642069 
 3888              	.LASF101:
 3889 01d8 65786974 		.ascii	"exitcode\000"
 3889      636F6465 
 3889      00
 3890              	.LASF181:
 3891 01e1 69326352 		.ascii	"i2cReleaseBus\000"
 3891      656C6561 
 3891      73654275 
 3891      7300
 3892              	.LASF72:
 3893 01ef 76697274 		.ascii	"virtual_timers_list_t\000"
 3893      75616C5F 
 3893      74696D65 
 3893      72735F6C 
 3893      6973745F 
 3894              	.LASF182:
 3895 0205 49544D5F 		.ascii	"ITM_RxBuffer\000"
 3895      52784275 
 3895      66666572 
 3895      00
 3896              	.LASF169:
 3897 0212 69326370 		.ascii	"i2cp\000"
 3897      00
 3898              	.LASF55:
 3899 0217 63685F74 		.ascii	"ch_threads_queue\000"
 3899      68726561 
 3899      64735F71 
 3899      75657565 
 3899      00
 3900              	.LASF33:
 3901 0228 705F7072 		.ascii	"p_prio\000"
 3901      696F00
 3902              	.LASF173:
 3903 022f 6932634D 		.ascii	"i2cMasterTransmitTimeout\000"
 3903      61737465 
 3903      72547261 
 3903      6E736D69 
 3903      7454696D 
 3904              	.LASF160:
 3905 0248 6F73616C 		.ascii	"osalMutexObjectInit\000"
 3905      4D757465 
 3905      784F626A 
 3905      65637449 
ARM GAS  /var/folders/m4/4md61f0s1_g0rzfghffqnxvr0000gn/T//ccA7UFTV.s 			page 71


 3905      6E697400 
 3906              	.LASF115:
 3907 025c 6D757465 		.ascii	"mutex_t\000"
 3907      785F7400 
 3908              	.LASF190:
 3909 0264 63684D74 		.ascii	"chMtxUnlock\000"
 3909      78556E6C 
 3909      6F636B00 
 3910              	.LASF1:
 3911 0270 7369676E 		.ascii	"signed char\000"
 3911      65642063 
 3911      68617200 
 3912              	.LASF141:
 3913 027c 636C6F63 		.ascii	"clock_speed\000"
 3913      6B5F7370 
 3913      65656400 
 3914              	.LASF49:
 3915 0288 705F6D70 		.ascii	"p_mpool\000"
 3915      6F6F6C00 
 3916              	.LASF176:
 3917 0290 72786275 		.ascii	"rxbuf\000"
 3917      6600
 3918              	.LASF150:
 3919 0296 61646472 		.ascii	"addr\000"
 3919      00
 3920              	.LASF187:
 3921 029b 6932635F 		.ascii	"i2c_lld_master_transmit_timeout\000"
 3921      6C6C645F 
 3921      6D617374 
 3921      65725F74 
 3921      72616E73 
 3922              	.LASF81:
 3923 02bb 76746C69 		.ascii	"vtlist\000"
 3923      737400
 3924              	.LASF156:
 3925 02c2 706F7274 		.ascii	"port_unlock\000"
 3925      5F756E6C 
 3925      6F636B00 
 3926              	.LASF24:
 3927 02ce 74736C69 		.ascii	"tslices_t\000"
 3927      6365735F 
 3927      7400
 3928              	.LASF130:
 3929 02d8 69326361 		.ascii	"i2caddr_t\000"
 3929      6464725F 
 3929      7400
 3930              	.LASF145:
 3931 02e2 73746174 		.ascii	"state\000"
 3931      6500
 3932              	.LASF79:
 3933 02e8 63685F73 		.ascii	"ch_system\000"
 3933      79737465 
 3933      6D00
 3934              	.LASF9:
 3935 02f2 6C6F6E67 		.ascii	"long int\000"
 3935      20696E74 
 3935      00
ARM GAS  /var/folders/m4/4md61f0s1_g0rzfghffqnxvr0000gn/T//ccA7UFTV.s 			page 72


 3936              	.LASF22:
 3937 02fb 74737461 		.ascii	"tstate_t\000"
 3937      74655F74 
 3937      00
 3938              	.LASF92:
 3939 0304 464C5452 		.ascii	"FLTR\000"
 3939      00
 3940              	.LASF35:
 3941 0309 705F6E65 		.ascii	"p_newer\000"
 3941      77657200 
 3942              	.LASF108:
 3943 0311 735F7175 		.ascii	"s_queue\000"
 3943      65756500 
 3944              	.LASF151:
 3945 0319 7278646D 		.ascii	"rxdmamode\000"
 3945      616D6F64 
 3945      6500
 3946              	.LASF154:
 3947 0323 646D6174 		.ascii	"dmatx\000"
 3947      7800
 3948              	.LASF134:
 3949 0329 4F504D4F 		.ascii	"OPMODE_SMBUS_HOST\000"
 3949      44455F53 
 3949      4D425553 
 3949      5F484F53 
 3949      5400
 3950              	.LASF61:
 3951 033b 725F6E65 		.ascii	"r_newer\000"
 3951      77657200 
 3952              	.LASF94:
 3953 0343 72656761 		.ascii	"regarm_t\000"
 3953      726D5F74 
 3953      00
 3954              	.LASF68:
 3955 034c 76745F70 		.ascii	"vt_prev\000"
 3955      72657600 
 3956              	.LASF140:
 3957 0354 6F705F6D 		.ascii	"op_mode\000"
 3957      6F646500 
 3958              	.LASF163:
 3959 035c 6F73616C 		.ascii	"osalSysLock\000"
 3959      5379734C 
 3959      6F636B00 
 3960              	.LASF12:
 3961 0368 6C6F6E67 		.ascii	"long long int\000"
 3961      206C6F6E 
 3961      6720696E 
 3961      7400
 3962              	.LASF161:
 3963 0376 76616C75 		.ascii	"value\000"
 3963      6500
 3964              	.LASF83:
 3965 037c 69646C65 		.ascii	"idle_thread_wa\000"
 3965      5F746872 
 3965      6561645F 
 3965      776100
 3966              	.LASF28:
ARM GAS  /var/folders/m4/4md61f0s1_g0rzfghffqnxvr0000gn/T//ccA7UFTV.s 			page 73


 3967 038b 636E745F 		.ascii	"cnt_t\000"
 3967      7400
 3968              	.LASF0:
 3969 0391 756E7369 		.ascii	"unsigned int\000"
 3969      676E6564 
 3969      20696E74 
 3969      00
 3970              	.LASF67:
 3971 039e 76745F6E 		.ascii	"vt_next\000"
 3971      65787400 
 3972              	.LASF174:
 3973 03a6 74786275 		.ascii	"txbuf\000"
 3973      6600
 3974              	.LASF42:
 3975 03ac 705F7469 		.ascii	"p_time\000"
 3975      6D6500
 3976              	.LASF104:
 3977 03b3 77747365 		.ascii	"wtsemp\000"
 3977      6D7000
 3978              	.LASF147:
 3979 03ba 6572726F 		.ascii	"errors\000"
 3979      727300
 3980              	.LASF69:
 3981 03c1 76745F64 		.ascii	"vt_delta\000"
 3981      656C7461 
 3981      00
 3982              	.LASF44:
 3983 03ca 705F6D73 		.ascii	"p_msgqueue\000"
 3983      67717565 
 3983      756500
 3984              	.LASF178:
 3985 03d5 74696D65 		.ascii	"timeout\000"
 3985      6F757400 
 3986              	.LASF118:
 3987 03dd 69736869 		.ascii	"ishift\000"
 3987      667400
 3988              	.LASF109:
 3989 03e4 735F636E 		.ascii	"s_cnt\000"
 3989      7400
 3990              	.LASF133:
 3991 03ea 4F504D4F 		.ascii	"OPMODE_SMBUS_DEVICE\000"
 3991      44455F53 
 3991      4D425553 
 3991      5F444556 
 3991      49434500 
 3992              	.LASF7:
 3993 03fe 73686F72 		.ascii	"short unsigned int\000"
 3993      7420756E 
 3993      7369676E 
 3993      65642069 
 3993      6E7400
 3994              	.LASF144:
 3995 0411 49324344 		.ascii	"I2CDriver\000"
 3995      72697665 
 3995      7200
 3996              	.LASF52:
 3997 041b 63685F74 		.ascii	"ch_thread\000"
ARM GAS  /var/folders/m4/4md61f0s1_g0rzfghffqnxvr0000gn/T//ccA7UFTV.s 			page 74


 3997      68726561 
 3997      6400
 3998              	.LASF82:
 3999 0425 6D61696E 		.ascii	"mainthread\000"
 3999      74687265 
 3999      616400
 4000              	.LASF26:
 4001 0430 6D73675F 		.ascii	"msg_t\000"
 4001      7400
 4002              	.LASF193:
 4003 0436 2F557365 		.ascii	"/Users/raphael/Documents/Projects/rESC/resc-firmwar"
 4003      72732F72 
 4003      61706861 
 4003      656C2F44 
 4003      6F63756D 
 4004 0469 6500     		.ascii	"e\000"
 4005              	.LASF78:
 4006 046b 63685F73 		.ascii	"ch_system_t\000"
 4006      79737465 
 4006      6D5F7400 
 4007              	.LASF21:
 4008 0477 746D6F64 		.ascii	"tmode_t\000"
 4008      655F7400 
 4009              	.LASF16:
 4010 047f 75696E74 		.ascii	"uint16_t\000"
 4010      31365F74 
 4010      00
 4011              	.LASF136:
 4012 0488 5354445F 		.ascii	"STD_DUTY_CYCLE\000"
 4012      44555459 
 4012      5F435943 
 4012      4C4500
 4013              	.LASF57:
 4014 0497 63685F72 		.ascii	"ch_ready_list\000"
 4014      65616479 
 4014      5F6C6973 
 4014      7400
 4015              	.LASF27:
 4016 04a5 6576656E 		.ascii	"eventmask_t\000"
 4016      746D6173 
 4016      6B5F7400 
 4017              	.LASF5:
 4018 04b1 73686F72 		.ascii	"short int\000"
 4018      7420696E 
 4018      7400
 4019              	.LASF8:
 4020 04bb 5F5F696E 		.ascii	"__int32_t\000"
 4020      7433325F 
 4020      7400
 4021              	.LASF95:
 4022 04c5 73746B61 		.ascii	"stkalign_t\000"
 4022      6C69676E 
 4022      5F7400
 4023              	.LASF186:
 4024 04d0 6932635F 		.ascii	"i2c_lld_stop\000"
 4024      6C6C645F 
 4024      73746F70 
ARM GAS  /var/folders/m4/4md61f0s1_g0rzfghffqnxvr0000gn/T//ccA7UFTV.s 			page 75


 4024      00
 4025              	.LASF51:
 4026 04dd 74687265 		.ascii	"threads_list_t\000"
 4026      6164735F 
 4026      6C697374 
 4026      5F7400
 4027              	.LASF43:
 4028 04ec 705F7761 		.ascii	"p_waiting\000"
 4028      6974696E 
 4028      6700
 4029              	.LASF185:
 4030 04f6 6932635F 		.ascii	"i2c_lld_start\000"
 4030      6C6C645F 
 4030      73746172 
 4030      7400
 4031              	.LASF84:
 4032 0504 73697A65 		.ascii	"sizetype\000"
 4032      74797065 
 4032      00
 4033              	.LASF50:
 4034 050d 74687265 		.ascii	"thread_reference_t\000"
 4034      61645F72 
 4034      65666572 
 4034      656E6365 
 4034      5F7400
 4035              	.LASF73:
 4036 0520 63685F76 		.ascii	"ch_virtual_timers_list\000"
 4036      69727475 
 4036      616C5F74 
 4036      696D6572 
 4036      735F6C69 
 4037              	.LASF103:
 4038 0537 77747472 		.ascii	"wttrp\000"
 4038      7000
 4039              	.LASF168:
 4040 053d 69326353 		.ascii	"i2cStart\000"
 4040      74617274 
 4040      00
 4041              	.LASF142:
 4042 0546 64757479 		.ascii	"duty_cycle\000"
 4042      5F637963 
 4042      6C6500
 4043              	.LASF155:
 4044 0551 706F7274 		.ascii	"port_lock\000"
 4044      5F6C6F63 
 4044      6B00
 4045              	.LASF189:
 4046 055b 63684D74 		.ascii	"chMtxLock\000"
 4046      784C6F63 
 4046      6B00
 4047              	.LASF36:
 4048 0565 705F6F6C 		.ascii	"p_older\000"
 4048      64657200 
 4049              	.LASF177:
 4050 056d 72786279 		.ascii	"rxbytes\000"
 4050      74657300 
 4051              	.LASF170:
ARM GAS  /var/folders/m4/4md61f0s1_g0rzfghffqnxvr0000gn/T//ccA7UFTV.s 			page 76


 4052 0575 69326353 		.ascii	"i2cStop\000"
 4052      746F7000 
 4053              	.LASF60:
 4054 057d 725F6374 		.ascii	"r_ctx\000"
 4054      7800
 4055              	.LASF152:
 4056 0583 7478646D 		.ascii	"txdmamode\000"
 4056      616D6F64 
 4056      6500
 4057              	.LASF99:
 4058 058d 746D5F63 		.ascii	"tm_calibration_t\000"
 4058      616C6962 
 4058      72617469 
 4058      6F6E5F74 
 4058      00
 4059              	.LASF132:
 4060 059e 4F504D4F 		.ascii	"OPMODE_I2C\000"
 4060      44455F49 
 4060      324300
 4061              	.LASF63:
 4062 05a9 725F6375 		.ascii	"r_current\000"
 4062      7272656E 
 4062      7400
 4063              	.LASF62:
 4064 05b3 725F6F6C 		.ascii	"r_older\000"
 4064      64657200 
 4065              	.LASF175:
 4066 05bb 74786279 		.ascii	"txbytes\000"
 4066      74657300 
 4067              	.LASF13:
 4068 05c3 5F5F7569 		.ascii	"__uint64_t\000"
 4068      6E743634 
 4068      5F7400
 4069              	.LASF23:
 4070 05ce 74726566 		.ascii	"trefs_t\000"
 4070      735F7400 
 4071              	.LASF129:
 4072 05d6 69326373 		.ascii	"i2cstate_t\000"
 4072      74617465 
 4072      5F7400
 4073              	.LASF138:
 4074 05e1 46415354 		.ascii	"FAST_DUTY_CYCLE_16_9\000"
 4074      5F445554 
 4074      595F4359 
 4074      434C455F 
 4074      31365F39 
 4075              	.LASF65:
 4076 05f6 76697274 		.ascii	"virtual_timer_t\000"
 4076      75616C5F 
 4076      74696D65 
 4076      725F7400 
 4077              	.LASF32:
 4078 0606 705F7072 		.ascii	"p_prev\000"
 4078      657600
 4079              	.LASF121:
 4080 060d 73746D33 		.ascii	"stm32_dma_stream_t\000"
 4080      325F646D 
ARM GAS  /var/folders/m4/4md61f0s1_g0rzfghffqnxvr0000gn/T//ccA7UFTV.s 			page 77


 4080      615F7374 
 4080      7265616D 
 4080      5F7400
 4081              	.LASF180:
 4082 0620 69326341 		.ascii	"i2cAcquireBus\000"
 4082      63717569 
 4082      72654275 
 4082      7300
 4083              	.LASF25:
 4084 062e 74707269 		.ascii	"tprio_t\000"
 4084      6F5F7400 
 4085              	.LASF126:
 4086 0636 4932435F 		.ascii	"I2C_ACTIVE_TX\000"
 4086      41435449 
 4086      56455F54 
 4086      5800
 4087              	.LASF131:
 4088 0644 69326366 		.ascii	"i2cflags_t\000"
 4088      6C616773 
 4088      5F7400
 4089              	.LASF148:
 4090 064f 6D757465 		.ascii	"mutex\000"
 4090      7800
 4091              	.LASF184:
 4092 0655 63684D74 		.ascii	"chMtxObjectInit\000"
 4092      784F626A 
 4092      65637449 
 4092      6E697400 
 4093              	.LASF76:
 4094 0665 63685F73 		.ascii	"ch_system_debug\000"
 4094      79737465 
 4094      6D5F6465 
 4094      62756700 
 4095              	.LASF122:
 4096 0675 5F426F6F 		.ascii	"_Bool\000"
 4096      6C00
 4097              	.LASF17:
 4098 067b 696E7433 		.ascii	"int32_t\000"
 4098      325F7400 
 4099              	.LASF4:
 4100 0683 756E7369 		.ascii	"unsigned char\000"
 4100      676E6564 
 4100      20636861 
 4100      7200
 4101              	.LASF111:
 4102 0691 6D5F7175 		.ascii	"m_queue\000"
 4102      65756500 
 4103              	.LASF47:
 4104 0699 705F6D74 		.ascii	"p_mtxlist\000"
 4104      786C6973 
 4104      7400
 4105              	.LASF123:
 4106 06a3 4932435F 		.ascii	"I2C_UNINIT\000"
 4106      554E494E 
 4106      495400
 4107              	.LASF38:
 4108 06ae 705F7374 		.ascii	"p_state\000"
ARM GAS  /var/folders/m4/4md61f0s1_g0rzfghffqnxvr0000gn/T//ccA7UFTV.s 			page 78


 4108      61746500 
 4109              	.LASF41:
 4110 06b6 705F7072 		.ascii	"p_preempt\000"
 4110      65656D70 
 4110      7400
 4111              	.LASF59:
 4112 06c0 725F7072 		.ascii	"r_prio\000"
 4112      696F00
 4113              	.LASF172:
 4114 06c7 69326347 		.ascii	"i2cGetErrors\000"
 4114      65744572 
 4114      726F7273 
 4114      00
 4115              	.LASF106:
 4116 06d4 65776D61 		.ascii	"ewmask\000"
 4116      736B00
 4117              	.LASF31:
 4118 06db 705F6E65 		.ascii	"p_next\000"
 4118      787400
 4119              	.LASF39:
 4120 06e2 705F666C 		.ascii	"p_flags\000"
 4120      61677300 
 4121              	.LASF171:
 4122 06ea 5F5F6675 		.ascii	"__func__\000"
 4122      6E635F5F 
 4122      00
 4123              	.LASF157:
 4124 06f3 63685379 		.ascii	"chSysLock\000"
 4124      734C6F63 
 4124      6B00
 4125              	.LASF162:
 4126 06fd 6F73616C 		.ascii	"osalSysUnlock\000"
 4126      53797355 
 4126      6E6C6F63 
 4126      6B00
 4127              	.LASF137:
 4128 070b 46415354 		.ascii	"FAST_DUTY_CYCLE_2\000"
 4128      5F445554 
 4128      595F4359 
 4128      434C455F 
 4128      3200
 4129              	.LASF128:
 4130 071d 4932435F 		.ascii	"I2C_LOCKED\000"
 4130      4C4F434B 
 4130      454400
 4131              	.LASF107:
 4132 0728 63685F73 		.ascii	"ch_semaphore\000"
 4132      656D6170 
 4132      686F7265 
 4132      00
 4133              	.LASF46:
 4134 0735 705F6570 		.ascii	"p_epending\000"
 4134      656E6469 
 4134      6E6700
 4135              	.LASF117:
 4136 0740 69666372 		.ascii	"ifcr\000"
 4136      00
ARM GAS  /var/folders/m4/4md61f0s1_g0rzfghffqnxvr0000gn/T//ccA7UFTV.s 			page 79


 4137              	.LASF18:
 4138 0745 75696E74 		.ascii	"uint32_t\000"
 4138      33325F74 
 4138      00
 4139              	.LASF105:
 4140 074e 77746D74 		.ascii	"wtmtxp\000"
 4140      787000
 4141              	.LASF58:
 4142 0755 725F7175 		.ascii	"r_queue\000"
 4142      65756500 
 4143              	.LASF53:
 4144 075d 63685F74 		.ascii	"ch_threads_list\000"
 4144      68726561 
 4144      64735F6C 
 4144      69737400 
 4145              	.LASF127:
 4146 076d 4932435F 		.ascii	"I2C_ACTIVE_RX\000"
 4146      41435449 
 4146      56455F52 
 4146      5800
 4147              	.LASF11:
 4148 077b 6C6F6E67 		.ascii	"long unsigned int\000"
 4148      20756E73 
 4148      69676E65 
 4148      6420696E 
 4148      7400
 4149              	.LASF114:
 4150 078d 63686172 		.ascii	"char\000"
 4150      00
 4151              	.LASF146:
 4152 0792 636F6E66 		.ascii	"config\000"
 4152      696700
 4153              	.LASF165:
 4154 0799 6F73616C 		.ascii	"osalMutexUnlock\000"
 4154      4D757465 
 4154      78556E6C 
 4154      6F636B00 
 4155              	.LASF6:
 4156 07a9 5F5F7569 		.ascii	"__uint16_t\000"
 4156      6E743136 
 4156      5F7400
 4157              	.LASF30:
 4158 07b4 74687265 		.ascii	"thread_t\000"
 4158      61645F74 
 4158      00
 4159              	.LASF113:
 4160 07bd 6D5F6E65 		.ascii	"m_next\000"
 4160      787400
 4161              	.LASF29:
 4162 07c4 73797374 		.ascii	"systime_t\000"
 4162      696D655F 
 4162      7400
 4163              	.LASF48:
 4164 07ce 705F7265 		.ascii	"p_realprio\000"
 4164      616C7072 
 4164      696F00
 4165              	.LASF64:
ARM GAS  /var/folders/m4/4md61f0s1_g0rzfghffqnxvr0000gn/T//ccA7UFTV.s 			page 80


 4166 07d9 76746675 		.ascii	"vtfunc_t\000"
 4166      6E635F74 
 4166      00
 4167              	.LASF10:
 4168 07e2 5F5F7569 		.ascii	"__uint32_t\000"
 4168      6E743332 
 4168      5F7400
 4169              	.LASF158:
 4170 07ed 5F5F7365 		.ascii	"__set_BASEPRI\000"
 4170      745F4241 
 4170      53455052 
 4170      4900
 4171              	.LASF164:
 4172 07fb 6F73616C 		.ascii	"osalMutexLock\000"
 4172      4D757465 
 4172      784C6F63 
 4172      6B00
 4173              	.LASF85:
 4174 0809 4E445452 		.ascii	"NDTR\000"
 4174      00
 4175              	.LASF77:
 4176 080e 70616E69 		.ascii	"panic_msg\000"
 4176      635F6D73 
 4176      6700
 4177              	.LASF125:
 4178 0818 4932435F 		.ascii	"I2C_READY\000"
 4178      52454144 
 4178      5900
 4179              	.LASF98:
 4180 0822 6F666673 		.ascii	"offset\000"
 4180      657400
 4181              	.LASF88:
 4182 0829 444D415F 		.ascii	"DMA_Stream_TypeDef\000"
 4182      53747265 
 4182      616D5F54 
 4182      79706544 
 4182      656600
 4183              	.LASF110:
 4184 083c 63685F6D 		.ascii	"ch_mutex\000"
 4184      75746578 
 4184      00
 4185              	.LASF96:
 4186 0845 636F6E74 		.ascii	"context\000"
 4186      65787400 
 4187              	.LASF66:
 4188 084d 63685F76 		.ascii	"ch_virtual_timer\000"
 4188      69727475 
 4188      616C5F74 
 4188      696D6572 
 4188      00
 4189              	.LASF20:
 4190 085e 7274636E 		.ascii	"rtcnt_t\000"
 4190      745F7400 
 4191              	.LASF87:
 4192 0866 4D314152 		.ascii	"M1AR\000"
 4192      00
 4193              	.LASF119:
ARM GAS  /var/folders/m4/4md61f0s1_g0rzfghffqnxvr0000gn/T//ccA7UFTV.s 			page 81


 4194 086b 73656C66 		.ascii	"selfindex\000"
 4194      696E6465 
 4194      7800
 4195              	.LASF71:
 4196 0875 76745F70 		.ascii	"vt_par\000"
 4196      617200
 4197              	.LASF143:
 4198 087c 49324343 		.ascii	"I2CConfig\000"
 4198      6F6E6669 
 4198      6700
 4199              	.LASF54:
 4200 0886 74687265 		.ascii	"threads_queue_t\000"
 4200      6164735F 
 4200      71756575 
 4200      655F7400 
 4201              	.LASF183:
 4202 0896 6932635F 		.ascii	"i2c_lld_init\000"
 4202      6C6C645F 
 4202      696E6974 
 4202      00
 4203              	.LASF40:
 4204 08a3 705F7265 		.ascii	"p_refs\000"
 4204      667300
 4205              	.LASF80:
 4206 08aa 726C6973 		.ascii	"rlist\000"
 4206      7400
 4207              	.LASF15:
 4208 08b0 75696E74 		.ascii	"uint8_t\000"
 4208      385F7400 
 4209              	.LASF89:
 4210 08b8 4F415231 		.ascii	"OAR1\000"
 4210      00
 4211              	.LASF90:
 4212 08bd 4F415232 		.ascii	"OAR2\000"
 4212      00
 4213              	.LASF192:
 4214 08c2 43686962 		.ascii	"ChibiOS_16.1.4/os/hal/src/i2c.c\000"
 4214      694F535F 
 4214      31362E31 
 4214      2E342F6F 
 4214      732F6861 
 4215              	.LASF179:
 4216 08e2 6932634D 		.ascii	"i2cMasterReceiveTimeout\000"
 4216      61737465 
 4216      72526563 
 4216      65697665 
 4216      54696D65 
 4217              	.LASF102:
 4218 08fa 77746F62 		.ascii	"wtobjp\000"
 4218      6A7000
 4219              	.LASF37:
 4220 0901 705F6E61 		.ascii	"p_name\000"
 4220      6D6500
 4221              	.LASF74:
 4222 0908 76745F73 		.ascii	"vt_systime\000"
 4222      79737469 
 4222      6D6500
ARM GAS  /var/folders/m4/4md61f0s1_g0rzfghffqnxvr0000gn/T//ccA7UFTV.s 			page 82


 4223              	.LASF166:
 4224 0913 69326349 		.ascii	"i2cInit\000"
 4224      6E697400 
 4225              	.LASF159:
 4226 091b 63685379 		.ascii	"chSysUnlock\000"
 4226      73556E6C 
 4226      6F636B00 
 4227              	.LASF45:
 4228 0927 705F6D73 		.ascii	"p_msg\000"
 4228      6700
 4229              	.LASF93:
 4230 092d 4932435F 		.ascii	"I2C_TypeDef\000"
 4230      54797065 
 4230      44656600 
 4231              	.LASF135:
 4232 0939 6932636F 		.ascii	"i2copmode_t\000"
 4232      706D6F64 
 4232      655F7400 
 4233              	.LASF149:
 4234 0945 74687265 		.ascii	"thread\000"
 4234      616400
 4235              	.LASF167:
 4236 094c 6932634F 		.ascii	"i2cObjectInit\000"
 4236      626A6563 
 4236      74496E69 
 4236      7400
 4237              	.LASF112:
 4238 095a 6D5F6F77 		.ascii	"m_owner\000"
 4238      6E657200 
 4239              	.LASF34:
 4240 0962 705F6374 		.ascii	"p_ctx\000"
 4240      7800
 4241              	.LASF70:
 4242 0968 76745F66 		.ascii	"vt_func\000"
 4242      756E6300 
 4243              		.ident	"GCC: (GNU Tools for ARM Embedded Processors) 5.2.1 20151202 (release) [ARM/embedded-5-bran
ARM GAS  /var/folders/m4/4md61f0s1_g0rzfghffqnxvr0000gn/T//ccA7UFTV.s 			page 83


DEFINED SYMBOLS
                            *ABS*:0000000000000000 i2c.c
/var/folders/m4/4md61f0s1_g0rzfghffqnxvr0000gn/T//ccA7UFTV.s:22     .text.i2cInit:0000000000000000 $t
/var/folders/m4/4md61f0s1_g0rzfghffqnxvr0000gn/T//ccA7UFTV.s:28     .text.i2cInit:0000000000000000 i2cInit
/var/folders/m4/4md61f0s1_g0rzfghffqnxvr0000gn/T//ccA7UFTV.s:43     .text.i2cObjectInit:0000000000000000 $t
/var/folders/m4/4md61f0s1_g0rzfghffqnxvr0000gn/T//ccA7UFTV.s:49     .text.i2cObjectInit:0000000000000000 i2cObjectInit
/var/folders/m4/4md61f0s1_g0rzfghffqnxvr0000gn/T//ccA7UFTV.s:80     .text.i2cStart:0000000000000000 $t
/var/folders/m4/4md61f0s1_g0rzfghffqnxvr0000gn/T//ccA7UFTV.s:86     .text.i2cStart:0000000000000000 i2cStart
/var/folders/m4/4md61f0s1_g0rzfghffqnxvr0000gn/T//ccA7UFTV.s:165    .text.i2cStop:0000000000000000 $t
/var/folders/m4/4md61f0s1_g0rzfghffqnxvr0000gn/T//ccA7UFTV.s:171    .text.i2cStop:0000000000000000 i2cStop
/var/folders/m4/4md61f0s1_g0rzfghffqnxvr0000gn/T//ccA7UFTV.s:247    .text.i2cGetErrors:0000000000000000 $t
/var/folders/m4/4md61f0s1_g0rzfghffqnxvr0000gn/T//ccA7UFTV.s:253    .text.i2cGetErrors:0000000000000000 i2cGetErrors
/var/folders/m4/4md61f0s1_g0rzfghffqnxvr0000gn/T//ccA7UFTV.s:269    .text.i2cMasterTransmitTimeout:0000000000000000 $t
/var/folders/m4/4md61f0s1_g0rzfghffqnxvr0000gn/T//ccA7UFTV.s:275    .text.i2cMasterTransmitTimeout:0000000000000000 i2cMasterTransmitTimeout
/var/folders/m4/4md61f0s1_g0rzfghffqnxvr0000gn/T//ccA7UFTV.s:370    .text.i2cMasterReceiveTimeout:0000000000000000 $t
/var/folders/m4/4md61f0s1_g0rzfghffqnxvr0000gn/T//ccA7UFTV.s:376    .text.i2cMasterReceiveTimeout:0000000000000000 i2cMasterReceiveTimeout
/var/folders/m4/4md61f0s1_g0rzfghffqnxvr0000gn/T//ccA7UFTV.s:466    .text.i2cAcquireBus:0000000000000000 $t
/var/folders/m4/4md61f0s1_g0rzfghffqnxvr0000gn/T//ccA7UFTV.s:472    .text.i2cAcquireBus:0000000000000000 i2cAcquireBus
/var/folders/m4/4md61f0s1_g0rzfghffqnxvr0000gn/T//ccA7UFTV.s:493    .text.i2cReleaseBus:0000000000000000 $t
/var/folders/m4/4md61f0s1_g0rzfghffqnxvr0000gn/T//ccA7UFTV.s:499    .text.i2cReleaseBus:0000000000000000 i2cReleaseBus
                     .debug_frame:0000000000000010 $d

UNDEFINED SYMBOLS
i2c_lld_init
chMtxObjectInit
i2c_lld_start
i2c_lld_stop
i2c_lld_master_transmit_timeout
i2c_lld_master_receive_timeout
chMtxLock
chMtxUnlock
