ARM GAS  /var/folders/m4/4md61f0s1_g0rzfghffqnxvr0000gn/T//ccA7UFTV.s 			page 1


   1              		.syntax unified
   2              		.cpu cortex-m4
   3              		.eabi_attribute 27, 1
   4              		.eabi_attribute 28, 1
   5              		.fpu fpv4-sp-d16
   6              		.eabi_attribute 20, 1
   7              		.eabi_attribute 21, 1
   8              		.eabi_attribute 23, 3
   9              		.eabi_attribute 24, 1
  10              		.eabi_attribute 25, 1
  11              		.eabi_attribute 26, 1
  12              		.eabi_attribute 30, 2
  13              		.eabi_attribute 34, 1
  14              		.eabi_attribute 18, 4
  15              		.thumb
  16              		.syntax unified
  17              		.file	"i2c.c"
  18              		.text
  19              	.Ltext0:
  20              		.cfi_sections	.debug_frame
  21              		.section	.text.i2cInit,"ax",%progbits
  22              		.align	2
  23              		.p2align 4,,15
  24              		.global	i2cInit
  25              		.thumb
  26              		.thumb_func
  27              		.type	i2cInit, %function
  28              	i2cInit:
  29              	.LFB268:
  30              		.file 1 "ChibiOS_16.1.4/os/hal/src/i2c.c"
  31              		.loc 1 59 0
  32              		.cfi_startproc
  33              		@ args = 0, pretend = 0, frame = 0
  34              		@ frame_needed = 0, uses_anonymous_args = 0
  35              		@ link register save eliminated.
  36              		.loc 1 61 0
  37 0000 FFF7FEBF 		b	i2c_lld_init
  38              	.LVL0:
  39              		.cfi_endproc
  40              	.LFE268:
  41              		.size	i2cInit, .-i2cInit
  42              		.section	.text.i2cObjectInit,"ax",%progbits
  43              		.align	2
  44              		.p2align 4,,15
  45              		.global	i2cObjectInit
  46              		.thumb
  47              		.thumb_func
  48              		.type	i2cObjectInit, %function
  49              	i2cObjectInit:
  50              	.LFB269:
  51              		.loc 1 71 0
  52              		.cfi_startproc
  53              		@ args = 0, pretend = 0, frame = 0
  54              		@ frame_needed = 0, uses_anonymous_args = 0
  55              		@ link register save eliminated.
  56              	.LVL1:
  57              		.loc 1 73 0
ARM GAS  /var/folders/m4/4md61f0s1_g0rzfghffqnxvr0000gn/T//ccA7UFTV.s 			page 2


  58 0000 0122     		movs	r2, #1
  59              		.loc 1 74 0
  60 0002 0023     		movs	r3, #0
  61              		.loc 1 73 0
  62 0004 0270     		strb	r2, [r0]
  63              		.loc 1 74 0
  64 0006 4360     		str	r3, [r0, #4]
  65              	.LVL2:
  66              	.LBB82:
  67              	.LBB83:
  68              		.file 2 "ChibiOS_16.1.4/os/hal/osal/rt/osal.h"
  69              		.loc 2 887 0
  70 0008 0C30     		adds	r0, r0, #12
  71              	.LVL3:
  72 000a FFF7FEBF 		b	chMtxObjectInit
  73              	.LVL4:
  74              	.LBE83:
  75              	.LBE82:
  76              		.cfi_endproc
  77              	.LFE269:
  78              		.size	i2cObjectInit, .-i2cObjectInit
  79 000e 00BF     		.section	.text.i2cStart,"ax",%progbits
  80              		.align	2
  81              		.p2align 4,,15
  82              		.global	i2cStart
  83              		.thumb
  84              		.thumb_func
  85              		.type	i2cStart, %function
  86              	i2cStart:
  87              	.LFB270:
  88              		.loc 1 93 0
  89              		.cfi_startproc
  90              		@ args = 0, pretend = 0, frame = 0
  91              		@ frame_needed = 0, uses_anonymous_args = 0
  92              	.LVL5:
  93 0000 10B5     		push	{r4, lr}
  94              		.cfi_def_cfa_offset 8
  95              		.cfi_offset 4, -8
  96              		.cfi_offset 14, -4
  97              	.LBB84:
  98              	.LBB85:
  99              	.LBB86:
 100              	.LBB87:
 101              	.LBB88:
 102              		.file 3 "ChibiOS_16.1.4/os/ext/CMSIS/include/core_cmFunc.h"
 103              		.loc 3 548 0
 104 0002 2023     		movs	r3, #32
 105              	.LBE88:
 106              	.LBE87:
 107              	.LBE86:
 108              	.LBE85:
 109              	.LBE84:
 110              		.loc 1 93 0
 111 0004 0446     		mov	r4, r0
 112              	.LBB93:
 113              	.LBB92:
 114              	.LBB91:
ARM GAS  /var/folders/m4/4md61f0s1_g0rzfghffqnxvr0000gn/T//ccA7UFTV.s 			page 3


 115              	.LBB90:
 116              	.LBB89:
 117              		.loc 3 548 0
 118              		.syntax unified
 119              	@ 548 "ChibiOS_16.1.4/os/ext/CMSIS/include/core_cmFunc.h" 1
 120 0006 83F31188 		MSR basepri, r3
 121              	@ 0 "" 2
 122              	.LVL6:
 123              		.thumb
 124              		.syntax unified
 125              	.LBE89:
 126              	.LBE90:
 127              	.LBE91:
 128              	.LBE92:
 129              	.LBE93:
 130              		.loc 1 100 0
 131 000a 4160     		str	r1, [r0, #4]
 132              		.loc 1 101 0
 133 000c FFF7FEFF 		bl	i2c_lld_start
 134              	.LVL7:
 135              		.loc 1 102 0
 136 0010 0223     		movs	r3, #2
 137 0012 2370     		strb	r3, [r4]
 138              	.LVL8:
 139              	.LBB94:
 140              	.LBB95:
 141              	.LBB96:
 142              	.LBB97:
 143              	.LBB98:
 144              	.LBB99:
 145              		.loc 3 548 0
 146 0014 0023     		movs	r3, #0
 147              		.syntax unified
 148              	@ 548 "ChibiOS_16.1.4/os/ext/CMSIS/include/core_cmFunc.h" 1
 149 0016 83F31188 		MSR basepri, r3
 150              	@ 0 "" 2
 151              	.LVL9:
 152              		.thumb
 153              		.syntax unified
 154 001a 10BD     		pop	{r4, pc}
 155              	.LBE99:
 156              	.LBE98:
 157              	.LBE97:
 158              	.LBE96:
 159              	.LBE95:
 160              	.LBE94:
 161              		.cfi_endproc
 162              	.LFE270:
 163              		.size	i2cStart, .-i2cStart
 164              		.section	.text.i2cStop,"ax",%progbits
 165              		.align	2
 166              		.p2align 4,,15
 167              		.global	i2cStop
 168              		.thumb
 169              		.thumb_func
 170              		.type	i2cStop, %function
 171              	i2cStop:
ARM GAS  /var/folders/m4/4md61f0s1_g0rzfghffqnxvr0000gn/T//ccA7UFTV.s 			page 4


 172              	.LFB271:
 173              		.loc 1 113 0
 174              		.cfi_startproc
 175              		@ args = 0, pretend = 0, frame = 0
 176              		@ frame_needed = 0, uses_anonymous_args = 0
 177              	.LVL10:
 178 0000 10B5     		push	{r4, lr}
 179              		.cfi_def_cfa_offset 8
 180              		.cfi_offset 4, -8
 181              		.cfi_offset 14, -4
 182              	.LBB100:
 183              	.LBB101:
 184              	.LBB102:
 185              	.LBB103:
 186              	.LBB104:
 187              		.loc 3 548 0
 188 0002 2023     		movs	r3, #32
 189              	.LBE104:
 190              	.LBE103:
 191              	.LBE102:
 192              	.LBE101:
 193              	.LBE100:
 194              		.loc 1 113 0
 195 0004 0446     		mov	r4, r0
 196              	.LBB109:
 197              	.LBB108:
 198              	.LBB107:
 199              	.LBB106:
 200              	.LBB105:
 201              		.loc 3 548 0
 202              		.syntax unified
 203              	@ 548 "ChibiOS_16.1.4/os/ext/CMSIS/include/core_cmFunc.h" 1
 204 0006 83F31188 		MSR basepri, r3
 205              	@ 0 "" 2
 206              	.LVL11:
 207              		.thumb
 208              		.syntax unified
 209              	.LBE105:
 210              	.LBE106:
 211              	.LBE107:
 212              	.LBE108:
 213              	.LBE109:
 214              		.loc 1 120 0
 215 000a FFF7FEFF 		bl	i2c_lld_stop
 216              	.LVL12:
 217              		.loc 1 121 0
 218 000e 0123     		movs	r3, #1
 219 0010 2370     		strb	r3, [r4]
 220              	.LVL13:
 221              	.LBB110:
 222              	.LBB111:
 223              	.LBB112:
 224              	.LBB113:
 225              	.LBB114:
 226              	.LBB115:
 227              		.loc 3 548 0
 228 0012 0023     		movs	r3, #0
ARM GAS  /var/folders/m4/4md61f0s1_g0rzfghffqnxvr0000gn/T//ccA7UFTV.s 			page 5


 229              		.syntax unified
 230              	@ 548 "ChibiOS_16.1.4/os/ext/CMSIS/include/core_cmFunc.h" 1
 231 0014 83F31188 		MSR basepri, r3
 232              	@ 0 "" 2
 233              	.LVL14:
 234              		.thumb
 235              		.syntax unified
 236 0018 10BD     		pop	{r4, pc}
 237              	.LBE115:
 238              	.LBE114:
 239              	.LBE113:
 240              	.LBE112:
 241              	.LBE111:
 242              	.LBE110:
 243              		.cfi_endproc
 244              	.LFE271:
 245              		.size	i2cStop, .-i2cStop
 246 001a 00BF     		.section	.text.i2cGetErrors,"ax",%progbits
 247              		.align	2
 248              		.p2align 4,,15
 249              		.global	i2cGetErrors
 250              		.thumb
 251              		.thumb_func
 252              		.type	i2cGetErrors, %function
 253              	i2cGetErrors:
 254              	.LFB272:
 255              		.loc 1 133 0
 256              		.cfi_startproc
 257              		@ args = 0, pretend = 0, frame = 0
 258              		@ frame_needed = 0, uses_anonymous_args = 0
 259              		@ link register save eliminated.
 260              	.LVL15:
 261              		.loc 1 138 0
 262 0000 8068     		ldr	r0, [r0, #8]
 263              	.LVL16:
 264 0002 7047     		bx	lr
 265              		.cfi_endproc
 266              	.LFE272:
 267              		.size	i2cGetErrors, .-i2cGetErrors
 268              		.section	.text.i2cMasterTransmitTimeout,"ax",%progbits
 269              		.align	2
 270              		.p2align 4,,15
 271              		.global	i2cMasterTransmitTimeout
 272              		.thumb
 273              		.thumb_func
 274              		.type	i2cMasterTransmitTimeout, %function
 275              	i2cMasterTransmitTimeout:
 276              	.LFB273:
 277              		.loc 1 172 0
 278              		.cfi_startproc
 279              		@ args = 12, pretend = 0, frame = 0
 280              		@ frame_needed = 0, uses_anonymous_args = 0
 281              	.LVL17:
 282 0000 F0B5     		push	{r4, r5, r6, r7, lr}
 283              		.cfi_def_cfa_offset 20
 284              		.cfi_offset 4, -20
 285              		.cfi_offset 5, -16
ARM GAS  /var/folders/m4/4md61f0s1_g0rzfghffqnxvr0000gn/T//ccA7UFTV.s 			page 6


 286              		.cfi_offset 6, -12
 287              		.cfi_offset 7, -8
 288              		.cfi_offset 14, -4
 289 0002 85B0     		sub	sp, sp, #20
 290              		.cfi_def_cfa_offset 40
 291              		.loc 1 172 0
 292 0004 0446     		mov	r4, r0
 293 0006 0B9E     		ldr	r6, [sp, #44]
 294 0008 0C9F     		ldr	r7, [sp, #48]
 295              	.LBB116:
 296              	.LBB117:
 297              	.LBB118:
 298              	.LBB119:
 299              	.LBB120:
 300              		.loc 3 548 0
 301 000a 4FF0200E 		mov	lr, #32
 302              		.syntax unified
 303              	@ 548 "ChibiOS_16.1.4/os/ext/CMSIS/include/core_cmFunc.h" 1
 304 000e 8EF31188 		MSR basepri, lr
 305              	@ 0 "" 2
 306              	.LVL18:
 307              		.thumb
 308              		.syntax unified
 309              	.LBE120:
 310              	.LBE119:
 311              	.LBE118:
 312              	.LBE117:
 313              	.LBE116:
 314              		.loc 1 184 0
 315 0012 4FF0030E 		mov	lr, #3
 316              		.loc 1 185 0
 317 0016 0196     		str	r6, [sp, #4]
 318              		.loc 1 183 0
 319 0018 0025     		movs	r5, #0
 320              		.loc 1 185 0
 321 001a 0A9E     		ldr	r6, [sp, #40]
 322 001c 0297     		str	r7, [sp, #8]
 323 001e 0096     		str	r6, [sp]
 324              		.loc 1 183 0
 325 0020 8560     		str	r5, [r0, #8]
 326              		.loc 1 184 0
 327 0022 80F800E0 		strb	lr, [r0]
 328              		.loc 1 185 0
 329 0026 FFF7FEFF 		bl	i2c_lld_master_transmit_timeout
 330              	.LVL19:
 331              		.loc 1 187 0
 332 002a 431C     		adds	r3, r0, #1
 333              		.loc 1 188 0
 334 002c 0CBF     		ite	eq
 335 002e 0523     		moveq	r3, #5
 336              		.loc 1 191 0
 337 0030 0223     		movne	r3, #2
 338 0032 2370     		strb	r3, [r4]
 339              	.LVL20:
 340              	.LBB121:
 341              	.LBB122:
 342              	.LBB123:
ARM GAS  /var/folders/m4/4md61f0s1_g0rzfghffqnxvr0000gn/T//ccA7UFTV.s 			page 7


 343              	.LBB124:
 344              	.LBB125:
 345              	.LBB126:
 346              		.loc 3 548 0
 347 0034 0023     		movs	r3, #0
 348              		.syntax unified
 349              	@ 548 "ChibiOS_16.1.4/os/ext/CMSIS/include/core_cmFunc.h" 1
 350 0036 83F31188 		MSR basepri, r3
 351              	@ 0 "" 2
 352              	.LVL21:
 353              		.thumb
 354              		.syntax unified
 355              	.LBE126:
 356              	.LBE125:
 357              	.LBE124:
 358              	.LBE123:
 359              	.LBE122:
 360              	.LBE121:
 361              		.loc 1 195 0
 362 003a 05B0     		add	sp, sp, #20
 363              		.cfi_def_cfa_offset 20
 364              		@ sp needed
 365 003c F0BD     		pop	{r4, r5, r6, r7, pc}
 366              		.cfi_endproc
 367              	.LFE273:
 368              		.size	i2cMasterTransmitTimeout, .-i2cMasterTransmitTimeout
 369 003e 00BF     		.section	.text.i2cMasterReceiveTimeout,"ax",%progbits
 370              		.align	2
 371              		.p2align 4,,15
 372              		.global	i2cMasterReceiveTimeout
 373              		.thumb
 374              		.thumb_func
 375              		.type	i2cMasterReceiveTimeout, %function
 376              	i2cMasterReceiveTimeout:
 377              	.LFB274:
 378              		.loc 1 221 0
 379              		.cfi_startproc
 380              		@ args = 4, pretend = 0, frame = 0
 381              		@ frame_needed = 0, uses_anonymous_args = 0
 382              	.LVL22:
 383 0000 F0B5     		push	{r4, r5, r6, r7, lr}
 384              		.cfi_def_cfa_offset 20
 385              		.cfi_offset 4, -20
 386              		.cfi_offset 5, -16
 387              		.cfi_offset 6, -12
 388              		.cfi_offset 7, -8
 389              		.cfi_offset 14, -4
 390 0002 83B0     		sub	sp, sp, #12
 391              		.cfi_def_cfa_offset 32
 392              		.loc 1 221 0
 393 0004 0446     		mov	r4, r0
 394 0006 089F     		ldr	r7, [sp, #32]
 395              	.LBB127:
 396              	.LBB128:
 397              	.LBB129:
 398              	.LBB130:
 399              	.LBB131:
ARM GAS  /var/folders/m4/4md61f0s1_g0rzfghffqnxvr0000gn/T//ccA7UFTV.s 			page 8


 400              		.loc 3 548 0
 401 0008 2025     		movs	r5, #32
 402              		.syntax unified
 403              	@ 548 "ChibiOS_16.1.4/os/ext/CMSIS/include/core_cmFunc.h" 1
 404 000a 85F31188 		MSR basepri, r5
 405              	@ 0 "" 2
 406              	.LVL23:
 407              		.thumb
 408              		.syntax unified
 409              	.LBE131:
 410              	.LBE130:
 411              	.LBE129:
 412              	.LBE128:
 413              	.LBE127:
 414              		.loc 1 232 0
 415 000e 0026     		movs	r6, #0
 416              		.loc 1 233 0
 417 0010 0425     		movs	r5, #4
 418              		.loc 1 234 0
 419 0012 0097     		str	r7, [sp]
 420              		.loc 1 232 0
 421 0014 8660     		str	r6, [r0, #8]
 422              		.loc 1 233 0
 423 0016 0570     		strb	r5, [r0]
 424              		.loc 1 234 0
 425 0018 FFF7FEFF 		bl	i2c_lld_master_receive_timeout
 426              	.LVL24:
 427              		.loc 1 235 0
 428 001c 431C     		adds	r3, r0, #1
 429              		.loc 1 236 0
 430 001e 0CBF     		ite	eq
 431 0020 0523     		moveq	r3, #5
 432              		.loc 1 239 0
 433 0022 0223     		movne	r3, #2
 434 0024 2370     		strb	r3, [r4]
 435              	.LVL25:
 436              	.LBB132:
 437              	.LBB133:
 438              	.LBB134:
 439              	.LBB135:
 440              	.LBB136:
 441              	.LBB137:
 442              		.loc 3 548 0
 443 0026 0023     		movs	r3, #0
 444              		.syntax unified
 445              	@ 548 "ChibiOS_16.1.4/os/ext/CMSIS/include/core_cmFunc.h" 1
 446 0028 83F31188 		MSR basepri, r3
 447              	@ 0 "" 2
 448              	.LVL26:
 449              		.thumb
 450              		.syntax unified
 451              	.LBE137:
 452              	.LBE136:
 453              	.LBE135:
 454              	.LBE134:
 455              	.LBE133:
 456              	.LBE132:
ARM GAS  /var/folders/m4/4md61f0s1_g0rzfghffqnxvr0000gn/T//ccA7UFTV.s 			page 9


 457              		.loc 1 243 0
 458 002c 03B0     		add	sp, sp, #12
 459              		.cfi_def_cfa_offset 20
 460              		@ sp needed
 461 002e F0BD     		pop	{r4, r5, r6, r7, pc}
 462              		.cfi_endproc
 463              	.LFE274:
 464              		.size	i2cMasterReceiveTimeout, .-i2cMasterReceiveTimeout
 465              		.section	.text.i2cAcquireBus,"ax",%progbits
 466              		.align	2
 467              		.p2align 4,,15
 468              		.global	i2cAcquireBus
 469              		.thumb
 470              		.thumb_func
 471              		.type	i2cAcquireBus, %function
 472              	i2cAcquireBus:
 473              	.LFB275:
 474              		.loc 1 257 0
 475              		.cfi_startproc
 476              		@ args = 0, pretend = 0, frame = 0
 477              		@ frame_needed = 0, uses_anonymous_args = 0
 478              		@ link register save eliminated.
 479              	.LVL27:
 480              	.LBB138:
 481              	.LBB139:
 482              		.loc 2 907 0
 483 0000 0C30     		adds	r0, r0, #12
 484              	.LVL28:
 485 0002 FFF7FEBF 		b	chMtxLock
 486              	.LVL29:
 487              	.LBE139:
 488              	.LBE138:
 489              		.cfi_endproc
 490              	.LFE275:
 491              		.size	i2cAcquireBus, .-i2cAcquireBus
 492 0006 00BF     		.section	.text.i2cReleaseBus,"ax",%progbits
 493              		.align	2
 494              		.p2align 4,,15
 495              		.global	i2cReleaseBus
 496              		.thumb
 497              		.thumb_func
 498              		.type	i2cReleaseBus, %function
 499              	i2cReleaseBus:
 500              	.LFB276:
 501              		.loc 1 273 0
 502              		.cfi_startproc
 503              		@ args = 0, pretend = 0, frame = 0
 504              		@ frame_needed = 0, uses_anonymous_args = 0
 505              		@ link register save eliminated.
 506              	.LVL30:
 507              	.LBB140:
 508              	.LBB141:
 509              		.loc 2 931 0
 510 0000 0C30     		adds	r0, r0, #12
 511              	.LVL31:
 512 0002 FFF7FEBF 		b	chMtxUnlock
 513              	.LVL32:
ARM GAS  /var/folders/m4/4md61f0s1_g0rzfghffqnxvr0000gn/T//ccA7UFTV.s 			page 10


 514              	.LBE141:
 515              	.LBE140:
 516              		.cfi_endproc
 517              	.LFE276:
 518              		.size	i2cReleaseBus, .-i2cReleaseBus
 519 0006 00BF     		.text
 520              	.Letext0:
 521              		.file 4 "/opt/homebrew-cask/Caskroom/gcc-arm-embedded/5_2-2015q4,20151219/gcc-arm-none-eabi-5_2-20
 522              		.file 5 "/opt/homebrew-cask/Caskroom/gcc-arm-embedded/5_2-2015q4,20151219/gcc-arm-none-eabi-5_2-20
 523              		.file 6 "/opt/homebrew-cask/Caskroom/gcc-arm-embedded/5_2-2015q4,20151219/gcc-arm-none-eabi-5_2-20
 524              		.file 7 "ChibiOS_16.1.4/os/rt/ports/ARMCMx/compilers/GCC/chtypes.h"
 525              		.file 8 "ChibiOS_16.1.4/os/rt/include/chsystypes.h"
 526              		.file 9 "ChibiOS_16.1.4/os/rt/include/chschd.h"
 527              		.file 10 "ChibiOS_16.1.4/os/ext/CMSIS/ST/STM32F4xx/stm32f405xx.h"
 528              		.file 11 "ChibiOS_16.1.4/os/rt/ports/ARMCMx/chcore.h"
 529              		.file 12 "ChibiOS_16.1.4/os/rt/ports/ARMCMx/chcore_v7m.h"
 530              		.file 13 "ChibiOS_16.1.4/os/rt/include/chtm.h"
 531              		.file 14 "ChibiOS_16.1.4/os/rt/include/chsem.h"
 532              		.file 15 "ChibiOS_16.1.4/os/rt/include/chmtx.h"
 533              		.file 16 "ChibiOS_16.1.4/os/hal/ports/STM32/LLD/DMAv2/stm32_dma.h"
 534              		.file 17 "ChibiOS_16.1.4/os/hal/include/i2c.h"
 535              		.file 18 "ChibiOS_16.1.4/os/hal/ports/STM32/LLD/I2Cv1/i2c_lld.h"
 536              		.file 19 "ChibiOS_16.1.4/os/rt/include/chsys.h"
 537              		.file 20 "ChibiOS_16.1.4/os/ext/CMSIS/include/core_cm4.h"