ARM GAS  /var/folders/m4/4md61f0s1_g0rzfghffqnxvr0000gn/T//ccmKZZmz.s 			page 1


   1              		.syntax unified
   2              		.cpu cortex-m4
   3              		.eabi_attribute 27, 1
   4              		.eabi_attribute 28, 1
   5              		.fpu fpv4-sp-d16
   6              		.eabi_attribute 20, 1
   7              		.eabi_attribute 21, 1
   8              		.eabi_attribute 23, 3
   9              		.eabi_attribute 24, 1
  10              		.eabi_attribute 25, 1
  11              		.eabi_attribute 26, 1
  12              		.eabi_attribute 30, 2
  13              		.eabi_attribute 34, 1
  14              		.eabi_attribute 18, 4
  15              		.thumb
  16              		.syntax unified
  17              		.file	"i2c_lld.c"
  18              		.text
  19              	.Ltext0:
  20              		.cfi_sections	.debug_frame
  21              		.section	.text.i2c_lld_serve_tx_end_irq,"ax",%progbits
  22              		.align	2
  23              		.p2align 4,,15
  24              		.thumb
  25              		.thumb_func
  26              		.type	i2c_lld_serve_tx_end_irq, %function
  27              	i2c_lld_serve_tx_end_irq:
  28              	.LFB273:
  29              		.file 1 "ChibiOS_16.1.4/os/hal/ports/STM32/LLD/I2Cv1/i2c_lld.c"
  30              		.loc 1 332 0
  31              		.cfi_startproc
  32              		@ args = 0, pretend = 0, frame = 0
  33              		@ frame_needed = 0, uses_anonymous_args = 0
  34              	.LVL0:
  35              		.loc 1 337 0
  36 0000 11F00C0F 		tst	r1, #12
  37              		.loc 1 332 0
  38 0004 38B5     		push	{r3, r4, r5, lr}
  39              		.cfi_def_cfa_offset 16
  40              		.cfi_offset 3, -16
  41              		.cfi_offset 4, -12
  42              		.cfi_offset 5, -8
  43              		.cfi_offset 14, -4
  44              		.loc 1 332 0
  45 0006 0546     		mov	r5, r0
  46              		.loc 1 333 0
  47 0008 446B     		ldr	r4, [r0, #52]
  48              	.LVL1:
  49              		.loc 1 337 0
  50 000a 12D1     		bne	.L10
  51              	.LVL2:
  52              	.L2:
  53              		.loc 1 344 0
  54 000c 296B     		ldr	r1, [r5, #48]
  55 000e 0A68     		ldr	r2, [r1]
  56 0010 1368     		ldr	r3, [r2]
  57 0012 23F01F03 		bic	r3, r3, #31
ARM GAS  /var/folders/m4/4md61f0s1_g0rzfghffqnxvr0000gn/T//ccmKZZmz.s 			page 2


  58 0016 1360     		str	r3, [r2]
  59              	.L3:
  60              		.loc 1 344 0 is_stmt 0 discriminator 2
  61 0018 1368     		ldr	r3, [r2]
  62 001a DB07     		lsls	r3, r3, #31
  63 001c FCD4     		bmi	.L3
  64              		.loc 1 344 0 discriminator 3
  65 001e 087A     		ldrb	r0, [r1, #8]	@ zero_extendqisi2
  66 0020 4A68     		ldr	r2, [r1, #4]
  67 0022 3D23     		movs	r3, #61
  68 0024 8340     		lsls	r3, r3, r0
  69 0026 1360     		str	r3, [r2]
  70              		.loc 1 348 0 is_stmt 1 discriminator 3
  71 0028 6368     		ldr	r3, [r4, #4]
  72 002a 43F40073 		orr	r3, r3, #512
  73 002e 6360     		str	r3, [r4, #4]
  74 0030 38BD     		pop	{r3, r4, r5, pc}
  75              	.LVL3:
  76              	.L10:
  77              	.LBB209:
  78              	.LBB210:
  79              		.file 2 "ChibiOS_16.1.4/os/hal/osal/rt/osal.h"
  80              		.loc 2 462 0
  81 0032 0248     		ldr	r0, .L11
  82              	.LVL4:
  83 0034 FFF7FEFF 		bl	chSysHalt
  84              	.LVL5:
  85 0038 E8E7     		b	.L2
  86              	.L12:
  87 003a 00BF     		.align	2
  88              	.L11:
  89 003c 00000000 		.word	.LC0
  90              	.LBE210:
  91              	.LBE209:
  92              		.cfi_endproc
  93              	.LFE273:
  94              		.size	i2c_lld_serve_tx_end_irq, .-i2c_lld_serve_tx_end_irq
  95              		.section	.text.i2c_lld_serve_rx_end_irq,"ax",%progbits
  96              		.align	2
  97              		.p2align 4,,15
  98              		.thumb
  99              		.thumb_func
 100              		.type	i2c_lld_serve_rx_end_irq, %function
 101              	i2c_lld_serve_rx_end_irq:
 102              	.LFB272:
 103              		.loc 1 305 0
 104              		.cfi_startproc
 105              		@ args = 0, pretend = 0, frame = 0
 106              		@ frame_needed = 0, uses_anonymous_args = 0
 107              	.LVL6:
 108              		.loc 1 310 0
 109 0000 11F00C0F 		tst	r1, #12
 110              		.loc 1 305 0
 111 0004 70B5     		push	{r4, r5, r6, lr}
 112              		.cfi_def_cfa_offset 16
 113              		.cfi_offset 4, -16
 114              		.cfi_offset 5, -12
ARM GAS  /var/folders/m4/4md61f0s1_g0rzfghffqnxvr0000gn/T//ccmKZZmz.s 			page 3


 115              		.cfi_offset 6, -8
 116              		.cfi_offset 14, -4
 117              		.loc 1 305 0
 118 0006 0646     		mov	r6, r0
 119              		.loc 1 306 0
 120 0008 456B     		ldr	r5, [r0, #52]
 121              	.LVL7:
 122              		.loc 1 310 0
 123 000a 25D1     		bne	.L21
 124              	.LVL8:
 125              	.L14:
 126              		.loc 1 317 0
 127 000c F26A     		ldr	r2, [r6, #44]
 128 000e 1368     		ldr	r3, [r2]
 129 0010 1968     		ldr	r1, [r3]
 130 0012 21F01F01 		bic	r1, r1, #31
 131 0016 1960     		str	r1, [r3]
 132              	.L15:
 133              		.loc 1 317 0 is_stmt 0 discriminator 2
 134 0018 1968     		ldr	r1, [r3]
 135 001a 11F00104 		ands	r4, r1, #1
 136 001e FBD1     		bne	.L15
 137              		.loc 1 317 0 discriminator 3
 138 0020 117A     		ldrb	r1, [r2, #8]	@ zero_extendqisi2
 139 0022 5268     		ldr	r2, [r2, #4]
 140 0024 3D23     		movs	r3, #61
 141 0026 8B40     		lsls	r3, r3, r1
 142 0028 1360     		str	r3, [r2]
 143              		.loc 1 319 0 is_stmt 1 discriminator 3
 144 002a 6B68     		ldr	r3, [r5, #4]
 145 002c 23F48053 		bic	r3, r3, #4096
 146 0030 6B60     		str	r3, [r5, #4]
 147              		.loc 1 320 0 discriminator 3
 148 0032 2B68     		ldr	r3, [r5]
 149 0034 23F48063 		bic	r3, r3, #1024
 150 0038 2B60     		str	r3, [r5]
 151              		.loc 1 321 0 discriminator 3
 152 003a 2B68     		ldr	r3, [r5]
 153 003c 43F40073 		orr	r3, r3, #512
 154 0040 2B60     		str	r3, [r5]
 155              	.LVL9:
 156              	.LBB211:
 157              	.LBB212:
 158              	.LBB213:
 159              	.LBB214:
 160              	.LBB215:
 161              	.LBB216:
 162              		.file 3 "ChibiOS_16.1.4/os/ext/CMSIS/include/core_cmFunc.h"
 163              		.loc 3 548 0 discriminator 3
 164 0042 2023     		movs	r3, #32
 165              		.syntax unified
 166              	@ 548 "ChibiOS_16.1.4/os/ext/CMSIS/include/core_cmFunc.h" 1
 167 0044 83F31188 		MSR basepri, r3
 168              	@ 0 "" 2
 169              	.LVL10:
 170              		.thumb
 171              		.syntax unified
ARM GAS  /var/folders/m4/4md61f0s1_g0rzfghffqnxvr0000gn/T//ccmKZZmz.s 			page 4


 172              	.LBE216:
 173              	.LBE215:
 174              	.LBE214:
 175              	.LBE213:
 176              	.LBE212:
 177              	.LBE211:
 178              	.LBB217:
 179              	.LBB218:
 180              		.loc 2 728 0 discriminator 3
 181 0048 06F11C00 		add	r0, r6, #28
 182              	.LVL11:
 183 004c 2146     		mov	r1, r4
 184 004e FFF7FEFF 		bl	chThdResumeI
 185              	.LVL12:
 186              	.LBE218:
 187              	.LBE217:
 188              	.LBB219:
 189              	.LBB220:
 190              	.LBB221:
 191              	.LBB222:
 192              	.LBB223:
 193              	.LBB224:
 194              		.loc 3 548 0 discriminator 3
 195              		.syntax unified
 196              	@ 548 "ChibiOS_16.1.4/os/ext/CMSIS/include/core_cmFunc.h" 1
 197 0052 84F31188 		MSR basepri, r4
 198              	@ 0 "" 2
 199              	.LVL13:
 200              		.thumb
 201              		.syntax unified
 202 0056 70BD     		pop	{r4, r5, r6, pc}
 203              	.LVL14:
 204              	.L21:
 205              	.LBE224:
 206              	.LBE223:
 207              	.LBE222:
 208              	.LBE221:
 209              	.LBE220:
 210              	.LBE219:
 211              	.LBB225:
 212              	.LBB226:
 213              		.loc 2 462 0
 214 0058 0148     		ldr	r0, .L22
 215              	.LVL15:
 216 005a FFF7FEFF 		bl	chSysHalt
 217              	.LVL16:
 218 005e D5E7     		b	.L14
 219              	.L23:
 220              		.align	2
 221              	.L22:
 222 0060 00000000 		.word	.LC0
 223              	.LBE226:
 224              	.LBE225:
 225              		.cfi_endproc
 226              	.LFE272:
 227              		.size	i2c_lld_serve_rx_end_irq, .-i2c_lld_serve_rx_end_irq
 228              		.section	.text.VectorBC,"ax",%progbits
ARM GAS  /var/folders/m4/4md61f0s1_g0rzfghffqnxvr0000gn/T//ccmKZZmz.s 			page 5


 229              		.align	2
 230              		.p2align 4,,15
 231              		.global	VectorBC
 232              		.thumb
 233              		.thumb_func
 234              		.type	VectorBC, %function
 235              	VectorBC:
 236              	.LFB275:
 237              		.loc 1 406 0
 238              		.cfi_startproc
 239              		@ args = 0, pretend = 0, frame = 0
 240              		@ frame_needed = 0, uses_anonymous_args = 0
 241              	.LVL17:
 242              	.LBB243:
 243              	.LBB244:
 244              		.loc 1 246 0
 245 0000 3A48     		ldr	r0, .L41
 246              		.loc 1 253 0
 247 0002 3B4A     		ldr	r2, .L41+4
 248              	.LBE244:
 249              	.LBE243:
 250              		.loc 1 406 0
 251 0004 70B5     		push	{r4, r5, r6, lr}
 252              		.cfi_def_cfa_offset 16
 253              		.cfi_offset 4, -16
 254              		.cfi_offset 5, -12
 255              		.cfi_offset 6, -8
 256              		.cfi_offset 14, -4
 257              	.LBB262:
 258              	.LBB259:
 259              		.loc 1 246 0
 260 0006 446B     		ldr	r4, [r0, #52]
 261              	.LVL18:
 262              		.loc 1 247 0
 263 0008 A369     		ldr	r3, [r4, #24]
 264              	.LVL19:
 265              		.loc 1 248 0
 266 000a 6569     		ldr	r5, [r4, #20]
 267              	.LVL20:
 268              		.loc 1 253 0
 269 000c 45EA0343 		orr	r3, r5, r3, lsl #16
 270              	.LVL21:
 271 0010 23F07F43 		bic	r3, r3, #-16777216
 272 0014 9342     		cmp	r3, r2
 273 0016 4CD0     		beq	.L26
 274 0018 1ED8     		bhi	.L27
 275 001a 073A     		subs	r2, r2, #7
 276 001c 9342     		cmp	r3, r2
 277 001e 3CD0     		beq	.L28
 278 0020 0132     		adds	r2, r2, #1
 279 0022 9342     		cmp	r3, r2
 280 0024 10D1     		bne	.L25
 281              		.loc 1 267 0
 282 0026 6268     		ldr	r2, [r4, #4]
 283              		.loc 1 268 0
 284 0028 C36A     		ldr	r3, [r0, #44]
 285              		.loc 1 267 0
ARM GAS  /var/folders/m4/4md61f0s1_g0rzfghffqnxvr0000gn/T//ccmKZZmz.s 			page 6


 286 002a 22F40072 		bic	r2, r2, #512
 287              		.loc 1 268 0
 288 002e 1B68     		ldr	r3, [r3]
 289              		.loc 1 267 0
 290 0030 6260     		str	r2, [r4, #4]
 291              		.loc 1 268 0
 292 0032 1A68     		ldr	r2, [r3]
 293 0034 42F00102 		orr	r2, r2, #1
 294 0038 1A60     		str	r2, [r3]
 295              		.loc 1 269 0
 296 003a 6268     		ldr	r2, [r4, #4]
 297 003c 42F48052 		orr	r2, r2, #4096
 298 0040 6260     		str	r2, [r4, #4]
 299              		.loc 1 270 0
 300 0042 5B68     		ldr	r3, [r3, #4]
 301 0044 012B     		cmp	r3, #1
 302 0046 4BD9     		bls	.L40
 303              	.L25:
 304              		.loc 1 293 0
 305 0048 15F00A0F 		tst	r5, #10
 306              		.loc 1 294 0
 307 004c 18BF     		it	ne
 308 004e A369     		ldrne	r3, [r4, #24]
 309              	.LVL22:
 310              	.LBE259:
 311              	.LBE262:
 312              		.loc 1 413 0
 313 0050 BDE87040 		pop	{r4, r5, r6, lr}
 314              		.cfi_remember_state
 315              		.cfi_restore 14
 316              		.cfi_restore 6
 317              		.cfi_restore 5
 318              		.cfi_restore 4
 319              		.cfi_def_cfa_offset 0
 320              		.loc 1 412 0
 321 0054 FFF7FEBF 		b	_port_irq_epilogue
 322              	.LVL23:
 323              	.L27:
 324              		.cfi_restore_state
 325              	.LBB263:
 326              	.LBB260:
 327              		.loc 1 253 0
 328 0058 264A     		ldr	r2, .L41+8
 329 005a 9342     		cmp	r3, r2
 330 005c 12D0     		beq	.L30
 331 005e 0232     		adds	r2, r2, #2
 332 0060 9342     		cmp	r3, r2
 333 0062 F1D1     		bne	.L25
 334              		.loc 1 279 0
 335 0064 C36A     		ldr	r3, [r0, #44]
 336 0066 1B68     		ldr	r3, [r3]
 337 0068 5E68     		ldr	r6, [r3, #4]
 338 006a 3EB3     		cbz	r6, .L33
 339              		.loc 1 282 0
 340 006c 2368     		ldr	r3, [r4]
 341              		.loc 1 281 0
 342 006e 028C     		ldrh	r2, [r0, #32]
ARM GAS  /var/folders/m4/4md61f0s1_g0rzfghffqnxvr0000gn/T//ccmKZZmz.s 			page 7


 343              		.loc 1 282 0
 344 0070 43F4A063 		orr	r3, r3, #1280
 345              		.loc 1 281 0
 346 0074 42F00102 		orr	r2, r2, #1
 347 0078 0284     		strh	r2, [r0, #32]	@ movhi
 348              		.loc 1 282 0
 349 007a 2360     		str	r3, [r4]
 350              	.LVL24:
 351              	.LBE260:
 352              	.LBE263:
 353              		.loc 1 413 0
 354 007c BDE87040 		pop	{r4, r5, r6, lr}
 355              		.cfi_remember_state
 356              		.cfi_restore 4
 357              		.cfi_restore 5
 358              		.cfi_restore 6
 359              		.cfi_restore 14
 360              		.cfi_def_cfa_offset 0
 361              		.loc 1 412 0
 362 0080 FFF7FEBF 		b	_port_irq_epilogue
 363              	.LVL25:
 364              	.L30:
 365              		.cfi_restore_state
 366              	.LBB264:
 367              	.LBB261:
 368              		.loc 1 274 0
 369 0084 6368     		ldr	r3, [r4, #4]
 370              		.loc 1 275 0
 371 0086 026B     		ldr	r2, [r0, #48]
 372              		.loc 1 274 0
 373 0088 23F40073 		bic	r3, r3, #512
 374              		.loc 1 275 0
 375 008c 1268     		ldr	r2, [r2]
 376              		.loc 1 274 0
 377 008e 6360     		str	r3, [r4, #4]
 378              		.loc 1 275 0
 379 0090 1368     		ldr	r3, [r2]
 380 0092 43F00103 		orr	r3, r3, #1
 381 0096 1360     		str	r3, [r2]
 382 0098 D6E7     		b	.L25
 383              	.L28:
 384              		.loc 1 255 0
 385 009a 038C     		ldrh	r3, [r0, #32]
 386 009c 1A0A     		lsrs	r2, r3, #8
 387 009e 0BD0     		beq	.L39
 388              		.loc 1 257 0
 389 00a0 03F00103 		and	r3, r3, #1
 390 00a4 43F0F003 		orr	r3, r3, #240
 391 00a8 02F00602 		and	r2, r2, #6
 392 00ac 1343     		orrs	r3, r3, r2
 393 00ae 2361     		str	r3, [r4, #16]
 394 00b0 CAE7     		b	.L25
 395              	.L26:
 396              		.loc 1 264 0
 397 00b2 038C     		ldrh	r3, [r0, #32]
 398 00b4 C3F34703 		ubfx	r3, r3, #1, #8
 399              	.L39:
ARM GAS  /var/folders/m4/4md61f0s1_g0rzfghffqnxvr0000gn/T//ccmKZZmz.s 			page 8


 400 00b8 2361     		str	r3, [r4, #16]
 401 00ba C5E7     		b	.L25
 402              	.L33:
 403              		.loc 1 285 0
 404 00bc 6368     		ldr	r3, [r4, #4]
 405 00be 23F40073 		bic	r3, r3, #512
 406 00c2 6360     		str	r3, [r4, #4]
 407              		.loc 1 286 0
 408 00c4 2368     		ldr	r3, [r4]
 409 00c6 43F40073 		orr	r3, r3, #512
 410 00ca 2360     		str	r3, [r4]
 411              	.LVL26:
 412              	.LBB245:
 413              	.LBB246:
 414              	.LBB247:
 415              	.LBB248:
 416              	.LBB249:
 417              	.LBB250:
 418              		.loc 3 548 0
 419 00cc 2023     		movs	r3, #32
 420              		.syntax unified
 421              	@ 548 "ChibiOS_16.1.4/os/ext/CMSIS/include/core_cmFunc.h" 1
 422 00ce 83F31188 		MSR basepri, r3
 423              	@ 0 "" 2
 424              	.LVL27:
 425              		.thumb
 426              		.syntax unified
 427              	.LBE250:
 428              	.LBE249:
 429              	.LBE248:
 430              	.LBE247:
 431              	.LBE246:
 432              	.LBE245:
 433              	.LBB251:
 434              	.LBB252:
 435              		.loc 2 728 0
 436 00d2 1C30     		adds	r0, r0, #28
 437 00d4 3146     		mov	r1, r6
 438 00d6 FFF7FEFF 		bl	chThdResumeI
 439              	.LVL28:
 440              	.LBE252:
 441              	.LBE251:
 442              	.LBB253:
 443              	.LBB254:
 444              	.LBB255:
 445              	.LBB256:
 446              	.LBB257:
 447              	.LBB258:
 448              		.loc 3 548 0
 449              		.syntax unified
 450              	@ 548 "ChibiOS_16.1.4/os/ext/CMSIS/include/core_cmFunc.h" 1
 451 00da 86F31188 		MSR basepri, r6
 452              	@ 0 "" 2
 453              	.LVL29:
 454              		.thumb
 455              		.syntax unified
 456 00de B3E7     		b	.L25
ARM GAS  /var/folders/m4/4md61f0s1_g0rzfghffqnxvr0000gn/T//ccmKZZmz.s 			page 9


 457              	.L40:
 458              	.LBE258:
 459              	.LBE257:
 460              	.LBE256:
 461              	.LBE255:
 462              	.LBE254:
 463              	.LBE253:
 464              		.loc 1 271 0
 465 00e0 2368     		ldr	r3, [r4]
 466 00e2 23F48063 		bic	r3, r3, #1024
 467 00e6 2360     		str	r3, [r4]
 468 00e8 AEE7     		b	.L25
 469              	.L42:
 470 00ea 00BF     		.align	2
 471              	.L41:
 472 00ec 00000000 		.word	.LANCHOR0
 473 00f0 08000300 		.word	196616
 474 00f4 82000700 		.word	458882
 475              	.LBE261:
 476              	.LBE264:
 477              		.cfi_endproc
 478              	.LFE275:
 479              		.size	VectorBC, .-VectorBC
 480              		.section	.text.VectorC0,"ax",%progbits
 481              		.align	2
 482              		.p2align 4,,15
 483              		.global	VectorC0
 484              		.thumb
 485              		.thumb_func
 486              		.type	VectorC0, %function
 487              	VectorC0:
 488              	.LFB276:
 489              		.loc 1 418 0
 490              		.cfi_startproc
 491              		@ args = 0, pretend = 0, frame = 0
 492              		@ frame_needed = 0, uses_anonymous_args = 0
 493              		.loc 1 419 0
 494 0000 3348     		ldr	r0, .L77
 495              		.loc 1 418 0
 496 0002 F8B5     		push	{r3, r4, r5, r6, r7, lr}
 497              		.cfi_def_cfa_offset 24
 498              		.cfi_offset 3, -24
 499              		.cfi_offset 4, -20
 500              		.cfi_offset 5, -16
 501              		.cfi_offset 6, -12
 502              		.cfi_offset 7, -8
 503              		.cfi_offset 14, -4
 504              		.loc 1 419 0
 505 0004 446B     		ldr	r4, [r0, #52]
 506              	.LBB281:
 507              	.LBB282:
 508              		.loc 1 362 0
 509 0006 076B     		ldr	r7, [r0, #48]
 510              	.LBE282:
 511              	.LBE281:
 512              		.loc 1 419 0
 513 0008 6669     		ldr	r6, [r4, #20]
ARM GAS  /var/folders/m4/4md61f0s1_g0rzfghffqnxvr0000gn/T//ccmKZZmz.s 			page 10


 514              	.LBB301:
 515              	.LBB297:
 516              		.loc 1 362 0
 517 000a 3A68     		ldr	r2, [r7]
 518              	.LBE297:
 519              	.LBE301:
 520              		.loc 1 419 0
 521 000c B1B2     		uxth	r1, r6
 522              	.LVL30:
 523              		.loc 1 423 0
 524 000e 01F45F43 		and	r3, r1, #57088
 525 0012 DB43     		mvns	r3, r3
 526 0014 6361     		str	r3, [r4, #20]
 527              	.LVL31:
 528              	.LBB302:
 529              	.LBB298:
 530              		.loc 1 362 0
 531 0016 1368     		ldr	r3, [r2]
 532 0018 23F01F03 		bic	r3, r3, #31
 533 001c 1360     		str	r3, [r2]
 534              	.L44:
 535 001e 1368     		ldr	r3, [r2]
 536 0020 DB07     		lsls	r3, r3, #31
 537 0022 FCD4     		bmi	.L44
 538 0024 3A7A     		ldrb	r2, [r7, #8]	@ zero_extendqisi2
 539              		.loc 1 363 0
 540 0026 C56A     		ldr	r5, [r0, #44]
 541              		.loc 1 362 0
 542 0028 7F68     		ldr	r7, [r7, #4]
 543 002a 3D23     		movs	r3, #61
 544 002c 9340     		lsls	r3, r3, r2
 545              		.loc 1 363 0
 546 002e 2A68     		ldr	r2, [r5]
 547              		.loc 1 362 0
 548 0030 3B60     		str	r3, [r7]
 549              		.loc 1 363 0
 550 0032 1368     		ldr	r3, [r2]
 551 0034 23F01F03 		bic	r3, r3, #31
 552 0038 1360     		str	r3, [r2]
 553              	.L45:
 554 003a 1368     		ldr	r3, [r2]
 555 003c 13F00103 		ands	r3, r3, #1
 556 0040 FBD1     		bne	.L45
 557 0042 2F7A     		ldrb	r7, [r5, #8]	@ zero_extendqisi2
 558 0044 6D68     		ldr	r5, [r5, #4]
 559 0046 3D22     		movs	r2, #61
 560 0048 BA40     		lsls	r2, r2, r7
 561              		.loc 1 367 0
 562 004a CF05     		lsls	r7, r1, #23
 563              		.loc 1 363 0
 564 004c 2A60     		str	r2, [r5]
 565              		.loc 1 368 0
 566 004e 48BF     		it	mi
 567 0050 0123     		movmi	r3, #1
 568              		.loc 1 370 0
 569 0052 8D05     		lsls	r5, r1, #22
 570              		.loc 1 368 0
ARM GAS  /var/folders/m4/4md61f0s1_g0rzfghffqnxvr0000gn/T//ccmKZZmz.s 			page 11


 571 0054 8360     		str	r3, [r0, #8]
 572              		.loc 1 371 0
 573 0056 44BF     		itt	mi
 574 0058 43F00203 		orrmi	r3, r3, #2
 575 005c 8360     		strmi	r3, [r0, #8]
 576              		.loc 1 373 0
 577 005e 4A05     		lsls	r2, r1, #21
 578 0060 0AD5     		bpl	.L49
 579              		.loc 1 374 0
 580 0062 6268     		ldr	r2, [r4, #4]
 581 0064 22F40072 		bic	r2, r2, #512
 582 0068 6260     		str	r2, [r4, #4]
 583              		.loc 1 375 0
 584 006a 2268     		ldr	r2, [r4]
 585              		.loc 1 376 0
 586 006c 43F00403 		orr	r3, r3, #4
 587              		.loc 1 375 0
 588 0070 42F40072 		orr	r2, r2, #512
 589 0074 2260     		str	r2, [r4]
 590              		.loc 1 376 0
 591 0076 8360     		str	r3, [r0, #8]
 592              	.L49:
 593              		.loc 1 379 0
 594 0078 0F05     		lsls	r7, r1, #20
 595              		.loc 1 380 0
 596 007a 44BF     		itt	mi
 597 007c 43F00803 		orrmi	r3, r3, #8
 598 0080 8360     		strmi	r3, [r0, #8]
 599              		.loc 1 382 0
 600 0082 4D04     		lsls	r5, r1, #17
 601              		.loc 1 383 0
 602 0084 44BF     		itt	mi
 603 0086 43F02003 		orrmi	r3, r3, #32
 604 008a 8360     		strmi	r3, [r0, #8]
 605              		.loc 1 385 0
 606 008c CC04     		lsls	r4, r1, #19
 607 008e 13D5     		bpl	.L52
 608              		.loc 1 386 0
 609 0090 43F01003 		orr	r3, r3, #16
 610              		.loc 1 388 0
 611 0094 3104     		lsls	r1, r6, #16
 612              	.LVL32:
 613              		.loc 1 386 0
 614 0096 8360     		str	r3, [r0, #8]
 615              		.loc 1 388 0
 616 0098 16D4     		bmi	.L53
 617              	.L54:
 618              	.LVL33:
 619              	.LBB283:
 620              	.LBB284:
 621              	.LBB285:
 622              	.LBB286:
 623              	.LBB287:
 624              	.LBB288:
 625              		.loc 3 548 0
 626 009a 2023     		movs	r3, #32
 627              		.syntax unified
ARM GAS  /var/folders/m4/4md61f0s1_g0rzfghffqnxvr0000gn/T//ccmKZZmz.s 			page 12


 628              	@ 548 "ChibiOS_16.1.4/os/ext/CMSIS/include/core_cmFunc.h" 1
 629 009c 83F31188 		MSR basepri, r3
 630              	@ 0 "" 2
 631              	.LVL34:
 632              		.thumb
 633              		.syntax unified
 634              	.LBE288:
 635              	.LBE287:
 636              	.LBE286:
 637              	.LBE285:
 638              	.LBE284:
 639              	.LBE283:
 640              	.LBB289:
 641              	.LBB290:
 642              		.loc 2 728 0
 643 00a0 6FF00101 		mvn	r1, #1
 644 00a4 0B48     		ldr	r0, .L77+4
 645 00a6 FFF7FEFF 		bl	chThdResumeI
 646              	.LVL35:
 647              	.LBE290:
 648              	.LBE289:
 649              	.LBB291:
 650              	.LBB292:
 651              	.LBB293:
 652              	.LBB294:
 653              	.LBB295:
 654              	.LBB296:
 655              		.loc 3 548 0
 656 00aa 0023     		movs	r3, #0
 657              		.syntax unified
 658              	@ 548 "ChibiOS_16.1.4/os/ext/CMSIS/include/core_cmFunc.h" 1
 659 00ac 83F31188 		MSR basepri, r3
 660              	@ 0 "" 2
 661              	.LVL36:
 662              		.thumb
 663              		.syntax unified
 664              	.LBE296:
 665              	.LBE295:
 666              	.LBE294:
 667              	.LBE293:
 668              	.LBE292:
 669              	.LBE291:
 670              	.LBE298:
 671              	.LBE302:
 672              		.loc 1 427 0
 673 00b0 BDE8F840 		pop	{r3, r4, r5, r6, r7, lr}
 674              		.cfi_remember_state
 675              		.cfi_restore 14
 676              		.cfi_restore 7
 677              		.cfi_restore 6
 678              		.cfi_restore 5
 679              		.cfi_restore 4
 680              		.cfi_restore 3
 681              		.cfi_def_cfa_offset 0
 682              	.LVL37:
 683              		.loc 1 426 0
 684 00b4 FFF7FEBF 		b	_port_irq_epilogue
ARM GAS  /var/folders/m4/4md61f0s1_g0rzfghffqnxvr0000gn/T//ccmKZZmz.s 			page 13


 685              	.LVL38:
 686              	.L52:
 687              		.cfi_restore_state
 688              	.LBB303:
 689              	.LBB299:
 690              		.loc 1 388 0
 691 00b8 3204     		lsls	r2, r6, #16
 692 00ba 05D4     		bmi	.L53
 693              		.loc 1 392 0
 694 00bc 002B     		cmp	r3, #0
 695 00be ECD1     		bne	.L54
 696              	.LVL39:
 697              	.LBE299:
 698              	.LBE303:
 699              		.loc 1 427 0
 700 00c0 BDE8F840 		pop	{r3, r4, r5, r6, r7, lr}
 701              		.cfi_remember_state
 702              		.cfi_restore 3
 703              		.cfi_restore 4
 704              		.cfi_restore 5
 705              		.cfi_restore 6
 706              		.cfi_restore 7
 707              		.cfi_restore 14
 708              		.cfi_def_cfa_offset 0
 709              		.loc 1 426 0
 710 00c4 FFF7FEBF 		b	_port_irq_epilogue
 711              	.LVL40:
 712              	.L53:
 713              		.cfi_restore_state
 714              	.LBB304:
 715              	.LBB300:
 716              		.loc 1 389 0
 717 00c8 43F04003 		orr	r3, r3, #64
 718 00cc 8360     		str	r3, [r0, #8]
 719 00ce E4E7     		b	.L54
 720              	.L78:
 721              		.align	2
 722              	.L77:
 723 00d0 00000000 		.word	.LANCHOR0
 724 00d4 1C000000 		.word	.LANCHOR0+28
 725              	.LBE300:
 726              	.LBE304:
 727              		.cfi_endproc
 728              	.LFE276:
 729              		.size	VectorC0, .-VectorC0
 730              		.section	.text.i2c_lld_init,"ax",%progbits
 731              		.align	2
 732              		.p2align 4,,15
 733              		.global	i2c_lld_init
 734              		.thumb
 735              		.thumb_func
 736              		.type	i2c_lld_init, %function
 737              	i2c_lld_init:
 738              	.LFB277:
 739              		.loc 1 503 0
 740              		.cfi_startproc
 741              		@ args = 0, pretend = 0, frame = 0
ARM GAS  /var/folders/m4/4md61f0s1_g0rzfghffqnxvr0000gn/T//ccmKZZmz.s 			page 14


 742              		@ frame_needed = 0, uses_anonymous_args = 0
 743 0000 10B5     		push	{r4, lr}
 744              		.cfi_def_cfa_offset 8
 745              		.cfi_offset 4, -8
 746              		.cfi_offset 14, -4
 747              		.loc 1 506 0
 748 0002 074C     		ldr	r4, .L81
 749 0004 2046     		mov	r0, r4
 750 0006 FFF7FEFF 		bl	i2cObjectInit
 751              	.LVL41:
 752              		.loc 1 509 0
 753 000a 064B     		ldr	r3, .L81+4
 754              		.loc 1 508 0
 755 000c 064A     		ldr	r2, .L81+8
 756 000e 6263     		str	r2, [r4, #52]
 757              		.loc 1 507 0
 758 0010 0021     		movs	r1, #0
 759              		.loc 1 510 0
 760 0012 03F14802 		add	r2, r3, #72
 761              		.loc 1 507 0
 762 0016 E161     		str	r1, [r4, #28]
 763              		.loc 1 509 0
 764 0018 E362     		str	r3, [r4, #44]
 765              		.loc 1 510 0
 766 001a 2263     		str	r2, [r4, #48]
 767 001c 10BD     		pop	{r4, pc}
 768              	.L82:
 769 001e 00BF     		.align	2
 770              	.L81:
 771 0020 00000000 		.word	.LANCHOR0
 772 0024 00000000 		.word	_stm32_dma_streams
 773 0028 00540040 		.word	1073763328
 774              		.cfi_endproc
 775              	.LFE277:
 776              		.size	i2c_lld_init, .-i2c_lld_init
 777              		.section	.text.i2c_lld_start,"ax",%progbits
 778              		.align	2
 779              		.p2align 4,,15
 780              		.global	i2c_lld_start
 781              		.thumb
 782              		.thumb_func
 783              		.type	i2c_lld_start, %function
 784              	i2c_lld_start:
 785              	.LFB278:
 786              		.loc 1 537 0
 787              		.cfi_startproc
 788              		@ args = 0, pretend = 0, frame = 0
 789              		@ frame_needed = 0, uses_anonymous_args = 0
 790              	.LVL42:
 791 0000 F8B5     		push	{r3, r4, r5, r6, r7, lr}
 792              		.cfi_def_cfa_offset 24
 793              		.cfi_offset 3, -24
 794              		.cfi_offset 4, -20
 795              		.cfi_offset 5, -16
 796              		.cfi_offset 6, -12
 797              		.cfi_offset 7, -8
 798              		.cfi_offset 14, -4
ARM GAS  /var/folders/m4/4md61f0s1_g0rzfghffqnxvr0000gn/T//ccmKZZmz.s 			page 15


 799              		.loc 1 550 0
 800 0002 0378     		ldrb	r3, [r0]	@ zero_extendqisi2
 801              		.loc 1 538 0
 802 0004 456B     		ldr	r5, [r0, #52]
 803              	.LVL43:
 804              		.loc 1 540 0
 805 0006 40F25642 		movw	r2, #1110
 806 000a 8262     		str	r2, [r0, #40]
 807              		.loc 1 550 0
 808 000c 012B     		cmp	r3, #1
 809              		.loc 1 544 0
 810 000e 40F21642 		movw	r2, #1046
 811              		.loc 1 537 0
 812 0012 0446     		mov	r4, r0
 813              		.loc 1 544 0
 814 0014 4262     		str	r2, [r0, #36]
 815              		.loc 1 550 0
 816 0016 3CD0     		beq	.L98
 817              	.L94:
 818              		.loc 1 538 0
 819 0018 2B46     		mov	r3, r5
 820              	.LVL44:
 821              	.L84:
 822              		.loc 1 632 0
 823 001a E16A     		ldr	r1, [r4, #44]
 824              		.loc 1 633 0
 825 001c 226B     		ldr	r2, [r4, #48]
 826 001e 6068     		ldr	r0, [r4, #4]
 827              	.LVL45:
 828              		.loc 1 632 0
 829 0020 0F68     		ldr	r7, [r1]
 830              		.loc 1 633 0
 831 0022 D2F800E0 		ldr	lr, [r2]
 832              	.LBB310:
 833              	.LBB311:
 834              		.loc 1 146 0
 835 0026 4168     		ldr	r1, [r0, #4]
 836              	.LVL46:
 837              		.loc 1 161 0
 838 0028 494E     		ldr	r6, .L103
 839              	.LBE311:
 840              	.LBE310:
 841              		.loc 1 632 0
 842 002a 05F11002 		add	r2, r5, #16
 843 002e BA60     		str	r2, [r7, #8]
 844              	.LVL47:
 845              		.loc 1 638 0
 846 0030 4FF41064 		mov	r4, #2304
 847              	.LVL48:
 848              		.loc 1 633 0
 849 0034 CEF80820 		str	r2, [lr, #8]
 850              		.loc 1 636 0
 851 0038 4FF40047 		mov	r7, #32768
 852              		.loc 1 637 0
 853 003c 0022     		movs	r2, #0
 854              		.loc 1 636 0
 855 003e 2F60     		str	r7, [r5]
ARM GAS  /var/folders/m4/4md61f0s1_g0rzfghffqnxvr0000gn/T//ccmKZZmz.s 			page 16


 856              		.loc 1 637 0
 857 0040 2A60     		str	r2, [r5]
 858              		.loc 1 638 0
 859 0042 6C60     		str	r4, [r5, #4]
 860              	.LBB314:
 861              	.LBB312:
 862              		.loc 1 154 0
 863 0044 5F68     		ldr	r7, [r3, #4]
 864 0046 4FF6C074 		movw	r4, #65472
 865 004a 3C40     		ands	r4, r4, r7
 866              		.loc 1 147 0
 867 004c 077A     		ldrb	r7, [r0, #8]	@ zero_extendqisi2
 868              	.LVL49:
 869              		.loc 1 154 0
 870 004e 5C60     		str	r4, [r3, #4]
 871              		.loc 1 155 0
 872 0050 5C68     		ldr	r4, [r3, #4]
 873              		.loc 1 161 0
 874 0052 B142     		cmp	r1, r6
 875              		.loc 1 155 0
 876 0054 44F02A04 		orr	r4, r4, #42
 877 0058 5C60     		str	r4, [r3, #4]
 878              	.LVL50:
 879              		.loc 1 161 0
 880 005a 4EDD     		ble	.L99
 881              		.loc 1 177 0
 882 005c 3D4C     		ldr	r4, .L103+4
 883 005e A142     		cmp	r1, r4
 884 0060 07DC     		bgt	.L86
 885              		.loc 1 183 0
 886 0062 022F     		cmp	r7, #2
 887 0064 68D0     		beq	.L100
 888              		.loc 1 189 0
 889 0066 032F     		cmp	r7, #3
 890 0068 59D0     		beq	.L101
 891 006a 48F6FF72 		movw	r2, #36863
 892              	.LVL51:
 893              	.L88:
 894              		.loc 1 202 0
 895 006e 0D21     		movs	r1, #13
 896 0070 1962     		str	r1, [r3, #32]
 897              	.L86:
 898              		.loc 1 207 0
 899 0072 DA61     		str	r2, [r3, #28]
 900              	.LVL52:
 901              	.LBE312:
 902              	.LBE314:
 903              	.LBB315:
 904              	.LBB316:
 905              		.loc 1 223 0
 906 0074 0178     		ldrb	r1, [r0]	@ zero_extendqisi2
 907              		.loc 1 222 0
 908 0076 1A68     		ldr	r2, [r3]
 909              		.loc 1 223 0
 910 0078 0229     		cmp	r1, #2
 911              		.loc 1 222 0
 912 007a 92B2     		uxth	r2, r2
ARM GAS  /var/folders/m4/4md61f0s1_g0rzfghffqnxvr0000gn/T//ccmKZZmz.s 			page 17


 913              	.LVL53:
 914              		.loc 1 223 0
 915 007c 49D0     		beq	.L90
 916 007e 0329     		cmp	r1, #3
 917 0080 44D0     		beq	.L91
 918 0082 0129     		cmp	r1, #1
 919 0084 35D0     		beq	.L102
 920              	.L89:
 921              		.loc 1 235 0
 922 0086 1A60     		str	r2, [r3]
 923              	.LVL54:
 924              	.LBE316:
 925              	.LBE315:
 926              		.loc 1 645 0
 927 0088 2B68     		ldr	r3, [r5]
 928 008a 43F00103 		orr	r3, r3, #1
 929 008e 2B60     		str	r3, [r5]
 930 0090 F8BD     		pop	{r3, r4, r5, r6, r7, pc}
 931              	.LVL55:
 932              	.L98:
 933              		.loc 1 553 0
 934 0092 314B     		ldr	r3, .L103+8
 935 0094 9842     		cmp	r0, r3
 936 0096 BFD1     		bne	.L94
 937              	.LBB319:
 938              		.loc 1 556 0
 939 0098 304E     		ldr	r6, .L103+12
 940              		.loc 1 557 0
 941 009a C06A     		ldr	r0, [r0, #44]
 942              	.LVL56:
 943              		.loc 1 556 0
 944 009c 336A     		ldr	r3, [r6, #32]
 945              		.loc 1 557 0
 946 009e 304A     		ldr	r2, .L103+16
 947              		.loc 1 556 0
 948 00a0 43F40013 		orr	r3, r3, #2097152
 949 00a4 0021     		movs	r1, #0
 950 00a6 3362     		str	r3, [r6, #32]
 951              		.loc 1 557 0
 952 00a8 2346     		mov	r3, r4
 953              		.loc 1 556 0
 954 00aa 3162     		str	r1, [r6, #32]
 955              		.loc 1 557 0
 956 00ac 0421     		movs	r1, #4
 957 00ae FFF7FEFF 		bl	dmaStreamAllocate
 958              	.LVL57:
 959              		.loc 1 562 0
 960 00b2 2C4A     		ldr	r2, .L103+20
 961 00b4 206B     		ldr	r0, [r4, #48]
 962 00b6 2346     		mov	r3, r4
 963 00b8 0421     		movs	r1, #4
 964 00ba FFF7FEFF 		bl	dmaStreamAllocate
 965              	.LVL58:
 966              		.loc 1 567 0
 967 00be 336C     		ldr	r3, [r6, #64]
 968 00c0 43F40013 		orr	r3, r3, #2097152
 969 00c4 3364     		str	r3, [r6, #64]
ARM GAS  /var/folders/m4/4md61f0s1_g0rzfghffqnxvr0000gn/T//ccmKZZmz.s 			page 18


 970              		.loc 1 568 0
 971 00c6 0421     		movs	r1, #4
 972 00c8 1F20     		movs	r0, #31
 973 00ca FFF7FEFF 		bl	nvicEnableVector
 974              	.LVL59:
 975              		.loc 1 569 0
 976 00ce 0421     		movs	r1, #4
 977 00d0 2020     		movs	r0, #32
 978 00d2 FFF7FEFF 		bl	nvicEnableVector
 979              	.LVL60:
 980              		.loc 1 571 0
 981 00d6 616A     		ldr	r1, [r4, #36]
 982              		.loc 1 573 0
 983 00d8 A26A     		ldr	r2, [r4, #40]
 984 00da 636B     		ldr	r3, [r4, #52]
 985              		.loc 1 571 0
 986 00dc 41F00071 		orr	r1, r1, #33554432
 987              		.loc 1 573 0
 988 00e0 42F00072 		orr	r2, r2, #33554432
 989              		.loc 1 571 0
 990 00e4 41F44031 		orr	r1, r1, #196608
 991              		.loc 1 573 0
 992 00e8 42F44032 		orr	r2, r2, #196608
 993              		.loc 1 571 0
 994 00ec 6162     		str	r1, [r4, #36]
 995              		.loc 1 573 0
 996 00ee A262     		str	r2, [r4, #40]
 997 00f0 93E7     		b	.L84
 998              	.LVL61:
 999              	.L102:
 1000              	.LBE319:
 1001              	.LBB320:
 1002              	.LBB317:
 1003              		.loc 1 225 0
 1004 00f2 22F00A02 		bic	r2, r2, #10
 1005              	.LVL62:
 1006 00f6 92B2     		uxth	r2, r2
 1007              	.LVL63:
 1008 00f8 C5E7     		b	.L89
 1009              	.LVL64:
 1010              	.L99:
 1011              	.LBE317:
 1012              	.LBE320:
 1013              	.LBB321:
 1014              	.LBB313:
 1015              		.loc 1 175 0
 1016 00fa 2B24     		movs	r4, #43
 1017 00fc 4900     		lsls	r1, r1, #1
 1018              	.LVL65:
 1019 00fe 1A4A     		ldr	r2, .L103+24
 1020 0100 1C62     		str	r4, [r3, #32]
 1021 0102 B2FBF1F2 		udiv	r2, r2, r1
 1022 0106 C2F30B02 		ubfx	r2, r2, #0, #12
 1023 010a B2E7     		b	.L86
 1024              	.LVL66:
 1025              	.L91:
 1026              	.LBE313:
ARM GAS  /var/folders/m4/4md61f0s1_g0rzfghffqnxvr0000gn/T//ccmKZZmz.s 			page 19


 1027              	.LBE321:
 1028              	.LBB322:
 1029              	.LBB318:
 1030              		.loc 1 232 0
 1031 010c 42F00A02 		orr	r2, r2, #10
 1032              	.LVL67:
 1033 0110 B9E7     		b	.L89
 1034              	.L90:
 1035              	.LVL68:
 1036 0112 22F00802 		bic	r2, r2, #8
 1037              	.LVL69:
 1038 0116 92B2     		uxth	r2, r2
 1039              		.loc 1 229 0
 1040 0118 42F00202 		orr	r2, r2, #2
 1041              	.LVL70:
 1042 011c B3E7     		b	.L89
 1043              	.LVL71:
 1044              	.L101:
 1045 011e 01EB8102 		add	r2, r1, r1, lsl #2
 1046 0122 02EB8201 		add	r1, r2, r2, lsl #2
 1047              	.LVL72:
 1048 0126 104A     		ldr	r2, .L103+24
 1049 0128 B2FBF1F2 		udiv	r2, r2, r1
 1050 012c 6FEA8242 		mvn	r2, r2, lsl #18
 1051 0130 6FEA9242 		mvn	r2, r2, lsr #18
 1052 0134 92B2     		uxth	r2, r2
 1053 0136 9AE7     		b	.L88
 1054              	.LVL73:
 1055              	.L100:
 1056 0138 01EB4102 		add	r2, r1, r1, lsl #1
 1057 013c 0A49     		ldr	r1, .L103+24
 1058              	.LVL74:
 1059 013e B1FBF2F2 		udiv	r2, r1, r2
 1060 0142 6FEA4242 		mvn	r2, r2, lsl #17
 1061 0146 6FEA5242 		mvn	r2, r2, lsr #17
 1062 014a 92B2     		uxth	r2, r2
 1063 014c 8FE7     		b	.L88
 1064              	.L104:
 1065 014e 00BF     		.align	2
 1066              	.L103:
 1067 0150 A0860100 		.word	100000
 1068 0154 801A0600 		.word	400000
 1069 0158 00000000 		.word	.LANCHOR0
 1070 015c 00380240 		.word	1073887232
 1071 0160 00000000 		.word	i2c_lld_serve_rx_end_irq
 1072 0164 00000000 		.word	i2c_lld_serve_tx_end_irq
 1073 0168 80DE8002 		.word	42000000
 1074              	.LBE318:
 1075              	.LBE322:
 1076              		.cfi_endproc
 1077              	.LFE278:
 1078              		.size	i2c_lld_start, .-i2c_lld_start
 1079              		.section	.text.i2c_lld_stop,"ax",%progbits
 1080              		.align	2
 1081              		.p2align 4,,15
 1082              		.global	i2c_lld_stop
 1083              		.thumb
ARM GAS  /var/folders/m4/4md61f0s1_g0rzfghffqnxvr0000gn/T//ccmKZZmz.s 			page 20


 1084              		.thumb_func
 1085              		.type	i2c_lld_stop, %function
 1086              	i2c_lld_stop:
 1087              	.LFB279:
 1088              		.loc 1 655 0
 1089              		.cfi_startproc
 1090              		@ args = 0, pretend = 0, frame = 0
 1091              		@ frame_needed = 0, uses_anonymous_args = 0
 1092              	.LVL75:
 1093              		.loc 1 658 0
 1094 0000 0378     		ldrb	r3, [r0]	@ zero_extendqisi2
 1095 0002 012B     		cmp	r3, #1
 1096 0004 2FD0     		beq	.L114
 1097              	.LVL76:
 1098              	.LBB325:
 1099              	.LBB326:
 1100              		.loc 1 132 0
 1101 0006 016B     		ldr	r1, [r0, #48]
 1102              		.loc 1 123 0
 1103 0008 436B     		ldr	r3, [r0, #52]
 1104              	.LVL77:
 1105              		.loc 1 132 0
 1106 000a 0A68     		ldr	r2, [r1]
 1107              	.LBE326:
 1108              	.LBE325:
 1109              		.loc 1 655 0
 1110 000c 70B5     		push	{r4, r5, r6, lr}
 1111              		.cfi_def_cfa_offset 16
 1112              		.cfi_offset 4, -16
 1113              		.cfi_offset 5, -12
 1114              		.cfi_offset 6, -8
 1115              		.cfi_offset 14, -4
 1116              	.LBB328:
 1117              	.LBB327:
 1118              		.loc 1 127 0
 1119 000e 0024     		movs	r4, #0
 1120              		.loc 1 126 0
 1121 0010 4FF40045 		mov	r5, #32768
 1122 0014 1D60     		str	r5, [r3]
 1123              		.loc 1 127 0
 1124 0016 1C60     		str	r4, [r3]
 1125              		.loc 1 128 0
 1126 0018 5C60     		str	r4, [r3, #4]
 1127              		.loc 1 129 0
 1128 001a 5C61     		str	r4, [r3, #20]
 1129              		.loc 1 132 0
 1130 001c 1368     		ldr	r3, [r2]
 1131              	.LVL78:
 1132 001e 23F01F03 		bic	r3, r3, #31
 1133 0022 1360     		str	r3, [r2]
 1134              	.L108:
 1135 0024 1368     		ldr	r3, [r2]
 1136 0026 DC07     		lsls	r4, r3, #31
 1137 0028 FCD4     		bmi	.L108
 1138 002a 0E7A     		ldrb	r6, [r1, #8]	@ zero_extendqisi2
 1139              		.loc 1 133 0
 1140 002c C56A     		ldr	r5, [r0, #44]
ARM GAS  /var/folders/m4/4md61f0s1_g0rzfghffqnxvr0000gn/T//ccmKZZmz.s 			page 21


 1141              		.loc 1 132 0
 1142 002e 4C68     		ldr	r4, [r1, #4]
 1143              		.loc 1 133 0
 1144 0030 2A68     		ldr	r2, [r5]
 1145              		.loc 1 132 0
 1146 0032 3D23     		movs	r3, #61
 1147 0034 B340     		lsls	r3, r3, r6
 1148 0036 2360     		str	r3, [r4]
 1149              		.loc 1 133 0
 1150 0038 1368     		ldr	r3, [r2]
 1151 003a 23F01F03 		bic	r3, r3, #31
 1152 003e 1360     		str	r3, [r2]
 1153              	.L109:
 1154 0040 1368     		ldr	r3, [r2]
 1155 0042 DB07     		lsls	r3, r3, #31
 1156 0044 FCD4     		bmi	.L109
 1157 0046 0446     		mov	r4, r0
 1158 0048 287A     		ldrb	r0, [r5, #8]	@ zero_extendqisi2
 1159              	.LVL79:
 1160 004a 6A68     		ldr	r2, [r5, #4]
 1161 004c 3D23     		movs	r3, #61
 1162 004e 8340     		lsls	r3, r3, r0
 1163 0050 1360     		str	r3, [r2]
 1164              	.LVL80:
 1165              	.LBE327:
 1166              	.LBE328:
 1167              		.loc 1 662 0
 1168 0052 0846     		mov	r0, r1
 1169 0054 FFF7FEFF 		bl	dmaStreamRelease
 1170              	.LVL81:
 1171              		.loc 1 663 0
 1172 0058 E06A     		ldr	r0, [r4, #44]
 1173 005a FFF7FEFF 		bl	dmaStreamRelease
 1174              	.LVL82:
 1175              		.loc 1 666 0
 1176 005e 084B     		ldr	r3, .L116
 1177 0060 9C42     		cmp	r4, r3
 1178 0062 01D0     		beq	.L115
 1179              	.L105:
 1180 0064 70BD     		pop	{r4, r5, r6, pc}
 1181              	.LVL83:
 1182              	.L114:
 1183              		.cfi_def_cfa_offset 0
 1184              		.cfi_restore 4
 1185              		.cfi_restore 5
 1186              		.cfi_restore 6
 1187              		.cfi_restore 14
 1188 0066 7047     		bx	lr
 1189              	.LVL84:
 1190              	.L115:
 1191              		.cfi_def_cfa_offset 16
 1192              		.cfi_offset 4, -16
 1193              		.cfi_offset 5, -12
 1194              		.cfi_offset 6, -8
 1195              		.cfi_offset 14, -4
 1196              		.loc 1 667 0
 1197 0068 1F20     		movs	r0, #31
ARM GAS  /var/folders/m4/4md61f0s1_g0rzfghffqnxvr0000gn/T//ccmKZZmz.s 			page 22


 1198 006a FFF7FEFF 		bl	nvicDisableVector
 1199              	.LVL85:
 1200              		.loc 1 668 0
 1201 006e 2020     		movs	r0, #32
 1202 0070 FFF7FEFF 		bl	nvicDisableVector
 1203              	.LVL86:
 1204              		.loc 1 669 0
 1205 0074 034A     		ldr	r2, .L116+4
 1206 0076 136C     		ldr	r3, [r2, #64]
 1207 0078 23F40013 		bic	r3, r3, #2097152
 1208 007c 1364     		str	r3, [r2, #64]
 1209              		.loc 1 689 0
 1210 007e F1E7     		b	.L105
 1211              	.L117:
 1212              		.align	2
 1213              	.L116:
 1214 0080 00000000 		.word	.LANCHOR0
 1215 0084 00380240 		.word	1073887232
 1216              		.cfi_endproc
 1217              	.LFE279:
 1218              		.size	i2c_lld_stop, .-i2c_lld_stop
 1219              		.section	.text.i2c_lld_master_receive_timeout,"ax",%progbits
 1220              		.align	2
 1221              		.p2align 4,,15
 1222              		.global	i2c_lld_master_receive_timeout
 1223              		.thumb
 1224              		.thumb_func
 1225              		.type	i2c_lld_master_receive_timeout, %function
 1226              	i2c_lld_master_receive_timeout:
 1227              	.LFB280:
 1228              		.loc 1 716 0
 1229              		.cfi_startproc
 1230              		@ args = 4, pretend = 0, frame = 0
 1231              		@ frame_needed = 0, uses_anonymous_args = 0
 1232              	.LVL87:
 1233              		.loc 1 728 0
 1234 0000 4900     		lsls	r1, r1, #1
 1235              	.LVL88:
 1236              		.loc 1 716 0
 1237 0002 F0B5     		push	{r4, r5, r6, r7, lr}
 1238              		.cfi_def_cfa_offset 20
 1239              		.cfi_offset 4, -20
 1240              		.cfi_offset 5, -16
 1241              		.cfi_offset 6, -12
 1242              		.cfi_offset 7, -8
 1243              		.cfi_offset 14, -4
 1244              		.loc 1 728 0
 1245 0004 41F00101 		orr	r1, r1, #1
 1246              		.loc 1 725 0
 1247 0008 0025     		movs	r5, #0
 1248              		.loc 1 728 0
 1249 000a 0184     		strh	r1, [r0, #32]	@ movhi
 1250              		.loc 1 717 0
 1251 000c 446B     		ldr	r4, [r0, #52]
 1252              	.LVL89:
 1253              		.loc 1 725 0
 1254 000e 8560     		str	r5, [r0, #8]
ARM GAS  /var/folders/m4/4md61f0s1_g0rzfghffqnxvr0000gn/T//ccmKZZmz.s 			page 23


 1255              		.loc 1 716 0
 1256 0010 DDF814E0 		ldr	lr, [sp, #20]
 1257              	.LBB329:
 1258              	.LBB330:
 1259              	.LBB331:
 1260              	.LBB332:
 1261              	.LBB333:
 1262              	.LBB334:
 1263              		.loc 3 548 0
 1264              		.syntax unified
 1265              	@ 548 "ChibiOS_16.1.4/os/ext/CMSIS/include/core_cmFunc.h" 1
 1266 0014 85F31188 		MSR basepri, r5
 1267              	@ 0 "" 2
 1268              	.LVL90:
 1269              		.thumb
 1270              		.syntax unified
 1271              	.LBE334:
 1272              	.LBE333:
 1273              	.LBE332:
 1274              	.LBE331:
 1275              	.LBE330:
 1276              	.LBE329:
 1277              		.loc 1 734 0
 1278 0018 C66A     		ldr	r6, [r0, #44]
 1279 001a 416A     		ldr	r1, [r0, #36]
 1280 001c 3768     		ldr	r7, [r6]
 1281              	.LBB335:
 1282              	.LBB336:
 1283              	.LBB337:
 1284              		.file 4 "ChibiOS_16.1.4/os/rt/include/chvt.h"
 1285              		.loc 4 231 0
 1286 001e 144E     		ldr	r6, .L125
 1287              	.LBE337:
 1288              	.LBE336:
 1289              	.LBE335:
 1290              		.loc 1 734 0
 1291 0020 3960     		str	r1, [r7]
 1292              		.loc 1 735 0
 1293 0022 FA60     		str	r2, [r7, #12]
 1294              		.loc 1 736 0
 1295 0024 7B60     		str	r3, [r7, #4]
 1296              	.LBB340:
 1297              	.LBB341:
 1298              	.LBB342:
 1299              	.LBB343:
 1300              	.LBB344:
 1301              	.LBB345:
 1302              		.loc 3 548 0
 1303 0026 2A46     		mov	r2, r5
 1304              	.LVL91:
 1305              	.LBE345:
 1306              	.LBE344:
 1307              	.LBE343:
 1308              	.LBE342:
 1309              	.LBE341:
 1310              	.LBE340:
 1311              	.LBB351:
ARM GAS  /var/folders/m4/4md61f0s1_g0rzfghffqnxvr0000gn/T//ccmKZZmz.s 			page 24


 1312              	.LBB339:
 1313              	.LBB338:
 1314              		.loc 4 231 0
 1315 0028 B76A     		ldr	r7, [r6, #40]
 1316              	.LVL92:
 1317              	.LBE338:
 1318              	.LBE339:
 1319              	.LBE351:
 1320              	.LBB352:
 1321              	.LBB353:
 1322              	.LBB354:
 1323              	.LBB355:
 1324              	.LBB356:
 1325              		.loc 3 548 0
 1326 002a 2025     		movs	r5, #32
 1327 002c 01E0     		b	.L122
 1328              	.LVL93:
 1329              	.L124:
 1330              	.LBE356:
 1331              	.LBE355:
 1332              	.LBE354:
 1333              	.LBE353:
 1334              	.LBE352:
 1335              	.LBB361:
 1336              	.LBB350:
 1337              	.LBB349:
 1338              	.LBB348:
 1339              	.LBB347:
 1340              	.LBB346:
 1341              		.syntax unified
 1342              	@ 548 "ChibiOS_16.1.4/os/ext/CMSIS/include/core_cmFunc.h" 1
 1343 002e 82F31188 		MSR basepri, r2
 1344              	@ 0 "" 2
 1345              	.LVL94:
 1346              		.thumb
 1347              		.syntax unified
 1348              	.L122:
 1349              	.LBE346:
 1350              	.LBE347:
 1351              	.LBE348:
 1352              	.LBE349:
 1353              	.LBE350:
 1354              	.LBE361:
 1355              	.LBB362:
 1356              	.LBB360:
 1357              	.LBB359:
 1358              	.LBB358:
 1359              	.LBB357:
 1360              		.syntax unified
 1361              	@ 548 "ChibiOS_16.1.4/os/ext/CMSIS/include/core_cmFunc.h" 1
 1362 0032 85F31188 		MSR basepri, r5
 1363              	@ 0 "" 2
 1364              	.LVL95:
 1365              		.thumb
 1366              		.syntax unified
 1367              	.LBE357:
 1368              	.LBE358:
ARM GAS  /var/folders/m4/4md61f0s1_g0rzfghffqnxvr0000gn/T//ccmKZZmz.s 			page 25


 1369              	.LBE359:
 1370              	.LBE360:
 1371              	.LBE362:
 1372              		.loc 1 749 0
 1373 0036 A369     		ldr	r3, [r4, #24]
 1374 0038 9907     		lsls	r1, r3, #30
 1375 003a 02D4     		bmi	.L119
 1376              		.loc 1 749 0 is_stmt 0 discriminator 1
 1377 003c 2368     		ldr	r3, [r4]
 1378 003e 9B05     		lsls	r3, r3, #22
 1379 0040 07D5     		bpl	.L120
 1380              	.L119:
 1381              	.LBB363:
 1382              	.LBB364:
 1383              	.LBB365:
 1384              		.loc 4 231 0 is_stmt 1
 1385 0042 B36A     		ldr	r3, [r6, #40]
 1386              	.LBE365:
 1387              	.LBE364:
 1388              	.LBE363:
 1389              		.loc 1 754 0
 1390 0044 DB1B     		subs	r3, r3, r7
 1391 0046 B3F5FA7F 		cmp	r3, #500
 1392 004a F0D3     		bcc	.L124
 1393              		.loc 1 766 0
 1394 004c 4FF0FF30 		mov	r0, #-1
 1395              	.LVL96:
 1396 0050 F0BD     		pop	{r4, r5, r6, r7, pc}
 1397              	.LVL97:
 1398              	.L120:
 1399              		.loc 1 761 0
 1400 0052 6368     		ldr	r3, [r4, #4]
 1401 0054 43F40073 		orr	r3, r3, #512
 1402 0058 6360     		str	r3, [r4, #4]
 1403              	.LVL98:
 1404              		.loc 1 762 0
 1405 005a 2368     		ldr	r3, [r4]
 1406 005c 43F4A063 		orr	r3, r3, #1280
 1407              	.LBB366:
 1408              	.LBB367:
 1409              		.loc 2 713 0
 1410 0060 7146     		mov	r1, lr
 1411              	.LBE367:
 1412              	.LBE366:
 1413              		.loc 1 762 0
 1414 0062 2360     		str	r3, [r4]
 1415              	.LVL99:
 1416              	.LBB370:
 1417              	.LBB368:
 1418              		.loc 2 713 0
 1419 0064 1C30     		adds	r0, r0, #28
 1420              	.LVL100:
 1421              	.LBE368:
 1422              	.LBE370:
 1423              		.loc 1 766 0
 1424 0066 BDE8F040 		pop	{r4, r5, r6, r7, lr}
 1425              		.cfi_restore 14
ARM GAS  /var/folders/m4/4md61f0s1_g0rzfghffqnxvr0000gn/T//ccmKZZmz.s 			page 26


 1426              		.cfi_restore 7
 1427              		.cfi_restore 6
 1428              		.cfi_restore 5
 1429              		.cfi_restore 4
 1430              		.cfi_def_cfa_offset 0
 1431              	.LVL101:
 1432              	.LBB371:
 1433              	.LBB369:
 1434              		.loc 2 713 0
 1435 006a FFF7FEBF 		b	chThdSuspendTimeoutS
 1436              	.LVL102:
 1437              	.L126:
 1438 006e 00BF     		.align	2
 1439              	.L125:
 1440 0070 00000000 		.word	ch
 1441              	.LBE369:
 1442              	.LBE371:
 1443              		.cfi_endproc
 1444              	.LFE280:
 1445              		.size	i2c_lld_master_receive_timeout, .-i2c_lld_master_receive_timeout
 1446              		.section	.text.i2c_lld_master_transmit_timeout,"ax",%progbits
 1447              		.align	2
 1448              		.p2align 4,,15
 1449              		.global	i2c_lld_master_transmit_timeout
 1450              		.thumb
 1451              		.thumb_func
 1452              		.type	i2c_lld_master_transmit_timeout, %function
 1453              	i2c_lld_master_transmit_timeout:
 1454              	.LFB281:
 1455              		.loc 1 796 0
 1456              		.cfi_startproc
 1457              		@ args = 12, pretend = 0, frame = 0
 1458              		@ frame_needed = 0, uses_anonymous_args = 0
 1459              	.LVL103:
 1460 0000 2DE9F043 		push	{r4, r5, r6, r7, r8, r9, lr}
 1461              		.cfi_def_cfa_offset 28
 1462              		.cfi_offset 4, -28
 1463              		.cfi_offset 5, -24
 1464              		.cfi_offset 6, -20
 1465              		.cfi_offset 7, -16
 1466              		.cfi_offset 8, -12
 1467              		.cfi_offset 9, -8
 1468              		.cfi_offset 14, -4
 1469              		.loc 1 808 0
 1470 0004 4900     		lsls	r1, r1, #1
 1471              	.LVL104:
 1472              		.loc 1 805 0
 1473 0006 0025     		movs	r5, #0
 1474              		.loc 1 796 0
 1475 0008 1646     		mov	r6, r2
 1476 000a 07AA     		add	r2, sp, #28
 1477              	.LVL105:
 1478              		.loc 1 808 0
 1479 000c 0184     		strh	r1, [r0, #32]	@ movhi
 1480              		.loc 1 796 0
 1481 000e 9C46     		mov	ip, r3
 1482              		.loc 1 797 0
ARM GAS  /var/folders/m4/4md61f0s1_g0rzfghffqnxvr0000gn/T//ccmKZZmz.s 			page 27


 1483 0010 446B     		ldr	r4, [r0, #52]
 1484              	.LVL106:
 1485              		.loc 1 805 0
 1486 0012 8560     		str	r5, [r0, #8]
 1487              		.loc 1 796 0
 1488 0014 92E80441 		ldmia	r2, {r2, r8, lr}
 1489              	.LVL107:
 1490              	.LBB372:
 1491              	.LBB373:
 1492              	.LBB374:
 1493              	.LBB375:
 1494              	.LBB376:
 1495              	.LBB377:
 1496              		.loc 3 548 0
 1497              		.syntax unified
 1498              	@ 548 "ChibiOS_16.1.4/os/ext/CMSIS/include/core_cmFunc.h" 1
 1499 0018 85F31188 		MSR basepri, r5
 1500              	@ 0 "" 2
 1501              	.LVL108:
 1502              		.thumb
 1503              		.syntax unified
 1504              	.LBE377:
 1505              	.LBE376:
 1506              	.LBE375:
 1507              	.LBE374:
 1508              	.LBE373:
 1509              	.LBE372:
 1510              		.loc 1 814 0
 1511 001c 016B     		ldr	r1, [r0, #48]
 1512              		.loc 1 819 0
 1513 001e C76A     		ldr	r7, [r0, #44]
 1514              		.loc 1 814 0
 1515 0020 0968     		ldr	r1, [r1]
 1516              		.loc 1 819 0
 1517 0022 3F68     		ldr	r7, [r7]
 1518              		.loc 1 814 0
 1519 0024 836A     		ldr	r3, [r0, #40]
 1520              	.LVL109:
 1521 0026 0B60     		str	r3, [r1]
 1522              		.loc 1 819 0
 1523 0028 D0F82490 		ldr	r9, [r0, #36]
 1524              		.loc 1 815 0
 1525 002c CE60     		str	r6, [r1, #12]
 1526              	.LBB378:
 1527              	.LBB379:
 1528              	.LBB380:
 1529              		.loc 4 231 0
 1530 002e 164E     		ldr	r6, .L134
 1531              	.LVL110:
 1532              	.LBE380:
 1533              	.LBE379:
 1534              	.LBE378:
 1535              		.loc 1 816 0
 1536 0030 C1F804C0 		str	ip, [r1, #4]
 1537              	.LVL111:
 1538              		.loc 1 819 0
 1539 0034 C7F80090 		str	r9, [r7]
ARM GAS  /var/folders/m4/4md61f0s1_g0rzfghffqnxvr0000gn/T//ccmKZZmz.s 			page 28


 1540              		.loc 1 820 0
 1541 0038 FA60     		str	r2, [r7, #12]
 1542              		.loc 1 821 0
 1543 003a C7F80480 		str	r8, [r7, #4]
 1544              	.LBB383:
 1545              	.LBB384:
 1546              	.LBB385:
 1547              	.LBB386:
 1548              	.LBB387:
 1549              	.LBB388:
 1550              		.loc 3 548 0
 1551 003e 2A46     		mov	r2, r5
 1552              	.LBE388:
 1553              	.LBE387:
 1554              	.LBE386:
 1555              	.LBE385:
 1556              	.LBE384:
 1557              	.LBE383:
 1558              	.LBB394:
 1559              	.LBB382:
 1560              	.LBB381:
 1561              		.loc 4 231 0
 1562 0040 B76A     		ldr	r7, [r6, #40]
 1563              	.LVL112:
 1564              	.LBE381:
 1565              	.LBE382:
 1566              	.LBE394:
 1567              	.LBB395:
 1568              	.LBB396:
 1569              	.LBB397:
 1570              	.LBB398:
 1571              	.LBB399:
 1572              		.loc 3 548 0
 1573 0042 2025     		movs	r5, #32
 1574 0044 01E0     		b	.L131
 1575              	.LVL113:
 1576              	.L133:
 1577              	.LBE399:
 1578              	.LBE398:
 1579              	.LBE397:
 1580              	.LBE396:
 1581              	.LBE395:
 1582              	.LBB404:
 1583              	.LBB393:
 1584              	.LBB392:
 1585              	.LBB391:
 1586              	.LBB390:
 1587              	.LBB389:
 1588              		.syntax unified
 1589              	@ 548 "ChibiOS_16.1.4/os/ext/CMSIS/include/core_cmFunc.h" 1
 1590 0046 82F31188 		MSR basepri, r2
 1591              	@ 0 "" 2
 1592              	.LVL114:
 1593              		.thumb
 1594              		.syntax unified
 1595              	.L131:
 1596              	.LBE389:
ARM GAS  /var/folders/m4/4md61f0s1_g0rzfghffqnxvr0000gn/T//ccmKZZmz.s 			page 29


 1597              	.LBE390:
 1598              	.LBE391:
 1599              	.LBE392:
 1600              	.LBE393:
 1601              	.LBE404:
 1602              	.LBB405:
 1603              	.LBB403:
 1604              	.LBB402:
 1605              	.LBB401:
 1606              	.LBB400:
 1607              		.syntax unified
 1608              	@ 548 "ChibiOS_16.1.4/os/ext/CMSIS/include/core_cmFunc.h" 1
 1609 004a 85F31188 		MSR basepri, r5
 1610              	@ 0 "" 2
 1611              	.LVL115:
 1612              		.thumb
 1613              		.syntax unified
 1614              	.LBE400:
 1615              	.LBE401:
 1616              	.LBE402:
 1617              	.LBE403:
 1618              	.LBE405:
 1619              		.loc 1 834 0
 1620 004e A369     		ldr	r3, [r4, #24]
 1621 0050 9907     		lsls	r1, r3, #30
 1622 0052 02D4     		bmi	.L128
 1623              		.loc 1 834 0 is_stmt 0 discriminator 1
 1624 0054 2368     		ldr	r3, [r4]
 1625 0056 9B05     		lsls	r3, r3, #22
 1626 0058 08D5     		bpl	.L129
 1627              	.L128:
 1628              	.LBB406:
 1629              	.LBB407:
 1630              	.LBB408:
 1631              		.loc 4 231 0 is_stmt 1
 1632 005a B36A     		ldr	r3, [r6, #40]
 1633              	.LBE408:
 1634              	.LBE407:
 1635              	.LBE406:
 1636              		.loc 1 839 0
 1637 005c DB1B     		subs	r3, r3, r7
 1638 005e B3F5FA7F 		cmp	r3, #500
 1639 0062 F0D3     		bcc	.L133
 1640              		.loc 1 851 0
 1641 0064 4FF0FF30 		mov	r0, #-1
 1642              	.LVL116:
 1643 0068 BDE8F083 		pop	{r4, r5, r6, r7, r8, r9, pc}
 1644              	.LVL117:
 1645              	.L129:
 1646              		.loc 1 846 0
 1647 006c 6368     		ldr	r3, [r4, #4]
 1648 006e 43F40073 		orr	r3, r3, #512
 1649 0072 6360     		str	r3, [r4, #4]
 1650              		.loc 1 847 0
 1651 0074 2368     		ldr	r3, [r4]
 1652 0076 43F48073 		orr	r3, r3, #256
 1653              	.LBB409:
ARM GAS  /var/folders/m4/4md61f0s1_g0rzfghffqnxvr0000gn/T//ccmKZZmz.s 			page 30


 1654              	.LBB410:
 1655              		.loc 2 713 0
 1656 007a 7146     		mov	r1, lr
 1657              	.LBE410:
 1658              	.LBE409:
 1659              		.loc 1 847 0
 1660 007c 2360     		str	r3, [r4]
 1661              	.LVL118:
 1662              	.LBB413:
 1663              	.LBB411:
 1664              		.loc 2 713 0
 1665 007e 1C30     		adds	r0, r0, #28
 1666              	.LVL119:
 1667              	.LBE411:
 1668              	.LBE413:
 1669              		.loc 1 851 0
 1670 0080 BDE8F043 		pop	{r4, r5, r6, r7, r8, r9, lr}
 1671              		.cfi_restore 14
 1672              		.cfi_restore 9
 1673              		.cfi_restore 8
 1674              		.cfi_restore 7
 1675              		.cfi_restore 6
 1676              		.cfi_restore 5
 1677              		.cfi_restore 4
 1678              		.cfi_def_cfa_offset 0
 1679              	.LVL120:
 1680              	.LBB414:
 1681              	.LBB412:
 1682              		.loc 2 713 0
 1683 0084 FFF7FEBF 		b	chThdSuspendTimeoutS
 1684              	.LVL121:
 1685              	.L135:
 1686              		.align	2
 1687              	.L134:
 1688 0088 00000000 		.word	ch
 1689              	.LBE412:
 1690              	.LBE414:
 1691              		.cfi_endproc
 1692              	.LFE281:
 1693              		.size	i2c_lld_master_transmit_timeout, .-i2c_lld_master_transmit_timeout
 1694              		.global	I2CD1
 1695              		.section	.rodata.str1.4,"aMS",%progbits,1
 1696              		.align	2
 1697              	.LC0:
 1698 0000 444D4120 		.ascii	"DMA failure\000"
 1698      6661696C 
 1698      75726500 
 1699              		.section	.bss.I2CD1,"aw",%nobits
 1700              		.align	2
 1701              		.set	.LANCHOR0,. + 0
 1702              		.type	I2CD1, %object
 1703              		.size	I2CD1, 56
 1704              	I2CD1:
 1705 0000 00000000 		.space	56
 1705      00000000 
 1705      00000000 
 1705      00000000 
ARM GAS  /var/folders/m4/4md61f0s1_g0rzfghffqnxvr0000gn/T//ccmKZZmz.s 			page 31


 1705      00000000 
 1706              		.text
 1707              	.Letext0:
 1708              		.file 5 "/opt/homebrew-cask/Caskroom/gcc-arm-embedded/5_2-2015q4,20151219/gcc-arm-none-eabi-5_2-20
 1709              		.file 6 "/opt/homebrew-cask/Caskroom/gcc-arm-embedded/5_2-2015q4,20151219/gcc-arm-none-eabi-5_2-20
 1710              		.file 7 "/opt/homebrew-cask/Caskroom/gcc-arm-embedded/5_2-2015q4,20151219/gcc-arm-none-eabi-5_2-20
 1711              		.file 8 "ChibiOS_16.1.4/os/rt/ports/ARMCMx/compilers/GCC/chtypes.h"
 1712              		.file 9 "ChibiOS_16.1.4/os/rt/include/chsystypes.h"
 1713              		.file 10 "ChibiOS_16.1.4/os/rt/include/chschd.h"
 1714              		.file 11 "ChibiOS_16.1.4/os/ext/CMSIS/ST/STM32F4xx/stm32f405xx.h"
 1715              		.file 12 "ChibiOS_16.1.4/os/rt/ports/ARMCMx/chcore.h"
 1716              		.file 13 "ChibiOS_16.1.4/os/rt/ports/ARMCMx/chcore_v7m.h"
 1717              		.file 14 "ChibiOS_16.1.4/os/rt/include/chtm.h"
 1718              		.file 15 "ChibiOS_16.1.4/os/rt/include/chsem.h"
 1719              		.file 16 "ChibiOS_16.1.4/os/rt/include/chmtx.h"
 1720              		.file 17 "ChibiOS_16.1.4/os/hal/ports/STM32/LLD/DMAv2/stm32_dma.h"
 1721              		.file 18 "ChibiOS_16.1.4/os/hal/include/i2c.h"
 1722              		.file 19 "ChibiOS_16.1.4/os/hal/ports/STM32/LLD/I2Cv1/i2c_lld.h"
 1723              		.file 20 "ChibiOS_16.1.4/os/rt/include/chsys.h"
 1724              		.file 21 "ChibiOS_16.1.4/os/ext/CMSIS/include/core_cm4.h"
 1725              		.file 22 "ChibiOS_16.1.4/os/rt/include/chthreads.h"
 1726              		.file 23 "ChibiOS_16.1.4/os/hal/ports/common/ARMCMx/nvic.h"