ARM GAS  /var/folders/m4/4md61f0s1_g0rzfghffqnxvr0000gn/T//ccz2PPgk.s 			page 1


   1              		.syntax unified
   2              		.cpu cortex-m4
   3              		.eabi_attribute 27, 1
   4              		.eabi_attribute 28, 1
   5              		.fpu fpv4-sp-d16
   6              		.eabi_attribute 20, 1
   7              		.eabi_attribute 21, 1
   8              		.eabi_attribute 23, 3
   9              		.eabi_attribute 24, 1
  10              		.eabi_attribute 25, 1
  11              		.eabi_attribute 26, 1
  12              		.eabi_attribute 30, 2
  13              		.eabi_attribute 34, 1
  14              		.eabi_attribute 18, 4
  15              		.thumb
  16              		.syntax unified
  17              		.file	"main.c"
  18              		.text
  19              	.Ltext0:
  20              		.cfi_sections	.debug_frame
  21              		.section	.text.led_update,"ax",%progbits
  22              		.align	2
  23              		.p2align 4,,15
  24              		.thumb
  25              		.thumb_func
  26              		.type	led_update, %function
  27              	led_update:
  28              	.LFB268:
  29              		.file 1 "main.c"
  30              		.loc 1 15 0
  31              		.cfi_startproc
  32              		@ Volatile: function does not return.
  33              		@ args = 0, pretend = 0, frame = 0
  34              		@ frame_needed = 0, uses_anonymous_args = 0
  35              	.LVL0:
  36 0000 08B5     		push	{r3, lr}
  37              		.cfi_def_cfa_offset 8
  38              		.cfi_offset 3, -8
  39              		.cfi_offset 14, -4
  40              	.LBB4:
  41              	.LBB5:
  42              		.file 2 "ChibiOS_16.1.4/os/rt/include/chregistry.h"
  43              		.loc 2 135 0
  44 0002 094B     		ldr	r3, .L5
  45 0004 094A     		ldr	r2, .L5+4
  46 0006 9B69     		ldr	r3, [r3, #24]
  47 0008 9A61     		str	r2, [r3, #24]
  48              	.LVL1:
  49              	.L2:
  50              	.LBE5:
  51              	.LBE4:
  52              		.loc 1 21 0 discriminator 1
  53 000a FF20     		movs	r0, #255
  54 000c FFF7FEFF 		bl	ws2812b_set_all
  55              	.LVL2:
  56              		.loc 1 22 0 discriminator 1
  57 0010 41F28830 		movw	r0, #5000
ARM GAS  /var/folders/m4/4md61f0s1_g0rzfghffqnxvr0000gn/T//ccz2PPgk.s 			page 2


  58 0014 FFF7FEFF 		bl	chThdSleep
  59              	.LVL3:
  60              		.loc 1 23 0 discriminator 1
  61 0018 0020     		movs	r0, #0
  62 001a FFF7FEFF 		bl	ws2812b_set_all
  63              	.LVL4:
  64              		.loc 1 24 0 discriminator 1
  65 001e 41F28830 		movw	r0, #5000
  66 0022 FFF7FEFF 		bl	chThdSleep
  67              	.LVL5:
  68 0026 F0E7     		b	.L2
  69              	.L6:
  70              		.align	2
  71              	.L5:
  72 0028 00000000 		.word	ch
  73 002c 00000000 		.word	.LC0
  74              		.cfi_endproc
  75              	.LFE268:
  76              		.size	led_update, .-led_update
  77              		.section	.text.startup.main,"ax",%progbits
  78              		.align	2
  79              		.p2align 4,,15
  80              		.global	main
  81              		.thumb
  82              		.thumb_func
  83              		.type	main, %function
  84              	main:
  85              	.LFB269:
  86              		.loc 1 29 0
  87              		.cfi_startproc
  88              		@ Volatile: function does not return.
  89              		@ args = 0, pretend = 0, frame = 0
  90              		@ frame_needed = 0, uses_anonymous_args = 0
  91 0000 00B5     		push	{lr}
  92              		.cfi_def_cfa_offset 4
  93              		.cfi_offset 14, -4
  94 0002 83B0     		sub	sp, sp, #12
  95              		.cfi_def_cfa_offset 16
  96              		.loc 1 30 0
  97 0004 FFF7FEFF 		bl	halInit
  98              	.LVL6:
  99              		.loc 1 31 0
 100 0008 FFF7FEFF 		bl	chSysInit
 101              	.LVL7:
 102              		.loc 1 33 0
 103 000c 0121     		movs	r1, #1
 104 000e 0846     		mov	r0, r1
 105 0010 FFF7FEFF 		bl	RCC_AHB1PeriphClockCmd
 106              	.LVL8:
 107              		.loc 1 34 0
 108 0014 0121     		movs	r1, #1
 109 0016 0220     		movs	r0, #2
 110 0018 FFF7FEFF 		bl	RCC_AHB1PeriphClockCmd
 111              	.LVL9:
 112              		.loc 1 35 0
 113 001c 0121     		movs	r1, #1
 114 001e 0420     		movs	r0, #4
ARM GAS  /var/folders/m4/4md61f0s1_g0rzfghffqnxvr0000gn/T//ccz2PPgk.s 			page 3


 115 0020 FFF7FEFF 		bl	RCC_AHB1PeriphClockCmd
 116              	.LVL10:
 117              		.loc 1 37 0
 118 0024 FFF7FEFF 		bl	comm_init
 119              	.LVL11:
 120              		.loc 1 38 0
 121 0028 FFF7FEFF 		bl	ws2812b_init
 122              	.LVL12:
 123              		.loc 1 39 0
 124 002c FFF7FEFF 		bl	encoder_init
 125              	.LVL13:
 126              		.loc 1 40 0
 127 0030 FFF7FEFF 		bl	controller_init
 128              	.LVL14:
 129              		.loc 1 41 0
 130 0034 FFF7FEFF 		bl	comm_usb_serial_init
 131              	.LVL15:
 132              		.loc 1 43 0
 133 0038 0023     		movs	r3, #0
 134 003a 0093     		str	r3, [sp]
 135 003c 0648     		ldr	r0, .L10
 136 003e 074B     		ldr	r3, .L10+4
 137 0040 4022     		movs	r2, #64
 138 0042 4FF4B361 		mov	r1, #1432
 139 0046 FFF7FEFF 		bl	chThdCreateStatic
 140              	.LVL16:
 141              	.L8:
 142              		.loc 1 46 0 discriminator 1
 143 004a FFF7FEFF 		bl	controller_print_adc
 144              	.LVL17:
 145              		.loc 1 47 0 discriminator 1
 146 004e 4FF47A70 		mov	r0, #1000
 147 0052 FFF7FEFF 		bl	chThdSleep
 148              	.LVL18:
 149 0056 F8E7     		b	.L8
 150              	.L11:
 151              		.align	2
 152              	.L10:
 153 0058 00000000 		.word	.LANCHOR0
 154 005c 00000000 		.word	led_update
 155              		.cfi_endproc
 156              	.LFE269:
 157              		.size	main, .-main
 158              		.section	.bss.led_update_wa,"aw",%nobits
 159              		.align	3
 160              		.set	.LANCHOR0,. + 0
 161              		.type	led_update_wa, %object
 162              		.size	led_update_wa, 1432
 163              	led_update_wa:
 164 0000 00000000 		.space	1432
 164      00000000 
 164      00000000 
 164      00000000 
 164      00000000 
 165              		.section	.rodata.str1.4,"aMS",%progbits,1
 166              		.align	2
 167              	.LC0:
ARM GAS  /var/folders/m4/4md61f0s1_g0rzfghffqnxvr0000gn/T//ccz2PPgk.s 			page 4


 168 0000 4C454420 		.ascii	"LED update\000"
 168      75706461 
 168      746500
 169              		.text
 170              	.Letext0:
 171              		.file 3 "/opt/homebrew-cask/Caskroom/gcc-arm-embedded/5_2-2015q4,20151219/gcc-arm-none-eabi-5_2-20
 172              		.file 4 "/opt/homebrew-cask/Caskroom/gcc-arm-embedded/5_2-2015q4,20151219/gcc-arm-none-eabi-5_2-20
 173              		.file 5 "/opt/homebrew-cask/Caskroom/gcc-arm-embedded/5_2-2015q4,20151219/gcc-arm-none-eabi-5_2-20
 174              		.file 6 "ChibiOS_16.1.4/os/rt/ports/ARMCMx/compilers/GCC/chtypes.h"
 175              		.file 7 "ChibiOS_16.1.4/os/rt/include/chsystypes.h"
 176              		.file 8 "ChibiOS_16.1.4/os/rt/include/chschd.h"
 177              		.file 9 "ChibiOS_16.1.4/os/rt/ports/ARMCMx/chcore.h"
 178              		.file 10 "ChibiOS_16.1.4/os/rt/ports/ARMCMx/chcore_v7m.h"
 179              		.file 11 "ChibiOS_16.1.4/os/rt/include/chtm.h"
 180              		.file 12 "ChibiOS_16.1.4/os/rt/include/chsem.h"
 181              		.file 13 "ChibiOS_16.1.4/os/rt/include/chmtx.h"
 182              		.file 14 "ws2812b.h"
 183              		.file 15 "ChibiOS_16.1.4/os/rt/include/chthreads.h"
 184              		.file 16 "ChibiOS_16.1.4/os/hal/include/hal.h"
 185              		.file 17 "ChibiOS_16.1.4/os/rt/include/chsys.h"
 186              		.file 18 "ChibiOS_16.1.4/ext/stdperiph_stm32f4/inc/stm32f4xx_rcc.h"
 187              		.file 19 "comm.h"
 188              		.file 20 "encoder.h"
 189              		.file 21 "controller.h"
 190              		.file 22 "comm_usb.h"
 191              		.file 23 "ChibiOS_16.1.4/os/ext/CMSIS/ST/STM32F4xx/stm32f4xx.h"
 192              		.file 24 "ChibiOS_16.1.4/os/ext/CMSIS/include/core_cm4.h"