ARM GAS  /var/folders/m4/4md61f0s1_g0rzfghffqnxvr0000gn/T//ccoL5DmC.s 			page 1


   1              		.syntax unified
   2              		.cpu cortex-m4
   3              		.eabi_attribute 27, 1
   4              		.eabi_attribute 28, 1
   5              		.fpu fpv4-sp-d16
   6              		.eabi_attribute 20, 1
   7              		.eabi_attribute 21, 1
   8              		.eabi_attribute 23, 3
   9              		.eabi_attribute 24, 1
  10              		.eabi_attribute 25, 1
  11              		.eabi_attribute 26, 1
  12              		.eabi_attribute 30, 2
  13              		.eabi_attribute 34, 1
  14              		.eabi_attribute 18, 4
  15              		.thumb
  16              		.syntax unified
  17              		.file	"main.cpp"
  18              		.text
  19              	.Ltext0:
  20              		.cfi_sections	.debug_frame
  21              		.section	.text.startup.main,"ax",%progbits
  22              		.align	2
  23              		.p2align 4,,15
  24              		.global	main
  25              		.thumb
  26              		.thumb_func
  27              		.type	main, %function
  28              	main:
  29              	.LFB268:
  30              		.file 1 "main.cpp"
  31              		.loc 1 11 0
  32              		.cfi_startproc
  33              		@ args = 0, pretend = 0, frame = 24
  34              		@ frame_needed = 0, uses_anonymous_args = 0
  35 0000 70B5     		push	{r4, r5, r6, lr}
  36              		.cfi_def_cfa_offset 16
  37              		.cfi_offset 4, -16
  38              		.cfi_offset 5, -12
  39              		.cfi_offset 6, -8
  40              		.cfi_offset 14, -4
  41 0002 86B0     		sub	sp, sp, #24
  42              		.cfi_def_cfa_offset 40
  43              		.loc 1 12 0
  44 0004 FFF7FEFF 		bl	halInit
  45              	.LVL0:
  46              		.loc 1 13 0
  47 0008 FFF7FEFF 		bl	chSysInit
  48              	.LVL1:
  49              		.loc 1 15 0
  50 000c 0121     		movs	r1, #1
  51 000e 0846     		mov	r0, r1
  52 0010 FFF7FEFF 		bl	RCC_AHB1PeriphClockCmd
  53              	.LVL2:
  54              		.loc 1 16 0
  55 0014 0121     		movs	r1, #1
  56 0016 0220     		movs	r0, #2
  57 0018 FFF7FEFF 		bl	RCC_AHB1PeriphClockCmd
ARM GAS  /var/folders/m4/4md61f0s1_g0rzfghffqnxvr0000gn/T//ccoL5DmC.s 			page 2


  58              	.LVL3:
  59              		.loc 1 17 0
  60 001c 0121     		movs	r1, #1
  61 001e 0420     		movs	r0, #4
  62 0020 FFF7FEFF 		bl	RCC_AHB1PeriphClockCmd
  63              	.LVL4:
  64              		.loc 1 18 0
  65 0024 42F21070 		movw	r0, #10000
  66 0028 FFF7FEFF 		bl	chThdSleep
  67              	.LVL5:
  68              		.loc 1 20 0
  69 002c FFF7FEFF 		bl	_Z20comm_usb_serial_initv
  70              	.LVL6:
  71              		.loc 1 21 0
  72 0030 4FF41A70 		mov	r0, #616
  73 0034 FFF7FEFF 		bl	_Znwj
  74              	.LVL7:
  75 0038 FFF7FEFF 		bl	_ZN7WS2812BC1Ev
  76              	.LVL8:
  77 003c 0B4D     		ldr	r5, .L9
  78 003e 01AC     		add	r4, sp, #4
  79              	.LBB2:
  80              	.LBB3:
  81              	.LBB4:
  82              	.LBB5:
  83              		.loc 1 26 0
  84 0040 0026     		movs	r6, #0
  85 0042 03E0     		b	.L3
  86              	.L2:
  87              	.LBE5:
  88              	.LBE4:
  89              		.loc 1 29 0
  90 0044 42F21070 		movw	r0, #10000
  91 0048 FFF7FEFF 		bl	chThdSleep
  92              	.LVL9:
  93              	.L3:
  94              	.LBB7:
  95              		.loc 1 24 0
  96 004c FFF7FEFF 		bl	_Z25comm_usb_serial_is_activev
  97              	.LVL10:
  98 0050 0028     		cmp	r0, #0
  99 0052 F7D0     		beq	.L2
 100              	.LBB6:
 101              		.loc 1 26 0
 102 0054 95E80700 		ldmia	r5, {r0, r1, r2}
 103 0058 84E80700 		stmia	r4, {r0, r1, r2}
 104              		.loc 1 27 0
 105 005c 2246     		mov	r2, r4
 106 005e 0449     		ldr	r1, .L9+4
 107 0060 0448     		ldr	r0, .L9+8
 108              		.loc 1 26 0
 109 0062 0496     		str	r6, [sp, #16]
 110 0064 0596     		str	r6, [sp, #20]
 111              		.loc 1 27 0
 112 0066 FFF7FEFF 		bl	chprintf
 113              	.LVL11:
 114              	.LBE6:
ARM GAS  /var/folders/m4/4md61f0s1_g0rzfghffqnxvr0000gn/T//ccoL5DmC.s 			page 3


 115 006a EBE7     		b	.L2
 116              	.L10:
 117              		.align	2
 118              	.L9:
 119 006c 00000000 		.word	.LANCHOR0
 120 0070 00000000 		.word	.LC1
 121 0074 00000000 		.word	SDU1
 122              	.LBE7:
 123              	.LBE3:
 124              	.LBE2:
 125              		.cfi_endproc
 126              	.LFE268:
 127              		.size	main, .-main
 128              		.section	.rodata
 129              		.align	2
 130              		.set	.LANCHOR0,. + 0
 131              	.LC0:
 132 0000 48656C6C 		.ascii	"Hello world\000"
 132      6F20776F 
 132      726C6400 
 133 000c 00000000 		.space	8
 133      00000000 
 134              		.section	.rodata.str1.4,"aMS",%progbits,1
 135              		.align	2
 136              	.LC1:
 137 0000 25730A00 		.ascii	"%s\012\000"
 138              		.text
 139              	.Letext0:
 140              		.file 2 "/opt/homebrew-cask/Caskroom/gcc-arm-embedded/5_2-2015q4,20151219/gcc-arm-none-eabi-5_2-20
 141              		.file 3 "/opt/homebrew-cask/Caskroom/gcc-arm-embedded/5_2-2015q4,20151219/gcc-arm-none-eabi-5_2-20
 142              		.file 4 "/opt/homebrew-cask/Caskroom/gcc-arm-embedded/5_2-2015q4,20151219/gcc-arm-none-eabi-5_2-20
 143              		.file 5 "ChibiOS_16.1.4/os/rt/ports/ARMCMx/compilers/GCC/chtypes.h"
 144              		.file 6 "ChibiOS_16.1.4/os/rt/include/chsystypes.h"
 145              		.file 7 "ChibiOS_16.1.4/os/rt/include/chschd.h"
 146              		.file 8 "ChibiOS_16.1.4/os/ext/CMSIS/ST/STM32F4xx/stm32f4xx.h"
 147              		.file 9 "ChibiOS_16.1.4/os/rt/ports/ARMCMx/chcore.h"
 148              		.file 10 "ChibiOS_16.1.4/os/rt/ports/ARMCMx/chcore_v7m.h"
 149              		.file 11 "ChibiOS_16.1.4/os/rt/include/chtm.h"
 150              		.file 12 "ChibiOS_16.1.4/os/rt/include/chsem.h"
 151              		.file 13 "ChibiOS_16.1.4/os/rt/include/chmtx.h"
 152              		.file 14 "ChibiOS_16.1.4/os/rt/include/chevents.h"
 153              		.file 15 "ChibiOS_16.1.4/os/rt/include/chstreams.h"
 154              		.file 16 "ChibiOS_16.1.4/os/hal/include/hal_buffers.h"
 155              		.file 17 "ChibiOS_16.1.4/os/hal/include/usb.h"
 156              		.file 18 "ChibiOS_16.1.4/os/hal/ports/STM32/LLD/OTGv1/usb_lld.h"
 157              		.file 19 "ChibiOS_16.1.4/os/hal/ports/STM32/LLD/OTGv1/stm32_otg.h"
 158              		.file 20 "ChibiOS_16.1.4/os/hal/include/serial_usb.h"
 159              		.file 21 "ws2812b.h"
 160              		.file 22 "ChibiOS_16.1.4/os/ext/CMSIS/include/core_cm4.h"
 161              		.file 23 "comm_usb.h"
 162              		.file 24 "ChibiOS_16.1.4/os/hal/lib/streams/chprintf.h"
 163              		.file 25 "ChibiOS_16.1.4/os/hal/include/hal.h"
 164              		.file 26 "ChibiOS_16.1.4/os/rt/include/chsys.h"
 165              		.file 27 "ChibiOS_16.1.4/ext/stdperiph_stm32f4/inc/stm32f4xx_rcc.h"
 166              		.file 28 "ChibiOS_16.1.4/os/rt/include/chthreads.h"
 167              		.section	.debug_info,"",%progbits
 168              	.Ldebug_info0:
ARM GAS  /var/folders/m4/4md61f0s1_g0rzfghffqnxvr0000gn/T//ccoL5DmC.s 			page 4


 169 0000 08190000 		.4byte	0x1908
 170 0004 0400     		.2byte	0x4
 171 0006 00000000 		.4byte	.Ldebug_abbrev0
 172 000a 04       		.byte	0x4
 173 000b 01       		.uleb128 0x1
 174 000c 9B0A0000 		.4byte	.LASF354
 175 0010 04       		.byte	0x4
 176 0011 E9080000 		.4byte	.LASF355
 177 0015 AD010000 		.4byte	.LASF356
 178 0019 18000000 		.4byte	.Ldebug_ranges0+0x18
 179 001d 00000000 		.4byte	0
 180 0021 00000000 		.4byte	.Ldebug_line0
 181 0025 02       		.uleb128 0x2
 182 0026 04       		.byte	0x4
 183 0027 05       		.byte	0x5
 184 0028 696E7400 		.ascii	"int\000"
 185 002c 03       		.uleb128 0x3
 186 002d 6A050000 		.4byte	.LASF4
 187 0031 02       		.byte	0x2
 188 0032 D8       		.byte	0xd8
 189 0033 37000000 		.4byte	0x37
 190 0037 04       		.uleb128 0x4
 191 0038 04       		.byte	0x4
 192 0039 07       		.byte	0x7
 193 003a 3D010000 		.4byte	.LASF0
 194 003e 04       		.uleb128 0x4
 195 003f 08       		.byte	0x8
 196 0040 05       		.byte	0x5
 197 0041 3D070000 		.4byte	.LASF1
 198 0045 04       		.uleb128 0x4
 199 0046 08       		.byte	0x8
 200 0047 04       		.byte	0x4
 201 0048 14070000 		.4byte	.LASF2
 202 004c 05       		.uleb128 0x5
 203 004d 4B0E0000 		.4byte	.LASF357
 204 0051 04       		.uleb128 0x4
 205 0052 01       		.byte	0x1
 206 0053 06       		.byte	0x6
 207 0054 39030000 		.4byte	.LASF3
 208 0058 03       		.uleb128 0x3
 209 0059 D30C0000 		.4byte	.LASF5
 210 005d 03       		.byte	0x3
 211 005e 1D       		.byte	0x1d
 212 005f 63000000 		.4byte	0x63
 213 0063 04       		.uleb128 0x4
 214 0064 01       		.byte	0x1
 215 0065 08       		.byte	0x8
 216 0066 C60D0000 		.4byte	.LASF6
 217 006a 04       		.uleb128 0x4
 218 006b 02       		.byte	0x2
 219 006c 05       		.byte	0x5
 220 006d B2070000 		.4byte	.LASF7
 221 0071 03       		.uleb128 0x3
 222 0072 87040000 		.4byte	.LASF8
 223 0076 03       		.byte	0x3
 224 0077 2B       		.byte	0x2b
 225 0078 7C000000 		.4byte	0x7c
ARM GAS  /var/folders/m4/4md61f0s1_g0rzfghffqnxvr0000gn/T//ccoL5DmC.s 			page 5


 226 007c 04       		.uleb128 0x4
 227 007d 02       		.byte	0x2
 228 007e 07       		.byte	0x7
 229 007f 680F0000 		.4byte	.LASF9
 230 0083 03       		.uleb128 0x3
 231 0084 E8060000 		.4byte	.LASF10
 232 0088 03       		.byte	0x3
 233 0089 3F       		.byte	0x3f
 234 008a 8E000000 		.4byte	0x8e
 235 008e 04       		.uleb128 0x4
 236 008f 04       		.byte	0x4
 237 0090 05       		.byte	0x5
 238 0091 10000000 		.4byte	.LASF11
 239 0095 03       		.uleb128 0x3
 240 0096 5B070000 		.4byte	.LASF12
 241 009a 03       		.byte	0x3
 242 009b 41       		.byte	0x41
 243 009c A0000000 		.4byte	0xa0
 244 00a0 04       		.uleb128 0x4
 245 00a1 04       		.byte	0x4
 246 00a2 07       		.byte	0x7
 247 00a3 47090000 		.4byte	.LASF13
 248 00a7 04       		.uleb128 0x4
 249 00a8 08       		.byte	0x8
 250 00a9 07       		.byte	0x7
 251 00aa 07040000 		.4byte	.LASF14
 252 00ae 03       		.uleb128 0x3
 253 00af 66070000 		.4byte	.LASF15
 254 00b3 04       		.byte	0x4
 255 00b4 14       		.byte	0x14
 256 00b5 58000000 		.4byte	0x58
 257 00b9 03       		.uleb128 0x3
 258 00ba CF090000 		.4byte	.LASF16
 259 00be 04       		.byte	0x4
 260 00bf 1A       		.byte	0x1a
 261 00c0 71000000 		.4byte	0x71
 262 00c4 03       		.uleb128 0x3
 263 00c5 6D0D0000 		.4byte	.LASF17
 264 00c9 04       		.byte	0x4
 265 00ca 1F       		.byte	0x1f
 266 00cb 83000000 		.4byte	0x83
 267 00cf 03       		.uleb128 0x3
 268 00d0 4E030000 		.4byte	.LASF18
 269 00d4 04       		.byte	0x4
 270 00d5 20       		.byte	0x20
 271 00d6 95000000 		.4byte	0x95
 272 00da 03       		.uleb128 0x3
 273 00db 1D0A0000 		.4byte	.LASF19
 274 00df 05       		.byte	0x5
 275 00e0 39       		.byte	0x39
 276 00e1 CF000000 		.4byte	0xcf
 277 00e5 03       		.uleb128 0x3
 278 00e6 9C090000 		.4byte	.LASF20
 279 00ea 05       		.byte	0x5
 280 00eb 3C       		.byte	0x3c
 281 00ec AE000000 		.4byte	0xae
 282 00f0 03       		.uleb128 0x3
ARM GAS  /var/folders/m4/4md61f0s1_g0rzfghffqnxvr0000gn/T//ccoL5DmC.s 			page 6


 283 00f1 0B070000 		.4byte	.LASF21
 284 00f5 05       		.byte	0x5
 285 00f6 3D       		.byte	0x3d
 286 00f7 AE000000 		.4byte	0xae
 287 00fb 03       		.uleb128 0x3
 288 00fc 310D0000 		.4byte	.LASF22
 289 0100 05       		.byte	0x5
 290 0101 3E       		.byte	0x3e
 291 0102 AE000000 		.4byte	0xae
 292 0106 03       		.uleb128 0x3
 293 0107 DE0B0000 		.4byte	.LASF23
 294 010b 05       		.byte	0x5
 295 010c 3F       		.byte	0x3f
 296 010d AE000000 		.4byte	0xae
 297 0111 03       		.uleb128 0x3
 298 0112 B4030000 		.4byte	.LASF24
 299 0116 05       		.byte	0x5
 300 0117 40       		.byte	0x40
 301 0118 CF000000 		.4byte	0xcf
 302 011c 03       		.uleb128 0x3
 303 011d 4C080000 		.4byte	.LASF25
 304 0121 05       		.byte	0x5
 305 0122 41       		.byte	0x41
 306 0123 C4000000 		.4byte	0xc4
 307 0127 03       		.uleb128 0x3
 308 0128 67030000 		.4byte	.LASF26
 309 012c 05       		.byte	0x5
 310 012d 43       		.byte	0x43
 311 012e CF000000 		.4byte	0xcf
 312 0132 03       		.uleb128 0x3
 313 0133 E2040000 		.4byte	.LASF27
 314 0137 05       		.byte	0x5
 315 0138 44       		.byte	0x44
 316 0139 CF000000 		.4byte	0xcf
 317 013d 03       		.uleb128 0x3
 318 013e 92040000 		.4byte	.LASF28
 319 0142 05       		.byte	0x5
 320 0143 45       		.byte	0x45
 321 0144 C4000000 		.4byte	0xc4
 322 0148 03       		.uleb128 0x3
 323 0149 D6000000 		.4byte	.LASF29
 324 014d 06       		.byte	0x6
 325 014e 33       		.byte	0x33
 326 014f CF000000 		.4byte	0xcf
 327 0153 03       		.uleb128 0x3
 328 0154 FD040000 		.4byte	.LASF30
 329 0158 06       		.byte	0x6
 330 0159 3F       		.byte	0x3f
 331 015a 5E010000 		.4byte	0x15e
 332 015e 06       		.uleb128 0x6
 333 015f A8070000 		.4byte	.LASF59
 334 0163 48       		.byte	0x48
 335 0164 07       		.byte	0x7
 336 0165 C2       		.byte	0xc2
 337 0166 C0020000 		.4byte	0x2c0
 338 016a 07       		.uleb128 0x7
 339 016b 04       		.byte	0x4
ARM GAS  /var/folders/m4/4md61f0s1_g0rzfghffqnxvr0000gn/T//ccoL5DmC.s 			page 7


 340 016c 07       		.byte	0x7
 341 016d FA       		.byte	0xfa
 342 016e C7010000 		.4byte	0x1c7
 343 0172 08       		.uleb128 0x8
 344 0173 71050000 		.4byte	.LASF31
 345 0177 07       		.byte	0x7
 346 0178 0101     		.2byte	0x101
 347 017a 1C010000 		.4byte	0x11c
 348 017e 08       		.uleb128 0x8
 349 017f 93100000 		.4byte	.LASF32
 350 0183 07       		.byte	0x7
 351 0184 0801     		.2byte	0x108
 352 0186 1C010000 		.4byte	0x11c
 353 018a 08       		.uleb128 0x8
 354 018b 38020000 		.4byte	.LASF33
 355 018f 07       		.byte	0x7
 356 0190 0F01     		.2byte	0x10f
 357 0192 A8030000 		.4byte	0x3a8
 358 0196 08       		.uleb128 0x8
 359 0197 F80E0000 		.4byte	.LASF34
 360 019b 07       		.byte	0x7
 361 019c 1601     		.2byte	0x116
 362 019e DA060000 		.4byte	0x6da
 363 01a2 08       		.uleb128 0x8
 364 01a3 820D0000 		.4byte	.LASF35
 365 01a7 07       		.byte	0x7
 366 01a8 1E01     		.2byte	0x11e
 367 01aa 05070000 		.4byte	0x705
 368 01ae 08       		.uleb128 0x8
 369 01af 34000000 		.4byte	.LASF36
 370 01b3 07       		.byte	0x7
 371 01b4 2701     		.2byte	0x127
 372 01b6 3C070000 		.4byte	0x73c
 373 01ba 08       		.uleb128 0x8
 374 01bb 98020000 		.4byte	.LASF37
 375 01bf 07       		.byte	0x7
 376 01c0 2F01     		.2byte	0x12f
 377 01c2 27010000 		.4byte	0x127
 378 01c6 00       		.byte	0
 379 01c7 09       		.uleb128 0x9
 380 01c8 5C0C0000 		.4byte	.LASF38
 381 01cc 07       		.byte	0x7
 382 01cd C3       		.byte	0xc3
 383 01ce CB020000 		.4byte	0x2cb
 384 01d2 00       		.byte	0
 385 01d3 09       		.uleb128 0x9
 386 01d4 4D0C0000 		.4byte	.LASF39
 387 01d8 07       		.byte	0x7
 388 01d9 C5       		.byte	0xc5
 389 01da CB020000 		.4byte	0x2cb
 390 01de 04       		.byte	0x4
 391 01df 09       		.uleb128 0x9
 392 01e0 9F030000 		.4byte	.LASF40
 393 01e4 07       		.byte	0x7
 394 01e5 C7       		.byte	0xc7
 395 01e6 11010000 		.4byte	0x111
 396 01ea 08       		.byte	0x8
ARM GAS  /var/folders/m4/4md61f0s1_g0rzfghffqnxvr0000gn/T//ccoL5DmC.s 			page 8


 397 01eb 09       		.uleb128 0x9
 398 01ec 7C0C0000 		.4byte	.LASF41
 399 01f0 07       		.byte	0x7
 400 01f1 C8       		.byte	0xc8
 401 01f2 4D050000 		.4byte	0x54d
 402 01f6 0C       		.byte	0xc
 403 01f7 09       		.uleb128 0x9
 404 01f8 B3040000 		.4byte	.LASF42
 405 01fc 07       		.byte	0x7
 406 01fd CA       		.byte	0xca
 407 01fe CB020000 		.4byte	0x2cb
 408 0202 10       		.byte	0x10
 409 0203 09       		.uleb128 0x9
 410 0204 4B070000 		.4byte	.LASF43
 411 0208 07       		.byte	0x7
 412 0209 CB       		.byte	0xcb
 413 020a CB020000 		.4byte	0x2cb
 414 020e 14       		.byte	0x14
 415 020f 09       		.uleb128 0x9
 416 0210 790E0000 		.4byte	.LASF44
 417 0214 07       		.byte	0x7
 418 0215 D2       		.byte	0xd2
 419 0216 42070000 		.4byte	0x742
 420 021a 18       		.byte	0x18
 421 021b 09       		.uleb128 0x9
 422 021c 53070000 		.4byte	.LASF45
 423 0220 07       		.byte	0x7
 424 0221 DD       		.byte	0xdd
 425 0222 F0000000 		.4byte	0xf0
 426 0226 1C       		.byte	0x1c
 427 0227 09       		.uleb128 0x9
 428 0228 80080000 		.4byte	.LASF46
 429 022c 07       		.byte	0x7
 430 022d E1       		.byte	0xe1
 431 022e E5000000 		.4byte	0xe5
 432 0232 1D       		.byte	0x1d
 433 0233 09       		.uleb128 0x9
 434 0234 A40E0000 		.4byte	.LASF47
 435 0238 07       		.byte	0x7
 436 0239 E6       		.byte	0xe6
 437 023a FB000000 		.4byte	0xfb
 438 023e 1E       		.byte	0x1e
 439 023f 09       		.uleb128 0x9
 440 0240 6F0E0000 		.4byte	.LASF48
 441 0244 07       		.byte	0x7
 442 0245 EC       		.byte	0xec
 443 0246 06010000 		.4byte	0x106
 444 024a 1F       		.byte	0x1f
 445 024b 09       		.uleb128 0x9
 446 024c 4C000000 		.4byte	.LASF49
 447 0250 07       		.byte	0x7
 448 0251 F3       		.byte	0xf3
 449 0252 54070000 		.4byte	0x754
 450 0256 20       		.byte	0x20
 451 0257 0A       		.uleb128 0xa
 452 0258 705F7500 		.ascii	"p_u\000"
 453 025c 07       		.byte	0x7
ARM GAS  /var/folders/m4/4md61f0s1_g0rzfghffqnxvr0000gn/T//ccoL5DmC.s 			page 9


 454 025d 3101     		.2byte	0x131
 455 025f 6A010000 		.4byte	0x16a
 456 0263 24       		.byte	0x24
 457 0264 0B       		.uleb128 0xb
 458 0265 7C010000 		.4byte	.LASF50
 459 0269 07       		.byte	0x7
 460 026a 3601     		.2byte	0x136
 461 026c D1020000 		.4byte	0x2d1
 462 0270 28       		.byte	0x28
 463 0271 0B       		.uleb128 0xb
 464 0272 27010000 		.4byte	.LASF51
 465 0276 07       		.byte	0x7
 466 0277 3C01     		.2byte	0x13c
 467 0279 F5020000 		.4byte	0x2f5
 468 027d 2C       		.byte	0x2c
 469 027e 0B       		.uleb128 0xb
 470 027f 8E090000 		.4byte	.LASF52
 471 0283 07       		.byte	0x7
 472 0284 4001     		.2byte	0x140
 473 0286 1C010000 		.4byte	0x11c
 474 028a 34       		.byte	0x34
 475 028b 0B       		.uleb128 0xb
 476 028c BF0E0000 		.4byte	.LASF53
 477 0290 07       		.byte	0x7
 478 0291 4601     		.2byte	0x146
 479 0293 27010000 		.4byte	0x127
 480 0297 38       		.byte	0x38
 481 0298 0B       		.uleb128 0xb
 482 0299 8C070000 		.4byte	.LASF54
 483 029d 07       		.byte	0x7
 484 029e 4D01     		.2byte	0x14d
 485 02a0 3C070000 		.4byte	0x73c
 486 02a4 3C       		.byte	0x3c
 487 02a5 0B       		.uleb128 0xb
 488 02a6 7D0A0000 		.4byte	.LASF55
 489 02aa 07       		.byte	0x7
 490 02ab 5101     		.2byte	0x151
 491 02ad 11010000 		.4byte	0x111
 492 02b1 40       		.byte	0x40
 493 02b2 0B       		.uleb128 0xb
 494 02b3 84070000 		.4byte	.LASF56
 495 02b7 07       		.byte	0x7
 496 02b8 5801     		.2byte	0x158
 497 02ba A8030000 		.4byte	0x3a8
 498 02be 44       		.byte	0x44
 499 02bf 00       		.byte	0
 500 02c0 03       		.uleb128 0x3
 501 02c1 E0090000 		.4byte	.LASF57
 502 02c5 06       		.byte	0x6
 503 02c6 44       		.byte	0x44
 504 02c7 CB020000 		.4byte	0x2cb
 505 02cb 0C       		.uleb128 0xc
 506 02cc 04       		.byte	0x4
 507 02cd 53010000 		.4byte	0x153
 508 02d1 03       		.uleb128 0x3
 509 02d2 62010000 		.4byte	.LASF58
 510 02d6 06       		.byte	0x6
ARM GAS  /var/folders/m4/4md61f0s1_g0rzfghffqnxvr0000gn/T//ccoL5DmC.s 			page 10


 511 02d7 49       		.byte	0x49
 512 02d8 DC020000 		.4byte	0x2dc
 513 02dc 06       		.uleb128 0x6
 514 02dd 00000000 		.4byte	.LASF60
 515 02e1 04       		.byte	0x4
 516 02e2 07       		.byte	0x7
 517 02e3 B0       		.byte	0xb0
 518 02e4 F5020000 		.4byte	0x2f5
 519 02e8 09       		.uleb128 0x9
 520 02e9 5C0C0000 		.4byte	.LASF38
 521 02ed 07       		.byte	0x7
 522 02ee B1       		.byte	0xb1
 523 02ef CB020000 		.4byte	0x2cb
 524 02f3 00       		.byte	0
 525 02f4 00       		.byte	0
 526 02f5 03       		.uleb128 0x3
 527 02f6 A3040000 		.4byte	.LASF61
 528 02fa 06       		.byte	0x6
 529 02fb 50       		.byte	0x50
 530 02fc 00030000 		.4byte	0x300
 531 0300 06       		.uleb128 0x6
 532 0301 ED070000 		.4byte	.LASF62
 533 0305 08       		.byte	0x8
 534 0306 07       		.byte	0x7
 535 0307 B7       		.byte	0xb7
 536 0308 25030000 		.4byte	0x325
 537 030c 09       		.uleb128 0x9
 538 030d 5C0C0000 		.4byte	.LASF38
 539 0311 07       		.byte	0x7
 540 0312 B8       		.byte	0xb8
 541 0313 CB020000 		.4byte	0x2cb
 542 0317 00       		.byte	0
 543 0318 09       		.uleb128 0x9
 544 0319 4D0C0000 		.4byte	.LASF39
 545 031d 07       		.byte	0x7
 546 031e B9       		.byte	0xb9
 547 031f CB020000 		.4byte	0x2cb
 548 0323 04       		.byte	0x4
 549 0324 00       		.byte	0
 550 0325 03       		.uleb128 0x3
 551 0326 E40D0000 		.4byte	.LASF63
 552 032a 06       		.byte	0x6
 553 032b 57       		.byte	0x57
 554 032c 30030000 		.4byte	0x330
 555 0330 0D       		.uleb128 0xd
 556 0331 72020000 		.4byte	.LASF64
 557 0335 1C       		.byte	0x1c
 558 0336 07       		.byte	0x7
 559 0337 9001     		.2byte	0x190
 560 0339 8C030000 		.4byte	0x38c
 561 033d 0B       		.uleb128 0xb
 562 033e 82100000 		.4byte	.LASF65
 563 0342 07       		.byte	0x7
 564 0343 9101     		.2byte	0x191
 565 0345 F5020000 		.4byte	0x2f5
 566 0349 00       		.byte	0
 567 034a 0B       		.uleb128 0xb
ARM GAS  /var/folders/m4/4md61f0s1_g0rzfghffqnxvr0000gn/T//ccoL5DmC.s 			page 11


 568 034b 73030000 		.4byte	.LASF66
 569 034f 07       		.byte	0x7
 570 0350 9201     		.2byte	0x192
 571 0352 11010000 		.4byte	0x111
 572 0356 08       		.byte	0x8
 573 0357 0B       		.uleb128 0xb
 574 0358 7B0F0000 		.4byte	.LASF67
 575 035c 07       		.byte	0x7
 576 035d 9401     		.2byte	0x194
 577 035f 4D050000 		.4byte	0x54d
 578 0363 0C       		.byte	0xc
 579 0364 0B       		.uleb128 0xb
 580 0365 F2060000 		.4byte	.LASF68
 581 0369 07       		.byte	0x7
 582 036a 9701     		.2byte	0x197
 583 036c CB020000 		.4byte	0x2cb
 584 0370 10       		.byte	0x10
 585 0371 0B       		.uleb128 0xb
 586 0372 1C090000 		.4byte	.LASF69
 587 0376 07       		.byte	0x7
 588 0377 9801     		.2byte	0x198
 589 0379 CB020000 		.4byte	0x2cb
 590 037d 14       		.byte	0x14
 591 037e 0B       		.uleb128 0xb
 592 037f C50B0000 		.4byte	.LASF70
 593 0383 07       		.byte	0x7
 594 0384 9B01     		.2byte	0x19b
 595 0386 CB020000 		.4byte	0x2cb
 596 038a 18       		.byte	0x18
 597 038b 00       		.byte	0
 598 038c 03       		.uleb128 0x3
 599 038d DA020000 		.4byte	.LASF71
 600 0391 06       		.byte	0x6
 601 0392 5C       		.byte	0x5c
 602 0393 97030000 		.4byte	0x397
 603 0397 0C       		.uleb128 0xc
 604 0398 04       		.byte	0x4
 605 0399 9D030000 		.4byte	0x39d
 606 039d 0E       		.uleb128 0xe
 607 039e A8030000 		.4byte	0x3a8
 608 03a2 0F       		.uleb128 0xf
 609 03a3 A8030000 		.4byte	0x3a8
 610 03a7 00       		.byte	0
 611 03a8 10       		.uleb128 0x10
 612 03a9 04       		.byte	0x4
 613 03aa 03       		.uleb128 0x3
 614 03ab 88080000 		.4byte	.LASF72
 615 03af 06       		.byte	0x6
 616 03b0 61       		.byte	0x61
 617 03b1 B5030000 		.4byte	0x3b5
 618 03b5 0D       		.uleb128 0xd
 619 03b6 CB030000 		.4byte	.LASF73
 620 03ba 14       		.byte	0x14
 621 03bb 07       		.byte	0x7
 622 03bc 6B01     		.2byte	0x16b
 623 03be 04040000 		.4byte	0x404
 624 03c2 0B       		.uleb128 0xb
ARM GAS  /var/folders/m4/4md61f0s1_g0rzfghffqnxvr0000gn/T//ccoL5DmC.s 			page 12


 625 03c3 CA0E0000 		.4byte	.LASF74
 626 03c7 07       		.byte	0x7
 627 03c8 6C01     		.2byte	0x16c
 628 03ca 59070000 		.4byte	0x759
 629 03ce 00       		.byte	0
 630 03cf 0B       		.uleb128 0xb
 631 03d0 CE0F0000 		.4byte	.LASF75
 632 03d4 07       		.byte	0x7
 633 03d5 6D01     		.2byte	0x16d
 634 03d7 59070000 		.4byte	0x759
 635 03db 04       		.byte	0x4
 636 03dc 0B       		.uleb128 0xb
 637 03dd B1060000 		.4byte	.LASF76
 638 03e1 07       		.byte	0x7
 639 03e2 6E01     		.2byte	0x16e
 640 03e4 48010000 		.4byte	0x148
 641 03e8 08       		.byte	0x8
 642 03e9 0B       		.uleb128 0xb
 643 03ea AC0F0000 		.4byte	.LASF77
 644 03ee 07       		.byte	0x7
 645 03ef 6F01     		.2byte	0x16f
 646 03f1 8C030000 		.4byte	0x38c
 647 03f5 0C       		.byte	0xc
 648 03f6 0B       		.uleb128 0xb
 649 03f7 85030000 		.4byte	.LASF78
 650 03fb 07       		.byte	0x7
 651 03fc 7101     		.2byte	0x171
 652 03fe A8030000 		.4byte	0x3a8
 653 0402 10       		.byte	0x10
 654 0403 00       		.byte	0
 655 0404 03       		.uleb128 0x3
 656 0405 070A0000 		.4byte	.LASF79
 657 0409 06       		.byte	0x6
 658 040a 66       		.byte	0x66
 659 040b 0F040000 		.4byte	0x40f
 660 040f 0D       		.uleb128 0xd
 661 0410 C4040000 		.4byte	.LASF80
 662 0414 10       		.byte	0x10
 663 0415 07       		.byte	0x7
 664 0416 7B01     		.2byte	0x17b
 665 0418 51040000 		.4byte	0x451
 666 041c 0B       		.uleb128 0xb
 667 041d CA0E0000 		.4byte	.LASF74
 668 0421 07       		.byte	0x7
 669 0422 7C01     		.2byte	0x17c
 670 0424 59070000 		.4byte	0x759
 671 0428 00       		.byte	0
 672 0429 0B       		.uleb128 0xb
 673 042a CE0F0000 		.4byte	.LASF75
 674 042e 07       		.byte	0x7
 675 042f 7E01     		.2byte	0x17e
 676 0431 59070000 		.4byte	0x759
 677 0435 04       		.byte	0x4
 678 0436 0B       		.uleb128 0xb
 679 0437 B1060000 		.4byte	.LASF76
 680 043b 07       		.byte	0x7
 681 043c 8001     		.2byte	0x180
ARM GAS  /var/folders/m4/4md61f0s1_g0rzfghffqnxvr0000gn/T//ccoL5DmC.s 			page 13


 682 043e 48010000 		.4byte	0x148
 683 0442 08       		.byte	0x8
 684 0443 0B       		.uleb128 0xb
 685 0444 1C010000 		.4byte	.LASF81
 686 0448 07       		.byte	0x7
 687 0449 8201     		.2byte	0x182
 688 044b 54070000 		.4byte	0x754
 689 044f 0C       		.byte	0xc
 690 0450 00       		.byte	0
 691 0451 03       		.uleb128 0x3
 692 0452 DE070000 		.4byte	.LASF82
 693 0456 06       		.byte	0x6
 694 0457 6B       		.byte	0x6b
 695 0458 5C040000 		.4byte	0x45c
 696 045c 0D       		.uleb128 0xd
 697 045d E3020000 		.4byte	.LASF83
 698 0461 04       		.byte	0x4
 699 0462 07       		.byte	0x7
 700 0463 A201     		.2byte	0x1a2
 701 0465 77040000 		.4byte	0x477
 702 0469 0B       		.uleb128 0xb
 703 046a 720C0000 		.4byte	.LASF84
 704 046e 07       		.byte	0x7
 705 046f AA01     		.2byte	0x1aa
 706 0471 5F070000 		.4byte	0x75f
 707 0475 00       		.byte	0
 708 0476 00       		.byte	0
 709 0477 03       		.uleb128 0x3
 710 0478 E40E0000 		.4byte	.LASF85
 711 047c 06       		.byte	0x6
 712 047d 70       		.byte	0x70
 713 047e 82040000 		.4byte	0x482
 714 0482 11       		.uleb128 0x11
 715 0483 430C0000 		.4byte	.LASF86
 716 0487 5802     		.2byte	0x258
 717 0489 07       		.byte	0x7
 718 048a C201     		.2byte	0x1c2
 719 048c DE040000 		.4byte	0x4de
 720 0490 0B       		.uleb128 0xb
 721 0491 920C0000 		.4byte	.LASF87
 722 0495 07       		.byte	0x7
 723 0496 C601     		.2byte	0x1c6
 724 0498 25030000 		.4byte	0x325
 725 049c 00       		.byte	0
 726 049d 0B       		.uleb128 0xb
 727 049e 48020000 		.4byte	.LASF88
 728 04a2 07       		.byte	0x7
 729 04a3 CA01     		.2byte	0x1ca
 730 04a5 04040000 		.4byte	0x404
 731 04a9 1C       		.byte	0x1c
 732 04aa 0A       		.uleb128 0xa
 733 04ab 64626700 		.ascii	"dbg\000"
 734 04af 07       		.byte	0x7
 735 04b0 CE01     		.2byte	0x1ce
 736 04b2 51040000 		.4byte	0x451
 737 04b6 2C       		.byte	0x2c
 738 04b7 0B       		.uleb128 0xb
ARM GAS  /var/folders/m4/4md61f0s1_g0rzfghffqnxvr0000gn/T//ccoL5DmC.s 			page 14


 739 04b8 A4090000 		.4byte	.LASF89
 740 04bc 07       		.byte	0x7
 741 04bd D201     		.2byte	0x1d2
 742 04bf 53010000 		.4byte	0x153
 743 04c3 30       		.byte	0x30
 744 04c4 0A       		.uleb128 0xa
 745 04c5 746D00   		.ascii	"tm\000"
 746 04c8 07       		.byte	0x7
 747 04c9 D701     		.2byte	0x1d7
 748 04cb CF060000 		.4byte	0x6cf
 749 04cf 78       		.byte	0x78
 750 04d0 0B       		.uleb128 0xb
 751 04d1 80020000 		.4byte	.LASF90
 752 04d5 07       		.byte	0x7
 753 04d6 E301     		.2byte	0x1e3
 754 04d8 64070000 		.4byte	0x764
 755 04dc 80       		.byte	0x80
 756 04dd 00       		.byte	0
 757 04de 04       		.uleb128 0x4
 758 04df 04       		.byte	0x4
 759 04e0 07       		.byte	0x7
 760 04e1 280D0000 		.4byte	.LASF91
 761 04e5 12       		.uleb128 0x12
 762 04e6 CF000000 		.4byte	0xcf
 763 04ea 13       		.uleb128 0x13
 764 04eb A0000000 		.4byte	0xa0
 765 04ef FA040000 		.4byte	0x4fa
 766 04f3 14       		.uleb128 0x14
 767 04f4 DE040000 		.4byte	0x4de
 768 04f8 04       		.byte	0x4
 769 04f9 00       		.byte	0
 770 04fa 13       		.uleb128 0x13
 771 04fb A0000000 		.4byte	0xa0
 772 04ff 0A050000 		.4byte	0x50a
 773 0503 14       		.uleb128 0x14
 774 0504 DE040000 		.4byte	0x4de
 775 0508 0E       		.byte	0xe
 776 0509 00       		.byte	0
 777 050a 13       		.uleb128 0x13
 778 050b A0000000 		.4byte	0xa0
 779 050f 1A050000 		.4byte	0x51a
 780 0513 14       		.uleb128 0x14
 781 0514 DE040000 		.4byte	0x4de
 782 0518 2F       		.byte	0x2f
 783 0519 00       		.byte	0
 784 051a 15       		.uleb128 0x15
 785 051b 01       		.byte	0x1
 786 051c 63000000 		.4byte	0x63
 787 0520 08       		.byte	0x8
 788 0521 BE       		.byte	0xbe
 789 0522 96070000 		.4byte	.LASF307
 790 0526 37050000 		.4byte	0x537
 791 052a 16       		.uleb128 0x16
 792 052b E0060000 		.4byte	.LASF92
 793 052f 00       		.byte	0
 794 0530 16       		.uleb128 0x16
 795 0531 210D0000 		.4byte	.LASF93
ARM GAS  /var/folders/m4/4md61f0s1_g0rzfghffqnxvr0000gn/T//ccoL5DmC.s 			page 15


 796 0535 01       		.byte	0x1
 797 0536 00       		.byte	0
 798 0537 03       		.uleb128 0x3
 799 0538 4A010000 		.4byte	.LASF94
 800 053c 08       		.byte	0x8
 801 053d C1       		.byte	0xc1
 802 053e 1A050000 		.4byte	0x51a
 803 0542 03       		.uleb128 0x3
 804 0543 68000000 		.4byte	.LASF95
 805 0547 09       		.byte	0x9
 806 0548 65       		.byte	0x65
 807 0549 A8030000 		.4byte	0x3a8
 808 054d 06       		.uleb128 0x6
 809 054e 5E080000 		.4byte	.LASF96
 810 0552 04       		.byte	0x4
 811 0553 09       		.byte	0x9
 812 0554 89       		.byte	0x89
 813 0555 66050000 		.4byte	0x566
 814 0559 17       		.uleb128 0x17
 815 055a 72313300 		.ascii	"r13\000"
 816 055e 09       		.byte	0x9
 817 055f 8A       		.byte	0x8a
 818 0560 B0060000 		.4byte	0x6b0
 819 0564 00       		.byte	0
 820 0565 00       		.byte	0
 821 0566 06       		.uleb128 0x6
 822 0567 E80B0000 		.4byte	.LASF97
 823 056b 64       		.byte	0x64
 824 056c 0A       		.byte	0xa
 825 056d FD       		.byte	0xfd
 826 056e B0060000 		.4byte	0x6b0
 827 0572 17       		.uleb128 0x17
 828 0573 73313600 		.ascii	"s16\000"
 829 0577 0A       		.byte	0xa
 830 0578 FF       		.byte	0xff
 831 0579 42050000 		.4byte	0x542
 832 057d 00       		.byte	0
 833 057e 0A       		.uleb128 0xa
 834 057f 73313700 		.ascii	"s17\000"
 835 0583 0A       		.byte	0xa
 836 0584 0001     		.2byte	0x100
 837 0586 42050000 		.4byte	0x542
 838 058a 04       		.byte	0x4
 839 058b 0A       		.uleb128 0xa
 840 058c 73313800 		.ascii	"s18\000"
 841 0590 0A       		.byte	0xa
 842 0591 0101     		.2byte	0x101
 843 0593 42050000 		.4byte	0x542
 844 0597 08       		.byte	0x8
 845 0598 0A       		.uleb128 0xa
 846 0599 73313900 		.ascii	"s19\000"
 847 059d 0A       		.byte	0xa
 848 059e 0201     		.2byte	0x102
 849 05a0 42050000 		.4byte	0x542
 850 05a4 0C       		.byte	0xc
 851 05a5 0A       		.uleb128 0xa
 852 05a6 73323000 		.ascii	"s20\000"
ARM GAS  /var/folders/m4/4md61f0s1_g0rzfghffqnxvr0000gn/T//ccoL5DmC.s 			page 16


 853 05aa 0A       		.byte	0xa
 854 05ab 0301     		.2byte	0x103
 855 05ad 42050000 		.4byte	0x542
 856 05b1 10       		.byte	0x10
 857 05b2 0A       		.uleb128 0xa
 858 05b3 73323100 		.ascii	"s21\000"
 859 05b7 0A       		.byte	0xa
 860 05b8 0401     		.2byte	0x104
 861 05ba 42050000 		.4byte	0x542
 862 05be 14       		.byte	0x14
 863 05bf 0A       		.uleb128 0xa
 864 05c0 73323200 		.ascii	"s22\000"
 865 05c4 0A       		.byte	0xa
 866 05c5 0501     		.2byte	0x105
 867 05c7 42050000 		.4byte	0x542
 868 05cb 18       		.byte	0x18
 869 05cc 0A       		.uleb128 0xa
 870 05cd 73323300 		.ascii	"s23\000"
 871 05d1 0A       		.byte	0xa
 872 05d2 0601     		.2byte	0x106
 873 05d4 42050000 		.4byte	0x542
 874 05d8 1C       		.byte	0x1c
 875 05d9 0A       		.uleb128 0xa
 876 05da 73323400 		.ascii	"s24\000"
 877 05de 0A       		.byte	0xa
 878 05df 0701     		.2byte	0x107
 879 05e1 42050000 		.4byte	0x542
 880 05e5 20       		.byte	0x20
 881 05e6 0A       		.uleb128 0xa
 882 05e7 73323500 		.ascii	"s25\000"
 883 05eb 0A       		.byte	0xa
 884 05ec 0801     		.2byte	0x108
 885 05ee 42050000 		.4byte	0x542
 886 05f2 24       		.byte	0x24
 887 05f3 0A       		.uleb128 0xa
 888 05f4 73323600 		.ascii	"s26\000"
 889 05f8 0A       		.byte	0xa
 890 05f9 0901     		.2byte	0x109
 891 05fb 42050000 		.4byte	0x542
 892 05ff 28       		.byte	0x28
 893 0600 0A       		.uleb128 0xa
 894 0601 73323700 		.ascii	"s27\000"
 895 0605 0A       		.byte	0xa
 896 0606 0A01     		.2byte	0x10a
 897 0608 42050000 		.4byte	0x542
 898 060c 2C       		.byte	0x2c
 899 060d 0A       		.uleb128 0xa
 900 060e 73323800 		.ascii	"s28\000"
 901 0612 0A       		.byte	0xa
 902 0613 0B01     		.2byte	0x10b
 903 0615 42050000 		.4byte	0x542
 904 0619 30       		.byte	0x30
 905 061a 0A       		.uleb128 0xa
 906 061b 73323900 		.ascii	"s29\000"
 907 061f 0A       		.byte	0xa
 908 0620 0C01     		.2byte	0x10c
 909 0622 42050000 		.4byte	0x542
ARM GAS  /var/folders/m4/4md61f0s1_g0rzfghffqnxvr0000gn/T//ccoL5DmC.s 			page 17


 910 0626 34       		.byte	0x34
 911 0627 0A       		.uleb128 0xa
 912 0628 73333000 		.ascii	"s30\000"
 913 062c 0A       		.byte	0xa
 914 062d 0D01     		.2byte	0x10d
 915 062f 42050000 		.4byte	0x542
 916 0633 38       		.byte	0x38
 917 0634 0A       		.uleb128 0xa
 918 0635 73333100 		.ascii	"s31\000"
 919 0639 0A       		.byte	0xa
 920 063a 0E01     		.2byte	0x10e
 921 063c 42050000 		.4byte	0x542
 922 0640 3C       		.byte	0x3c
 923 0641 0A       		.uleb128 0xa
 924 0642 723400   		.ascii	"r4\000"
 925 0645 0A       		.byte	0xa
 926 0646 1001     		.2byte	0x110
 927 0648 42050000 		.4byte	0x542
 928 064c 40       		.byte	0x40
 929 064d 0A       		.uleb128 0xa
 930 064e 723500   		.ascii	"r5\000"
 931 0651 0A       		.byte	0xa
 932 0652 1101     		.2byte	0x111
 933 0654 42050000 		.4byte	0x542
 934 0658 44       		.byte	0x44
 935 0659 0A       		.uleb128 0xa
 936 065a 723600   		.ascii	"r6\000"
 937 065d 0A       		.byte	0xa
 938 065e 1201     		.2byte	0x112
 939 0660 42050000 		.4byte	0x542
 940 0664 48       		.byte	0x48
 941 0665 0A       		.uleb128 0xa
 942 0666 723700   		.ascii	"r7\000"
 943 0669 0A       		.byte	0xa
 944 066a 1301     		.2byte	0x113
 945 066c 42050000 		.4byte	0x542
 946 0670 4C       		.byte	0x4c
 947 0671 0A       		.uleb128 0xa
 948 0672 723800   		.ascii	"r8\000"
 949 0675 0A       		.byte	0xa
 950 0676 1401     		.2byte	0x114
 951 0678 42050000 		.4byte	0x542
 952 067c 50       		.byte	0x50
 953 067d 0A       		.uleb128 0xa
 954 067e 723900   		.ascii	"r9\000"
 955 0681 0A       		.byte	0xa
 956 0682 1501     		.2byte	0x115
 957 0684 42050000 		.4byte	0x542
 958 0688 54       		.byte	0x54
 959 0689 0A       		.uleb128 0xa
 960 068a 72313000 		.ascii	"r10\000"
 961 068e 0A       		.byte	0xa
 962 068f 1601     		.2byte	0x116
 963 0691 42050000 		.4byte	0x542
 964 0695 58       		.byte	0x58
 965 0696 0A       		.uleb128 0xa
 966 0697 72313100 		.ascii	"r11\000"
ARM GAS  /var/folders/m4/4md61f0s1_g0rzfghffqnxvr0000gn/T//ccoL5DmC.s 			page 18


 967 069b 0A       		.byte	0xa
 968 069c 1701     		.2byte	0x117
 969 069e 42050000 		.4byte	0x542
 970 06a2 5C       		.byte	0x5c
 971 06a3 0A       		.uleb128 0xa
 972 06a4 6C7200   		.ascii	"lr\000"
 973 06a7 0A       		.byte	0xa
 974 06a8 1801     		.2byte	0x118
 975 06aa 42050000 		.4byte	0x542
 976 06ae 60       		.byte	0x60
 977 06af 00       		.byte	0
 978 06b0 0C       		.uleb128 0xc
 979 06b1 04       		.byte	0x4
 980 06b2 66050000 		.4byte	0x566
 981 06b6 18       		.uleb128 0x18
 982 06b7 04       		.byte	0x4
 983 06b8 0B       		.byte	0xb
 984 06b9 38       		.byte	0x38
 985 06ba 520D0000 		.4byte	.LASF122
 986 06be CF060000 		.4byte	0x6cf
 987 06c2 09       		.uleb128 0x9
 988 06c3 78050000 		.4byte	.LASF98
 989 06c7 0B       		.byte	0xb
 990 06c8 3C       		.byte	0x3c
 991 06c9 DA000000 		.4byte	0xda
 992 06cd 00       		.byte	0
 993 06ce 00       		.byte	0
 994 06cf 03       		.uleb128 0x3
 995 06d0 3B000000 		.4byte	.LASF99
 996 06d4 0B       		.byte	0xb
 997 06d5 3D       		.byte	0x3d
 998 06d6 B6060000 		.4byte	0x6b6
 999 06da 0C       		.uleb128 0xc
 1000 06db 04       		.byte	0x4
 1001 06dc C0020000 		.4byte	0x2c0
 1002 06e0 06       		.uleb128 0x6
 1003 06e1 890D0000 		.4byte	.LASF100
 1004 06e5 0C       		.byte	0xc
 1005 06e6 0C       		.byte	0xc
 1006 06e7 34       		.byte	0x34
 1007 06e8 05070000 		.4byte	0x705
 1008 06ec 09       		.uleb128 0x9
 1009 06ed A40C0000 		.4byte	.LASF101
 1010 06f1 0C       		.byte	0xc
 1011 06f2 35       		.byte	0x35
 1012 06f3 F5020000 		.4byte	0x2f5
 1013 06f7 00       		.byte	0
 1014 06f8 09       		.uleb128 0x9
 1015 06f9 25030000 		.4byte	.LASF102
 1016 06fd 0C       		.byte	0xc
 1017 06fe 37       		.byte	0x37
 1018 06ff 3D010000 		.4byte	0x13d
 1019 0703 08       		.byte	0x8
 1020 0704 00       		.byte	0
 1021 0705 0C       		.uleb128 0xc
 1022 0706 04       		.byte	0x4
 1023 0707 E0060000 		.4byte	0x6e0
ARM GAS  /var/folders/m4/4md61f0s1_g0rzfghffqnxvr0000gn/T//ccoL5DmC.s 			page 19


 1024 070b 06       		.uleb128 0x6
 1025 070c CF050000 		.4byte	.LASF103
 1026 0710 10       		.byte	0x10
 1027 0711 0D       		.byte	0xd
 1028 0712 39       		.byte	0x39
 1029 0713 3C070000 		.4byte	0x73c
 1030 0717 09       		.uleb128 0x9
 1031 0718 D60B0000 		.4byte	.LASF104
 1032 071c 0D       		.byte	0xd
 1033 071d 3A       		.byte	0x3a
 1034 071e F5020000 		.4byte	0x2f5
 1035 0722 00       		.byte	0
 1036 0723 09       		.uleb128 0x9
 1037 0724 03010000 		.4byte	.LASF105
 1038 0728 0D       		.byte	0xd
 1039 0729 3C       		.byte	0x3c
 1040 072a CB020000 		.4byte	0x2cb
 1041 072e 08       		.byte	0x8
 1042 072f 09       		.uleb128 0x9
 1043 0730 3B0F0000 		.4byte	.LASF106
 1044 0734 0D       		.byte	0xd
 1045 0735 3E       		.byte	0x3e
 1046 0736 7F070000 		.4byte	0x77f
 1047 073a 0C       		.byte	0xc
 1048 073b 00       		.byte	0
 1049 073c 0C       		.uleb128 0xc
 1050 073d 04       		.byte	0x4
 1051 073e 0B070000 		.4byte	0x70b
 1052 0742 0C       		.uleb128 0xc
 1053 0743 04       		.byte	0x4
 1054 0744 4F070000 		.4byte	0x74f
 1055 0748 04       		.uleb128 0x4
 1056 0749 01       		.byte	0x1
 1057 074a 08       		.byte	0x8
 1058 074b 63000000 		.4byte	.LASF107
 1059 074f 19       		.uleb128 0x19
 1060 0750 48070000 		.4byte	0x748
 1061 0754 12       		.uleb128 0x12
 1062 0755 48010000 		.4byte	0x148
 1063 0759 0C       		.uleb128 0xc
 1064 075a 04       		.byte	0x4
 1065 075b AA030000 		.4byte	0x3aa
 1066 075f 12       		.uleb128 0x12
 1067 0760 42070000 		.4byte	0x742
 1068 0764 13       		.uleb128 0x13
 1069 0765 A7000000 		.4byte	0xa7
 1070 0769 74070000 		.4byte	0x774
 1071 076d 14       		.uleb128 0x14
 1072 076e DE040000 		.4byte	0x4de
 1073 0772 3A       		.byte	0x3a
 1074 0773 00       		.byte	0
 1075 0774 03       		.uleb128 0x3
 1076 0775 B50D0000 		.4byte	.LASF108
 1077 0779 0D       		.byte	0xd
 1078 077a 34       		.byte	0x34
 1079 077b 0B070000 		.4byte	0x70b
 1080 077f 0C       		.uleb128 0xc
ARM GAS  /var/folders/m4/4md61f0s1_g0rzfghffqnxvr0000gn/T//ccoL5DmC.s 			page 20


 1081 0780 04       		.byte	0x4
 1082 0781 74070000 		.4byte	0x774
 1083 0785 03       		.uleb128 0x3
 1084 0786 390D0000 		.4byte	.LASF109
 1085 078a 0E       		.byte	0xe
 1086 078b 34       		.byte	0x34
 1087 078c 90070000 		.4byte	0x790
 1088 0790 06       		.uleb128 0x6
 1089 0791 73100000 		.4byte	.LASF110
 1090 0795 14       		.byte	0x14
 1091 0796 0E       		.byte	0xe
 1092 0797 39       		.byte	0x39
 1093 0798 D9070000 		.4byte	0x7d9
 1094 079c 09       		.uleb128 0x9
 1095 079d 86090000 		.4byte	.LASF111
 1096 07a1 0E       		.byte	0xe
 1097 07a2 3A       		.byte	0x3a
 1098 07a3 D9070000 		.4byte	0x7d9
 1099 07a7 00       		.byte	0
 1100 07a8 09       		.uleb128 0x9
 1101 07a9 D60F0000 		.4byte	.LASF112
 1102 07ad 0E       		.byte	0xe
 1103 07ae 3D       		.byte	0x3d
 1104 07af CB020000 		.4byte	0x2cb
 1105 07b3 04       		.byte	0x4
 1106 07b4 09       		.uleb128 0x9
 1107 07b5 160E0000 		.4byte	.LASF113
 1108 07b9 0E       		.byte	0xe
 1109 07ba 3F       		.byte	0x3f
 1110 07bb 27010000 		.4byte	0x127
 1111 07bf 08       		.byte	0x8
 1112 07c0 09       		.uleb128 0x9
 1113 07c1 8A100000 		.4byte	.LASF114
 1114 07c5 0E       		.byte	0xe
 1115 07c6 41       		.byte	0x41
 1116 07c7 32010000 		.4byte	0x132
 1117 07cb 0C       		.byte	0xc
 1118 07cc 09       		.uleb128 0x9
 1119 07cd 1D0C0000 		.4byte	.LASF115
 1120 07d1 0E       		.byte	0xe
 1121 07d2 43       		.byte	0x43
 1122 07d3 32010000 		.4byte	0x132
 1123 07d7 10       		.byte	0x10
 1124 07d8 00       		.byte	0
 1125 07d9 0C       		.uleb128 0xc
 1126 07da 04       		.byte	0x4
 1127 07db 85070000 		.4byte	0x785
 1128 07df 06       		.uleb128 0x6
 1129 07e0 A80D0000 		.4byte	.LASF116
 1130 07e4 04       		.byte	0x4
 1131 07e5 0E       		.byte	0xe
 1132 07e6 4A       		.byte	0x4a
 1133 07e7 F8070000 		.4byte	0x7f8
 1134 07eb 09       		.uleb128 0x9
 1135 07ec 94090000 		.4byte	.LASF117
 1136 07f0 0E       		.byte	0xe
 1137 07f1 4B       		.byte	0x4b
ARM GAS  /var/folders/m4/4md61f0s1_g0rzfghffqnxvr0000gn/T//ccoL5DmC.s 			page 21


 1138 07f2 D9070000 		.4byte	0x7d9
 1139 07f6 00       		.byte	0
 1140 07f7 00       		.byte	0
 1141 07f8 03       		.uleb128 0x3
 1142 07f9 78040000 		.4byte	.LASF118
 1143 07fd 0E       		.byte	0xe
 1144 07fe 4E       		.byte	0x4e
 1145 07ff DF070000 		.4byte	0x7df
 1146 0803 12       		.uleb128 0x12
 1147 0804 2C000000 		.4byte	0x2c
 1148 0808 0C       		.uleb128 0xc
 1149 0809 04       		.byte	0x4
 1150 080a AE000000 		.4byte	0xae
 1151 080e 06       		.uleb128 0x6
 1152 080f EA010000 		.4byte	.LASF119
 1153 0813 10       		.byte	0x10
 1154 0814 0F       		.byte	0xf
 1155 0815 40       		.byte	0x40
 1156 0816 4B080000 		.4byte	0x84b
 1157 081a 09       		.uleb128 0x9
 1158 081b 06080000 		.4byte	.LASF120
 1159 081f 0F       		.byte	0xf
 1160 0820 41       		.byte	0x41
 1161 0821 6F080000 		.4byte	0x86f
 1162 0825 00       		.byte	0
 1163 0826 09       		.uleb128 0x9
 1164 0827 DD0C0000 		.4byte	.LASF121
 1165 082b 0F       		.byte	0xf
 1166 082c 41       		.byte	0x41
 1167 082d 8E080000 		.4byte	0x88e
 1168 0831 04       		.byte	0x4
 1169 0832 17       		.uleb128 0x17
 1170 0833 70757400 		.ascii	"put\000"
 1171 0837 0F       		.byte	0xf
 1172 0838 41       		.byte	0x41
 1173 0839 A8080000 		.4byte	0x8a8
 1174 083d 08       		.byte	0x8
 1175 083e 17       		.uleb128 0x17
 1176 083f 67657400 		.ascii	"get\000"
 1177 0843 0F       		.byte	0xf
 1178 0844 41       		.byte	0x41
 1179 0845 BD080000 		.4byte	0x8bd
 1180 0849 0C       		.byte	0xc
 1181 084a 00       		.byte	0
 1182 084b 1A       		.uleb128 0x1a
 1183 084c 2C000000 		.4byte	0x2c
 1184 0850 64080000 		.4byte	0x864
 1185 0854 0F       		.uleb128 0xf
 1186 0855 A8030000 		.4byte	0x3a8
 1187 0859 0F       		.uleb128 0xf
 1188 085a 64080000 		.4byte	0x864
 1189 085e 0F       		.uleb128 0xf
 1190 085f 2C000000 		.4byte	0x2c
 1191 0863 00       		.byte	0
 1192 0864 0C       		.uleb128 0xc
 1193 0865 04       		.byte	0x4
 1194 0866 6A080000 		.4byte	0x86a
ARM GAS  /var/folders/m4/4md61f0s1_g0rzfghffqnxvr0000gn/T//ccoL5DmC.s 			page 22


 1195 086a 19       		.uleb128 0x19
 1196 086b AE000000 		.4byte	0xae
 1197 086f 0C       		.uleb128 0xc
 1198 0870 04       		.byte	0x4
 1199 0871 4B080000 		.4byte	0x84b
 1200 0875 1A       		.uleb128 0x1a
 1201 0876 2C000000 		.4byte	0x2c
 1202 087a 8E080000 		.4byte	0x88e
 1203 087e 0F       		.uleb128 0xf
 1204 087f A8030000 		.4byte	0x3a8
 1205 0883 0F       		.uleb128 0xf
 1206 0884 08080000 		.4byte	0x808
 1207 0888 0F       		.uleb128 0xf
 1208 0889 2C000000 		.4byte	0x2c
 1209 088d 00       		.byte	0
 1210 088e 0C       		.uleb128 0xc
 1211 088f 04       		.byte	0x4
 1212 0890 75080000 		.4byte	0x875
 1213 0894 1A       		.uleb128 0x1a
 1214 0895 1C010000 		.4byte	0x11c
 1215 0899 A8080000 		.4byte	0x8a8
 1216 089d 0F       		.uleb128 0xf
 1217 089e A8030000 		.4byte	0x3a8
 1218 08a2 0F       		.uleb128 0xf
 1219 08a3 AE000000 		.4byte	0xae
 1220 08a7 00       		.byte	0
 1221 08a8 0C       		.uleb128 0xc
 1222 08a9 04       		.byte	0x4
 1223 08aa 94080000 		.4byte	0x894
 1224 08ae 1A       		.uleb128 0x1a
 1225 08af 1C010000 		.4byte	0x11c
 1226 08b3 BD080000 		.4byte	0x8bd
 1227 08b7 0F       		.uleb128 0xf
 1228 08b8 A8030000 		.4byte	0x3a8
 1229 08bc 00       		.byte	0
 1230 08bd 0C       		.uleb128 0xc
 1231 08be 04       		.byte	0x4
 1232 08bf AE080000 		.4byte	0x8ae
 1233 08c3 18       		.uleb128 0x18
 1234 08c4 04       		.byte	0x4
 1235 08c5 0F       		.byte	0xf
 1236 08c6 49       		.byte	0x49
 1237 08c7 47100000 		.4byte	.LASF123
 1238 08cb DC080000 		.4byte	0x8dc
 1239 08cf 17       		.uleb128 0x17
 1240 08d0 766D7400 		.ascii	"vmt\000"
 1241 08d4 0F       		.byte	0xf
 1242 08d5 4B       		.byte	0x4b
 1243 08d6 DC080000 		.4byte	0x8dc
 1244 08da 00       		.byte	0
 1245 08db 00       		.byte	0
 1246 08dc 0C       		.uleb128 0xc
 1247 08dd 04       		.byte	0x4
 1248 08de E2080000 		.4byte	0x8e2
 1249 08e2 19       		.uleb128 0x19
 1250 08e3 0E080000 		.4byte	0x80e
 1251 08e7 03       		.uleb128 0x3
ARM GAS  /var/folders/m4/4md61f0s1_g0rzfghffqnxvr0000gn/T//ccoL5DmC.s 			page 23


 1252 08e8 65060000 		.4byte	.LASF124
 1253 08ec 0F       		.byte	0xf
 1254 08ed 4D       		.byte	0x4d
 1255 08ee C3080000 		.4byte	0x8c3
 1256 08f2 1A       		.uleb128 0x1a
 1257 08f3 1C010000 		.4byte	0x11c
 1258 08f7 0B090000 		.4byte	0x90b
 1259 08fb 0F       		.uleb128 0xf
 1260 08fc A8030000 		.4byte	0x3a8
 1261 0900 0F       		.uleb128 0xf
 1262 0901 AE000000 		.4byte	0xae
 1263 0905 0F       		.uleb128 0xf
 1264 0906 48010000 		.4byte	0x148
 1265 090a 00       		.byte	0
 1266 090b 0C       		.uleb128 0xc
 1267 090c 04       		.byte	0x4
 1268 090d F2080000 		.4byte	0x8f2
 1269 0911 1A       		.uleb128 0x1a
 1270 0912 1C010000 		.4byte	0x11c
 1271 0916 25090000 		.4byte	0x925
 1272 091a 0F       		.uleb128 0xf
 1273 091b A8030000 		.4byte	0x3a8
 1274 091f 0F       		.uleb128 0xf
 1275 0920 48010000 		.4byte	0x148
 1276 0924 00       		.byte	0
 1277 0925 0C       		.uleb128 0xc
 1278 0926 04       		.byte	0x4
 1279 0927 11090000 		.4byte	0x911
 1280 092b 1A       		.uleb128 0x1a
 1281 092c 2C000000 		.4byte	0x2c
 1282 0930 49090000 		.4byte	0x949
 1283 0934 0F       		.uleb128 0xf
 1284 0935 A8030000 		.4byte	0x3a8
 1285 0939 0F       		.uleb128 0xf
 1286 093a 64080000 		.4byte	0x864
 1287 093e 0F       		.uleb128 0xf
 1288 093f 2C000000 		.4byte	0x2c
 1289 0943 0F       		.uleb128 0xf
 1290 0944 48010000 		.4byte	0x148
 1291 0948 00       		.byte	0
 1292 0949 0C       		.uleb128 0xc
 1293 094a 04       		.byte	0x4
 1294 094b 2B090000 		.4byte	0x92b
 1295 094f 1A       		.uleb128 0x1a
 1296 0950 2C000000 		.4byte	0x2c
 1297 0954 6D090000 		.4byte	0x96d
 1298 0958 0F       		.uleb128 0xf
 1299 0959 A8030000 		.4byte	0x3a8
 1300 095d 0F       		.uleb128 0xf
 1301 095e 08080000 		.4byte	0x808
 1302 0962 0F       		.uleb128 0xf
 1303 0963 2C000000 		.4byte	0x2c
 1304 0967 0F       		.uleb128 0xf
 1305 0968 48010000 		.4byte	0x148
 1306 096c 00       		.byte	0
 1307 096d 0C       		.uleb128 0xc
 1308 096e 04       		.byte	0x4
ARM GAS  /var/folders/m4/4md61f0s1_g0rzfghffqnxvr0000gn/T//ccoL5DmC.s 			page 24


 1309 096f 4F090000 		.4byte	0x94f
 1310 0973 04       		.uleb128 0x4
 1311 0974 01       		.byte	0x1
 1312 0975 02       		.byte	0x2
 1313 0976 71080000 		.4byte	.LASF125
 1314 097a 03       		.uleb128 0x3
 1315 097b 6A0A0000 		.4byte	.LASF126
 1316 097f 10       		.byte	0x10
 1317 0980 2F       		.byte	0x2f
 1318 0981 85090000 		.4byte	0x985
 1319 0985 06       		.uleb128 0x6
 1320 0986 AC0C0000 		.4byte	.LASF127
 1321 098a 34       		.byte	0x34
 1322 098b 10       		.byte	0x10
 1323 098c 3B       		.byte	0x3b
 1324 098d 210A0000 		.4byte	0xa21
 1325 0991 09       		.uleb128 0x9
 1326 0992 FA0D0000 		.4byte	.LASF128
 1327 0996 10       		.byte	0x10
 1328 0997 3F       		.byte	0x3f
 1329 0998 F5020000 		.4byte	0x2f5
 1330 099c 00       		.byte	0
 1331 099d 09       		.uleb128 0x9
 1332 099e CA0C0000 		.4byte	.LASF129
 1333 09a2 10       		.byte	0x10
 1334 09a3 43       		.byte	0x43
 1335 09a4 03080000 		.4byte	0x803
 1336 09a8 08       		.byte	0x8
 1337 09a9 09       		.uleb128 0x9
 1338 09aa F0030000 		.4byte	.LASF130
 1339 09ae 10       		.byte	0x10
 1340 09af 47       		.byte	0x47
 1341 09b0 08080000 		.4byte	0x808
 1342 09b4 0C       		.byte	0xc
 1343 09b5 09       		.uleb128 0x9
 1344 09b6 340F0000 		.4byte	.LASF131
 1345 09ba 10       		.byte	0x10
 1346 09bb 4B       		.byte	0x4b
 1347 09bc 08080000 		.4byte	0x808
 1348 09c0 10       		.byte	0x10
 1349 09c1 09       		.uleb128 0x9
 1350 09c2 52080000 		.4byte	.LASF132
 1351 09c6 10       		.byte	0x10
 1352 09c7 4F       		.byte	0x4f
 1353 09c8 08080000 		.4byte	0x808
 1354 09cc 14       		.byte	0x14
 1355 09cd 09       		.uleb128 0x9
 1356 09ce FE0E0000 		.4byte	.LASF133
 1357 09d2 10       		.byte	0x10
 1358 09d3 56       		.byte	0x56
 1359 09d4 2C000000 		.4byte	0x2c
 1360 09d8 18       		.byte	0x18
 1361 09d9 17       		.uleb128 0x17
 1362 09da 626E00   		.ascii	"bn\000"
 1363 09dd 10       		.byte	0x10
 1364 09de 5A       		.byte	0x5a
 1365 09df 2C000000 		.4byte	0x2c
ARM GAS  /var/folders/m4/4md61f0s1_g0rzfghffqnxvr0000gn/T//ccoL5DmC.s 			page 25


 1366 09e3 1C       		.byte	0x1c
 1367 09e4 09       		.uleb128 0x9
 1368 09e5 F00E0000 		.4byte	.LASF134
 1369 09e9 10       		.byte	0x10
 1370 09ea 5E       		.byte	0x5e
 1371 09eb 08080000 		.4byte	0x808
 1372 09ef 20       		.byte	0x20
 1373 09f0 17       		.uleb128 0x17
 1374 09f1 70747200 		.ascii	"ptr\000"
 1375 09f5 10       		.byte	0x10
 1376 09f6 63       		.byte	0x63
 1377 09f7 08080000 		.4byte	0x808
 1378 09fb 24       		.byte	0x24
 1379 09fc 17       		.uleb128 0x17
 1380 09fd 746F7000 		.ascii	"top\000"
 1381 0a01 10       		.byte	0x10
 1382 0a02 67       		.byte	0x67
 1383 0a03 08080000 		.4byte	0x808
 1384 0a07 28       		.byte	0x28
 1385 0a08 09       		.uleb128 0x9
 1386 0a09 980C0000 		.4byte	.LASF135
 1387 0a0d 10       		.byte	0x10
 1388 0a0e 6B       		.byte	0x6b
 1389 0a0f 210A0000 		.4byte	0xa21
 1390 0a13 2C       		.byte	0x2c
 1391 0a14 09       		.uleb128 0x9
 1392 0a15 280E0000 		.4byte	.LASF136
 1393 0a19 10       		.byte	0x10
 1394 0a1a 6F       		.byte	0x6f
 1395 0a1b A8030000 		.4byte	0x3a8
 1396 0a1f 30       		.byte	0x30
 1397 0a20 00       		.byte	0
 1398 0a21 03       		.uleb128 0x3
 1399 0a22 63090000 		.4byte	.LASF137
 1400 0a26 10       		.byte	0x10
 1401 0a27 36       		.byte	0x36
 1402 0a28 2C0A0000 		.4byte	0xa2c
 1403 0a2c 0C       		.uleb128 0xc
 1404 0a2d 04       		.byte	0x4
 1405 0a2e 320A0000 		.4byte	0xa32
 1406 0a32 0E       		.uleb128 0xe
 1407 0a33 3D0A0000 		.4byte	0xa3d
 1408 0a37 0F       		.uleb128 0xf
 1409 0a38 3D0A0000 		.4byte	0xa3d
 1410 0a3c 00       		.byte	0
 1411 0a3d 0C       		.uleb128 0xc
 1412 0a3e 04       		.byte	0x4
 1413 0a3f 7A090000 		.4byte	0x97a
 1414 0a43 03       		.uleb128 0x3
 1415 0a44 4F060000 		.4byte	.LASF138
 1416 0a48 10       		.byte	0x10
 1417 0a49 75       		.byte	0x75
 1418 0a4a 7A090000 		.4byte	0x97a
 1419 0a4e 03       		.uleb128 0x3
 1420 0a4f 18050000 		.4byte	.LASF139
 1421 0a53 10       		.byte	0x10
 1422 0a54 7A       		.byte	0x7a
ARM GAS  /var/folders/m4/4md61f0s1_g0rzfghffqnxvr0000gn/T//ccoL5DmC.s 			page 26


 1423 0a55 7A090000 		.4byte	0x97a
 1424 0a59 1B       		.uleb128 0x1b
 1425 0a5a 550F0000 		.4byte	.LASF140
 1426 0a5e 11       		.byte	0x11
 1427 0a5f 0001     		.2byte	0x100
 1428 0a61 650A0000 		.4byte	0xa65
 1429 0a65 11       		.uleb128 0x11
 1430 0a66 550F0000 		.4byte	.LASF140
 1431 0a6a 8002     		.2byte	0x280
 1432 0a6c 12       		.byte	0x12
 1433 0a6d 7201     		.2byte	0x172
 1434 0a6f 910B0000 		.4byte	0xb91
 1435 0a73 0B       		.uleb128 0xb
 1436 0a74 960D0000 		.4byte	.LASF141
 1437 0a78 12       		.byte	0x12
 1438 0a79 7601     		.2byte	0x176
 1439 0a7b D30B0000 		.4byte	0xbd3
 1440 0a7f 00       		.byte	0
 1441 0a80 0B       		.uleb128 0xb
 1442 0a81 630A0000 		.4byte	.LASF142
 1443 0a85 12       		.byte	0x12
 1444 0a86 7A01     		.2byte	0x17a
 1445 0a88 5C140000 		.4byte	0x145c
 1446 0a8c 04       		.byte	0x4
 1447 0a8d 0B       		.uleb128 0xb
 1448 0a8e 2C040000 		.4byte	.LASF143
 1449 0a92 12       		.byte	0x12
 1450 0a93 7E01     		.2byte	0x17e
 1451 0a95 B9000000 		.4byte	0xb9
 1452 0a99 08       		.byte	0x8
 1453 0a9a 0B       		.uleb128 0xb
 1454 0a9b 65040000 		.4byte	.LASF144
 1455 0a9f 12       		.byte	0x12
 1456 0aa0 8201     		.2byte	0x182
 1457 0aa2 B9000000 		.4byte	0xb9
 1458 0aa6 0A       		.byte	0xa
 1459 0aa7 0A       		.uleb128 0xa
 1460 0aa8 65706300 		.ascii	"epc\000"
 1461 0aac 12       		.byte	0x12
 1462 0aad 8601     		.2byte	0x186
 1463 0aaf 67140000 		.4byte	0x1467
 1464 0ab3 0C       		.byte	0xc
 1465 0ab4 0B       		.uleb128 0xb
 1466 0ab5 AC080000 		.4byte	.LASF145
 1467 0ab9 12       		.byte	0x12
 1468 0aba 8D01     		.2byte	0x18d
 1469 0abc 82140000 		.4byte	0x1482
 1470 0ac0 1C       		.byte	0x1c
 1471 0ac1 0B       		.uleb128 0xb
 1472 0ac2 71010000 		.4byte	.LASF146
 1473 0ac6 12       		.byte	0x12
 1474 0ac7 9401     		.2byte	0x194
 1475 0ac9 82140000 		.4byte	0x1482
 1476 0acd 28       		.byte	0x28
 1477 0ace 0B       		.uleb128 0xb
 1478 0acf BC090000 		.4byte	.LASF147
 1479 0ad3 12       		.byte	0x12
ARM GAS  /var/folders/m4/4md61f0s1_g0rzfghffqnxvr0000gn/T//ccoL5DmC.s 			page 27


 1480 0ad4 9801     		.2byte	0x198
 1481 0ad6 1B0C0000 		.4byte	0xc1b
 1482 0ada 34       		.byte	0x34
 1483 0adb 0B       		.uleb128 0xb
 1484 0adc 20070000 		.4byte	.LASF148
 1485 0ae0 12       		.byte	0x12
 1486 0ae1 9C01     		.2byte	0x19c
 1487 0ae3 08080000 		.4byte	0x808
 1488 0ae7 38       		.byte	0x38
 1489 0ae8 0B       		.uleb128 0xb
 1490 0ae9 66080000 		.4byte	.LASF149
 1491 0aed 12       		.byte	0x12
 1492 0aee A001     		.2byte	0x1a0
 1493 0af0 2C000000 		.4byte	0x2c
 1494 0af4 3C       		.byte	0x3c
 1495 0af5 0B       		.uleb128 0xb
 1496 0af6 3F020000 		.4byte	.LASF150
 1497 0afa 12       		.byte	0x12
 1498 0afb A401     		.2byte	0x1a4
 1499 0afd 9D0C0000 		.4byte	0xc9d
 1500 0b01 40       		.byte	0x40
 1501 0b02 0B       		.uleb128 0xb
 1502 0b03 C5030000 		.4byte	.LASF151
 1503 0b07 12       		.byte	0x12
 1504 0b08 A801     		.2byte	0x1a8
 1505 0b0a 92140000 		.4byte	0x1492
 1506 0b0e 44       		.byte	0x44
 1507 0b0f 0B       		.uleb128 0xb
 1508 0b10 6E070000 		.4byte	.LASF152
 1509 0b14 12       		.byte	0x12
 1510 0b15 AC01     		.2byte	0x1ac
 1511 0b17 B9000000 		.4byte	0xb9
 1512 0b1b 4C       		.byte	0x4c
 1513 0b1c 0B       		.uleb128 0xb
 1514 0b1d 4A0D0000 		.4byte	.LASF153
 1515 0b21 12       		.byte	0x12
 1516 0b22 B001     		.2byte	0x1b0
 1517 0b24 AE000000 		.4byte	0xae
 1518 0b28 4E       		.byte	0x4e
 1519 0b29 0B       		.uleb128 0xb
 1520 0b2a 91050000 		.4byte	.LASF154
 1521 0b2e 12       		.byte	0x12
 1522 0b2f B401     		.2byte	0x1b4
 1523 0b31 AE000000 		.4byte	0xae
 1524 0b35 4F       		.byte	0x4f
 1525 0b36 0A       		.uleb128 0xa
 1526 0b37 6F746700 		.ascii	"otg\000"
 1527 0b3b 12       		.byte	0x12
 1528 0b3c BC01     		.2byte	0x1bc
 1529 0b3e A2140000 		.4byte	0x14a2
 1530 0b42 50       		.byte	0x50
 1531 0b43 0B       		.uleb128 0xb
 1532 0b44 860F0000 		.4byte	.LASF155
 1533 0b48 12       		.byte	0x12
 1534 0b49 C001     		.2byte	0x1c0
 1535 0b4b A8140000 		.4byte	0x14a8
 1536 0b4f 54       		.byte	0x54
ARM GAS  /var/folders/m4/4md61f0s1_g0rzfghffqnxvr0000gn/T//ccoL5DmC.s 			page 28


 1537 0b50 0B       		.uleb128 0xb
 1538 0b51 DD0D0000 		.4byte	.LASF156
 1539 0b55 12       		.byte	0x12
 1540 0b56 C401     		.2byte	0x1c4
 1541 0b58 CF000000 		.4byte	0xcf
 1542 0b5c 58       		.byte	0x58
 1543 0b5d 0B       		.uleb128 0xb
 1544 0b5e 2D0E0000 		.4byte	.LASF157
 1545 0b62 12       		.byte	0x12
 1546 0b63 C801     		.2byte	0x1c8
 1547 0b65 CF000000 		.4byte	0xcf
 1548 0b69 5C       		.byte	0x5c
 1549 0b6a 0B       		.uleb128 0xb
 1550 0b6b 79090000 		.4byte	.LASF158
 1551 0b6f 12       		.byte	0x12
 1552 0b70 CC01     		.2byte	0x1cc
 1553 0b72 C0020000 		.4byte	0x2c0
 1554 0b76 60       		.byte	0x60
 1555 0b77 0A       		.uleb128 0xa
 1556 0b78 747200   		.ascii	"tr\000"
 1557 0b7b 12       		.byte	0x12
 1558 0b7c D101     		.2byte	0x1d1
 1559 0b7e C0020000 		.4byte	0x2c0
 1560 0b82 64       		.byte	0x64
 1561 0b83 0B       		.uleb128 0xb
 1562 0b84 EB0F0000 		.4byte	.LASF159
 1563 0b88 12       		.byte	0x12
 1564 0b89 D501     		.2byte	0x1d5
 1565 0b8b B3140000 		.4byte	0x14b3
 1566 0b8f 68       		.byte	0x68
 1567 0b90 00       		.byte	0
 1568 0b91 1B       		.uleb128 0x1b
 1569 0b92 200E0000 		.4byte	.LASF160
 1570 0b96 11       		.byte	0x11
 1571 0b97 0501     		.2byte	0x105
 1572 0b99 AE000000 		.4byte	0xae
 1573 0b9d 1C       		.uleb128 0x1c
 1574 0b9e 01       		.byte	0x1
 1575 0b9f 63000000 		.4byte	0x63
 1576 0ba3 11       		.byte	0x11
 1577 0ba4 0A01     		.2byte	0x10a
 1578 0ba6 84050000 		.4byte	.LASF168
 1579 0baa D30B0000 		.4byte	0xbd3
 1580 0bae 16       		.uleb128 0x16
 1581 0baf 93000000 		.4byte	.LASF161
 1582 0bb3 00       		.byte	0
 1583 0bb4 16       		.uleb128 0x16
 1584 0bb5 9C100000 		.4byte	.LASF162
 1585 0bb9 01       		.byte	0x1
 1586 0bba 16       		.uleb128 0x16
 1587 0bbb B3000000 		.4byte	.LASF163
 1588 0bbf 02       		.byte	0x2
 1589 0bc0 16       		.uleb128 0x16
 1590 0bc1 BD0C0000 		.4byte	.LASF164
 1591 0bc5 03       		.byte	0x3
 1592 0bc6 16       		.uleb128 0x16
 1593 0bc7 9F050000 		.4byte	.LASF165
ARM GAS  /var/folders/m4/4md61f0s1_g0rzfghffqnxvr0000gn/T//ccoL5DmC.s 			page 29


 1594 0bcb 04       		.byte	0x4
 1595 0bcc 16       		.uleb128 0x16
 1596 0bcd 39090000 		.4byte	.LASF166
 1597 0bd1 05       		.byte	0x5
 1598 0bd2 00       		.byte	0
 1599 0bd3 1B       		.uleb128 0x1b
 1600 0bd4 D3070000 		.4byte	.LASF167
 1601 0bd8 11       		.byte	0x11
 1602 0bd9 1101     		.2byte	0x111
 1603 0bdb 9D0B0000 		.4byte	0xb9d
 1604 0bdf 1C       		.uleb128 0x1c
 1605 0be0 01       		.byte	0x1
 1606 0be1 63000000 		.4byte	0x63
 1607 0be5 11       		.byte	0x11
 1608 0be6 1F01     		.2byte	0x11f
 1609 0be8 0C090000 		.4byte	.LASF169
 1610 0bec 1B0C0000 		.4byte	0xc1b
 1611 0bf0 16       		.uleb128 0x16
 1612 0bf1 FA020000 		.4byte	.LASF170
 1613 0bf5 00       		.byte	0
 1614 0bf6 16       		.uleb128 0x16
 1615 0bf7 32010000 		.4byte	.LASF171
 1616 0bfb 01       		.byte	0x1
 1617 0bfc 16       		.uleb128 0x16
 1618 0bfd DC030000 		.4byte	.LASF172
 1619 0c01 02       		.byte	0x2
 1620 0c02 16       		.uleb128 0x16
 1621 0c03 06060000 		.4byte	.LASF173
 1622 0c07 03       		.byte	0x3
 1623 0c08 16       		.uleb128 0x16
 1624 0c09 23100000 		.4byte	.LASF174
 1625 0c0d 04       		.byte	0x4
 1626 0c0e 16       		.uleb128 0x16
 1627 0c0f B40F0000 		.4byte	.LASF175
 1628 0c13 05       		.byte	0x5
 1629 0c14 16       		.uleb128 0x16
 1630 0c15 020E0000 		.4byte	.LASF176
 1631 0c19 06       		.byte	0x6
 1632 0c1a 00       		.byte	0
 1633 0c1b 1B       		.uleb128 0x1b
 1634 0c1c 39100000 		.4byte	.LASF177
 1635 0c20 11       		.byte	0x11
 1636 0c21 2701     		.2byte	0x127
 1637 0c23 DF0B0000 		.4byte	0xbdf
 1638 0c27 1C       		.uleb128 0x1c
 1639 0c28 01       		.byte	0x1
 1640 0c29 63000000 		.4byte	0x63
 1641 0c2d 11       		.byte	0x11
 1642 0c2e 2C01     		.2byte	0x12c
 1643 0c30 750D0000 		.4byte	.LASF178
 1644 0c34 5D0C0000 		.4byte	0xc5d
 1645 0c38 16       		.uleb128 0x16
 1646 0c39 C3020000 		.4byte	.LASF179
 1647 0c3d 00       		.byte	0
 1648 0c3e 16       		.uleb128 0x16
 1649 0c3f 8B060000 		.4byte	.LASF180
 1650 0c43 01       		.byte	0x1
ARM GAS  /var/folders/m4/4md61f0s1_g0rzfghffqnxvr0000gn/T//ccoL5DmC.s 			page 30


 1651 0c44 16       		.uleb128 0x16
 1652 0c45 5E100000 		.4byte	.LASF181
 1653 0c49 02       		.byte	0x2
 1654 0c4a 16       		.uleb128 0x16
 1655 0c4b C4000000 		.4byte	.LASF182
 1656 0c4f 03       		.byte	0x3
 1657 0c50 16       		.uleb128 0x16
 1658 0c51 930E0000 		.4byte	.LASF183
 1659 0c55 04       		.byte	0x4
 1660 0c56 16       		.uleb128 0x16
 1661 0c57 FA080000 		.4byte	.LASF184
 1662 0c5b 05       		.byte	0x5
 1663 0c5c 00       		.byte	0
 1664 0c5d 1B       		.uleb128 0x1b
 1665 0c5e 07100000 		.4byte	.LASF185
 1666 0c62 11       		.byte	0x11
 1667 0c63 3301     		.2byte	0x133
 1668 0c65 270C0000 		.4byte	0xc27
 1669 0c69 1D       		.uleb128 0x1d
 1670 0c6a 08       		.byte	0x8
 1671 0c6b 11       		.byte	0x11
 1672 0c6c 3801     		.2byte	0x138
 1673 0c6e 57030000 		.4byte	.LASF288
 1674 0c72 910C0000 		.4byte	0xc91
 1675 0c76 0B       		.uleb128 0xb
 1676 0c77 4F020000 		.4byte	.LASF186
 1677 0c7b 11       		.byte	0x11
 1678 0c7c 3C01     		.2byte	0x13c
 1679 0c7e 2C000000 		.4byte	0x2c
 1680 0c82 00       		.byte	0
 1681 0c83 0B       		.uleb128 0xb
 1682 0c84 890E0000 		.4byte	.LASF187
 1683 0c88 11       		.byte	0x11
 1684 0c89 4001     		.2byte	0x140
 1685 0c8b 64080000 		.4byte	0x864
 1686 0c8f 04       		.byte	0x4
 1687 0c90 00       		.byte	0
 1688 0c91 1B       		.uleb128 0x1b
 1689 0c92 F3090000 		.4byte	.LASF188
 1690 0c96 11       		.byte	0x11
 1691 0c97 4101     		.2byte	0x141
 1692 0c99 690C0000 		.4byte	0xc69
 1693 0c9d 1B       		.uleb128 0x1b
 1694 0c9e 28070000 		.4byte	.LASF189
 1695 0ca2 11       		.byte	0x11
 1696 0ca3 4901     		.2byte	0x149
 1697 0ca5 A90C0000 		.4byte	0xca9
 1698 0ca9 0C       		.uleb128 0xc
 1699 0caa 04       		.byte	0x4
 1700 0cab AF0C0000 		.4byte	0xcaf
 1701 0caf 0E       		.uleb128 0xe
 1702 0cb0 BA0C0000 		.4byte	0xcba
 1703 0cb4 0F       		.uleb128 0xf
 1704 0cb5 BA0C0000 		.4byte	0xcba
 1705 0cb9 00       		.byte	0
 1706 0cba 0C       		.uleb128 0xc
 1707 0cbb 04       		.byte	0x4
ARM GAS  /var/folders/m4/4md61f0s1_g0rzfghffqnxvr0000gn/T//ccoL5DmC.s 			page 31


 1708 0cbc 590A0000 		.4byte	0xa59
 1709 0cc0 1B       		.uleb128 0x1b
 1710 0cc1 E20C0000 		.4byte	.LASF190
 1711 0cc5 11       		.byte	0x11
 1712 0cc6 5201     		.2byte	0x152
 1713 0cc8 CC0C0000 		.4byte	0xccc
 1714 0ccc 0C       		.uleb128 0xc
 1715 0ccd 04       		.byte	0x4
 1716 0cce D20C0000 		.4byte	0xcd2
 1717 0cd2 0E       		.uleb128 0xe
 1718 0cd3 E20C0000 		.4byte	0xce2
 1719 0cd7 0F       		.uleb128 0xf
 1720 0cd8 BA0C0000 		.4byte	0xcba
 1721 0cdc 0F       		.uleb128 0xf
 1722 0cdd 910B0000 		.4byte	0xb91
 1723 0ce1 00       		.byte	0
 1724 0ce2 1B       		.uleb128 0x1b
 1725 0ce3 57020000 		.4byte	.LASF191
 1726 0ce7 11       		.byte	0x11
 1727 0ce8 5B01     		.2byte	0x15b
 1728 0cea EE0C0000 		.4byte	0xcee
 1729 0cee 0C       		.uleb128 0xc
 1730 0cef 04       		.byte	0x4
 1731 0cf0 F40C0000 		.4byte	0xcf4
 1732 0cf4 0E       		.uleb128 0xe
 1733 0cf5 040D0000 		.4byte	0xd04
 1734 0cf9 0F       		.uleb128 0xf
 1735 0cfa BA0C0000 		.4byte	0xcba
 1736 0cfe 0F       		.uleb128 0xf
 1737 0cff 5D0C0000 		.4byte	0xc5d
 1738 0d03 00       		.byte	0
 1739 0d04 1B       		.uleb128 0x1b
 1740 0d05 BD100000 		.4byte	.LASF192
 1741 0d09 11       		.byte	0x11
 1742 0d0a 6701     		.2byte	0x167
 1743 0d0c 100D0000 		.4byte	0xd10
 1744 0d10 0C       		.uleb128 0xc
 1745 0d11 04       		.byte	0x4
 1746 0d12 160D0000 		.4byte	0xd16
 1747 0d16 1A       		.uleb128 0x1a
 1748 0d17 73090000 		.4byte	0x973
 1749 0d1b 250D0000 		.4byte	0xd25
 1750 0d1f 0F       		.uleb128 0xf
 1751 0d20 BA0C0000 		.4byte	0xcba
 1752 0d24 00       		.byte	0
 1753 0d25 1B       		.uleb128 0x1b
 1754 0d26 300C0000 		.4byte	.LASF193
 1755 0d2a 11       		.byte	0x11
 1756 0d2b 6C01     		.2byte	0x16c
 1757 0d2d 310D0000 		.4byte	0xd31
 1758 0d31 0C       		.uleb128 0xc
 1759 0d32 04       		.byte	0x4
 1760 0d33 370D0000 		.4byte	0xd37
 1761 0d37 1A       		.uleb128 0x1a
 1762 0d38 550D0000 		.4byte	0xd55
 1763 0d3c 550D0000 		.4byte	0xd55
 1764 0d40 0F       		.uleb128 0xf
ARM GAS  /var/folders/m4/4md61f0s1_g0rzfghffqnxvr0000gn/T//ccoL5DmC.s 			page 32


 1765 0d41 BA0C0000 		.4byte	0xcba
 1766 0d45 0F       		.uleb128 0xf
 1767 0d46 AE000000 		.4byte	0xae
 1768 0d4a 0F       		.uleb128 0xf
 1769 0d4b AE000000 		.4byte	0xae
 1770 0d4f 0F       		.uleb128 0xf
 1771 0d50 B9000000 		.4byte	0xb9
 1772 0d54 00       		.byte	0
 1773 0d55 0C       		.uleb128 0xc
 1774 0d56 04       		.byte	0x4
 1775 0d57 5B0D0000 		.4byte	0xd5b
 1776 0d5b 19       		.uleb128 0x19
 1777 0d5c 910C0000 		.4byte	0xc91
 1778 0d60 18       		.uleb128 0x18
 1779 0d61 20       		.byte	0x20
 1780 0d62 13       		.byte	0x13
 1781 0d63 35       		.byte	0x35
 1782 0d64 BC070000 		.4byte	.LASF194
 1783 0d68 CD0D0000 		.4byte	0xdcd
 1784 0d6c 09       		.uleb128 0x9
 1785 0d6d D8050000 		.4byte	.LASF195
 1786 0d71 13       		.byte	0x13
 1787 0d72 36       		.byte	0x36
 1788 0d73 E5040000 		.4byte	0x4e5
 1789 0d77 00       		.byte	0
 1790 0d78 09       		.uleb128 0x9
 1791 0d79 BD000000 		.4byte	.LASF196
 1792 0d7d 13       		.byte	0x13
 1793 0d7e 38       		.byte	0x38
 1794 0d7f E5040000 		.4byte	0x4e5
 1795 0d83 04       		.byte	0x4
 1796 0d84 09       		.uleb128 0x9
 1797 0d85 BF0B0000 		.4byte	.LASF197
 1798 0d89 13       		.byte	0x13
 1799 0d8a 39       		.byte	0x39
 1800 0d8b E5040000 		.4byte	0x4e5
 1801 0d8f 08       		.byte	0x8
 1802 0d90 09       		.uleb128 0x9
 1803 0d91 A3080000 		.4byte	.LASF198
 1804 0d95 13       		.byte	0x13
 1805 0d96 3A       		.byte	0x3a
 1806 0d97 E5040000 		.4byte	0x4e5
 1807 0d9b 0C       		.byte	0xc
 1808 0d9c 09       		.uleb128 0x9
 1809 0d9d E0000000 		.4byte	.LASF199
 1810 0da1 13       		.byte	0x13
 1811 0da2 3C       		.byte	0x3c
 1812 0da3 E5040000 		.4byte	0x4e5
 1813 0da7 10       		.byte	0x10
 1814 0da8 09       		.uleb128 0x9
 1815 0da9 9D010000 		.4byte	.LASF200
 1816 0dad 13       		.byte	0x13
 1817 0dae 3E       		.byte	0x3e
 1818 0daf E5040000 		.4byte	0x4e5
 1819 0db3 14       		.byte	0x14
 1820 0db4 09       		.uleb128 0x9
 1821 0db5 E2010000 		.4byte	.LASF201
ARM GAS  /var/folders/m4/4md61f0s1_g0rzfghffqnxvr0000gn/T//ccoL5DmC.s 			page 33


 1822 0db9 13       		.byte	0x13
 1823 0dba 3F       		.byte	0x3f
 1824 0dbb E5040000 		.4byte	0x4e5
 1825 0dbf 18       		.byte	0x18
 1826 0dc0 09       		.uleb128 0x9
 1827 0dc1 9F020000 		.4byte	.LASF202
 1828 0dc5 13       		.byte	0x13
 1829 0dc6 40       		.byte	0x40
 1830 0dc7 E5040000 		.4byte	0x4e5
 1831 0dcb 1C       		.byte	0x1c
 1832 0dcc 00       		.byte	0
 1833 0dcd 03       		.uleb128 0x3
 1834 0dce D4080000 		.4byte	.LASF203
 1835 0dd2 13       		.byte	0x13
 1836 0dd3 41       		.byte	0x41
 1837 0dd4 600D0000 		.4byte	0xd60
 1838 0dd8 18       		.uleb128 0x18
 1839 0dd9 20       		.byte	0x20
 1840 0dda 13       		.byte	0x13
 1841 0ddb 46       		.byte	0x46
 1842 0ddc F30F0000 		.4byte	.LASF204
 1843 0de0 450E0000 		.4byte	0xe45
 1844 0de4 09       		.uleb128 0x9
 1845 0de5 150C0000 		.4byte	.LASF205
 1846 0de9 13       		.byte	0x13
 1847 0dea 47       		.byte	0x47
 1848 0deb E5040000 		.4byte	0x4e5
 1849 0def 00       		.byte	0
 1850 0df0 09       		.uleb128 0x9
 1851 0df1 A7000000 		.4byte	.LASF206
 1852 0df5 13       		.byte	0x13
 1853 0df6 49       		.byte	0x49
 1854 0df7 E5040000 		.4byte	0x4e5
 1855 0dfb 04       		.byte	0x4
 1856 0dfc 09       		.uleb128 0x9
 1857 0dfd B70E0000 		.4byte	.LASF207
 1858 0e01 13       		.byte	0x13
 1859 0e02 4A       		.byte	0x4a
 1860 0e03 E5040000 		.4byte	0x4e5
 1861 0e07 08       		.byte	0x8
 1862 0e08 09       		.uleb128 0x9
 1863 0e09 E7000000 		.4byte	.LASF208
 1864 0e0d 13       		.byte	0x13
 1865 0e0e 4C       		.byte	0x4c
 1866 0e0f E5040000 		.4byte	0x4e5
 1867 0e13 0C       		.byte	0xc
 1868 0e14 09       		.uleb128 0x9
 1869 0e15 23000000 		.4byte	.LASF209
 1870 0e19 13       		.byte	0x13
 1871 0e1a 4D       		.byte	0x4d
 1872 0e1b E5040000 		.4byte	0x4e5
 1873 0e1f 10       		.byte	0x10
 1874 0e20 09       		.uleb128 0x9
 1875 0e21 9D010000 		.4byte	.LASF200
 1876 0e25 13       		.byte	0x13
 1877 0e26 4F       		.byte	0x4f
 1878 0e27 E5040000 		.4byte	0x4e5
ARM GAS  /var/folders/m4/4md61f0s1_g0rzfghffqnxvr0000gn/T//ccoL5DmC.s 			page 34


 1879 0e2b 14       		.byte	0x14
 1880 0e2c 09       		.uleb128 0x9
 1881 0e2d B6080000 		.4byte	.LASF210
 1882 0e31 13       		.byte	0x13
 1883 0e32 50       		.byte	0x50
 1884 0e33 E5040000 		.4byte	0x4e5
 1885 0e37 18       		.byte	0x18
 1886 0e38 09       		.uleb128 0x9
 1887 0e39 1B020000 		.4byte	.LASF211
 1888 0e3d 13       		.byte	0x13
 1889 0e3e 52       		.byte	0x52
 1890 0e3f E5040000 		.4byte	0x4e5
 1891 0e43 1C       		.byte	0x1c
 1892 0e44 00       		.byte	0
 1893 0e45 03       		.uleb128 0x3
 1894 0e46 06050000 		.4byte	.LASF212
 1895 0e4a 13       		.byte	0x13
 1896 0e4b 53       		.byte	0x53
 1897 0e4c D80D0000 		.4byte	0xdd8
 1898 0e50 18       		.uleb128 0x18
 1899 0e51 20       		.byte	0x20
 1900 0e52 13       		.byte	0x13
 1901 0e53 58       		.byte	0x58
 1902 0e54 79000000 		.4byte	.LASF213
 1903 0e58 BD0E0000 		.4byte	0xebd
 1904 0e5c 09       		.uleb128 0x9
 1905 0e5d 0C080000 		.4byte	.LASF214
 1906 0e61 13       		.byte	0x13
 1907 0e62 59       		.byte	0x59
 1908 0e63 E5040000 		.4byte	0x4e5
 1909 0e67 00       		.byte	0
 1910 0e68 09       		.uleb128 0x9
 1911 0e69 A7000000 		.4byte	.LASF206
 1912 0e6d 13       		.byte	0x13
 1913 0e6e 5B       		.byte	0x5b
 1914 0e6f E5040000 		.4byte	0x4e5
 1915 0e73 04       		.byte	0x4
 1916 0e74 09       		.uleb128 0x9
 1917 0e75 FE070000 		.4byte	.LASF215
 1918 0e79 13       		.byte	0x13
 1919 0e7a 5C       		.byte	0x5c
 1920 0e7b E5040000 		.4byte	0x4e5
 1921 0e7f 08       		.byte	0x8
 1922 0e80 09       		.uleb128 0x9
 1923 0e81 E7000000 		.4byte	.LASF208
 1924 0e85 13       		.byte	0x13
 1925 0e86 5E       		.byte	0x5e
 1926 0e87 E5040000 		.4byte	0x4e5
 1927 0e8b 0C       		.byte	0xc
 1928 0e8c 09       		.uleb128 0x9
 1929 0e8d BB040000 		.4byte	.LASF216
 1930 0e91 13       		.byte	0x13
 1931 0e92 5F       		.byte	0x5f
 1932 0e93 E5040000 		.4byte	0x4e5
 1933 0e97 10       		.byte	0x10
 1934 0e98 09       		.uleb128 0x9
 1935 0e99 9D010000 		.4byte	.LASF200
ARM GAS  /var/folders/m4/4md61f0s1_g0rzfghffqnxvr0000gn/T//ccoL5DmC.s 			page 35


 1936 0e9d 13       		.byte	0x13
 1937 0e9e 61       		.byte	0x61
 1938 0e9f E5040000 		.4byte	0x4e5
 1939 0ea3 14       		.byte	0x14
 1940 0ea4 09       		.uleb128 0x9
 1941 0ea5 E2010000 		.4byte	.LASF201
 1942 0ea9 13       		.byte	0x13
 1943 0eaa 62       		.byte	0x62
 1944 0eab E5040000 		.4byte	0x4e5
 1945 0eaf 18       		.byte	0x18
 1946 0eb0 09       		.uleb128 0x9
 1947 0eb1 1B020000 		.4byte	.LASF211
 1948 0eb5 13       		.byte	0x13
 1949 0eb6 63       		.byte	0x63
 1950 0eb7 E5040000 		.4byte	0x4e5
 1951 0ebb 1C       		.byte	0x1c
 1952 0ebc 00       		.byte	0
 1953 0ebd 03       		.uleb128 0x3
 1954 0ebe 880A0000 		.4byte	.LASF217
 1955 0ec2 13       		.byte	0x13
 1956 0ec3 64       		.byte	0x64
 1957 0ec4 500E0000 		.4byte	0xe50
 1958 0ec8 1E       		.uleb128 0x1e
 1959 0ec9 00100100 		.4byte	0x11000
 1960 0ecd 13       		.byte	0x13
 1961 0ece 69       		.byte	0x69
 1962 0ecf 64020000 		.4byte	.LASF358
 1963 0ed3 A9110000 		.4byte	0x11a9
 1964 0ed7 09       		.uleb128 0x9
 1965 0ed8 030D0000 		.4byte	.LASF218
 1966 0edc 13       		.byte	0x13
 1967 0edd 6A       		.byte	0x6a
 1968 0ede E5040000 		.4byte	0x4e5
 1969 0ee2 00       		.byte	0
 1970 0ee3 09       		.uleb128 0x9
 1971 0ee4 FB0C0000 		.4byte	.LASF219
 1972 0ee8 13       		.byte	0x13
 1973 0ee9 6B       		.byte	0x6b
 1974 0eea E5040000 		.4byte	0x4e5
 1975 0eee 04       		.byte	0x4
 1976 0eef 09       		.uleb128 0x9
 1977 0ef0 D8090000 		.4byte	.LASF220
 1978 0ef4 13       		.byte	0x13
 1979 0ef5 6C       		.byte	0x6c
 1980 0ef6 E5040000 		.4byte	0x4e5
 1981 0efa 08       		.byte	0x8
 1982 0efb 09       		.uleb128 0x9
 1983 0efc 9E0F0000 		.4byte	.LASF221
 1984 0f00 13       		.byte	0x13
 1985 0f01 6D       		.byte	0x6d
 1986 0f02 E5040000 		.4byte	0x4e5
 1987 0f06 0C       		.byte	0xc
 1988 0f07 09       		.uleb128 0x9
 1989 0f08 03070000 		.4byte	.LASF222
 1990 0f0c 13       		.byte	0x13
 1991 0f0d 6E       		.byte	0x6e
 1992 0f0e E5040000 		.4byte	0x4e5
ARM GAS  /var/folders/m4/4md61f0s1_g0rzfghffqnxvr0000gn/T//ccoL5DmC.s 			page 36


 1993 0f12 10       		.byte	0x10
 1994 0f13 09       		.uleb128 0x9
 1995 0f14 A5010000 		.4byte	.LASF223
 1996 0f18 13       		.byte	0x13
 1997 0f19 6F       		.byte	0x6f
 1998 0f1a E5040000 		.4byte	0x4e5
 1999 0f1e 14       		.byte	0x14
 2000 0f1f 09       		.uleb128 0x9
 2001 0f20 A7020000 		.4byte	.LASF224
 2002 0f24 13       		.byte	0x13
 2003 0f25 70       		.byte	0x70
 2004 0f26 E5040000 		.4byte	0x4e5
 2005 0f2a 18       		.byte	0x18
 2006 0f2b 09       		.uleb128 0x9
 2007 0f2c 650D0000 		.4byte	.LASF225
 2008 0f30 13       		.byte	0x13
 2009 0f31 71       		.byte	0x71
 2010 0f32 E5040000 		.4byte	0x4e5
 2011 0f36 1C       		.byte	0x1c
 2012 0f37 09       		.uleb128 0x9
 2013 0f38 8A0C0000 		.4byte	.LASF226
 2014 0f3c 13       		.byte	0x13
 2015 0f3d 73       		.byte	0x73
 2016 0f3e E5040000 		.4byte	0x4e5
 2017 0f42 20       		.byte	0x20
 2018 0f43 09       		.uleb128 0x9
 2019 0f44 24040000 		.4byte	.LASF227
 2020 0f48 13       		.byte	0x13
 2021 0f49 75       		.byte	0x75
 2022 0f4a E5040000 		.4byte	0x4e5
 2023 0f4e 24       		.byte	0x24
 2024 0f4f 09       		.uleb128 0x9
 2025 0f50 F20C0000 		.4byte	.LASF228
 2026 0f54 13       		.byte	0x13
 2027 0f55 76       		.byte	0x76
 2028 0f56 E5040000 		.4byte	0x4e5
 2029 0f5a 28       		.byte	0x28
 2030 0f5b 09       		.uleb128 0x9
 2031 0f5c BD0D0000 		.4byte	.LASF229
 2032 0f60 13       		.byte	0x13
 2033 0f61 78       		.byte	0x78
 2034 0f62 E5040000 		.4byte	0x4e5
 2035 0f66 2C       		.byte	0x2c
 2036 0f67 09       		.uleb128 0x9
 2037 0f68 AC030000 		.4byte	.LASF230
 2038 0f6c 13       		.byte	0x13
 2039 0f6d 7A       		.byte	0x7a
 2040 0f6e E5040000 		.4byte	0x4e5
 2041 0f72 30       		.byte	0x30
 2042 0f73 09       		.uleb128 0x9
 2043 0f74 5A010000 		.4byte	.LASF231
 2044 0f78 13       		.byte	0x13
 2045 0f79 7B       		.byte	0x7b
 2046 0f7a E5040000 		.4byte	0x4e5
 2047 0f7e 34       		.byte	0x34
 2048 0f7f 09       		.uleb128 0x9
 2049 0f80 02020000 		.4byte	.LASF232
ARM GAS  /var/folders/m4/4md61f0s1_g0rzfghffqnxvr0000gn/T//ccoL5DmC.s 			page 37


 2050 0f84 13       		.byte	0x13
 2051 0f85 7C       		.byte	0x7c
 2052 0f86 E5040000 		.4byte	0x4e5
 2053 0f8a 38       		.byte	0x38
 2054 0f8b 17       		.uleb128 0x17
 2055 0f8c 43494400 		.ascii	"CID\000"
 2056 0f90 13       		.byte	0x13
 2057 0f91 7D       		.byte	0x7d
 2058 0f92 E5040000 		.4byte	0x4e5
 2059 0f96 3C       		.byte	0x3c
 2060 0f97 09       		.uleb128 0x9
 2061 0f98 DF050000 		.4byte	.LASF233
 2062 0f9c 13       		.byte	0x13
 2063 0f9d 7E       		.byte	0x7e
 2064 0f9e A9110000 		.4byte	0x11a9
 2065 0fa2 40       		.byte	0x40
 2066 0fa3 1F       		.uleb128 0x1f
 2067 0fa4 250A0000 		.4byte	.LASF234
 2068 0fa8 13       		.byte	0x13
 2069 0fa9 7F       		.byte	0x7f
 2070 0faa E5040000 		.4byte	0x4e5
 2071 0fae 0001     		.2byte	0x100
 2072 0fb0 1F       		.uleb128 0x1f
 2073 0fb1 D70E0000 		.4byte	.LASF235
 2074 0fb5 13       		.byte	0x13
 2075 0fb6 81       		.byte	0x81
 2076 0fb7 AE110000 		.4byte	0x11ae
 2077 0fbb 0401     		.2byte	0x104
 2078 0fbd 1F       		.uleb128 0x1f
 2079 0fbe 45030000 		.4byte	.LASF236
 2080 0fc2 13       		.byte	0x13
 2081 0fc3 83       		.byte	0x83
 2082 0fc4 C3110000 		.4byte	0x11c3
 2083 0fc8 4001     		.2byte	0x140
 2084 0fca 1F       		.uleb128 0x1f
 2085 0fcb B7050000 		.4byte	.LASF237
 2086 0fcf 13       		.byte	0x13
 2087 0fd0 84       		.byte	0x84
 2088 0fd1 E5040000 		.4byte	0x4e5
 2089 0fd5 0004     		.2byte	0x400
 2090 0fd7 1F       		.uleb128 0x1f
 2091 0fd8 D20E0000 		.4byte	.LASF238
 2092 0fdc 13       		.byte	0x13
 2093 0fdd 85       		.byte	0x85
 2094 0fde E5040000 		.4byte	0x4e5
 2095 0fe2 0404     		.2byte	0x404
 2096 0fe4 1F       		.uleb128 0x1f
 2097 0fe5 100E0000 		.4byte	.LASF239
 2098 0fe9 13       		.byte	0x13
 2099 0fea 86       		.byte	0x86
 2100 0feb E5040000 		.4byte	0x4e5
 2101 0fef 0804     		.2byte	0x408
 2102 0ff1 1F       		.uleb128 0x1f
 2103 0ff2 8F020000 		.4byte	.LASF240
 2104 0ff6 13       		.byte	0x13
 2105 0ff7 88       		.byte	0x88
 2106 0ff8 E5040000 		.4byte	0x4e5
ARM GAS  /var/folders/m4/4md61f0s1_g0rzfghffqnxvr0000gn/T//ccoL5DmC.s 			page 38


 2107 0ffc 0C04     		.2byte	0x40c
 2108 0ffe 1F       		.uleb128 0x1f
 2109 0fff F2080000 		.4byte	.LASF241
 2110 1003 13       		.byte	0x13
 2111 1004 89       		.byte	0x89
 2112 1005 E5040000 		.4byte	0x4e5
 2113 1009 1004     		.2byte	0x410
 2114 100b 1F       		.uleb128 0x1f
 2115 100c 6B080000 		.4byte	.LASF242
 2116 1010 13       		.byte	0x13
 2117 1011 8B       		.byte	0x8b
 2118 1012 E5040000 		.4byte	0x4e5
 2119 1016 1404     		.2byte	0x414
 2120 1018 1F       		.uleb128 0x1f
 2121 1019 9D060000 		.4byte	.LASF243
 2122 101d 13       		.byte	0x13
 2123 101e 8D       		.byte	0x8d
 2124 101f E5040000 		.4byte	0x4e5
 2125 1023 1804     		.2byte	0x418
 2126 1025 1F       		.uleb128 0x1f
 2127 1026 270C0000 		.4byte	.LASF244
 2128 102a 13       		.byte	0x13
 2129 102b 8F       		.byte	0x8f
 2130 102c D8110000 		.4byte	0x11d8
 2131 1030 1C04     		.2byte	0x41c
 2132 1032 1F       		.uleb128 0x1f
 2133 1033 EF040000 		.4byte	.LASF245
 2134 1037 13       		.byte	0x13
 2135 1038 90       		.byte	0x90
 2136 1039 E5040000 		.4byte	0x4e5
 2137 103d 4004     		.2byte	0x440
 2138 103f 1F       		.uleb128 0x1f
 2139 1040 23060000 		.4byte	.LASF246
 2140 1044 13       		.byte	0x13
 2141 1045 92       		.byte	0x92
 2142 1046 ED110000 		.4byte	0x11ed
 2143 104a 4404     		.2byte	0x444
 2144 104c 20       		.uleb128 0x20
 2145 104d 686300   		.ascii	"hc\000"
 2146 1050 13       		.byte	0x13
 2147 1051 93       		.byte	0x93
 2148 1052 F2110000 		.4byte	0x11f2
 2149 1056 0005     		.2byte	0x500
 2150 1058 1F       		.uleb128 0x1f
 2151 1059 F4040000 		.4byte	.LASF247
 2152 105d 13       		.byte	0x13
 2153 105e 94       		.byte	0x94
 2154 105f 12120000 		.4byte	0x1212
 2155 1063 0007     		.2byte	0x700
 2156 1065 1F       		.uleb128 0x1f
 2157 1066 8E000000 		.4byte	.LASF248
 2158 106a 13       		.byte	0x13
 2159 106b 95       		.byte	0x95
 2160 106c E5040000 		.4byte	0x4e5
 2161 1070 0008     		.2byte	0x800
 2162 1072 1F       		.uleb128 0x1f
 2163 1073 DF0E0000 		.4byte	.LASF249
ARM GAS  /var/folders/m4/4md61f0s1_g0rzfghffqnxvr0000gn/T//ccoL5DmC.s 			page 39


 2164 1077 13       		.byte	0x13
 2165 1078 96       		.byte	0x96
 2166 1079 E5040000 		.4byte	0x4e5
 2167 107d 0408     		.2byte	0x804
 2168 107f 1F       		.uleb128 0x1f
 2169 1080 9F0C0000 		.4byte	.LASF250
 2170 1084 13       		.byte	0x13
 2171 1085 97       		.byte	0x97
 2172 1086 E5040000 		.4byte	0x4e5
 2173 108a 0808     		.2byte	0x808
 2174 108c 1F       		.uleb128 0x1f
 2175 108d 690C0000 		.4byte	.LASF251
 2176 1091 13       		.byte	0x13
 2177 1092 98       		.byte	0x98
 2178 1093 E5040000 		.4byte	0x4e5
 2179 1097 0C08     		.2byte	0x80c
 2180 1099 1F       		.uleb128 0x1f
 2181 109a 190D0000 		.4byte	.LASF252
 2182 109e 13       		.byte	0x13
 2183 109f 99       		.byte	0x99
 2184 10a0 E5040000 		.4byte	0x4e5
 2185 10a4 1008     		.2byte	0x810
 2186 10a6 1F       		.uleb128 0x1f
 2187 10a7 83060000 		.4byte	.LASF253
 2188 10ab 13       		.byte	0x13
 2189 10ac 9B       		.byte	0x9b
 2190 10ad E5040000 		.4byte	0x4e5
 2191 10b1 1408     		.2byte	0x814
 2192 10b3 1F       		.uleb128 0x1f
 2193 10b4 A60F0000 		.4byte	.LASF254
 2194 10b8 13       		.byte	0x13
 2195 10b9 9D       		.byte	0x9d
 2196 10ba E5040000 		.4byte	0x4e5
 2197 10be 1808     		.2byte	0x818
 2198 10c0 1F       		.uleb128 0x1f
 2199 10c1 0B0D0000 		.4byte	.LASF255
 2200 10c5 13       		.byte	0x13
 2201 10c6 9F       		.byte	0x9f
 2202 10c7 E5040000 		.4byte	0x4e5
 2203 10cb 1C08     		.2byte	0x81c
 2204 10cd 1F       		.uleb128 0x1f
 2205 10ce D40D0000 		.4byte	.LASF256
 2206 10d2 13       		.byte	0x13
 2207 10d3 A1       		.byte	0xa1
 2208 10d4 E5040000 		.4byte	0x4e5
 2209 10d8 2008     		.2byte	0x820
 2210 10da 1F       		.uleb128 0x1f
 2211 10db F10D0000 		.4byte	.LASF257
 2212 10df 13       		.byte	0x13
 2213 10e0 A2       		.byte	0xa2
 2214 10e1 E5040000 		.4byte	0x4e5
 2215 10e5 2408     		.2byte	0x824
 2216 10e7 1F       		.uleb128 0x1f
 2217 10e8 BA020000 		.4byte	.LASF258
 2218 10ec 13       		.byte	0x13
 2219 10ed A3       		.byte	0xa3
 2220 10ee E5040000 		.4byte	0x4e5
ARM GAS  /var/folders/m4/4md61f0s1_g0rzfghffqnxvr0000gn/T//ccoL5DmC.s 			page 40


 2221 10f2 2808     		.2byte	0x828
 2222 10f4 1F       		.uleb128 0x1f
 2223 10f5 6E090000 		.4byte	.LASF259
 2224 10f9 13       		.byte	0x13
 2225 10fa A5       		.byte	0xa5
 2226 10fb E5040000 		.4byte	0x4e5
 2227 10ff 2C08     		.2byte	0x82c
 2228 1101 1F       		.uleb128 0x1f
 2229 1102 100F0000 		.4byte	.LASF260
 2230 1106 13       		.byte	0x13
 2231 1107 A7       		.byte	0xa7
 2232 1108 E5040000 		.4byte	0x4e5
 2233 110c 3008     		.2byte	0x830
 2234 110e 1F       		.uleb128 0x1f
 2235 110f 7A030000 		.4byte	.LASF261
 2236 1113 13       		.byte	0x13
 2237 1114 A8       		.byte	0xa8
 2238 1115 E5040000 		.4byte	0x4e5
 2239 1119 3408     		.2byte	0x834
 2240 111b 1F       		.uleb128 0x1f
 2241 111c 7A060000 		.4byte	.LASF262
 2242 1120 13       		.byte	0x13
 2243 1121 AA       		.byte	0xaa
 2244 1122 E5040000 		.4byte	0x4e5
 2245 1126 3808     		.2byte	0x838
 2246 1128 1F       		.uleb128 0x1f
 2247 1129 5F0F0000 		.4byte	.LASF263
 2248 112d 13       		.byte	0x13
 2249 112e AB       		.byte	0xab
 2250 112f E5040000 		.4byte	0x4e5
 2251 1133 3C08     		.2byte	0x83c
 2252 1135 1F       		.uleb128 0x1f
 2253 1136 1A100000 		.4byte	.LASF264
 2254 113a 13       		.byte	0x13
 2255 113b AC       		.byte	0xac
 2256 113c 27120000 		.4byte	0x1227
 2257 1140 4008     		.2byte	0x840
 2258 1142 1F       		.uleb128 0x1f
 2259 1143 BC030000 		.4byte	.LASF265
 2260 1147 13       		.byte	0x13
 2261 1148 AD       		.byte	0xad
 2262 1149 2C120000 		.4byte	0x122c
 2263 114d 8008     		.2byte	0x880
 2264 114f 1F       		.uleb128 0x1f
 2265 1150 E20F0000 		.4byte	.LASF266
 2266 1154 13       		.byte	0x13
 2267 1155 AE       		.byte	0xae
 2268 1156 31120000 		.4byte	0x1231
 2269 115a C008     		.2byte	0x8c0
 2270 115c 20       		.uleb128 0x20
 2271 115d 696500   		.ascii	"ie\000"
 2272 1160 13       		.byte	0x13
 2273 1161 AF       		.byte	0xaf
 2274 1162 36120000 		.4byte	0x1236
 2275 1166 0009     		.2byte	0x900
 2276 1168 20       		.uleb128 0x20
 2277 1169 6F6500   		.ascii	"oe\000"
ARM GAS  /var/folders/m4/4md61f0s1_g0rzfghffqnxvr0000gn/T//ccoL5DmC.s 			page 41


 2278 116c 13       		.byte	0x13
 2279 116d B0       		.byte	0xb0
 2280 116e 46120000 		.4byte	0x1246
 2281 1172 000B     		.2byte	0xb00
 2282 1174 1F       		.uleb128 0x1f
 2283 1175 75070000 		.4byte	.LASF267
 2284 1179 13       		.byte	0x13
 2285 117a B1       		.byte	0xb1
 2286 117b 56120000 		.4byte	0x1256
 2287 117f 000D     		.2byte	0xd00
 2288 1181 1F       		.uleb128 0x1f
 2289 1182 7E090000 		.4byte	.LASF268
 2290 1186 13       		.byte	0x13
 2291 1187 B2       		.byte	0xb2
 2292 1188 E5040000 		.4byte	0x4e5
 2293 118c 000E     		.2byte	0xe00
 2294 118e 1F       		.uleb128 0x1f
 2295 118f 800E0000 		.4byte	.LASF269
 2296 1193 13       		.byte	0x13
 2297 1194 B4       		.byte	0xb4
 2298 1195 6B120000 		.4byte	0x126b
 2299 1199 040E     		.2byte	0xe04
 2300 119b 1F       		.uleb128 0x1f
 2301 119c 7F050000 		.4byte	.LASF270
 2302 11a0 13       		.byte	0x13
 2303 11a1 B5       		.byte	0xb5
 2304 11a2 87120000 		.4byte	0x1287
 2305 11a6 0010     		.2byte	0x1000
 2306 11a8 00       		.byte	0
 2307 11a9 12       		.uleb128 0x12
 2308 11aa 0A050000 		.4byte	0x50a
 2309 11ae 12       		.uleb128 0x12
 2310 11af FA040000 		.4byte	0x4fa
 2311 11b3 13       		.uleb128 0x13
 2312 11b4 A0000000 		.4byte	0xa0
 2313 11b8 C3110000 		.4byte	0x11c3
 2314 11bc 14       		.uleb128 0x14
 2315 11bd DE040000 		.4byte	0x4de
 2316 11c1 AF       		.byte	0xaf
 2317 11c2 00       		.byte	0
 2318 11c3 12       		.uleb128 0x12
 2319 11c4 B3110000 		.4byte	0x11b3
 2320 11c8 13       		.uleb128 0x13
 2321 11c9 A0000000 		.4byte	0xa0
 2322 11cd D8110000 		.4byte	0x11d8
 2323 11d1 14       		.uleb128 0x14
 2324 11d2 DE040000 		.4byte	0x4de
 2325 11d6 08       		.byte	0x8
 2326 11d7 00       		.byte	0
 2327 11d8 12       		.uleb128 0x12
 2328 11d9 C8110000 		.4byte	0x11c8
 2329 11dd 13       		.uleb128 0x13
 2330 11de A0000000 		.4byte	0xa0
 2331 11e2 ED110000 		.4byte	0x11ed
 2332 11e6 14       		.uleb128 0x14
 2333 11e7 DE040000 		.4byte	0x4de
 2334 11eb 2E       		.byte	0x2e
ARM GAS  /var/folders/m4/4md61f0s1_g0rzfghffqnxvr0000gn/T//ccoL5DmC.s 			page 42


 2335 11ec 00       		.byte	0
 2336 11ed 12       		.uleb128 0x12
 2337 11ee DD110000 		.4byte	0x11dd
 2338 11f2 13       		.uleb128 0x13
 2339 11f3 CD0D0000 		.4byte	0xdcd
 2340 11f7 02120000 		.4byte	0x1202
 2341 11fb 14       		.uleb128 0x14
 2342 11fc DE040000 		.4byte	0x4de
 2343 1200 0F       		.byte	0xf
 2344 1201 00       		.byte	0
 2345 1202 13       		.uleb128 0x13
 2346 1203 A0000000 		.4byte	0xa0
 2347 1207 12120000 		.4byte	0x1212
 2348 120b 14       		.uleb128 0x14
 2349 120c DE040000 		.4byte	0x4de
 2350 1210 3F       		.byte	0x3f
 2351 1211 00       		.byte	0
 2352 1212 12       		.uleb128 0x12
 2353 1213 02120000 		.4byte	0x1202
 2354 1217 13       		.uleb128 0x13
 2355 1218 A0000000 		.4byte	0xa0
 2356 121c 27120000 		.4byte	0x1227
 2357 1220 14       		.uleb128 0x14
 2358 1221 DE040000 		.4byte	0x4de
 2359 1225 0F       		.byte	0xf
 2360 1226 00       		.byte	0
 2361 1227 12       		.uleb128 0x12
 2362 1228 17120000 		.4byte	0x1217
 2363 122c 12       		.uleb128 0x12
 2364 122d 17120000 		.4byte	0x1217
 2365 1231 12       		.uleb128 0x12
 2366 1232 17120000 		.4byte	0x1217
 2367 1236 13       		.uleb128 0x13
 2368 1237 450E0000 		.4byte	0xe45
 2369 123b 46120000 		.4byte	0x1246
 2370 123f 14       		.uleb128 0x14
 2371 1240 DE040000 		.4byte	0x4de
 2372 1244 0F       		.byte	0xf
 2373 1245 00       		.byte	0
 2374 1246 13       		.uleb128 0x13
 2375 1247 BD0E0000 		.4byte	0xebd
 2376 124b 56120000 		.4byte	0x1256
 2377 124f 14       		.uleb128 0x14
 2378 1250 DE040000 		.4byte	0x4de
 2379 1254 0F       		.byte	0xf
 2380 1255 00       		.byte	0
 2381 1256 12       		.uleb128 0x12
 2382 1257 02120000 		.4byte	0x1202
 2383 125b 13       		.uleb128 0x13
 2384 125c A0000000 		.4byte	0xa0
 2385 1260 6B120000 		.4byte	0x126b
 2386 1264 14       		.uleb128 0x14
 2387 1265 DE040000 		.4byte	0x4de
 2388 1269 7E       		.byte	0x7e
 2389 126a 00       		.byte	0
 2390 126b 12       		.uleb128 0x12
 2391 126c 5B120000 		.4byte	0x125b
ARM GAS  /var/folders/m4/4md61f0s1_g0rzfghffqnxvr0000gn/T//ccoL5DmC.s 			page 43


 2392 1270 13       		.uleb128 0x13
 2393 1271 A0000000 		.4byte	0xa0
 2394 1275 87120000 		.4byte	0x1287
 2395 1279 14       		.uleb128 0x14
 2396 127a DE040000 		.4byte	0x4de
 2397 127e 0F       		.byte	0xf
 2398 127f 21       		.uleb128 0x21
 2399 1280 DE040000 		.4byte	0x4de
 2400 1284 FF03     		.2byte	0x3ff
 2401 1286 00       		.byte	0
 2402 1287 12       		.uleb128 0x12
 2403 1288 70120000 		.4byte	0x1270
 2404 128c 03       		.uleb128 0x3
 2405 128d 9C0D0000 		.4byte	.LASF271
 2406 1291 13       		.byte	0x13
 2407 1292 B6       		.byte	0xb6
 2408 1293 C80E0000 		.4byte	0xec8
 2409 1297 18       		.uleb128 0x18
 2410 1298 0C       		.byte	0xc
 2411 1299 12       		.byte	0x12
 2412 129a D1       		.byte	0xd1
 2413 129b 10030000 		.4byte	.LASF272
 2414 129f C8120000 		.4byte	0x12c8
 2415 12a3 09       		.uleb128 0x9
 2416 12a4 AA050000 		.4byte	.LASF273
 2417 12a8 12       		.byte	0x12
 2418 12a9 D2       		.byte	0xd2
 2419 12aa CF000000 		.4byte	0xcf
 2420 12ae 00       		.byte	0
 2421 12af 09       		.uleb128 0x9
 2422 12b0 23020000 		.4byte	.LASF274
 2423 12b4 12       		.byte	0x12
 2424 12b5 D3       		.byte	0xd3
 2425 12b6 CF000000 		.4byte	0xcf
 2426 12ba 04       		.byte	0x4
 2427 12bb 09       		.uleb128 0x9
 2428 12bc 2B030000 		.4byte	.LASF275
 2429 12c0 12       		.byte	0x12
 2430 12c1 D4       		.byte	0xd4
 2431 12c2 CF000000 		.4byte	0xcf
 2432 12c6 08       		.byte	0x8
 2433 12c7 00       		.byte	0
 2434 12c8 03       		.uleb128 0x3
 2435 12c9 14080000 		.4byte	.LASF276
 2436 12cd 12       		.byte	0x12
 2437 12ce D5       		.byte	0xd5
 2438 12cf 97120000 		.4byte	0x1297
 2439 12d3 18       		.uleb128 0x18
 2440 12d4 10       		.byte	0x10
 2441 12d5 12       		.byte	0x12
 2442 12d6 DA       		.byte	0xda
 2443 12d7 24090000 		.4byte	.LASF277
 2444 12db 10130000 		.4byte	0x1310
 2445 12df 09       		.uleb128 0x9
 2446 12e0 57080000 		.4byte	.LASF278
 2447 12e4 12       		.byte	0x12
 2448 12e5 DE       		.byte	0xde
ARM GAS  /var/folders/m4/4md61f0s1_g0rzfghffqnxvr0000gn/T//ccoL5DmC.s 			page 44


 2449 12e6 2C000000 		.4byte	0x2c
 2450 12ea 00       		.byte	0
 2451 12eb 09       		.uleb128 0x9
 2452 12ec 1E040000 		.4byte	.LASF279
 2453 12f0 12       		.byte	0x12
 2454 12f1 E2       		.byte	0xe2
 2455 12f2 2C000000 		.4byte	0x2c
 2456 12f6 04       		.byte	0x4
 2457 12f7 09       		.uleb128 0x9
 2458 12f8 630C0000 		.4byte	.LASF280
 2459 12fc 12       		.byte	0x12
 2460 12fd E6       		.byte	0xe6
 2461 12fe 64080000 		.4byte	0x864
 2462 1302 08       		.byte	0x8
 2463 1303 09       		.uleb128 0x9
 2464 1304 71000000 		.4byte	.LASF281
 2465 1308 12       		.byte	0x12
 2466 1309 F1       		.byte	0xf1
 2467 130a 2C000000 		.4byte	0x2c
 2468 130e 0C       		.byte	0xc
 2469 130f 00       		.byte	0
 2470 1310 03       		.uleb128 0x3
 2471 1311 420F0000 		.4byte	.LASF282
 2472 1315 12       		.byte	0x12
 2473 1316 F2       		.byte	0xf2
 2474 1317 D3120000 		.4byte	0x12d3
 2475 131b 18       		.uleb128 0x18
 2476 131c 10       		.byte	0x10
 2477 131d 12       		.byte	0x12
 2478 131e F7       		.byte	0xf7
 2479 131f CA060000 		.4byte	.LASF283
 2480 1323 5A130000 		.4byte	0x135a
 2481 1327 09       		.uleb128 0x9
 2482 1328 D3020000 		.4byte	.LASF284
 2483 132c 12       		.byte	0x12
 2484 132d FB       		.byte	0xfb
 2485 132e 2C000000 		.4byte	0x2c
 2486 1332 00       		.byte	0
 2487 1333 09       		.uleb128 0x9
 2488 1334 C80F0000 		.4byte	.LASF285
 2489 1338 12       		.byte	0x12
 2490 1339 FF       		.byte	0xff
 2491 133a 2C000000 		.4byte	0x2c
 2492 133e 04       		.byte	0x4
 2493 133f 0B       		.uleb128 0xb
 2494 1340 010A0000 		.4byte	.LASF286
 2495 1344 12       		.byte	0x12
 2496 1345 0301     		.2byte	0x103
 2497 1347 08080000 		.4byte	0x808
 2498 134b 08       		.byte	0x8
 2499 134c 0B       		.uleb128 0xb
 2500 134d 71000000 		.4byte	.LASF281
 2501 1351 12       		.byte	0x12
 2502 1352 0E01     		.2byte	0x10e
 2503 1354 2C000000 		.4byte	0x2c
 2504 1358 0C       		.byte	0xc
 2505 1359 00       		.byte	0
ARM GAS  /var/folders/m4/4md61f0s1_g0rzfghffqnxvr0000gn/T//ccoL5DmC.s 			page 45


 2506 135a 1B       		.uleb128 0x1b
 2507 135b F40B0000 		.4byte	.LASF287
 2508 135f 12       		.byte	0x12
 2509 1360 0F01     		.2byte	0x10f
 2510 1362 1B130000 		.4byte	0x131b
 2511 1366 1D       		.uleb128 0x1d
 2512 1367 24       		.byte	0x24
 2513 1368 12       		.byte	0x12
 2514 1369 1501     		.2byte	0x115
 2515 136b 190F0000 		.4byte	.LASF289
 2516 136f F6130000 		.4byte	0x13f6
 2517 1373 0B       		.uleb128 0xb
 2518 1374 30020000 		.4byte	.LASF290
 2519 1378 12       		.byte	0x12
 2520 1379 1901     		.2byte	0x119
 2521 137b CF000000 		.4byte	0xcf
 2522 137f 00       		.byte	0
 2523 1380 0B       		.uleb128 0xb
 2524 1381 370E0000 		.4byte	.LASF291
 2525 1385 12       		.byte	0x12
 2526 1386 2401     		.2byte	0x124
 2527 1388 C00C0000 		.4byte	0xcc0
 2528 138c 04       		.byte	0x4
 2529 138d 0B       		.uleb128 0xb
 2530 138e 7E070000 		.4byte	.LASF292
 2531 1392 12       		.byte	0x12
 2532 1393 2901     		.2byte	0x129
 2533 1395 C00C0000 		.4byte	0xcc0
 2534 1399 08       		.byte	0x8
 2535 139a 0B       		.uleb128 0xb
 2536 139b DB040000 		.4byte	.LASF293
 2537 139f 12       		.byte	0x12
 2538 13a0 2E01     		.2byte	0x12e
 2539 13a2 C00C0000 		.4byte	0xcc0
 2540 13a6 0C       		.byte	0xc
 2541 13a7 0B       		.uleb128 0xb
 2542 13a8 98040000 		.4byte	.LASF294
 2543 13ac 12       		.byte	0x12
 2544 13ad 3301     		.2byte	0x133
 2545 13af B9000000 		.4byte	0xb9
 2546 13b3 10       		.byte	0x10
 2547 13b4 0B       		.uleb128 0xb
 2548 13b5 040F0000 		.4byte	.LASF295
 2549 13b9 12       		.byte	0x12
 2550 13ba 3801     		.2byte	0x138
 2551 13bc B9000000 		.4byte	0xb9
 2552 13c0 12       		.byte	0x12
 2553 13c1 0B       		.uleb128 0xb
 2554 13c2 FA060000 		.4byte	.LASF296
 2555 13c6 12       		.byte	0x12
 2556 13c7 3E01     		.2byte	0x13e
 2557 13c9 F6130000 		.4byte	0x13f6
 2558 13cd 14       		.byte	0x14
 2559 13ce 0B       		.uleb128 0xb
 2560 13cf 76080000 		.4byte	.LASF297
 2561 13d3 12       		.byte	0x12
 2562 13d4 4401     		.2byte	0x144
ARM GAS  /var/folders/m4/4md61f0s1_g0rzfghffqnxvr0000gn/T//ccoL5DmC.s 			page 46


 2563 13d6 FC130000 		.4byte	0x13fc
 2564 13da 18       		.byte	0x18
 2565 13db 0B       		.uleb128 0xb
 2566 13dc 900F0000 		.4byte	.LASF298
 2567 13e0 12       		.byte	0x12
 2568 13e1 4B01     		.2byte	0x14b
 2569 13e3 B9000000 		.4byte	0xb9
 2570 13e7 1C       		.byte	0x1c
 2571 13e8 0B       		.uleb128 0xb
 2572 13e9 59090000 		.4byte	.LASF299
 2573 13ed 12       		.byte	0x12
 2574 13ee 5101     		.2byte	0x151
 2575 13f0 08080000 		.4byte	0x808
 2576 13f4 20       		.byte	0x20
 2577 13f5 00       		.byte	0
 2578 13f6 0C       		.uleb128 0xc
 2579 13f7 04       		.byte	0x4
 2580 13f8 10130000 		.4byte	0x1310
 2581 13fc 0C       		.uleb128 0xc
 2582 13fd 04       		.byte	0x4
 2583 13fe 5A130000 		.4byte	0x135a
 2584 1402 1B       		.uleb128 0x1b
 2585 1403 39040000 		.4byte	.LASF300
 2586 1407 12       		.byte	0x12
 2587 1408 5201     		.2byte	0x152
 2588 140a 66130000 		.4byte	0x1366
 2589 140e 1D       		.uleb128 0x1d
 2590 140f 10       		.byte	0x10
 2591 1410 12       		.byte	0x12
 2592 1411 5701     		.2byte	0x157
 2593 1413 2E100000 		.4byte	.LASF301
 2594 1417 50140000 		.4byte	0x1450
 2595 141b 0B       		.uleb128 0xb
 2596 141c 6F040000 		.4byte	.LASF302
 2597 1420 12       		.byte	0x12
 2598 1421 5C01     		.2byte	0x15c
 2599 1423 E20C0000 		.4byte	0xce2
 2600 1427 00       		.byte	0
 2601 1428 0B       		.uleb128 0xb
 2602 1429 5D0E0000 		.4byte	.LASF303
 2603 142d 12       		.byte	0x12
 2604 142e 6101     		.2byte	0x161
 2605 1430 250D0000 		.4byte	0xd25
 2606 1434 04       		.byte	0x4
 2607 1435 0B       		.uleb128 0xb
 2608 1436 0B010000 		.4byte	.LASF304
 2609 143a 12       		.byte	0x12
 2610 143b 6701     		.2byte	0x167
 2611 143d 040D0000 		.4byte	0xd04
 2612 1441 08       		.byte	0x8
 2613 1442 0B       		.uleb128 0xb
 2614 1443 C8080000 		.4byte	.LASF305
 2615 1447 12       		.byte	0x12
 2616 1448 6B01     		.2byte	0x16b
 2617 144a 9D0C0000 		.4byte	0xc9d
 2618 144e 0C       		.byte	0xc
 2619 144f 00       		.byte	0
ARM GAS  /var/folders/m4/4md61f0s1_g0rzfghffqnxvr0000gn/T//ccoL5DmC.s 			page 47


 2620 1450 1B       		.uleb128 0x1b
 2621 1451 C5090000 		.4byte	.LASF306
 2622 1455 12       		.byte	0x12
 2623 1456 6D01     		.2byte	0x16d
 2624 1458 0E140000 		.4byte	0x140e
 2625 145c 0C       		.uleb128 0xc
 2626 145d 04       		.byte	0x4
 2627 145e 62140000 		.4byte	0x1462
 2628 1462 19       		.uleb128 0x19
 2629 1463 50140000 		.4byte	0x1450
 2630 1467 13       		.uleb128 0x13
 2631 1468 77140000 		.4byte	0x1477
 2632 146c 77140000 		.4byte	0x1477
 2633 1470 14       		.uleb128 0x14
 2634 1471 DE040000 		.4byte	0x4de
 2635 1475 03       		.byte	0x3
 2636 1476 00       		.byte	0
 2637 1477 0C       		.uleb128 0xc
 2638 1478 04       		.byte	0x4
 2639 1479 7D140000 		.4byte	0x147d
 2640 147d 19       		.uleb128 0x19
 2641 147e 02140000 		.4byte	0x1402
 2642 1482 13       		.uleb128 0x13
 2643 1483 A8030000 		.4byte	0x3a8
 2644 1487 92140000 		.4byte	0x1492
 2645 148b 14       		.uleb128 0x14
 2646 148c DE040000 		.4byte	0x4de
 2647 1490 02       		.byte	0x2
 2648 1491 00       		.byte	0
 2649 1492 13       		.uleb128 0x13
 2650 1493 63000000 		.4byte	0x63
 2651 1497 A2140000 		.4byte	0x14a2
 2652 149b 14       		.uleb128 0x14
 2653 149c DE040000 		.4byte	0x4de
 2654 14a0 07       		.byte	0x7
 2655 14a1 00       		.byte	0
 2656 14a2 0C       		.uleb128 0xc
 2657 14a3 04       		.byte	0x4
 2658 14a4 8C120000 		.4byte	0x128c
 2659 14a8 0C       		.uleb128 0xc
 2660 14a9 04       		.byte	0x4
 2661 14aa AE140000 		.4byte	0x14ae
 2662 14ae 19       		.uleb128 0x19
 2663 14af C8120000 		.4byte	0x12c8
 2664 14b3 13       		.uleb128 0x13
 2665 14b4 A7000000 		.4byte	0xa7
 2666 14b8 C3140000 		.4byte	0x14c3
 2667 14bc 14       		.uleb128 0x14
 2668 14bd DE040000 		.4byte	0x4de
 2669 14c1 42       		.byte	0x42
 2670 14c2 00       		.byte	0
 2671 14c3 15       		.uleb128 0x15
 2672 14c4 01       		.byte	0x1
 2673 14c5 63000000 		.4byte	0x63
 2674 14c9 14       		.byte	0x14
 2675 14ca 4F       		.byte	0x4f
 2676 14cb 8C030000 		.4byte	.LASF308
ARM GAS  /var/folders/m4/4md61f0s1_g0rzfghffqnxvr0000gn/T//ccoL5DmC.s 			page 48


 2677 14cf E6140000 		.4byte	0x14e6
 2678 14d3 16       		.uleb128 0x16
 2679 14d4 AF020000 		.4byte	.LASF309
 2680 14d8 00       		.byte	0
 2681 14d9 16       		.uleb128 0x16
 2682 14da 1A060000 		.4byte	.LASF310
 2683 14de 01       		.byte	0x1
 2684 14df 16       		.uleb128 0x16
 2685 14e0 19000000 		.4byte	.LASF311
 2686 14e4 02       		.byte	0x2
 2687 14e5 00       		.byte	0
 2688 14e6 03       		.uleb128 0x3
 2689 14e7 98080000 		.4byte	.LASF312
 2690 14eb 14       		.byte	0x14
 2691 14ec 53       		.byte	0x53
 2692 14ed C3140000 		.4byte	0x14c3
 2693 14f1 03       		.uleb128 0x3
 2694 14f2 53000000 		.4byte	.LASF313
 2695 14f6 14       		.byte	0x14
 2696 14f7 58       		.byte	0x58
 2697 14f8 FC140000 		.4byte	0x14fc
 2698 14fc 22       		.uleb128 0x22
 2699 14fd 53000000 		.4byte	.LASF313
 2700 1501 8804     		.2byte	0x488
 2701 1503 14       		.byte	0x14
 2702 1504 9F       		.byte	0x9f
 2703 1505 6A150000 		.4byte	0x156a
 2704 1509 17       		.uleb128 0x17
 2705 150a 766D7400 		.ascii	"vmt\000"
 2706 150e 14       		.byte	0x14
 2707 150f A1       		.byte	0xa1
 2708 1510 1F160000 		.4byte	0x161f
 2709 1514 00       		.byte	0
 2710 1515 09       		.uleb128 0x9
 2711 1516 A6030000 		.4byte	.LASF314
 2712 151a 14       		.byte	0x14
 2713 151b A2       		.byte	0xa2
 2714 151c F8070000 		.4byte	0x7f8
 2715 1520 04       		.byte	0x4
 2716 1521 09       		.uleb128 0x9
 2717 1522 960D0000 		.4byte	.LASF141
 2718 1526 14       		.byte	0x14
 2719 1527 A2       		.byte	0xa2
 2720 1528 E6140000 		.4byte	0x14e6
 2721 152c 08       		.byte	0x8
 2722 152d 09       		.uleb128 0x9
 2723 152e 2C000000 		.4byte	.LASF315
 2724 1532 14       		.byte	0x14
 2725 1533 A2       		.byte	0xa2
 2726 1534 430A0000 		.4byte	0xa43
 2727 1538 0C       		.byte	0xc
 2728 1539 09       		.uleb128 0x9
 2729 153a 2E0A0000 		.4byte	.LASF316
 2730 153e 14       		.byte	0x14
 2731 153f A2       		.byte	0xa2
 2732 1540 4E0A0000 		.4byte	0xa4e
 2733 1544 40       		.byte	0x40
ARM GAS  /var/folders/m4/4md61f0s1_g0rzfghffqnxvr0000gn/T//ccoL5DmC.s 			page 49


 2734 1545 17       		.uleb128 0x17
 2735 1546 696200   		.ascii	"ib\000"
 2736 1549 14       		.byte	0x14
 2737 154a A2       		.byte	0xa2
 2738 154b 2A160000 		.4byte	0x162a
 2739 154f 74       		.byte	0x74
 2740 1550 20       		.uleb128 0x20
 2741 1551 6F6200   		.ascii	"ob\000"
 2742 1554 14       		.byte	0x14
 2743 1555 A2       		.byte	0xa2
 2744 1556 2A160000 		.4byte	0x162a
 2745 155a 7C02     		.2byte	0x27c
 2746 155c 1F       		.uleb128 0x1f
 2747 155d 630A0000 		.4byte	.LASF142
 2748 1561 14       		.byte	0x14
 2749 1562 A2       		.byte	0xa2
 2750 1563 3B160000 		.4byte	0x163b
 2751 1567 8404     		.2byte	0x484
 2752 1569 00       		.byte	0
 2753 156a 18       		.uleb128 0x18
 2754 156b 08       		.byte	0x8
 2755 156c 14       		.byte	0x14
 2756 156d 5F       		.byte	0x5f
 2757 156e 510A0000 		.4byte	.LASF317
 2758 1572 A7150000 		.4byte	0x15a7
 2759 1576 09       		.uleb128 0x9
 2760 1577 CF080000 		.4byte	.LASF318
 2761 157b 14       		.byte	0x14
 2762 157c 63       		.byte	0x63
 2763 157d BA0C0000 		.4byte	0xcba
 2764 1581 00       		.byte	0
 2765 1582 09       		.uleb128 0x9
 2766 1583 540C0000 		.4byte	.LASF319
 2767 1587 14       		.byte	0x14
 2768 1588 67       		.byte	0x67
 2769 1589 910B0000 		.4byte	0xb91
 2770 158d 04       		.byte	0x4
 2771 158e 09       		.uleb128 0x9
 2772 158f 9E000000 		.4byte	.LASF320
 2773 1593 14       		.byte	0x14
 2774 1594 6B       		.byte	0x6b
 2775 1595 910B0000 		.4byte	0xb91
 2776 1599 05       		.byte	0x5
 2777 159a 09       		.uleb128 0x9
 2778 159b 63050000 		.4byte	.LASF321
 2779 159f 14       		.byte	0x14
 2780 15a0 71       		.byte	0x71
 2781 15a1 910B0000 		.4byte	0xb91
 2782 15a5 06       		.byte	0x6
 2783 15a6 00       		.byte	0
 2784 15a7 03       		.uleb128 0x3
 2785 15a8 F7030000 		.4byte	.LASF322
 2786 15ac 14       		.byte	0x14
 2787 15ad 72       		.byte	0x72
 2788 15ae 6A150000 		.4byte	0x156a
 2789 15b2 06       		.uleb128 0x6
 2790 15b3 BC050000 		.4byte	.LASF323
ARM GAS  /var/folders/m4/4md61f0s1_g0rzfghffqnxvr0000gn/T//ccoL5DmC.s 			page 50


 2791 15b7 20       		.byte	0x20
 2792 15b8 14       		.byte	0x14
 2793 15b9 94       		.byte	0x94
 2794 15ba 1F160000 		.4byte	0x161f
 2795 15be 09       		.uleb128 0x9
 2796 15bf 06080000 		.4byte	.LASF120
 2797 15c3 14       		.byte	0x14
 2798 15c4 95       		.byte	0x95
 2799 15c5 6F080000 		.4byte	0x86f
 2800 15c9 00       		.byte	0
 2801 15ca 09       		.uleb128 0x9
 2802 15cb DD0C0000 		.4byte	.LASF121
 2803 15cf 14       		.byte	0x14
 2804 15d0 95       		.byte	0x95
 2805 15d1 8E080000 		.4byte	0x88e
 2806 15d5 04       		.byte	0x4
 2807 15d6 17       		.uleb128 0x17
 2808 15d7 70757400 		.ascii	"put\000"
 2809 15db 14       		.byte	0x14
 2810 15dc 95       		.byte	0x95
 2811 15dd A8080000 		.4byte	0x8a8
 2812 15e1 08       		.byte	0x8
 2813 15e2 17       		.uleb128 0x17
 2814 15e3 67657400 		.ascii	"get\000"
 2815 15e7 14       		.byte	0x14
 2816 15e8 95       		.byte	0x95
 2817 15e9 BD080000 		.4byte	0x8bd
 2818 15ed 0C       		.byte	0xc
 2819 15ee 09       		.uleb128 0x9
 2820 15ef 44050000 		.4byte	.LASF324
 2821 15f3 14       		.byte	0x14
 2822 15f4 95       		.byte	0x95
 2823 15f5 0B090000 		.4byte	0x90b
 2824 15f9 10       		.byte	0x10
 2825 15fa 09       		.uleb128 0x9
 2826 15fb 140D0000 		.4byte	.LASF325
 2827 15ff 14       		.byte	0x14
 2828 1600 95       		.byte	0x95
 2829 1601 25090000 		.4byte	0x925
 2830 1605 14       		.byte	0x14
 2831 1606 09       		.uleb128 0x9
 2832 1607 F3020000 		.4byte	.LASF326
 2833 160b 14       		.byte	0x14
 2834 160c 95       		.byte	0x95
 2835 160d 49090000 		.4byte	0x949
 2836 1611 18       		.byte	0x18
 2837 1612 09       		.uleb128 0x9
 2838 1613 15020000 		.4byte	.LASF327
 2839 1617 14       		.byte	0x14
 2840 1618 95       		.byte	0x95
 2841 1619 6D090000 		.4byte	0x96d
 2842 161d 1C       		.byte	0x1c
 2843 161e 00       		.byte	0
 2844 161f 0C       		.uleb128 0xc
 2845 1620 04       		.byte	0x4
 2846 1621 25160000 		.4byte	0x1625
 2847 1625 19       		.uleb128 0x19
ARM GAS  /var/folders/m4/4md61f0s1_g0rzfghffqnxvr0000gn/T//ccoL5DmC.s 			page 51


 2848 1626 B2150000 		.4byte	0x15b2
 2849 162a 13       		.uleb128 0x13
 2850 162b 63000000 		.4byte	0x63
 2851 162f 3B160000 		.4byte	0x163b
 2852 1633 21       		.uleb128 0x21
 2853 1634 DE040000 		.4byte	0x4de
 2854 1638 0702     		.2byte	0x207
 2855 163a 00       		.byte	0
 2856 163b 0C       		.uleb128 0xc
 2857 163c 04       		.byte	0x4
 2858 163d 41160000 		.4byte	0x1641
 2859 1641 19       		.uleb128 0x19
 2860 1642 A7150000 		.4byte	0x15a7
 2861 1646 23       		.uleb128 0x23
 2862 1647 12100000 		.4byte	.LASF331
 2863 164b 6802     		.2byte	0x268
 2864 164d 15       		.byte	0x15
 2865 164e 39       		.byte	0x39
 2866 164f 36170000 		.4byte	0x1736
 2867 1653 09       		.uleb128 0x9
 2868 1654 BE080000 		.4byte	.LASF328
 2869 1658 15       		.byte	0x15
 2870 1659 43       		.byte	0x43
 2871 165a 36170000 		.4byte	0x1736
 2872 165e 00       		.byte	0
 2873 165f 1F       		.uleb128 0x1f
 2874 1660 0D020000 		.4byte	.LASF329
 2875 1664 15       		.byte	0x15
 2876 1665 44       		.byte	0x44
 2877 1666 EA040000 		.4byte	0x4ea
 2878 166a 5401     		.2byte	0x154
 2879 166c 1F       		.uleb128 0x1f
 2880 166d B1100000 		.4byte	.LASF330
 2881 1671 15       		.byte	0x15
 2882 1672 45       		.byte	0x45
 2883 1673 46170000 		.4byte	0x1746
 2884 1677 6801     		.2byte	0x168
 2885 1679 24       		.uleb128 0x24
 2886 167a 12100000 		.4byte	.LASF331
 2887 167e 15       		.byte	0x15
 2888 167f 3C       		.byte	0x3c
 2889 1680 3C080000 		.4byte	.LASF333
 2890 1684 56170000 		.4byte	0x1756
 2891 1688 01       		.byte	0x1
 2892 1689 91160000 		.4byte	0x1691
 2893 168d 97160000 		.4byte	0x1697
 2894 1691 25       		.uleb128 0x25
 2895 1692 56170000 		.4byte	0x1756
 2896 1696 00       		.byte	0
 2897 1697 26       		.uleb128 0x26
 2898 1698 AB0E0000 		.4byte	.LASF335
 2899 169c 15       		.byte	0x15
 2900 169d 3D       		.byte	0x3d
 2901 169e CD100000 		.4byte	.LASF337
 2902 16a2 01       		.byte	0x1
 2903 16a3 AB160000 		.4byte	0x16ab
 2904 16a7 BB160000 		.4byte	0x16bb
ARM GAS  /var/folders/m4/4md61f0s1_g0rzfghffqnxvr0000gn/T//ccoL5DmC.s 			page 52


 2905 16ab 25       		.uleb128 0x25
 2906 16ac 56170000 		.4byte	0x1756
 2907 16b0 0F       		.uleb128 0xf
 2908 16b1 25000000 		.4byte	0x25
 2909 16b5 0F       		.uleb128 0xf
 2910 16b6 CF000000 		.4byte	0xcf
 2911 16ba 00       		.byte	0
 2912 16bb 24       		.uleb128 0x24
 2913 16bc A5100000 		.4byte	.LASF332
 2914 16c0 15       		.byte	0x15
 2915 16c1 3E       		.byte	0x3e
 2916 16c2 360A0000 		.4byte	.LASF334
 2917 16c6 CF000000 		.4byte	0xcf
 2918 16ca 01       		.byte	0x1
 2919 16cb D3160000 		.4byte	0x16d3
 2920 16cf DE160000 		.4byte	0x16de
 2921 16d3 25       		.uleb128 0x25
 2922 16d4 56170000 		.4byte	0x1756
 2923 16d8 0F       		.uleb128 0xf
 2924 16d9 25000000 		.4byte	0x25
 2925 16dd 00       		.byte	0
 2926 16de 26       		.uleb128 0x26
 2927 16df CF0B0000 		.4byte	.LASF336
 2928 16e3 15       		.byte	0x15
 2929 16e4 3F       		.byte	0x3f
 2930 16e5 27080000 		.4byte	.LASF338
 2931 16e9 01       		.byte	0x1
 2932 16ea F2160000 		.4byte	0x16f2
 2933 16ee F8160000 		.4byte	0x16f8
 2934 16f2 25       		.uleb128 0x25
 2935 16f3 56170000 		.4byte	0x1756
 2936 16f7 00       		.byte	0
 2937 16f8 26       		.uleb128 0x26
 2938 16f9 36070000 		.4byte	.LASF339
 2939 16fd 15       		.byte	0x15
 2940 16fe 40       		.byte	0x40
 2941 16ff 2F050000 		.4byte	.LASF340
 2942 1703 01       		.byte	0x1
 2943 1704 0C170000 		.4byte	0x170c
 2944 1708 17170000 		.4byte	0x1717
 2945 170c 25       		.uleb128 0x25
 2946 170d 56170000 		.4byte	0x1756
 2947 1711 0F       		.uleb128 0xf
 2948 1712 CF000000 		.4byte	0xcf
 2949 1716 00       		.byte	0
 2950 1717 27       		.uleb128 0x27
 2951 1718 A6060000 		.4byte	.LASF359
 2952 171c 15       		.byte	0x15
 2953 171d 42       		.byte	0x42
 2954 171e 4B040000 		.4byte	.LASF360
 2955 1722 CF000000 		.4byte	0xcf
 2956 1726 2A170000 		.4byte	0x172a
 2957 172a 25       		.uleb128 0x25
 2958 172b 56170000 		.4byte	0x1756
 2959 172f 0F       		.uleb128 0xf
 2960 1730 CF000000 		.4byte	0xcf
 2961 1734 00       		.byte	0
ARM GAS  /var/folders/m4/4md61f0s1_g0rzfghffqnxvr0000gn/T//ccoL5DmC.s 			page 53


 2962 1735 00       		.byte	0
 2963 1736 13       		.uleb128 0x13
 2964 1737 7C000000 		.4byte	0x7c
 2965 173b 46170000 		.4byte	0x1746
 2966 173f 14       		.uleb128 0x14
 2967 1740 DE040000 		.4byte	0x4de
 2968 1744 A9       		.byte	0xa9
 2969 1745 00       		.byte	0
 2970 1746 13       		.uleb128 0x13
 2971 1747 63000000 		.4byte	0x63
 2972 174b 56170000 		.4byte	0x1756
 2973 174f 14       		.uleb128 0x14
 2974 1750 DE040000 		.4byte	0x4de
 2975 1754 FF       		.byte	0xff
 2976 1755 00       		.byte	0
 2977 1756 0C       		.uleb128 0xc
 2978 1757 04       		.byte	0x4
 2979 1758 46160000 		.4byte	0x1646
 2980 175c 04       		.uleb128 0x4
 2981 175d 08       		.byte	0x8
 2982 175e 04       		.byte	0x4
 2983 175f 2D0F0000 		.4byte	.LASF341
 2984 1763 04       		.uleb128 0x4
 2985 1764 04       		.byte	0x4
 2986 1765 04       		.byte	0x4
 2987 1766 99030000 		.4byte	.LASF342
 2988 176a 28       		.uleb128 0x28
 2989 176b 810F0000 		.4byte	.LASF361
 2990 176f 01       		.byte	0x1
 2991 1770 0B       		.byte	0xb
 2992 1771 25000000 		.4byte	0x25
 2993 1775 00000000 		.4byte	.LFB268
 2994 1779 78000000 		.4byte	.LFE268-.LFB268
 2995 177d 01       		.uleb128 0x1
 2996 177e 9C       		.byte	0x9c
 2997 177f 70180000 		.4byte	0x1870
 2998 1783 29       		.uleb128 0x29
 2999 1784 6C656400 		.ascii	"led\000"
 3000 1788 01       		.byte	0x1
 3001 1789 15       		.byte	0x15
 3002 178a 56170000 		.4byte	0x1756
 3003 178e 2A       		.uleb128 0x2a
 3004 178f 00000000 		.4byte	.Ldebug_ranges0+0
 3005 1793 BF170000 		.4byte	0x17bf
 3006 1797 2B       		.uleb128 0x2b
 3007 1798 08020000 		.4byte	.LASF362
 3008 179c 01       		.byte	0x1
 3009 179d 1A       		.byte	0x1a
 3010 179e 70180000 		.4byte	0x1870
 3011 17a2 02       		.uleb128 0x2
 3012 17a3 91       		.byte	0x91
 3013 17a4 5C       		.sleb128 -36
 3014 17a5 2C       		.uleb128 0x2c
 3015 17a6 6A000000 		.4byte	.LVL11
 3016 17aa A7180000 		.4byte	0x18a7
 3017 17ae 2D       		.uleb128 0x2d
 3018 17af 01       		.uleb128 0x1
ARM GAS  /var/folders/m4/4md61f0s1_g0rzfghffqnxvr0000gn/T//ccoL5DmC.s 			page 54


 3019 17b0 51       		.byte	0x51
 3020 17b1 05       		.uleb128 0x5
 3021 17b2 03       		.byte	0x3
 3022 17b3 00000000 		.4byte	.LC1
 3023 17b7 2D       		.uleb128 0x2d
 3024 17b8 01       		.uleb128 0x1
 3025 17b9 52       		.byte	0x52
 3026 17ba 02       		.uleb128 0x2
 3027 17bb 74       		.byte	0x74
 3028 17bc 00       		.sleb128 0
 3029 17bd 00       		.byte	0
 3030 17be 00       		.byte	0
 3031 17bf 2E       		.uleb128 0x2e
 3032 17c0 08000000 		.4byte	.LVL0
 3033 17c4 B2180000 		.4byte	0x18b2
 3034 17c8 2E       		.uleb128 0x2e
 3035 17c9 0C000000 		.4byte	.LVL1
 3036 17cd BD180000 		.4byte	0x18bd
 3037 17d1 2F       		.uleb128 0x2f
 3038 17d2 14000000 		.4byte	.LVL2
 3039 17d6 C9180000 		.4byte	0x18c9
 3040 17da E9170000 		.4byte	0x17e9
 3041 17de 2D       		.uleb128 0x2d
 3042 17df 01       		.uleb128 0x1
 3043 17e0 50       		.byte	0x50
 3044 17e1 01       		.uleb128 0x1
 3045 17e2 31       		.byte	0x31
 3046 17e3 2D       		.uleb128 0x2d
 3047 17e4 01       		.uleb128 0x1
 3048 17e5 51       		.byte	0x51
 3049 17e6 01       		.uleb128 0x1
 3050 17e7 31       		.byte	0x31
 3051 17e8 00       		.byte	0
 3052 17e9 2F       		.uleb128 0x2f
 3053 17ea 1C000000 		.4byte	.LVL3
 3054 17ee C9180000 		.4byte	0x18c9
 3055 17f2 01180000 		.4byte	0x1801
 3056 17f6 2D       		.uleb128 0x2d
 3057 17f7 01       		.uleb128 0x1
 3058 17f8 50       		.byte	0x50
 3059 17f9 01       		.uleb128 0x1
 3060 17fa 32       		.byte	0x32
 3061 17fb 2D       		.uleb128 0x2d
 3062 17fc 01       		.uleb128 0x1
 3063 17fd 51       		.byte	0x51
 3064 17fe 01       		.uleb128 0x1
 3065 17ff 31       		.byte	0x31
 3066 1800 00       		.byte	0
 3067 1801 2F       		.uleb128 0x2f
 3068 1802 24000000 		.4byte	.LVL4
 3069 1806 C9180000 		.4byte	0x18c9
 3070 180a 19180000 		.4byte	0x1819
 3071 180e 2D       		.uleb128 0x2d
 3072 180f 01       		.uleb128 0x1
 3073 1810 50       		.byte	0x50
 3074 1811 01       		.uleb128 0x1
 3075 1812 34       		.byte	0x34
ARM GAS  /var/folders/m4/4md61f0s1_g0rzfghffqnxvr0000gn/T//ccoL5DmC.s 			page 55


 3076 1813 2D       		.uleb128 0x2d
 3077 1814 01       		.uleb128 0x1
 3078 1815 51       		.byte	0x51
 3079 1816 01       		.uleb128 0x1
 3080 1817 31       		.byte	0x31
 3081 1818 00       		.byte	0
 3082 1819 2F       		.uleb128 0x2f
 3083 181a 2C000000 		.4byte	.LVL5
 3084 181e D5180000 		.4byte	0x18d5
 3085 1822 2E180000 		.4byte	0x182e
 3086 1826 2D       		.uleb128 0x2d
 3087 1827 01       		.uleb128 0x1
 3088 1828 50       		.byte	0x50
 3089 1829 03       		.uleb128 0x3
 3090 182a 0A       		.byte	0xa
 3091 182b 1027     		.2byte	0x2710
 3092 182d 00       		.byte	0
 3093 182e 2E       		.uleb128 0x2e
 3094 182f 30000000 		.4byte	.LVL6
 3095 1833 E0180000 		.4byte	0x18e0
 3096 1837 2F       		.uleb128 0x2f
 3097 1838 38000000 		.4byte	.LVL7
 3098 183c EF180000 		.4byte	0x18ef
 3099 1840 4C180000 		.4byte	0x184c
 3100 1844 2D       		.uleb128 0x2d
 3101 1845 01       		.uleb128 0x1
 3102 1846 50       		.byte	0x50
 3103 1847 03       		.uleb128 0x3
 3104 1848 0A       		.byte	0xa
 3105 1849 6802     		.2byte	0x268
 3106 184b 00       		.byte	0
 3107 184c 30       		.uleb128 0x30
 3108 184d 3C000000 		.4byte	.LVL8
 3109 1851 2F       		.uleb128 0x2f
 3110 1852 4C000000 		.4byte	.LVL9
 3111 1856 D5180000 		.4byte	0x18d5
 3112 185a 66180000 		.4byte	0x1866
 3113 185e 2D       		.uleb128 0x2d
 3114 185f 01       		.uleb128 0x1
 3115 1860 50       		.byte	0x50
 3116 1861 03       		.uleb128 0x3
 3117 1862 0A       		.byte	0xa
 3118 1863 1027     		.2byte	0x2710
 3119 1865 00       		.byte	0
 3120 1866 2E       		.uleb128 0x2e
 3121 1867 50000000 		.4byte	.LVL10
 3122 186b FC180000 		.4byte	0x18fc
 3123 186f 00       		.byte	0
 3124 1870 13       		.uleb128 0x13
 3125 1871 63000000 		.4byte	0x63
 3126 1875 80180000 		.4byte	0x1880
 3127 1879 14       		.uleb128 0x14
 3128 187a DE040000 		.4byte	0x4de
 3129 187e 13       		.byte	0x13
 3130 187f 00       		.byte	0
 3131 1880 31       		.uleb128 0x31
 3132 1881 080C0000 		.4byte	.LASF343
ARM GAS  /var/folders/m4/4md61f0s1_g0rzfghffqnxvr0000gn/T//ccoL5DmC.s 			page 56


 3133 1885 16       		.byte	0x16
 3134 1886 FA06     		.2byte	0x6fa
 3135 1888 8C180000 		.4byte	0x188c
 3136 188c 12       		.uleb128 0x12
 3137 188d C4000000 		.4byte	0xc4
 3138 1891 32       		.uleb128 0x32
 3139 1892 636800   		.ascii	"ch\000"
 3140 1895 07       		.byte	0x7
 3141 1896 0902     		.2byte	0x209
 3142 1898 77040000 		.4byte	0x477
 3143 189c 33       		.uleb128 0x33
 3144 189d AE000000 		.4byte	.LASF344
 3145 18a1 17       		.byte	0x17
 3146 18a2 04       		.byte	0x4
 3147 18a3 F1140000 		.4byte	0x14f1
 3148 18a7 34       		.uleb128 0x34
 3149 18a8 2C060000 		.4byte	.LASF345
 3150 18ac 2C060000 		.4byte	.LASF345
 3151 18b0 18       		.byte	0x18
 3152 18b1 29       		.byte	0x29
 3153 18b2 34       		.uleb128 0x34
 3154 18b3 820C0000 		.4byte	.LASF346
 3155 18b7 820C0000 		.4byte	.LASF346
 3156 18bb 19       		.byte	0x19
 3157 18bc 9B       		.byte	0x9b
 3158 18bd 35       		.uleb128 0x35
 3159 18be BA060000 		.4byte	.LASF347
 3160 18c2 BA060000 		.4byte	.LASF347
 3161 18c6 1A       		.byte	0x1a
 3162 18c7 1501     		.2byte	0x115
 3163 18c9 35       		.uleb128 0x35
 3164 18ca 86010000 		.4byte	.LASF348
 3165 18ce 86010000 		.4byte	.LASF348
 3166 18d2 1B       		.byte	0x1b
 3167 18d3 5803     		.2byte	0x358
 3168 18d5 34       		.uleb128 0x34
 3169 18d6 400E0000 		.4byte	.LASF349
 3170 18da 400E0000 		.4byte	.LASF349
 3171 18de 1C       		.byte	0x1c
 3172 18df 96       		.byte	0x96
 3173 18e0 36       		.uleb128 0x36
 3174 18e1 49050000 		.4byte	.LASF350
 3175 18e5 EE000000 		.4byte	.LASF352
 3176 18e9 17       		.byte	0x17
 3177 18ea 06       		.byte	0x6
 3178 18eb 49050000 		.4byte	.LASF350
 3179 18ef 37       		.uleb128 0x37
 3180 18f0 C4060000 		.4byte	.LASF363
 3181 18f4 AF090000 		.4byte	.LASF364
 3182 18f8 C4060000 		.4byte	.LASF363
 3183 18fc 36       		.uleb128 0x36
 3184 18fd E7050000 		.4byte	.LASF351
 3185 1901 35060000 		.4byte	.LASF353
 3186 1905 17       		.byte	0x17
 3187 1906 07       		.byte	0x7
 3188 1907 E7050000 		.4byte	.LASF351
 3189 190b 00       		.byte	0
ARM GAS  /var/folders/m4/4md61f0s1_g0rzfghffqnxvr0000gn/T//ccoL5DmC.s 			page 57


 3190              		.section	.debug_abbrev,"",%progbits
 3191              	.Ldebug_abbrev0:
 3192 0000 01       		.uleb128 0x1
 3193 0001 11       		.uleb128 0x11
 3194 0002 01       		.byte	0x1
 3195 0003 25       		.uleb128 0x25
 3196 0004 0E       		.uleb128 0xe
 3197 0005 13       		.uleb128 0x13
 3198 0006 0B       		.uleb128 0xb
 3199 0007 03       		.uleb128 0x3
 3200 0008 0E       		.uleb128 0xe
 3201 0009 1B       		.uleb128 0x1b
 3202 000a 0E       		.uleb128 0xe
 3203 000b 55       		.uleb128 0x55
 3204 000c 17       		.uleb128 0x17
 3205 000d 11       		.uleb128 0x11
 3206 000e 01       		.uleb128 0x1
 3207 000f 10       		.uleb128 0x10
 3208 0010 17       		.uleb128 0x17
 3209 0011 00       		.byte	0
 3210 0012 00       		.byte	0
 3211 0013 02       		.uleb128 0x2
 3212 0014 24       		.uleb128 0x24
 3213 0015 00       		.byte	0
 3214 0016 0B       		.uleb128 0xb
 3215 0017 0B       		.uleb128 0xb
 3216 0018 3E       		.uleb128 0x3e
 3217 0019 0B       		.uleb128 0xb
 3218 001a 03       		.uleb128 0x3
 3219 001b 08       		.uleb128 0x8
 3220 001c 00       		.byte	0
 3221 001d 00       		.byte	0
 3222 001e 03       		.uleb128 0x3
 3223 001f 16       		.uleb128 0x16
 3224 0020 00       		.byte	0
 3225 0021 03       		.uleb128 0x3
 3226 0022 0E       		.uleb128 0xe
 3227 0023 3A       		.uleb128 0x3a
 3228 0024 0B       		.uleb128 0xb
 3229 0025 3B       		.uleb128 0x3b
 3230 0026 0B       		.uleb128 0xb
 3231 0027 49       		.uleb128 0x49
 3232 0028 13       		.uleb128 0x13
 3233 0029 00       		.byte	0
 3234 002a 00       		.byte	0
 3235 002b 04       		.uleb128 0x4
 3236 002c 24       		.uleb128 0x24
 3237 002d 00       		.byte	0
 3238 002e 0B       		.uleb128 0xb
 3239 002f 0B       		.uleb128 0xb
 3240 0030 3E       		.uleb128 0x3e
 3241 0031 0B       		.uleb128 0xb
 3242 0032 03       		.uleb128 0x3
 3243 0033 0E       		.uleb128 0xe
 3244 0034 00       		.byte	0
 3245 0035 00       		.byte	0
 3246 0036 05       		.uleb128 0x5
ARM GAS  /var/folders/m4/4md61f0s1_g0rzfghffqnxvr0000gn/T//ccoL5DmC.s 			page 58


 3247 0037 3B       		.uleb128 0x3b
 3248 0038 00       		.byte	0
 3249 0039 03       		.uleb128 0x3
 3250 003a 0E       		.uleb128 0xe
 3251 003b 00       		.byte	0
 3252 003c 00       		.byte	0
 3253 003d 06       		.uleb128 0x6
 3254 003e 13       		.uleb128 0x13
 3255 003f 01       		.byte	0x1
 3256 0040 03       		.uleb128 0x3
 3257 0041 0E       		.uleb128 0xe
 3258 0042 0B       		.uleb128 0xb
 3259 0043 0B       		.uleb128 0xb
 3260 0044 3A       		.uleb128 0x3a
 3261 0045 0B       		.uleb128 0xb
 3262 0046 3B       		.uleb128 0x3b
 3263 0047 0B       		.uleb128 0xb
 3264 0048 01       		.uleb128 0x1
 3265 0049 13       		.uleb128 0x13
 3266 004a 00       		.byte	0
 3267 004b 00       		.byte	0
 3268 004c 07       		.uleb128 0x7
 3269 004d 17       		.uleb128 0x17
 3270 004e 01       		.byte	0x1
 3271 004f 0B       		.uleb128 0xb
 3272 0050 0B       		.uleb128 0xb
 3273 0051 3A       		.uleb128 0x3a
 3274 0052 0B       		.uleb128 0xb
 3275 0053 3B       		.uleb128 0x3b
 3276 0054 0B       		.uleb128 0xb
 3277 0055 01       		.uleb128 0x1
 3278 0056 13       		.uleb128 0x13
 3279 0057 00       		.byte	0
 3280 0058 00       		.byte	0
 3281 0059 08       		.uleb128 0x8
 3282 005a 0D       		.uleb128 0xd
 3283 005b 00       		.byte	0
 3284 005c 03       		.uleb128 0x3
 3285 005d 0E       		.uleb128 0xe
 3286 005e 3A       		.uleb128 0x3a
 3287 005f 0B       		.uleb128 0xb
 3288 0060 3B       		.uleb128 0x3b
 3289 0061 05       		.uleb128 0x5
 3290 0062 49       		.uleb128 0x49
 3291 0063 13       		.uleb128 0x13
 3292 0064 00       		.byte	0
 3293 0065 00       		.byte	0
 3294 0066 09       		.uleb128 0x9
 3295 0067 0D       		.uleb128 0xd
 3296 0068 00       		.byte	0
 3297 0069 03       		.uleb128 0x3
 3298 006a 0E       		.uleb128 0xe
 3299 006b 3A       		.uleb128 0x3a
 3300 006c 0B       		.uleb128 0xb
 3301 006d 3B       		.uleb128 0x3b
 3302 006e 0B       		.uleb128 0xb
 3303 006f 49       		.uleb128 0x49
ARM GAS  /var/folders/m4/4md61f0s1_g0rzfghffqnxvr0000gn/T//ccoL5DmC.s 			page 59


 3304 0070 13       		.uleb128 0x13
 3305 0071 38       		.uleb128 0x38
 3306 0072 0B       		.uleb128 0xb
 3307 0073 00       		.byte	0
 3308 0074 00       		.byte	0
 3309 0075 0A       		.uleb128 0xa
 3310 0076 0D       		.uleb128 0xd
 3311 0077 00       		.byte	0
 3312 0078 03       		.uleb128 0x3
 3313 0079 08       		.uleb128 0x8
 3314 007a 3A       		.uleb128 0x3a
 3315 007b 0B       		.uleb128 0xb
 3316 007c 3B       		.uleb128 0x3b
 3317 007d 05       		.uleb128 0x5
 3318 007e 49       		.uleb128 0x49
 3319 007f 13       		.uleb128 0x13
 3320 0080 38       		.uleb128 0x38
 3321 0081 0B       		.uleb128 0xb
 3322 0082 00       		.byte	0
 3323 0083 00       		.byte	0
 3324 0084 0B       		.uleb128 0xb
 3325 0085 0D       		.uleb128 0xd
 3326 0086 00       		.byte	0
 3327 0087 03       		.uleb128 0x3
 3328 0088 0E       		.uleb128 0xe
 3329 0089 3A       		.uleb128 0x3a
 3330 008a 0B       		.uleb128 0xb
 3331 008b 3B       		.uleb128 0x3b
 3332 008c 05       		.uleb128 0x5
 3333 008d 49       		.uleb128 0x49
 3334 008e 13       		.uleb128 0x13
 3335 008f 38       		.uleb128 0x38
 3336 0090 0B       		.uleb128 0xb
 3337 0091 00       		.byte	0
 3338 0092 00       		.byte	0
 3339 0093 0C       		.uleb128 0xc
 3340 0094 0F       		.uleb128 0xf
 3341 0095 00       		.byte	0
 3342 0096 0B       		.uleb128 0xb
 3343 0097 0B       		.uleb128 0xb
 3344 0098 49       		.uleb128 0x49
 3345 0099 13       		.uleb128 0x13
 3346 009a 00       		.byte	0
 3347 009b 00       		.byte	0
 3348 009c 0D       		.uleb128 0xd
 3349 009d 13       		.uleb128 0x13
 3350 009e 01       		.byte	0x1
 3351 009f 03       		.uleb128 0x3
 3352 00a0 0E       		.uleb128 0xe
 3353 00a1 0B       		.uleb128 0xb
 3354 00a2 0B       		.uleb128 0xb
 3355 00a3 3A       		.uleb128 0x3a
 3356 00a4 0B       		.uleb128 0xb
 3357 00a5 3B       		.uleb128 0x3b
 3358 00a6 05       		.uleb128 0x5
 3359 00a7 01       		.uleb128 0x1
 3360 00a8 13       		.uleb128 0x13
ARM GAS  /var/folders/m4/4md61f0s1_g0rzfghffqnxvr0000gn/T//ccoL5DmC.s 			page 60


 3361 00a9 00       		.byte	0
 3362 00aa 00       		.byte	0
 3363 00ab 0E       		.uleb128 0xe
 3364 00ac 15       		.uleb128 0x15
 3365 00ad 01       		.byte	0x1
 3366 00ae 01       		.uleb128 0x1
 3367 00af 13       		.uleb128 0x13
 3368 00b0 00       		.byte	0
 3369 00b1 00       		.byte	0
 3370 00b2 0F       		.uleb128 0xf
 3371 00b3 05       		.uleb128 0x5
 3372 00b4 00       		.byte	0
 3373 00b5 49       		.uleb128 0x49
 3374 00b6 13       		.uleb128 0x13
 3375 00b7 00       		.byte	0
 3376 00b8 00       		.byte	0
 3377 00b9 10       		.uleb128 0x10
 3378 00ba 0F       		.uleb128 0xf
 3379 00bb 00       		.byte	0
 3380 00bc 0B       		.uleb128 0xb
 3381 00bd 0B       		.uleb128 0xb
 3382 00be 00       		.byte	0
 3383 00bf 00       		.byte	0
 3384 00c0 11       		.uleb128 0x11
 3385 00c1 13       		.uleb128 0x13
 3386 00c2 01       		.byte	0x1
 3387 00c3 03       		.uleb128 0x3
 3388 00c4 0E       		.uleb128 0xe
 3389 00c5 0B       		.uleb128 0xb
 3390 00c6 05       		.uleb128 0x5
 3391 00c7 3A       		.uleb128 0x3a
 3392 00c8 0B       		.uleb128 0xb
 3393 00c9 3B       		.uleb128 0x3b
 3394 00ca 05       		.uleb128 0x5
 3395 00cb 01       		.uleb128 0x1
 3396 00cc 13       		.uleb128 0x13
 3397 00cd 00       		.byte	0
 3398 00ce 00       		.byte	0
 3399 00cf 12       		.uleb128 0x12
 3400 00d0 35       		.uleb128 0x35
 3401 00d1 00       		.byte	0
 3402 00d2 49       		.uleb128 0x49
 3403 00d3 13       		.uleb128 0x13
 3404 00d4 00       		.byte	0
 3405 00d5 00       		.byte	0
 3406 00d6 13       		.uleb128 0x13
 3407 00d7 01       		.uleb128 0x1
 3408 00d8 01       		.byte	0x1
 3409 00d9 49       		.uleb128 0x49
 3410 00da 13       		.uleb128 0x13
 3411 00db 01       		.uleb128 0x1
 3412 00dc 13       		.uleb128 0x13
 3413 00dd 00       		.byte	0
 3414 00de 00       		.byte	0
 3415 00df 14       		.uleb128 0x14
 3416 00e0 21       		.uleb128 0x21
 3417 00e1 00       		.byte	0
ARM GAS  /var/folders/m4/4md61f0s1_g0rzfghffqnxvr0000gn/T//ccoL5DmC.s 			page 61


 3418 00e2 49       		.uleb128 0x49
 3419 00e3 13       		.uleb128 0x13
 3420 00e4 2F       		.uleb128 0x2f
 3421 00e5 0B       		.uleb128 0xb
 3422 00e6 00       		.byte	0
 3423 00e7 00       		.byte	0
 3424 00e8 15       		.uleb128 0x15
 3425 00e9 04       		.uleb128 0x4
 3426 00ea 01       		.byte	0x1
 3427 00eb 0B       		.uleb128 0xb
 3428 00ec 0B       		.uleb128 0xb
 3429 00ed 49       		.uleb128 0x49
 3430 00ee 13       		.uleb128 0x13
 3431 00ef 3A       		.uleb128 0x3a
 3432 00f0 0B       		.uleb128 0xb
 3433 00f1 3B       		.uleb128 0x3b
 3434 00f2 0B       		.uleb128 0xb
 3435 00f3 6E       		.uleb128 0x6e
 3436 00f4 0E       		.uleb128 0xe
 3437 00f5 01       		.uleb128 0x1
 3438 00f6 13       		.uleb128 0x13
 3439 00f7 00       		.byte	0
 3440 00f8 00       		.byte	0
 3441 00f9 16       		.uleb128 0x16
 3442 00fa 28       		.uleb128 0x28
 3443 00fb 00       		.byte	0
 3444 00fc 03       		.uleb128 0x3
 3445 00fd 0E       		.uleb128 0xe
 3446 00fe 1C       		.uleb128 0x1c
 3447 00ff 0B       		.uleb128 0xb
 3448 0100 00       		.byte	0
 3449 0101 00       		.byte	0
 3450 0102 17       		.uleb128 0x17
 3451 0103 0D       		.uleb128 0xd
 3452 0104 00       		.byte	0
 3453 0105 03       		.uleb128 0x3
 3454 0106 08       		.uleb128 0x8
 3455 0107 3A       		.uleb128 0x3a
 3456 0108 0B       		.uleb128 0xb
 3457 0109 3B       		.uleb128 0x3b
 3458 010a 0B       		.uleb128 0xb
 3459 010b 49       		.uleb128 0x49
 3460 010c 13       		.uleb128 0x13
 3461 010d 38       		.uleb128 0x38
 3462 010e 0B       		.uleb128 0xb
 3463 010f 00       		.byte	0
 3464 0110 00       		.byte	0
 3465 0111 18       		.uleb128 0x18
 3466 0112 13       		.uleb128 0x13
 3467 0113 01       		.byte	0x1
 3468 0114 0B       		.uleb128 0xb
 3469 0115 0B       		.uleb128 0xb
 3470 0116 3A       		.uleb128 0x3a
 3471 0117 0B       		.uleb128 0xb
 3472 0118 3B       		.uleb128 0x3b
 3473 0119 0B       		.uleb128 0xb
 3474 011a 6E       		.uleb128 0x6e
ARM GAS  /var/folders/m4/4md61f0s1_g0rzfghffqnxvr0000gn/T//ccoL5DmC.s 			page 62


 3475 011b 0E       		.uleb128 0xe
 3476 011c 01       		.uleb128 0x1
 3477 011d 13       		.uleb128 0x13
 3478 011e 00       		.byte	0
 3479 011f 00       		.byte	0
 3480 0120 19       		.uleb128 0x19
 3481 0121 26       		.uleb128 0x26
 3482 0122 00       		.byte	0
 3483 0123 49       		.uleb128 0x49
 3484 0124 13       		.uleb128 0x13
 3485 0125 00       		.byte	0
 3486 0126 00       		.byte	0
 3487 0127 1A       		.uleb128 0x1a
 3488 0128 15       		.uleb128 0x15
 3489 0129 01       		.byte	0x1
 3490 012a 49       		.uleb128 0x49
 3491 012b 13       		.uleb128 0x13
 3492 012c 01       		.uleb128 0x1
 3493 012d 13       		.uleb128 0x13
 3494 012e 00       		.byte	0
 3495 012f 00       		.byte	0
 3496 0130 1B       		.uleb128 0x1b
 3497 0131 16       		.uleb128 0x16
 3498 0132 00       		.byte	0
 3499 0133 03       		.uleb128 0x3
 3500 0134 0E       		.uleb128 0xe
 3501 0135 3A       		.uleb128 0x3a
 3502 0136 0B       		.uleb128 0xb
 3503 0137 3B       		.uleb128 0x3b
 3504 0138 05       		.uleb128 0x5
 3505 0139 49       		.uleb128 0x49
 3506 013a 13       		.uleb128 0x13
 3507 013b 00       		.byte	0
 3508 013c 00       		.byte	0
 3509 013d 1C       		.uleb128 0x1c
 3510 013e 04       		.uleb128 0x4
 3511 013f 01       		.byte	0x1
 3512 0140 0B       		.uleb128 0xb
 3513 0141 0B       		.uleb128 0xb
 3514 0142 49       		.uleb128 0x49
 3515 0143 13       		.uleb128 0x13
 3516 0144 3A       		.uleb128 0x3a
 3517 0145 0B       		.uleb128 0xb
 3518 0146 3B       		.uleb128 0x3b
 3519 0147 05       		.uleb128 0x5
 3520 0148 6E       		.uleb128 0x6e
 3521 0149 0E       		.uleb128 0xe
 3522 014a 01       		.uleb128 0x1
 3523 014b 13       		.uleb128 0x13
 3524 014c 00       		.byte	0
 3525 014d 00       		.byte	0
 3526 014e 1D       		.uleb128 0x1d
 3527 014f 13       		.uleb128 0x13
 3528 0150 01       		.byte	0x1
 3529 0151 0B       		.uleb128 0xb
 3530 0152 0B       		.uleb128 0xb
 3531 0153 3A       		.uleb128 0x3a
ARM GAS  /var/folders/m4/4md61f0s1_g0rzfghffqnxvr0000gn/T//ccoL5DmC.s 			page 63


 3532 0154 0B       		.uleb128 0xb
 3533 0155 3B       		.uleb128 0x3b
 3534 0156 05       		.uleb128 0x5
 3535 0157 6E       		.uleb128 0x6e
 3536 0158 0E       		.uleb128 0xe
 3537 0159 01       		.uleb128 0x1
 3538 015a 13       		.uleb128 0x13
 3539 015b 00       		.byte	0
 3540 015c 00       		.byte	0
 3541 015d 1E       		.uleb128 0x1e
 3542 015e 13       		.uleb128 0x13
 3543 015f 01       		.byte	0x1
 3544 0160 0B       		.uleb128 0xb
 3545 0161 06       		.uleb128 0x6
 3546 0162 3A       		.uleb128 0x3a
 3547 0163 0B       		.uleb128 0xb
 3548 0164 3B       		.uleb128 0x3b
 3549 0165 0B       		.uleb128 0xb
 3550 0166 6E       		.uleb128 0x6e
 3551 0167 0E       		.uleb128 0xe
 3552 0168 01       		.uleb128 0x1
 3553 0169 13       		.uleb128 0x13
 3554 016a 00       		.byte	0
 3555 016b 00       		.byte	0
 3556 016c 1F       		.uleb128 0x1f
 3557 016d 0D       		.uleb128 0xd
 3558 016e 00       		.byte	0
 3559 016f 03       		.uleb128 0x3
 3560 0170 0E       		.uleb128 0xe
 3561 0171 3A       		.uleb128 0x3a
 3562 0172 0B       		.uleb128 0xb
 3563 0173 3B       		.uleb128 0x3b
 3564 0174 0B       		.uleb128 0xb
 3565 0175 49       		.uleb128 0x49
 3566 0176 13       		.uleb128 0x13
 3567 0177 38       		.uleb128 0x38
 3568 0178 05       		.uleb128 0x5
 3569 0179 00       		.byte	0
 3570 017a 00       		.byte	0
 3571 017b 20       		.uleb128 0x20
 3572 017c 0D       		.uleb128 0xd
 3573 017d 00       		.byte	0
 3574 017e 03       		.uleb128 0x3
 3575 017f 08       		.uleb128 0x8
 3576 0180 3A       		.uleb128 0x3a
 3577 0181 0B       		.uleb128 0xb
 3578 0182 3B       		.uleb128 0x3b
 3579 0183 0B       		.uleb128 0xb
 3580 0184 49       		.uleb128 0x49
 3581 0185 13       		.uleb128 0x13
 3582 0186 38       		.uleb128 0x38
 3583 0187 05       		.uleb128 0x5
 3584 0188 00       		.byte	0
 3585 0189 00       		.byte	0
 3586 018a 21       		.uleb128 0x21
 3587 018b 21       		.uleb128 0x21
 3588 018c 00       		.byte	0
ARM GAS  /var/folders/m4/4md61f0s1_g0rzfghffqnxvr0000gn/T//ccoL5DmC.s 			page 64


 3589 018d 49       		.uleb128 0x49
 3590 018e 13       		.uleb128 0x13
 3591 018f 2F       		.uleb128 0x2f
 3592 0190 05       		.uleb128 0x5
 3593 0191 00       		.byte	0
 3594 0192 00       		.byte	0
 3595 0193 22       		.uleb128 0x22
 3596 0194 13       		.uleb128 0x13
 3597 0195 01       		.byte	0x1
 3598 0196 03       		.uleb128 0x3
 3599 0197 0E       		.uleb128 0xe
 3600 0198 0B       		.uleb128 0xb
 3601 0199 05       		.uleb128 0x5
 3602 019a 3A       		.uleb128 0x3a
 3603 019b 0B       		.uleb128 0xb
 3604 019c 3B       		.uleb128 0x3b
 3605 019d 0B       		.uleb128 0xb
 3606 019e 01       		.uleb128 0x1
 3607 019f 13       		.uleb128 0x13
 3608 01a0 00       		.byte	0
 3609 01a1 00       		.byte	0
 3610 01a2 23       		.uleb128 0x23
 3611 01a3 02       		.uleb128 0x2
 3612 01a4 01       		.byte	0x1
 3613 01a5 03       		.uleb128 0x3
 3614 01a6 0E       		.uleb128 0xe
 3615 01a7 0B       		.uleb128 0xb
 3616 01a8 05       		.uleb128 0x5
 3617 01a9 3A       		.uleb128 0x3a
 3618 01aa 0B       		.uleb128 0xb
 3619 01ab 3B       		.uleb128 0x3b
 3620 01ac 0B       		.uleb128 0xb
 3621 01ad 01       		.uleb128 0x1
 3622 01ae 13       		.uleb128 0x13
 3623 01af 00       		.byte	0
 3624 01b0 00       		.byte	0
 3625 01b1 24       		.uleb128 0x24
 3626 01b2 2E       		.uleb128 0x2e
 3627 01b3 01       		.byte	0x1
 3628 01b4 3F       		.uleb128 0x3f
 3629 01b5 19       		.uleb128 0x19
 3630 01b6 03       		.uleb128 0x3
 3631 01b7 0E       		.uleb128 0xe
 3632 01b8 3A       		.uleb128 0x3a
 3633 01b9 0B       		.uleb128 0xb
 3634 01ba 3B       		.uleb128 0x3b
 3635 01bb 0B       		.uleb128 0xb
 3636 01bc 6E       		.uleb128 0x6e
 3637 01bd 0E       		.uleb128 0xe
 3638 01be 49       		.uleb128 0x49
 3639 01bf 13       		.uleb128 0x13
 3640 01c0 32       		.uleb128 0x32
 3641 01c1 0B       		.uleb128 0xb
 3642 01c2 3C       		.uleb128 0x3c
 3643 01c3 19       		.uleb128 0x19
 3644 01c4 64       		.uleb128 0x64
 3645 01c5 13       		.uleb128 0x13
ARM GAS  /var/folders/m4/4md61f0s1_g0rzfghffqnxvr0000gn/T//ccoL5DmC.s 			page 65


 3646 01c6 01       		.uleb128 0x1
 3647 01c7 13       		.uleb128 0x13
 3648 01c8 00       		.byte	0
 3649 01c9 00       		.byte	0
 3650 01ca 25       		.uleb128 0x25
 3651 01cb 05       		.uleb128 0x5
 3652 01cc 00       		.byte	0
 3653 01cd 49       		.uleb128 0x49
 3654 01ce 13       		.uleb128 0x13
 3655 01cf 34       		.uleb128 0x34
 3656 01d0 19       		.uleb128 0x19
 3657 01d1 00       		.byte	0
 3658 01d2 00       		.byte	0
 3659 01d3 26       		.uleb128 0x26
 3660 01d4 2E       		.uleb128 0x2e
 3661 01d5 01       		.byte	0x1
 3662 01d6 3F       		.uleb128 0x3f
 3663 01d7 19       		.uleb128 0x19
 3664 01d8 03       		.uleb128 0x3
 3665 01d9 0E       		.uleb128 0xe
 3666 01da 3A       		.uleb128 0x3a
 3667 01db 0B       		.uleb128 0xb
 3668 01dc 3B       		.uleb128 0x3b
 3669 01dd 0B       		.uleb128 0xb
 3670 01de 6E       		.uleb128 0x6e
 3671 01df 0E       		.uleb128 0xe
 3672 01e0 32       		.uleb128 0x32
 3673 01e1 0B       		.uleb128 0xb
 3674 01e2 3C       		.uleb128 0x3c
 3675 01e3 19       		.uleb128 0x19
 3676 01e4 64       		.uleb128 0x64
 3677 01e5 13       		.uleb128 0x13
 3678 01e6 01       		.uleb128 0x1
 3679 01e7 13       		.uleb128 0x13
 3680 01e8 00       		.byte	0
 3681 01e9 00       		.byte	0
 3682 01ea 27       		.uleb128 0x27
 3683 01eb 2E       		.uleb128 0x2e
 3684 01ec 01       		.byte	0x1
 3685 01ed 3F       		.uleb128 0x3f
 3686 01ee 19       		.uleb128 0x19
 3687 01ef 03       		.uleb128 0x3
 3688 01f0 0E       		.uleb128 0xe
 3689 01f1 3A       		.uleb128 0x3a
 3690 01f2 0B       		.uleb128 0xb
 3691 01f3 3B       		.uleb128 0x3b
 3692 01f4 0B       		.uleb128 0xb
 3693 01f5 6E       		.uleb128 0x6e
 3694 01f6 0E       		.uleb128 0xe
 3695 01f7 49       		.uleb128 0x49
 3696 01f8 13       		.uleb128 0x13
 3697 01f9 3C       		.uleb128 0x3c
 3698 01fa 19       		.uleb128 0x19
 3699 01fb 64       		.uleb128 0x64
 3700 01fc 13       		.uleb128 0x13
 3701 01fd 00       		.byte	0
 3702 01fe 00       		.byte	0
ARM GAS  /var/folders/m4/4md61f0s1_g0rzfghffqnxvr0000gn/T//ccoL5DmC.s 			page 66


 3703 01ff 28       		.uleb128 0x28
 3704 0200 2E       		.uleb128 0x2e
 3705 0201 01       		.byte	0x1
 3706 0202 3F       		.uleb128 0x3f
 3707 0203 19       		.uleb128 0x19
 3708 0204 03       		.uleb128 0x3
 3709 0205 0E       		.uleb128 0xe
 3710 0206 3A       		.uleb128 0x3a
 3711 0207 0B       		.uleb128 0xb
 3712 0208 3B       		.uleb128 0x3b
 3713 0209 0B       		.uleb128 0xb
 3714 020a 49       		.uleb128 0x49
 3715 020b 13       		.uleb128 0x13
 3716 020c 8701     		.uleb128 0x87
 3717 020e 19       		.uleb128 0x19
 3718 020f 11       		.uleb128 0x11
 3719 0210 01       		.uleb128 0x1
 3720 0211 12       		.uleb128 0x12
 3721 0212 06       		.uleb128 0x6
 3722 0213 40       		.uleb128 0x40
 3723 0214 18       		.uleb128 0x18
 3724 0215 9742     		.uleb128 0x2117
 3725 0217 19       		.uleb128 0x19
 3726 0218 01       		.uleb128 0x1
 3727 0219 13       		.uleb128 0x13
 3728 021a 00       		.byte	0
 3729 021b 00       		.byte	0
 3730 021c 29       		.uleb128 0x29
 3731 021d 34       		.uleb128 0x34
 3732 021e 00       		.byte	0
 3733 021f 03       		.uleb128 0x3
 3734 0220 08       		.uleb128 0x8
 3735 0221 3A       		.uleb128 0x3a
 3736 0222 0B       		.uleb128 0xb
 3737 0223 3B       		.uleb128 0x3b
 3738 0224 0B       		.uleb128 0xb
 3739 0225 49       		.uleb128 0x49
 3740 0226 13       		.uleb128 0x13
 3741 0227 00       		.byte	0
 3742 0228 00       		.byte	0
 3743 0229 2A       		.uleb128 0x2a
 3744 022a 0B       		.uleb128 0xb
 3745 022b 01       		.byte	0x1
 3746 022c 55       		.uleb128 0x55
 3747 022d 17       		.uleb128 0x17
 3748 022e 01       		.uleb128 0x1
 3749 022f 13       		.uleb128 0x13
 3750 0230 00       		.byte	0
 3751 0231 00       		.byte	0
 3752 0232 2B       		.uleb128 0x2b
 3753 0233 34       		.uleb128 0x34
 3754 0234 00       		.byte	0
 3755 0235 03       		.uleb128 0x3
 3756 0236 0E       		.uleb128 0xe
 3757 0237 3A       		.uleb128 0x3a
 3758 0238 0B       		.uleb128 0xb
 3759 0239 3B       		.uleb128 0x3b
ARM GAS  /var/folders/m4/4md61f0s1_g0rzfghffqnxvr0000gn/T//ccoL5DmC.s 			page 67


 3760 023a 0B       		.uleb128 0xb
 3761 023b 49       		.uleb128 0x49
 3762 023c 13       		.uleb128 0x13
 3763 023d 02       		.uleb128 0x2
 3764 023e 18       		.uleb128 0x18
 3765 023f 00       		.byte	0
 3766 0240 00       		.byte	0
 3767 0241 2C       		.uleb128 0x2c
 3768 0242 898201   		.uleb128 0x4109
 3769 0245 01       		.byte	0x1
 3770 0246 11       		.uleb128 0x11
 3771 0247 01       		.uleb128 0x1
 3772 0248 31       		.uleb128 0x31
 3773 0249 13       		.uleb128 0x13
 3774 024a 00       		.byte	0
 3775 024b 00       		.byte	0
 3776 024c 2D       		.uleb128 0x2d
 3777 024d 8A8201   		.uleb128 0x410a
 3778 0250 00       		.byte	0
 3779 0251 02       		.uleb128 0x2
 3780 0252 18       		.uleb128 0x18
 3781 0253 9142     		.uleb128 0x2111
 3782 0255 18       		.uleb128 0x18
 3783 0256 00       		.byte	0
 3784 0257 00       		.byte	0
 3785 0258 2E       		.uleb128 0x2e
 3786 0259 898201   		.uleb128 0x4109
 3787 025c 00       		.byte	0
 3788 025d 11       		.uleb128 0x11
 3789 025e 01       		.uleb128 0x1
 3790 025f 31       		.uleb128 0x31
 3791 0260 13       		.uleb128 0x13
 3792 0261 00       		.byte	0
 3793 0262 00       		.byte	0
 3794 0263 2F       		.uleb128 0x2f
 3795 0264 898201   		.uleb128 0x4109
 3796 0267 01       		.byte	0x1
 3797 0268 11       		.uleb128 0x11
 3798 0269 01       		.uleb128 0x1
 3799 026a 31       		.uleb128 0x31
 3800 026b 13       		.uleb128 0x13
 3801 026c 01       		.uleb128 0x1
 3802 026d 13       		.uleb128 0x13
 3803 026e 00       		.byte	0
 3804 026f 00       		.byte	0
 3805 0270 30       		.uleb128 0x30
 3806 0271 898201   		.uleb128 0x4109
 3807 0274 00       		.byte	0
 3808 0275 11       		.uleb128 0x11
 3809 0276 01       		.uleb128 0x1
 3810 0277 00       		.byte	0
 3811 0278 00       		.byte	0
 3812 0279 31       		.uleb128 0x31
 3813 027a 34       		.uleb128 0x34
 3814 027b 00       		.byte	0
 3815 027c 03       		.uleb128 0x3
 3816 027d 0E       		.uleb128 0xe
ARM GAS  /var/folders/m4/4md61f0s1_g0rzfghffqnxvr0000gn/T//ccoL5DmC.s 			page 68


 3817 027e 3A       		.uleb128 0x3a
 3818 027f 0B       		.uleb128 0xb
 3819 0280 3B       		.uleb128 0x3b
 3820 0281 05       		.uleb128 0x5
 3821 0282 49       		.uleb128 0x49
 3822 0283 13       		.uleb128 0x13
 3823 0284 3F       		.uleb128 0x3f
 3824 0285 19       		.uleb128 0x19
 3825 0286 3C       		.uleb128 0x3c
 3826 0287 19       		.uleb128 0x19
 3827 0288 00       		.byte	0
 3828 0289 00       		.byte	0
 3829 028a 32       		.uleb128 0x32
 3830 028b 34       		.uleb128 0x34
 3831 028c 00       		.byte	0
 3832 028d 03       		.uleb128 0x3
 3833 028e 08       		.uleb128 0x8
 3834 028f 3A       		.uleb128 0x3a
 3835 0290 0B       		.uleb128 0xb
 3836 0291 3B       		.uleb128 0x3b
 3837 0292 05       		.uleb128 0x5
 3838 0293 49       		.uleb128 0x49
 3839 0294 13       		.uleb128 0x13
 3840 0295 3F       		.uleb128 0x3f
 3841 0296 19       		.uleb128 0x19
 3842 0297 3C       		.uleb128 0x3c
 3843 0298 19       		.uleb128 0x19
 3844 0299 00       		.byte	0
 3845 029a 00       		.byte	0
 3846 029b 33       		.uleb128 0x33
 3847 029c 34       		.uleb128 0x34
 3848 029d 00       		.byte	0
 3849 029e 03       		.uleb128 0x3
 3850 029f 0E       		.uleb128 0xe
 3851 02a0 3A       		.uleb128 0x3a
 3852 02a1 0B       		.uleb128 0xb
 3853 02a2 3B       		.uleb128 0x3b
 3854 02a3 0B       		.uleb128 0xb
 3855 02a4 49       		.uleb128 0x49
 3856 02a5 13       		.uleb128 0x13
 3857 02a6 3F       		.uleb128 0x3f
 3858 02a7 19       		.uleb128 0x19
 3859 02a8 3C       		.uleb128 0x3c
 3860 02a9 19       		.uleb128 0x19
 3861 02aa 00       		.byte	0
 3862 02ab 00       		.byte	0
 3863 02ac 34       		.uleb128 0x34
 3864 02ad 2E       		.uleb128 0x2e
 3865 02ae 00       		.byte	0
 3866 02af 3F       		.uleb128 0x3f
 3867 02b0 19       		.uleb128 0x19
 3868 02b1 3C       		.uleb128 0x3c
 3869 02b2 19       		.uleb128 0x19
 3870 02b3 6E       		.uleb128 0x6e
 3871 02b4 0E       		.uleb128 0xe
 3872 02b5 03       		.uleb128 0x3
 3873 02b6 0E       		.uleb128 0xe
ARM GAS  /var/folders/m4/4md61f0s1_g0rzfghffqnxvr0000gn/T//ccoL5DmC.s 			page 69


 3874 02b7 3A       		.uleb128 0x3a
 3875 02b8 0B       		.uleb128 0xb
 3876 02b9 3B       		.uleb128 0x3b
 3877 02ba 0B       		.uleb128 0xb
 3878 02bb 00       		.byte	0
 3879 02bc 00       		.byte	0
 3880 02bd 35       		.uleb128 0x35
 3881 02be 2E       		.uleb128 0x2e
 3882 02bf 00       		.byte	0
 3883 02c0 3F       		.uleb128 0x3f
 3884 02c1 19       		.uleb128 0x19
 3885 02c2 3C       		.uleb128 0x3c
 3886 02c3 19       		.uleb128 0x19
 3887 02c4 6E       		.uleb128 0x6e
 3888 02c5 0E       		.uleb128 0xe
 3889 02c6 03       		.uleb128 0x3
 3890 02c7 0E       		.uleb128 0xe
 3891 02c8 3A       		.uleb128 0x3a
 3892 02c9 0B       		.uleb128 0xb
 3893 02ca 3B       		.uleb128 0x3b
 3894 02cb 05       		.uleb128 0x5
 3895 02cc 00       		.byte	0
 3896 02cd 00       		.byte	0
 3897 02ce 36       		.uleb128 0x36
 3898 02cf 2E       		.uleb128 0x2e
 3899 02d0 00       		.byte	0
 3900 02d1 3F       		.uleb128 0x3f
 3901 02d2 19       		.uleb128 0x19
 3902 02d3 3C       		.uleb128 0x3c
 3903 02d4 19       		.uleb128 0x19
 3904 02d5 6E       		.uleb128 0x6e
 3905 02d6 0E       		.uleb128 0xe
 3906 02d7 03       		.uleb128 0x3
 3907 02d8 0E       		.uleb128 0xe
 3908 02d9 3A       		.uleb128 0x3a
 3909 02da 0B       		.uleb128 0xb
 3910 02db 3B       		.uleb128 0x3b
 3911 02dc 0B       		.uleb128 0xb
 3912 02dd 6E       		.uleb128 0x6e
 3913 02de 0E       		.uleb128 0xe
 3914 02df 00       		.byte	0
 3915 02e0 00       		.byte	0
 3916 02e1 37       		.uleb128 0x37
 3917 02e2 2E       		.uleb128 0x2e
 3918 02e3 00       		.byte	0
 3919 02e4 3F       		.uleb128 0x3f
 3920 02e5 19       		.uleb128 0x19
 3921 02e6 3C       		.uleb128 0x3c
 3922 02e7 19       		.uleb128 0x19
 3923 02e8 6E       		.uleb128 0x6e
 3924 02e9 0E       		.uleb128 0xe
 3925 02ea 03       		.uleb128 0x3
 3926 02eb 0E       		.uleb128 0xe
 3927 02ec 6E       		.uleb128 0x6e
 3928 02ed 0E       		.uleb128 0xe
 3929 02ee 00       		.byte	0
 3930 02ef 00       		.byte	0
ARM GAS  /var/folders/m4/4md61f0s1_g0rzfghffqnxvr0000gn/T//ccoL5DmC.s 			page 70


 3931 02f0 00       		.byte	0
 3932              		.section	.debug_aranges,"",%progbits
 3933 0000 1C000000 		.4byte	0x1c
 3934 0004 0200     		.2byte	0x2
 3935 0006 00000000 		.4byte	.Ldebug_info0
 3936 000a 04       		.byte	0x4
 3937 000b 00       		.byte	0
 3938 000c 0000     		.2byte	0
 3939 000e 0000     		.2byte	0
 3940 0010 00000000 		.4byte	.LFB268
 3941 0014 78000000 		.4byte	.LFE268-.LFB268
 3942 0018 00000000 		.4byte	0
 3943 001c 00000000 		.4byte	0
 3944              		.section	.debug_ranges,"",%progbits
 3945              	.Ldebug_ranges0:
 3946 0000 40000000 		.4byte	.LBB5
 3947 0004 44000000 		.4byte	.LBE5
 3948 0008 54000000 		.4byte	.LBB6
 3949 000c 6A000000 		.4byte	.LBE6
 3950 0010 00000000 		.4byte	0
 3951 0014 00000000 		.4byte	0
 3952 0018 00000000 		.4byte	.LFB268
 3953 001c 78000000 		.4byte	.LFE268
 3954 0020 00000000 		.4byte	0
 3955 0024 00000000 		.4byte	0
 3956              		.section	.debug_line,"",%progbits
 3957              	.Ldebug_line0:
 3958 0000 7B040000 		.section	.debug_str,"MS",%progbits,1
 3958      02005704 
 3958      00000201 
 3958      FB0E0D00 
 3958      01010101 
 3959              	.LASF60:
 3960 0000 63685F74 		.ascii	"ch_threads_list\000"
 3960      68726561 
 3960      64735F6C 
 3960      69737400 
 3961              	.LASF11:
 3962 0010 6C6F6E67 		.ascii	"long int\000"
 3962      20696E74 
 3962      00
 3963              	.LASF311:
 3964 0019 5344555F 		.ascii	"SDU_READY\000"
 3964      52454144 
 3964      5900
 3965              	.LASF209:
 3966 0023 44494550 		.ascii	"DIEPTSIZ\000"
 3966      5453495A 
 3966      00
 3967              	.LASF315:
 3968 002c 69627175 		.ascii	"ibqueue\000"
 3968      65756500 
 3969              	.LASF36:
 3970 0034 77746D74 		.ascii	"wtmtxp\000"
 3970      787000
 3971              	.LASF99:
 3972 003b 746D5F63 		.ascii	"tm_calibration_t\000"
ARM GAS  /var/folders/m4/4md61f0s1_g0rzfghffqnxvr0000gn/T//ccoL5DmC.s 			page 71


 3972      616C6962 
 3972      72617469 
 3972      6F6E5F74 
 3972      00
 3973              	.LASF49:
 3974 004c 705F7469 		.ascii	"p_time\000"
 3974      6D6500
 3975              	.LASF313:
 3976 0053 53657269 		.ascii	"SerialUSBDriver\000"
 3976      616C5553 
 3976      42447269 
 3976      76657200 
 3977              	.LASF107:
 3978 0063 63686172 		.ascii	"char\000"
 3978      00
 3979              	.LASF95:
 3980 0068 72656761 		.ascii	"regarm_t\000"
 3980      726D5F74 
 3980      00
 3981              	.LASF281:
 3982 0071 746F7473 		.ascii	"totsize\000"
 3982      697A6500 
 3983              	.LASF213:
 3984 0079 31387374 		.ascii	"18stm32_otg_out_ep_t\000"
 3984      6D33325F 
 3984      6F74675F 
 3984      6F75745F 
 3984      65705F74 
 3985              	.LASF248:
 3986 008e 44434647 		.ascii	"DCFG\000"
 3986      00
 3987              	.LASF161:
 3988 0093 5553425F 		.ascii	"USB_UNINIT\000"
 3988      554E494E 
 3988      495400
 3989              	.LASF320:
 3990 009e 62756C6B 		.ascii	"bulk_out\000"
 3990      5F6F7574 
 3990      00
 3991              	.LASF206:
 3992 00a7 72657376 		.ascii	"resvd4\000"
 3992      643400
 3993              	.LASF344:
 3994 00ae 53445531 		.ascii	"SDU1\000"
 3994      00
 3995              	.LASF163:
 3996 00b3 5553425F 		.ascii	"USB_READY\000"
 3996      52454144 
 3996      5900
 3997              	.LASF196:
 3998 00bd 72657376 		.ascii	"resvd8\000"
 3998      643800
 3999              	.LASF182:
 4000 00c4 5553425F 		.ascii	"USB_EVENT_SUSPEND\000"
 4000      4556454E 
 4000      545F5355 
 4000      5350454E 
ARM GAS  /var/folders/m4/4md61f0s1_g0rzfghffqnxvr0000gn/T//ccoL5DmC.s 			page 72


 4000      4400
 4001              	.LASF29:
 4002 00d6 73797374 		.ascii	"systime_t\000"
 4002      696D655F 
 4002      7400
 4003              	.LASF199:
 4004 00e0 48435453 		.ascii	"HCTSIZ\000"
 4004      495A00
 4005              	.LASF208:
 4006 00e7 72657376 		.ascii	"resvdC\000"
 4006      644300
 4007              	.LASF352:
 4008 00ee 636F6D6D 		.ascii	"comm_usb_serial_init\000"
 4008      5F757362 
 4008      5F736572 
 4008      69616C5F 
 4008      696E6974 
 4009              	.LASF105:
 4010 0103 6D5F6F77 		.ascii	"m_owner\000"
 4010      6E657200 
 4011              	.LASF304:
 4012 010b 72657175 		.ascii	"requests_hook_cb\000"
 4012      65737473 
 4012      5F686F6F 
 4012      6B5F6362 
 4012      00
 4013              	.LASF81:
 4014 011c 76745F73 		.ascii	"vt_systime\000"
 4014      79737469 
 4014      6D6500
 4015              	.LASF51:
 4016 0127 705F6D73 		.ascii	"p_msgqueue\000"
 4016      67717565 
 4016      756500
 4017              	.LASF171:
 4018 0132 5553425F 		.ascii	"USB_EP0_TX\000"
 4018      4550305F 
 4018      545800
 4019              	.LASF0:
 4020 013d 756E7369 		.ascii	"unsigned int\000"
 4020      676E6564 
 4020      20696E74 
 4020      00
 4021              	.LASF94:
 4022 014a 46756E63 		.ascii	"FunctionalState\000"
 4022      74696F6E 
 4022      616C5374 
 4022      61746500 
 4023              	.LASF231:
 4024 015a 72657376 		.ascii	"resvd34\000"
 4024      64333400 
 4025              	.LASF58:
 4026 0162 74687265 		.ascii	"threads_list_t\000"
 4026      6164735F 
 4026      6C697374 
 4026      5F7400
 4027              	.LASF146:
ARM GAS  /var/folders/m4/4md61f0s1_g0rzfghffqnxvr0000gn/T//ccoL5DmC.s 			page 73


 4028 0171 6F75745F 		.ascii	"out_params\000"
 4028      70617261 
 4028      6D7300
 4029              	.LASF50:
 4030 017c 705F7761 		.ascii	"p_waiting\000"
 4030      6974696E 
 4030      6700
 4031              	.LASF348:
 4032 0186 5243435F 		.ascii	"RCC_AHB1PeriphClockCmd\000"
 4032      41484231 
 4032      50657269 
 4032      7068436C 
 4032      6F636B43 
 4033              	.LASF200:
 4034 019d 72657376 		.ascii	"resvd14\000"
 4034      64313400 
 4035              	.LASF223:
 4036 01a5 47494E54 		.ascii	"GINTSTS\000"
 4036      53545300 
 4037              	.LASF356:
 4038 01ad 2F557365 		.ascii	"/Users/raphael/Documents/Projects/rESC/resc-firmwar"
 4038      72732F72 
 4038      61706861 
 4038      656C2F44 
 4038      6F63756D 
 4039 01e0 6500     		.ascii	"e\000"
 4040              	.LASF201:
 4041 01e2 72657376 		.ascii	"resvd18\000"
 4041      64313800 
 4042              	.LASF119:
 4043 01ea 42617365 		.ascii	"BaseSequentialStreamVMT\000"
 4043      53657175 
 4043      656E7469 
 4043      616C5374 
 4043      7265616D 
 4044              	.LASF232:
 4045 0202 47434346 		.ascii	"GCCFG\000"
 4045      4700
 4046              	.LASF362:
 4047 0208 74657374 		.ascii	"test\000"
 4047      00
 4048              	.LASF329:
 4049 020d 52474264 		.ascii	"RGBdata\000"
 4049      61746100 
 4050              	.LASF327:
 4051 0215 72656164 		.ascii	"readt\000"
 4051      7400
 4052              	.LASF211:
 4053 021b 72657376 		.ascii	"resvd1C\000"
 4053      64314300 
 4054              	.LASF274:
 4055 0223 6F74675F 		.ascii	"otg_ram_size\000"
 4055      72616D5F 
 4055      73697A65 
 4055      00
 4056              	.LASF290:
 4057 0230 65705F6D 		.ascii	"ep_mode\000"
ARM GAS  /var/folders/m4/4md61f0s1_g0rzfghffqnxvr0000gn/T//ccoL5DmC.s 			page 74


 4057      6F646500 
 4058              	.LASF33:
 4059 0238 77746F62 		.ascii	"wtobjp\000"
 4059      6A7000
 4060              	.LASF150:
 4061 023f 65703065 		.ascii	"ep0endcb\000"
 4061      6E646362 
 4061      00
 4062              	.LASF88:
 4063 0248 76746C69 		.ascii	"vtlist\000"
 4063      737400
 4064              	.LASF186:
 4065 024f 75645F73 		.ascii	"ud_size\000"
 4065      697A6500 
 4066              	.LASF191:
 4067 0257 75736265 		.ascii	"usbeventcb_t\000"
 4067      76656E74 
 4067      63625F74 
 4067      00
 4068              	.LASF358:
 4069 0264 31317374 		.ascii	"11stm32_otg_t\000"
 4069      6D33325F 
 4069      6F74675F 
 4069      7400
 4070              	.LASF64:
 4071 0272 63685F72 		.ascii	"ch_ready_list\000"
 4071      65616479 
 4071      5F6C6973 
 4071      7400
 4072              	.LASF90:
 4073 0280 69646C65 		.ascii	"idle_thread_wa\000"
 4073      5F746872 
 4073      6561645F 
 4073      776100
 4074              	.LASF240:
 4075 028f 72657376 		.ascii	"resvd40C\000"
 4075      64343043 
 4075      00
 4076              	.LASF37:
 4077 0298 65776D61 		.ascii	"ewmask\000"
 4077      736B00
 4078              	.LASF202:
 4079 029f 72657376 		.ascii	"resvd1c\000"
 4079      64316300 
 4080              	.LASF224:
 4081 02a7 47494E54 		.ascii	"GINTMSK\000"
 4081      4D534B00 
 4082              	.LASF309:
 4083 02af 5344555F 		.ascii	"SDU_UNINIT\000"
 4083      554E494E 
 4083      495400
 4084              	.LASF258:
 4085 02ba 44564255 		.ascii	"DVBUSDIS\000"
 4085      53444953 
 4085      00
 4086              	.LASF179:
 4087 02c3 5553425F 		.ascii	"USB_EVENT_RESET\000"
ARM GAS  /var/folders/m4/4md61f0s1_g0rzfghffqnxvr0000gn/T//ccoL5DmC.s 			page 75


 4087      4556454E 
 4087      545F5245 
 4087      53455400 
 4088              	.LASF284:
 4089 02d3 72787369 		.ascii	"rxsize\000"
 4089      7A6500
 4090              	.LASF71:
 4091 02da 76746675 		.ascii	"vtfunc_t\000"
 4091      6E635F74 
 4091      00
 4092              	.LASF83:
 4093 02e3 63685F73 		.ascii	"ch_system_debug\000"
 4093      79737465 
 4093      6D5F6465 
 4093      62756700 
 4094              	.LASF326:
 4095 02f3 77726974 		.ascii	"writet\000"
 4095      657400
 4096              	.LASF170:
 4097 02fa 5553425F 		.ascii	"USB_EP0_WAITING_SETUP\000"
 4097      4550305F 
 4097      57414954 
 4097      494E475F 
 4097      53455455 
 4098              	.LASF272:
 4099 0310 31387374 		.ascii	"18stm32_otg_params_t\000"
 4099      6D33325F 
 4099      6F74675F 
 4099      70617261 
 4099      6D735F74 
 4100              	.LASF102:
 4101 0325 735F636E 		.ascii	"s_cnt\000"
 4101      7400
 4102              	.LASF275:
 4103 032b 6E756D5F 		.ascii	"num_endpoints\000"
 4103      656E6470 
 4103      6F696E74 
 4103      7300
 4104              	.LASF3:
 4105 0339 7369676E 		.ascii	"signed char\000"
 4105      65642063 
 4105      68617200 
 4106              	.LASF236:
 4107 0345 72657376 		.ascii	"resvd140\000"
 4107      64313430 
 4107      00
 4108              	.LASF18:
 4109 034e 75696E74 		.ascii	"uint32_t\000"
 4109      33325F74 
 4109      00
 4110              	.LASF288:
 4111 0357 31335553 		.ascii	"13USBDescriptor\000"
 4111      42446573 
 4111      63726970 
 4111      746F7200 
 4112              	.LASF26:
 4113 0367 6576656E 		.ascii	"eventmask_t\000"
ARM GAS  /var/folders/m4/4md61f0s1_g0rzfghffqnxvr0000gn/T//ccoL5DmC.s 			page 76


 4113      746D6173 
 4113      6B5F7400 
 4114              	.LASF66:
 4115 0373 725F7072 		.ascii	"r_prio\000"
 4115      696F00
 4116              	.LASF261:
 4117 037a 44494550 		.ascii	"DIEPEMPMSK\000"
 4117      454D504D 
 4117      534B00
 4118              	.LASF78:
 4119 0385 76745F70 		.ascii	"vt_par\000"
 4119      617200
 4120              	.LASF308:
 4121 038c 31307364 		.ascii	"10sdustate_t\000"
 4121      75737461 
 4121      74655F74 
 4121      00
 4122              	.LASF342:
 4123 0399 666C6F61 		.ascii	"float\000"
 4123      7400
 4124              	.LASF40:
 4125 039f 705F7072 		.ascii	"p_prio\000"
 4125      696F00
 4126              	.LASF314:
 4127 03a6 6576656E 		.ascii	"event\000"
 4127      7400
 4128              	.LASF230:
 4129 03ac 72657376 		.ascii	"resvd30\000"
 4129      64333000 
 4130              	.LASF24:
 4131 03b4 74707269 		.ascii	"tprio_t\000"
 4131      6F5F7400 
 4132              	.LASF265:
 4133 03bc 72657376 		.ascii	"resvd880\000"
 4133      64383830 
 4133      00
 4134              	.LASF151:
 4135 03c5 73657475 		.ascii	"setup\000"
 4135      7000
 4136              	.LASF73:
 4137 03cb 63685F76 		.ascii	"ch_virtual_timer\000"
 4137      69727475 
 4137      616C5F74 
 4137      696D6572 
 4137      00
 4138              	.LASF172:
 4139 03dc 5553425F 		.ascii	"USB_EP0_WAITING_TX0\000"
 4139      4550305F 
 4139      57414954 
 4139      494E475F 
 4139      54583000 
 4140              	.LASF130:
 4141 03f0 62777270 		.ascii	"bwrptr\000"
 4141      747200
 4142              	.LASF322:
 4143 03f7 53657269 		.ascii	"SerialUSBConfig\000"
 4143      616C5553 
ARM GAS  /var/folders/m4/4md61f0s1_g0rzfghffqnxvr0000gn/T//ccoL5DmC.s 			page 77


 4143      42436F6E 
 4143      66696700 
 4144              	.LASF14:
 4145 0407 6C6F6E67 		.ascii	"long long unsigned int\000"
 4145      206C6F6E 
 4145      6720756E 
 4145      7369676E 
 4145      65642069 
 4146              	.LASF279:
 4147 041e 7478636E 		.ascii	"txcnt\000"
 4147      7400
 4148              	.LASF227:
 4149 0424 47525846 		.ascii	"GRXFSIZ\000"
 4149      53495A00 
 4150              	.LASF143:
 4151 042c 7472616E 		.ascii	"transmitting\000"
 4151      736D6974 
 4151      74696E67 
 4151      00
 4152              	.LASF300:
 4153 0439 55534245 		.ascii	"USBEndpointConfig\000"
 4153      6E64706F 
 4153      696E7443 
 4153      6F6E6669 
 4153      6700
 4154              	.LASF360:
 4155 044b 5F5A4E37 		.ascii	"_ZN7WS2812B10RGBToLocalEm\000"
 4155      57533238 
 4155      31324231 
 4155      30524742 
 4155      546F4C6F 
 4156              	.LASF144:
 4157 0465 72656365 		.ascii	"receiving\000"
 4157      6976696E 
 4157      6700
 4158              	.LASF302:
 4159 046f 6576656E 		.ascii	"event_cb\000"
 4159      745F6362 
 4159      00
 4160              	.LASF118:
 4161 0478 6576656E 		.ascii	"event_source_t\000"
 4161      745F736F 
 4161      75726365 
 4161      5F7400
 4162              	.LASF8:
 4163 0487 5F5F7569 		.ascii	"__uint16_t\000"
 4163      6E743136 
 4163      5F7400
 4164              	.LASF28:
 4165 0492 636E745F 		.ascii	"cnt_t\000"
 4165      7400
 4166              	.LASF294:
 4167 0498 696E5F6D 		.ascii	"in_maxsize\000"
 4167      61787369 
 4167      7A6500
 4168              	.LASF61:
 4169 04a3 74687265 		.ascii	"threads_queue_t\000"
ARM GAS  /var/folders/m4/4md61f0s1_g0rzfghffqnxvr0000gn/T//ccoL5DmC.s 			page 78


 4169      6164735F 
 4169      71756575 
 4169      655F7400 
 4170              	.LASF42:
 4171 04b3 705F6E65 		.ascii	"p_newer\000"
 4171      77657200 
 4172              	.LASF216:
 4173 04bb 444F4550 		.ascii	"DOEPTSIZ\000"
 4173      5453495A 
 4173      00
 4174              	.LASF80:
 4175 04c4 63685F76 		.ascii	"ch_virtual_timers_list\000"
 4175      69727475 
 4175      616C5F74 
 4175      696D6572 
 4175      735F6C69 
 4176              	.LASF293:
 4177 04db 6F75745F 		.ascii	"out_cb\000"
 4177      636200
 4178              	.LASF27:
 4179 04e2 6576656E 		.ascii	"eventflags_t\000"
 4179      74666C61 
 4179      67735F74 
 4179      00
 4180              	.LASF245:
 4181 04ef 48505254 		.ascii	"HPRT\000"
 4181      00
 4182              	.LASF247:
 4183 04f4 72657376 		.ascii	"resvd700\000"
 4183      64373030 
 4183      00
 4184              	.LASF30:
 4185 04fd 74687265 		.ascii	"thread_t\000"
 4185      61645F74 
 4185      00
 4186              	.LASF212:
 4187 0506 73746D33 		.ascii	"stm32_otg_in_ep_t\000"
 4187      325F6F74 
 4187      675F696E 
 4187      5F65705F 
 4187      7400
 4188              	.LASF139:
 4189 0518 6F757470 		.ascii	"output_buffers_queue_t\000"
 4189      75745F62 
 4189      75666665 
 4189      72735F71 
 4189      75657565 
 4190              	.LASF340:
 4191 052f 5F5A4E37 		.ascii	"_ZN7WS2812B6SetAllEm\000"
 4191      57533238 
 4191      31324236 
 4191      53657441 
 4191      6C6C456D 
 4192              	.LASF324:
 4193 0544 70757474 		.ascii	"putt\000"
 4193      00
 4194              	.LASF350:
ARM GAS  /var/folders/m4/4md61f0s1_g0rzfghffqnxvr0000gn/T//ccoL5DmC.s 			page 79


 4195 0549 5F5A3230 		.ascii	"_Z20comm_usb_serial_initv\000"
 4195      636F6D6D 
 4195      5F757362 
 4195      5F736572 
 4195      69616C5F 
 4196              	.LASF321:
 4197 0563 696E745F 		.ascii	"int_in\000"
 4197      696E00
 4198              	.LASF4:
 4199 056a 73697A65 		.ascii	"size_t\000"
 4199      5F7400
 4200              	.LASF31:
 4201 0571 7264796D 		.ascii	"rdymsg\000"
 4201      736700
 4202              	.LASF98:
 4203 0578 6F666673 		.ascii	"offset\000"
 4203      657400
 4204              	.LASF270:
 4205 057f 4649464F 		.ascii	"FIFO\000"
 4205      00
 4206              	.LASF168:
 4207 0584 31307573 		.ascii	"10usbstate_t\000"
 4207      62737461 
 4207      74655F74 
 4207      00
 4208              	.LASF154:
 4209 0591 636F6E66 		.ascii	"configuration\000"
 4209      69677572 
 4209      6174696F 
 4209      6E00
 4210              	.LASF165:
 4211 059f 5553425F 		.ascii	"USB_ACTIVE\000"
 4211      41435449 
 4211      564500
 4212              	.LASF273:
 4213 05aa 72785F66 		.ascii	"rx_fifo_size\000"
 4213      69666F5F 
 4213      73697A65 
 4213      00
 4214              	.LASF237:
 4215 05b7 48434647 		.ascii	"HCFG\000"
 4215      00
 4216              	.LASF323:
 4217 05bc 53657269 		.ascii	"SerialUSBDriverVMT\000"
 4217      616C5553 
 4217      42447269 
 4217      76657256 
 4217      4D5400
 4218              	.LASF103:
 4219 05cf 63685F6D 		.ascii	"ch_mutex\000"
 4219      75746578 
 4219      00
 4220              	.LASF195:
 4221 05d8 48434348 		.ascii	"HCCHAR\000"
 4221      415200
 4222              	.LASF233:
 4223 05df 72657376 		.ascii	"resvd58\000"
ARM GAS  /var/folders/m4/4md61f0s1_g0rzfghffqnxvr0000gn/T//ccoL5DmC.s 			page 80


 4223      64353800 
 4224              	.LASF351:
 4225 05e7 5F5A3235 		.ascii	"_Z25comm_usb_serial_is_activev\000"
 4225      636F6D6D 
 4225      5F757362 
 4225      5F736572 
 4225      69616C5F 
 4226              	.LASF173:
 4227 0606 5553425F 		.ascii	"USB_EP0_WAITING_STS\000"
 4227      4550305F 
 4227      57414954 
 4227      494E475F 
 4227      53545300 
 4228              	.LASF310:
 4229 061a 5344555F 		.ascii	"SDU_STOP\000"
 4229      53544F50 
 4229      00
 4230              	.LASF246:
 4231 0623 72657376 		.ascii	"resvd444\000"
 4231      64343434 
 4231      00
 4232              	.LASF345:
 4233 062c 63687072 		.ascii	"chprintf\000"
 4233      696E7466 
 4233      00
 4234              	.LASF353:
 4235 0635 636F6D6D 		.ascii	"comm_usb_serial_is_active\000"
 4235      5F757362 
 4235      5F736572 
 4235      69616C5F 
 4235      69735F61 
 4236              	.LASF138:
 4237 064f 696E7075 		.ascii	"input_buffers_queue_t\000"
 4237      745F6275 
 4237      66666572 
 4237      735F7175 
 4237      6575655F 
 4238              	.LASF124:
 4239 0665 42617365 		.ascii	"BaseSequentialStream\000"
 4239      53657175 
 4239      656E7469 
 4239      616C5374 
 4239      7265616D 
 4240              	.LASF262:
 4241 067a 72657376 		.ascii	"resvd838\000"
 4241      64383338 
 4241      00
 4242              	.LASF253:
 4243 0683 444F4550 		.ascii	"DOEPMSK\000"
 4243      4D534B00 
 4244              	.LASF180:
 4245 068b 5553425F 		.ascii	"USB_EVENT_ADDRESS\000"
 4245      4556454E 
 4245      545F4144 
 4245      44524553 
 4245      5300
 4246              	.LASF243:
ARM GAS  /var/folders/m4/4md61f0s1_g0rzfghffqnxvr0000gn/T//ccoL5DmC.s 			page 81


 4247 069d 4841494E 		.ascii	"HAINTMSK\000"
 4247      544D534B 
 4247      00
 4248              	.LASF359:
 4249 06a6 52474254 		.ascii	"RGBToLocal\000"
 4249      6F4C6F63 
 4249      616C00
 4250              	.LASF76:
 4251 06b1 76745F64 		.ascii	"vt_delta\000"
 4251      656C7461 
 4251      00
 4252              	.LASF347:
 4253 06ba 63685379 		.ascii	"chSysInit\000"
 4253      73496E69 
 4253      7400
 4254              	.LASF363:
 4255 06c4 5F5A6E77 		.ascii	"_Znwj\000"
 4255      6A00
 4256              	.LASF283:
 4257 06ca 31395553 		.ascii	"19USBOutEndpointState\000"
 4257      424F7574 
 4257      456E6470 
 4257      6F696E74 
 4257      53746174 
 4258              	.LASF92:
 4259 06e0 44495341 		.ascii	"DISABLE\000"
 4259      424C4500 
 4260              	.LASF10:
 4261 06e8 5F5F696E 		.ascii	"__int32_t\000"
 4261      7433325F 
 4261      7400
 4262              	.LASF68:
 4263 06f2 725F6E65 		.ascii	"r_newer\000"
 4263      77657200 
 4264              	.LASF296:
 4265 06fa 696E5F73 		.ascii	"in_state\000"
 4265      74617465 
 4265      00
 4266              	.LASF222:
 4267 0703 47525354 		.ascii	"GRSTCTL\000"
 4267      43544C00 
 4268              	.LASF21:
 4269 070b 74737461 		.ascii	"tstate_t\000"
 4269      74655F74 
 4269      00
 4270              	.LASF2:
 4271 0714 6C6F6E67 		.ascii	"long double\000"
 4271      20646F75 
 4271      626C6500 
 4272              	.LASF148:
 4273 0720 6570306E 		.ascii	"ep0next\000"
 4273      65787400 
 4274              	.LASF189:
 4275 0728 75736263 		.ascii	"usbcallback_t\000"
 4275      616C6C62 
 4275      61636B5F 
 4275      7400
ARM GAS  /var/folders/m4/4md61f0s1_g0rzfghffqnxvr0000gn/T//ccoL5DmC.s 			page 82


 4276              	.LASF339:
 4277 0736 53657441 		.ascii	"SetAll\000"
 4277      6C6C00
 4278              	.LASF1:
 4279 073d 6C6F6E67 		.ascii	"long long int\000"
 4279      206C6F6E 
 4279      6720696E 
 4279      7400
 4280              	.LASF43:
 4281 074b 705F6F6C 		.ascii	"p_older\000"
 4281      64657200 
 4282              	.LASF45:
 4283 0753 705F7374 		.ascii	"p_state\000"
 4283      61746500 
 4284              	.LASF12:
 4285 075b 5F5F7569 		.ascii	"__uint32_t\000"
 4285      6E743332 
 4285      5F7400
 4286              	.LASF15:
 4287 0766 75696E74 		.ascii	"uint8_t\000"
 4287      385F7400 
 4288              	.LASF152:
 4289 076e 73746174 		.ascii	"status\000"
 4289      757300
 4290              	.LASF267:
 4291 0775 72657376 		.ascii	"resvdD00\000"
 4291      64443030 
 4291      00
 4292              	.LASF292:
 4293 077e 696E5F63 		.ascii	"in_cb\000"
 4293      6200
 4294              	.LASF56:
 4295 0784 705F6D70 		.ascii	"p_mpool\000"
 4295      6F6F6C00 
 4296              	.LASF54:
 4297 078c 705F6D74 		.ascii	"p_mtxlist\000"
 4297      786C6973 
 4297      7400
 4298              	.LASF307:
 4299 0796 31354675 		.ascii	"15FunctionalState\000"
 4299      6E637469 
 4299      6F6E616C 
 4299      53746174 
 4299      6500
 4300              	.LASF59:
 4301 07a8 63685F74 		.ascii	"ch_thread\000"
 4301      68726561 
 4301      6400
 4302              	.LASF7:
 4303 07b2 73686F72 		.ascii	"short int\000"
 4303      7420696E 
 4303      7400
 4304              	.LASF194:
 4305 07bc 32307374 		.ascii	"20stm32_otg_host_chn_t\000"
 4305      6D33325F 
 4305      6F74675F 
 4305      686F7374 
ARM GAS  /var/folders/m4/4md61f0s1_g0rzfghffqnxvr0000gn/T//ccoL5DmC.s 			page 83


 4305      5F63686E 
 4306              	.LASF167:
 4307 07d3 75736273 		.ascii	"usbstate_t\000"
 4307      74617465 
 4307      5F7400
 4308              	.LASF82:
 4309 07de 73797374 		.ascii	"system_debug_t\000"
 4309      656D5F64 
 4309      65627567 
 4309      5F7400
 4310              	.LASF62:
 4311 07ed 63685F74 		.ascii	"ch_threads_queue\000"
 4311      68726561 
 4311      64735F71 
 4311      75657565 
 4311      00
 4312              	.LASF215:
 4313 07fe 444F4550 		.ascii	"DOEPINT\000"
 4313      494E5400 
 4314              	.LASF120:
 4315 0806 77726974 		.ascii	"write\000"
 4315      6500
 4316              	.LASF214:
 4317 080c 444F4550 		.ascii	"DOEPCTL\000"
 4317      43544C00 
 4318              	.LASF276:
 4319 0814 73746D33 		.ascii	"stm32_otg_params_t\000"
 4319      325F6F74 
 4319      675F7061 
 4319      72616D73 
 4319      5F7400
 4320              	.LASF338:
 4321 0827 5F5A4E37 		.ascii	"_ZN7WS2812B6AllOffEv\000"
 4321      57533238 
 4321      31324236 
 4321      416C6C4F 
 4321      66664576 
 4322              	.LASF333:
 4323 083c 5F5A4E37 		.ascii	"_ZN7WS2812BC4Ev\000"
 4323      57533238 
 4323      31324243 
 4323      34457600 
 4324              	.LASF25:
 4325 084c 6D73675F 		.ascii	"msg_t\000"
 4325      7400
 4326              	.LASF132:
 4327 0852 62746F70 		.ascii	"btop\000"
 4327      00
 4328              	.LASF278:
 4329 0857 74787369 		.ascii	"txsize\000"
 4329      7A6500
 4330              	.LASF96:
 4331 085e 636F6E74 		.ascii	"context\000"
 4331      65787400 
 4332              	.LASF149:
 4333 0866 6570306E 		.ascii	"ep0n\000"
 4333      00
ARM GAS  /var/folders/m4/4md61f0s1_g0rzfghffqnxvr0000gn/T//ccoL5DmC.s 			page 84


 4334              	.LASF242:
 4335 086b 4841494E 		.ascii	"HAINT\000"
 4335      5400
 4336              	.LASF125:
 4337 0871 626F6F6C 		.ascii	"bool\000"
 4337      00
 4338              	.LASF297:
 4339 0876 6F75745F 		.ascii	"out_state\000"
 4339      73746174 
 4339      6500
 4340              	.LASF46:
 4341 0880 705F666C 		.ascii	"p_flags\000"
 4341      61677300 
 4342              	.LASF72:
 4343 0888 76697274 		.ascii	"virtual_timer_t\000"
 4343      75616C5F 
 4343      74696D65 
 4343      725F7400 
 4344              	.LASF312:
 4345 0898 73647573 		.ascii	"sdustate_t\000"
 4345      74617465 
 4345      5F7400
 4346              	.LASF198:
 4347 08a3 4843494E 		.ascii	"HCINTMSK\000"
 4347      544D534B 
 4347      00
 4348              	.LASF145:
 4349 08ac 696E5F70 		.ascii	"in_params\000"
 4349      6172616D 
 4349      7300
 4350              	.LASF210:
 4351 08b6 44545846 		.ascii	"DTXFSTS\000"
 4351      53545300 
 4352              	.LASF328:
 4353 08be 62697462 		.ascii	"bitbuffer\000"
 4353      75666665 
 4353      7200
 4354              	.LASF305:
 4355 08c8 736F665F 		.ascii	"sof_cb\000"
 4355      636200
 4356              	.LASF318:
 4357 08cf 75736270 		.ascii	"usbp\000"
 4357      00
 4358              	.LASF203:
 4359 08d4 73746D33 		.ascii	"stm32_otg_host_chn_t\000"
 4359      325F6F74 
 4359      675F686F 
 4359      73745F63 
 4359      686E5F74 
 4360              	.LASF355:
 4361 08e9 6D61696E 		.ascii	"main.cpp\000"
 4361      2E637070 
 4361      00
 4362              	.LASF241:
 4363 08f2 48505458 		.ascii	"HPTXSTS\000"
 4363      53545300 
 4364              	.LASF184:
ARM GAS  /var/folders/m4/4md61f0s1_g0rzfghffqnxvr0000gn/T//ccoL5DmC.s 			page 85


 4365 08fa 5553425F 		.ascii	"USB_EVENT_STALLED\000"
 4365      4556454E 
 4365      545F5354 
 4365      414C4C45 
 4365      4400
 4366              	.LASF169:
 4367 090c 31337573 		.ascii	"13usbep0state_t\000"
 4367      62657030 
 4367      73746174 
 4367      655F7400 
 4368              	.LASF69:
 4369 091c 725F6F6C 		.ascii	"r_older\000"
 4369      64657200 
 4370              	.LASF277:
 4371 0924 31385553 		.ascii	"18USBInEndpointState\000"
 4371      42496E45 
 4371      6E64706F 
 4371      696E7453 
 4371      74617465 
 4372              	.LASF166:
 4373 0939 5553425F 		.ascii	"USB_SUSPENDED\000"
 4373      53555350 
 4373      454E4445 
 4373      4400
 4374              	.LASF13:
 4375 0947 6C6F6E67 		.ascii	"long unsigned int\000"
 4375      20756E73 
 4375      69676E65 
 4375      6420696E 
 4375      7400
 4376              	.LASF299:
 4377 0959 73657475 		.ascii	"setup_buf\000"
 4377      705F6275 
 4377      6600
 4378              	.LASF137:
 4379 0963 62716E6F 		.ascii	"bqnotify_t\000"
 4379      74696679 
 4379      5F7400
 4380              	.LASF259:
 4381 096e 44564255 		.ascii	"DVBUSPULSE\000"
 4381      5350554C 
 4381      534500
 4382              	.LASF158:
 4383 0979 77616974 		.ascii	"wait\000"
 4383      00
 4384              	.LASF268:
 4385 097e 50434743 		.ascii	"PCGCCTL\000"
 4385      43544C00 
 4386              	.LASF111:
 4387 0986 656C5F6E 		.ascii	"el_next\000"
 4387      65787400 
 4388              	.LASF52:
 4389 098e 705F6D73 		.ascii	"p_msg\000"
 4389      6700
 4390              	.LASF117:
 4391 0994 65735F6E 		.ascii	"es_next\000"
 4391      65787400 
ARM GAS  /var/folders/m4/4md61f0s1_g0rzfghffqnxvr0000gn/T//ccoL5DmC.s 			page 86


 4392              	.LASF20:
 4393 099c 746D6F64 		.ascii	"tmode_t\000"
 4393      655F7400 
 4394              	.LASF89:
 4395 09a4 6D61696E 		.ascii	"mainthread\000"
 4395      74687265 
 4395      616400
 4396              	.LASF364:
 4397 09af 6F706572 		.ascii	"operator new\000"
 4397      61746F72 
 4397      206E6577 
 4397      00
 4398              	.LASF147:
 4399 09bc 65703073 		.ascii	"ep0state\000"
 4399      74617465 
 4399      00
 4400              	.LASF306:
 4401 09c5 55534243 		.ascii	"USBConfig\000"
 4401      6F6E6669 
 4401      6700
 4402              	.LASF16:
 4403 09cf 75696E74 		.ascii	"uint16_t\000"
 4403      31365F74 
 4403      00
 4404              	.LASF220:
 4405 09d8 47414842 		.ascii	"GAHBCFG\000"
 4405      43464700 
 4406              	.LASF57:
 4407 09e0 74687265 		.ascii	"thread_reference_t\000"
 4407      61645F72 
 4407      65666572 
 4407      656E6365 
 4407      5F7400
 4408              	.LASF188:
 4409 09f3 55534244 		.ascii	"USBDescriptor\000"
 4409      65736372 
 4409      6970746F 
 4409      7200
 4410              	.LASF286:
 4411 0a01 72786275 		.ascii	"rxbuf\000"
 4411      6600
 4412              	.LASF79:
 4413 0a07 76697274 		.ascii	"virtual_timers_list_t\000"
 4413      75616C5F 
 4413      74696D65 
 4413      72735F6C 
 4413      6973745F 
 4414              	.LASF19:
 4415 0a1d 7274636E 		.ascii	"rtcnt_t\000"
 4415      745F7400 
 4416              	.LASF234:
 4417 0a25 48505458 		.ascii	"HPTXFSIZ\000"
 4417      4653495A 
 4417      00
 4418              	.LASF316:
 4419 0a2e 6F627175 		.ascii	"obqueue\000"
 4419      65756500 
ARM GAS  /var/folders/m4/4md61f0s1_g0rzfghffqnxvr0000gn/T//ccoL5DmC.s 			page 87


 4420              	.LASF334:
 4421 0a36 5F5A4E37 		.ascii	"_ZN7WS2812B11GetLEDColorEi\000"
 4421      57533238 
 4421      31324231 
 4421      31476574 
 4421      4C454443 
 4422              	.LASF317:
 4423 0a51 31355365 		.ascii	"15SerialUSBConfig\000"
 4423      7269616C 
 4423      55534243 
 4423      6F6E6669 
 4423      6700
 4424              	.LASF142:
 4425 0a63 636F6E66 		.ascii	"config\000"
 4425      696700
 4426              	.LASF126:
 4427 0a6a 696F5F62 		.ascii	"io_buffers_queue_t\000"
 4427      75666665 
 4427      72735F71 
 4427      75657565 
 4427      5F7400
 4428              	.LASF55:
 4429 0a7d 705F7265 		.ascii	"p_realprio\000"
 4429      616C7072 
 4429      696F00
 4430              	.LASF217:
 4431 0a88 73746D33 		.ascii	"stm32_otg_out_ep_t\000"
 4431      325F6F74 
 4431      675F6F75 
 4431      745F6570 
 4431      5F7400
 4432              	.LASF354:
 4433 0a9b 474E5520 		.ascii	"GNU C++11 5.2.1 20151202 (release) [ARM/embedded-5-"
 4433      432B2B31 
 4433      3120352E 
 4433      322E3120 
 4433      32303135 
 4434 0ace 6272616E 		.ascii	"branch revision 231848] -mcpu=cortex-m4 -mfloat-abi"
 4434      63682072 
 4434      65766973 
 4434      696F6E20 
 4434      32333138 
 4435 0b01 3D686172 		.ascii	"=hard -mfpu=fpv4-sp-d16 -mno-thumb-interwork -mthum"
 4435      64202D6D 
 4435      6670753D 
 4435      66707634 
 4435      2D73702D 
 4436 0b34 62202D67 		.ascii	"b -ggdb -O2 -std=c++11 -fomit-frame-pointer -falign"
 4436      67646220 
 4436      2D4F3220 
 4436      2D737464 
 4436      3D632B2B 
 4437 0b67 2D66756E 		.ascii	"-functions=16 -ffunction-sections -fdata-sections -"
 4437      6374696F 
 4437      6E733D31 
 4437      36202D66 
 4437      66756E63 
ARM GAS  /var/folders/m4/4md61f0s1_g0rzfghffqnxvr0000gn/T//ccoL5DmC.s 			page 88


 4438 0b9a 666E6F2D 		.ascii	"fno-common -fno-rtti -fno-exceptions\000"
 4438      636F6D6D 
 4438      6F6E202D 
 4438      666E6F2D 
 4438      72747469 
 4439              	.LASF197:
 4440 0bbf 4843494E 		.ascii	"HCINT\000"
 4440      5400
 4441              	.LASF70:
 4442 0bc5 725F6375 		.ascii	"r_current\000"
 4442      7272656E 
 4442      7400
 4443              	.LASF336:
 4444 0bcf 416C6C4F 		.ascii	"AllOff\000"
 4444      666600
 4445              	.LASF104:
 4446 0bd6 6D5F7175 		.ascii	"m_queue\000"
 4446      65756500 
 4447              	.LASF23:
 4448 0bde 74736C69 		.ascii	"tslices_t\000"
 4448      6365735F 
 4448      7400
 4449              	.LASF97:
 4450 0be8 706F7274 		.ascii	"port_intctx\000"
 4450      5F696E74 
 4450      63747800 
 4451              	.LASF287:
 4452 0bf4 5553424F 		.ascii	"USBOutEndpointState\000"
 4452      7574456E 
 4452      64706F69 
 4452      6E745374 
 4452      61746500 
 4453              	.LASF343:
 4454 0c08 49544D5F 		.ascii	"ITM_RxBuffer\000"
 4454      52784275 
 4454      66666572 
 4454      00
 4455              	.LASF205:
 4456 0c15 44494550 		.ascii	"DIEPCTL\000"
 4456      43544C00 
 4457              	.LASF115:
 4458 0c1d 656C5F77 		.ascii	"el_wflags\000"
 4458      666C6167 
 4458      7300
 4459              	.LASF244:
 4460 0c27 72657376 		.ascii	"resvd41C\000"
 4460      64343143 
 4460      00
 4461              	.LASF193:
 4462 0c30 75736267 		.ascii	"usbgetdescriptor_t\000"
 4462      65746465 
 4462      73637269 
 4462      70746F72 
 4462      5F7400
 4463              	.LASF86:
 4464 0c43 63685F73 		.ascii	"ch_system\000"
 4464      79737465 
ARM GAS  /var/folders/m4/4md61f0s1_g0rzfghffqnxvr0000gn/T//ccoL5DmC.s 			page 89


 4464      6D00
 4465              	.LASF39:
 4466 0c4d 705F7072 		.ascii	"p_prev\000"
 4466      657600
 4467              	.LASF319:
 4468 0c54 62756C6B 		.ascii	"bulk_in\000"
 4468      5F696E00 
 4469              	.LASF38:
 4470 0c5c 705F6E65 		.ascii	"p_next\000"
 4470      787400
 4471              	.LASF280:
 4472 0c63 74786275 		.ascii	"txbuf\000"
 4472      6600
 4473              	.LASF251:
 4474 0c69 72657376 		.ascii	"resvd80C\000"
 4474      64383043 
 4474      00
 4475              	.LASF84:
 4476 0c72 70616E69 		.ascii	"panic_msg\000"
 4476      635F6D73 
 4476      6700
 4477              	.LASF41:
 4478 0c7c 705F6374 		.ascii	"p_ctx\000"
 4478      7800
 4479              	.LASF346:
 4480 0c82 68616C49 		.ascii	"halInit\000"
 4480      6E697400 
 4481              	.LASF226:
 4482 0c8a 47525853 		.ascii	"GRXSTSP\000"
 4482      54535000 
 4483              	.LASF87:
 4484 0c92 726C6973 		.ascii	"rlist\000"
 4484      7400
 4485              	.LASF135:
 4486 0c98 6E6F7469 		.ascii	"notify\000"
 4486      667900
 4487              	.LASF250:
 4488 0c9f 44535453 		.ascii	"DSTS\000"
 4488      00
 4489              	.LASF101:
 4490 0ca4 735F7175 		.ascii	"s_queue\000"
 4490      65756500 
 4491              	.LASF127:
 4492 0cac 696F5F62 		.ascii	"io_buffers_queue\000"
 4492      75666665 
 4492      72735F71 
 4492      75657565 
 4492      00
 4493              	.LASF164:
 4494 0cbd 5553425F 		.ascii	"USB_SELECTED\000"
 4494      53454C45 
 4494      43544544 
 4494      00
 4495              	.LASF129:
 4496 0cca 62636F75 		.ascii	"bcounter\000"
 4496      6E746572 
 4496      00
ARM GAS  /var/folders/m4/4md61f0s1_g0rzfghffqnxvr0000gn/T//ccoL5DmC.s 			page 90


 4497              	.LASF5:
 4498 0cd3 5F5F7569 		.ascii	"__uint8_t\000"
 4498      6E74385F 
 4498      7400
 4499              	.LASF121:
 4500 0cdd 72656164 		.ascii	"read\000"
 4500      00
 4501              	.LASF190:
 4502 0ce2 75736265 		.ascii	"usbepcallback_t\000"
 4502      7063616C 
 4502      6C626163 
 4502      6B5F7400 
 4503              	.LASF228:
 4504 0cf2 44494550 		.ascii	"DIEPTXF0\000"
 4504      54584630 
 4504      00
 4505              	.LASF219:
 4506 0cfb 474F5447 		.ascii	"GOTGINT\000"
 4506      494E5400 
 4507              	.LASF218:
 4508 0d03 474F5447 		.ascii	"GOTGCTL\000"
 4508      43544C00 
 4509              	.LASF255:
 4510 0d0b 4441494E 		.ascii	"DAINTMSK\000"
 4510      544D534B 
 4510      00
 4511              	.LASF325:
 4512 0d14 67657474 		.ascii	"gett\000"
 4512      00
 4513              	.LASF252:
 4514 0d19 44494550 		.ascii	"DIEPMSK\000"
 4514      4D534B00 
 4515              	.LASF93:
 4516 0d21 454E4142 		.ascii	"ENABLE\000"
 4516      4C4500
 4517              	.LASF91:
 4518 0d28 73697A65 		.ascii	"sizetype\000"
 4518      74797065 
 4518      00
 4519              	.LASF22:
 4520 0d31 74726566 		.ascii	"trefs_t\000"
 4520      735F7400 
 4521              	.LASF109:
 4522 0d39 6576656E 		.ascii	"event_listener_t\000"
 4522      745F6C69 
 4522      7374656E 
 4522      65725F74 
 4522      00
 4523              	.LASF153:
 4524 0d4a 61646472 		.ascii	"address\000"
 4524      65737300 
 4525              	.LASF122:
 4526 0d52 3136746D 		.ascii	"16tm_calibration_t\000"
 4526      5F63616C 
 4526      69627261 
 4526      74696F6E 
 4526      5F7400
ARM GAS  /var/folders/m4/4md61f0s1_g0rzfghffqnxvr0000gn/T//ccoL5DmC.s 			page 91


 4527              	.LASF225:
 4528 0d65 47525853 		.ascii	"GRXSTSR\000"
 4528      54535200 
 4529              	.LASF17:
 4530 0d6d 696E7433 		.ascii	"int32_t\000"
 4530      325F7400 
 4531              	.LASF178:
 4532 0d75 31307573 		.ascii	"10usbevent_t\000"
 4532      62657665 
 4532      6E745F74 
 4532      00
 4533              	.LASF35:
 4534 0d82 77747365 		.ascii	"wtsemp\000"
 4534      6D7000
 4535              	.LASF100:
 4536 0d89 63685F73 		.ascii	"ch_semaphore\000"
 4536      656D6170 
 4536      686F7265 
 4536      00
 4537              	.LASF141:
 4538 0d96 73746174 		.ascii	"state\000"
 4538      6500
 4539              	.LASF271:
 4540 0d9c 73746D33 		.ascii	"stm32_otg_t\000"
 4540      325F6F74 
 4540      675F7400 
 4541              	.LASF116:
 4542 0da8 6576656E 		.ascii	"event_source\000"
 4542      745F736F 
 4542      75726365 
 4542      00
 4543              	.LASF108:
 4544 0db5 6D757465 		.ascii	"mutex_t\000"
 4544      785F7400 
 4545              	.LASF229:
 4546 0dbd 484E5054 		.ascii	"HNPTXSTS\000"
 4546      58535453 
 4546      00
 4547              	.LASF6:
 4548 0dc6 756E7369 		.ascii	"unsigned char\000"
 4548      676E6564 
 4548      20636861 
 4548      7200
 4549              	.LASF256:
 4550 0dd4 72657376 		.ascii	"resvd820\000"
 4550      64383230 
 4550      00
 4551              	.LASF156:
 4552 0ddd 706D6E65 		.ascii	"pmnext\000"
 4552      787400
 4553              	.LASF63:
 4554 0de4 72656164 		.ascii	"ready_list_t\000"
 4554      795F6C69 
 4554      73745F74 
 4554      00
 4555              	.LASF257:
 4556 0df1 72657376 		.ascii	"resvd824\000"
ARM GAS  /var/folders/m4/4md61f0s1_g0rzfghffqnxvr0000gn/T//ccoL5DmC.s 			page 92


 4556      64383234 
 4556      00
 4557              	.LASF128:
 4558 0dfa 77616974 		.ascii	"waiting\000"
 4558      696E6700 
 4559              	.LASF176:
 4560 0e02 5553425F 		.ascii	"USB_EP0_ERROR\000"
 4560      4550305F 
 4560      4552524F 
 4560      5200
 4561              	.LASF239:
 4562 0e10 48464E55 		.ascii	"HFNUM\000"
 4562      4D00
 4563              	.LASF113:
 4564 0e16 656C5F65 		.ascii	"el_events\000"
 4564      76656E74 
 4564      7300
 4565              	.LASF160:
 4566 0e20 75736265 		.ascii	"usbep_t\000"
 4566      705F7400 
 4567              	.LASF136:
 4568 0e28 6C696E6B 		.ascii	"link\000"
 4568      00
 4569              	.LASF157:
 4570 0e2d 74787065 		.ascii	"txpending\000"
 4570      6E64696E 
 4570      6700
 4571              	.LASF291:
 4572 0e37 73657475 		.ascii	"setup_cb\000"
 4572      705F6362 
 4572      00
 4573              	.LASF349:
 4574 0e40 63685468 		.ascii	"chThdSleep\000"
 4574      64536C65 
 4574      657000
 4575              	.LASF357:
 4576 0e4b 6465636C 		.ascii	"decltype(nullptr)\000"
 4576      74797065 
 4576      286E756C 
 4576      6C707472 
 4576      2900
 4577              	.LASF303:
 4578 0e5d 6765745F 		.ascii	"get_descriptor_cb\000"
 4578      64657363 
 4578      72697074 
 4578      6F725F63 
 4578      6200
 4579              	.LASF48:
 4580 0e6f 705F7072 		.ascii	"p_preempt\000"
 4580      65656D70 
 4580      7400
 4581              	.LASF44:
 4582 0e79 705F6E61 		.ascii	"p_name\000"
 4582      6D6500
 4583              	.LASF269:
 4584 0e80 72657376 		.ascii	"resvdE04\000"
 4584      64453034 
ARM GAS  /var/folders/m4/4md61f0s1_g0rzfghffqnxvr0000gn/T//ccoL5DmC.s 			page 93


 4584      00
 4585              	.LASF187:
 4586 0e89 75645F73 		.ascii	"ud_string\000"
 4586      7472696E 
 4586      6700
 4587              	.LASF183:
 4588 0e93 5553425F 		.ascii	"USB_EVENT_WAKEUP\000"
 4588      4556454E 
 4588      545F5741 
 4588      4B455550 
 4588      00
 4589              	.LASF47:
 4590 0ea4 705F7265 		.ascii	"p_refs\000"
 4590      667300
 4591              	.LASF335:
 4592 0eab 5365744C 		.ascii	"SetLEDColor\000"
 4592      4544436F 
 4592      6C6F7200 
 4593              	.LASF207:
 4594 0eb7 44494550 		.ascii	"DIEPINT\000"
 4594      494E5400 
 4595              	.LASF53:
 4596 0ebf 705F6570 		.ascii	"p_epending\000"
 4596      656E6469 
 4596      6E6700
 4597              	.LASF74:
 4598 0eca 76745F6E 		.ascii	"vt_next\000"
 4598      65787400 
 4599              	.LASF238:
 4600 0ed2 48464952 		.ascii	"HFIR\000"
 4600      00
 4601              	.LASF235:
 4602 0ed7 44494550 		.ascii	"DIEPTXF\000"
 4602      54584600 
 4603              	.LASF249:
 4604 0edf 4443544C 		.ascii	"DCTL\000"
 4604      00
 4605              	.LASF85:
 4606 0ee4 63685F73 		.ascii	"ch_system_t\000"
 4606      79737465 
 4606      6D5F7400 
 4607              	.LASF134:
 4608 0ef0 62756666 		.ascii	"buffers\000"
 4608      65727300 
 4609              	.LASF34:
 4610 0ef8 77747472 		.ascii	"wttrp\000"
 4610      7000
 4611              	.LASF133:
 4612 0efe 6273697A 		.ascii	"bsize\000"
 4612      6500
 4613              	.LASF295:
 4614 0f04 6F75745F 		.ascii	"out_maxsize\000"
 4614      6D617873 
 4614      697A6500 
 4615              	.LASF260:
 4616 0f10 72657376 		.ascii	"resvd830\000"
 4616      64383330 
ARM GAS  /var/folders/m4/4md61f0s1_g0rzfghffqnxvr0000gn/T//ccoL5DmC.s 			page 94


 4616      00
 4617              	.LASF289:
 4618 0f19 31375553 		.ascii	"17USBEndpointConfig\000"
 4618      42456E64 
 4618      706F696E 
 4618      74436F6E 
 4618      66696700 
 4619              	.LASF341:
 4620 0f2d 646F7562 		.ascii	"double\000"
 4620      6C6500
 4621              	.LASF131:
 4622 0f34 62726470 		.ascii	"brdptr\000"
 4622      747200
 4623              	.LASF106:
 4624 0f3b 6D5F6E65 		.ascii	"m_next\000"
 4624      787400
 4625              	.LASF282:
 4626 0f42 55534249 		.ascii	"USBInEndpointState\000"
 4626      6E456E64 
 4626      706F696E 
 4626      74537461 
 4626      746500
 4627              	.LASF140:
 4628 0f55 55534244 		.ascii	"USBDriver\000"
 4628      72697665 
 4628      7200
 4629              	.LASF263:
 4630 0f5f 72657376 		.ascii	"resvd83C\000"
 4630      64383343 
 4630      00
 4631              	.LASF9:
 4632 0f68 73686F72 		.ascii	"short unsigned int\000"
 4632      7420756E 
 4632      7369676E 
 4632      65642069 
 4632      6E7400
 4633              	.LASF67:
 4634 0f7b 725F6374 		.ascii	"r_ctx\000"
 4634      7800
 4635              	.LASF361:
 4636 0f81 6D61696E 		.ascii	"main\000"
 4636      00
 4637              	.LASF155:
 4638 0f86 6F746770 		.ascii	"otgparams\000"
 4638      6172616D 
 4638      7300
 4639              	.LASF298:
 4640 0f90 696E5F6D 		.ascii	"in_multiplier\000"
 4640      756C7469 
 4640      706C6965 
 4640      7200
 4641              	.LASF221:
 4642 0f9e 47555342 		.ascii	"GUSBCFG\000"
 4642      43464700 
 4643              	.LASF254:
 4644 0fa6 4441494E 		.ascii	"DAINT\000"
 4644      5400
ARM GAS  /var/folders/m4/4md61f0s1_g0rzfghffqnxvr0000gn/T//ccoL5DmC.s 			page 95


 4645              	.LASF77:
 4646 0fac 76745F66 		.ascii	"vt_func\000"
 4646      756E6300 
 4647              	.LASF175:
 4648 0fb4 5553425F 		.ascii	"USB_EP0_SENDING_STS\000"
 4648      4550305F 
 4648      53454E44 
 4648      494E475F 
 4648      53545300 
 4649              	.LASF285:
 4650 0fc8 7278636E 		.ascii	"rxcnt\000"
 4650      7400
 4651              	.LASF75:
 4652 0fce 76745F70 		.ascii	"vt_prev\000"
 4652      72657600 
 4653              	.LASF112:
 4654 0fd6 656C5F6C 		.ascii	"el_listener\000"
 4654      69737465 
 4654      6E657200 
 4655              	.LASF266:
 4656 0fe2 72657376 		.ascii	"resvd8C0\000"
 4656      64384330 
 4656      00
 4657              	.LASF159:
 4658 0feb 77615F70 		.ascii	"wa_pump\000"
 4658      756D7000 
 4659              	.LASF204:
 4660 0ff3 31377374 		.ascii	"17stm32_otg_in_ep_t\000"
 4660      6D33325F 
 4660      6F74675F 
 4660      696E5F65 
 4660      705F7400 
 4661              	.LASF185:
 4662 1007 75736265 		.ascii	"usbevent_t\000"
 4662      76656E74 
 4662      5F7400
 4663              	.LASF331:
 4664 1012 57533238 		.ascii	"WS2812B\000"
 4664      31324200 
 4665              	.LASF264:
 4666 101a 72657376 		.ascii	"resvd840\000"
 4666      64383430 
 4666      00
 4667              	.LASF174:
 4668 1023 5553425F 		.ascii	"USB_EP0_RX\000"
 4668      4550305F 
 4668      525800
 4669              	.LASF301:
 4670 102e 39555342 		.ascii	"9USBConfig\000"
 4670      436F6E66 
 4670      696700
 4671              	.LASF177:
 4672 1039 75736265 		.ascii	"usbep0state_t\000"
 4672      70307374 
 4672      6174655F 
 4672      7400
 4673              	.LASF123:
ARM GAS  /var/folders/m4/4md61f0s1_g0rzfghffqnxvr0000gn/T//ccoL5DmC.s 			page 96


 4674 1047 32304261 		.ascii	"20BaseSequentialStream\000"
 4674      73655365 
 4674      7175656E 
 4674      7469616C 
 4674      53747265 
 4675              	.LASF181:
 4676 105e 5553425F 		.ascii	"USB_EVENT_CONFIGURED\000"
 4676      4556454E 
 4676      545F434F 
 4676      4E464947 
 4676      55524544 
 4677              	.LASF110:
 4678 1073 6576656E 		.ascii	"event_listener\000"
 4678      745F6C69 
 4678      7374656E 
 4678      657200
 4679              	.LASF65:
 4680 1082 725F7175 		.ascii	"r_queue\000"
 4680      65756500 
 4681              	.LASF114:
 4682 108a 656C5F66 		.ascii	"el_flags\000"
 4682      6C616773 
 4682      00
 4683              	.LASF32:
 4684 1093 65786974 		.ascii	"exitcode\000"
 4684      636F6465 
 4684      00
 4685              	.LASF162:
 4686 109c 5553425F 		.ascii	"USB_STOP\000"
 4686      53544F50 
 4686      00
 4687              	.LASF332:
 4688 10a5 4765744C 		.ascii	"GetLEDColor\000"
 4688      4544436F 
 4688      6C6F7200 
 4689              	.LASF330:
 4690 10b1 67616D6D 		.ascii	"gamma_table\000"
 4690      615F7461 
 4690      626C6500 
 4691              	.LASF192:
 4692 10bd 75736272 		.ascii	"usbreqhandler_t\000"
 4692      65716861 
 4692      6E646C65 
 4692      725F7400 
 4693              	.LASF337:
 4694 10cd 5F5A4E37 		.ascii	"_ZN7WS2812B11SetLEDColorEim\000"
 4694      57533238 
 4694      31324231 
 4694      31536574 
 4694      4C454443 
 4695              		.ident	"GCC: (GNU Tools for ARM Embedded Processors) 5.2.1 20151202 (release) [ARM/embedded-5-bran
ARM GAS  /var/folders/m4/4md61f0s1_g0rzfghffqnxvr0000gn/T//ccoL5DmC.s 			page 97


DEFINED SYMBOLS
                            *ABS*:0000000000000000 main.cpp
/var/folders/m4/4md61f0s1_g0rzfghffqnxvr0000gn/T//ccoL5DmC.s:22     .text.startup.main:0000000000000000 $t
/var/folders/m4/4md61f0s1_g0rzfghffqnxvr0000gn/T//ccoL5DmC.s:28     .text.startup.main:0000000000000000 main
/var/folders/m4/4md61f0s1_g0rzfghffqnxvr0000gn/T//ccoL5DmC.s:119    .text.startup.main:000000000000006c $d
/var/folders/m4/4md61f0s1_g0rzfghffqnxvr0000gn/T//ccoL5DmC.s:129    .rodata:0000000000000000 $d
/var/folders/m4/4md61f0s1_g0rzfghffqnxvr0000gn/T//ccoL5DmC.s:135    .rodata.str1.4:0000000000000000 $d
                     .debug_frame:0000000000000010 $d

UNDEFINED SYMBOLS
halInit
chSysInit
RCC_AHB1PeriphClockCmd
chThdSleep
_Z20comm_usb_serial_initv
_Znwj
_ZN7WS2812BC1Ev
_Z25comm_usb_serial_is_activev
chprintf
SDU1
