ARM GAS  /var/folders/m4/4md61f0s1_g0rzfghffqnxvr0000gn/T//ccZgcp7d.s 			page 1


   1              		.syntax unified
   2              		.cpu cortex-m4
   3              		.eabi_attribute 27, 1
   4              		.eabi_attribute 28, 1
   5              		.fpu fpv4-sp-d16
   6              		.eabi_attribute 20, 1
   7              		.eabi_attribute 21, 1
   8              		.eabi_attribute 23, 3
   9              		.eabi_attribute 24, 1
  10              		.eabi_attribute 25, 1
  11              		.eabi_attribute 26, 1
  12              		.eabi_attribute 30, 2
  13              		.eabi_attribute 34, 1
  14              		.eabi_attribute 18, 4
  15              		.thumb
  16              		.syntax unified
  17              		.file	"misc.c"
  18              		.text
  19              	.Ltext0:
  20              		.cfi_sections	.debug_frame
  21              		.section	.text.NVIC_PriorityGroupConfig,"ax",%progbits
  22              		.align	2
  23              		.p2align 4,,15
  24              		.global	NVIC_PriorityGroupConfig
  25              		.thumb
  26              		.thumb_func
  27              		.type	NVIC_PriorityGroupConfig, %function
  28              	NVIC_PriorityGroupConfig:
  29              	.LFB123:
  30              		.file 1 "ChibiOS_16.1.4/ext/stdperiph_stm32f4/src/misc.c"
  31              		.loc 1 123 0
  32              		.cfi_startproc
  33              		@ args = 0, pretend = 0, frame = 0
  34              		@ frame_needed = 0, uses_anonymous_args = 0
  35              		@ link register save eliminated.
  36              	.LVL0:
  37              		.loc 1 128 0
  38 0000 40F0BF60 		orr	r0, r0, #100139008
  39              	.LVL1:
  40 0004 024B     		ldr	r3, .L2
  41 0006 40F40030 		orr	r0, r0, #131072
  42 000a D860     		str	r0, [r3, #12]
  43 000c 7047     		bx	lr
  44              	.L3:
  45 000e 00BF     		.align	2
  46              	.L2:
  47 0010 00ED00E0 		.word	-536810240
  48              		.cfi_endproc
  49              	.LFE123:
  50              		.size	NVIC_PriorityGroupConfig, .-NVIC_PriorityGroupConfig
  51              		.section	.text.NVIC_Init,"ax",%progbits
  52              		.align	2
  53              		.p2align 4,,15
  54              		.global	NVIC_Init
  55              		.thumb
  56              		.thumb_func
  57              		.type	NVIC_Init, %function
ARM GAS  /var/folders/m4/4md61f0s1_g0rzfghffqnxvr0000gn/T//ccZgcp7d.s 			page 2


  58              	NVIC_Init:
  59              	.LFB124:
  60              		.loc 1 141 0
  61              		.cfi_startproc
  62              		@ args = 0, pretend = 0, frame = 0
  63              		@ frame_needed = 0, uses_anonymous_args = 0
  64              		@ link register save eliminated.
  65              	.LVL2:
  66              		.loc 1 149 0
  67 0000 C378     		ldrb	r3, [r0, #3]	@ zero_extendqisi2
  68 0002 5BB9     		cbnz	r3, .L10
  69              		.loc 1 170 0
  70 0004 0378     		ldrb	r3, [r0]	@ zero_extendqisi2
  71 0006 1848     		ldr	r0, .L11
  72              	.LVL3:
  73 0008 5A09     		lsrs	r2, r3, #5
  74 000a 2032     		adds	r2, r2, #32
  75              		.loc 1 171 0
  76 000c 03F01F03 		and	r3, r3, #31
  77 0010 0121     		movs	r1, #1
  78 0012 01FA03F3 		lsl	r3, r1, r3
  79              		.loc 1 170 0
  80 0016 40F82230 		str	r3, [r0, r2, lsl #2]
  81              		.loc 1 173 0
  82 001a 7047     		bx	lr
  83              	.LVL4:
  84              	.L10:
  85              		.loc 1 152 0
  86 001c 134B     		ldr	r3, .L11+4
  87              		.loc 1 141 0
  88 001e F0B4     		push	{r4, r5, r6, r7}
  89              		.cfi_def_cfa_offset 16
  90              		.cfi_offset 4, -16
  91              		.cfi_offset 5, -12
  92              		.cfi_offset 6, -8
  93              		.cfi_offset 7, -4
  94              		.loc 1 152 0
  95 0020 D968     		ldr	r1, [r3, #12]
  96              		.loc 1 156 0
  97 0022 4778     		ldrb	r7, [r0, #1]	@ zero_extendqisi2
  98              		.loc 1 157 0
  99 0024 8278     		ldrb	r2, [r0, #2]	@ zero_extendqisi2
 100              		.loc 1 161 0
 101 0026 0478     		ldrb	r4, [r0]	@ zero_extendqisi2
 102 0028 0F4E     		ldr	r6, .L11
 103              		.loc 1 152 0
 104 002a C943     		mvns	r1, r1
 105 002c C1F30221 		ubfx	r1, r1, #8, #3
 106              	.LVL5:
 107              		.loc 1 156 0
 108 0030 C1F10405 		rsb	r5, r1, #4
 109 0034 EDB2     		uxtb	r5, r5
 110              		.loc 1 157 0
 111 0036 0F23     		movs	r3, #15
 112              		.loc 1 156 0
 113 0038 07FA05F5 		lsl	r5, r7, r5
 114              		.loc 1 157 0
ARM GAS  /var/folders/m4/4md61f0s1_g0rzfghffqnxvr0000gn/T//ccZgcp7d.s 			page 3


 115 003c 0B41     		asrs	r3, r3, r1
 116              		.loc 1 156 0
 117 003e EDB2     		uxtb	r5, r5
 118              	.LVL6:
 119              		.loc 1 157 0
 120 0040 1340     		ands	r3, r3, r2
 121 0042 2B43     		orrs	r3, r3, r5
 122              	.LVL7:
 123              		.loc 1 161 0
 124 0044 04F16042 		add	r2, r4, #-536870912
 125 0048 02F56142 		add	r2, r2, #57600
 126              		.loc 1 159 0
 127 004c 1B01     		lsls	r3, r3, #4
 128              	.LVL8:
 129 004e DBB2     		uxtb	r3, r3
 130              	.LVL9:
 131              		.loc 1 161 0
 132 0050 82F80033 		strb	r3, [r2, #768]
 133              		.loc 1 164 0
 134 0054 0378     		ldrb	r3, [r0]	@ zero_extendqisi2
 135              	.LVL10:
 136              		.loc 1 165 0
 137 0056 0122     		movs	r2, #1
 138              	.LVL11:
 139 0058 03F01F01 		and	r1, r3, #31
 140              	.LVL12:
 141              		.loc 1 164 0
 142 005c 5B09     		lsrs	r3, r3, #5
 143              		.loc 1 165 0
 144 005e 8A40     		lsls	r2, r2, r1
 145              		.loc 1 164 0
 146 0060 46F82320 		str	r2, [r6, r3, lsl #2]
 147              	.LVL13:
 148              		.loc 1 173 0
 149 0064 F0BC     		pop	{r4, r5, r6, r7}
 150              		.cfi_restore 7
 151              		.cfi_restore 6
 152              		.cfi_restore 5
 153              		.cfi_restore 4
 154              		.cfi_def_cfa_offset 0
 155 0066 7047     		bx	lr
 156              	.L12:
 157              		.align	2
 158              	.L11:
 159 0068 00E100E0 		.word	-536813312
 160 006c 00ED00E0 		.word	-536810240
 161              		.cfi_endproc
 162              	.LFE124:
 163              		.size	NVIC_Init, .-NVIC_Init
 164              		.section	.text.NVIC_SetVectorTable,"ax",%progbits
 165              		.align	2
 166              		.p2align 4,,15
 167              		.global	NVIC_SetVectorTable
 168              		.thumb
 169              		.thumb_func
 170              		.type	NVIC_SetVectorTable, %function
 171              	NVIC_SetVectorTable:
ARM GAS  /var/folders/m4/4md61f0s1_g0rzfghffqnxvr0000gn/T//ccZgcp7d.s 			page 4


 172              	.LFB125:
 173              		.loc 1 185 0
 174              		.cfi_startproc
 175              		@ args = 0, pretend = 0, frame = 0
 176              		@ frame_needed = 0, uses_anonymous_args = 0
 177              		@ link register save eliminated.
 178              	.LVL14:
 179              		.loc 1 190 0
 180 0000 21F06041 		bic	r1, r1, #-536870912
 181              	.LVL15:
 182 0004 21F07F01 		bic	r1, r1, #127
 183 0008 014B     		ldr	r3, .L14
 184 000a 0843     		orrs	r0, r0, r1
 185              	.LVL16:
 186 000c 9860     		str	r0, [r3, #8]
 187 000e 7047     		bx	lr
 188              	.L15:
 189              		.align	2
 190              	.L14:
 191 0010 00ED00E0 		.word	-536810240
 192              		.cfi_endproc
 193              	.LFE125:
 194              		.size	NVIC_SetVectorTable, .-NVIC_SetVectorTable
 195              		.section	.text.NVIC_SystemLPConfig,"ax",%progbits
 196              		.align	2
 197              		.p2align 4,,15
 198              		.global	NVIC_SystemLPConfig
 199              		.thumb
 200              		.thumb_func
 201              		.type	NVIC_SystemLPConfig, %function
 202              	NVIC_SystemLPConfig:
 203              	.LFB126:
 204              		.loc 1 204 0
 205              		.cfi_startproc
 206              		@ args = 0, pretend = 0, frame = 0
 207              		@ frame_needed = 0, uses_anonymous_args = 0
 208              		@ link register save eliminated.
 209              	.LVL17:
 210              		.loc 1 211 0
 211 0000 044A     		ldr	r2, .L20
 212 0002 1369     		ldr	r3, [r2, #16]
 213              		.loc 1 209 0
 214 0004 19B9     		cbnz	r1, .L19
 215              		.loc 1 215 0
 216 0006 23EA0000 		bic	r0, r3, r0
 217              	.LVL18:
 218 000a 1061     		str	r0, [r2, #16]
 219 000c 7047     		bx	lr
 220              	.LVL19:
 221              	.L19:
 222              		.loc 1 211 0
 223 000e 1843     		orrs	r0, r0, r3
 224              	.LVL20:
 225 0010 1061     		str	r0, [r2, #16]
 226 0012 7047     		bx	lr
 227              	.L21:
 228              		.align	2
ARM GAS  /var/folders/m4/4md61f0s1_g0rzfghffqnxvr0000gn/T//ccZgcp7d.s 			page 5


 229              	.L20:
 230 0014 00ED00E0 		.word	-536810240
 231              		.cfi_endproc
 232              	.LFE126:
 233              		.size	NVIC_SystemLPConfig, .-NVIC_SystemLPConfig
 234              		.section	.text.SysTick_CLKSourceConfig,"ax",%progbits
 235              		.align	2
 236              		.p2align 4,,15
 237              		.global	SysTick_CLKSourceConfig
 238              		.thumb
 239              		.thumb_func
 240              		.type	SysTick_CLKSourceConfig, %function
 241              	SysTick_CLKSourceConfig:
 242              	.LFB127:
 243              		.loc 1 228 0
 244              		.cfi_startproc
 245              		@ args = 0, pretend = 0, frame = 0
 246              		@ frame_needed = 0, uses_anonymous_args = 0
 247              		@ link register save eliminated.
 248              	.LVL21:
 249              		.loc 1 233 0
 250 0000 044A     		ldr	r2, .L25
 251 0002 1368     		ldr	r3, [r2]
 252              		.loc 1 231 0
 253 0004 0428     		cmp	r0, #4
 254              		.loc 1 233 0
 255 0006 0CBF     		ite	eq
 256 0008 43F00403 		orreq	r3, r3, #4
 257              		.loc 1 237 0
 258 000c 23F00403 		bicne	r3, r3, #4
 259 0010 1360     		str	r3, [r2]
 260 0012 7047     		bx	lr
 261              	.L26:
 262              		.align	2
 263              	.L25:
 264 0014 10E000E0 		.word	-536813552
 265              		.cfi_endproc
 266              	.LFE127:
 267              		.size	SysTick_CLKSourceConfig, .-SysTick_CLKSourceConfig
 268              		.text
 269              	.Letext0:
 270              		.file 2 "/opt/homebrew-cask/Caskroom/gcc-arm-embedded/5_2-2015q4,20151219/gcc-arm-none-eabi-5_2-20
 271              		.file 3 "/opt/homebrew-cask/Caskroom/gcc-arm-embedded/5_2-2015q4,20151219/gcc-arm-none-eabi-5_2-20
 272              		.file 4 "ChibiOS_16.1.4/os/ext/CMSIS/include/core_cm4.h"
 273              		.file 5 "ChibiOS_16.1.4/os/ext/CMSIS/ST/STM32F4xx/stm32f4xx.h"
 274              		.file 6 "ChibiOS_16.1.4/ext/stdperiph_stm32f4/inc/misc.h"