ARM GAS  /var/folders/m4/4md61f0s1_g0rzfghffqnxvr0000gn/T//ccxl4cSv.s 			page 1


   1              		.syntax unified
   2              		.cpu cortex-m4
   3              		.eabi_attribute 27, 1
   4              		.eabi_attribute 28, 1
   5              		.fpu fpv4-sp-d16
   6              		.eabi_attribute 20, 1
   7              		.eabi_attribute 21, 1
   8              		.eabi_attribute 23, 3
   9              		.eabi_attribute 24, 1
  10              		.eabi_attribute 25, 1
  11              		.eabi_attribute 26, 1
  12              		.eabi_attribute 30, 2
  13              		.eabi_attribute 34, 1
  14              		.eabi_attribute 18, 4
  15              		.thumb
  16              		.syntax unified
  17              		.file	"misc.c"
  18              		.text
  19              	.Ltext0:
  20              		.cfi_sections	.debug_frame
  21              		.section	.text.NVIC_PriorityGroupConfig,"ax",%progbits
  22              		.align	2
  23              		.p2align 4,,15
  24              		.global	NVIC_PriorityGroupConfig
  25              		.thumb
  26              		.thumb_func
  27              		.type	NVIC_PriorityGroupConfig, %function
  28              	NVIC_PriorityGroupConfig:
  29              	.LFB123:
  30              		.file 1 "ChibiOS_16.1.4/ext/stdperiph_stm32f4/src/misc.c"
  31              		.loc 1 119 0
  32              		.cfi_startproc
  33              		@ args = 0, pretend = 0, frame = 0
  34              		@ frame_needed = 0, uses_anonymous_args = 0
  35              	.LVL0:
  36              		.loc 1 121 0
  37 0000 B0F5C06F 		cmp	r0, #1536
  38              		.loc 1 119 0
  39 0004 10B5     		push	{r4, lr}
  40              		.cfi_def_cfa_offset 8
  41              		.cfi_offset 4, -8
  42              		.cfi_offset 14, -4
  43              		.loc 1 119 0
  44 0006 0446     		mov	r4, r0
  45              		.loc 1 121 0
  46 0008 14D0     		beq	.L4
  47              		.loc 1 121 0 is_stmt 0 discriminator 6
  48 000a 20F48073 		bic	r3, r0, #256
  49 000e B3F5806F 		cmp	r3, #1024
  50 0012 0FD0     		beq	.L4
  51 0014 20F48060 		bic	r0, r0, #1024
  52              	.LVL1:
  53 0018 A0F54070 		sub	r0, r0, #768
  54 001c B0FA80F0 		clz	r0, r0
  55 0020 4009     		lsrs	r0, r0, #5
  56              	.L2:
  57              		.loc 1 121 0 discriminator 12
ARM GAS  /var/folders/m4/4md61f0s1_g0rzfghffqnxvr0000gn/T//ccxl4cSv.s 			page 2


  58 0022 FFF7FEFF 		bl	assert_param
  59              	.LVL2:
  60              		.loc 1 124 0 is_stmt 1 discriminator 12
  61 0026 44F0BF60 		orr	r0, r4, #100139008
  62 002a 034B     		ldr	r3, .L7
  63 002c 40F40030 		orr	r0, r0, #131072
  64 0030 D860     		str	r0, [r3, #12]
  65 0032 10BD     		pop	{r4, pc}
  66              	.LVL3:
  67              	.L4:
  68              		.loc 1 121 0
  69 0034 0120     		movs	r0, #1
  70              	.LVL4:
  71 0036 F4E7     		b	.L2
  72              	.L8:
  73              		.align	2
  74              	.L7:
  75 0038 00ED00E0 		.word	-536810240
  76              		.cfi_endproc
  77              	.LFE123:
  78              		.size	NVIC_PriorityGroupConfig, .-NVIC_PriorityGroupConfig
  79              		.section	.text.NVIC_Init,"ax",%progbits
  80              		.align	2
  81              		.p2align 4,,15
  82              		.global	NVIC_Init
  83              		.thumb
  84              		.thumb_func
  85              		.type	NVIC_Init, %function
  86              	NVIC_Init:
  87              	.LFB124:
  88              		.loc 1 137 0
  89              		.cfi_startproc
  90              		@ args = 0, pretend = 0, frame = 0
  91              		@ frame_needed = 0, uses_anonymous_args = 0
  92              	.LVL5:
  93 0000 F8B5     		push	{r3, r4, r5, r6, r7, lr}
  94              		.cfi_def_cfa_offset 24
  95              		.cfi_offset 3, -24
  96              		.cfi_offset 4, -20
  97              		.cfi_offset 5, -16
  98              		.cfi_offset 6, -12
  99              		.cfi_offset 7, -8
 100              		.cfi_offset 14, -4
 101              		.loc 1 137 0
 102 0002 0446     		mov	r4, r0
 103              		.loc 1 141 0
 104 0004 C078     		ldrb	r0, [r0, #3]	@ zero_extendqisi2
 105              	.LVL6:
 106 0006 0128     		cmp	r0, #1
 107 0008 8CBF     		ite	hi
 108 000a 0020     		movhi	r0, #0
 109 000c 0120     		movls	r0, #1
 110 000e FFF7FEFF 		bl	assert_param
 111              	.LVL7:
 112              		.loc 1 142 0
 113 0012 6078     		ldrb	r0, [r4, #1]	@ zero_extendqisi2
 114 0014 0F28     		cmp	r0, #15
ARM GAS  /var/folders/m4/4md61f0s1_g0rzfghffqnxvr0000gn/T//ccxl4cSv.s 			page 3


 115 0016 8CBF     		ite	hi
 116 0018 0020     		movhi	r0, #0
 117 001a 0120     		movls	r0, #1
 118 001c FFF7FEFF 		bl	assert_param
 119              	.LVL8:
 120              		.loc 1 143 0
 121 0020 A078     		ldrb	r0, [r4, #2]	@ zero_extendqisi2
 122 0022 0F28     		cmp	r0, #15
 123 0024 8CBF     		ite	hi
 124 0026 0020     		movhi	r0, #0
 125 0028 0120     		movls	r0, #1
 126 002a FFF7FEFF 		bl	assert_param
 127              	.LVL9:
 128              		.loc 1 145 0
 129 002e E378     		ldrb	r3, [r4, #3]	@ zero_extendqisi2
 130 0030 5BB9     		cbnz	r3, .L13
 131              		.loc 1 166 0
 132 0032 2378     		ldrb	r3, [r4]	@ zero_extendqisi2
 133 0034 1748     		ldr	r0, .L14
 134 0036 5A09     		lsrs	r2, r3, #5
 135 0038 2032     		adds	r2, r2, #32
 136              		.loc 1 167 0
 137 003a 03F01F03 		and	r3, r3, #31
 138 003e 0121     		movs	r1, #1
 139 0040 01FA03F3 		lsl	r3, r1, r3
 140              		.loc 1 166 0
 141 0044 40F82230 		str	r3, [r0, r2, lsl #2]
 142 0048 F8BD     		pop	{r3, r4, r5, r6, r7, pc}
 143              	.LVL10:
 144              	.L13:
 145              		.loc 1 148 0
 146 004a 134B     		ldr	r3, .L14+4
 147              		.loc 1 152 0
 148 004c 6778     		ldrb	r7, [r4, #1]	@ zero_extendqisi2
 149              		.loc 1 148 0
 150 004e D968     		ldr	r1, [r3, #12]
 151              		.loc 1 153 0
 152 0050 A278     		ldrb	r2, [r4, #2]	@ zero_extendqisi2
 153              		.loc 1 157 0
 154 0052 2078     		ldrb	r0, [r4]	@ zero_extendqisi2
 155 0054 0F4E     		ldr	r6, .L14
 156              		.loc 1 148 0
 157 0056 C943     		mvns	r1, r1
 158 0058 C1F30221 		ubfx	r1, r1, #8, #3
 159              	.LVL11:
 160              		.loc 1 152 0
 161 005c C1F10405 		rsb	r5, r1, #4
 162 0060 EDB2     		uxtb	r5, r5
 163              		.loc 1 153 0
 164 0062 0F23     		movs	r3, #15
 165 0064 0B41     		asrs	r3, r3, r1
 166              		.loc 1 152 0
 167 0066 07FA05F5 		lsl	r5, r7, r5
 168              		.loc 1 153 0
 169 006a 1340     		ands	r3, r3, r2
 170              		.loc 1 152 0
 171 006c EDB2     		uxtb	r5, r5
ARM GAS  /var/folders/m4/4md61f0s1_g0rzfghffqnxvr0000gn/T//ccxl4cSv.s 			page 4


 172              	.LVL12:
 173              		.loc 1 153 0
 174 006e 2B43     		orrs	r3, r3, r5
 175              	.LVL13:
 176              		.loc 1 157 0
 177 0070 00F16042 		add	r2, r0, #-536870912
 178 0074 02F56142 		add	r2, r2, #57600
 179              		.loc 1 155 0
 180 0078 1B01     		lsls	r3, r3, #4
 181              	.LVL14:
 182 007a DBB2     		uxtb	r3, r3
 183              	.LVL15:
 184              		.loc 1 157 0
 185 007c 82F80033 		strb	r3, [r2, #768]
 186              		.loc 1 160 0
 187 0080 2378     		ldrb	r3, [r4]	@ zero_extendqisi2
 188              	.LVL16:
 189              		.loc 1 161 0
 190 0082 0122     		movs	r2, #1
 191              	.LVL17:
 192 0084 03F01F01 		and	r1, r3, #31
 193              	.LVL18:
 194              		.loc 1 160 0
 195 0088 5B09     		lsrs	r3, r3, #5
 196              		.loc 1 161 0
 197 008a 8A40     		lsls	r2, r2, r1
 198              		.loc 1 160 0
 199 008c 46F82320 		str	r2, [r6, r3, lsl #2]
 200              	.LVL19:
 201 0090 F8BD     		pop	{r3, r4, r5, r6, r7, pc}
 202              	.LVL20:
 203              	.L15:
 204 0092 00BF     		.align	2
 205              	.L14:
 206 0094 00E100E0 		.word	-536813312
 207 0098 00ED00E0 		.word	-536810240
 208              		.cfi_endproc
 209              	.LFE124:
 210              		.size	NVIC_Init, .-NVIC_Init
 211              		.section	.text.NVIC_SetVectorTable,"ax",%progbits
 212              		.align	2
 213              		.p2align 4,,15
 214              		.global	NVIC_SetVectorTable
 215              		.thumb
 216              		.thumb_func
 217              		.type	NVIC_SetVectorTable, %function
 218              	NVIC_SetVectorTable:
 219              	.LFB125:
 220              		.loc 1 181 0
 221              		.cfi_startproc
 222              		@ args = 0, pretend = 0, frame = 0
 223              		@ frame_needed = 0, uses_anonymous_args = 0
 224              	.LVL21:
 225              		.loc 1 183 0
 226 0000 B0F1005F 		cmp	r0, #536870912
 227              		.loc 1 181 0
 228 0004 38B5     		push	{r3, r4, r5, lr}
ARM GAS  /var/folders/m4/4md61f0s1_g0rzfghffqnxvr0000gn/T//ccxl4cSv.s 			page 5


 229              		.cfi_def_cfa_offset 16
 230              		.cfi_offset 3, -16
 231              		.cfi_offset 4, -12
 232              		.cfi_offset 5, -8
 233              		.cfi_offset 14, -4
 234              		.loc 1 181 0
 235 0006 0546     		mov	r5, r0
 236              		.loc 1 183 0
 237 0008 1DBF     		ittte	ne
 238 000a A0F10060 		subne	r0, r0, #134217728
 239              	.LVL22:
 240 000e B0FA80F0 		clzne	r0, r0
 241 0012 4009     		lsrne	r0, r0, #5
 242 0014 0120     		moveq	r0, #1
 243              		.loc 1 181 0
 244 0016 0C46     		mov	r4, r1
 245              		.loc 1 183 0
 246 0018 FFF7FEFF 		bl	assert_param
 247              	.LVL23:
 248              		.loc 1 184 0
 249 001c 0748     		ldr	r0, .L20
 250 001e 8442     		cmp	r4, r0
 251 0020 8CBF     		ite	hi
 252 0022 0020     		movhi	r0, #0
 253 0024 0120     		movls	r0, #1
 254 0026 FFF7FEFF 		bl	assert_param
 255              	.LVL24:
 256              		.loc 1 186 0
 257 002a 24F06041 		bic	r1, r4, #-536870912
 258 002e 21F07F01 		bic	r1, r1, #127
 259 0032 034B     		ldr	r3, .L20+4
 260 0034 2943     		orrs	r1, r1, r5
 261 0036 9960     		str	r1, [r3, #8]
 262 0038 38BD     		pop	{r3, r4, r5, pc}
 263              	.LVL25:
 264              	.L21:
 265 003a 00BF     		.align	2
 266              	.L20:
 267 003c FEFF0F00 		.word	1048574
 268 0040 00ED00E0 		.word	-536810240
 269              		.cfi_endproc
 270              	.LFE125:
 271              		.size	NVIC_SetVectorTable, .-NVIC_SetVectorTable
 272              		.section	.text.NVIC_SystemLPConfig,"ax",%progbits
 273              		.align	2
 274              		.p2align 4,,15
 275              		.global	NVIC_SystemLPConfig
 276              		.thumb
 277              		.thumb_func
 278              		.type	NVIC_SystemLPConfig, %function
 279              	NVIC_SystemLPConfig:
 280              	.LFB126:
 281              		.loc 1 200 0
 282              		.cfi_startproc
 283              		@ args = 0, pretend = 0, frame = 0
 284              		@ frame_needed = 0, uses_anonymous_args = 0
 285              	.LVL26:
ARM GAS  /var/folders/m4/4md61f0s1_g0rzfghffqnxvr0000gn/T//ccxl4cSv.s 			page 6


 286              		.loc 1 202 0
 287 0000 1028     		cmp	r0, #16
 288              		.loc 1 200 0
 289 0002 38B5     		push	{r3, r4, r5, lr}
 290              		.cfi_def_cfa_offset 16
 291              		.cfi_offset 3, -16
 292              		.cfi_offset 4, -12
 293              		.cfi_offset 5, -8
 294              		.cfi_offset 14, -4
 295              		.loc 1 200 0
 296 0004 0446     		mov	r4, r0
 297 0006 9CBF     		itt	ls
 298 0008 0C48     		ldrls	r0, .L29
 299              	.LVL27:
 300 000a E040     		lsrls	r0, r0, r4
 301 000c 0D46     		mov	r5, r1
 302 000e 94BF     		ite	ls
 303 0010 00F00100 		andls	r0, r0, #1
 304              		.loc 1 202 0
 305 0014 0020     		movhi	r0, #0
 306 0016 FFF7FEFF 		bl	assert_param
 307              	.LVL28:
 308              		.loc 1 203 0
 309 001a 012D     		cmp	r5, #1
 310 001c 8CBF     		ite	hi
 311 001e 0020     		movhi	r0, #0
 312 0020 0120     		movls	r0, #1
 313 0022 FFF7FEFF 		bl	assert_param
 314              	.LVL29:
 315              		.loc 1 207 0
 316 0026 064A     		ldr	r2, .L29+4
 317 0028 1369     		ldr	r3, [r2, #16]
 318              		.loc 1 205 0
 319 002a 1DB9     		cbnz	r5, .L28
 320              		.loc 1 211 0
 321 002c 23EA0404 		bic	r4, r3, r4
 322 0030 1461     		str	r4, [r2, #16]
 323 0032 38BD     		pop	{r3, r4, r5, pc}
 324              	.L28:
 325              		.loc 1 207 0
 326 0034 1C43     		orrs	r4, r4, r3
 327 0036 1461     		str	r4, [r2, #16]
 328 0038 38BD     		pop	{r3, r4, r5, pc}
 329              	.L30:
 330 003a 00BF     		.align	2
 331              	.L29:
 332 003c 14000100 		.word	65556
 333 0040 00ED00E0 		.word	-536810240
 334              		.cfi_endproc
 335              	.LFE126:
 336              		.size	NVIC_SystemLPConfig, .-NVIC_SystemLPConfig
 337              		.section	.text.SysTick_CLKSourceConfig,"ax",%progbits
 338              		.align	2
 339              		.p2align 4,,15
 340              		.global	SysTick_CLKSourceConfig
 341              		.thumb
 342              		.thumb_func
ARM GAS  /var/folders/m4/4md61f0s1_g0rzfghffqnxvr0000gn/T//ccxl4cSv.s 			page 7


 343              		.type	SysTick_CLKSourceConfig, %function
 344              	SysTick_CLKSourceConfig:
 345              	.LFB127:
 346              		.loc 1 224 0
 347              		.cfi_startproc
 348              		@ args = 0, pretend = 0, frame = 0
 349              		@ frame_needed = 0, uses_anonymous_args = 0
 350              	.LVL30:
 351              		.loc 1 226 0
 352 0000 0428     		cmp	r0, #4
 353              		.loc 1 224 0
 354 0002 08B5     		push	{r3, lr}
 355              		.cfi_def_cfa_offset 8
 356              		.cfi_offset 3, -8
 357              		.cfi_offset 14, -4
 358              		.loc 1 226 0
 359 0004 0BD0     		beq	.L32
 360              		.loc 1 226 0 is_stmt 0 discriminator 2
 361 0006 431D     		adds	r3, r0, #5
 362 0008 14BF     		ite	ne
 363 000a 0020     		movne	r0, #0
 364              	.LVL31:
 365 000c 0120     		moveq	r0, #1
 366 000e FFF7FEFF 		bl	assert_param
 367              	.LVL32:
 368              		.loc 1 233 0 is_stmt 1 discriminator 2
 369 0012 074A     		ldr	r2, .L35
 370 0014 1368     		ldr	r3, [r2]
 371 0016 23F00403 		bic	r3, r3, #4
 372 001a 1360     		str	r3, [r2]
 373              		.loc 1 235 0 discriminator 2
 374 001c 08BD     		pop	{r3, pc}
 375              	.LVL33:
 376              	.L32:
 377              		.loc 1 226 0
 378 001e 0120     		movs	r0, #1
 379              	.LVL34:
 380 0020 FFF7FEFF 		bl	assert_param
 381              	.LVL35:
 382              		.loc 1 229 0
 383 0024 024A     		ldr	r2, .L35
 384 0026 1368     		ldr	r3, [r2]
 385 0028 43F00403 		orr	r3, r3, #4
 386 002c 1360     		str	r3, [r2]
 387 002e 08BD     		pop	{r3, pc}
 388              	.L36:
 389              		.align	2
 390              	.L35:
 391 0030 10E000E0 		.word	-536813552
 392              		.cfi_endproc
 393              	.LFE127:
 394              		.size	SysTick_CLKSourceConfig, .-SysTick_CLKSourceConfig
 395              		.text
 396              	.Letext0:
 397              		.file 2 "/opt/homebrew-cask/Caskroom/gcc-arm-embedded/5_2-2015q4,20151219/gcc-arm-none-eabi-5_2-20
 398              		.file 3 "/opt/homebrew-cask/Caskroom/gcc-arm-embedded/5_2-2015q4,20151219/gcc-arm-none-eabi-5_2-20
 399              		.file 4 "ChibiOS_16.1.4/os/ext/CMSIS/include/core_cm4.h"
ARM GAS  /var/folders/m4/4md61f0s1_g0rzfghffqnxvr0000gn/T//ccxl4cSv.s 			page 8


 400              		.file 5 "ChibiOS_16.1.4/os/ext/CMSIS/ST/STM32F4xx/stm32f4xx.h"
 401              		.file 6 "ChibiOS_16.1.4/ext/stdperiph_stm32f4/inc/misc.h"
 402              		.section	.debug_info,"",%progbits
 403              	.Ldebug_info0:
 404 0000 D1070000 		.4byte	0x7d1
 405 0004 0400     		.2byte	0x4
 406 0006 00000000 		.4byte	.Ldebug_abbrev0
 407 000a 04       		.byte	0x4
 408 000b 01       		.uleb128 0x1
 409 000c 6E010000 		.4byte	.LASF72
 410 0010 0C       		.byte	0xc
 411 0011 D0020000 		.4byte	.LASF73
 412 0015 9B000000 		.4byte	.LASF74
 413 0019 00000000 		.4byte	.Ldebug_ranges0+0
 414 001d 00000000 		.4byte	0
 415 0021 00000000 		.4byte	.Ldebug_line0
 416 0025 02       		.uleb128 0x2
 417 0026 01       		.byte	0x1
 418 0027 06       		.byte	0x6
 419 0028 97020000 		.4byte	.LASF0
 420 002c 03       		.uleb128 0x3
 421 002d 51010000 		.4byte	.LASF4
 422 0031 02       		.byte	0x2
 423 0032 1D       		.byte	0x1d
 424 0033 37000000 		.4byte	0x37
 425 0037 02       		.uleb128 0x2
 426 0038 01       		.byte	0x1
 427 0039 08       		.byte	0x8
 428 003a 60010000 		.4byte	.LASF1
 429 003e 02       		.uleb128 0x2
 430 003f 02       		.byte	0x2
 431 0040 05       		.byte	0x5
 432 0041 63000000 		.4byte	.LASF2
 433 0045 02       		.uleb128 0x2
 434 0046 02       		.byte	0x2
 435 0047 07       		.byte	0x7
 436 0048 3B030000 		.4byte	.LASF3
 437 004c 03       		.uleb128 0x3
 438 004d 1C040000 		.4byte	.LASF5
 439 0051 02       		.byte	0x2
 440 0052 3F       		.byte	0x3f
 441 0053 57000000 		.4byte	0x57
 442 0057 02       		.uleb128 0x2
 443 0058 04       		.byte	0x4
 444 0059 05       		.byte	0x5
 445 005a 48010000 		.4byte	.LASF6
 446 005e 03       		.uleb128 0x3
 447 005f D0000000 		.4byte	.LASF7
 448 0063 02       		.byte	0x2
 449 0064 41       		.byte	0x41
 450 0065 69000000 		.4byte	0x69
 451 0069 02       		.uleb128 0x2
 452 006a 04       		.byte	0x4
 453 006b 07       		.byte	0x7
 454 006c D8030000 		.4byte	.LASF8
 455 0070 02       		.uleb128 0x2
 456 0071 08       		.byte	0x8
ARM GAS  /var/folders/m4/4md61f0s1_g0rzfghffqnxvr0000gn/T//ccxl4cSv.s 			page 9


 457 0072 05       		.byte	0x5
 458 0073 2A010000 		.4byte	.LASF9
 459 0077 02       		.uleb128 0x2
 460 0078 08       		.byte	0x8
 461 0079 07       		.byte	0x7
 462 007a A3020000 		.4byte	.LASF10
 463 007e 04       		.uleb128 0x4
 464 007f 04       		.byte	0x4
 465 0080 05       		.byte	0x5
 466 0081 696E7400 		.ascii	"int\000"
 467 0085 02       		.uleb128 0x2
 468 0086 04       		.byte	0x4
 469 0087 07       		.byte	0x7
 470 0088 C3020000 		.4byte	.LASF11
 471 008c 03       		.uleb128 0x3
 472 008d EB000000 		.4byte	.LASF12
 473 0091 03       		.byte	0x3
 474 0092 14       		.byte	0x14
 475 0093 2C000000 		.4byte	0x2c
 476 0097 03       		.uleb128 0x3
 477 0098 5A030000 		.4byte	.LASF13
 478 009c 03       		.byte	0x3
 479 009d 1F       		.byte	0x1f
 480 009e 4C000000 		.4byte	0x4c
 481 00a2 03       		.uleb128 0x3
 482 00a3 BA020000 		.4byte	.LASF14
 483 00a7 03       		.byte	0x3
 484 00a8 20       		.byte	0x20
 485 00a9 5E000000 		.4byte	0x5e
 486 00ad 05       		.uleb128 0x5
 487 00ae 040E     		.2byte	0xe04
 488 00b0 04       		.byte	0x4
 489 00b1 A001     		.2byte	0x1a0
 490 00b3 69010000 		.4byte	0x169
 491 00b7 06       		.uleb128 0x6
 492 00b8 AB030000 		.4byte	.LASF15
 493 00bc 04       		.byte	0x4
 494 00bd A201     		.2byte	0x1a2
 495 00bf 80010000 		.4byte	0x180
 496 00c3 00       		.byte	0
 497 00c4 06       		.uleb128 0x6
 498 00c5 E1000000 		.4byte	.LASF16
 499 00c9 04       		.byte	0x4
 500 00ca A301     		.2byte	0x1a3
 501 00cc 85010000 		.4byte	0x185
 502 00d0 20       		.byte	0x20
 503 00d1 06       		.uleb128 0x6
 504 00d2 A1030000 		.4byte	.LASF17
 505 00d6 04       		.byte	0x4
 506 00d7 A401     		.2byte	0x1a4
 507 00d9 95010000 		.4byte	0x195
 508 00dd 80       		.byte	0x80
 509 00de 06       		.uleb128 0x6
 510 00df 21010000 		.4byte	.LASF18
 511 00e3 04       		.byte	0x4
 512 00e4 A501     		.2byte	0x1a5
 513 00e6 85010000 		.4byte	0x185
ARM GAS  /var/folders/m4/4md61f0s1_g0rzfghffqnxvr0000gn/T//ccxl4cSv.s 			page 10


 514 00ea A0       		.byte	0xa0
 515 00eb 07       		.uleb128 0x7
 516 00ec 67030000 		.4byte	.LASF19
 517 00f0 04       		.byte	0x4
 518 00f1 A601     		.2byte	0x1a6
 519 00f3 9A010000 		.4byte	0x19a
 520 00f7 0001     		.2byte	0x100
 521 00f9 07       		.uleb128 0x7
 522 00fa B0030000 		.4byte	.LASF20
 523 00fe 04       		.byte	0x4
 524 00ff A701     		.2byte	0x1a7
 525 0101 85010000 		.4byte	0x185
 526 0105 2001     		.2byte	0x120
 527 0107 07       		.uleb128 0x7
 528 0108 92020000 		.4byte	.LASF21
 529 010c 04       		.byte	0x4
 530 010d A801     		.2byte	0x1a8
 531 010f 9F010000 		.4byte	0x19f
 532 0113 8001     		.2byte	0x180
 533 0115 07       		.uleb128 0x7
 534 0116 BA030000 		.4byte	.LASF22
 535 011a 04       		.byte	0x4
 536 011b A901     		.2byte	0x1a9
 537 011d 85010000 		.4byte	0x185
 538 0121 A001     		.2byte	0x1a0
 539 0123 07       		.uleb128 0x7
 540 0124 00000000 		.4byte	.LASF23
 541 0128 04       		.byte	0x4
 542 0129 AA01     		.2byte	0x1aa
 543 012b A4010000 		.4byte	0x1a4
 544 012f 0002     		.2byte	0x200
 545 0131 07       		.uleb128 0x7
 546 0132 C4030000 		.4byte	.LASF24
 547 0136 04       		.byte	0x4
 548 0137 AB01     		.2byte	0x1ab
 549 0139 A9010000 		.4byte	0x1a9
 550 013d 2002     		.2byte	0x220
 551 013f 08       		.uleb128 0x8
 552 0140 495000   		.ascii	"IP\000"
 553 0143 04       		.byte	0x4
 554 0144 AC01     		.2byte	0x1ac
 555 0146 C9010000 		.4byte	0x1c9
 556 014a 0003     		.2byte	0x300
 557 014c 07       		.uleb128 0x7
 558 014d CE030000 		.4byte	.LASF25
 559 0151 04       		.byte	0x4
 560 0152 AD01     		.2byte	0x1ad
 561 0154 CE010000 		.4byte	0x1ce
 562 0158 F003     		.2byte	0x3f0
 563 015a 07       		.uleb128 0x7
 564 015b 0F010000 		.4byte	.LASF26
 565 015f 04       		.byte	0x4
 566 0160 AE01     		.2byte	0x1ae
 567 0162 DF010000 		.4byte	0x1df
 568 0166 000E     		.2byte	0xe00
 569 0168 00       		.byte	0
 570 0169 09       		.uleb128 0x9
ARM GAS  /var/folders/m4/4md61f0s1_g0rzfghffqnxvr0000gn/T//ccxl4cSv.s 			page 11


 571 016a A2000000 		.4byte	0xa2
 572 016e 79010000 		.4byte	0x179
 573 0172 0A       		.uleb128 0xa
 574 0173 79010000 		.4byte	0x179
 575 0177 07       		.byte	0x7
 576 0178 00       		.byte	0
 577 0179 02       		.uleb128 0x2
 578 017a 04       		.byte	0x4
 579 017b 07       		.byte	0x7
 580 017c 81000000 		.4byte	.LASF27
 581 0180 0B       		.uleb128 0xb
 582 0181 69010000 		.4byte	0x169
 583 0185 09       		.uleb128 0x9
 584 0186 A2000000 		.4byte	0xa2
 585 018a 95010000 		.4byte	0x195
 586 018e 0A       		.uleb128 0xa
 587 018f 79010000 		.4byte	0x179
 588 0193 17       		.byte	0x17
 589 0194 00       		.byte	0
 590 0195 0B       		.uleb128 0xb
 591 0196 69010000 		.4byte	0x169
 592 019a 0B       		.uleb128 0xb
 593 019b 69010000 		.4byte	0x169
 594 019f 0B       		.uleb128 0xb
 595 01a0 69010000 		.4byte	0x169
 596 01a4 0B       		.uleb128 0xb
 597 01a5 69010000 		.4byte	0x169
 598 01a9 09       		.uleb128 0x9
 599 01aa A2000000 		.4byte	0xa2
 600 01ae B9010000 		.4byte	0x1b9
 601 01b2 0A       		.uleb128 0xa
 602 01b3 79010000 		.4byte	0x179
 603 01b7 37       		.byte	0x37
 604 01b8 00       		.byte	0
 605 01b9 09       		.uleb128 0x9
 606 01ba 8C000000 		.4byte	0x8c
 607 01be C9010000 		.4byte	0x1c9
 608 01c2 0A       		.uleb128 0xa
 609 01c3 79010000 		.4byte	0x179
 610 01c7 EF       		.byte	0xef
 611 01c8 00       		.byte	0
 612 01c9 0B       		.uleb128 0xb
 613 01ca B9010000 		.4byte	0x1b9
 614 01ce 09       		.uleb128 0x9
 615 01cf A2000000 		.4byte	0xa2
 616 01d3 DF010000 		.4byte	0x1df
 617 01d7 0C       		.uleb128 0xc
 618 01d8 79010000 		.4byte	0x179
 619 01dc 8302     		.2byte	0x283
 620 01de 00       		.byte	0
 621 01df 0B       		.uleb128 0xb
 622 01e0 A2000000 		.4byte	0xa2
 623 01e4 0D       		.uleb128 0xd
 624 01e5 88020000 		.4byte	.LASF28
 625 01e9 04       		.byte	0x4
 626 01ea AF01     		.2byte	0x1af
 627 01ec AD000000 		.4byte	0xad
ARM GAS  /var/folders/m4/4md61f0s1_g0rzfghffqnxvr0000gn/T//ccxl4cSv.s 			page 12


 628 01f0 0E       		.uleb128 0xe
 629 01f1 8C       		.byte	0x8c
 630 01f2 04       		.byte	0x4
 631 01f3 C001     		.2byte	0x1c0
 632 01f5 0B030000 		.4byte	0x30b
 633 01f9 06       		.uleb128 0x6
 634 01fa DB000000 		.4byte	.LASF29
 635 01fe 04       		.byte	0x4
 636 01ff C201     		.2byte	0x1c2
 637 0201 0B030000 		.4byte	0x30b
 638 0205 00       		.byte	0
 639 0206 06       		.uleb128 0x6
 640 0207 1C010000 		.4byte	.LASF30
 641 020b 04       		.byte	0x4
 642 020c C301     		.2byte	0x1c3
 643 020e DF010000 		.4byte	0x1df
 644 0212 04       		.byte	0x4
 645 0213 06       		.uleb128 0x6
 646 0214 3E010000 		.4byte	.LASF31
 647 0218 04       		.byte	0x4
 648 0219 C401     		.2byte	0x1c4
 649 021b DF010000 		.4byte	0x1df
 650 021f 08       		.byte	0x8
 651 0220 06       		.uleb128 0x6
 652 0221 74020000 		.4byte	.LASF32
 653 0225 04       		.byte	0x4
 654 0226 C501     		.2byte	0x1c5
 655 0228 DF010000 		.4byte	0x1df
 656 022c 0C       		.byte	0xc
 657 022d 0F       		.uleb128 0xf
 658 022e 53435200 		.ascii	"SCR\000"
 659 0232 04       		.byte	0x4
 660 0233 C601     		.2byte	0x1c6
 661 0235 DF010000 		.4byte	0x1df
 662 0239 10       		.byte	0x10
 663 023a 0F       		.uleb128 0xf
 664 023b 43435200 		.ascii	"CCR\000"
 665 023f 04       		.byte	0x4
 666 0240 C701     		.2byte	0x1c7
 667 0242 DF010000 		.4byte	0x1df
 668 0246 14       		.byte	0x14
 669 0247 0F       		.uleb128 0xf
 670 0248 53485000 		.ascii	"SHP\000"
 671 024c 04       		.byte	0x4
 672 024d C801     		.2byte	0x1c8
 673 024f 20030000 		.4byte	0x320
 674 0253 18       		.byte	0x18
 675 0254 06       		.uleb128 0x6
 676 0255 0D030000 		.4byte	.LASF33
 677 0259 04       		.byte	0x4
 678 025a C901     		.2byte	0x1c9
 679 025c DF010000 		.4byte	0x1df
 680 0260 24       		.byte	0x24
 681 0261 06       		.uleb128 0x6
 682 0262 5B010000 		.4byte	.LASF34
 683 0266 04       		.byte	0x4
 684 0267 CA01     		.2byte	0x1ca
ARM GAS  /var/folders/m4/4md61f0s1_g0rzfghffqnxvr0000gn/T//ccxl4cSv.s 			page 13


 685 0269 DF010000 		.4byte	0x1df
 686 026d 28       		.byte	0x28
 687 026e 06       		.uleb128 0x6
 688 026f 9C030000 		.4byte	.LASF35
 689 0273 04       		.byte	0x4
 690 0274 CB01     		.2byte	0x1cb
 691 0276 DF010000 		.4byte	0x1df
 692 027a 2C       		.byte	0x2c
 693 027b 06       		.uleb128 0x6
 694 027c 6C030000 		.4byte	.LASF36
 695 0280 04       		.byte	0x4
 696 0281 CC01     		.2byte	0x1cc
 697 0283 DF010000 		.4byte	0x1df
 698 0287 30       		.byte	0x30
 699 0288 06       		.uleb128 0x6
 700 0289 00030000 		.4byte	.LASF37
 701 028d 04       		.byte	0x4
 702 028e CD01     		.2byte	0x1cd
 703 0290 DF010000 		.4byte	0x1df
 704 0294 34       		.byte	0x34
 705 0295 06       		.uleb128 0x6
 706 0296 43010000 		.4byte	.LASF38
 707 029a 04       		.byte	0x4
 708 029b CE01     		.2byte	0x1ce
 709 029d DF010000 		.4byte	0x1df
 710 02a1 38       		.byte	0x38
 711 02a2 06       		.uleb128 0x6
 712 02a3 45040000 		.4byte	.LASF39
 713 02a7 04       		.byte	0x4
 714 02a8 CF01     		.2byte	0x1cf
 715 02aa DF010000 		.4byte	0x1df
 716 02ae 3C       		.byte	0x3c
 717 02af 0F       		.uleb128 0xf
 718 02b0 50465200 		.ascii	"PFR\000"
 719 02b4 04       		.byte	0x4
 720 02b5 D001     		.2byte	0x1d0
 721 02b7 3A030000 		.4byte	0x33a
 722 02bb 40       		.byte	0x40
 723 02bc 0F       		.uleb128 0xf
 724 02bd 44465200 		.ascii	"DFR\000"
 725 02c1 04       		.byte	0x4
 726 02c2 D101     		.2byte	0x1d1
 727 02c4 0B030000 		.4byte	0x30b
 728 02c8 48       		.byte	0x48
 729 02c9 0F       		.uleb128 0xf
 730 02ca 41445200 		.ascii	"ADR\000"
 731 02ce 04       		.byte	0x4
 732 02cf D201     		.2byte	0x1d2
 733 02d1 0B030000 		.4byte	0x30b
 734 02d5 4C       		.byte	0x4c
 735 02d6 06       		.uleb128 0x6
 736 02d7 A6030000 		.4byte	.LASF40
 737 02db 04       		.byte	0x4
 738 02dc D301     		.2byte	0x1d3
 739 02de 54030000 		.4byte	0x354
 740 02e2 50       		.byte	0x50
 741 02e3 06       		.uleb128 0x6
ARM GAS  /var/folders/m4/4md61f0s1_g0rzfghffqnxvr0000gn/T//ccxl4cSv.s 			page 14


 742 02e4 62030000 		.4byte	.LASF41
 743 02e8 04       		.byte	0x4
 744 02e9 D401     		.2byte	0x1d4
 745 02eb 6E030000 		.4byte	0x36e
 746 02ef 60       		.byte	0x60
 747 02f0 06       		.uleb128 0x6
 748 02f1 E1000000 		.4byte	.LASF16
 749 02f5 04       		.byte	0x4
 750 02f6 D501     		.2byte	0x1d5
 751 02f8 59030000 		.4byte	0x359
 752 02fc 74       		.byte	0x74
 753 02fd 06       		.uleb128 0x6
 754 02fe 64040000 		.4byte	.LASF42
 755 0302 04       		.byte	0x4
 756 0303 D601     		.2byte	0x1d6
 757 0305 DF010000 		.4byte	0x1df
 758 0309 88       		.byte	0x88
 759 030a 00       		.byte	0
 760 030b 10       		.uleb128 0x10
 761 030c DF010000 		.4byte	0x1df
 762 0310 09       		.uleb128 0x9
 763 0311 8C000000 		.4byte	0x8c
 764 0315 20030000 		.4byte	0x320
 765 0319 0A       		.uleb128 0xa
 766 031a 79010000 		.4byte	0x179
 767 031e 0B       		.byte	0xb
 768 031f 00       		.byte	0
 769 0320 0B       		.uleb128 0xb
 770 0321 10030000 		.4byte	0x310
 771 0325 09       		.uleb128 0x9
 772 0326 A2000000 		.4byte	0xa2
 773 032a 35030000 		.4byte	0x335
 774 032e 0A       		.uleb128 0xa
 775 032f 79010000 		.4byte	0x179
 776 0333 01       		.byte	0x1
 777 0334 00       		.byte	0
 778 0335 0B       		.uleb128 0xb
 779 0336 25030000 		.4byte	0x325
 780 033a 10       		.uleb128 0x10
 781 033b 35030000 		.4byte	0x335
 782 033f 09       		.uleb128 0x9
 783 0340 A2000000 		.4byte	0xa2
 784 0344 4F030000 		.4byte	0x34f
 785 0348 0A       		.uleb128 0xa
 786 0349 79010000 		.4byte	0x179
 787 034d 03       		.byte	0x3
 788 034e 00       		.byte	0
 789 034f 0B       		.uleb128 0xb
 790 0350 3F030000 		.4byte	0x33f
 791 0354 10       		.uleb128 0x10
 792 0355 4F030000 		.4byte	0x34f
 793 0359 09       		.uleb128 0x9
 794 035a A2000000 		.4byte	0xa2
 795 035e 69030000 		.4byte	0x369
 796 0362 0A       		.uleb128 0xa
 797 0363 79010000 		.4byte	0x179
 798 0367 04       		.byte	0x4
ARM GAS  /var/folders/m4/4md61f0s1_g0rzfghffqnxvr0000gn/T//ccxl4cSv.s 			page 15


 799 0368 00       		.byte	0
 800 0369 0B       		.uleb128 0xb
 801 036a 59030000 		.4byte	0x359
 802 036e 10       		.uleb128 0x10
 803 036f 69030000 		.4byte	0x369
 804 0373 0D       		.uleb128 0xd
 805 0374 7A020000 		.4byte	.LASF43
 806 0378 04       		.byte	0x4
 807 0379 D701     		.2byte	0x1d7
 808 037b F0010000 		.4byte	0x1f0
 809 037f 0E       		.uleb128 0xe
 810 0380 10       		.byte	0x10
 811 0381 04       		.byte	0x4
 812 0382 BF02     		.2byte	0x2bf
 813 0384 BD030000 		.4byte	0x3bd
 814 0388 06       		.uleb128 0x6
 815 0389 83020000 		.4byte	.LASF44
 816 038d 04       		.byte	0x4
 817 038e C102     		.2byte	0x2c1
 818 0390 DF010000 		.4byte	0x1df
 819 0394 00       		.byte	0
 820 0395 06       		.uleb128 0x6
 821 0396 40040000 		.4byte	.LASF45
 822 039a 04       		.byte	0x4
 823 039b C202     		.2byte	0x2c2
 824 039d DF010000 		.4byte	0x1df
 825 03a1 04       		.byte	0x4
 826 03a2 0F       		.uleb128 0xf
 827 03a3 56414C00 		.ascii	"VAL\000"
 828 03a7 04       		.byte	0x4
 829 03a8 C302     		.2byte	0x2c3
 830 03aa DF010000 		.4byte	0x1df
 831 03ae 08       		.byte	0x8
 832 03af 06       		.uleb128 0x6
 833 03b0 38010000 		.4byte	.LASF46
 834 03b4 04       		.byte	0x4
 835 03b5 C402     		.2byte	0x2c4
 836 03b7 0B030000 		.4byte	0x30b
 837 03bb 0C       		.byte	0xc
 838 03bc 00       		.byte	0
 839 03bd 0D       		.uleb128 0xd
 840 03be 2E030000 		.4byte	.LASF47
 841 03c2 04       		.byte	0x4
 842 03c3 C502     		.2byte	0x2c5
 843 03c5 7F030000 		.4byte	0x37f
 844 03c9 11       		.uleb128 0x11
 845 03ca 01       		.byte	0x1
 846 03cb 37000000 		.4byte	0x37
 847 03cf 05       		.byte	0x5
 848 03d0 BE       		.byte	0xbe
 849 03d1 E2030000 		.4byte	0x3e2
 850 03d5 12       		.uleb128 0x12
 851 03d6 14010000 		.4byte	.LASF48
 852 03da 00       		.byte	0
 853 03db 12       		.uleb128 0x12
 854 03dc 6A040000 		.4byte	.LASF49
 855 03e0 01       		.byte	0x1
ARM GAS  /var/folders/m4/4md61f0s1_g0rzfghffqnxvr0000gn/T//ccxl4cSv.s 			page 16


 856 03e1 00       		.byte	0
 857 03e2 03       		.uleb128 0x3
 858 03e3 0C040000 		.4byte	.LASF50
 859 03e7 05       		.byte	0x5
 860 03e8 C1       		.byte	0xc1
 861 03e9 C9030000 		.4byte	0x3c9
 862 03ed 13       		.uleb128 0x13
 863 03ee 04       		.byte	0x4
 864 03ef 06       		.byte	0x6
 865 03f0 36       		.byte	0x36
 866 03f1 26040000 		.4byte	0x426
 867 03f5 14       		.uleb128 0x14
 868 03f6 71030000 		.4byte	.LASF51
 869 03fa 06       		.byte	0x6
 870 03fb 38       		.byte	0x38
 871 03fc 8C000000 		.4byte	0x8c
 872 0400 00       		.byte	0
 873 0401 14       		.uleb128 0x14
 874 0402 EA030000 		.4byte	.LASF52
 875 0406 06       		.byte	0x6
 876 0407 3D       		.byte	0x3d
 877 0408 8C000000 		.4byte	0x8c
 878 040c 01       		.byte	0x1
 879 040d 14       		.uleb128 0x14
 880 040e 81030000 		.4byte	.LASF53
 881 0412 06       		.byte	0x6
 882 0413 42       		.byte	0x42
 883 0414 8C000000 		.4byte	0x8c
 884 0418 02       		.byte	0x2
 885 0419 14       		.uleb128 0x14
 886 041a 16000000 		.4byte	.LASF54
 887 041e 06       		.byte	0x6
 888 041f 47       		.byte	0x47
 889 0420 E2030000 		.4byte	0x3e2
 890 0424 03       		.byte	0x3
 891 0425 00       		.byte	0
 892 0426 03       		.uleb128 0x3
 893 0427 05000000 		.4byte	.LASF55
 894 042b 06       		.byte	0x6
 895 042c 4A       		.byte	0x4a
 896 042d ED030000 		.4byte	0x3ed
 897 0431 15       		.uleb128 0x15
 898 0432 71040000 		.4byte	.LASF56
 899 0436 01       		.byte	0x1
 900 0437 76       		.byte	0x76
 901 0438 00000000 		.4byte	.LFB123
 902 043c 3C000000 		.4byte	.LFE123-.LFB123
 903 0440 01       		.uleb128 0x1
 904 0441 9C       		.byte	0x9c
 905 0442 70040000 		.4byte	0x470
 906 0446 16       		.uleb128 0x16
 907 0447 F3000000 		.4byte	.LASF58
 908 044b 01       		.byte	0x1
 909 044c 76       		.byte	0x76
 910 044d A2000000 		.4byte	0xa2
 911 0451 00000000 		.4byte	.LLST0
 912 0455 17       		.uleb128 0x17
ARM GAS  /var/folders/m4/4md61f0s1_g0rzfghffqnxvr0000gn/T//ccxl4cSv.s 			page 17


 913 0456 26040000 		.4byte	.LASF63
 914 045a 01       		.byte	0x1
 915 045b 79       		.byte	0x79
 916 045c 7E000000 		.4byte	0x7e
 917 0460 66040000 		.4byte	0x466
 918 0464 18       		.uleb128 0x18
 919 0465 00       		.byte	0
 920 0466 19       		.uleb128 0x19
 921 0467 26000000 		.4byte	.LVL2
 922 046b C9070000 		.4byte	0x7c9
 923 046f 00       		.byte	0
 924 0470 15       		.uleb128 0x15
 925 0471 8A000000 		.4byte	.LASF57
 926 0475 01       		.byte	0x1
 927 0476 88       		.byte	0x88
 928 0477 00000000 		.4byte	.LFB124
 929 047b 9C000000 		.4byte	.LFE124-.LFB124
 930 047f 01       		.uleb128 0x1
 931 0480 9C       		.byte	0x9c
 932 0481 EE040000 		.4byte	0x4ee
 933 0485 16       		.uleb128 0x16
 934 0486 3B000000 		.4byte	.LASF59
 935 048a 01       		.byte	0x1
 936 048b 88       		.byte	0x88
 937 048c EE040000 		.4byte	0x4ee
 938 0490 34000000 		.4byte	.LLST1
 939 0494 1A       		.uleb128 0x1a
 940 0495 4E030000 		.4byte	.LASF60
 941 0499 01       		.byte	0x1
 942 049a 8A       		.byte	0x8a
 943 049b 8C000000 		.4byte	0x8c
 944 049f 60000000 		.4byte	.LLST2
 945 04a3 1A       		.uleb128 0x1a
 946 04a4 94000000 		.4byte	.LASF61
 947 04a8 01       		.byte	0x1
 948 04a9 8A       		.byte	0x8a
 949 04aa 8C000000 		.4byte	0x8c
 950 04ae D7000000 		.4byte	.LLST3
 951 04b2 1A       		.uleb128 0x1a
 952 04b3 06030000 		.4byte	.LASF62
 953 04b7 01       		.byte	0x1
 954 04b8 8A       		.byte	0x8a
 955 04b9 8C000000 		.4byte	0x8c
 956 04bd FA000000 		.4byte	.LLST4
 957 04c1 17       		.uleb128 0x17
 958 04c2 26040000 		.4byte	.LASF63
 959 04c6 01       		.byte	0x1
 960 04c7 79       		.byte	0x79
 961 04c8 7E000000 		.4byte	0x7e
 962 04cc D2040000 		.4byte	0x4d2
 963 04d0 18       		.uleb128 0x18
 964 04d1 00       		.byte	0
 965 04d2 19       		.uleb128 0x19
 966 04d3 12000000 		.4byte	.LVL7
 967 04d7 C9070000 		.4byte	0x7c9
 968 04db 19       		.uleb128 0x19
 969 04dc 20000000 		.4byte	.LVL8
ARM GAS  /var/folders/m4/4md61f0s1_g0rzfghffqnxvr0000gn/T//ccxl4cSv.s 			page 18


 970 04e0 C9070000 		.4byte	0x7c9
 971 04e4 19       		.uleb128 0x19
 972 04e5 2E000000 		.4byte	.LVL9
 973 04e9 C9070000 		.4byte	0x7c9
 974 04ed 00       		.byte	0
 975 04ee 1B       		.uleb128 0x1b
 976 04ef 04       		.byte	0x4
 977 04f0 26040000 		.4byte	0x426
 978 04f4 15       		.uleb128 0x15
 979 04f5 6D000000 		.4byte	.LASF64
 980 04f9 01       		.byte	0x1
 981 04fa B4       		.byte	0xb4
 982 04fb 00000000 		.4byte	.LFB125
 983 04ff 44000000 		.4byte	.LFE125-.LFB125
 984 0503 01       		.uleb128 0x1
 985 0504 9C       		.byte	0x9c
 986 0505 38060000 		.4byte	0x638
 987 0509 16       		.uleb128 0x16
 988 050a 33040000 		.4byte	.LASF65
 989 050e 01       		.byte	0x1
 990 050f B4       		.byte	0xb4
 991 0510 A2000000 		.4byte	0xa2
 992 0514 1D010000 		.4byte	.LLST5
 993 0518 16       		.uleb128 0x16
 994 0519 27030000 		.4byte	.LASF66
 995 051d 01       		.byte	0x1
 996 051e B4       		.byte	0xb4
 997 051f A2000000 		.4byte	0xa2
 998 0523 49010000 		.4byte	.LLST6
 999 0527 17       		.uleb128 0x17
 1000 0528 26040000 		.4byte	.LASF63
 1001 052c 01       		.byte	0x1
 1002 052d 79       		.byte	0x79
 1003 052e 7E000000 		.4byte	0x7e
 1004 0532 38050000 		.4byte	0x538
 1005 0536 18       		.uleb128 0x18
 1006 0537 00       		.byte	0
 1007 0538 1C       		.uleb128 0x1c
 1008 0539 1C000000 		.4byte	.LVL23
 1009 053d C9070000 		.4byte	0x7c9
 1010 0541 00060000 		.4byte	0x600
 1011 0545 1D       		.uleb128 0x1d
 1012 0546 01       		.uleb128 0x1
 1013 0547 50       		.byte	0x50
 1014 0548 B501     		.uleb128 0xb5
 1015 054a 31       		.byte	0x31
 1016 054b 75       		.byte	0x75
 1017 054c 80808040 		.sleb128 -134217728
 1018 0550 75       		.byte	0x75
 1019 0551 00       		.sleb128 0
 1020 0552 75       		.byte	0x75
 1021 0553 00       		.sleb128 0
 1022 0554 40       		.byte	0x40
 1023 0555 49       		.byte	0x49
 1024 0556 24       		.byte	0x24
 1025 0557 2E       		.byte	0x2e
 1026 0558 28       		.byte	0x28
ARM GAS  /var/folders/m4/4md61f0s1_g0rzfghffqnxvr0000gn/T//ccxl4cSv.s 			page 19


 1027 0559 0100     		.2byte	0x1
 1028 055b 16       		.byte	0x16
 1029 055c 13       		.byte	0x13
 1030 055d 12       		.byte	0x12
 1031 055e 28       		.byte	0x28
 1032 055f 0600     		.2byte	0x6
 1033 0561 13       		.byte	0x13
 1034 0562 08       		.byte	0x8
 1035 0563 20       		.byte	0x20
 1036 0564 2F       		.byte	0x2f
 1037 0565 1400     		.2byte	0x14
 1038 0567 30       		.byte	0x30
 1039 0568 16       		.byte	0x16
 1040 0569 12       		.byte	0x12
 1041 056a 40       		.byte	0x40
 1042 056b 4B       		.byte	0x4b
 1043 056c 24       		.byte	0x24
 1044 056d 1A       		.byte	0x1a
 1045 056e 28       		.byte	0x28
 1046 056f 0900     		.2byte	0x9
 1047 0571 31       		.byte	0x31
 1048 0572 24       		.byte	0x24
 1049 0573 16       		.byte	0x16
 1050 0574 23       		.byte	0x23
 1051 0575 01       		.uleb128 0x1
 1052 0576 16       		.byte	0x16
 1053 0577 2F       		.byte	0x2f
 1054 0578 EFFF     		.2byte	0xffef
 1055 057a 13       		.byte	0x13
 1056 057b 96       		.byte	0x96
 1057 057c 75       		.byte	0x75
 1058 057d 80808040 		.sleb128 -134217728
 1059 0581 75       		.byte	0x75
 1060 0582 00       		.sleb128 0
 1061 0583 75       		.byte	0x75
 1062 0584 00       		.sleb128 0
 1063 0585 40       		.byte	0x40
 1064 0586 49       		.byte	0x49
 1065 0587 24       		.byte	0x24
 1066 0588 2E       		.byte	0x2e
 1067 0589 28       		.byte	0x28
 1068 058a 0100     		.2byte	0x1
 1069 058c 16       		.byte	0x16
 1070 058d 13       		.byte	0x13
 1071 058e 75       		.byte	0x75
 1072 058f 00       		.sleb128 0
 1073 0590 40       		.byte	0x40
 1074 0591 49       		.byte	0x49
 1075 0592 24       		.byte	0x24
 1076 0593 2E       		.byte	0x2e
 1077 0594 28       		.byte	0x28
 1078 0595 0100     		.2byte	0x1
 1079 0597 16       		.byte	0x16
 1080 0598 13       		.byte	0x13
 1081 0599 35       		.byte	0x35
 1082 059a 25       		.byte	0x25
 1083 059b 75       		.byte	0x75
ARM GAS  /var/folders/m4/4md61f0s1_g0rzfghffqnxvr0000gn/T//ccxl4cSv.s 			page 20


 1084 059c 80808040 		.sleb128 -134217728
 1085 05a0 75       		.byte	0x75
 1086 05a1 00       		.sleb128 0
 1087 05a2 75       		.byte	0x75
 1088 05a3 00       		.sleb128 0
 1089 05a4 40       		.byte	0x40
 1090 05a5 49       		.byte	0x49
 1091 05a6 24       		.byte	0x24
 1092 05a7 2E       		.byte	0x2e
 1093 05a8 28       		.byte	0x28
 1094 05a9 0100     		.2byte	0x1
 1095 05ab 16       		.byte	0x16
 1096 05ac 13       		.byte	0x13
 1097 05ad 12       		.byte	0x12
 1098 05ae 28       		.byte	0x28
 1099 05af 0600     		.2byte	0x6
 1100 05b1 13       		.byte	0x13
 1101 05b2 08       		.byte	0x8
 1102 05b3 20       		.byte	0x20
 1103 05b4 2F       		.byte	0x2f
 1104 05b5 1400     		.2byte	0x14
 1105 05b7 30       		.byte	0x30
 1106 05b8 16       		.byte	0x16
 1107 05b9 12       		.byte	0x12
 1108 05ba 40       		.byte	0x40
 1109 05bb 4B       		.byte	0x4b
 1110 05bc 24       		.byte	0x24
 1111 05bd 1A       		.byte	0x1a
 1112 05be 28       		.byte	0x28
 1113 05bf 0900     		.2byte	0x9
 1114 05c1 31       		.byte	0x31
 1115 05c2 24       		.byte	0x24
 1116 05c3 16       		.byte	0x16
 1117 05c4 23       		.byte	0x23
 1118 05c5 01       		.uleb128 0x1
 1119 05c6 16       		.byte	0x16
 1120 05c7 2F       		.byte	0x2f
 1121 05c8 EFFF     		.2byte	0xffef
 1122 05ca 13       		.byte	0x13
 1123 05cb 96       		.byte	0x96
 1124 05cc 75       		.byte	0x75
 1125 05cd 80808040 		.sleb128 -134217728
 1126 05d1 75       		.byte	0x75
 1127 05d2 00       		.sleb128 0
 1128 05d3 75       		.byte	0x75
 1129 05d4 00       		.sleb128 0
 1130 05d5 40       		.byte	0x40
 1131 05d6 49       		.byte	0x49
 1132 05d7 24       		.byte	0x24
 1133 05d8 2E       		.byte	0x2e
 1134 05d9 28       		.byte	0x28
 1135 05da 0100     		.2byte	0x1
 1136 05dc 16       		.byte	0x16
 1137 05dd 13       		.byte	0x13
 1138 05de 75       		.byte	0x75
 1139 05df 00       		.sleb128 0
 1140 05e0 40       		.byte	0x40
ARM GAS  /var/folders/m4/4md61f0s1_g0rzfghffqnxvr0000gn/T//ccxl4cSv.s 			page 21


 1141 05e1 49       		.byte	0x49
 1142 05e2 24       		.byte	0x24
 1143 05e3 2E       		.byte	0x2e
 1144 05e4 28       		.byte	0x28
 1145 05e5 0100     		.2byte	0x1
 1146 05e7 16       		.byte	0x16
 1147 05e8 13       		.byte	0x13
 1148 05e9 75       		.byte	0x75
 1149 05ea 00       		.sleb128 0
 1150 05eb 40       		.byte	0x40
 1151 05ec 49       		.byte	0x49
 1152 05ed 24       		.byte	0x24
 1153 05ee 2E       		.byte	0x2e
 1154 05ef 28       		.byte	0x28
 1155 05f0 0100     		.2byte	0x1
 1156 05f2 16       		.byte	0x16
 1157 05f3 13       		.byte	0x13
 1158 05f4 75       		.byte	0x75
 1159 05f5 00       		.sleb128 0
 1160 05f6 40       		.byte	0x40
 1161 05f7 49       		.byte	0x49
 1162 05f8 24       		.byte	0x24
 1163 05f9 29       		.byte	0x29
 1164 05fa 28       		.byte	0x28
 1165 05fb 0100     		.2byte	0x1
 1166 05fd 16       		.byte	0x16
 1167 05fe 13       		.byte	0x13
 1168 05ff 00       		.byte	0
 1169 0600 1E       		.uleb128 0x1e
 1170 0601 2A000000 		.4byte	.LVL24
 1171 0605 C9070000 		.4byte	0x7c9
 1172 0609 1D       		.uleb128 0x1d
 1173 060a 01       		.uleb128 0x1
 1174 060b 50       		.byte	0x50
 1175 060c 29       		.uleb128 0x29
 1176 060d 31       		.byte	0x31
 1177 060e 30       		.byte	0x30
 1178 060f 0C       		.byte	0xc
 1179 0610 FEFF0F00 		.4byte	0xffffe
 1180 0614 74       		.byte	0x74
 1181 0615 00       		.sleb128 0
 1182 0616 40       		.byte	0x40
 1183 0617 4B       		.byte	0x4b
 1184 0618 24       		.byte	0x24
 1185 0619 22       		.byte	0x22
 1186 061a 0C       		.byte	0xc
 1187 061b FEFF0F80 		.4byte	0x800ffffe
 1188 061f 2B       		.byte	0x2b
 1189 0620 28       		.byte	0x28
 1190 0621 0100     		.2byte	0x1
 1191 0623 16       		.byte	0x16
 1192 0624 13       		.byte	0x13
 1193 0625 74       		.byte	0x74
 1194 0626 00       		.sleb128 0
 1195 0627 40       		.byte	0x40
 1196 0628 4B       		.byte	0x4b
 1197 0629 24       		.byte	0x24
ARM GAS  /var/folders/m4/4md61f0s1_g0rzfghffqnxvr0000gn/T//ccxl4cSv.s 			page 22


 1198 062a 22       		.byte	0x22
 1199 062b 0C       		.byte	0xc
 1200 062c FEFF0F80 		.4byte	0x800ffffe
 1201 0630 2C       		.byte	0x2c
 1202 0631 28       		.byte	0x28
 1203 0632 0100     		.2byte	0x1
 1204 0634 16       		.byte	0x16
 1205 0635 13       		.byte	0x13
 1206 0636 00       		.byte	0
 1207 0637 00       		.byte	0
 1208 0638 15       		.uleb128 0x15
 1209 0639 13030000 		.4byte	.LASF67
 1210 063d 01       		.byte	0x1
 1211 063e C7       		.byte	0xc7
 1212 063f 00000000 		.4byte	.LFB126
 1213 0643 44000000 		.4byte	.LFE126-.LFB126
 1214 0647 01       		.uleb128 0x1
 1215 0648 9C       		.byte	0x9c
 1216 0649 46070000 		.4byte	0x746
 1217 064d 16       		.uleb128 0x16
 1218 064e 4A040000 		.4byte	.LASF68
 1219 0652 01       		.byte	0x1
 1220 0653 C7       		.byte	0xc7
 1221 0654 8C000000 		.4byte	0x8c
 1222 0658 75010000 		.4byte	.LLST7
 1223 065c 16       		.uleb128 0x16
 1224 065d 06010000 		.4byte	.LASF69
 1225 0661 01       		.byte	0x1
 1226 0662 C7       		.byte	0xc7
 1227 0663 E2030000 		.4byte	0x3e2
 1228 0667 96010000 		.4byte	.LLST8
 1229 066b 17       		.uleb128 0x17
 1230 066c 26040000 		.4byte	.LASF63
 1231 0670 01       		.byte	0x1
 1232 0671 79       		.byte	0x79
 1233 0672 7E000000 		.4byte	0x7e
 1234 0676 7C060000 		.4byte	0x67c
 1235 067a 18       		.uleb128 0x18
 1236 067b 00       		.byte	0
 1237 067c 1C       		.uleb128 0x1c
 1238 067d 1A000000 		.4byte	.LVL28
 1239 0681 C9070000 		.4byte	0x7c9
 1240 0685 3C070000 		.4byte	0x73c
 1241 0689 1D       		.uleb128 0x1d
 1242 068a 01       		.uleb128 0x1
 1243 068b 50       		.byte	0x50
 1244 068c AD01     		.uleb128 0xad
 1245 068e 30       		.byte	0x30
 1246 068f 0C       		.byte	0xc
 1247 0690 14000100 		.4byte	0x10014
 1248 0694 74       		.byte	0x74
 1249 0695 00       		.sleb128 0
 1250 0696 74       		.byte	0x74
 1251 0697 00       		.sleb128 0
 1252 0698 40       		.byte	0x40
 1253 0699 4B       		.byte	0x4b
 1254 069a 24       		.byte	0x24
ARM GAS  /var/folders/m4/4md61f0s1_g0rzfghffqnxvr0000gn/T//ccxl4cSv.s 			page 23


 1255 069b 22       		.byte	0x22
 1256 069c 0C       		.byte	0xc
 1257 069d 10000080 		.4byte	0x80000010
 1258 06a1 2C       		.byte	0x2c
 1259 06a2 28       		.byte	0x28
 1260 06a3 0100     		.2byte	0x1
 1261 06a5 16       		.byte	0x16
 1262 06a6 13       		.byte	0x13
 1263 06a7 74       		.byte	0x74
 1264 06a8 00       		.sleb128 0
 1265 06a9 25       		.byte	0x25
 1266 06aa 0C       		.byte	0xc
 1267 06ab 14000100 		.4byte	0x10014
 1268 06af 74       		.byte	0x74
 1269 06b0 00       		.sleb128 0
 1270 06b1 74       		.byte	0x74
 1271 06b2 00       		.sleb128 0
 1272 06b3 40       		.byte	0x40
 1273 06b4 4B       		.byte	0x4b
 1274 06b5 24       		.byte	0x24
 1275 06b6 22       		.byte	0x22
 1276 06b7 0C       		.byte	0xc
 1277 06b8 10000080 		.4byte	0x80000010
 1278 06bc 2C       		.byte	0x2c
 1279 06bd 28       		.byte	0x28
 1280 06be 0100     		.2byte	0x1
 1281 06c0 16       		.byte	0x16
 1282 06c1 13       		.byte	0x13
 1283 06c2 74       		.byte	0x74
 1284 06c3 00       		.sleb128 0
 1285 06c4 40       		.byte	0x40
 1286 06c5 4B       		.byte	0x4b
 1287 06c6 24       		.byte	0x24
 1288 06c7 22       		.byte	0x22
 1289 06c8 0C       		.byte	0xc
 1290 06c9 10000080 		.4byte	0x80000010
 1291 06cd 2C       		.byte	0x2c
 1292 06ce 28       		.byte	0x28
 1293 06cf 0100     		.2byte	0x1
 1294 06d1 16       		.byte	0x16
 1295 06d2 13       		.byte	0x13
 1296 06d3 31       		.byte	0x31
 1297 06d4 1A       		.byte	0x1a
 1298 06d5 0C       		.byte	0xc
 1299 06d6 14000100 		.4byte	0x10014
 1300 06da 74       		.byte	0x74
 1301 06db 00       		.sleb128 0
 1302 06dc 74       		.byte	0x74
 1303 06dd 00       		.sleb128 0
 1304 06de 40       		.byte	0x40
 1305 06df 4B       		.byte	0x4b
 1306 06e0 24       		.byte	0x24
 1307 06e1 22       		.byte	0x22
 1308 06e2 0C       		.byte	0xc
 1309 06e3 10000080 		.4byte	0x80000010
 1310 06e7 2C       		.byte	0x2c
 1311 06e8 28       		.byte	0x28
ARM GAS  /var/folders/m4/4md61f0s1_g0rzfghffqnxvr0000gn/T//ccxl4cSv.s 			page 24


 1312 06e9 0100     		.2byte	0x1
 1313 06eb 16       		.byte	0x16
 1314 06ec 13       		.byte	0x13
 1315 06ed 74       		.byte	0x74
 1316 06ee 00       		.sleb128 0
 1317 06ef 25       		.byte	0x25
 1318 06f0 0C       		.byte	0xc
 1319 06f1 14000100 		.4byte	0x10014
 1320 06f5 74       		.byte	0x74
 1321 06f6 00       		.sleb128 0
 1322 06f7 74       		.byte	0x74
 1323 06f8 00       		.sleb128 0
 1324 06f9 40       		.byte	0x40
 1325 06fa 4B       		.byte	0x4b
 1326 06fb 24       		.byte	0x24
 1327 06fc 22       		.byte	0x22
 1328 06fd 0C       		.byte	0xc
 1329 06fe 10000080 		.4byte	0x80000010
 1330 0702 2C       		.byte	0x2c
 1331 0703 28       		.byte	0x28
 1332 0704 0100     		.2byte	0x1
 1333 0706 16       		.byte	0x16
 1334 0707 13       		.byte	0x13
 1335 0708 74       		.byte	0x74
 1336 0709 00       		.sleb128 0
 1337 070a 40       		.byte	0x40
 1338 070b 4B       		.byte	0x4b
 1339 070c 24       		.byte	0x24
 1340 070d 22       		.byte	0x22
 1341 070e 0C       		.byte	0xc
 1342 070f 10000080 		.4byte	0x80000010
 1343 0713 2C       		.byte	0x2c
 1344 0714 28       		.byte	0x28
 1345 0715 0100     		.2byte	0x1
 1346 0717 16       		.byte	0x16
 1347 0718 13       		.byte	0x13
 1348 0719 74       		.byte	0x74
 1349 071a 00       		.sleb128 0
 1350 071b 40       		.byte	0x40
 1351 071c 4B       		.byte	0x4b
 1352 071d 24       		.byte	0x24
 1353 071e 22       		.byte	0x22
 1354 071f 0C       		.byte	0xc
 1355 0720 10000080 		.4byte	0x80000010
 1356 0724 2C       		.byte	0x2c
 1357 0725 28       		.byte	0x28
 1358 0726 0100     		.2byte	0x1
 1359 0728 16       		.byte	0x16
 1360 0729 13       		.byte	0x13
 1361 072a 74       		.byte	0x74
 1362 072b 00       		.sleb128 0
 1363 072c 40       		.byte	0x40
 1364 072d 4B       		.byte	0x4b
 1365 072e 24       		.byte	0x24
 1366 072f 22       		.byte	0x22
 1367 0730 0C       		.byte	0xc
 1368 0731 10000080 		.4byte	0x80000010
ARM GAS  /var/folders/m4/4md61f0s1_g0rzfghffqnxvr0000gn/T//ccxl4cSv.s 			page 25


 1369 0735 2B       		.byte	0x2b
 1370 0736 28       		.byte	0x28
 1371 0737 0100     		.2byte	0x1
 1372 0739 16       		.byte	0x16
 1373 073a 13       		.byte	0x13
 1374 073b 00       		.byte	0
 1375 073c 19       		.uleb128 0x19
 1376 073d 26000000 		.4byte	.LVL29
 1377 0741 C9070000 		.4byte	0x7c9
 1378 0745 00       		.byte	0
 1379 0746 15       		.uleb128 0x15
 1380 0747 4B000000 		.4byte	.LASF70
 1381 074b 01       		.byte	0x1
 1382 074c DF       		.byte	0xdf
 1383 074d 00000000 		.4byte	.LFB127
 1384 0751 34000000 		.4byte	.LFE127-.LFB127
 1385 0755 01       		.uleb128 0x1
 1386 0756 9C       		.byte	0x9c
 1387 0757 B8070000 		.4byte	0x7b8
 1388 075b 16       		.uleb128 0x16
 1389 075c 29000000 		.4byte	.LASF71
 1390 0760 01       		.byte	0x1
 1391 0761 DF       		.byte	0xdf
 1392 0762 A2000000 		.4byte	0xa2
 1393 0766 B7010000 		.4byte	.LLST9
 1394 076a 17       		.uleb128 0x17
 1395 076b 26040000 		.4byte	.LASF63
 1396 076f 01       		.byte	0x1
 1397 0770 79       		.byte	0x79
 1398 0771 7E000000 		.4byte	0x7e
 1399 0775 7B070000 		.4byte	0x77b
 1400 0779 18       		.uleb128 0x18
 1401 077a 00       		.byte	0
 1402 077b 1C       		.uleb128 0x1c
 1403 077c 12000000 		.4byte	.LVL32
 1404 0780 C9070000 		.4byte	0x7c9
 1405 0784 A8070000 		.4byte	0x7a8
 1406 0788 1D       		.uleb128 0x1d
 1407 0789 01       		.uleb128 0x1
 1408 078a 50       		.byte	0x50
 1409 078b 1B       		.uleb128 0x1b
 1410 078c 31       		.byte	0x31
 1411 078d 30       		.byte	0x30
 1412 078e F3       		.byte	0xf3
 1413 078f 01       		.uleb128 0x1
 1414 0790 50       		.byte	0x50
 1415 0791 F3       		.byte	0xf3
 1416 0792 01       		.uleb128 0x1
 1417 0793 50       		.byte	0x50
 1418 0794 09       		.byte	0x9
 1419 0795 FB       		.byte	0xfb
 1420 0796 2E       		.byte	0x2e
 1421 0797 28       		.byte	0x28
 1422 0798 0100     		.2byte	0x1
 1423 079a 16       		.byte	0x16
 1424 079b 13       		.byte	0x13
 1425 079c F3       		.byte	0xf3
ARM GAS  /var/folders/m4/4md61f0s1_g0rzfghffqnxvr0000gn/T//ccxl4cSv.s 			page 26


 1426 079d 01       		.uleb128 0x1
 1427 079e 50       		.byte	0x50
 1428 079f 09       		.byte	0x9
 1429 07a0 FB       		.byte	0xfb
 1430 07a1 29       		.byte	0x29
 1431 07a2 28       		.byte	0x28
 1432 07a3 0100     		.2byte	0x1
 1433 07a5 16       		.byte	0x16
 1434 07a6 13       		.byte	0x13
 1435 07a7 00       		.byte	0
 1436 07a8 1E       		.uleb128 0x1e
 1437 07a9 24000000 		.4byte	.LVL35
 1438 07ad C9070000 		.4byte	0x7c9
 1439 07b1 1D       		.uleb128 0x1d
 1440 07b2 01       		.uleb128 0x1
 1441 07b3 50       		.byte	0x50
 1442 07b4 01       		.uleb128 0x1
 1443 07b5 31       		.byte	0x31
 1444 07b6 00       		.byte	0
 1445 07b7 00       		.byte	0
 1446 07b8 1F       		.uleb128 0x1f
 1447 07b9 57040000 		.4byte	.LASF75
 1448 07bd 04       		.byte	0x4
 1449 07be FA06     		.2byte	0x6fa
 1450 07c0 C4070000 		.4byte	0x7c4
 1451 07c4 0B       		.uleb128 0xb
 1452 07c5 97000000 		.4byte	0x97
 1453 07c9 20       		.uleb128 0x20
 1454 07ca 26040000 		.4byte	.LASF63
 1455 07ce 26040000 		.4byte	.LASF63
 1456 07d2 01       		.byte	0x1
 1457 07d3 79       		.byte	0x79
 1458 07d4 00       		.byte	0
 1459              		.section	.debug_abbrev,"",%progbits
 1460              	.Ldebug_abbrev0:
 1461 0000 01       		.uleb128 0x1
 1462 0001 11       		.uleb128 0x11
 1463 0002 01       		.byte	0x1
 1464 0003 25       		.uleb128 0x25
 1465 0004 0E       		.uleb128 0xe
 1466 0005 13       		.uleb128 0x13
 1467 0006 0B       		.uleb128 0xb
 1468 0007 03       		.uleb128 0x3
 1469 0008 0E       		.uleb128 0xe
 1470 0009 1B       		.uleb128 0x1b
 1471 000a 0E       		.uleb128 0xe
 1472 000b 55       		.uleb128 0x55
 1473 000c 17       		.uleb128 0x17
 1474 000d 11       		.uleb128 0x11
 1475 000e 01       		.uleb128 0x1
 1476 000f 10       		.uleb128 0x10
 1477 0010 17       		.uleb128 0x17
 1478 0011 00       		.byte	0
 1479 0012 00       		.byte	0
 1480 0013 02       		.uleb128 0x2
 1481 0014 24       		.uleb128 0x24
 1482 0015 00       		.byte	0
ARM GAS  /var/folders/m4/4md61f0s1_g0rzfghffqnxvr0000gn/T//ccxl4cSv.s 			page 27


 1483 0016 0B       		.uleb128 0xb
 1484 0017 0B       		.uleb128 0xb
 1485 0018 3E       		.uleb128 0x3e
 1486 0019 0B       		.uleb128 0xb
 1487 001a 03       		.uleb128 0x3
 1488 001b 0E       		.uleb128 0xe
 1489 001c 00       		.byte	0
 1490 001d 00       		.byte	0
 1491 001e 03       		.uleb128 0x3
 1492 001f 16       		.uleb128 0x16
 1493 0020 00       		.byte	0
 1494 0021 03       		.uleb128 0x3
 1495 0022 0E       		.uleb128 0xe
 1496 0023 3A       		.uleb128 0x3a
 1497 0024 0B       		.uleb128 0xb
 1498 0025 3B       		.uleb128 0x3b
 1499 0026 0B       		.uleb128 0xb
 1500 0027 49       		.uleb128 0x49
 1501 0028 13       		.uleb128 0x13
 1502 0029 00       		.byte	0
 1503 002a 00       		.byte	0
 1504 002b 04       		.uleb128 0x4
 1505 002c 24       		.uleb128 0x24
 1506 002d 00       		.byte	0
 1507 002e 0B       		.uleb128 0xb
 1508 002f 0B       		.uleb128 0xb
 1509 0030 3E       		.uleb128 0x3e
 1510 0031 0B       		.uleb128 0xb
 1511 0032 03       		.uleb128 0x3
 1512 0033 08       		.uleb128 0x8
 1513 0034 00       		.byte	0
 1514 0035 00       		.byte	0
 1515 0036 05       		.uleb128 0x5
 1516 0037 13       		.uleb128 0x13
 1517 0038 01       		.byte	0x1
 1518 0039 0B       		.uleb128 0xb
 1519 003a 05       		.uleb128 0x5
 1520 003b 3A       		.uleb128 0x3a
 1521 003c 0B       		.uleb128 0xb
 1522 003d 3B       		.uleb128 0x3b
 1523 003e 05       		.uleb128 0x5
 1524 003f 01       		.uleb128 0x1
 1525 0040 13       		.uleb128 0x13
 1526 0041 00       		.byte	0
 1527 0042 00       		.byte	0
 1528 0043 06       		.uleb128 0x6
 1529 0044 0D       		.uleb128 0xd
 1530 0045 00       		.byte	0
 1531 0046 03       		.uleb128 0x3
 1532 0047 0E       		.uleb128 0xe
 1533 0048 3A       		.uleb128 0x3a
 1534 0049 0B       		.uleb128 0xb
 1535 004a 3B       		.uleb128 0x3b
 1536 004b 05       		.uleb128 0x5
 1537 004c 49       		.uleb128 0x49
 1538 004d 13       		.uleb128 0x13
 1539 004e 38       		.uleb128 0x38
ARM GAS  /var/folders/m4/4md61f0s1_g0rzfghffqnxvr0000gn/T//ccxl4cSv.s 			page 28


 1540 004f 0B       		.uleb128 0xb
 1541 0050 00       		.byte	0
 1542 0051 00       		.byte	0
 1543 0052 07       		.uleb128 0x7
 1544 0053 0D       		.uleb128 0xd
 1545 0054 00       		.byte	0
 1546 0055 03       		.uleb128 0x3
 1547 0056 0E       		.uleb128 0xe
 1548 0057 3A       		.uleb128 0x3a
 1549 0058 0B       		.uleb128 0xb
 1550 0059 3B       		.uleb128 0x3b
 1551 005a 05       		.uleb128 0x5
 1552 005b 49       		.uleb128 0x49
 1553 005c 13       		.uleb128 0x13
 1554 005d 38       		.uleb128 0x38
 1555 005e 05       		.uleb128 0x5
 1556 005f 00       		.byte	0
 1557 0060 00       		.byte	0
 1558 0061 08       		.uleb128 0x8
 1559 0062 0D       		.uleb128 0xd
 1560 0063 00       		.byte	0
 1561 0064 03       		.uleb128 0x3
 1562 0065 08       		.uleb128 0x8
 1563 0066 3A       		.uleb128 0x3a
 1564 0067 0B       		.uleb128 0xb
 1565 0068 3B       		.uleb128 0x3b
 1566 0069 05       		.uleb128 0x5
 1567 006a 49       		.uleb128 0x49
 1568 006b 13       		.uleb128 0x13
 1569 006c 38       		.uleb128 0x38
 1570 006d 05       		.uleb128 0x5
 1571 006e 00       		.byte	0
 1572 006f 00       		.byte	0
 1573 0070 09       		.uleb128 0x9
 1574 0071 01       		.uleb128 0x1
 1575 0072 01       		.byte	0x1
 1576 0073 49       		.uleb128 0x49
 1577 0074 13       		.uleb128 0x13
 1578 0075 01       		.uleb128 0x1
 1579 0076 13       		.uleb128 0x13
 1580 0077 00       		.byte	0
 1581 0078 00       		.byte	0
 1582 0079 0A       		.uleb128 0xa
 1583 007a 21       		.uleb128 0x21
 1584 007b 00       		.byte	0
 1585 007c 49       		.uleb128 0x49
 1586 007d 13       		.uleb128 0x13
 1587 007e 2F       		.uleb128 0x2f
 1588 007f 0B       		.uleb128 0xb
 1589 0080 00       		.byte	0
 1590 0081 00       		.byte	0
 1591 0082 0B       		.uleb128 0xb
 1592 0083 35       		.uleb128 0x35
 1593 0084 00       		.byte	0
 1594 0085 49       		.uleb128 0x49
 1595 0086 13       		.uleb128 0x13
 1596 0087 00       		.byte	0
ARM GAS  /var/folders/m4/4md61f0s1_g0rzfghffqnxvr0000gn/T//ccxl4cSv.s 			page 29


 1597 0088 00       		.byte	0
 1598 0089 0C       		.uleb128 0xc
 1599 008a 21       		.uleb128 0x21
 1600 008b 00       		.byte	0
 1601 008c 49       		.uleb128 0x49
 1602 008d 13       		.uleb128 0x13
 1603 008e 2F       		.uleb128 0x2f
 1604 008f 05       		.uleb128 0x5
 1605 0090 00       		.byte	0
 1606 0091 00       		.byte	0
 1607 0092 0D       		.uleb128 0xd
 1608 0093 16       		.uleb128 0x16
 1609 0094 00       		.byte	0
 1610 0095 03       		.uleb128 0x3
 1611 0096 0E       		.uleb128 0xe
 1612 0097 3A       		.uleb128 0x3a
 1613 0098 0B       		.uleb128 0xb
 1614 0099 3B       		.uleb128 0x3b
 1615 009a 05       		.uleb128 0x5
 1616 009b 49       		.uleb128 0x49
 1617 009c 13       		.uleb128 0x13
 1618 009d 00       		.byte	0
 1619 009e 00       		.byte	0
 1620 009f 0E       		.uleb128 0xe
 1621 00a0 13       		.uleb128 0x13
 1622 00a1 01       		.byte	0x1
 1623 00a2 0B       		.uleb128 0xb
 1624 00a3 0B       		.uleb128 0xb
 1625 00a4 3A       		.uleb128 0x3a
 1626 00a5 0B       		.uleb128 0xb
 1627 00a6 3B       		.uleb128 0x3b
 1628 00a7 05       		.uleb128 0x5
 1629 00a8 01       		.uleb128 0x1
 1630 00a9 13       		.uleb128 0x13
 1631 00aa 00       		.byte	0
 1632 00ab 00       		.byte	0
 1633 00ac 0F       		.uleb128 0xf
 1634 00ad 0D       		.uleb128 0xd
 1635 00ae 00       		.byte	0
 1636 00af 03       		.uleb128 0x3
 1637 00b0 08       		.uleb128 0x8
 1638 00b1 3A       		.uleb128 0x3a
 1639 00b2 0B       		.uleb128 0xb
 1640 00b3 3B       		.uleb128 0x3b
 1641 00b4 05       		.uleb128 0x5
 1642 00b5 49       		.uleb128 0x49
 1643 00b6 13       		.uleb128 0x13
 1644 00b7 38       		.uleb128 0x38
 1645 00b8 0B       		.uleb128 0xb
 1646 00b9 00       		.byte	0
 1647 00ba 00       		.byte	0
 1648 00bb 10       		.uleb128 0x10
 1649 00bc 26       		.uleb128 0x26
 1650 00bd 00       		.byte	0
 1651 00be 49       		.uleb128 0x49
 1652 00bf 13       		.uleb128 0x13
 1653 00c0 00       		.byte	0
ARM GAS  /var/folders/m4/4md61f0s1_g0rzfghffqnxvr0000gn/T//ccxl4cSv.s 			page 30


 1654 00c1 00       		.byte	0
 1655 00c2 11       		.uleb128 0x11
 1656 00c3 04       		.uleb128 0x4
 1657 00c4 01       		.byte	0x1
 1658 00c5 0B       		.uleb128 0xb
 1659 00c6 0B       		.uleb128 0xb
 1660 00c7 49       		.uleb128 0x49
 1661 00c8 13       		.uleb128 0x13
 1662 00c9 3A       		.uleb128 0x3a
 1663 00ca 0B       		.uleb128 0xb
 1664 00cb 3B       		.uleb128 0x3b
 1665 00cc 0B       		.uleb128 0xb
 1666 00cd 01       		.uleb128 0x1
 1667 00ce 13       		.uleb128 0x13
 1668 00cf 00       		.byte	0
 1669 00d0 00       		.byte	0
 1670 00d1 12       		.uleb128 0x12
 1671 00d2 28       		.uleb128 0x28
 1672 00d3 00       		.byte	0
 1673 00d4 03       		.uleb128 0x3
 1674 00d5 0E       		.uleb128 0xe
 1675 00d6 1C       		.uleb128 0x1c
 1676 00d7 0B       		.uleb128 0xb
 1677 00d8 00       		.byte	0
 1678 00d9 00       		.byte	0
 1679 00da 13       		.uleb128 0x13
 1680 00db 13       		.uleb128 0x13
 1681 00dc 01       		.byte	0x1
 1682 00dd 0B       		.uleb128 0xb
 1683 00de 0B       		.uleb128 0xb
 1684 00df 3A       		.uleb128 0x3a
 1685 00e0 0B       		.uleb128 0xb
 1686 00e1 3B       		.uleb128 0x3b
 1687 00e2 0B       		.uleb128 0xb
 1688 00e3 01       		.uleb128 0x1
 1689 00e4 13       		.uleb128 0x13
 1690 00e5 00       		.byte	0
 1691 00e6 00       		.byte	0
 1692 00e7 14       		.uleb128 0x14
 1693 00e8 0D       		.uleb128 0xd
 1694 00e9 00       		.byte	0
 1695 00ea 03       		.uleb128 0x3
 1696 00eb 0E       		.uleb128 0xe
 1697 00ec 3A       		.uleb128 0x3a
 1698 00ed 0B       		.uleb128 0xb
 1699 00ee 3B       		.uleb128 0x3b
 1700 00ef 0B       		.uleb128 0xb
 1701 00f0 49       		.uleb128 0x49
 1702 00f1 13       		.uleb128 0x13
 1703 00f2 38       		.uleb128 0x38
 1704 00f3 0B       		.uleb128 0xb
 1705 00f4 00       		.byte	0
 1706 00f5 00       		.byte	0
 1707 00f6 15       		.uleb128 0x15
 1708 00f7 2E       		.uleb128 0x2e
 1709 00f8 01       		.byte	0x1
 1710 00f9 3F       		.uleb128 0x3f
ARM GAS  /var/folders/m4/4md61f0s1_g0rzfghffqnxvr0000gn/T//ccxl4cSv.s 			page 31


 1711 00fa 19       		.uleb128 0x19
 1712 00fb 03       		.uleb128 0x3
 1713 00fc 0E       		.uleb128 0xe
 1714 00fd 3A       		.uleb128 0x3a
 1715 00fe 0B       		.uleb128 0xb
 1716 00ff 3B       		.uleb128 0x3b
 1717 0100 0B       		.uleb128 0xb
 1718 0101 27       		.uleb128 0x27
 1719 0102 19       		.uleb128 0x19
 1720 0103 11       		.uleb128 0x11
 1721 0104 01       		.uleb128 0x1
 1722 0105 12       		.uleb128 0x12
 1723 0106 06       		.uleb128 0x6
 1724 0107 40       		.uleb128 0x40
 1725 0108 18       		.uleb128 0x18
 1726 0109 9742     		.uleb128 0x2117
 1727 010b 19       		.uleb128 0x19
 1728 010c 01       		.uleb128 0x1
 1729 010d 13       		.uleb128 0x13
 1730 010e 00       		.byte	0
 1731 010f 00       		.byte	0
 1732 0110 16       		.uleb128 0x16
 1733 0111 05       		.uleb128 0x5
 1734 0112 00       		.byte	0
 1735 0113 03       		.uleb128 0x3
 1736 0114 0E       		.uleb128 0xe
 1737 0115 3A       		.uleb128 0x3a
 1738 0116 0B       		.uleb128 0xb
 1739 0117 3B       		.uleb128 0x3b
 1740 0118 0B       		.uleb128 0xb
 1741 0119 49       		.uleb128 0x49
 1742 011a 13       		.uleb128 0x13
 1743 011b 02       		.uleb128 0x2
 1744 011c 17       		.uleb128 0x17
 1745 011d 00       		.byte	0
 1746 011e 00       		.byte	0
 1747 011f 17       		.uleb128 0x17
 1748 0120 2E       		.uleb128 0x2e
 1749 0121 01       		.byte	0x1
 1750 0122 3F       		.uleb128 0x3f
 1751 0123 19       		.uleb128 0x19
 1752 0124 03       		.uleb128 0x3
 1753 0125 0E       		.uleb128 0xe
 1754 0126 3A       		.uleb128 0x3a
 1755 0127 0B       		.uleb128 0xb
 1756 0128 3B       		.uleb128 0x3b
 1757 0129 0B       		.uleb128 0xb
 1758 012a 49       		.uleb128 0x49
 1759 012b 13       		.uleb128 0x13
 1760 012c 3C       		.uleb128 0x3c
 1761 012d 19       		.uleb128 0x19
 1762 012e 01       		.uleb128 0x1
 1763 012f 13       		.uleb128 0x13
 1764 0130 00       		.byte	0
 1765 0131 00       		.byte	0
 1766 0132 18       		.uleb128 0x18
 1767 0133 18       		.uleb128 0x18
ARM GAS  /var/folders/m4/4md61f0s1_g0rzfghffqnxvr0000gn/T//ccxl4cSv.s 			page 32


 1768 0134 00       		.byte	0
 1769 0135 00       		.byte	0
 1770 0136 00       		.byte	0
 1771 0137 19       		.uleb128 0x19
 1772 0138 898201   		.uleb128 0x4109
 1773 013b 00       		.byte	0
 1774 013c 11       		.uleb128 0x11
 1775 013d 01       		.uleb128 0x1
 1776 013e 31       		.uleb128 0x31
 1777 013f 13       		.uleb128 0x13
 1778 0140 00       		.byte	0
 1779 0141 00       		.byte	0
 1780 0142 1A       		.uleb128 0x1a
 1781 0143 34       		.uleb128 0x34
 1782 0144 00       		.byte	0
 1783 0145 03       		.uleb128 0x3
 1784 0146 0E       		.uleb128 0xe
 1785 0147 3A       		.uleb128 0x3a
 1786 0148 0B       		.uleb128 0xb
 1787 0149 3B       		.uleb128 0x3b
 1788 014a 0B       		.uleb128 0xb
 1789 014b 49       		.uleb128 0x49
 1790 014c 13       		.uleb128 0x13
 1791 014d 02       		.uleb128 0x2
 1792 014e 17       		.uleb128 0x17
 1793 014f 00       		.byte	0
 1794 0150 00       		.byte	0
 1795 0151 1B       		.uleb128 0x1b
 1796 0152 0F       		.uleb128 0xf
 1797 0153 00       		.byte	0
 1798 0154 0B       		.uleb128 0xb
 1799 0155 0B       		.uleb128 0xb
 1800 0156 49       		.uleb128 0x49
 1801 0157 13       		.uleb128 0x13
 1802 0158 00       		.byte	0
 1803 0159 00       		.byte	0
 1804 015a 1C       		.uleb128 0x1c
 1805 015b 898201   		.uleb128 0x4109
 1806 015e 01       		.byte	0x1
 1807 015f 11       		.uleb128 0x11
 1808 0160 01       		.uleb128 0x1
 1809 0161 31       		.uleb128 0x31
 1810 0162 13       		.uleb128 0x13
 1811 0163 01       		.uleb128 0x1
 1812 0164 13       		.uleb128 0x13
 1813 0165 00       		.byte	0
 1814 0166 00       		.byte	0
 1815 0167 1D       		.uleb128 0x1d
 1816 0168 8A8201   		.uleb128 0x410a
 1817 016b 00       		.byte	0
 1818 016c 02       		.uleb128 0x2
 1819 016d 18       		.uleb128 0x18
 1820 016e 9142     		.uleb128 0x2111
 1821 0170 18       		.uleb128 0x18
 1822 0171 00       		.byte	0
 1823 0172 00       		.byte	0
 1824 0173 1E       		.uleb128 0x1e
ARM GAS  /var/folders/m4/4md61f0s1_g0rzfghffqnxvr0000gn/T//ccxl4cSv.s 			page 33


 1825 0174 898201   		.uleb128 0x4109
 1826 0177 01       		.byte	0x1
 1827 0178 11       		.uleb128 0x11
 1828 0179 01       		.uleb128 0x1
 1829 017a 31       		.uleb128 0x31
 1830 017b 13       		.uleb128 0x13
 1831 017c 00       		.byte	0
 1832 017d 00       		.byte	0
 1833 017e 1F       		.uleb128 0x1f
 1834 017f 34       		.uleb128 0x34
 1835 0180 00       		.byte	0
 1836 0181 03       		.uleb128 0x3
 1837 0182 0E       		.uleb128 0xe
 1838 0183 3A       		.uleb128 0x3a
 1839 0184 0B       		.uleb128 0xb
 1840 0185 3B       		.uleb128 0x3b
 1841 0186 05       		.uleb128 0x5
 1842 0187 49       		.uleb128 0x49
 1843 0188 13       		.uleb128 0x13
 1844 0189 3F       		.uleb128 0x3f
 1845 018a 19       		.uleb128 0x19
 1846 018b 3C       		.uleb128 0x3c
 1847 018c 19       		.uleb128 0x19
 1848 018d 00       		.byte	0
 1849 018e 00       		.byte	0
 1850 018f 20       		.uleb128 0x20
 1851 0190 2E       		.uleb128 0x2e
 1852 0191 00       		.byte	0
 1853 0192 3F       		.uleb128 0x3f
 1854 0193 19       		.uleb128 0x19
 1855 0194 3C       		.uleb128 0x3c
 1856 0195 19       		.uleb128 0x19
 1857 0196 6E       		.uleb128 0x6e
 1858 0197 0E       		.uleb128 0xe
 1859 0198 03       		.uleb128 0x3
 1860 0199 0E       		.uleb128 0xe
 1861 019a 3A       		.uleb128 0x3a
 1862 019b 0B       		.uleb128 0xb
 1863 019c 3B       		.uleb128 0x3b
 1864 019d 0B       		.uleb128 0xb
 1865 019e 00       		.byte	0
 1866 019f 00       		.byte	0
 1867 01a0 00       		.byte	0
 1868              		.section	.debug_loc,"",%progbits
 1869              	.Ldebug_loc0:
 1870              	.LLST0:
 1871 0000 00000000 		.4byte	.LVL0
 1872 0004 18000000 		.4byte	.LVL1
 1873 0008 0100     		.2byte	0x1
 1874 000a 50       		.byte	0x50
 1875 000b 18000000 		.4byte	.LVL1
 1876 000f 34000000 		.4byte	.LVL3
 1877 0013 0100     		.2byte	0x1
 1878 0015 54       		.byte	0x54
 1879 0016 34000000 		.4byte	.LVL3
 1880 001a 36000000 		.4byte	.LVL4
 1881 001e 0100     		.2byte	0x1
ARM GAS  /var/folders/m4/4md61f0s1_g0rzfghffqnxvr0000gn/T//ccxl4cSv.s 			page 34


 1882 0020 50       		.byte	0x50
 1883 0021 36000000 		.4byte	.LVL4
 1884 0025 3C000000 		.4byte	.LFE123
 1885 0029 0100     		.2byte	0x1
 1886 002b 54       		.byte	0x54
 1887 002c 00000000 		.4byte	0
 1888 0030 00000000 		.4byte	0
 1889              	.LLST1:
 1890 0034 00000000 		.4byte	.LVL5
 1891 0038 06000000 		.4byte	.LVL6
 1892 003c 0100     		.2byte	0x1
 1893 003e 50       		.byte	0x50
 1894 003f 06000000 		.4byte	.LVL6
 1895 0043 92000000 		.4byte	.LVL20
 1896 0047 0100     		.2byte	0x1
 1897 0049 54       		.byte	0x54
 1898 004a 92000000 		.4byte	.LVL20
 1899 004e 9C000000 		.4byte	.LFE124
 1900 0052 0400     		.2byte	0x4
 1901 0054 F3       		.byte	0xf3
 1902 0055 01       		.uleb128 0x1
 1903 0056 50       		.byte	0x50
 1904 0057 9F       		.byte	0x9f
 1905 0058 00000000 		.4byte	0
 1906 005c 00000000 		.4byte	0
 1907              	.LLST2:
 1908 0060 00000000 		.4byte	.LVL5
 1909 0064 5C000000 		.4byte	.LVL11
 1910 0068 0200     		.2byte	0x2
 1911 006a 30       		.byte	0x30
 1912 006b 9F       		.byte	0x9f
 1913 006c 5C000000 		.4byte	.LVL11
 1914 0070 6E000000 		.4byte	.LVL12
 1915 0074 0100     		.2byte	0x1
 1916 0076 51       		.byte	0x51
 1917 0077 6E000000 		.4byte	.LVL12
 1918 007b 70000000 		.4byte	.LVL13
 1919 007f 0100     		.2byte	0x1
 1920 0081 55       		.byte	0x55
 1921 0082 70000000 		.4byte	.LVL13
 1922 0086 7A000000 		.4byte	.LVL14
 1923 008a 0100     		.2byte	0x1
 1924 008c 53       		.byte	0x53
 1925 008d 7A000000 		.4byte	.LVL14
 1926 0091 7C000000 		.4byte	.LVL15
 1927 0095 1000     		.2byte	0x10
 1928 0097 3F       		.byte	0x3f
 1929 0098 71       		.byte	0x71
 1930 0099 00       		.sleb128 0
 1931 009a 26       		.byte	0x26
 1932 009b 74       		.byte	0x74
 1933 009c 02       		.sleb128 2
 1934 009d 94       		.byte	0x94
 1935 009e 01       		.byte	0x1
 1936 009f 08       		.byte	0x8
 1937 00a0 FF       		.byte	0xff
 1938 00a1 1A       		.byte	0x1a
ARM GAS  /var/folders/m4/4md61f0s1_g0rzfghffqnxvr0000gn/T//ccxl4cSv.s 			page 35


 1939 00a2 1A       		.byte	0x1a
 1940 00a3 75       		.byte	0x75
 1941 00a4 00       		.sleb128 0
 1942 00a5 21       		.byte	0x21
 1943 00a6 9F       		.byte	0x9f
 1944 00a7 7C000000 		.4byte	.LVL15
 1945 00ab 82000000 		.4byte	.LVL16
 1946 00af 0100     		.2byte	0x1
 1947 00b1 53       		.byte	0x53
 1948 00b2 82000000 		.4byte	.LVL16
 1949 00b6 84000000 		.4byte	.LVL17
 1950 00ba 0300     		.2byte	0x3
 1951 00bc 72       		.byte	0x72
 1952 00bd 8006     		.sleb128 768
 1953 00bf 84000000 		.4byte	.LVL17
 1954 00c3 90000000 		.4byte	.LVL19
 1955 00c7 0600     		.2byte	0x6
 1956 00c9 70       		.byte	0x70
 1957 00ca 80C88380 		.sleb128 -536812544
 1957      7E
 1958 00cf 00000000 		.4byte	0
 1959 00d3 00000000 		.4byte	0
 1960              	.LLST3:
 1961 00d7 00000000 		.4byte	.LVL5
 1962 00db 5C000000 		.4byte	.LVL11
 1963 00df 0200     		.2byte	0x2
 1964 00e1 30       		.byte	0x30
 1965 00e2 9F       		.byte	0x9f
 1966 00e3 5C000000 		.4byte	.LVL11
 1967 00e7 88000000 		.4byte	.LVL18
 1968 00eb 0500     		.2byte	0x5
 1969 00ed 34       		.byte	0x34
 1970 00ee 71       		.byte	0x71
 1971 00ef 00       		.sleb128 0
 1972 00f0 1C       		.byte	0x1c
 1973 00f1 9F       		.byte	0x9f
 1974 00f2 00000000 		.4byte	0
 1975 00f6 00000000 		.4byte	0
 1976              	.LLST4:
 1977 00fa 00000000 		.4byte	.LVL5
 1978 00fe 5C000000 		.4byte	.LVL11
 1979 0102 0200     		.2byte	0x2
 1980 0104 3F       		.byte	0x3f
 1981 0105 9F       		.byte	0x9f
 1982 0106 5C000000 		.4byte	.LVL11
 1983 010a 88000000 		.4byte	.LVL18
 1984 010e 0500     		.2byte	0x5
 1985 0110 3F       		.byte	0x3f
 1986 0111 71       		.byte	0x71
 1987 0112 00       		.sleb128 0
 1988 0113 26       		.byte	0x26
 1989 0114 9F       		.byte	0x9f
 1990 0115 00000000 		.4byte	0
 1991 0119 00000000 		.4byte	0
 1992              	.LLST5:
 1993 011d 00000000 		.4byte	.LVL21
 1994 0121 0E000000 		.4byte	.LVL22
ARM GAS  /var/folders/m4/4md61f0s1_g0rzfghffqnxvr0000gn/T//ccxl4cSv.s 			page 36


 1995 0125 0100     		.2byte	0x1
 1996 0127 50       		.byte	0x50
 1997 0128 0E000000 		.4byte	.LVL22
 1998 012c 3A000000 		.4byte	.LVL25
 1999 0130 0100     		.2byte	0x1
 2000 0132 55       		.byte	0x55
 2001 0133 3A000000 		.4byte	.LVL25
 2002 0137 44000000 		.4byte	.LFE125
 2003 013b 0400     		.2byte	0x4
 2004 013d F3       		.byte	0xf3
 2005 013e 01       		.uleb128 0x1
 2006 013f 50       		.byte	0x50
 2007 0140 9F       		.byte	0x9f
 2008 0141 00000000 		.4byte	0
 2009 0145 00000000 		.4byte	0
 2010              	.LLST6:
 2011 0149 00000000 		.4byte	.LVL21
 2012 014d 1B000000 		.4byte	.LVL23-1
 2013 0151 0100     		.2byte	0x1
 2014 0153 51       		.byte	0x51
 2015 0154 1B000000 		.4byte	.LVL23-1
 2016 0158 3A000000 		.4byte	.LVL25
 2017 015c 0100     		.2byte	0x1
 2018 015e 54       		.byte	0x54
 2019 015f 3A000000 		.4byte	.LVL25
 2020 0163 44000000 		.4byte	.LFE125
 2021 0167 0400     		.2byte	0x4
 2022 0169 F3       		.byte	0xf3
 2023 016a 01       		.uleb128 0x1
 2024 016b 51       		.byte	0x51
 2025 016c 9F       		.byte	0x9f
 2026 016d 00000000 		.4byte	0
 2027 0171 00000000 		.4byte	0
 2028              	.LLST7:
 2029 0175 00000000 		.4byte	.LVL26
 2030 0179 0A000000 		.4byte	.LVL27
 2031 017d 0100     		.2byte	0x1
 2032 017f 50       		.byte	0x50
 2033 0180 0A000000 		.4byte	.LVL27
 2034 0184 44000000 		.4byte	.LFE126
 2035 0188 0400     		.2byte	0x4
 2036 018a F3       		.byte	0xf3
 2037 018b 01       		.uleb128 0x1
 2038 018c 50       		.byte	0x50
 2039 018d 9F       		.byte	0x9f
 2040 018e 00000000 		.4byte	0
 2041 0192 00000000 		.4byte	0
 2042              	.LLST8:
 2043 0196 00000000 		.4byte	.LVL26
 2044 019a 19000000 		.4byte	.LVL28-1
 2045 019e 0100     		.2byte	0x1
 2046 01a0 51       		.byte	0x51
 2047 01a1 19000000 		.4byte	.LVL28-1
 2048 01a5 44000000 		.4byte	.LFE126
 2049 01a9 0400     		.2byte	0x4
 2050 01ab F3       		.byte	0xf3
 2051 01ac 01       		.uleb128 0x1
ARM GAS  /var/folders/m4/4md61f0s1_g0rzfghffqnxvr0000gn/T//ccxl4cSv.s 			page 37


 2052 01ad 51       		.byte	0x51
 2053 01ae 9F       		.byte	0x9f
 2054 01af 00000000 		.4byte	0
 2055 01b3 00000000 		.4byte	0
 2056              	.LLST9:
 2057 01b7 00000000 		.4byte	.LVL30
 2058 01bb 0C000000 		.4byte	.LVL31
 2059 01bf 0100     		.2byte	0x1
 2060 01c1 50       		.byte	0x50
 2061 01c2 0C000000 		.4byte	.LVL31
 2062 01c6 11000000 		.4byte	.LVL32-1
 2063 01ca 0300     		.2byte	0x3
 2064 01cc 73       		.byte	0x73
 2065 01cd 7B       		.sleb128 -5
 2066 01ce 9F       		.byte	0x9f
 2067 01cf 11000000 		.4byte	.LVL32-1
 2068 01d3 1E000000 		.4byte	.LVL33
 2069 01d7 0400     		.2byte	0x4
 2070 01d9 F3       		.byte	0xf3
 2071 01da 01       		.uleb128 0x1
 2072 01db 50       		.byte	0x50
 2073 01dc 9F       		.byte	0x9f
 2074 01dd 1E000000 		.4byte	.LVL33
 2075 01e1 20000000 		.4byte	.LVL34
 2076 01e5 0100     		.2byte	0x1
 2077 01e7 50       		.byte	0x50
 2078 01e8 20000000 		.4byte	.LVL34
 2079 01ec 34000000 		.4byte	.LFE127
 2080 01f0 0400     		.2byte	0x4
 2081 01f2 F3       		.byte	0xf3
 2082 01f3 01       		.uleb128 0x1
 2083 01f4 50       		.byte	0x50
 2084 01f5 9F       		.byte	0x9f
 2085 01f6 00000000 		.4byte	0
 2086 01fa 00000000 		.4byte	0
 2087              		.section	.debug_aranges,"",%progbits
 2088 0000 3C000000 		.4byte	0x3c
 2089 0004 0200     		.2byte	0x2
 2090 0006 00000000 		.4byte	.Ldebug_info0
 2091 000a 04       		.byte	0x4
 2092 000b 00       		.byte	0
 2093 000c 0000     		.2byte	0
 2094 000e 0000     		.2byte	0
 2095 0010 00000000 		.4byte	.LFB123
 2096 0014 3C000000 		.4byte	.LFE123-.LFB123
 2097 0018 00000000 		.4byte	.LFB124
 2098 001c 9C000000 		.4byte	.LFE124-.LFB124
 2099 0020 00000000 		.4byte	.LFB125
 2100 0024 44000000 		.4byte	.LFE125-.LFB125
 2101 0028 00000000 		.4byte	.LFB126
 2102 002c 44000000 		.4byte	.LFE126-.LFB126
 2103 0030 00000000 		.4byte	.LFB127
 2104 0034 34000000 		.4byte	.LFE127-.LFB127
 2105 0038 00000000 		.4byte	0
 2106 003c 00000000 		.4byte	0
 2107              		.section	.debug_ranges,"",%progbits
 2108              	.Ldebug_ranges0:
ARM GAS  /var/folders/m4/4md61f0s1_g0rzfghffqnxvr0000gn/T//ccxl4cSv.s 			page 38


 2109 0000 00000000 		.4byte	.LFB123
 2110 0004 3C000000 		.4byte	.LFE123
 2111 0008 00000000 		.4byte	.LFB124
 2112 000c 9C000000 		.4byte	.LFE124
 2113 0010 00000000 		.4byte	.LFB125
 2114 0014 44000000 		.4byte	.LFE125
 2115 0018 00000000 		.4byte	.LFB126
 2116 001c 44000000 		.4byte	.LFE126
 2117 0020 00000000 		.4byte	.LFB127
 2118 0024 34000000 		.4byte	.LFE127
 2119 0028 00000000 		.4byte	0
 2120 002c 00000000 		.4byte	0
 2121              		.section	.debug_line,"",%progbits
 2122              	.Ldebug_line0:
 2123 0000 AF020000 		.section	.debug_str,"MS",%progbits,1
 2123      0200F801 
 2123      00000201 
 2123      FB0E0D00 
 2123      01010101 
 2124              	.LASF23:
 2125 0000 49414252 		.ascii	"IABR\000"
 2125      00
 2126              	.LASF55:
 2127 0005 4E564943 		.ascii	"NVIC_InitTypeDef\000"
 2127      5F496E69 
 2127      74547970 
 2127      65446566 
 2127      00
 2128              	.LASF54:
 2129 0016 4E564943 		.ascii	"NVIC_IRQChannelCmd\000"
 2129      5F495251 
 2129      4368616E 
 2129      6E656C43 
 2129      6D6400
 2130              	.LASF71:
 2131 0029 53797354 		.ascii	"SysTick_CLKSource\000"
 2131      69636B5F 
 2131      434C4B53 
 2131      6F757263 
 2131      6500
 2132              	.LASF59:
 2133 003b 4E564943 		.ascii	"NVIC_InitStruct\000"
 2133      5F496E69 
 2133      74537472 
 2133      75637400 
 2134              	.LASF70:
 2135 004b 53797354 		.ascii	"SysTick_CLKSourceConfig\000"
 2135      69636B5F 
 2135      434C4B53 
 2135      6F757263 
 2135      65436F6E 
 2136              	.LASF2:
 2137 0063 73686F72 		.ascii	"short int\000"
 2137      7420696E 
 2137      7400
 2138              	.LASF64:
 2139 006d 4E564943 		.ascii	"NVIC_SetVectorTable\000"
ARM GAS  /var/folders/m4/4md61f0s1_g0rzfghffqnxvr0000gn/T//ccxl4cSv.s 			page 39


 2139      5F536574 
 2139      56656374 
 2139      6F725461 
 2139      626C6500 
 2140              	.LASF27:
 2141 0081 73697A65 		.ascii	"sizetype\000"
 2141      74797065 
 2141      00
 2142              	.LASF57:
 2143 008a 4E564943 		.ascii	"NVIC_Init\000"
 2143      5F496E69 
 2143      7400
 2144              	.LASF61:
 2145 0094 746D7070 		.ascii	"tmppre\000"
 2145      726500
 2146              	.LASF74:
 2147 009b 2F557365 		.ascii	"/Users/raphael/Documents/Projects/rESC/resc-firmwar"
 2147      72732F72 
 2147      61706861 
 2147      656C2F44 
 2147      6F63756D 
 2148 00ce 6500     		.ascii	"e\000"
 2149              	.LASF7:
 2150 00d0 5F5F7569 		.ascii	"__uint32_t\000"
 2150      6E743332 
 2150      5F7400
 2151              	.LASF29:
 2152 00db 43505549 		.ascii	"CPUID\000"
 2152      4400
 2153              	.LASF16:
 2154 00e1 52455345 		.ascii	"RESERVED0\000"
 2154      52564544 
 2154      3000
 2155              	.LASF12:
 2156 00eb 75696E74 		.ascii	"uint8_t\000"
 2156      385F7400 
 2157              	.LASF58:
 2158 00f3 4E564943 		.ascii	"NVIC_PriorityGroup\000"
 2158      5F507269 
 2158      6F726974 
 2158      7947726F 
 2158      757000
 2159              	.LASF69:
 2160 0106 4E657753 		.ascii	"NewState\000"
 2160      74617465 
 2160      00
 2161              	.LASF26:
 2162 010f 53544952 		.ascii	"STIR\000"
 2162      00
 2163              	.LASF48:
 2164 0114 44495341 		.ascii	"DISABLE\000"
 2164      424C4500 
 2165              	.LASF30:
 2166 011c 49435352 		.ascii	"ICSR\000"
 2166      00
 2167              	.LASF18:
 2168 0121 52534552 		.ascii	"RSERVED1\000"
ARM GAS  /var/folders/m4/4md61f0s1_g0rzfghffqnxvr0000gn/T//ccxl4cSv.s 			page 40


 2168      56454431 
 2168      00
 2169              	.LASF9:
 2170 012a 6C6F6E67 		.ascii	"long long int\000"
 2170      206C6F6E 
 2170      6720696E 
 2170      7400
 2171              	.LASF46:
 2172 0138 43414C49 		.ascii	"CALIB\000"
 2172      4200
 2173              	.LASF31:
 2174 013e 56544F52 		.ascii	"VTOR\000"
 2174      00
 2175              	.LASF38:
 2176 0143 42464152 		.ascii	"BFAR\000"
 2176      00
 2177              	.LASF6:
 2178 0148 6C6F6E67 		.ascii	"long int\000"
 2178      20696E74 
 2178      00
 2179              	.LASF4:
 2180 0151 5F5F7569 		.ascii	"__uint8_t\000"
 2180      6E74385F 
 2180      7400
 2181              	.LASF34:
 2182 015b 43465352 		.ascii	"CFSR\000"
 2182      00
 2183              	.LASF1:
 2184 0160 756E7369 		.ascii	"unsigned char\000"
 2184      676E6564 
 2184      20636861 
 2184      7200
 2185              	.LASF72:
 2186 016e 474E5520 		.ascii	"GNU C99 5.2.1 20151202 (release) [ARM/embedded-5-br"
 2186      43393920 
 2186      352E322E 
 2186      31203230 
 2186      31353132 
 2187 01a1 616E6368 		.ascii	"anch revision 231848] -mcpu=cortex-m4 -mfloat-abi=h"
 2187      20726576 
 2187      6973696F 
 2187      6E203233 
 2187      31383438 
 2188 01d4 61726420 		.ascii	"ard -mfpu=fpv4-sp-d16 -mno-thumb-interwork -mthumb "
 2188      2D6D6670 
 2188      753D6670 
 2188      76342D73 
 2188      702D6431 
 2189 0207 2D676764 		.ascii	"-ggdb -O2 -std=c99 -fomit-frame-pointer -falign-fun"
 2189      62202D4F 
 2189      32202D73 
 2189      74643D63 
 2189      3939202D 
 2190 023a 6374696F 		.ascii	"ctions=16 -ffunction-sections -fdata-sections -fno-"
 2190      6E733D31 
 2190      36202D66 
 2190      66756E63 
ARM GAS  /var/folders/m4/4md61f0s1_g0rzfghffqnxvr0000gn/T//ccxl4cSv.s 			page 41


 2190      74696F6E 
 2191 026d 636F6D6D 		.ascii	"common\000"
 2191      6F6E00
 2192              	.LASF32:
 2193 0274 41495243 		.ascii	"AIRCR\000"
 2193      5200
 2194              	.LASF43:
 2195 027a 5343425F 		.ascii	"SCB_Type\000"
 2195      54797065 
 2195      00
 2196              	.LASF44:
 2197 0283 4354524C 		.ascii	"CTRL\000"
 2197      00
 2198              	.LASF28:
 2199 0288 4E564943 		.ascii	"NVIC_Type\000"
 2199      5F547970 
 2199      6500
 2200              	.LASF21:
 2201 0292 49435052 		.ascii	"ICPR\000"
 2201      00
 2202              	.LASF0:
 2203 0297 7369676E 		.ascii	"signed char\000"
 2203      65642063 
 2203      68617200 
 2204              	.LASF10:
 2205 02a3 6C6F6E67 		.ascii	"long long unsigned int\000"
 2205      206C6F6E 
 2205      6720756E 
 2205      7369676E 
 2205      65642069 
 2206              	.LASF14:
 2207 02ba 75696E74 		.ascii	"uint32_t\000"
 2207      33325F74 
 2207      00
 2208              	.LASF11:
 2209 02c3 756E7369 		.ascii	"unsigned int\000"
 2209      676E6564 
 2209      20696E74 
 2209      00
 2210              	.LASF73:
 2211 02d0 43686962 		.ascii	"ChibiOS_16.1.4/ext/stdperiph_stm32f4/src/misc.c\000"
 2211      694F535F 
 2211      31362E31 
 2211      2E342F65 
 2211      78742F73 
 2212              	.LASF37:
 2213 0300 4D4D4641 		.ascii	"MMFAR\000"
 2213      5200
 2214              	.LASF62:
 2215 0306 746D7073 		.ascii	"tmpsub\000"
 2215      756200
 2216              	.LASF33:
 2217 030d 53484353 		.ascii	"SHCSR\000"
 2217      5200
 2218              	.LASF67:
 2219 0313 4E564943 		.ascii	"NVIC_SystemLPConfig\000"
 2219      5F537973 
ARM GAS  /var/folders/m4/4md61f0s1_g0rzfghffqnxvr0000gn/T//ccxl4cSv.s 			page 42


 2219      74656D4C 
 2219      50436F6E 
 2219      66696700 
 2220              	.LASF66:
 2221 0327 4F666673 		.ascii	"Offset\000"
 2221      657400
 2222              	.LASF47:
 2223 032e 53797354 		.ascii	"SysTick_Type\000"
 2223      69636B5F 
 2223      54797065 
 2223      00
 2224              	.LASF3:
 2225 033b 73686F72 		.ascii	"short unsigned int\000"
 2225      7420756E 
 2225      7369676E 
 2225      65642069 
 2225      6E7400
 2226              	.LASF60:
 2227 034e 746D7070 		.ascii	"tmppriority\000"
 2227      72696F72 
 2227      69747900 
 2228              	.LASF13:
 2229 035a 696E7433 		.ascii	"int32_t\000"
 2229      325F7400 
 2230              	.LASF41:
 2231 0362 49534152 		.ascii	"ISAR\000"
 2231      00
 2232              	.LASF19:
 2233 0367 49535052 		.ascii	"ISPR\000"
 2233      00
 2234              	.LASF36:
 2235 036c 44465352 		.ascii	"DFSR\000"
 2235      00
 2236              	.LASF51:
 2237 0371 4E564943 		.ascii	"NVIC_IRQChannel\000"
 2237      5F495251 
 2237      4368616E 
 2237      6E656C00 
 2238              	.LASF53:
 2239 0381 4E564943 		.ascii	"NVIC_IRQChannelSubPriority\000"
 2239      5F495251 
 2239      4368616E 
 2239      6E656C53 
 2239      75625072 
 2240              	.LASF35:
 2241 039c 48465352 		.ascii	"HFSR\000"
 2241      00
 2242              	.LASF17:
 2243 03a1 49434552 		.ascii	"ICER\000"
 2243      00
 2244              	.LASF40:
 2245 03a6 4D4D4652 		.ascii	"MMFR\000"
 2245      00
 2246              	.LASF15:
 2247 03ab 49534552 		.ascii	"ISER\000"
 2247      00
 2248              	.LASF20:
ARM GAS  /var/folders/m4/4md61f0s1_g0rzfghffqnxvr0000gn/T//ccxl4cSv.s 			page 43


 2249 03b0 52455345 		.ascii	"RESERVED2\000"
 2249      52564544 
 2249      3200
 2250              	.LASF22:
 2251 03ba 52455345 		.ascii	"RESERVED3\000"
 2251      52564544 
 2251      3300
 2252              	.LASF24:
 2253 03c4 52455345 		.ascii	"RESERVED4\000"
 2253      52564544 
 2253      3400
 2254              	.LASF25:
 2255 03ce 52455345 		.ascii	"RESERVED5\000"
 2255      52564544 
 2255      3500
 2256              	.LASF8:
 2257 03d8 6C6F6E67 		.ascii	"long unsigned int\000"
 2257      20756E73 
 2257      69676E65 
 2257      6420696E 
 2257      7400
 2258              	.LASF52:
 2259 03ea 4E564943 		.ascii	"NVIC_IRQChannelPreemptionPriority\000"
 2259      5F495251 
 2259      4368616E 
 2259      6E656C50 
 2259      7265656D 
 2260              	.LASF50:
 2261 040c 46756E63 		.ascii	"FunctionalState\000"
 2261      74696F6E 
 2261      616C5374 
 2261      61746500 
 2262              	.LASF5:
 2263 041c 5F5F696E 		.ascii	"__int32_t\000"
 2263      7433325F 
 2263      7400
 2264              	.LASF63:
 2265 0426 61737365 		.ascii	"assert_param\000"
 2265      72745F70 
 2265      6172616D 
 2265      00
 2266              	.LASF65:
 2267 0433 4E564943 		.ascii	"NVIC_VectTab\000"
 2267      5F566563 
 2267      74546162 
 2267      00
 2268              	.LASF45:
 2269 0440 4C4F4144 		.ascii	"LOAD\000"
 2269      00
 2270              	.LASF39:
 2271 0445 41465352 		.ascii	"AFSR\000"
 2271      00
 2272              	.LASF68:
 2273 044a 4C6F7750 		.ascii	"LowPowerMode\000"
 2273      6F776572 
 2273      4D6F6465 
 2273      00
ARM GAS  /var/folders/m4/4md61f0s1_g0rzfghffqnxvr0000gn/T//ccxl4cSv.s 			page 44


 2274              	.LASF75:
 2275 0457 49544D5F 		.ascii	"ITM_RxBuffer\000"
 2275      52784275 
 2275      66666572 
 2275      00
 2276              	.LASF42:
 2277 0464 43504143 		.ascii	"CPACR\000"
 2277      5200
 2278              	.LASF49:
 2279 046a 454E4142 		.ascii	"ENABLE\000"
 2279      4C4500
 2280              	.LASF56:
 2281 0471 4E564943 		.ascii	"NVIC_PriorityGroupConfig\000"
 2281      5F507269 
 2281      6F726974 
 2281      7947726F 
 2281      7570436F 
 2282              		.ident	"GCC: (GNU Tools for ARM Embedded Processors) 5.2.1 20151202 (release) [ARM/embedded-5-bran
ARM GAS  /var/folders/m4/4md61f0s1_g0rzfghffqnxvr0000gn/T//ccxl4cSv.s 			page 45


DEFINED SYMBOLS
                            *ABS*:0000000000000000 misc.c
/var/folders/m4/4md61f0s1_g0rzfghffqnxvr0000gn/T//ccxl4cSv.s:22     .text.NVIC_PriorityGroupConfig:0000000000000000 $t
/var/folders/m4/4md61f0s1_g0rzfghffqnxvr0000gn/T//ccxl4cSv.s:28     .text.NVIC_PriorityGroupConfig:0000000000000000 NVIC_PriorityGroupConfig
/var/folders/m4/4md61f0s1_g0rzfghffqnxvr0000gn/T//ccxl4cSv.s:75     .text.NVIC_PriorityGroupConfig:0000000000000038 $d
/var/folders/m4/4md61f0s1_g0rzfghffqnxvr0000gn/T//ccxl4cSv.s:80     .text.NVIC_Init:0000000000000000 $t
/var/folders/m4/4md61f0s1_g0rzfghffqnxvr0000gn/T//ccxl4cSv.s:86     .text.NVIC_Init:0000000000000000 NVIC_Init
/var/folders/m4/4md61f0s1_g0rzfghffqnxvr0000gn/T//ccxl4cSv.s:206    .text.NVIC_Init:0000000000000094 $d
/var/folders/m4/4md61f0s1_g0rzfghffqnxvr0000gn/T//ccxl4cSv.s:212    .text.NVIC_SetVectorTable:0000000000000000 $t
/var/folders/m4/4md61f0s1_g0rzfghffqnxvr0000gn/T//ccxl4cSv.s:218    .text.NVIC_SetVectorTable:0000000000000000 NVIC_SetVectorTable
/var/folders/m4/4md61f0s1_g0rzfghffqnxvr0000gn/T//ccxl4cSv.s:267    .text.NVIC_SetVectorTable:000000000000003c $d
/var/folders/m4/4md61f0s1_g0rzfghffqnxvr0000gn/T//ccxl4cSv.s:273    .text.NVIC_SystemLPConfig:0000000000000000 $t
/var/folders/m4/4md61f0s1_g0rzfghffqnxvr0000gn/T//ccxl4cSv.s:279    .text.NVIC_SystemLPConfig:0000000000000000 NVIC_SystemLPConfig
/var/folders/m4/4md61f0s1_g0rzfghffqnxvr0000gn/T//ccxl4cSv.s:332    .text.NVIC_SystemLPConfig:000000000000003c $d
/var/folders/m4/4md61f0s1_g0rzfghffqnxvr0000gn/T//ccxl4cSv.s:338    .text.SysTick_CLKSourceConfig:0000000000000000 $t
/var/folders/m4/4md61f0s1_g0rzfghffqnxvr0000gn/T//ccxl4cSv.s:344    .text.SysTick_CLKSourceConfig:0000000000000000 SysTick_CLKSourceConfig
/var/folders/m4/4md61f0s1_g0rzfghffqnxvr0000gn/T//ccxl4cSv.s:391    .text.SysTick_CLKSourceConfig:0000000000000030 $d
                     .debug_frame:0000000000000010 $d

UNDEFINED SYMBOLS
assert_param
