ARM GAS  /var/folders/m4/4md61f0s1_g0rzfghffqnxvr0000gn/T//cc8tewts.s 			page 1


   1              		.syntax unified
   2              		.cpu cortex-m4
   3              		.eabi_attribute 27, 1
   4              		.eabi_attribute 28, 1
   5              		.fpu fpv4-sp-d16
   6              		.eabi_attribute 20, 1
   7              		.eabi_attribute 21, 1
   8              		.eabi_attribute 23, 3
   9              		.eabi_attribute 24, 1
  10              		.eabi_attribute 25, 1
  11              		.eabi_attribute 26, 1
  12              		.eabi_attribute 30, 2
  13              		.eabi_attribute 34, 1
  14              		.eabi_attribute 18, 4
  15              		.thumb
  16              		.syntax unified
  17              		.file	"nvic.c"
  18              		.text
  19              	.Ltext0:
  20              		.cfi_sections	.debug_frame
  21              		.section	.text.nvicEnableVector,"ax",%progbits
  22              		.align	2
  23              		.p2align 4,,15
  24              		.global	nvicEnableVector
  25              		.thumb
  26              		.thumb_func
  27              		.type	nvicEnableVector, %function
  28              	nvicEnableVector:
  29              	.LFB268:
  30              		.file 1 "ChibiOS_16.1.4/os/hal/ports/common/ARMCMx/nvic.c"
  31              		.loc 1 57 0
  32              		.cfi_startproc
  33              		@ args = 0, pretend = 0, frame = 0
  34              		@ frame_needed = 0, uses_anonymous_args = 0
  35              		@ link register save eliminated.
  36              	.LVL0:
  37 0000 4309     		lsrs	r3, r0, #5
  38 0002 9B00     		lsls	r3, r3, #2
  39 0004 10B4     		push	{r4}
  40              		.cfi_def_cfa_offset 4
  41              		.cfi_offset 4, -4
  42 0006 03F16043 		add	r3, r3, #-536870912
  43              		.loc 1 63 0
  44 000a 00F16044 		add	r4, r0, #-536870912
  45 000e 04F56144 		add	r4, r4, #57600
  46 0012 03F56143 		add	r3, r3, #57600
  47 0016 0901     		lsls	r1, r1, #4
  48              	.LVL1:
  49              		.loc 1 65 0
  50 0018 00F01F00 		and	r0, r0, #31
  51              	.LVL2:
  52 001c 0122     		movs	r2, #1
  53 001e 02FA00F0 		lsl	r0, r2, r0
  54              		.loc 1 63 0
  55 0022 C9B2     		uxtb	r1, r1
  56 0024 84F80013 		strb	r1, [r4, #768]
  57              		.loc 1 65 0
ARM GAS  /var/folders/m4/4md61f0s1_g0rzfghffqnxvr0000gn/T//cc8tewts.s 			page 2


  58 0028 C3F88001 		str	r0, [r3, #384]
  59              		.loc 1 66 0
  60 002c 1860     		str	r0, [r3]
  61              		.loc 1 67 0
  62 002e 5DF8044B 		ldr	r4, [sp], #4
  63              		.cfi_restore 4
  64              		.cfi_def_cfa_offset 0
  65              	.LVL3:
  66 0032 7047     		bx	lr
  67              		.cfi_endproc
  68              	.LFE268:
  69              		.size	nvicEnableVector, .-nvicEnableVector
  70              		.section	.text.nvicDisableVector,"ax",%progbits
  71              		.align	2
  72              		.p2align 4,,15
  73              		.global	nvicDisableVector
  74              		.thumb
  75              		.thumb_func
  76              		.type	nvicDisableVector, %function
  77              	nvicDisableVector:
  78              	.LFB269:
  79              		.loc 1 74 0
  80              		.cfi_startproc
  81              		@ args = 0, pretend = 0, frame = 0
  82              		@ frame_needed = 0, uses_anonymous_args = 0
  83              		@ link register save eliminated.
  84              	.LVL4:
  85              		.loc 1 76 0
  86 0000 0849     		ldr	r1, .L5
  87 0002 4309     		lsrs	r3, r0, #5
  88              		.loc 1 74 0
  89 0004 10B4     		push	{r4}
  90              		.cfi_def_cfa_offset 4
  91              		.cfi_offset 4, -4
  92              		.loc 1 76 0
  93 0006 2033     		adds	r3, r3, #32
  94 0008 00F01F04 		and	r4, r0, #31
  95 000c 0122     		movs	r2, #1
  96              		.loc 1 80 0
  97 000e 0844     		add	r0, r0, r1
  98              	.LVL5:
  99              		.loc 1 76 0
 100 0010 A240     		lsls	r2, r2, r4
 101              		.loc 1 80 0
 102 0012 0024     		movs	r4, #0
 103              		.loc 1 76 0
 104 0014 41F82320 		str	r2, [r1, r3, lsl #2]
 105              		.loc 1 80 0
 106 0018 80F80043 		strb	r4, [r0, #768]
 107              		.loc 1 82 0
 108 001c 5DF8044B 		ldr	r4, [sp], #4
 109              		.cfi_restore 4
 110              		.cfi_def_cfa_offset 0
 111 0020 7047     		bx	lr
 112              	.L6:
 113 0022 00BF     		.align	2
 114              	.L5:
ARM GAS  /var/folders/m4/4md61f0s1_g0rzfghffqnxvr0000gn/T//cc8tewts.s 			page 3


 115 0024 00E100E0 		.word	-536813312
 116              		.cfi_endproc
 117              	.LFE269:
 118              		.size	nvicDisableVector, .-nvicDisableVector
 119              		.section	.text.nvicSetSystemHandlerPriority,"ax",%progbits
 120              		.align	2
 121              		.p2align 4,,15
 122              		.global	nvicSetSystemHandlerPriority
 123              		.thumb
 124              		.thumb_func
 125              		.type	nvicSetSystemHandlerPriority, %function
 126              	nvicSetSystemHandlerPriority:
 127              	.LFB270:
 128              		.loc 1 90 0
 129              		.cfi_startproc
 130              		@ args = 0, pretend = 0, frame = 0
 131              		@ frame_needed = 0, uses_anonymous_args = 0
 132              		@ link register save eliminated.
 133              	.LVL6:
 134              		.loc 1 100 0
 135 0000 00F16040 		add	r0, r0, #-536870912
 136              	.LVL7:
 137 0004 00F56D40 		add	r0, r0, #60672
 138              	.LVL8:
 139 0008 0901     		lsls	r1, r1, #4
 140              	.LVL9:
 141 000a C9B2     		uxtb	r1, r1
 142 000c 0176     		strb	r1, [r0, #24]
 143 000e 7047     		bx	lr
 144              		.cfi_endproc
 145              	.LFE270:
 146              		.size	nvicSetSystemHandlerPriority, .-nvicSetSystemHandlerPriority
 147              		.section	.text.nvicClearPending,"ax",%progbits
 148              		.align	2
 149              		.p2align 4,,15
 150              		.global	nvicClearPending
 151              		.thumb
 152              		.thumb_func
 153              		.type	nvicClearPending, %function
 154              	nvicClearPending:
 155              	.LFB271:
 156              		.loc 1 109 0
 157              		.cfi_startproc
 158              		@ args = 0, pretend = 0, frame = 0
 159              		@ frame_needed = 0, uses_anonymous_args = 0
 160              		@ link register save eliminated.
 161              	.LVL10:
 162              		.loc 1 111 0
 163 0000 4309     		lsrs	r3, r0, #5
 164 0002 6033     		adds	r3, r3, #96
 165 0004 00F01F00 		and	r0, r0, #31
 166              	.LVL11:
 167 0008 0122     		movs	r2, #1
 168 000a 0349     		ldr	r1, .L9
 169 000c 02FA00F0 		lsl	r0, r2, r0
 170 0010 41F82300 		str	r0, [r1, r3, lsl #2]
 171 0014 7047     		bx	lr
ARM GAS  /var/folders/m4/4md61f0s1_g0rzfghffqnxvr0000gn/T//cc8tewts.s 			page 4


 172              	.L10:
 173 0016 00BF     		.align	2
 174              	.L9:
 175 0018 00E100E0 		.word	-536813312
 176              		.cfi_endproc
 177              	.LFE271:
 178              		.size	nvicClearPending, .-nvicClearPending
 179              		.text
 180              	.Letext0:
 181              		.file 2 "/opt/homebrew-cask/Caskroom/gcc-arm-embedded/5_2-2015q4,20151219/gcc-arm-none-eabi-5_2-20
 182              		.file 3 "/opt/homebrew-cask/Caskroom/gcc-arm-embedded/5_2-2015q4,20151219/gcc-arm-none-eabi-5_2-20
 183              		.file 4 "ChibiOS_16.1.4/os/rt/ports/ARMCMx/compilers/GCC/chtypes.h"
 184              		.file 5 "ChibiOS_16.1.4/os/rt/include/chsystypes.h"
 185              		.file 6 "ChibiOS_16.1.4/os/rt/include/chschd.h"
 186              		.file 7 "ChibiOS_16.1.4/os/ext/CMSIS/include/core_cm4.h"
 187              		.file 8 "ChibiOS_16.1.4/os/rt/ports/ARMCMx/chcore.h"
 188              		.file 9 "ChibiOS_16.1.4/os/rt/ports/ARMCMx/chcore_v7m.h"
 189              		.file 10 "ChibiOS_16.1.4/os/rt/include/chtm.h"
 190              		.file 11 "ChibiOS_16.1.4/os/rt/include/chsem.h"
 191              		.file 12 "ChibiOS_16.1.4/os/rt/include/chmtx.h"
 192              		.section	.debug_info,"",%progbits
 193              	.Ldebug_info0:
 194 0000 C20A0000 		.4byte	0xac2
 195 0004 0400     		.2byte	0x4
 196 0006 00000000 		.4byte	.Ldebug_abbrev0
 197 000a 04       		.byte	0x4
 198 000b 01       		.uleb128 0x1
 199 000c 2C030000 		.4byte	.LASF140
 200 0010 0C       		.byte	0xc
 201 0011 28010000 		.4byte	.LASF141
 202 0015 47020000 		.4byte	.LASF142
 203 0019 00000000 		.4byte	.Ldebug_ranges0+0
 204 001d 00000000 		.4byte	0
 205 0021 00000000 		.4byte	.Ldebug_line0
 206 0025 02       		.uleb128 0x2
 207 0026 04       		.byte	0x4
 208 0027 05       		.byte	0x5
 209 0028 696E7400 		.ascii	"int\000"
 210 002c 03       		.uleb128 0x3
 211 002d 04       		.byte	0x4
 212 002e 07       		.byte	0x7
 213 002f D3010000 		.4byte	.LASF0
 214 0033 03       		.uleb128 0x3
 215 0034 01       		.byte	0x1
 216 0035 06       		.byte	0x6
 217 0036 EA000000 		.4byte	.LASF1
 218 003a 04       		.uleb128 0x4
 219 003b 37000000 		.4byte	.LASF5
 220 003f 02       		.byte	0x2
 221 0040 1D       		.byte	0x1d
 222 0041 45000000 		.4byte	0x45
 223 0045 03       		.uleb128 0x3
 224 0046 01       		.byte	0x1
 225 0047 08       		.byte	0x8
 226 0048 DF040000 		.4byte	.LASF2
 227 004c 03       		.uleb128 0x3
 228 004d 02       		.byte	0x2
ARM GAS  /var/folders/m4/4md61f0s1_g0rzfghffqnxvr0000gn/T//cc8tewts.s 			page 5


 229 004e 05       		.byte	0x5
 230 004f 12050000 		.4byte	.LASF3
 231 0053 03       		.uleb128 0x3
 232 0054 02       		.byte	0x2
 233 0055 07       		.byte	0x7
 234 0056 78050000 		.4byte	.LASF4
 235 005a 04       		.uleb128 0x4
 236 005b B0020000 		.4byte	.LASF6
 237 005f 02       		.byte	0x2
 238 0060 3F       		.byte	0x3f
 239 0061 65000000 		.4byte	0x65
 240 0065 03       		.uleb128 0x3
 241 0066 04       		.byte	0x4
 242 0067 05       		.byte	0x5
 243 0068 63010000 		.4byte	.LASF7
 244 006c 04       		.uleb128 0x4
 245 006d 35060000 		.4byte	.LASF8
 246 0071 02       		.byte	0x2
 247 0072 41       		.byte	0x41
 248 0073 77000000 		.4byte	0x77
 249 0077 03       		.uleb128 0x3
 250 0078 04       		.byte	0x4
 251 0079 07       		.byte	0x7
 252 007a E6050000 		.4byte	.LASF9
 253 007e 03       		.uleb128 0x3
 254 007f 08       		.byte	0x8
 255 0080 05       		.byte	0x5
 256 0081 DC000000 		.4byte	.LASF10
 257 0085 04       		.uleb128 0x4
 258 0086 77040000 		.4byte	.LASF11
 259 008a 02       		.byte	0x2
 260 008b 5B       		.byte	0x5b
 261 008c 90000000 		.4byte	0x90
 262 0090 03       		.uleb128 0x3
 263 0091 08       		.byte	0x8
 264 0092 07       		.byte	0x7
 265 0093 5C000000 		.4byte	.LASF12
 266 0097 04       		.uleb128 0x4
 267 0098 93060000 		.4byte	.LASF13
 268 009c 03       		.byte	0x3
 269 009d 14       		.byte	0x14
 270 009e 3A000000 		.4byte	0x3a
 271 00a2 04       		.uleb128 0x4
 272 00a3 D7040000 		.4byte	.LASF14
 273 00a7 03       		.byte	0x3
 274 00a8 1F       		.byte	0x1f
 275 00a9 5A000000 		.4byte	0x5a
 276 00ad 04       		.uleb128 0x4
 277 00ae BE050000 		.4byte	.LASF15
 278 00b2 03       		.byte	0x3
 279 00b3 20       		.byte	0x20
 280 00b4 6C000000 		.4byte	0x6c
 281 00b8 04       		.uleb128 0x4
 282 00b9 2E000000 		.4byte	.LASF16
 283 00bd 03       		.byte	0x3
 284 00be 26       		.byte	0x26
 285 00bf 85000000 		.4byte	0x85
ARM GAS  /var/folders/m4/4md61f0s1_g0rzfghffqnxvr0000gn/T//cc8tewts.s 			page 6


 286 00c3 04       		.uleb128 0x4
 287 00c4 59060000 		.4byte	.LASF17
 288 00c8 04       		.byte	0x4
 289 00c9 39       		.byte	0x39
 290 00ca AD000000 		.4byte	0xad
 291 00ce 04       		.uleb128 0x4
 292 00cf 8E020000 		.4byte	.LASF18
 293 00d3 04       		.byte	0x4
 294 00d4 3C       		.byte	0x3c
 295 00d5 97000000 		.4byte	0x97
 296 00d9 04       		.uleb128 0x4
 297 00da 71010000 		.4byte	.LASF19
 298 00de 04       		.byte	0x4
 299 00df 3D       		.byte	0x3d
 300 00e0 97000000 		.4byte	0x97
 301 00e4 04       		.uleb128 0x4
 302 00e5 82040000 		.4byte	.LASF20
 303 00e9 04       		.byte	0x4
 304 00ea 3E       		.byte	0x3e
 305 00eb 97000000 		.4byte	0x97
 306 00ef 04       		.uleb128 0x4
 307 00f0 1E010000 		.4byte	.LASF21
 308 00f4 04       		.byte	0x4
 309 00f5 3F       		.byte	0x3f
 310 00f6 97000000 		.4byte	0x97
 311 00fa 04       		.uleb128 0x4
 312 00fb B9040000 		.4byte	.LASF22
 313 00ff 04       		.byte	0x4
 314 0100 40       		.byte	0x40
 315 0101 AD000000 		.4byte	0xad
 316 0105 04       		.uleb128 0x4
 317 0106 36020000 		.4byte	.LASF23
 318 010a 04       		.byte	0x4
 319 010b 41       		.byte	0x41
 320 010c A2000000 		.4byte	0xa2
 321 0110 04       		.uleb128 0x4
 322 0111 A4020000 		.4byte	.LASF24
 323 0115 04       		.byte	0x4
 324 0116 43       		.byte	0x43
 325 0117 AD000000 		.4byte	0xad
 326 011b 04       		.uleb128 0x4
 327 011c CD010000 		.4byte	.LASF25
 328 0120 04       		.byte	0x4
 329 0121 45       		.byte	0x45
 330 0122 A2000000 		.4byte	0xa2
 331 0126 04       		.uleb128 0x4
 332 0127 17060000 		.4byte	.LASF26
 333 012b 05       		.byte	0x5
 334 012c 33       		.byte	0x33
 335 012d AD000000 		.4byte	0xad
 336 0131 04       		.uleb128 0x4
 337 0132 07060000 		.4byte	.LASF27
 338 0136 05       		.byte	0x5
 339 0137 3F       		.byte	0x3f
 340 0138 3C010000 		.4byte	0x13c
 341 013c 05       		.uleb128 0x5
 342 013d 27020000 		.4byte	.LASF49
ARM GAS  /var/folders/m4/4md61f0s1_g0rzfghffqnxvr0000gn/T//cc8tewts.s 			page 7


 343 0141 48       		.byte	0x48
 344 0142 06       		.byte	0x6
 345 0143 C2       		.byte	0xc2
 346 0144 41020000 		.4byte	0x241
 347 0148 06       		.uleb128 0x6
 348 0149 60050000 		.4byte	.LASF28
 349 014d 06       		.byte	0x6
 350 014e C3       		.byte	0xc3
 351 014f 4C020000 		.4byte	0x24c
 352 0153 00       		.byte	0
 353 0154 06       		.uleb128 0x6
 354 0155 B2040000 		.4byte	.LASF29
 355 0159 06       		.byte	0x6
 356 015a C5       		.byte	0xc5
 357 015b 4C020000 		.4byte	0x24c
 358 015f 04       		.byte	0x4
 359 0160 06       		.uleb128 0x6
 360 0161 B9000000 		.4byte	.LASF30
 361 0165 06       		.byte	0x6
 362 0166 C7       		.byte	0xc7
 363 0167 FA000000 		.4byte	0xfa
 364 016b 08       		.byte	0x8
 365 016c 06       		.uleb128 0x6
 366 016d D0060000 		.4byte	.LASF31
 367 0171 06       		.byte	0x6
 368 0172 C8       		.byte	0xc8
 369 0173 47070000 		.4byte	0x747
 370 0177 0C       		.byte	0xc
 371 0178 06       		.uleb128 0x6
 372 0179 7A010000 		.4byte	.LASF32
 373 017d 06       		.byte	0x6
 374 017e CA       		.byte	0xca
 375 017f 4C020000 		.4byte	0x24c
 376 0183 10       		.byte	0x10
 377 0184 06       		.uleb128 0x6
 378 0185 24030000 		.4byte	.LASF33
 379 0189 06       		.byte	0x6
 380 018a CB       		.byte	0xcb
 381 018b 4C020000 		.4byte	0x24c
 382 018f 14       		.byte	0x14
 383 0190 06       		.uleb128 0x6
 384 0191 B0060000 		.4byte	.LASF34
 385 0195 06       		.byte	0x6
 386 0196 D2       		.byte	0xd2
 387 0197 95090000 		.4byte	0x995
 388 019b 18       		.byte	0x18
 389 019c 06       		.uleb128 0x6
 390 019d 00050000 		.4byte	.LASF35
 391 01a1 06       		.byte	0x6
 392 01a2 DD       		.byte	0xdd
 393 01a3 D9000000 		.4byte	0xd9
 394 01a7 1C       		.byte	0x1c
 395 01a8 06       		.uleb128 0x6
 396 01a9 67050000 		.4byte	.LASF36
 397 01ad 06       		.byte	0x6
 398 01ae E1       		.byte	0xe1
 399 01af CE000000 		.4byte	0xce
ARM GAS  /var/folders/m4/4md61f0s1_g0rzfghffqnxvr0000gn/T//cc8tewts.s 			page 8


 400 01b3 1D       		.byte	0x1d
 401 01b4 06       		.uleb128 0x6
 402 01b5 81060000 		.4byte	.LASF37
 403 01b9 06       		.byte	0x6
 404 01ba E6       		.byte	0xe6
 405 01bb E4000000 		.4byte	0xe4
 406 01bf 1E       		.byte	0x1e
 407 01c0 06       		.uleb128 0x6
 408 01c1 2B050000 		.4byte	.LASF38
 409 01c5 06       		.byte	0x6
 410 01c6 EC       		.byte	0xec
 411 01c7 EF000000 		.4byte	0xef
 412 01cb 1F       		.byte	0x1f
 413 01cc 06       		.uleb128 0x6
 414 01cd FA010000 		.4byte	.LASF39
 415 01d1 06       		.byte	0x6
 416 01d2 F3       		.byte	0xf3
 417 01d3 A7090000 		.4byte	0x9a7
 418 01d7 20       		.byte	0x20
 419 01d8 07       		.uleb128 0x7
 420 01d9 705F7500 		.ascii	"p_u\000"
 421 01dd 06       		.byte	0x6
 422 01de 3101     		.2byte	0x131
 423 01e0 D0080000 		.4byte	0x8d0
 424 01e4 24       		.byte	0x24
 425 01e5 08       		.uleb128 0x8
 426 01e6 DD020000 		.4byte	.LASF40
 427 01ea 06       		.byte	0x6
 428 01eb 3601     		.2byte	0x136
 429 01ed 52020000 		.4byte	0x252
 430 01f1 28       		.byte	0x28
 431 01f2 08       		.uleb128 0x8
 432 01f3 11020000 		.4byte	.LASF41
 433 01f7 06       		.byte	0x6
 434 01f8 3C01     		.2byte	0x13c
 435 01fa 76020000 		.4byte	0x276
 436 01fe 2C       		.byte	0x2c
 437 01ff 08       		.uleb128 0x8
 438 0200 B7060000 		.4byte	.LASF42
 439 0204 06       		.byte	0x6
 440 0205 4001     		.2byte	0x140
 441 0207 05010000 		.4byte	0x105
 442 020b 34       		.byte	0x34
 443 020c 08       		.uleb128 0x8
 444 020d A9050000 		.4byte	.LASF43
 445 0211 06       		.byte	0x6
 446 0212 4601     		.2byte	0x146
 447 0214 10010000 		.4byte	0x110
 448 0218 38       		.byte	0x38
 449 0219 08       		.uleb128 0x8
 450 021a 08050000 		.4byte	.LASF44
 451 021e 06       		.byte	0x6
 452 021f 4D01     		.2byte	0x14d
 453 0221 8F090000 		.4byte	0x98f
 454 0225 3C       		.byte	0x3c
 455 0226 08       		.uleb128 0x8
 456 0227 21060000 		.4byte	.LASF45
ARM GAS  /var/folders/m4/4md61f0s1_g0rzfghffqnxvr0000gn/T//cc8tewts.s 			page 9


 457 022b 06       		.byte	0x6
 458 022c 5101     		.2byte	0x151
 459 022e FA000000 		.4byte	0xfa
 460 0232 40       		.byte	0x40
 461 0233 08       		.uleb128 0x8
 462 0234 F6000000 		.4byte	.LASF46
 463 0238 06       		.byte	0x6
 464 0239 5801     		.2byte	0x158
 465 023b 29030000 		.4byte	0x329
 466 023f 44       		.byte	0x44
 467 0240 00       		.byte	0
 468 0241 04       		.uleb128 0x4
 469 0242 F0020000 		.4byte	.LASF47
 470 0246 05       		.byte	0x5
 471 0247 44       		.byte	0x44
 472 0248 4C020000 		.4byte	0x24c
 473 024c 09       		.uleb128 0x9
 474 024d 04       		.byte	0x4
 475 024e 31010000 		.4byte	0x131
 476 0252 04       		.uleb128 0x4
 477 0253 00000000 		.4byte	.LASF48
 478 0257 05       		.byte	0x5
 479 0258 49       		.byte	0x49
 480 0259 5D020000 		.4byte	0x25d
 481 025d 05       		.uleb128 0x5
 482 025e D6050000 		.4byte	.LASF50
 483 0262 04       		.byte	0x4
 484 0263 06       		.byte	0x6
 485 0264 B0       		.byte	0xb0
 486 0265 76020000 		.4byte	0x276
 487 0269 06       		.uleb128 0x6
 488 026a 60050000 		.4byte	.LASF28
 489 026e 06       		.byte	0x6
 490 026f B1       		.byte	0xb1
 491 0270 4C020000 		.4byte	0x24c
 492 0274 00       		.byte	0
 493 0275 00       		.byte	0
 494 0276 04       		.uleb128 0x4
 495 0277 68060000 		.4byte	.LASF51
 496 027b 05       		.byte	0x5
 497 027c 50       		.byte	0x50
 498 027d 81020000 		.4byte	0x281
 499 0281 05       		.uleb128 0x5
 500 0282 A3000000 		.4byte	.LASF52
 501 0286 08       		.byte	0x8
 502 0287 06       		.byte	0x6
 503 0288 B7       		.byte	0xb7
 504 0289 A6020000 		.4byte	0x2a6
 505 028d 06       		.uleb128 0x6
 506 028e 60050000 		.4byte	.LASF28
 507 0292 06       		.byte	0x6
 508 0293 B8       		.byte	0xb8
 509 0294 4C020000 		.4byte	0x24c
 510 0298 00       		.byte	0
 511 0299 06       		.uleb128 0x6
 512 029a B2040000 		.4byte	.LASF29
 513 029e 06       		.byte	0x6
ARM GAS  /var/folders/m4/4md61f0s1_g0rzfghffqnxvr0000gn/T//cc8tewts.s 			page 10


 514 029f B9       		.byte	0xb9
 515 02a0 4C020000 		.4byte	0x24c
 516 02a4 04       		.byte	0x4
 517 02a5 00       		.byte	0
 518 02a6 04       		.uleb128 0x4
 519 02a7 14000000 		.4byte	.LASF53
 520 02ab 05       		.byte	0x5
 521 02ac 57       		.byte	0x57
 522 02ad B1020000 		.4byte	0x2b1
 523 02b1 0A       		.uleb128 0xa
 524 02b2 96020000 		.4byte	.LASF54
 525 02b6 1C       		.byte	0x1c
 526 02b7 06       		.byte	0x6
 527 02b8 9001     		.2byte	0x190
 528 02ba 0D030000 		.4byte	0x30d
 529 02be 08       		.uleb128 0x8
 530 02bf CE050000 		.4byte	.LASF55
 531 02c3 06       		.byte	0x6
 532 02c4 9101     		.2byte	0x191
 533 02c6 76020000 		.4byte	0x276
 534 02ca 00       		.byte	0
 535 02cb 08       		.uleb128 0x8
 536 02cc 52050000 		.4byte	.LASF56
 537 02d0 06       		.byte	0x6
 538 02d1 9201     		.2byte	0x192
 539 02d3 FA000000 		.4byte	0xfa
 540 02d7 08       		.byte	0x8
 541 02d8 08       		.uleb128 0x8
 542 02d9 4E040000 		.4byte	.LASF57
 543 02dd 06       		.byte	0x6
 544 02de 9401     		.2byte	0x194
 545 02e0 47070000 		.4byte	0x747
 546 02e4 0C       		.byte	0xc
 547 02e5 08       		.uleb128 0x8
 548 02e6 94010000 		.4byte	.LASF58
 549 02ea 06       		.byte	0x6
 550 02eb 9701     		.2byte	0x197
 551 02ed 4C020000 		.4byte	0x24c
 552 02f1 10       		.byte	0x10
 553 02f2 08       		.uleb128 0x8
 554 02f3 6F040000 		.4byte	.LASF59
 555 02f7 06       		.byte	0x6
 556 02f8 9801     		.2byte	0x198
 557 02fa 4C020000 		.4byte	0x24c
 558 02fe 14       		.byte	0x14
 559 02ff 08       		.uleb128 0x8
 560 0300 F8050000 		.4byte	.LASF60
 561 0304 06       		.byte	0x6
 562 0305 9B01     		.2byte	0x19b
 563 0307 4C020000 		.4byte	0x24c
 564 030b 18       		.byte	0x18
 565 030c 00       		.byte	0
 566 030d 04       		.uleb128 0x4
 567 030e 2C060000 		.4byte	.LASF61
 568 0312 05       		.byte	0x5
 569 0313 5C       		.byte	0x5c
 570 0314 18030000 		.4byte	0x318
ARM GAS  /var/folders/m4/4md61f0s1_g0rzfghffqnxvr0000gn/T//cc8tewts.s 			page 11


 571 0318 09       		.uleb128 0x9
 572 0319 04       		.byte	0x4
 573 031a 1E030000 		.4byte	0x31e
 574 031e 0B       		.uleb128 0xb
 575 031f 29030000 		.4byte	0x329
 576 0323 0C       		.uleb128 0xc
 577 0324 29030000 		.4byte	0x329
 578 0328 00       		.byte	0
 579 0329 0D       		.uleb128 0xd
 580 032a 04       		.byte	0x4
 581 032b 04       		.uleb128 0x4
 582 032c CD020000 		.4byte	.LASF62
 583 0330 05       		.byte	0x5
 584 0331 61       		.byte	0x61
 585 0332 36030000 		.4byte	0x336
 586 0336 0A       		.uleb128 0xa
 587 0337 8B050000 		.4byte	.LASF63
 588 033b 14       		.byte	0x14
 589 033c 06       		.byte	0x6
 590 033d 6B01     		.2byte	0x16b
 591 033f 85030000 		.4byte	0x385
 592 0343 08       		.uleb128 0x8
 593 0344 E0010000 		.4byte	.LASF64
 594 0348 06       		.byte	0x6
 595 0349 6C01     		.2byte	0x16c
 596 034b AC090000 		.4byte	0x9ac
 597 034f 00       		.byte	0
 598 0350 08       		.uleb128 0x8
 599 0351 A5010000 		.4byte	.LASF65
 600 0355 06       		.byte	0x6
 601 0356 6D01     		.2byte	0x16d
 602 0358 AC090000 		.4byte	0x9ac
 603 035c 04       		.byte	0x4
 604 035d 08       		.uleb128 0x8
 605 035e 08020000 		.4byte	.LASF66
 606 0362 06       		.byte	0x6
 607 0363 6E01     		.2byte	0x16e
 608 0365 26010000 		.4byte	0x126
 609 0369 08       		.byte	0x8
 610 036a 08       		.uleb128 0x8
 611 036b D6060000 		.4byte	.LASF67
 612 036f 06       		.byte	0x6
 613 0370 6F01     		.2byte	0x16f
 614 0372 0D030000 		.4byte	0x30d
 615 0376 0C       		.byte	0xc
 616 0377 08       		.uleb128 0x8
 617 0378 61060000 		.4byte	.LASF68
 618 037c 06       		.byte	0x6
 619 037d 7101     		.2byte	0x171
 620 037f 29030000 		.4byte	0x329
 621 0383 10       		.byte	0x10
 622 0384 00       		.byte	0
 623 0385 04       		.uleb128 0x4
 624 0386 87000000 		.4byte	.LASF69
 625 038a 05       		.byte	0x5
 626 038b 66       		.byte	0x66
 627 038c 90030000 		.4byte	0x390
ARM GAS  /var/folders/m4/4md61f0s1_g0rzfghffqnxvr0000gn/T//cc8tewts.s 			page 12


 628 0390 0A       		.uleb128 0xa
 629 0391 03030000 		.4byte	.LASF70
 630 0395 10       		.byte	0x10
 631 0396 06       		.byte	0x6
 632 0397 7B01     		.2byte	0x17b
 633 0399 D2030000 		.4byte	0x3d2
 634 039d 08       		.uleb128 0x8
 635 039e E0010000 		.4byte	.LASF64
 636 03a2 06       		.byte	0x6
 637 03a3 7C01     		.2byte	0x17c
 638 03a5 AC090000 		.4byte	0x9ac
 639 03a9 00       		.byte	0
 640 03aa 08       		.uleb128 0x8
 641 03ab A5010000 		.4byte	.LASF65
 642 03af 06       		.byte	0x6
 643 03b0 7E01     		.2byte	0x17e
 644 03b2 AC090000 		.4byte	0x9ac
 645 03b6 04       		.byte	0x4
 646 03b7 08       		.uleb128 0x8
 647 03b8 08020000 		.4byte	.LASF66
 648 03bc 06       		.byte	0x6
 649 03bd 8001     		.2byte	0x180
 650 03bf 26010000 		.4byte	0x126
 651 03c3 08       		.byte	0x8
 652 03c4 08       		.uleb128 0x8
 653 03c5 D1000000 		.4byte	.LASF71
 654 03c9 06       		.byte	0x6
 655 03ca 8201     		.2byte	0x182
 656 03cc A7090000 		.4byte	0x9a7
 657 03d0 0C       		.byte	0xc
 658 03d1 00       		.byte	0
 659 03d2 04       		.uleb128 0x4
 660 03d3 4D000000 		.4byte	.LASF72
 661 03d7 05       		.byte	0x5
 662 03d8 6B       		.byte	0x6b
 663 03d9 DD030000 		.4byte	0x3dd
 664 03dd 0A       		.uleb128 0xa
 665 03de C1040000 		.4byte	.LASF73
 666 03e2 04       		.byte	0x4
 667 03e3 06       		.byte	0x6
 668 03e4 A201     		.2byte	0x1a2
 669 03e6 F8030000 		.4byte	0x3f8
 670 03ea 08       		.uleb128 0x8
 671 03eb 40060000 		.4byte	.LASF74
 672 03ef 06       		.byte	0x6
 673 03f0 AA01     		.2byte	0x1aa
 674 03f2 B2090000 		.4byte	0x9b2
 675 03f6 00       		.byte	0
 676 03f7 00       		.byte	0
 677 03f8 04       		.uleb128 0x4
 678 03f9 82020000 		.4byte	.LASF75
 679 03fd 05       		.byte	0x5
 680 03fe 70       		.byte	0x70
 681 03ff 03040000 		.4byte	0x403
 682 0403 0E       		.uleb128 0xe
 683 0404 59010000 		.4byte	.LASF76
 684 0408 5802     		.2byte	0x258
ARM GAS  /var/folders/m4/4md61f0s1_g0rzfghffqnxvr0000gn/T//cc8tewts.s 			page 13


 685 040a 06       		.byte	0x6
 686 040b C201     		.2byte	0x1c2
 687 040d 5F040000 		.4byte	0x45f
 688 0411 08       		.uleb128 0x8
 689 0412 8D060000 		.4byte	.LASF77
 690 0416 06       		.byte	0x6
 691 0417 C601     		.2byte	0x1c6
 692 0419 A6020000 		.4byte	0x2a6
 693 041d 00       		.byte	0
 694 041e 08       		.uleb128 0x8
 695 041f 17010000 		.4byte	.LASF78
 696 0423 06       		.byte	0x6
 697 0424 CA01     		.2byte	0x1ca
 698 0426 85030000 		.4byte	0x385
 699 042a 1C       		.byte	0x1c
 700 042b 07       		.uleb128 0x7
 701 042c 64626700 		.ascii	"dbg\000"
 702 0430 06       		.byte	0x6
 703 0431 CE01     		.2byte	0x1ce
 704 0433 D2030000 		.4byte	0x3d2
 705 0437 2C       		.byte	0x2c
 706 0438 08       		.uleb128 0x8
 707 0439 7C000000 		.4byte	.LASF79
 708 043d 06       		.byte	0x6
 709 043e D201     		.2byte	0x1d2
 710 0440 31010000 		.4byte	0x131
 711 0444 30       		.byte	0x30
 712 0445 07       		.uleb128 0x7
 713 0446 746D00   		.ascii	"tm\000"
 714 0449 06       		.byte	0x6
 715 044a D701     		.2byte	0x1d7
 716 044c C5080000 		.4byte	0x8c5
 717 0450 78       		.byte	0x78
 718 0451 08       		.uleb128 0x8
 719 0452 BE010000 		.4byte	.LASF80
 720 0456 06       		.byte	0x6
 721 0457 E301     		.2byte	0x1e3
 722 0459 B7090000 		.4byte	0x9b7
 723 045d 80       		.byte	0x80
 724 045e 00       		.byte	0
 725 045f 0F       		.uleb128 0xf
 726 0460 040E     		.2byte	0xe04
 727 0462 07       		.byte	0x7
 728 0463 A001     		.2byte	0x1a0
 729 0465 1B050000 		.4byte	0x51b
 730 0469 08       		.uleb128 0x8
 731 046a 1C050000 		.4byte	.LASF81
 732 046e 07       		.byte	0x7
 733 046f A201     		.2byte	0x1a2
 734 0471 32050000 		.4byte	0x532
 735 0475 00       		.byte	0
 736 0476 08       		.uleb128 0x8
 737 0477 8A040000 		.4byte	.LASF82
 738 047b 07       		.byte	0x7
 739 047c A301     		.2byte	0x1a3
 740 047e 37050000 		.4byte	0x537
 741 0482 20       		.byte	0x20
ARM GAS  /var/folders/m4/4md61f0s1_g0rzfghffqnxvr0000gn/T//cc8tewts.s 			page 14


 742 0483 08       		.uleb128 0x8
 743 0484 65040000 		.4byte	.LASF83
 744 0488 07       		.byte	0x7
 745 0489 A401     		.2byte	0x1a4
 746 048b 47050000 		.4byte	0x547
 747 048f 80       		.byte	0x80
 748 0490 08       		.uleb128 0x8
 749 0491 9B060000 		.4byte	.LASF84
 750 0495 07       		.byte	0x7
 751 0496 A501     		.2byte	0x1a5
 752 0498 37050000 		.4byte	0x537
 753 049c A0       		.byte	0xa0
 754 049d 10       		.uleb128 0x10
 755 049e B4000000 		.4byte	.LASF85
 756 04a2 07       		.byte	0x7
 757 04a3 A601     		.2byte	0x1a6
 758 04a5 4C050000 		.4byte	0x54c
 759 04a9 0001     		.2byte	0x100
 760 04ab 10       		.uleb128 0x10
 761 04ac 94040000 		.4byte	.LASF86
 762 04b0 07       		.byte	0x7
 763 04b1 A701     		.2byte	0x1a7
 764 04b3 37050000 		.4byte	0x537
 765 04b7 2001     		.2byte	0x120
 766 04b9 10       		.uleb128 0x10
 767 04ba 0F000000 		.4byte	.LASF87
 768 04be 07       		.byte	0x7
 769 04bf A801     		.2byte	0x1a8
 770 04c1 51050000 		.4byte	0x551
 771 04c5 8001     		.2byte	0x180
 772 04c7 10       		.uleb128 0x10
 773 04c8 9E040000 		.4byte	.LASF88
 774 04cc 07       		.byte	0x7
 775 04cd A901     		.2byte	0x1a9
 776 04cf 37050000 		.4byte	0x537
 777 04d3 A001     		.2byte	0x1a0
 778 04d5 10       		.uleb128 0x10
 779 04d6 1F030000 		.4byte	.LASF89
 780 04da 07       		.byte	0x7
 781 04db AA01     		.2byte	0x1aa
 782 04dd 56050000 		.4byte	0x556
 783 04e1 0002     		.2byte	0x200
 784 04e3 10       		.uleb128 0x10
 785 04e4 A8040000 		.4byte	.LASF90
 786 04e8 07       		.byte	0x7
 787 04e9 AB01     		.2byte	0x1ab
 788 04eb 5B050000 		.4byte	0x55b
 789 04ef 2002     		.2byte	0x220
 790 04f1 11       		.uleb128 0x11
 791 04f2 495000   		.ascii	"IP\000"
 792 04f5 07       		.byte	0x7
 793 04f6 AC01     		.2byte	0x1ac
 794 04f8 7B050000 		.4byte	0x57b
 795 04fc 0003     		.2byte	0x300
 796 04fe 10       		.uleb128 0x10
 797 04ff B4050000 		.4byte	.LASF91
 798 0503 07       		.byte	0x7
ARM GAS  /var/folders/m4/4md61f0s1_g0rzfghffqnxvr0000gn/T//cc8tewts.s 			page 15


 799 0504 AD01     		.2byte	0x1ad
 800 0506 80050000 		.4byte	0x580
 801 050a F003     		.2byte	0x3f0
 802 050c 10       		.uleb128 0x10
 803 050d A4060000 		.4byte	.LASF92
 804 0511 07       		.byte	0x7
 805 0512 AE01     		.2byte	0x1ae
 806 0514 91050000 		.4byte	0x591
 807 0518 000E     		.2byte	0xe00
 808 051a 00       		.byte	0
 809 051b 12       		.uleb128 0x12
 810 051c AD000000 		.4byte	0xad
 811 0520 2B050000 		.4byte	0x52b
 812 0524 13       		.uleb128 0x13
 813 0525 2B050000 		.4byte	0x52b
 814 0529 07       		.byte	0x7
 815 052a 00       		.byte	0
 816 052b 03       		.uleb128 0x3
 817 052c 04       		.byte	0x4
 818 052d 07       		.byte	0x7
 819 052e E7020000 		.4byte	.LASF93
 820 0532 14       		.uleb128 0x14
 821 0533 1B050000 		.4byte	0x51b
 822 0537 12       		.uleb128 0x12
 823 0538 AD000000 		.4byte	0xad
 824 053c 47050000 		.4byte	0x547
 825 0540 13       		.uleb128 0x13
 826 0541 2B050000 		.4byte	0x52b
 827 0545 17       		.byte	0x17
 828 0546 00       		.byte	0
 829 0547 14       		.uleb128 0x14
 830 0548 1B050000 		.4byte	0x51b
 831 054c 14       		.uleb128 0x14
 832 054d 1B050000 		.4byte	0x51b
 833 0551 14       		.uleb128 0x14
 834 0552 1B050000 		.4byte	0x51b
 835 0556 14       		.uleb128 0x14
 836 0557 1B050000 		.4byte	0x51b
 837 055b 12       		.uleb128 0x12
 838 055c AD000000 		.4byte	0xad
 839 0560 6B050000 		.4byte	0x56b
 840 0564 13       		.uleb128 0x13
 841 0565 2B050000 		.4byte	0x52b
 842 0569 37       		.byte	0x37
 843 056a 00       		.byte	0
 844 056b 12       		.uleb128 0x12
 845 056c 97000000 		.4byte	0x97
 846 0570 7B050000 		.4byte	0x57b
 847 0574 13       		.uleb128 0x13
 848 0575 2B050000 		.4byte	0x52b
 849 0579 EF       		.byte	0xef
 850 057a 00       		.byte	0
 851 057b 14       		.uleb128 0x14
 852 057c 6B050000 		.4byte	0x56b
 853 0580 12       		.uleb128 0x12
 854 0581 AD000000 		.4byte	0xad
 855 0585 91050000 		.4byte	0x591
ARM GAS  /var/folders/m4/4md61f0s1_g0rzfghffqnxvr0000gn/T//cc8tewts.s 			page 16


 856 0589 15       		.uleb128 0x15
 857 058a 2B050000 		.4byte	0x52b
 858 058e 8302     		.2byte	0x283
 859 0590 00       		.byte	0
 860 0591 14       		.uleb128 0x14
 861 0592 AD000000 		.4byte	0xad
 862 0596 16       		.uleb128 0x16
 863 0597 21050000 		.4byte	.LASF94
 864 059b 07       		.byte	0x7
 865 059c AF01     		.2byte	0x1af
 866 059e 5F040000 		.4byte	0x45f
 867 05a2 17       		.uleb128 0x17
 868 05a3 8C       		.byte	0x8c
 869 05a4 07       		.byte	0x7
 870 05a5 C001     		.2byte	0x1c0
 871 05a7 BD060000 		.4byte	0x6bd
 872 05ab 08       		.uleb128 0x8
 873 05ac 9D000000 		.4byte	.LASF95
 874 05b0 07       		.byte	0x7
 875 05b1 C201     		.2byte	0x1c2
 876 05b3 BD060000 		.4byte	0x6bd
 877 05b7 00       		.byte	0
 878 05b8 08       		.uleb128 0x8
 879 05b9 31020000 		.4byte	.LASF96
 880 05bd 07       		.byte	0x7
 881 05be C301     		.2byte	0x1c3
 882 05c0 91050000 		.4byte	0x591
 883 05c4 04       		.byte	0x4
 884 05c5 08       		.uleb128 0x8
 885 05c6 1C020000 		.4byte	.LASF97
 886 05ca 07       		.byte	0x7
 887 05cb C401     		.2byte	0x1c4
 888 05cd 91050000 		.4byte	0x591
 889 05d1 08       		.byte	0x8
 890 05d2 08       		.uleb128 0x8
 891 05d3 3C020000 		.4byte	.LASF98
 892 05d7 07       		.byte	0x7
 893 05d8 C501     		.2byte	0x1c5
 894 05da 91050000 		.4byte	0x591
 895 05de 0C       		.byte	0xc
 896 05df 07       		.uleb128 0x7
 897 05e0 53435200 		.ascii	"SCR\000"
 898 05e4 07       		.byte	0x7
 899 05e5 C601     		.2byte	0x1c6
 900 05e7 91050000 		.4byte	0x591
 901 05eb 10       		.byte	0x10
 902 05ec 07       		.uleb128 0x7
 903 05ed 43435200 		.ascii	"CCR\000"
 904 05f1 07       		.byte	0x7
 905 05f2 C701     		.2byte	0x1c7
 906 05f4 91050000 		.4byte	0x591
 907 05f8 14       		.byte	0x14
 908 05f9 07       		.uleb128 0x7
 909 05fa 53485000 		.ascii	"SHP\000"
 910 05fe 07       		.byte	0x7
 911 05ff C801     		.2byte	0x1c8
 912 0601 D2060000 		.4byte	0x6d2
ARM GAS  /var/folders/m4/4md61f0s1_g0rzfghffqnxvr0000gn/T//cc8tewts.s 			page 17


 913 0605 18       		.byte	0x18
 914 0606 08       		.uleb128 0x8
 915 0607 ED040000 		.4byte	.LASF99
 916 060b 07       		.byte	0x7
 917 060c C901     		.2byte	0x1c9
 918 060e 91050000 		.4byte	0x591
 919 0612 24       		.byte	0x24
 920 0613 08       		.uleb128 0x8
 921 0614 1A030000 		.4byte	.LASF100
 922 0618 07       		.byte	0x7
 923 0619 CA01     		.2byte	0x1ca
 924 061b 91050000 		.4byte	0x591
 925 061f 28       		.byte	0x28
 926 0620 08       		.uleb128 0x8
 927 0621 C3060000 		.4byte	.LASF101
 928 0625 07       		.byte	0x7
 929 0626 CB01     		.2byte	0x1cb
 930 0628 91050000 		.4byte	0x591
 931 062c 2C       		.byte	0x2c
 932 062d 08       		.uleb128 0x8
 933 062e 42020000 		.4byte	.LASF102
 934 0632 07       		.byte	0x7
 935 0633 CC01     		.2byte	0x1cc
 936 0635 91050000 		.4byte	0x591
 937 0639 30       		.byte	0x30
 938 063a 08       		.uleb128 0x8
 939 063b 7C020000 		.4byte	.LASF103
 940 063f 07       		.byte	0x7
 941 0640 CD01     		.2byte	0x1cd
 942 0642 91050000 		.4byte	0x591
 943 0646 34       		.byte	0x34
 944 0647 08       		.uleb128 0x8
 945 0648 8A010000 		.4byte	.LASF104
 946 064c 07       		.byte	0x7
 947 064d CE01     		.2byte	0x1ce
 948 064f 91050000 		.4byte	0x591
 949 0653 38       		.byte	0x38
 950 0654 08       		.uleb128 0x8
 951 0655 8F010000 		.4byte	.LASF105
 952 0659 07       		.byte	0x7
 953 065a CF01     		.2byte	0x1cf
 954 065c 91050000 		.4byte	0x591
 955 0660 3C       		.byte	0x3c
 956 0661 07       		.uleb128 0x7
 957 0662 50465200 		.ascii	"PFR\000"
 958 0666 07       		.byte	0x7
 959 0667 D001     		.2byte	0x1d0
 960 0669 EC060000 		.4byte	0x6ec
 961 066d 40       		.byte	0x40
 962 066e 07       		.uleb128 0x7
 963 066f 44465200 		.ascii	"DFR\000"
 964 0673 07       		.byte	0x7
 965 0674 D101     		.2byte	0x1d1
 966 0676 BD060000 		.4byte	0x6bd
 967 067a 48       		.byte	0x48
 968 067b 07       		.uleb128 0x7
 969 067c 41445200 		.ascii	"ADR\000"
ARM GAS  /var/folders/m4/4md61f0s1_g0rzfghffqnxvr0000gn/T//cc8tewts.s 			page 18


 970 0680 07       		.byte	0x7
 971 0681 D201     		.2byte	0x1d2
 972 0683 BD060000 		.4byte	0x6bd
 973 0687 4C       		.byte	0x4c
 974 0688 08       		.uleb128 0x8
 975 0689 88060000 		.4byte	.LASF106
 976 068d 07       		.byte	0x7
 977 068e D301     		.2byte	0x1d3
 978 0690 06070000 		.4byte	0x706
 979 0694 50       		.byte	0x50
 980 0695 08       		.uleb128 0x8
 981 0696 6C010000 		.4byte	.LASF107
 982 069a 07       		.byte	0x7
 983 069b D401     		.2byte	0x1d4
 984 069d 20070000 		.4byte	0x720
 985 06a1 60       		.byte	0x60
 986 06a2 08       		.uleb128 0x8
 987 06a3 8A040000 		.4byte	.LASF82
 988 06a7 07       		.byte	0x7
 989 06a8 D501     		.2byte	0x1d5
 990 06aa 0B070000 		.4byte	0x70b
 991 06ae 74       		.byte	0x74
 992 06af 08       		.uleb128 0x8
 993 06b0 BD060000 		.4byte	.LASF108
 994 06b4 07       		.byte	0x7
 995 06b5 D601     		.2byte	0x1d6
 996 06b7 91050000 		.4byte	0x591
 997 06bb 88       		.byte	0x88
 998 06bc 00       		.byte	0
 999 06bd 18       		.uleb128 0x18
 1000 06be 91050000 		.4byte	0x591
 1001 06c2 12       		.uleb128 0x12
 1002 06c3 97000000 		.4byte	0x97
 1003 06c7 D2060000 		.4byte	0x6d2
 1004 06cb 13       		.uleb128 0x13
 1005 06cc 2B050000 		.4byte	0x52b
 1006 06d0 0B       		.byte	0xb
 1007 06d1 00       		.byte	0
 1008 06d2 14       		.uleb128 0x14
 1009 06d3 C2060000 		.4byte	0x6c2
 1010 06d7 12       		.uleb128 0x12
 1011 06d8 AD000000 		.4byte	0xad
 1012 06dc E7060000 		.4byte	0x6e7
 1013 06e0 13       		.uleb128 0x13
 1014 06e1 2B050000 		.4byte	0x52b
 1015 06e5 01       		.byte	0x1
 1016 06e6 00       		.byte	0
 1017 06e7 14       		.uleb128 0x14
 1018 06e8 D7060000 		.4byte	0x6d7
 1019 06ec 18       		.uleb128 0x18
 1020 06ed E7060000 		.4byte	0x6e7
 1021 06f1 12       		.uleb128 0x12
 1022 06f2 AD000000 		.4byte	0xad
 1023 06f6 01070000 		.4byte	0x701
 1024 06fa 13       		.uleb128 0x13
 1025 06fb 2B050000 		.4byte	0x52b
 1026 06ff 03       		.byte	0x3
ARM GAS  /var/folders/m4/4md61f0s1_g0rzfghffqnxvr0000gn/T//cc8tewts.s 			page 19


 1027 0700 00       		.byte	0
 1028 0701 14       		.uleb128 0x14
 1029 0702 F1060000 		.4byte	0x6f1
 1030 0706 18       		.uleb128 0x18
 1031 0707 01070000 		.4byte	0x701
 1032 070b 12       		.uleb128 0x12
 1033 070c AD000000 		.4byte	0xad
 1034 0710 1B070000 		.4byte	0x71b
 1035 0714 13       		.uleb128 0x13
 1036 0715 2B050000 		.4byte	0x52b
 1037 0719 04       		.byte	0x4
 1038 071a 00       		.byte	0
 1039 071b 14       		.uleb128 0x14
 1040 071c 0B070000 		.4byte	0x70b
 1041 0720 18       		.uleb128 0x18
 1042 0721 1B070000 		.4byte	0x71b
 1043 0725 16       		.uleb128 0x16
 1044 0726 AD010000 		.4byte	.LASF109
 1045 072a 07       		.byte	0x7
 1046 072b D701     		.2byte	0x1d7
 1047 072d A2050000 		.4byte	0x5a2
 1048 0731 04       		.uleb128 0x4
 1049 0732 9C010000 		.4byte	.LASF110
 1050 0736 08       		.byte	0x8
 1051 0737 65       		.byte	0x65
 1052 0738 29030000 		.4byte	0x329
 1053 073c 04       		.uleb128 0x4
 1054 073d BA020000 		.4byte	.LASF111
 1055 0741 08       		.byte	0x8
 1056 0742 6D       		.byte	0x6d
 1057 0743 B8000000 		.4byte	0xb8
 1058 0747 05       		.uleb128 0x5
 1059 0748 51060000 		.4byte	.LASF112
 1060 074c 04       		.byte	0x4
 1061 074d 08       		.byte	0x8
 1062 074e 89       		.byte	0x89
 1063 074f 60070000 		.4byte	0x760
 1064 0753 19       		.uleb128 0x19
 1065 0754 72313300 		.ascii	"r13\000"
 1066 0758 08       		.byte	0x8
 1067 0759 8A       		.byte	0x8a
 1068 075a AA080000 		.4byte	0x8aa
 1069 075e 00       		.byte	0
 1070 075f 00       		.byte	0
 1071 0760 05       		.uleb128 0x5
 1072 0761 41000000 		.4byte	.LASF113
 1073 0765 64       		.byte	0x64
 1074 0766 09       		.byte	0x9
 1075 0767 FD       		.byte	0xfd
 1076 0768 AA080000 		.4byte	0x8aa
 1077 076c 19       		.uleb128 0x19
 1078 076d 73313600 		.ascii	"s16\000"
 1079 0771 09       		.byte	0x9
 1080 0772 FF       		.byte	0xff
 1081 0773 31070000 		.4byte	0x731
 1082 0777 00       		.byte	0
 1083 0778 07       		.uleb128 0x7
ARM GAS  /var/folders/m4/4md61f0s1_g0rzfghffqnxvr0000gn/T//cc8tewts.s 			page 20


 1084 0779 73313700 		.ascii	"s17\000"
 1085 077d 09       		.byte	0x9
 1086 077e 0001     		.2byte	0x100
 1087 0780 31070000 		.4byte	0x731
 1088 0784 04       		.byte	0x4
 1089 0785 07       		.uleb128 0x7
 1090 0786 73313800 		.ascii	"s18\000"
 1091 078a 09       		.byte	0x9
 1092 078b 0101     		.2byte	0x101
 1093 078d 31070000 		.4byte	0x731
 1094 0791 08       		.byte	0x8
 1095 0792 07       		.uleb128 0x7
 1096 0793 73313900 		.ascii	"s19\000"
 1097 0797 09       		.byte	0x9
 1098 0798 0201     		.2byte	0x102
 1099 079a 31070000 		.4byte	0x731
 1100 079e 0C       		.byte	0xc
 1101 079f 07       		.uleb128 0x7
 1102 07a0 73323000 		.ascii	"s20\000"
 1103 07a4 09       		.byte	0x9
 1104 07a5 0301     		.2byte	0x103
 1105 07a7 31070000 		.4byte	0x731
 1106 07ab 10       		.byte	0x10
 1107 07ac 07       		.uleb128 0x7
 1108 07ad 73323100 		.ascii	"s21\000"
 1109 07b1 09       		.byte	0x9
 1110 07b2 0401     		.2byte	0x104
 1111 07b4 31070000 		.4byte	0x731
 1112 07b8 14       		.byte	0x14
 1113 07b9 07       		.uleb128 0x7
 1114 07ba 73323200 		.ascii	"s22\000"
 1115 07be 09       		.byte	0x9
 1116 07bf 0501     		.2byte	0x105
 1117 07c1 31070000 		.4byte	0x731
 1118 07c5 18       		.byte	0x18
 1119 07c6 07       		.uleb128 0x7
 1120 07c7 73323300 		.ascii	"s23\000"
 1121 07cb 09       		.byte	0x9
 1122 07cc 0601     		.2byte	0x106
 1123 07ce 31070000 		.4byte	0x731
 1124 07d2 1C       		.byte	0x1c
 1125 07d3 07       		.uleb128 0x7
 1126 07d4 73323400 		.ascii	"s24\000"
 1127 07d8 09       		.byte	0x9
 1128 07d9 0701     		.2byte	0x107
 1129 07db 31070000 		.4byte	0x731
 1130 07df 20       		.byte	0x20
 1131 07e0 07       		.uleb128 0x7
 1132 07e1 73323500 		.ascii	"s25\000"
 1133 07e5 09       		.byte	0x9
 1134 07e6 0801     		.2byte	0x108
 1135 07e8 31070000 		.4byte	0x731
 1136 07ec 24       		.byte	0x24
 1137 07ed 07       		.uleb128 0x7
 1138 07ee 73323600 		.ascii	"s26\000"
 1139 07f2 09       		.byte	0x9
 1140 07f3 0901     		.2byte	0x109
ARM GAS  /var/folders/m4/4md61f0s1_g0rzfghffqnxvr0000gn/T//cc8tewts.s 			page 21


 1141 07f5 31070000 		.4byte	0x731
 1142 07f9 28       		.byte	0x28
 1143 07fa 07       		.uleb128 0x7
 1144 07fb 73323700 		.ascii	"s27\000"
 1145 07ff 09       		.byte	0x9
 1146 0800 0A01     		.2byte	0x10a
 1147 0802 31070000 		.4byte	0x731
 1148 0806 2C       		.byte	0x2c
 1149 0807 07       		.uleb128 0x7
 1150 0808 73323800 		.ascii	"s28\000"
 1151 080c 09       		.byte	0x9
 1152 080d 0B01     		.2byte	0x10b
 1153 080f 31070000 		.4byte	0x731
 1154 0813 30       		.byte	0x30
 1155 0814 07       		.uleb128 0x7
 1156 0815 73323900 		.ascii	"s29\000"
 1157 0819 09       		.byte	0x9
 1158 081a 0C01     		.2byte	0x10c
 1159 081c 31070000 		.4byte	0x731
 1160 0820 34       		.byte	0x34
 1161 0821 07       		.uleb128 0x7
 1162 0822 73333000 		.ascii	"s30\000"
 1163 0826 09       		.byte	0x9
 1164 0827 0D01     		.2byte	0x10d
 1165 0829 31070000 		.4byte	0x731
 1166 082d 38       		.byte	0x38
 1167 082e 07       		.uleb128 0x7
 1168 082f 73333100 		.ascii	"s31\000"
 1169 0833 09       		.byte	0x9
 1170 0834 0E01     		.2byte	0x10e
 1171 0836 31070000 		.4byte	0x731
 1172 083a 3C       		.byte	0x3c
 1173 083b 07       		.uleb128 0x7
 1174 083c 723400   		.ascii	"r4\000"
 1175 083f 09       		.byte	0x9
 1176 0840 1001     		.2byte	0x110
 1177 0842 31070000 		.4byte	0x731
 1178 0846 40       		.byte	0x40
 1179 0847 07       		.uleb128 0x7
 1180 0848 723500   		.ascii	"r5\000"
 1181 084b 09       		.byte	0x9
 1182 084c 1101     		.2byte	0x111
 1183 084e 31070000 		.4byte	0x731
 1184 0852 44       		.byte	0x44
 1185 0853 07       		.uleb128 0x7
 1186 0854 723600   		.ascii	"r6\000"
 1187 0857 09       		.byte	0x9
 1188 0858 1201     		.2byte	0x112
 1189 085a 31070000 		.4byte	0x731
 1190 085e 48       		.byte	0x48
 1191 085f 07       		.uleb128 0x7
 1192 0860 723700   		.ascii	"r7\000"
 1193 0863 09       		.byte	0x9
 1194 0864 1301     		.2byte	0x113
 1195 0866 31070000 		.4byte	0x731
 1196 086a 4C       		.byte	0x4c
 1197 086b 07       		.uleb128 0x7
ARM GAS  /var/folders/m4/4md61f0s1_g0rzfghffqnxvr0000gn/T//cc8tewts.s 			page 22


 1198 086c 723800   		.ascii	"r8\000"
 1199 086f 09       		.byte	0x9
 1200 0870 1401     		.2byte	0x114
 1201 0872 31070000 		.4byte	0x731
 1202 0876 50       		.byte	0x50
 1203 0877 07       		.uleb128 0x7
 1204 0878 723900   		.ascii	"r9\000"
 1205 087b 09       		.byte	0x9
 1206 087c 1501     		.2byte	0x115
 1207 087e 31070000 		.4byte	0x731
 1208 0882 54       		.byte	0x54
 1209 0883 07       		.uleb128 0x7
 1210 0884 72313000 		.ascii	"r10\000"
 1211 0888 09       		.byte	0x9
 1212 0889 1601     		.2byte	0x116
 1213 088b 31070000 		.4byte	0x731
 1214 088f 58       		.byte	0x58
 1215 0890 07       		.uleb128 0x7
 1216 0891 72313100 		.ascii	"r11\000"
 1217 0895 09       		.byte	0x9
 1218 0896 1701     		.2byte	0x117
 1219 0898 31070000 		.4byte	0x731
 1220 089c 5C       		.byte	0x5c
 1221 089d 07       		.uleb128 0x7
 1222 089e 6C7200   		.ascii	"lr\000"
 1223 08a1 09       		.byte	0x9
 1224 08a2 1801     		.2byte	0x118
 1225 08a4 31070000 		.4byte	0x731
 1226 08a8 60       		.byte	0x60
 1227 08a9 00       		.byte	0
 1228 08aa 09       		.uleb128 0x9
 1229 08ab 04       		.byte	0x4
 1230 08ac 60070000 		.4byte	0x760
 1231 08b0 1A       		.uleb128 0x1a
 1232 08b1 04       		.byte	0x4
 1233 08b2 0A       		.byte	0xa
 1234 08b3 38       		.byte	0x38
 1235 08b4 C5080000 		.4byte	0x8c5
 1236 08b8 06       		.uleb128 0x6
 1237 08b9 4A060000 		.4byte	.LASF114
 1238 08bd 0A       		.byte	0xa
 1239 08be 3C       		.byte	0x3c
 1240 08bf C3000000 		.4byte	0xc3
 1241 08c3 00       		.byte	0
 1242 08c4 00       		.byte	0
 1243 08c5 04       		.uleb128 0x4
 1244 08c6 54040000 		.4byte	.LASF115
 1245 08ca 0A       		.byte	0xa
 1246 08cb 3D       		.byte	0x3d
 1247 08cc B0080000 		.4byte	0x8b0
 1248 08d0 1B       		.uleb128 0x1b
 1249 08d1 04       		.byte	0x4
 1250 08d2 06       		.byte	0x6
 1251 08d3 FA       		.byte	0xfa
 1252 08d4 2D090000 		.4byte	0x92d
 1253 08d8 1C       		.uleb128 0x1c
 1254 08d9 27000000 		.4byte	.LASF116
ARM GAS  /var/folders/m4/4md61f0s1_g0rzfghffqnxvr0000gn/T//cc8tewts.s 			page 23


 1255 08dd 06       		.byte	0x6
 1256 08de 0101     		.2byte	0x101
 1257 08e0 05010000 		.4byte	0x105
 1258 08e4 1C       		.uleb128 0x1c
 1259 08e5 73000000 		.4byte	.LASF117
 1260 08e9 06       		.byte	0x6
 1261 08ea 0801     		.2byte	0x108
 1262 08ec 05010000 		.4byte	0x105
 1263 08f0 1C       		.uleb128 0x1c
 1264 08f1 A9060000 		.4byte	.LASF118
 1265 08f5 06       		.byte	0x6
 1266 08f6 0F01     		.2byte	0x10f
 1267 08f8 29030000 		.4byte	0x329
 1268 08fc 1C       		.uleb128 0x1c
 1269 08fd 21000000 		.4byte	.LASF119
 1270 0901 06       		.byte	0x6
 1271 0902 1601     		.2byte	0x116
 1272 0904 2D090000 		.4byte	0x92d
 1273 0908 1C       		.uleb128 0x1c
 1274 0909 01020000 		.4byte	.LASF120
 1275 090d 06       		.byte	0x6
 1276 090e 1E01     		.2byte	0x11e
 1277 0910 58090000 		.4byte	0x958
 1278 0914 1C       		.uleb128 0x1c
 1279 0915 C7050000 		.4byte	.LASF121
 1280 0919 06       		.byte	0x6
 1281 091a 2701     		.2byte	0x127
 1282 091c 8F090000 		.4byte	0x98f
 1283 0920 1C       		.uleb128 0x1c
 1284 0921 59050000 		.4byte	.LASF122
 1285 0925 06       		.byte	0x6
 1286 0926 2F01     		.2byte	0x12f
 1287 0928 10010000 		.4byte	0x110
 1288 092c 00       		.byte	0
 1289 092d 09       		.uleb128 0x9
 1290 092e 04       		.byte	0x4
 1291 092f 41020000 		.4byte	0x241
 1292 0933 05       		.uleb128 0x5
 1293 0934 9C050000 		.4byte	.LASF123
 1294 0938 0C       		.byte	0xc
 1295 0939 0B       		.byte	0xb
 1296 093a 34       		.byte	0x34
 1297 093b 58090000 		.4byte	0x958
 1298 093f 06       		.uleb128 0x6
 1299 0940 82010000 		.4byte	.LASF124
 1300 0944 0B       		.byte	0xb
 1301 0945 35       		.byte	0x35
 1302 0946 76020000 		.4byte	0x276
 1303 094a 00       		.byte	0
 1304 094b 06       		.uleb128 0x6
 1305 094c 21020000 		.4byte	.LASF125
 1306 0950 0B       		.byte	0xb
 1307 0951 37       		.byte	0x37
 1308 0952 1B010000 		.4byte	0x11b
 1309 0956 08       		.byte	0x8
 1310 0957 00       		.byte	0
 1311 0958 09       		.uleb128 0x9
ARM GAS  /var/folders/m4/4md61f0s1_g0rzfghffqnxvr0000gn/T//cc8tewts.s 			page 24


 1312 0959 04       		.byte	0x4
 1313 095a 33090000 		.4byte	0x933
 1314 095e 05       		.uleb128 0x5
 1315 095f 78060000 		.4byte	.LASF126
 1316 0963 10       		.byte	0x10
 1317 0964 0C       		.byte	0xc
 1318 0965 39       		.byte	0x39
 1319 0966 8F090000 		.4byte	0x98f
 1320 096a 06       		.uleb128 0x6
 1321 096b FE000000 		.4byte	.LASF127
 1322 096f 0C       		.byte	0xc
 1323 0970 3A       		.byte	0x3a
 1324 0971 76020000 		.4byte	0x276
 1325 0975 00       		.byte	0
 1326 0976 06       		.uleb128 0x6
 1327 0977 C8060000 		.4byte	.LASF128
 1328 097b 0C       		.byte	0xc
 1329 097c 3C       		.byte	0x3c
 1330 097d 4C020000 		.4byte	0x24c
 1331 0981 08       		.byte	0x8
 1332 0982 06       		.uleb128 0x6
 1333 0983 10060000 		.4byte	.LASF129
 1334 0987 0C       		.byte	0xc
 1335 0988 3E       		.byte	0x3e
 1336 0989 D2090000 		.4byte	0x9d2
 1337 098d 0C       		.byte	0xc
 1338 098e 00       		.byte	0
 1339 098f 09       		.uleb128 0x9
 1340 0990 04       		.byte	0x4
 1341 0991 5E090000 		.4byte	0x95e
 1342 0995 09       		.uleb128 0x9
 1343 0996 04       		.byte	0x4
 1344 0997 A2090000 		.4byte	0x9a2
 1345 099b 03       		.uleb128 0x3
 1346 099c 01       		.byte	0x1
 1347 099d 08       		.byte	0x8
 1348 099e 02060000 		.4byte	.LASF130
 1349 09a2 18       		.uleb128 0x18
 1350 09a3 9B090000 		.4byte	0x99b
 1351 09a7 14       		.uleb128 0x14
 1352 09a8 26010000 		.4byte	0x126
 1353 09ac 09       		.uleb128 0x9
 1354 09ad 04       		.byte	0x4
 1355 09ae 2B030000 		.4byte	0x32b
 1356 09b2 14       		.uleb128 0x14
 1357 09b3 95090000 		.4byte	0x995
 1358 09b7 12       		.uleb128 0x12
 1359 09b8 3C070000 		.4byte	0x73c
 1360 09bc C7090000 		.4byte	0x9c7
 1361 09c0 13       		.uleb128 0x13
 1362 09c1 2B050000 		.4byte	0x52b
 1363 09c5 3A       		.byte	0x3a
 1364 09c6 00       		.byte	0
 1365 09c7 04       		.uleb128 0x4
 1366 09c8 B6010000 		.4byte	.LASF131
 1367 09cc 0C       		.byte	0xc
 1368 09cd 34       		.byte	0x34
ARM GAS  /var/folders/m4/4md61f0s1_g0rzfghffqnxvr0000gn/T//cc8tewts.s 			page 25


 1369 09ce 5E090000 		.4byte	0x95e
 1370 09d2 09       		.uleb128 0x9
 1371 09d3 04       		.byte	0x4
 1372 09d4 C7090000 		.4byte	0x9c7
 1373 09d8 03       		.uleb128 0x3
 1374 09d9 01       		.byte	0x1
 1375 09da 02       		.byte	0x2
 1376 09db D1040000 		.4byte	.LASF132
 1377 09df 1D       		.uleb128 0x1d
 1378 09e0 C0000000 		.4byte	.LASF134
 1379 09e4 01       		.byte	0x1
 1380 09e5 39       		.byte	0x39
 1381 09e6 00000000 		.4byte	.LFB268
 1382 09ea 34000000 		.4byte	.LFE268-.LFB268
 1383 09ee 01       		.uleb128 0x1
 1384 09ef 9C       		.byte	0x9c
 1385 09f0 110A0000 		.4byte	0xa11
 1386 09f4 1E       		.uleb128 0x1e
 1387 09f5 6E00     		.ascii	"n\000"
 1388 09f7 01       		.byte	0x1
 1389 09f8 39       		.byte	0x39
 1390 09f9 AD000000 		.4byte	0xad
 1391 09fd 00000000 		.4byte	.LLST0
 1392 0a01 1F       		.uleb128 0x1f
 1393 0a02 6A040000 		.4byte	.LASF133
 1394 0a06 01       		.byte	0x1
 1395 0a07 39       		.byte	0x39
 1396 0a08 AD000000 		.4byte	0xad
 1397 0a0c 32000000 		.4byte	.LLST1
 1398 0a10 00       		.byte	0
 1399 0a11 1D       		.uleb128 0x1d
 1400 0a12 E8010000 		.4byte	.LASF135
 1401 0a16 01       		.byte	0x1
 1402 0a17 4A       		.byte	0x4a
 1403 0a18 00000000 		.4byte	.LFB269
 1404 0a1c 28000000 		.4byte	.LFE269-.LFB269
 1405 0a20 01       		.uleb128 0x1
 1406 0a21 9C       		.byte	0x9c
 1407 0a22 340A0000 		.4byte	0xa34
 1408 0a26 1E       		.uleb128 0x1e
 1409 0a27 6E00     		.ascii	"n\000"
 1410 0a29 01       		.byte	0x1
 1411 0a2a 4A       		.byte	0x4a
 1412 0a2b AD000000 		.4byte	0xad
 1413 0a2f 53000000 		.4byte	.LLST2
 1414 0a33 00       		.byte	0
 1415 0a34 1D       		.uleb128 0x1d
 1416 0a35 35050000 		.4byte	.LASF136
 1417 0a39 01       		.byte	0x1
 1418 0a3a 5A       		.byte	0x5a
 1419 0a3b 00000000 		.4byte	.LFB270
 1420 0a3f 10000000 		.4byte	.LFE270-.LFB270
 1421 0a43 01       		.uleb128 0x1
 1422 0a44 9C       		.byte	0x9c
 1423 0a45 710A0000 		.4byte	0xa71
 1424 0a49 1F       		.uleb128 0x1f
 1425 0a4a C5020000 		.4byte	.LASF137
ARM GAS  /var/folders/m4/4md61f0s1_g0rzfghffqnxvr0000gn/T//cc8tewts.s 			page 26


 1426 0a4e 01       		.byte	0x1
 1427 0a4f 5A       		.byte	0x5a
 1428 0a50 AD000000 		.4byte	0xad
 1429 0a54 77000000 		.4byte	.LLST3
 1430 0a58 1F       		.uleb128 0x1f
 1431 0a59 6A040000 		.4byte	.LASF133
 1432 0a5d 01       		.byte	0x1
 1433 0a5e 5A       		.byte	0x5a
 1434 0a5f AD000000 		.4byte	0xad
 1435 0a63 AC000000 		.4byte	.LLST4
 1436 0a67 20       		.uleb128 0x20
 1437 0a68 6F050000 		.4byte	.LASF143
 1438 0a6c 810A0000 		.4byte	0xa81
 1439 0a70 00       		.byte	0
 1440 0a71 12       		.uleb128 0x12
 1441 0a72 9B090000 		.4byte	0x99b
 1442 0a76 810A0000 		.4byte	0xa81
 1443 0a7a 13       		.uleb128 0x13
 1444 0a7b 2B050000 		.4byte	0x52b
 1445 0a7f 1C       		.byte	0x1c
 1446 0a80 00       		.byte	0
 1447 0a81 18       		.uleb128 0x18
 1448 0a82 710A0000 		.4byte	0xa71
 1449 0a86 1D       		.uleb128 0x1d
 1450 0a87 06010000 		.4byte	.LASF138
 1451 0a8b 01       		.byte	0x1
 1452 0a8c 6D       		.byte	0x6d
 1453 0a8d 00000000 		.4byte	.LFB271
 1454 0a91 1C000000 		.4byte	.LFE271-.LFB271
 1455 0a95 01       		.uleb128 0x1
 1456 0a96 9C       		.byte	0x9c
 1457 0a97 A90A0000 		.4byte	0xaa9
 1458 0a9b 1E       		.uleb128 0x1e
 1459 0a9c 6E00     		.ascii	"n\000"
 1460 0a9e 01       		.byte	0x1
 1461 0a9f 6D       		.byte	0x6d
 1462 0aa0 AD000000 		.4byte	0xad
 1463 0aa4 CD000000 		.4byte	.LLST5
 1464 0aa8 00       		.byte	0
 1465 0aa9 21       		.uleb128 0x21
 1466 0aaa F3040000 		.4byte	.LASF139
 1467 0aae 07       		.byte	0x7
 1468 0aaf FA06     		.2byte	0x6fa
 1469 0ab1 B50A0000 		.4byte	0xab5
 1470 0ab5 14       		.uleb128 0x14
 1471 0ab6 A2000000 		.4byte	0xa2
 1472 0aba 22       		.uleb128 0x22
 1473 0abb 636800   		.ascii	"ch\000"
 1474 0abe 06       		.byte	0x6
 1475 0abf 0902     		.2byte	0x209
 1476 0ac1 F8030000 		.4byte	0x3f8
 1477 0ac5 00       		.byte	0
 1478              		.section	.debug_abbrev,"",%progbits
 1479              	.Ldebug_abbrev0:
 1480 0000 01       		.uleb128 0x1
 1481 0001 11       		.uleb128 0x11
 1482 0002 01       		.byte	0x1
ARM GAS  /var/folders/m4/4md61f0s1_g0rzfghffqnxvr0000gn/T//cc8tewts.s 			page 27


 1483 0003 25       		.uleb128 0x25
 1484 0004 0E       		.uleb128 0xe
 1485 0005 13       		.uleb128 0x13
 1486 0006 0B       		.uleb128 0xb
 1487 0007 03       		.uleb128 0x3
 1488 0008 0E       		.uleb128 0xe
 1489 0009 1B       		.uleb128 0x1b
 1490 000a 0E       		.uleb128 0xe
 1491 000b 55       		.uleb128 0x55
 1492 000c 17       		.uleb128 0x17
 1493 000d 11       		.uleb128 0x11
 1494 000e 01       		.uleb128 0x1
 1495 000f 10       		.uleb128 0x10
 1496 0010 17       		.uleb128 0x17
 1497 0011 00       		.byte	0
 1498 0012 00       		.byte	0
 1499 0013 02       		.uleb128 0x2
 1500 0014 24       		.uleb128 0x24
 1501 0015 00       		.byte	0
 1502 0016 0B       		.uleb128 0xb
 1503 0017 0B       		.uleb128 0xb
 1504 0018 3E       		.uleb128 0x3e
 1505 0019 0B       		.uleb128 0xb
 1506 001a 03       		.uleb128 0x3
 1507 001b 08       		.uleb128 0x8
 1508 001c 00       		.byte	0
 1509 001d 00       		.byte	0
 1510 001e 03       		.uleb128 0x3
 1511 001f 24       		.uleb128 0x24
 1512 0020 00       		.byte	0
 1513 0021 0B       		.uleb128 0xb
 1514 0022 0B       		.uleb128 0xb
 1515 0023 3E       		.uleb128 0x3e
 1516 0024 0B       		.uleb128 0xb
 1517 0025 03       		.uleb128 0x3
 1518 0026 0E       		.uleb128 0xe
 1519 0027 00       		.byte	0
 1520 0028 00       		.byte	0
 1521 0029 04       		.uleb128 0x4
 1522 002a 16       		.uleb128 0x16
 1523 002b 00       		.byte	0
 1524 002c 03       		.uleb128 0x3
 1525 002d 0E       		.uleb128 0xe
 1526 002e 3A       		.uleb128 0x3a
 1527 002f 0B       		.uleb128 0xb
 1528 0030 3B       		.uleb128 0x3b
 1529 0031 0B       		.uleb128 0xb
 1530 0032 49       		.uleb128 0x49
 1531 0033 13       		.uleb128 0x13
 1532 0034 00       		.byte	0
 1533 0035 00       		.byte	0
 1534 0036 05       		.uleb128 0x5
 1535 0037 13       		.uleb128 0x13
 1536 0038 01       		.byte	0x1
 1537 0039 03       		.uleb128 0x3
 1538 003a 0E       		.uleb128 0xe
 1539 003b 0B       		.uleb128 0xb
ARM GAS  /var/folders/m4/4md61f0s1_g0rzfghffqnxvr0000gn/T//cc8tewts.s 			page 28


 1540 003c 0B       		.uleb128 0xb
 1541 003d 3A       		.uleb128 0x3a
 1542 003e 0B       		.uleb128 0xb
 1543 003f 3B       		.uleb128 0x3b
 1544 0040 0B       		.uleb128 0xb
 1545 0041 01       		.uleb128 0x1
 1546 0042 13       		.uleb128 0x13
 1547 0043 00       		.byte	0
 1548 0044 00       		.byte	0
 1549 0045 06       		.uleb128 0x6
 1550 0046 0D       		.uleb128 0xd
 1551 0047 00       		.byte	0
 1552 0048 03       		.uleb128 0x3
 1553 0049 0E       		.uleb128 0xe
 1554 004a 3A       		.uleb128 0x3a
 1555 004b 0B       		.uleb128 0xb
 1556 004c 3B       		.uleb128 0x3b
 1557 004d 0B       		.uleb128 0xb
 1558 004e 49       		.uleb128 0x49
 1559 004f 13       		.uleb128 0x13
 1560 0050 38       		.uleb128 0x38
 1561 0051 0B       		.uleb128 0xb
 1562 0052 00       		.byte	0
 1563 0053 00       		.byte	0
 1564 0054 07       		.uleb128 0x7
 1565 0055 0D       		.uleb128 0xd
 1566 0056 00       		.byte	0
 1567 0057 03       		.uleb128 0x3
 1568 0058 08       		.uleb128 0x8
 1569 0059 3A       		.uleb128 0x3a
 1570 005a 0B       		.uleb128 0xb
 1571 005b 3B       		.uleb128 0x3b
 1572 005c 05       		.uleb128 0x5
 1573 005d 49       		.uleb128 0x49
 1574 005e 13       		.uleb128 0x13
 1575 005f 38       		.uleb128 0x38
 1576 0060 0B       		.uleb128 0xb
 1577 0061 00       		.byte	0
 1578 0062 00       		.byte	0
 1579 0063 08       		.uleb128 0x8
 1580 0064 0D       		.uleb128 0xd
 1581 0065 00       		.byte	0
 1582 0066 03       		.uleb128 0x3
 1583 0067 0E       		.uleb128 0xe
 1584 0068 3A       		.uleb128 0x3a
 1585 0069 0B       		.uleb128 0xb
 1586 006a 3B       		.uleb128 0x3b
 1587 006b 05       		.uleb128 0x5
 1588 006c 49       		.uleb128 0x49
 1589 006d 13       		.uleb128 0x13
 1590 006e 38       		.uleb128 0x38
 1591 006f 0B       		.uleb128 0xb
 1592 0070 00       		.byte	0
 1593 0071 00       		.byte	0
 1594 0072 09       		.uleb128 0x9
 1595 0073 0F       		.uleb128 0xf
 1596 0074 00       		.byte	0
ARM GAS  /var/folders/m4/4md61f0s1_g0rzfghffqnxvr0000gn/T//cc8tewts.s 			page 29


 1597 0075 0B       		.uleb128 0xb
 1598 0076 0B       		.uleb128 0xb
 1599 0077 49       		.uleb128 0x49
 1600 0078 13       		.uleb128 0x13
 1601 0079 00       		.byte	0
 1602 007a 00       		.byte	0
 1603 007b 0A       		.uleb128 0xa
 1604 007c 13       		.uleb128 0x13
 1605 007d 01       		.byte	0x1
 1606 007e 03       		.uleb128 0x3
 1607 007f 0E       		.uleb128 0xe
 1608 0080 0B       		.uleb128 0xb
 1609 0081 0B       		.uleb128 0xb
 1610 0082 3A       		.uleb128 0x3a
 1611 0083 0B       		.uleb128 0xb
 1612 0084 3B       		.uleb128 0x3b
 1613 0085 05       		.uleb128 0x5
 1614 0086 01       		.uleb128 0x1
 1615 0087 13       		.uleb128 0x13
 1616 0088 00       		.byte	0
 1617 0089 00       		.byte	0
 1618 008a 0B       		.uleb128 0xb
 1619 008b 15       		.uleb128 0x15
 1620 008c 01       		.byte	0x1
 1621 008d 27       		.uleb128 0x27
 1622 008e 19       		.uleb128 0x19
 1623 008f 01       		.uleb128 0x1
 1624 0090 13       		.uleb128 0x13
 1625 0091 00       		.byte	0
 1626 0092 00       		.byte	0
 1627 0093 0C       		.uleb128 0xc
 1628 0094 05       		.uleb128 0x5
 1629 0095 00       		.byte	0
 1630 0096 49       		.uleb128 0x49
 1631 0097 13       		.uleb128 0x13
 1632 0098 00       		.byte	0
 1633 0099 00       		.byte	0
 1634 009a 0D       		.uleb128 0xd
 1635 009b 0F       		.uleb128 0xf
 1636 009c 00       		.byte	0
 1637 009d 0B       		.uleb128 0xb
 1638 009e 0B       		.uleb128 0xb
 1639 009f 00       		.byte	0
 1640 00a0 00       		.byte	0
 1641 00a1 0E       		.uleb128 0xe
 1642 00a2 13       		.uleb128 0x13
 1643 00a3 01       		.byte	0x1
 1644 00a4 03       		.uleb128 0x3
 1645 00a5 0E       		.uleb128 0xe
 1646 00a6 0B       		.uleb128 0xb
 1647 00a7 05       		.uleb128 0x5
 1648 00a8 3A       		.uleb128 0x3a
 1649 00a9 0B       		.uleb128 0xb
 1650 00aa 3B       		.uleb128 0x3b
 1651 00ab 05       		.uleb128 0x5
 1652 00ac 01       		.uleb128 0x1
 1653 00ad 13       		.uleb128 0x13
ARM GAS  /var/folders/m4/4md61f0s1_g0rzfghffqnxvr0000gn/T//cc8tewts.s 			page 30


 1654 00ae 00       		.byte	0
 1655 00af 00       		.byte	0
 1656 00b0 0F       		.uleb128 0xf
 1657 00b1 13       		.uleb128 0x13
 1658 00b2 01       		.byte	0x1
 1659 00b3 0B       		.uleb128 0xb
 1660 00b4 05       		.uleb128 0x5
 1661 00b5 3A       		.uleb128 0x3a
 1662 00b6 0B       		.uleb128 0xb
 1663 00b7 3B       		.uleb128 0x3b
 1664 00b8 05       		.uleb128 0x5
 1665 00b9 01       		.uleb128 0x1
 1666 00ba 13       		.uleb128 0x13
 1667 00bb 00       		.byte	0
 1668 00bc 00       		.byte	0
 1669 00bd 10       		.uleb128 0x10
 1670 00be 0D       		.uleb128 0xd
 1671 00bf 00       		.byte	0
 1672 00c0 03       		.uleb128 0x3
 1673 00c1 0E       		.uleb128 0xe
 1674 00c2 3A       		.uleb128 0x3a
 1675 00c3 0B       		.uleb128 0xb
 1676 00c4 3B       		.uleb128 0x3b
 1677 00c5 05       		.uleb128 0x5
 1678 00c6 49       		.uleb128 0x49
 1679 00c7 13       		.uleb128 0x13
 1680 00c8 38       		.uleb128 0x38
 1681 00c9 05       		.uleb128 0x5
 1682 00ca 00       		.byte	0
 1683 00cb 00       		.byte	0
 1684 00cc 11       		.uleb128 0x11
 1685 00cd 0D       		.uleb128 0xd
 1686 00ce 00       		.byte	0
 1687 00cf 03       		.uleb128 0x3
 1688 00d0 08       		.uleb128 0x8
 1689 00d1 3A       		.uleb128 0x3a
 1690 00d2 0B       		.uleb128 0xb
 1691 00d3 3B       		.uleb128 0x3b
 1692 00d4 05       		.uleb128 0x5
 1693 00d5 49       		.uleb128 0x49
 1694 00d6 13       		.uleb128 0x13
 1695 00d7 38       		.uleb128 0x38
 1696 00d8 05       		.uleb128 0x5
 1697 00d9 00       		.byte	0
 1698 00da 00       		.byte	0
 1699 00db 12       		.uleb128 0x12
 1700 00dc 01       		.uleb128 0x1
 1701 00dd 01       		.byte	0x1
 1702 00de 49       		.uleb128 0x49
 1703 00df 13       		.uleb128 0x13
 1704 00e0 01       		.uleb128 0x1
 1705 00e1 13       		.uleb128 0x13
 1706 00e2 00       		.byte	0
 1707 00e3 00       		.byte	0
 1708 00e4 13       		.uleb128 0x13
 1709 00e5 21       		.uleb128 0x21
 1710 00e6 00       		.byte	0
ARM GAS  /var/folders/m4/4md61f0s1_g0rzfghffqnxvr0000gn/T//cc8tewts.s 			page 31


 1711 00e7 49       		.uleb128 0x49
 1712 00e8 13       		.uleb128 0x13
 1713 00e9 2F       		.uleb128 0x2f
 1714 00ea 0B       		.uleb128 0xb
 1715 00eb 00       		.byte	0
 1716 00ec 00       		.byte	0
 1717 00ed 14       		.uleb128 0x14
 1718 00ee 35       		.uleb128 0x35
 1719 00ef 00       		.byte	0
 1720 00f0 49       		.uleb128 0x49
 1721 00f1 13       		.uleb128 0x13
 1722 00f2 00       		.byte	0
 1723 00f3 00       		.byte	0
 1724 00f4 15       		.uleb128 0x15
 1725 00f5 21       		.uleb128 0x21
 1726 00f6 00       		.byte	0
 1727 00f7 49       		.uleb128 0x49
 1728 00f8 13       		.uleb128 0x13
 1729 00f9 2F       		.uleb128 0x2f
 1730 00fa 05       		.uleb128 0x5
 1731 00fb 00       		.byte	0
 1732 00fc 00       		.byte	0
 1733 00fd 16       		.uleb128 0x16
 1734 00fe 16       		.uleb128 0x16
 1735 00ff 00       		.byte	0
 1736 0100 03       		.uleb128 0x3
 1737 0101 0E       		.uleb128 0xe
 1738 0102 3A       		.uleb128 0x3a
 1739 0103 0B       		.uleb128 0xb
 1740 0104 3B       		.uleb128 0x3b
 1741 0105 05       		.uleb128 0x5
 1742 0106 49       		.uleb128 0x49
 1743 0107 13       		.uleb128 0x13
 1744 0108 00       		.byte	0
 1745 0109 00       		.byte	0
 1746 010a 17       		.uleb128 0x17
 1747 010b 13       		.uleb128 0x13
 1748 010c 01       		.byte	0x1
 1749 010d 0B       		.uleb128 0xb
 1750 010e 0B       		.uleb128 0xb
 1751 010f 3A       		.uleb128 0x3a
 1752 0110 0B       		.uleb128 0xb
 1753 0111 3B       		.uleb128 0x3b
 1754 0112 05       		.uleb128 0x5
 1755 0113 01       		.uleb128 0x1
 1756 0114 13       		.uleb128 0x13
 1757 0115 00       		.byte	0
 1758 0116 00       		.byte	0
 1759 0117 18       		.uleb128 0x18
 1760 0118 26       		.uleb128 0x26
 1761 0119 00       		.byte	0
 1762 011a 49       		.uleb128 0x49
 1763 011b 13       		.uleb128 0x13
 1764 011c 00       		.byte	0
 1765 011d 00       		.byte	0
 1766 011e 19       		.uleb128 0x19
 1767 011f 0D       		.uleb128 0xd
ARM GAS  /var/folders/m4/4md61f0s1_g0rzfghffqnxvr0000gn/T//cc8tewts.s 			page 32


 1768 0120 00       		.byte	0
 1769 0121 03       		.uleb128 0x3
 1770 0122 08       		.uleb128 0x8
 1771 0123 3A       		.uleb128 0x3a
 1772 0124 0B       		.uleb128 0xb
 1773 0125 3B       		.uleb128 0x3b
 1774 0126 0B       		.uleb128 0xb
 1775 0127 49       		.uleb128 0x49
 1776 0128 13       		.uleb128 0x13
 1777 0129 38       		.uleb128 0x38
 1778 012a 0B       		.uleb128 0xb
 1779 012b 00       		.byte	0
 1780 012c 00       		.byte	0
 1781 012d 1A       		.uleb128 0x1a
 1782 012e 13       		.uleb128 0x13
 1783 012f 01       		.byte	0x1
 1784 0130 0B       		.uleb128 0xb
 1785 0131 0B       		.uleb128 0xb
 1786 0132 3A       		.uleb128 0x3a
 1787 0133 0B       		.uleb128 0xb
 1788 0134 3B       		.uleb128 0x3b
 1789 0135 0B       		.uleb128 0xb
 1790 0136 01       		.uleb128 0x1
 1791 0137 13       		.uleb128 0x13
 1792 0138 00       		.byte	0
 1793 0139 00       		.byte	0
 1794 013a 1B       		.uleb128 0x1b
 1795 013b 17       		.uleb128 0x17
 1796 013c 01       		.byte	0x1
 1797 013d 0B       		.uleb128 0xb
 1798 013e 0B       		.uleb128 0xb
 1799 013f 3A       		.uleb128 0x3a
 1800 0140 0B       		.uleb128 0xb
 1801 0141 3B       		.uleb128 0x3b
 1802 0142 0B       		.uleb128 0xb
 1803 0143 01       		.uleb128 0x1
 1804 0144 13       		.uleb128 0x13
 1805 0145 00       		.byte	0
 1806 0146 00       		.byte	0
 1807 0147 1C       		.uleb128 0x1c
 1808 0148 0D       		.uleb128 0xd
 1809 0149 00       		.byte	0
 1810 014a 03       		.uleb128 0x3
 1811 014b 0E       		.uleb128 0xe
 1812 014c 3A       		.uleb128 0x3a
 1813 014d 0B       		.uleb128 0xb
 1814 014e 3B       		.uleb128 0x3b
 1815 014f 05       		.uleb128 0x5
 1816 0150 49       		.uleb128 0x49
 1817 0151 13       		.uleb128 0x13
 1818 0152 00       		.byte	0
 1819 0153 00       		.byte	0
 1820 0154 1D       		.uleb128 0x1d
 1821 0155 2E       		.uleb128 0x2e
 1822 0156 01       		.byte	0x1
 1823 0157 3F       		.uleb128 0x3f
 1824 0158 19       		.uleb128 0x19
ARM GAS  /var/folders/m4/4md61f0s1_g0rzfghffqnxvr0000gn/T//cc8tewts.s 			page 33


 1825 0159 03       		.uleb128 0x3
 1826 015a 0E       		.uleb128 0xe
 1827 015b 3A       		.uleb128 0x3a
 1828 015c 0B       		.uleb128 0xb
 1829 015d 3B       		.uleb128 0x3b
 1830 015e 0B       		.uleb128 0xb
 1831 015f 27       		.uleb128 0x27
 1832 0160 19       		.uleb128 0x19
 1833 0161 11       		.uleb128 0x11
 1834 0162 01       		.uleb128 0x1
 1835 0163 12       		.uleb128 0x12
 1836 0164 06       		.uleb128 0x6
 1837 0165 40       		.uleb128 0x40
 1838 0166 18       		.uleb128 0x18
 1839 0167 9742     		.uleb128 0x2117
 1840 0169 19       		.uleb128 0x19
 1841 016a 01       		.uleb128 0x1
 1842 016b 13       		.uleb128 0x13
 1843 016c 00       		.byte	0
 1844 016d 00       		.byte	0
 1845 016e 1E       		.uleb128 0x1e
 1846 016f 05       		.uleb128 0x5
 1847 0170 00       		.byte	0
 1848 0171 03       		.uleb128 0x3
 1849 0172 08       		.uleb128 0x8
 1850 0173 3A       		.uleb128 0x3a
 1851 0174 0B       		.uleb128 0xb
 1852 0175 3B       		.uleb128 0x3b
 1853 0176 0B       		.uleb128 0xb
 1854 0177 49       		.uleb128 0x49
 1855 0178 13       		.uleb128 0x13
 1856 0179 02       		.uleb128 0x2
 1857 017a 17       		.uleb128 0x17
 1858 017b 00       		.byte	0
 1859 017c 00       		.byte	0
 1860 017d 1F       		.uleb128 0x1f
 1861 017e 05       		.uleb128 0x5
 1862 017f 00       		.byte	0
 1863 0180 03       		.uleb128 0x3
 1864 0181 0E       		.uleb128 0xe
 1865 0182 3A       		.uleb128 0x3a
 1866 0183 0B       		.uleb128 0xb
 1867 0184 3B       		.uleb128 0x3b
 1868 0185 0B       		.uleb128 0xb
 1869 0186 49       		.uleb128 0x49
 1870 0187 13       		.uleb128 0x13
 1871 0188 02       		.uleb128 0x2
 1872 0189 17       		.uleb128 0x17
 1873 018a 00       		.byte	0
 1874 018b 00       		.byte	0
 1875 018c 20       		.uleb128 0x20
 1876 018d 34       		.uleb128 0x34
 1877 018e 00       		.byte	0
 1878 018f 03       		.uleb128 0x3
 1879 0190 0E       		.uleb128 0xe
 1880 0191 49       		.uleb128 0x49
 1881 0192 13       		.uleb128 0x13
ARM GAS  /var/folders/m4/4md61f0s1_g0rzfghffqnxvr0000gn/T//cc8tewts.s 			page 34


 1882 0193 34       		.uleb128 0x34
 1883 0194 19       		.uleb128 0x19
 1884 0195 00       		.byte	0
 1885 0196 00       		.byte	0
 1886 0197 21       		.uleb128 0x21
 1887 0198 34       		.uleb128 0x34
 1888 0199 00       		.byte	0
 1889 019a 03       		.uleb128 0x3
 1890 019b 0E       		.uleb128 0xe
 1891 019c 3A       		.uleb128 0x3a
 1892 019d 0B       		.uleb128 0xb
 1893 019e 3B       		.uleb128 0x3b
 1894 019f 05       		.uleb128 0x5
 1895 01a0 49       		.uleb128 0x49
 1896 01a1 13       		.uleb128 0x13
 1897 01a2 3F       		.uleb128 0x3f
 1898 01a3 19       		.uleb128 0x19
 1899 01a4 3C       		.uleb128 0x3c
 1900 01a5 19       		.uleb128 0x19
 1901 01a6 00       		.byte	0
 1902 01a7 00       		.byte	0
 1903 01a8 22       		.uleb128 0x22
 1904 01a9 34       		.uleb128 0x34
 1905 01aa 00       		.byte	0
 1906 01ab 03       		.uleb128 0x3
 1907 01ac 08       		.uleb128 0x8
 1908 01ad 3A       		.uleb128 0x3a
 1909 01ae 0B       		.uleb128 0xb
 1910 01af 3B       		.uleb128 0x3b
 1911 01b0 05       		.uleb128 0x5
 1912 01b1 49       		.uleb128 0x49
 1913 01b2 13       		.uleb128 0x13
 1914 01b3 3F       		.uleb128 0x3f
 1915 01b4 19       		.uleb128 0x19
 1916 01b5 3C       		.uleb128 0x3c
 1917 01b6 19       		.uleb128 0x19
 1918 01b7 00       		.byte	0
 1919 01b8 00       		.byte	0
 1920 01b9 00       		.byte	0
 1921              		.section	.debug_loc,"",%progbits
 1922              	.Ldebug_loc0:
 1923              	.LLST0:
 1924 0000 00000000 		.4byte	.LVL0
 1925 0004 1C000000 		.4byte	.LVL2
 1926 0008 0100     		.2byte	0x1
 1927 000a 50       		.byte	0x50
 1928 000b 1C000000 		.4byte	.LVL2
 1929 000f 32000000 		.4byte	.LVL3
 1930 0013 0700     		.2byte	0x7
 1931 0015 74       		.byte	0x74
 1932 0016 80BEFCFF 		.sleb128 536813312
 1932      01
 1933 001b 9F       		.byte	0x9f
 1934 001c 32000000 		.4byte	.LVL3
 1935 0020 34000000 		.4byte	.LFE268
 1936 0024 0400     		.2byte	0x4
 1937 0026 F3       		.byte	0xf3
ARM GAS  /var/folders/m4/4md61f0s1_g0rzfghffqnxvr0000gn/T//cc8tewts.s 			page 35


 1938 0027 01       		.uleb128 0x1
 1939 0028 50       		.byte	0x50
 1940 0029 9F       		.byte	0x9f
 1941 002a 00000000 		.4byte	0
 1942 002e 00000000 		.4byte	0
 1943              	.LLST1:
 1944 0032 00000000 		.4byte	.LVL0
 1945 0036 18000000 		.4byte	.LVL1
 1946 003a 0100     		.2byte	0x1
 1947 003c 51       		.byte	0x51
 1948 003d 18000000 		.4byte	.LVL1
 1949 0041 34000000 		.4byte	.LFE268
 1950 0045 0400     		.2byte	0x4
 1951 0047 F3       		.byte	0xf3
 1952 0048 01       		.uleb128 0x1
 1953 0049 51       		.byte	0x51
 1954 004a 9F       		.byte	0x9f
 1955 004b 00000000 		.4byte	0
 1956 004f 00000000 		.4byte	0
 1957              	.LLST2:
 1958 0053 00000000 		.4byte	.LVL4
 1959 0057 10000000 		.4byte	.LVL5
 1960 005b 0100     		.2byte	0x1
 1961 005d 50       		.byte	0x50
 1962 005e 10000000 		.4byte	.LVL5
 1963 0062 28000000 		.4byte	.LFE269
 1964 0066 0700     		.2byte	0x7
 1965 0068 70       		.byte	0x70
 1966 0069 80BEFCFF 		.sleb128 536813312
 1966      01
 1967 006e 9F       		.byte	0x9f
 1968 006f 00000000 		.4byte	0
 1969 0073 00000000 		.4byte	0
 1970              	.LLST3:
 1971 0077 00000000 		.4byte	.LVL6
 1972 007b 04000000 		.4byte	.LVL7
 1973 007f 0100     		.2byte	0x1
 1974 0081 50       		.byte	0x50
 1975 0082 04000000 		.4byte	.LVL7
 1976 0086 08000000 		.4byte	.LVL8
 1977 008a 0700     		.2byte	0x7
 1978 008c 70       		.byte	0x70
 1979 008d 80808080 		.sleb128 536870912
 1979      02
 1980 0092 9F       		.byte	0x9f
 1981 0093 08000000 		.4byte	.LVL8
 1982 0097 10000000 		.4byte	.LFE270
 1983 009b 0700     		.2byte	0x7
 1984 009d 70       		.byte	0x70
 1985 009e 80A6FCFF 		.sleb128 536810240
 1985      01
 1986 00a3 9F       		.byte	0x9f
 1987 00a4 00000000 		.4byte	0
 1988 00a8 00000000 		.4byte	0
 1989              	.LLST4:
 1990 00ac 00000000 		.4byte	.LVL6
 1991 00b0 0A000000 		.4byte	.LVL9
ARM GAS  /var/folders/m4/4md61f0s1_g0rzfghffqnxvr0000gn/T//cc8tewts.s 			page 36


 1992 00b4 0100     		.2byte	0x1
 1993 00b6 51       		.byte	0x51
 1994 00b7 0A000000 		.4byte	.LVL9
 1995 00bb 10000000 		.4byte	.LFE270
 1996 00bf 0400     		.2byte	0x4
 1997 00c1 F3       		.byte	0xf3
 1998 00c2 01       		.uleb128 0x1
 1999 00c3 51       		.byte	0x51
 2000 00c4 9F       		.byte	0x9f
 2001 00c5 00000000 		.4byte	0
 2002 00c9 00000000 		.4byte	0
 2003              	.LLST5:
 2004 00cd 00000000 		.4byte	.LVL10
 2005 00d1 08000000 		.4byte	.LVL11
 2006 00d5 0100     		.2byte	0x1
 2007 00d7 50       		.byte	0x50
 2008 00d8 08000000 		.4byte	.LVL11
 2009 00dc 1C000000 		.4byte	.LFE271
 2010 00e0 0400     		.2byte	0x4
 2011 00e2 F3       		.byte	0xf3
 2012 00e3 01       		.uleb128 0x1
 2013 00e4 50       		.byte	0x50
 2014 00e5 9F       		.byte	0x9f
 2015 00e6 00000000 		.4byte	0
 2016 00ea 00000000 		.4byte	0
 2017              		.section	.debug_aranges,"",%progbits
 2018 0000 34000000 		.4byte	0x34
 2019 0004 0200     		.2byte	0x2
 2020 0006 00000000 		.4byte	.Ldebug_info0
 2021 000a 04       		.byte	0x4
 2022 000b 00       		.byte	0
 2023 000c 0000     		.2byte	0
 2024 000e 0000     		.2byte	0
 2025 0010 00000000 		.4byte	.LFB268
 2026 0014 34000000 		.4byte	.LFE268-.LFB268
 2027 0018 00000000 		.4byte	.LFB269
 2028 001c 28000000 		.4byte	.LFE269-.LFB269
 2029 0020 00000000 		.4byte	.LFB270
 2030 0024 10000000 		.4byte	.LFE270-.LFB270
 2031 0028 00000000 		.4byte	.LFB271
 2032 002c 1C000000 		.4byte	.LFE271-.LFB271
 2033 0030 00000000 		.4byte	0
 2034 0034 00000000 		.4byte	0
 2035              		.section	.debug_ranges,"",%progbits
 2036              	.Ldebug_ranges0:
 2037 0000 00000000 		.4byte	.LFB268
 2038 0004 34000000 		.4byte	.LFE268
 2039 0008 00000000 		.4byte	.LFB269
 2040 000c 28000000 		.4byte	.LFE269
 2041 0010 00000000 		.4byte	.LFB270
 2042 0014 10000000 		.4byte	.LFE270
 2043 0018 00000000 		.4byte	.LFB271
 2044 001c 1C000000 		.4byte	.LFE271
 2045 0020 00000000 		.4byte	0
 2046 0024 00000000 		.4byte	0
 2047              		.section	.debug_line,"",%progbits
 2048              	.Ldebug_line0:
ARM GAS  /var/folders/m4/4md61f0s1_g0rzfghffqnxvr0000gn/T//cc8tewts.s 			page 37


 2049 0000 BA020000 		.section	.debug_str,"MS",%progbits,1
 2049      02006202 
 2049      00000201 
 2049      FB0E0D00 
 2049      01010101 
 2050              	.LASF48:
 2051 0000 74687265 		.ascii	"threads_list_t\000"
 2051      6164735F 
 2051      6C697374 
 2051      5F7400
 2052              	.LASF87:
 2053 000f 49435052 		.ascii	"ICPR\000"
 2053      00
 2054              	.LASF53:
 2055 0014 72656164 		.ascii	"ready_list_t\000"
 2055      795F6C69 
 2055      73745F74 
 2055      00
 2056              	.LASF119:
 2057 0021 77747472 		.ascii	"wttrp\000"
 2057      7000
 2058              	.LASF116:
 2059 0027 7264796D 		.ascii	"rdymsg\000"
 2059      736700
 2060              	.LASF16:
 2061 002e 75696E74 		.ascii	"uint64_t\000"
 2061      36345F74 
 2061      00
 2062              	.LASF5:
 2063 0037 5F5F7569 		.ascii	"__uint8_t\000"
 2063      6E74385F 
 2063      7400
 2064              	.LASF113:
 2065 0041 706F7274 		.ascii	"port_intctx\000"
 2065      5F696E74 
 2065      63747800 
 2066              	.LASF72:
 2067 004d 73797374 		.ascii	"system_debug_t\000"
 2067      656D5F64 
 2067      65627567 
 2067      5F7400
 2068              	.LASF12:
 2069 005c 6C6F6E67 		.ascii	"long long unsigned int\000"
 2069      206C6F6E 
 2069      6720756E 
 2069      7369676E 
 2069      65642069 
 2070              	.LASF117:
 2071 0073 65786974 		.ascii	"exitcode\000"
 2071      636F6465 
 2071      00
 2072              	.LASF79:
 2073 007c 6D61696E 		.ascii	"mainthread\000"
 2073      74687265 
 2073      616400
 2074              	.LASF69:
 2075 0087 76697274 		.ascii	"virtual_timers_list_t\000"
ARM GAS  /var/folders/m4/4md61f0s1_g0rzfghffqnxvr0000gn/T//cc8tewts.s 			page 38


 2075      75616C5F 
 2075      74696D65 
 2075      72735F6C 
 2075      6973745F 
 2076              	.LASF95:
 2077 009d 43505549 		.ascii	"CPUID\000"
 2077      4400
 2078              	.LASF52:
 2079 00a3 63685F74 		.ascii	"ch_threads_queue\000"
 2079      68726561 
 2079      64735F71 
 2079      75657565 
 2079      00
 2080              	.LASF85:
 2081 00b4 49535052 		.ascii	"ISPR\000"
 2081      00
 2082              	.LASF30:
 2083 00b9 705F7072 		.ascii	"p_prio\000"
 2083      696F00
 2084              	.LASF134:
 2085 00c0 6E766963 		.ascii	"nvicEnableVector\000"
 2085      456E6162 
 2085      6C655665 
 2085      63746F72 
 2085      00
 2086              	.LASF71:
 2087 00d1 76745F73 		.ascii	"vt_systime\000"
 2087      79737469 
 2087      6D6500
 2088              	.LASF10:
 2089 00dc 6C6F6E67 		.ascii	"long long int\000"
 2089      206C6F6E 
 2089      6720696E 
 2089      7400
 2090              	.LASF1:
 2091 00ea 7369676E 		.ascii	"signed char\000"
 2091      65642063 
 2091      68617200 
 2092              	.LASF46:
 2093 00f6 705F6D70 		.ascii	"p_mpool\000"
 2093      6F6F6C00 
 2094              	.LASF127:
 2095 00fe 6D5F7175 		.ascii	"m_queue\000"
 2095      65756500 
 2096              	.LASF138:
 2097 0106 6E766963 		.ascii	"nvicClearPending\000"
 2097      436C6561 
 2097      7250656E 
 2097      64696E67 
 2097      00
 2098              	.LASF78:
 2099 0117 76746C69 		.ascii	"vtlist\000"
 2099      737400
 2100              	.LASF21:
 2101 011e 74736C69 		.ascii	"tslices_t\000"
 2101      6365735F 
 2101      7400
ARM GAS  /var/folders/m4/4md61f0s1_g0rzfghffqnxvr0000gn/T//cc8tewts.s 			page 39


 2102              	.LASF141:
 2103 0128 43686962 		.ascii	"ChibiOS_16.1.4/os/hal/ports/common/ARMCMx/nvic.c\000"
 2103      694F535F 
 2103      31362E31 
 2103      2E342F6F 
 2103      732F6861 
 2104              	.LASF76:
 2105 0159 63685F73 		.ascii	"ch_system\000"
 2105      79737465 
 2105      6D00
 2106              	.LASF7:
 2107 0163 6C6F6E67 		.ascii	"long int\000"
 2107      20696E74 
 2107      00
 2108              	.LASF107:
 2109 016c 49534152 		.ascii	"ISAR\000"
 2109      00
 2110              	.LASF19:
 2111 0171 74737461 		.ascii	"tstate_t\000"
 2111      74655F74 
 2111      00
 2112              	.LASF32:
 2113 017a 705F6E65 		.ascii	"p_newer\000"
 2113      77657200 
 2114              	.LASF124:
 2115 0182 735F7175 		.ascii	"s_queue\000"
 2115      65756500 
 2116              	.LASF104:
 2117 018a 42464152 		.ascii	"BFAR\000"
 2117      00
 2118              	.LASF105:
 2119 018f 41465352 		.ascii	"AFSR\000"
 2119      00
 2120              	.LASF58:
 2121 0194 725F6E65 		.ascii	"r_newer\000"
 2121      77657200 
 2122              	.LASF110:
 2123 019c 72656761 		.ascii	"regarm_t\000"
 2123      726D5F74 
 2123      00
 2124              	.LASF65:
 2125 01a5 76745F70 		.ascii	"vt_prev\000"
 2125      72657600 
 2126              	.LASF109:
 2127 01ad 5343425F 		.ascii	"SCB_Type\000"
 2127      54797065 
 2127      00
 2128              	.LASF131:
 2129 01b6 6D757465 		.ascii	"mutex_t\000"
 2129      785F7400 
 2130              	.LASF80:
 2131 01be 69646C65 		.ascii	"idle_thread_wa\000"
 2131      5F746872 
 2131      6561645F 
 2131      776100
 2132              	.LASF25:
 2133 01cd 636E745F 		.ascii	"cnt_t\000"
ARM GAS  /var/folders/m4/4md61f0s1_g0rzfghffqnxvr0000gn/T//cc8tewts.s 			page 40


 2133      7400
 2134              	.LASF0:
 2135 01d3 756E7369 		.ascii	"unsigned int\000"
 2135      676E6564 
 2135      20696E74 
 2135      00
 2136              	.LASF64:
 2137 01e0 76745F6E 		.ascii	"vt_next\000"
 2137      65787400 
 2138              	.LASF135:
 2139 01e8 6E766963 		.ascii	"nvicDisableVector\000"
 2139      44697361 
 2139      626C6556 
 2139      6563746F 
 2139      7200
 2140              	.LASF39:
 2141 01fa 705F7469 		.ascii	"p_time\000"
 2141      6D6500
 2142              	.LASF120:
 2143 0201 77747365 		.ascii	"wtsemp\000"
 2143      6D7000
 2144              	.LASF66:
 2145 0208 76745F64 		.ascii	"vt_delta\000"
 2145      656C7461 
 2145      00
 2146              	.LASF41:
 2147 0211 705F6D73 		.ascii	"p_msgqueue\000"
 2147      67717565 
 2147      756500
 2148              	.LASF97:
 2149 021c 56544F52 		.ascii	"VTOR\000"
 2149      00
 2150              	.LASF125:
 2151 0221 735F636E 		.ascii	"s_cnt\000"
 2151      7400
 2152              	.LASF49:
 2153 0227 63685F74 		.ascii	"ch_thread\000"
 2153      68726561 
 2153      6400
 2154              	.LASF96:
 2155 0231 49435352 		.ascii	"ICSR\000"
 2155      00
 2156              	.LASF23:
 2157 0236 6D73675F 		.ascii	"msg_t\000"
 2157      7400
 2158              	.LASF98:
 2159 023c 41495243 		.ascii	"AIRCR\000"
 2159      5200
 2160              	.LASF102:
 2161 0242 44465352 		.ascii	"DFSR\000"
 2161      00
 2162              	.LASF142:
 2163 0247 2F557365 		.ascii	"/Users/raphael/Documents/Projects/rESC/resc-firmwar"
 2163      72732F72 
 2163      61706861 
 2163      656C2F44 
 2163      6F63756D 
ARM GAS  /var/folders/m4/4md61f0s1_g0rzfghffqnxvr0000gn/T//cc8tewts.s 			page 41


 2164 027a 6500     		.ascii	"e\000"
 2165              	.LASF103:
 2166 027c 4D4D4641 		.ascii	"MMFAR\000"
 2166      5200
 2167              	.LASF75:
 2168 0282 63685F73 		.ascii	"ch_system_t\000"
 2168      79737465 
 2168      6D5F7400 
 2169              	.LASF18:
 2170 028e 746D6F64 		.ascii	"tmode_t\000"
 2170      655F7400 
 2171              	.LASF54:
 2172 0296 63685F72 		.ascii	"ch_ready_list\000"
 2172      65616479 
 2172      5F6C6973 
 2172      7400
 2173              	.LASF24:
 2174 02a4 6576656E 		.ascii	"eventmask_t\000"
 2174      746D6173 
 2174      6B5F7400 
 2175              	.LASF6:
 2176 02b0 5F5F696E 		.ascii	"__int32_t\000"
 2176      7433325F 
 2176      7400
 2177              	.LASF111:
 2178 02ba 73746B61 		.ascii	"stkalign_t\000"
 2178      6C69676E 
 2178      5F7400
 2179              	.LASF137:
 2180 02c5 68616E64 		.ascii	"handler\000"
 2180      6C657200 
 2181              	.LASF62:
 2182 02cd 76697274 		.ascii	"virtual_timer_t\000"
 2182      75616C5F 
 2182      74696D65 
 2182      725F7400 
 2183              	.LASF40:
 2184 02dd 705F7761 		.ascii	"p_waiting\000"
 2184      6974696E 
 2184      6700
 2185              	.LASF93:
 2186 02e7 73697A65 		.ascii	"sizetype\000"
 2186      74797065 
 2186      00
 2187              	.LASF47:
 2188 02f0 74687265 		.ascii	"thread_reference_t\000"
 2188      61645F72 
 2188      65666572 
 2188      656E6365 
 2188      5F7400
 2189              	.LASF70:
 2190 0303 63685F76 		.ascii	"ch_virtual_timers_list\000"
 2190      69727475 
 2190      616C5F74 
 2190      696D6572 
 2190      735F6C69 
 2191              	.LASF100:
ARM GAS  /var/folders/m4/4md61f0s1_g0rzfghffqnxvr0000gn/T//cc8tewts.s 			page 42


 2192 031a 43465352 		.ascii	"CFSR\000"
 2192      00
 2193              	.LASF89:
 2194 031f 49414252 		.ascii	"IABR\000"
 2194      00
 2195              	.LASF33:
 2196 0324 705F6F6C 		.ascii	"p_older\000"
 2196      64657200 
 2197              	.LASF140:
 2198 032c 474E5520 		.ascii	"GNU C99 5.2.1 20151202 (release) [ARM/embedded-5-br"
 2198      43393920 
 2198      352E322E 
 2198      31203230 
 2198      31353132 
 2199 035f 616E6368 		.ascii	"anch revision 231848] -mcpu=cortex-m4 -mfloat-abi=h"
 2199      20726576 
 2199      6973696F 
 2199      6E203233 
 2199      31383438 
 2200 0392 61726420 		.ascii	"ard -mfpu=fpv4-sp-d16 -mno-thumb-interwork -mthumb "
 2200      2D6D6670 
 2200      753D6670 
 2200      76342D73 
 2200      702D6431 
 2201 03c5 2D676764 		.ascii	"-ggdb -O2 -std=c99 -fomit-frame-pointer -falign-fun"
 2201      62202D4F 
 2201      32202D73 
 2201      74643D63 
 2201      3939202D 
 2202 03f8 6374696F 		.ascii	"ctions=16 -fsingle-precision-constant -ffunction-se"
 2202      6E733D31 
 2202      36202D66 
 2202      73696E67 
 2202      6C652D70 
 2203 042b 6374696F 		.ascii	"ctions -fdata-sections -fno-common\000"
 2203      6E73202D 
 2203      66646174 
 2203      612D7365 
 2203      6374696F 
 2204              	.LASF57:
 2205 044e 725F6374 		.ascii	"r_ctx\000"
 2205      7800
 2206              	.LASF115:
 2207 0454 746D5F63 		.ascii	"tm_calibration_t\000"
 2207      616C6962 
 2207      72617469 
 2207      6F6E5F74 
 2207      00
 2208              	.LASF83:
 2209 0465 49434552 		.ascii	"ICER\000"
 2209      00
 2210              	.LASF133:
 2211 046a 7072696F 		.ascii	"prio\000"
 2211      00
 2212              	.LASF59:
 2213 046f 725F6F6C 		.ascii	"r_older\000"
 2213      64657200 
ARM GAS  /var/folders/m4/4md61f0s1_g0rzfghffqnxvr0000gn/T//cc8tewts.s 			page 43


 2214              	.LASF11:
 2215 0477 5F5F7569 		.ascii	"__uint64_t\000"
 2215      6E743634 
 2215      5F7400
 2216              	.LASF20:
 2217 0482 74726566 		.ascii	"trefs_t\000"
 2217      735F7400 
 2218              	.LASF82:
 2219 048a 52455345 		.ascii	"RESERVED0\000"
 2219      52564544 
 2219      3000
 2220              	.LASF86:
 2221 0494 52455345 		.ascii	"RESERVED2\000"
 2221      52564544 
 2221      3200
 2222              	.LASF88:
 2223 049e 52455345 		.ascii	"RESERVED3\000"
 2223      52564544 
 2223      3300
 2224              	.LASF90:
 2225 04a8 52455345 		.ascii	"RESERVED4\000"
 2225      52564544 
 2225      3400
 2226              	.LASF29:
 2227 04b2 705F7072 		.ascii	"p_prev\000"
 2227      657600
 2228              	.LASF22:
 2229 04b9 74707269 		.ascii	"tprio_t\000"
 2229      6F5F7400 
 2230              	.LASF73:
 2231 04c1 63685F73 		.ascii	"ch_system_debug\000"
 2231      79737465 
 2231      6D5F6465 
 2231      62756700 
 2232              	.LASF132:
 2233 04d1 5F426F6F 		.ascii	"_Bool\000"
 2233      6C00
 2234              	.LASF14:
 2235 04d7 696E7433 		.ascii	"int32_t\000"
 2235      325F7400 
 2236              	.LASF2:
 2237 04df 756E7369 		.ascii	"unsigned char\000"
 2237      676E6564 
 2237      20636861 
 2237      7200
 2238              	.LASF99:
 2239 04ed 53484353 		.ascii	"SHCSR\000"
 2239      5200
 2240              	.LASF139:
 2241 04f3 49544D5F 		.ascii	"ITM_RxBuffer\000"
 2241      52784275 
 2241      66666572 
 2241      00
 2242              	.LASF35:
 2243 0500 705F7374 		.ascii	"p_state\000"
 2243      61746500 
 2244              	.LASF44:
ARM GAS  /var/folders/m4/4md61f0s1_g0rzfghffqnxvr0000gn/T//cc8tewts.s 			page 44


 2245 0508 705F6D74 		.ascii	"p_mtxlist\000"
 2245      786C6973 
 2245      7400
 2246              	.LASF3:
 2247 0512 73686F72 		.ascii	"short int\000"
 2247      7420696E 
 2247      7400
 2248              	.LASF81:
 2249 051c 49534552 		.ascii	"ISER\000"
 2249      00
 2250              	.LASF94:
 2251 0521 4E564943 		.ascii	"NVIC_Type\000"
 2251      5F547970 
 2251      6500
 2252              	.LASF38:
 2253 052b 705F7072 		.ascii	"p_preempt\000"
 2253      65656D70 
 2253      7400
 2254              	.LASF136:
 2255 0535 6E766963 		.ascii	"nvicSetSystemHandlerPriority\000"
 2255      53657453 
 2255      79737465 
 2255      6D48616E 
 2255      646C6572 
 2256              	.LASF56:
 2257 0552 725F7072 		.ascii	"r_prio\000"
 2257      696F00
 2258              	.LASF122:
 2259 0559 65776D61 		.ascii	"ewmask\000"
 2259      736B00
 2260              	.LASF28:
 2261 0560 705F6E65 		.ascii	"p_next\000"
 2261      787400
 2262              	.LASF36:
 2263 0567 705F666C 		.ascii	"p_flags\000"
 2263      61677300 
 2264              	.LASF143:
 2265 056f 5F5F6675 		.ascii	"__func__\000"
 2265      6E635F5F 
 2265      00
 2266              	.LASF4:
 2267 0578 73686F72 		.ascii	"short unsigned int\000"
 2267      7420756E 
 2267      7369676E 
 2267      65642069 
 2267      6E7400
 2268              	.LASF63:
 2269 058b 63685F76 		.ascii	"ch_virtual_timer\000"
 2269      69727475 
 2269      616C5F74 
 2269      696D6572 
 2269      00
 2270              	.LASF123:
 2271 059c 63685F73 		.ascii	"ch_semaphore\000"
 2271      656D6170 
 2271      686F7265 
 2271      00
ARM GAS  /var/folders/m4/4md61f0s1_g0rzfghffqnxvr0000gn/T//cc8tewts.s 			page 45


 2272              	.LASF43:
 2273 05a9 705F6570 		.ascii	"p_epending\000"
 2273      656E6469 
 2273      6E6700
 2274              	.LASF91:
 2275 05b4 52455345 		.ascii	"RESERVED5\000"
 2275      52564544 
 2275      3500
 2276              	.LASF15:
 2277 05be 75696E74 		.ascii	"uint32_t\000"
 2277      33325F74 
 2277      00
 2278              	.LASF121:
 2279 05c7 77746D74 		.ascii	"wtmtxp\000"
 2279      787000
 2280              	.LASF55:
 2281 05ce 725F7175 		.ascii	"r_queue\000"
 2281      65756500 
 2282              	.LASF50:
 2283 05d6 63685F74 		.ascii	"ch_threads_list\000"
 2283      68726561 
 2283      64735F6C 
 2283      69737400 
 2284              	.LASF9:
 2285 05e6 6C6F6E67 		.ascii	"long unsigned int\000"
 2285      20756E73 
 2285      69676E65 
 2285      6420696E 
 2285      7400
 2286              	.LASF60:
 2287 05f8 725F6375 		.ascii	"r_current\000"
 2287      7272656E 
 2287      7400
 2288              	.LASF130:
 2289 0602 63686172 		.ascii	"char\000"
 2289      00
 2290              	.LASF27:
 2291 0607 74687265 		.ascii	"thread_t\000"
 2291      61645F74 
 2291      00
 2292              	.LASF129:
 2293 0610 6D5F6E65 		.ascii	"m_next\000"
 2293      787400
 2294              	.LASF26:
 2295 0617 73797374 		.ascii	"systime_t\000"
 2295      696D655F 
 2295      7400
 2296              	.LASF45:
 2297 0621 705F7265 		.ascii	"p_realprio\000"
 2297      616C7072 
 2297      696F00
 2298              	.LASF61:
 2299 062c 76746675 		.ascii	"vtfunc_t\000"
 2299      6E635F74 
 2299      00
 2300              	.LASF8:
 2301 0635 5F5F7569 		.ascii	"__uint32_t\000"
ARM GAS  /var/folders/m4/4md61f0s1_g0rzfghffqnxvr0000gn/T//cc8tewts.s 			page 46


 2301      6E743332 
 2301      5F7400
 2302              	.LASF74:
 2303 0640 70616E69 		.ascii	"panic_msg\000"
 2303      635F6D73 
 2303      6700
 2304              	.LASF114:
 2305 064a 6F666673 		.ascii	"offset\000"
 2305      657400
 2306              	.LASF112:
 2307 0651 636F6E74 		.ascii	"context\000"
 2307      65787400 
 2308              	.LASF17:
 2309 0659 7274636E 		.ascii	"rtcnt_t\000"
 2309      745F7400 
 2310              	.LASF68:
 2311 0661 76745F70 		.ascii	"vt_par\000"
 2311      617200
 2312              	.LASF51:
 2313 0668 74687265 		.ascii	"threads_queue_t\000"
 2313      6164735F 
 2313      71756575 
 2313      655F7400 
 2314              	.LASF126:
 2315 0678 63685F6D 		.ascii	"ch_mutex\000"
 2315      75746578 
 2315      00
 2316              	.LASF37:
 2317 0681 705F7265 		.ascii	"p_refs\000"
 2317      667300
 2318              	.LASF106:
 2319 0688 4D4D4652 		.ascii	"MMFR\000"
 2319      00
 2320              	.LASF77:
 2321 068d 726C6973 		.ascii	"rlist\000"
 2321      7400
 2322              	.LASF13:
 2323 0693 75696E74 		.ascii	"uint8_t\000"
 2323      385F7400 
 2324              	.LASF84:
 2325 069b 52534552 		.ascii	"RSERVED1\000"
 2325      56454431 
 2325      00
 2326              	.LASF92:
 2327 06a4 53544952 		.ascii	"STIR\000"
 2327      00
 2328              	.LASF118:
 2329 06a9 77746F62 		.ascii	"wtobjp\000"
 2329      6A7000
 2330              	.LASF34:
 2331 06b0 705F6E61 		.ascii	"p_name\000"
 2331      6D6500
 2332              	.LASF42:
 2333 06b7 705F6D73 		.ascii	"p_msg\000"
 2333      6700
 2334              	.LASF108:
 2335 06bd 43504143 		.ascii	"CPACR\000"
ARM GAS  /var/folders/m4/4md61f0s1_g0rzfghffqnxvr0000gn/T//cc8tewts.s 			page 47


 2335      5200
 2336              	.LASF101:
 2337 06c3 48465352 		.ascii	"HFSR\000"
 2337      00
 2338              	.LASF128:
 2339 06c8 6D5F6F77 		.ascii	"m_owner\000"
 2339      6E657200 
 2340              	.LASF31:
 2341 06d0 705F6374 		.ascii	"p_ctx\000"
 2341      7800
 2342              	.LASF67:
 2343 06d6 76745F66 		.ascii	"vt_func\000"
 2343      756E6300 
 2344              		.ident	"GCC: (GNU Tools for ARM Embedded Processors) 5.2.1 20151202 (release) [ARM/embedded-5-bran
ARM GAS  /var/folders/m4/4md61f0s1_g0rzfghffqnxvr0000gn/T//cc8tewts.s 			page 48


DEFINED SYMBOLS
                            *ABS*:0000000000000000 nvic.c
/var/folders/m4/4md61f0s1_g0rzfghffqnxvr0000gn/T//cc8tewts.s:22     .text.nvicEnableVector:0000000000000000 $t
/var/folders/m4/4md61f0s1_g0rzfghffqnxvr0000gn/T//cc8tewts.s:28     .text.nvicEnableVector:0000000000000000 nvicEnableVector
/var/folders/m4/4md61f0s1_g0rzfghffqnxvr0000gn/T//cc8tewts.s:71     .text.nvicDisableVector:0000000000000000 $t
/var/folders/m4/4md61f0s1_g0rzfghffqnxvr0000gn/T//cc8tewts.s:77     .text.nvicDisableVector:0000000000000000 nvicDisableVector
/var/folders/m4/4md61f0s1_g0rzfghffqnxvr0000gn/T//cc8tewts.s:115    .text.nvicDisableVector:0000000000000024 $d
/var/folders/m4/4md61f0s1_g0rzfghffqnxvr0000gn/T//cc8tewts.s:120    .text.nvicSetSystemHandlerPriority:0000000000000000 $t
/var/folders/m4/4md61f0s1_g0rzfghffqnxvr0000gn/T//cc8tewts.s:126    .text.nvicSetSystemHandlerPriority:0000000000000000 nvicSetSystemHandlerPriority
/var/folders/m4/4md61f0s1_g0rzfghffqnxvr0000gn/T//cc8tewts.s:148    .text.nvicClearPending:0000000000000000 $t
/var/folders/m4/4md61f0s1_g0rzfghffqnxvr0000gn/T//cc8tewts.s:154    .text.nvicClearPending:0000000000000000 nvicClearPending
/var/folders/m4/4md61f0s1_g0rzfghffqnxvr0000gn/T//cc8tewts.s:175    .text.nvicClearPending:0000000000000018 $d
                     .debug_frame:0000000000000010 $d

NO UNDEFINED SYMBOLS
