ARM GAS  /var/folders/m4/4md61f0s1_g0rzfghffqnxvr0000gn/T//cc02JlWH.s 			page 1


   1              		.syntax unified
   2              		.cpu cortex-m4
   3              		.eabi_attribute 27, 1
   4              		.eabi_attribute 28, 1
   5              		.fpu fpv4-sp-d16
   6              		.eabi_attribute 20, 1
   7              		.eabi_attribute 21, 1
   8              		.eabi_attribute 23, 3
   9              		.eabi_attribute 24, 1
  10              		.eabi_attribute 25, 1
  11              		.eabi_attribute 26, 1
  12              		.eabi_attribute 30, 2
  13              		.eabi_attribute 34, 1
  14              		.eabi_attribute 18, 4
  15              		.thumb
  16              		.syntax unified
  17              		.file	"pal.c"
  18              		.text
  19              	.Ltext0:
  20              		.cfi_sections	.debug_frame
  21              		.section	.text.palReadBus,"ax",%progbits
  22              		.align	2
  23              		.p2align 4,,15
  24              		.global	palReadBus
  25              		.thumb
  26              		.thumb_func
  27              		.type	palReadBus, %function
  28              	palReadBus:
  29              	.LFB268:
  30              		.file 1 "ChibiOS_16.1.4/os/hal/src/pal.c"
  31              		.loc 1 65 0
  32              		.cfi_startproc
  33              		@ args = 0, pretend = 0, frame = 0
  34              		@ frame_needed = 0, uses_anonymous_args = 0
  35              		@ link register save eliminated.
  36              	.LVL0:
  37              		.loc 1 69 0
  38 0000 0368     		ldr	r3, [r0]
  39 0002 8268     		ldr	r2, [r0, #8]
  40 0004 1B69     		ldr	r3, [r3, #16]
  41 0006 4068     		ldr	r0, [r0, #4]
  42              	.LVL1:
  43 0008 D340     		lsrs	r3, r3, r2
  44              		.loc 1 70 0
  45 000a 1840     		ands	r0, r0, r3
  46 000c 7047     		bx	lr
  47              		.cfi_endproc
  48              	.LFE268:
  49              		.size	palReadBus, .-palReadBus
  50 000e 00BF     		.section	.text.palWriteBus,"ax",%progbits
  51              		.align	2
  52              		.p2align 4,,15
  53              		.global	palWriteBus
  54              		.thumb
  55              		.thumb_func
  56              		.type	palWriteBus, %function
  57              	palWriteBus:
ARM GAS  /var/folders/m4/4md61f0s1_g0rzfghffqnxvr0000gn/T//cc02JlWH.s 			page 2


  58              	.LFB269:
  59              		.loc 1 90 0
  60              		.cfi_startproc
  61              		@ args = 0, pretend = 0, frame = 0
  62              		@ frame_needed = 0, uses_anonymous_args = 0
  63              		@ link register save eliminated.
  64              	.LVL2:
  65 0000 10B4     		push	{r4}
  66              		.cfi_def_cfa_offset 4
  67              		.cfi_offset 4, -4
  68              		.loc 1 94 0
  69 0002 19C8     		ldmia	r0, {r0, r3, r4}
  70              	.LVL3:
  71 0004 23EA0102 		bic	r2, r3, r1
  72 0008 1940     		ands	r1, r1, r3
  73              	.LVL4:
  74 000a 04F11003 		add	r3, r4, #16
  75 000e A140     		lsls	r1, r1, r4
  76 0010 02FA03F3 		lsl	r3, r2, r3
  77 0014 0B43     		orrs	r3, r3, r1
  78 0016 8361     		str	r3, [r0, #24]
  79              		.loc 1 95 0
  80 0018 5DF8044B 		ldr	r4, [sp], #4
  81              		.cfi_restore 4
  82              		.cfi_def_cfa_offset 0
  83 001c 7047     		bx	lr
  84              		.cfi_endproc
  85              	.LFE269:
  86              		.size	palWriteBus, .-palWriteBus
  87 001e 00BF     		.section	.text.palSetBusMode,"ax",%progbits
  88              		.align	2
  89              		.p2align 4,,15
  90              		.global	palSetBusMode
  91              		.thumb
  92              		.thumb_func
  93              		.type	palSetBusMode, %function
  94              	palSetBusMode:
  95              	.LFB270:
  96              		.loc 1 113 0
  97              		.cfi_startproc
  98              		@ args = 0, pretend = 0, frame = 0
  99              		@ frame_needed = 0, uses_anonymous_args = 0
 100              		@ link register save eliminated.
 101              	.LVL5:
 102              		.loc 1 117 0
 103 0000 0A46     		mov	r2, r1
 104 0002 0BC8     		ldmia	r0, {r0, r1, r3}
 105              	.LVL6:
 106 0004 9940     		lsls	r1, r1, r3
 107 0006 FFF7FEBF 		b	_pal_lld_setgroupmode
 108              	.LVL7:
 109              		.cfi_endproc
 110              	.LFE270:
 111              		.size	palSetBusMode, .-palSetBusMode
 112 000a 00BF     		.text
 113              	.Letext0:
 114              		.file 2 "/opt/homebrew-cask/Caskroom/gcc-arm-embedded/5_2-2015q4,20151219/gcc-arm-none-eabi-5_2-20
ARM GAS  /var/folders/m4/4md61f0s1_g0rzfghffqnxvr0000gn/T//cc02JlWH.s 			page 3


 115              		.file 3 "/opt/homebrew-cask/Caskroom/gcc-arm-embedded/5_2-2015q4,20151219/gcc-arm-none-eabi-5_2-20
 116              		.file 4 "/opt/homebrew-cask/Caskroom/gcc-arm-embedded/5_2-2015q4,20151219/gcc-arm-none-eabi-5_2-20
 117              		.file 5 "ChibiOS_16.1.4/os/rt/ports/ARMCMx/compilers/GCC/chtypes.h"
 118              		.file 6 "ChibiOS_16.1.4/os/rt/include/chsystypes.h"
 119              		.file 7 "ChibiOS_16.1.4/os/rt/include/chschd.h"
 120              		.file 8 "ChibiOS_16.1.4/os/rt/ports/ARMCMx/chcore.h"
 121              		.file 9 "ChibiOS_16.1.4/os/rt/ports/ARMCMx/chcore_v7m.h"
 122              		.file 10 "ChibiOS_16.1.4/os/rt/include/chtm.h"
 123              		.file 11 "ChibiOS_16.1.4/os/rt/include/chsem.h"
 124              		.file 12 "ChibiOS_16.1.4/os/rt/include/chmtx.h"
 125              		.file 13 "ChibiOS_16.1.4/os/hal/ports/STM32/LLD/GPIOv2/pal_lld.h"
 126              		.file 14 "ChibiOS_16.1.4/os/hal/include/pal.h"
 127              		.file 15 "ChibiOS_16.1.4/os/ext/CMSIS/include/core_cm4.h"
 128              		.section	.debug_info,"",%progbits
 129              	.Ldebug_info0:
 130 0000 9C090000 		.4byte	0x99c
 131 0004 0400     		.2byte	0x4
 132 0006 00000000 		.4byte	.Ldebug_abbrev0
 133 000a 04       		.byte	0x4
 134 000b 01       		.uleb128 0x1
 135 000c 5C040000 		.4byte	.LASF130
 136 0010 0C       		.byte	0xc
 137 0011 BF020000 		.4byte	.LASF131
 138 0015 EA010000 		.4byte	.LASF132
 139 0019 00000000 		.4byte	.Ldebug_ranges0+0
 140 001d 00000000 		.4byte	0
 141 0021 00000000 		.4byte	.Ldebug_line0
 142 0025 02       		.uleb128 0x2
 143 0026 04       		.byte	0x4
 144 0027 05       		.byte	0x5
 145 0028 696E7400 		.ascii	"int\000"
 146 002c 03       		.uleb128 0x3
 147 002d 04       		.byte	0x4
 148 002e 07       		.byte	0x7
 149 002f 7C010000 		.4byte	.LASF0
 150 0033 03       		.uleb128 0x3
 151 0034 01       		.byte	0x1
 152 0035 06       		.byte	0x6
 153 0036 DC000000 		.4byte	.LASF1
 154 003a 04       		.uleb128 0x4
 155 003b 23000000 		.4byte	.LASF4
 156 003f 02       		.byte	0x2
 157 0040 1D       		.byte	0x1d
 158 0041 45000000 		.4byte	0x45
 159 0045 03       		.uleb128 0x3
 160 0046 01       		.byte	0x1
 161 0047 08       		.byte	0x8
 162 0048 74030000 		.4byte	.LASF2
 163 004c 03       		.uleb128 0x3
 164 004d 02       		.byte	0x2
 165 004e 05       		.byte	0x5
 166 004f 8C030000 		.4byte	.LASF3
 167 0053 04       		.uleb128 0x4
 168 0054 6D050000 		.4byte	.LASF5
 169 0058 02       		.byte	0x2
 170 0059 2B       		.byte	0x2b
 171 005a 5E000000 		.4byte	0x5e
ARM GAS  /var/folders/m4/4md61f0s1_g0rzfghffqnxvr0000gn/T//cc02JlWH.s 			page 4


 172 005e 03       		.uleb128 0x3
 173 005f 02       		.byte	0x2
 174 0060 07       		.byte	0x7
 175 0061 C7010000 		.4byte	.LASF6
 176 0065 04       		.uleb128 0x4
 177 0066 4D020000 		.4byte	.LASF7
 178 006a 02       		.byte	0x2
 179 006b 3F       		.byte	0x3f
 180 006c 70000000 		.4byte	0x70
 181 0070 03       		.uleb128 0x3
 182 0071 04       		.byte	0x4
 183 0072 05       		.byte	0x5
 184 0073 13010000 		.4byte	.LASF8
 185 0077 04       		.uleb128 0x4
 186 0078 A6050000 		.4byte	.LASF9
 187 007c 02       		.byte	0x2
 188 007d 41       		.byte	0x41
 189 007e 82000000 		.4byte	0x82
 190 0082 03       		.uleb128 0x3
 191 0083 04       		.byte	0x4
 192 0084 07       		.byte	0x7
 193 0085 45040000 		.4byte	.LASF10
 194 0089 03       		.uleb128 0x3
 195 008a 08       		.byte	0x8
 196 008b 05       		.byte	0x5
 197 008c CE000000 		.4byte	.LASF11
 198 0090 04       		.uleb128 0x4
 199 0091 71020000 		.4byte	.LASF12
 200 0095 02       		.byte	0x2
 201 0096 5B       		.byte	0x5b
 202 0097 9B000000 		.4byte	0x9b
 203 009b 03       		.uleb128 0x3
 204 009c 08       		.byte	0x8
 205 009d 07       		.byte	0x7
 206 009e 62000000 		.4byte	.LASF13
 207 00a2 04       		.uleb128 0x4
 208 00a3 31060000 		.4byte	.LASF14
 209 00a7 03       		.byte	0x3
 210 00a8 14       		.byte	0x14
 211 00a9 3A000000 		.4byte	0x3a
 212 00ad 04       		.uleb128 0x4
 213 00ae 91010000 		.4byte	.LASF15
 214 00b2 03       		.byte	0x3
 215 00b3 1A       		.byte	0x1a
 216 00b4 53000000 		.4byte	0x53
 217 00b8 04       		.uleb128 0x4
 218 00b9 6C030000 		.4byte	.LASF16
 219 00bd 03       		.byte	0x3
 220 00be 1F       		.byte	0x1f
 221 00bf 65000000 		.4byte	0x65
 222 00c3 04       		.uleb128 0x4
 223 00c4 1D040000 		.4byte	.LASF17
 224 00c8 03       		.byte	0x3
 225 00c9 20       		.byte	0x20
 226 00ca 77000000 		.4byte	0x77
 227 00ce 04       		.uleb128 0x4
 228 00cf 1A000000 		.4byte	.LASF18
ARM GAS  /var/folders/m4/4md61f0s1_g0rzfghffqnxvr0000gn/T//cc02JlWH.s 			page 5


 229 00d3 03       		.byte	0x3
 230 00d4 26       		.byte	0x26
 231 00d5 90000000 		.4byte	0x90
 232 00d9 04       		.uleb128 0x4
 233 00da BD030000 		.4byte	.LASF19
 234 00de 04       		.byte	0x4
 235 00df 34       		.byte	0x34
 236 00e0 2C000000 		.4byte	0x2c
 237 00e4 04       		.uleb128 0x4
 238 00e5 EB050000 		.4byte	.LASF20
 239 00e9 05       		.byte	0x5
 240 00ea 39       		.byte	0x39
 241 00eb C3000000 		.4byte	0xc3
 242 00ef 04       		.uleb128 0x4
 243 00f0 2B020000 		.4byte	.LASF21
 244 00f4 05       		.byte	0x5
 245 00f5 3C       		.byte	0x3c
 246 00f6 A2000000 		.4byte	0xa2
 247 00fa 04       		.uleb128 0x4
 248 00fb 1C010000 		.4byte	.LASF22
 249 00ff 05       		.byte	0x5
 250 0100 3D       		.byte	0x3d
 251 0101 A2000000 		.4byte	0xa2
 252 0105 04       		.uleb128 0x4
 253 0106 2F030000 		.4byte	.LASF23
 254 010a 05       		.byte	0x5
 255 010b 3E       		.byte	0x3e
 256 010c A2000000 		.4byte	0xa2
 257 0110 04       		.uleb128 0x4
 258 0111 04010000 		.4byte	.LASF24
 259 0115 05       		.byte	0x5
 260 0116 3F       		.byte	0x3f
 261 0117 A2000000 		.4byte	0xa2
 262 011b 04       		.uleb128 0x4
 263 011c 4E030000 		.4byte	.LASF25
 264 0120 05       		.byte	0x5
 265 0121 40       		.byte	0x40
 266 0122 C3000000 		.4byte	0xc3
 267 0126 04       		.uleb128 0x4
 268 0127 E4010000 		.4byte	.LASF26
 269 012b 05       		.byte	0x5
 270 012c 41       		.byte	0x41
 271 012d B8000000 		.4byte	0xb8
 272 0131 04       		.uleb128 0x4
 273 0132 41020000 		.4byte	.LASF27
 274 0136 05       		.byte	0x5
 275 0137 43       		.byte	0x43
 276 0138 C3000000 		.4byte	0xc3
 277 013c 04       		.uleb128 0x4
 278 013d 76010000 		.4byte	.LASF28
 279 0141 05       		.byte	0x5
 280 0142 45       		.byte	0x45
 281 0143 B8000000 		.4byte	0xb8
 282 0147 04       		.uleb128 0x4
 283 0148 88050000 		.4byte	.LASF29
 284 014c 06       		.byte	0x6
 285 014d 33       		.byte	0x33
ARM GAS  /var/folders/m4/4md61f0s1_g0rzfghffqnxvr0000gn/T//cc02JlWH.s 			page 6


 286 014e C3000000 		.4byte	0xc3
 287 0152 04       		.uleb128 0x4
 288 0153 78050000 		.4byte	.LASF30
 289 0157 06       		.byte	0x6
 290 0158 3F       		.byte	0x3f
 291 0159 5D010000 		.4byte	0x15d
 292 015d 05       		.uleb128 0x5
 293 015e DA010000 		.4byte	.LASF52
 294 0162 48       		.byte	0x48
 295 0163 07       		.byte	0x7
 296 0164 C2       		.byte	0xc2
 297 0165 62020000 		.4byte	0x262
 298 0169 06       		.uleb128 0x6
 299 016a B6030000 		.4byte	.LASF31
 300 016e 07       		.byte	0x7
 301 016f C3       		.byte	0xc3
 302 0170 6D020000 		.4byte	0x26d
 303 0174 00       		.byte	0
 304 0175 06       		.uleb128 0x6
 305 0176 47030000 		.4byte	.LASF32
 306 017a 07       		.byte	0x7
 307 017b C5       		.byte	0xc5
 308 017c 6D020000 		.4byte	0x26d
 309 0180 04       		.byte	0x4
 310 0181 06       		.uleb128 0x6
 311 0182 C7000000 		.4byte	.LASF33
 312 0186 07       		.byte	0x7
 313 0187 C7       		.byte	0xc7
 314 0188 1B010000 		.4byte	0x11b
 315 018c 08       		.byte	0x8
 316 018d 06       		.uleb128 0x6
 317 018e 69060000 		.4byte	.LASF34
 318 0192 07       		.byte	0x7
 319 0193 C8       		.byte	0xc8
 320 0194 A2040000 		.4byte	0x4a2
 321 0198 0C       		.byte	0xc
 322 0199 06       		.uleb128 0x6
 323 019a 25010000 		.4byte	.LASF35
 324 019e 07       		.byte	0x7
 325 019f CA       		.byte	0xca
 326 01a0 6D020000 		.4byte	0x26d
 327 01a4 10       		.byte	0x10
 328 01a5 06       		.uleb128 0x6
 329 01a6 DF020000 		.4byte	.LASF36
 330 01aa 07       		.byte	0x7
 331 01ab CB       		.byte	0xcb
 332 01ac 6D020000 		.4byte	0x26d
 333 01b0 14       		.byte	0x14
 334 01b1 06       		.uleb128 0x6
 335 01b2 40060000 		.4byte	.LASF37
 336 01b6 07       		.byte	0x7
 337 01b7 D2       		.byte	0xd2
 338 01b8 F0060000 		.4byte	0x6f0
 339 01bc 18       		.byte	0x18
 340 01bd 06       		.uleb128 0x6
 341 01be 96030000 		.4byte	.LASF38
 342 01c2 07       		.byte	0x7
ARM GAS  /var/folders/m4/4md61f0s1_g0rzfghffqnxvr0000gn/T//cc02JlWH.s 			page 7


 343 01c3 DD       		.byte	0xdd
 344 01c4 FA000000 		.4byte	0xfa
 345 01c8 1C       		.byte	0x1c
 346 01c9 06       		.uleb128 0x6
 347 01ca CA030000 		.4byte	.LASF39
 348 01ce 07       		.byte	0x7
 349 01cf E1       		.byte	0xe1
 350 01d0 EF000000 		.4byte	0xef
 351 01d4 1D       		.byte	0x1d
 352 01d5 06       		.uleb128 0x6
 353 01d6 1F060000 		.4byte	.LASF40
 354 01da 07       		.byte	0x7
 355 01db E6       		.byte	0xe6
 356 01dc 05010000 		.4byte	0x105
 357 01e0 1E       		.byte	0x1e
 358 01e1 06       		.uleb128 0x6
 359 01e2 9E030000 		.4byte	.LASF41
 360 01e6 07       		.byte	0x7
 361 01e7 EC       		.byte	0xec
 362 01e8 10010000 		.4byte	0x110
 363 01ec 1F       		.byte	0x1f
 364 01ed 06       		.uleb128 0x6
 365 01ee 9A010000 		.4byte	.LASF42
 366 01f2 07       		.byte	0x7
 367 01f3 F3       		.byte	0xf3
 368 01f4 02070000 		.4byte	0x702
 369 01f8 20       		.byte	0x20
 370 01f9 07       		.uleb128 0x7
 371 01fa 705F7500 		.ascii	"p_u\000"
 372 01fe 07       		.byte	0x7
 373 01ff 3101     		.2byte	0x131
 374 0201 2B060000 		.4byte	0x62b
 375 0205 24       		.byte	0x24
 376 0206 08       		.uleb128 0x8
 377 0207 7C020000 		.4byte	.LASF43
 378 020b 07       		.byte	0x7
 379 020c 3601     		.2byte	0x136
 380 020e 73020000 		.4byte	0x273
 381 0212 28       		.byte	0x28
 382 0213 08       		.uleb128 0x8
 383 0214 B1010000 		.4byte	.LASF44
 384 0218 07       		.byte	0x7
 385 0219 3C01     		.2byte	0x13c
 386 021b 97020000 		.4byte	0x297
 387 021f 2C       		.byte	0x2c
 388 0220 08       		.uleb128 0x8
 389 0221 52060000 		.4byte	.LASF45
 390 0225 07       		.byte	0x7
 391 0226 4001     		.2byte	0x140
 392 0228 26010000 		.4byte	0x126
 393 022c 34       		.byte	0x34
 394 022d 08       		.uleb128 0x8
 395 022e 12040000 		.4byte	.LASF46
 396 0232 07       		.byte	0x7
 397 0233 4601     		.2byte	0x146
 398 0235 31010000 		.4byte	0x131
 399 0239 38       		.byte	0x38
ARM GAS  /var/folders/m4/4md61f0s1_g0rzfghffqnxvr0000gn/T//cc02JlWH.s 			page 8


 400 023a 08       		.uleb128 0x8
 401 023b 82030000 		.4byte	.LASF47
 402 023f 07       		.byte	0x7
 403 0240 4D01     		.2byte	0x14d
 404 0242 EA060000 		.4byte	0x6ea
 405 0246 3C       		.byte	0x3c
 406 0247 08       		.uleb128 0x8
 407 0248 92050000 		.4byte	.LASF48
 408 024c 07       		.byte	0x7
 409 024d 5101     		.2byte	0x151
 410 024f 1B010000 		.4byte	0x11b
 411 0253 40       		.byte	0x40
 412 0254 08       		.uleb128 0x8
 413 0255 ED000000 		.4byte	.LASF49
 414 0259 07       		.byte	0x7
 415 025a 5801     		.2byte	0x158
 416 025c 4A030000 		.4byte	0x34a
 417 0260 44       		.byte	0x44
 418 0261 00       		.byte	0
 419 0262 04       		.uleb128 0x4
 420 0263 8F020000 		.4byte	.LASF50
 421 0267 06       		.byte	0x6
 422 0268 44       		.byte	0x44
 423 0269 6D020000 		.4byte	0x26d
 424 026d 09       		.uleb128 0x9
 425 026e 04       		.byte	0x4
 426 026f 52010000 		.4byte	0x152
 427 0273 04       		.uleb128 0x4
 428 0274 62020000 		.4byte	.LASF51
 429 0278 06       		.byte	0x6
 430 0279 49       		.byte	0x49
 431 027a 7E020000 		.4byte	0x27e
 432 027e 05       		.uleb128 0x5
 433 027f 35040000 		.4byte	.LASF53
 434 0283 04       		.byte	0x4
 435 0284 07       		.byte	0x7
 436 0285 B0       		.byte	0xb0
 437 0286 97020000 		.4byte	0x297
 438 028a 06       		.uleb128 0x6
 439 028b B6030000 		.4byte	.LASF31
 440 028f 07       		.byte	0x7
 441 0290 B1       		.byte	0xb1
 442 0291 6D020000 		.4byte	0x26d
 443 0295 00       		.byte	0
 444 0296 00       		.byte	0
 445 0297 04       		.uleb128 0x4
 446 0298 06060000 		.4byte	.LASF54
 447 029c 06       		.byte	0x6
 448 029d 50       		.byte	0x50
 449 029e A2020000 		.4byte	0x2a2
 450 02a2 05       		.uleb128 0x5
 451 02a3 B6000000 		.4byte	.LASF55
 452 02a7 08       		.byte	0x8
 453 02a8 07       		.byte	0x7
 454 02a9 B7       		.byte	0xb7
 455 02aa C7020000 		.4byte	0x2c7
 456 02ae 06       		.uleb128 0x6
ARM GAS  /var/folders/m4/4md61f0s1_g0rzfghffqnxvr0000gn/T//cc02JlWH.s 			page 9


 457 02af B6030000 		.4byte	.LASF31
 458 02b3 07       		.byte	0x7
 459 02b4 B8       		.byte	0xb8
 460 02b5 6D020000 		.4byte	0x26d
 461 02b9 00       		.byte	0
 462 02ba 06       		.uleb128 0x6
 463 02bb 47030000 		.4byte	.LASF32
 464 02bf 07       		.byte	0x7
 465 02c0 B9       		.byte	0xb9
 466 02c1 6D020000 		.4byte	0x26d
 467 02c5 04       		.byte	0x4
 468 02c6 00       		.byte	0
 469 02c7 04       		.uleb128 0x4
 470 02c8 00000000 		.4byte	.LASF56
 471 02cc 06       		.byte	0x6
 472 02cd 57       		.byte	0x57
 473 02ce D2020000 		.4byte	0x2d2
 474 02d2 0A       		.uleb128 0xa
 475 02d3 33020000 		.4byte	.LASF57
 476 02d7 1C       		.byte	0x1c
 477 02d8 07       		.byte	0x7
 478 02d9 9001     		.2byte	0x190
 479 02db 2E030000 		.4byte	0x32e
 480 02df 08       		.uleb128 0x8
 481 02e0 2D040000 		.4byte	.LASF58
 482 02e4 07       		.byte	0x7
 483 02e5 9101     		.2byte	0x191
 484 02e7 97020000 		.4byte	0x297
 485 02eb 00       		.byte	0
 486 02ec 08       		.uleb128 0x8
 487 02ed A8030000 		.4byte	.LASF59
 488 02f1 07       		.byte	0x7
 489 02f2 9201     		.2byte	0x192
 490 02f4 1B010000 		.4byte	0x11b
 491 02f8 08       		.byte	0x8
 492 02f9 08       		.uleb128 0x8
 493 02fa E7020000 		.4byte	.LASF60
 494 02fe 07       		.byte	0x7
 495 02ff 9401     		.2byte	0x194
 496 0301 A2040000 		.4byte	0x4a2
 497 0305 0C       		.byte	0xc
 498 0306 08       		.uleb128 0x8
 499 0307 3D010000 		.4byte	.LASF61
 500 030b 07       		.byte	0x7
 501 030c 9701     		.2byte	0x197
 502 030e 6D020000 		.4byte	0x26d
 503 0312 10       		.byte	0x10
 504 0313 08       		.uleb128 0x8
 505 0314 08030000 		.4byte	.LASF62
 506 0318 07       		.byte	0x7
 507 0319 9801     		.2byte	0x198
 508 031b 6D020000 		.4byte	0x26d
 509 031f 14       		.byte	0x14
 510 0320 08       		.uleb128 0x8
 511 0321 FE020000 		.4byte	.LASF63
 512 0325 07       		.byte	0x7
 513 0326 9B01     		.2byte	0x19b
ARM GAS  /var/folders/m4/4md61f0s1_g0rzfghffqnxvr0000gn/T//cc02JlWH.s 			page 10


 514 0328 6D020000 		.4byte	0x26d
 515 032c 18       		.byte	0x18
 516 032d 00       		.byte	0
 517 032e 04       		.uleb128 0x4
 518 032f 9D050000 		.4byte	.LASF64
 519 0333 06       		.byte	0x6
 520 0334 5C       		.byte	0x5c
 521 0335 39030000 		.4byte	0x339
 522 0339 09       		.uleb128 0x9
 523 033a 04       		.byte	0x4
 524 033b 3F030000 		.4byte	0x33f
 525 033f 0B       		.uleb128 0xb
 526 0340 4A030000 		.4byte	0x34a
 527 0344 0C       		.uleb128 0xc
 528 0345 4A030000 		.4byte	0x34a
 529 0349 00       		.byte	0
 530 034a 0D       		.uleb128 0xd
 531 034b 04       		.byte	0x4
 532 034c 04       		.uleb128 0x4
 533 034d 37030000 		.4byte	.LASF65
 534 0351 06       		.byte	0x6
 535 0352 61       		.byte	0x61
 536 0353 57030000 		.4byte	0x357
 537 0357 0A       		.uleb128 0xa
 538 0358 F4030000 		.4byte	.LASF66
 539 035c 14       		.byte	0x14
 540 035d 07       		.byte	0x7
 541 035e 6B01     		.2byte	0x16b
 542 0360 A6030000 		.4byte	0x3a6
 543 0364 08       		.uleb128 0x8
 544 0365 89010000 		.4byte	.LASF67
 545 0369 07       		.byte	0x7
 546 036a 6C01     		.2byte	0x16c
 547 036c 07070000 		.4byte	0x707
 548 0370 00       		.byte	0
 549 0371 08       		.uleb128 0x8
 550 0372 53010000 		.4byte	.LASF68
 551 0376 07       		.byte	0x7
 552 0377 6D01     		.2byte	0x16d
 553 0379 07070000 		.4byte	0x707
 554 037d 04       		.byte	0x4
 555 037e 08       		.uleb128 0x8
 556 037f A8010000 		.4byte	.LASF69
 557 0383 07       		.byte	0x7
 558 0384 6E01     		.2byte	0x16e
 559 0386 47010000 		.4byte	0x147
 560 038a 08       		.byte	0x8
 561 038b 08       		.uleb128 0x8
 562 038c 6F060000 		.4byte	.LASF70
 563 0390 07       		.byte	0x7
 564 0391 6F01     		.2byte	0x16f
 565 0393 2E030000 		.4byte	0x32e
 566 0397 0C       		.byte	0xc
 567 0398 08       		.uleb128 0x8
 568 0399 F3050000 		.4byte	.LASF71
 569 039d 07       		.byte	0x7
 570 039e 7101     		.2byte	0x171
ARM GAS  /var/folders/m4/4md61f0s1_g0rzfghffqnxvr0000gn/T//cc02JlWH.s 			page 11


 571 03a0 4A030000 		.4byte	0x34a
 572 03a4 10       		.byte	0x10
 573 03a5 00       		.byte	0
 574 03a6 04       		.uleb128 0x4
 575 03a7 93000000 		.4byte	.LASF72
 576 03ab 06       		.byte	0x6
 577 03ac 66       		.byte	0x66
 578 03ad B1030000 		.4byte	0x3b1
 579 03b1 0A       		.uleb128 0xa
 580 03b2 A2020000 		.4byte	.LASF73
 581 03b6 10       		.byte	0x10
 582 03b7 07       		.byte	0x7
 583 03b8 7B01     		.2byte	0x17b
 584 03ba F3030000 		.4byte	0x3f3
 585 03be 08       		.uleb128 0x8
 586 03bf 89010000 		.4byte	.LASF67
 587 03c3 07       		.byte	0x7
 588 03c4 7C01     		.2byte	0x17c
 589 03c6 07070000 		.4byte	0x707
 590 03ca 00       		.byte	0
 591 03cb 08       		.uleb128 0x8
 592 03cc 53010000 		.4byte	.LASF68
 593 03d0 07       		.byte	0x7
 594 03d1 7E01     		.2byte	0x17e
 595 03d3 07070000 		.4byte	0x707
 596 03d7 04       		.byte	0x4
 597 03d8 08       		.uleb128 0x8
 598 03d9 A8010000 		.4byte	.LASF69
 599 03dd 07       		.byte	0x7
 600 03de 8001     		.2byte	0x180
 601 03e0 47010000 		.4byte	0x147
 602 03e4 08       		.byte	0x8
 603 03e5 08       		.uleb128 0x8
 604 03e6 47060000 		.4byte	.LASF74
 605 03ea 07       		.byte	0x7
 606 03eb 8201     		.2byte	0x182
 607 03ed 02070000 		.4byte	0x702
 608 03f1 0C       		.byte	0xc
 609 03f2 00       		.byte	0
 610 03f3 04       		.uleb128 0x4
 611 03f4 40000000 		.4byte	.LASF75
 612 03f8 06       		.byte	0x6
 613 03f9 6B       		.byte	0x6b
 614 03fa FE030000 		.4byte	0x3fe
 615 03fe 0A       		.uleb128 0xa
 616 03ff 56030000 		.4byte	.LASF76
 617 0403 04       		.byte	0x4
 618 0404 07       		.byte	0x7
 619 0405 A201     		.2byte	0x1a2
 620 0407 19040000 		.4byte	0x419
 621 040b 08       		.uleb128 0x8
 622 040c B1050000 		.4byte	.LASF77
 623 0410 07       		.byte	0x7
 624 0411 AA01     		.2byte	0x1aa
 625 0413 0D070000 		.4byte	0x70d
 626 0417 00       		.byte	0
 627 0418 00       		.byte	0
ARM GAS  /var/folders/m4/4md61f0s1_g0rzfghffqnxvr0000gn/T//cc02JlWH.s 			page 12


 628 0419 04       		.uleb128 0x4
 629 041a 1F020000 		.4byte	.LASF78
 630 041e 06       		.byte	0x6
 631 041f 70       		.byte	0x70
 632 0420 24040000 		.4byte	0x424
 633 0424 0E       		.uleb128 0xe
 634 0425 EA030000 		.4byte	.LASF79
 635 0429 5802     		.2byte	0x258
 636 042b 07       		.byte	0x7
 637 042c C201     		.2byte	0x1c2
 638 042e 80040000 		.4byte	0x480
 639 0432 08       		.uleb128 0x8
 640 0433 2B060000 		.4byte	.LASF80
 641 0437 07       		.byte	0x7
 642 0438 C601     		.2byte	0x1c6
 643 043a C7020000 		.4byte	0x2c7
 644 043e 00       		.byte	0
 645 043f 08       		.uleb128 0x8
 646 0440 FD000000 		.4byte	.LASF81
 647 0444 07       		.byte	0x7
 648 0445 CA01     		.2byte	0x1ca
 649 0447 A6030000 		.4byte	0x3a6
 650 044b 1C       		.byte	0x1c
 651 044c 07       		.uleb128 0x7
 652 044d 64626700 		.ascii	"dbg\000"
 653 0451 07       		.byte	0x7
 654 0452 CE01     		.2byte	0x1ce
 655 0454 F3030000 		.4byte	0x3f3
 656 0458 2C       		.byte	0x2c
 657 0459 08       		.uleb128 0x8
 658 045a 88000000 		.4byte	.LASF82
 659 045e 07       		.byte	0x7
 660 045f D201     		.2byte	0x1d2
 661 0461 52010000 		.4byte	0x152
 662 0465 30       		.byte	0x30
 663 0466 07       		.uleb128 0x7
 664 0467 746D00   		.ascii	"tm\000"
 665 046a 07       		.byte	0x7
 666 046b D701     		.2byte	0x1d7
 667 046d 20060000 		.4byte	0x620
 668 0471 78       		.byte	0x78
 669 0472 08       		.uleb128 0x8
 670 0473 DB030000 		.4byte	.LASF83
 671 0477 07       		.byte	0x7
 672 0478 E301     		.2byte	0x1e3
 673 047a 12070000 		.4byte	0x712
 674 047e 80       		.byte	0x80
 675 047f 00       		.byte	0
 676 0480 03       		.uleb128 0x3
 677 0481 04       		.byte	0x4
 678 0482 07       		.byte	0x7
 679 0483 86020000 		.4byte	.LASF84
 680 0487 0F       		.uleb128 0xf
 681 0488 C3000000 		.4byte	0xc3
 682 048c 04       		.uleb128 0x4
 683 048d 4A010000 		.4byte	.LASF85
 684 0491 08       		.byte	0x8
ARM GAS  /var/folders/m4/4md61f0s1_g0rzfghffqnxvr0000gn/T//cc02JlWH.s 			page 13


 685 0492 65       		.byte	0x65
 686 0493 4A030000 		.4byte	0x34a
 687 0497 04       		.uleb128 0x4
 688 0498 57020000 		.4byte	.LASF86
 689 049c 08       		.byte	0x8
 690 049d 6D       		.byte	0x6d
 691 049e CE000000 		.4byte	0xce
 692 04a2 05       		.uleb128 0x5
 693 04a3 CD050000 		.4byte	.LASF87
 694 04a7 04       		.byte	0x4
 695 04a8 08       		.byte	0x8
 696 04a9 89       		.byte	0x89
 697 04aa BB040000 		.4byte	0x4bb
 698 04ae 10       		.uleb128 0x10
 699 04af 72313300 		.ascii	"r13\000"
 700 04b3 08       		.byte	0x8
 701 04b4 8A       		.byte	0x8a
 702 04b5 05060000 		.4byte	0x605
 703 04b9 00       		.byte	0
 704 04ba 00       		.byte	0
 705 04bb 05       		.uleb128 0x5
 706 04bc 34000000 		.4byte	.LASF88
 707 04c0 64       		.byte	0x64
 708 04c1 09       		.byte	0x9
 709 04c2 FD       		.byte	0xfd
 710 04c3 05060000 		.4byte	0x605
 711 04c7 10       		.uleb128 0x10
 712 04c8 73313600 		.ascii	"s16\000"
 713 04cc 09       		.byte	0x9
 714 04cd FF       		.byte	0xff
 715 04ce 8C040000 		.4byte	0x48c
 716 04d2 00       		.byte	0
 717 04d3 07       		.uleb128 0x7
 718 04d4 73313700 		.ascii	"s17\000"
 719 04d8 09       		.byte	0x9
 720 04d9 0001     		.2byte	0x100
 721 04db 8C040000 		.4byte	0x48c
 722 04df 04       		.byte	0x4
 723 04e0 07       		.uleb128 0x7
 724 04e1 73313800 		.ascii	"s18\000"
 725 04e5 09       		.byte	0x9
 726 04e6 0101     		.2byte	0x101
 727 04e8 8C040000 		.4byte	0x48c
 728 04ec 08       		.byte	0x8
 729 04ed 07       		.uleb128 0x7
 730 04ee 73313900 		.ascii	"s19\000"
 731 04f2 09       		.byte	0x9
 732 04f3 0201     		.2byte	0x102
 733 04f5 8C040000 		.4byte	0x48c
 734 04f9 0C       		.byte	0xc
 735 04fa 07       		.uleb128 0x7
 736 04fb 73323000 		.ascii	"s20\000"
 737 04ff 09       		.byte	0x9
 738 0500 0301     		.2byte	0x103
 739 0502 8C040000 		.4byte	0x48c
 740 0506 10       		.byte	0x10
 741 0507 07       		.uleb128 0x7
ARM GAS  /var/folders/m4/4md61f0s1_g0rzfghffqnxvr0000gn/T//cc02JlWH.s 			page 14


 742 0508 73323100 		.ascii	"s21\000"
 743 050c 09       		.byte	0x9
 744 050d 0401     		.2byte	0x104
 745 050f 8C040000 		.4byte	0x48c
 746 0513 14       		.byte	0x14
 747 0514 07       		.uleb128 0x7
 748 0515 73323200 		.ascii	"s22\000"
 749 0519 09       		.byte	0x9
 750 051a 0501     		.2byte	0x105
 751 051c 8C040000 		.4byte	0x48c
 752 0520 18       		.byte	0x18
 753 0521 07       		.uleb128 0x7
 754 0522 73323300 		.ascii	"s23\000"
 755 0526 09       		.byte	0x9
 756 0527 0601     		.2byte	0x106
 757 0529 8C040000 		.4byte	0x48c
 758 052d 1C       		.byte	0x1c
 759 052e 07       		.uleb128 0x7
 760 052f 73323400 		.ascii	"s24\000"
 761 0533 09       		.byte	0x9
 762 0534 0701     		.2byte	0x107
 763 0536 8C040000 		.4byte	0x48c
 764 053a 20       		.byte	0x20
 765 053b 07       		.uleb128 0x7
 766 053c 73323500 		.ascii	"s25\000"
 767 0540 09       		.byte	0x9
 768 0541 0801     		.2byte	0x108
 769 0543 8C040000 		.4byte	0x48c
 770 0547 24       		.byte	0x24
 771 0548 07       		.uleb128 0x7
 772 0549 73323600 		.ascii	"s26\000"
 773 054d 09       		.byte	0x9
 774 054e 0901     		.2byte	0x109
 775 0550 8C040000 		.4byte	0x48c
 776 0554 28       		.byte	0x28
 777 0555 07       		.uleb128 0x7
 778 0556 73323700 		.ascii	"s27\000"
 779 055a 09       		.byte	0x9
 780 055b 0A01     		.2byte	0x10a
 781 055d 8C040000 		.4byte	0x48c
 782 0561 2C       		.byte	0x2c
 783 0562 07       		.uleb128 0x7
 784 0563 73323800 		.ascii	"s28\000"
 785 0567 09       		.byte	0x9
 786 0568 0B01     		.2byte	0x10b
 787 056a 8C040000 		.4byte	0x48c
 788 056e 30       		.byte	0x30
 789 056f 07       		.uleb128 0x7
 790 0570 73323900 		.ascii	"s29\000"
 791 0574 09       		.byte	0x9
 792 0575 0C01     		.2byte	0x10c
 793 0577 8C040000 		.4byte	0x48c
 794 057b 34       		.byte	0x34
 795 057c 07       		.uleb128 0x7
 796 057d 73333000 		.ascii	"s30\000"
 797 0581 09       		.byte	0x9
 798 0582 0D01     		.2byte	0x10d
ARM GAS  /var/folders/m4/4md61f0s1_g0rzfghffqnxvr0000gn/T//cc02JlWH.s 			page 15


 799 0584 8C040000 		.4byte	0x48c
 800 0588 38       		.byte	0x38
 801 0589 07       		.uleb128 0x7
 802 058a 73333100 		.ascii	"s31\000"
 803 058e 09       		.byte	0x9
 804 058f 0E01     		.2byte	0x10e
 805 0591 8C040000 		.4byte	0x48c
 806 0595 3C       		.byte	0x3c
 807 0596 07       		.uleb128 0x7
 808 0597 723400   		.ascii	"r4\000"
 809 059a 09       		.byte	0x9
 810 059b 1001     		.2byte	0x110
 811 059d 8C040000 		.4byte	0x48c
 812 05a1 40       		.byte	0x40
 813 05a2 07       		.uleb128 0x7
 814 05a3 723500   		.ascii	"r5\000"
 815 05a6 09       		.byte	0x9
 816 05a7 1101     		.2byte	0x111
 817 05a9 8C040000 		.4byte	0x48c
 818 05ad 44       		.byte	0x44
 819 05ae 07       		.uleb128 0x7
 820 05af 723600   		.ascii	"r6\000"
 821 05b2 09       		.byte	0x9
 822 05b3 1201     		.2byte	0x112
 823 05b5 8C040000 		.4byte	0x48c
 824 05b9 48       		.byte	0x48
 825 05ba 07       		.uleb128 0x7
 826 05bb 723700   		.ascii	"r7\000"
 827 05be 09       		.byte	0x9
 828 05bf 1301     		.2byte	0x113
 829 05c1 8C040000 		.4byte	0x48c
 830 05c5 4C       		.byte	0x4c
 831 05c6 07       		.uleb128 0x7
 832 05c7 723800   		.ascii	"r8\000"
 833 05ca 09       		.byte	0x9
 834 05cb 1401     		.2byte	0x114
 835 05cd 8C040000 		.4byte	0x48c
 836 05d1 50       		.byte	0x50
 837 05d2 07       		.uleb128 0x7
 838 05d3 723900   		.ascii	"r9\000"
 839 05d6 09       		.byte	0x9
 840 05d7 1501     		.2byte	0x115
 841 05d9 8C040000 		.4byte	0x48c
 842 05dd 54       		.byte	0x54
 843 05de 07       		.uleb128 0x7
 844 05df 72313000 		.ascii	"r10\000"
 845 05e3 09       		.byte	0x9
 846 05e4 1601     		.2byte	0x116
 847 05e6 8C040000 		.4byte	0x48c
 848 05ea 58       		.byte	0x58
 849 05eb 07       		.uleb128 0x7
 850 05ec 72313100 		.ascii	"r11\000"
 851 05f0 09       		.byte	0x9
 852 05f1 1701     		.2byte	0x117
 853 05f3 8C040000 		.4byte	0x48c
 854 05f7 5C       		.byte	0x5c
 855 05f8 07       		.uleb128 0x7
ARM GAS  /var/folders/m4/4md61f0s1_g0rzfghffqnxvr0000gn/T//cc02JlWH.s 			page 16


 856 05f9 6C7200   		.ascii	"lr\000"
 857 05fc 09       		.byte	0x9
 858 05fd 1801     		.2byte	0x118
 859 05ff 8C040000 		.4byte	0x48c
 860 0603 60       		.byte	0x60
 861 0604 00       		.byte	0
 862 0605 09       		.uleb128 0x9
 863 0606 04       		.byte	0x4
 864 0607 BB040000 		.4byte	0x4bb
 865 060b 11       		.uleb128 0x11
 866 060c 04       		.byte	0x4
 867 060d 0A       		.byte	0xa
 868 060e 38       		.byte	0x38
 869 060f 20060000 		.4byte	0x620
 870 0613 06       		.uleb128 0x6
 871 0614 BB050000 		.4byte	.LASF89
 872 0618 0A       		.byte	0xa
 873 0619 3C       		.byte	0x3c
 874 061a E4000000 		.4byte	0xe4
 875 061e 00       		.byte	0
 876 061f 00       		.byte	0
 877 0620 04       		.uleb128 0x4
 878 0621 ED020000 		.4byte	.LASF90
 879 0625 0A       		.byte	0xa
 880 0626 3D       		.byte	0x3d
 881 0627 0B060000 		.4byte	0x60b
 882 062b 12       		.uleb128 0x12
 883 062c 04       		.byte	0x4
 884 062d 07       		.byte	0x7
 885 062e FA       		.byte	0xfa
 886 062f 88060000 		.4byte	0x688
 887 0633 13       		.uleb128 0x13
 888 0634 13000000 		.4byte	.LASF91
 889 0638 07       		.byte	0x7
 890 0639 0101     		.2byte	0x101
 891 063b 26010000 		.4byte	0x126
 892 063f 13       		.uleb128 0x13
 893 0640 7F000000 		.4byte	.LASF92
 894 0644 07       		.byte	0x7
 895 0645 0801     		.2byte	0x108
 896 0647 26010000 		.4byte	0x126
 897 064b 13       		.uleb128 0x13
 898 064c 39060000 		.4byte	.LASF93
 899 0650 07       		.byte	0x7
 900 0651 0F01     		.2byte	0x10f
 901 0653 4A030000 		.4byte	0x34a
 902 0657 13       		.uleb128 0x13
 903 0658 0D000000 		.4byte	.LASF94
 904 065c 07       		.byte	0x7
 905 065d 1601     		.2byte	0x116
 906 065f 88060000 		.4byte	0x688
 907 0663 13       		.uleb128 0x13
 908 0664 A1010000 		.4byte	.LASF95
 909 0668 07       		.byte	0x7
 910 0669 1E01     		.2byte	0x11e
 911 066b B3060000 		.4byte	0x6b3
 912 066f 13       		.uleb128 0x13
ARM GAS  /var/folders/m4/4md61f0s1_g0rzfghffqnxvr0000gn/T//cc02JlWH.s 			page 17


 913 0670 26040000 		.4byte	.LASF96
 914 0674 07       		.byte	0x7
 915 0675 2701     		.2byte	0x127
 916 0677 EA060000 		.4byte	0x6ea
 917 067b 13       		.uleb128 0x13
 918 067c AF030000 		.4byte	.LASF97
 919 0680 07       		.byte	0x7
 920 0681 2F01     		.2byte	0x12f
 921 0683 31010000 		.4byte	0x131
 922 0687 00       		.byte	0
 923 0688 09       		.uleb128 0x9
 924 0689 04       		.byte	0x4
 925 068a 62020000 		.4byte	0x262
 926 068e 05       		.uleb128 0x5
 927 068f 05040000 		.4byte	.LASF98
 928 0693 0C       		.byte	0xc
 929 0694 0B       		.byte	0xb
 930 0695 34       		.byte	0x34
 931 0696 B3060000 		.4byte	0x6b3
 932 069a 06       		.uleb128 0x6
 933 069b 2D010000 		.4byte	.LASF99
 934 069f 0B       		.byte	0xb
 935 06a0 35       		.byte	0x35
 936 06a1 97020000 		.4byte	0x297
 937 06a5 00       		.byte	0
 938 06a6 06       		.uleb128 0x6
 939 06a7 C1010000 		.4byte	.LASF100
 940 06ab 0B       		.byte	0xb
 941 06ac 37       		.byte	0x37
 942 06ad 3C010000 		.4byte	0x13c
 943 06b1 08       		.byte	0x8
 944 06b2 00       		.byte	0
 945 06b3 09       		.uleb128 0x9
 946 06b4 04       		.byte	0x4
 947 06b5 8E060000 		.4byte	0x68e
 948 06b9 05       		.uleb128 0x5
 949 06ba 16060000 		.4byte	.LASF101
 950 06be 10       		.byte	0x10
 951 06bf 0C       		.byte	0xc
 952 06c0 39       		.byte	0x39
 953 06c1 EA060000 		.4byte	0x6ea
 954 06c5 06       		.uleb128 0x6
 955 06c6 F5000000 		.4byte	.LASF102
 956 06ca 0C       		.byte	0xc
 957 06cb 3A       		.byte	0x3a
 958 06cc 97020000 		.4byte	0x297
 959 06d0 00       		.byte	0
 960 06d1 06       		.uleb128 0x6
 961 06d2 61060000 		.4byte	.LASF103
 962 06d6 0C       		.byte	0xc
 963 06d7 3C       		.byte	0x3c
 964 06d8 6D020000 		.4byte	0x26d
 965 06dc 08       		.byte	0x8
 966 06dd 06       		.uleb128 0x6
 967 06de 81050000 		.4byte	.LASF104
 968 06e2 0C       		.byte	0xc
 969 06e3 3E       		.byte	0x3e
ARM GAS  /var/folders/m4/4md61f0s1_g0rzfghffqnxvr0000gn/T//cc02JlWH.s 			page 18


 970 06e4 2D070000 		.4byte	0x72d
 971 06e8 0C       		.byte	0xc
 972 06e9 00       		.byte	0
 973 06ea 09       		.uleb128 0x9
 974 06eb 04       		.byte	0x4
 975 06ec B9060000 		.4byte	0x6b9
 976 06f0 09       		.uleb128 0x9
 977 06f1 04       		.byte	0x4
 978 06f2 FD060000 		.4byte	0x6fd
 979 06f6 03       		.uleb128 0x3
 980 06f7 01       		.byte	0x1
 981 06f8 08       		.byte	0x8
 982 06f9 57040000 		.4byte	.LASF105
 983 06fd 14       		.uleb128 0x14
 984 06fe F6060000 		.4byte	0x6f6
 985 0702 0F       		.uleb128 0xf
 986 0703 47010000 		.4byte	0x147
 987 0707 09       		.uleb128 0x9
 988 0708 04       		.byte	0x4
 989 0709 4C030000 		.4byte	0x34c
 990 070d 0F       		.uleb128 0xf
 991 070e F0060000 		.4byte	0x6f0
 992 0712 15       		.uleb128 0x15
 993 0713 97040000 		.4byte	0x497
 994 0717 22070000 		.4byte	0x722
 995 071b 16       		.uleb128 0x16
 996 071c 80040000 		.4byte	0x480
 997 0720 3A       		.byte	0x3a
 998 0721 00       		.byte	0
 999 0722 04       		.uleb128 0x4
 1000 0723 68010000 		.4byte	.LASF106
 1001 0727 0C       		.byte	0xc
 1002 0728 34       		.byte	0x34
 1003 0729 B9060000 		.4byte	0x6b9
 1004 072d 09       		.uleb128 0x9
 1005 072e 04       		.byte	0x4
 1006 072f 22070000 		.4byte	0x722
 1007 0733 03       		.uleb128 0x3
 1008 0734 01       		.byte	0x1
 1009 0735 02       		.byte	0x2
 1010 0736 66030000 		.4byte	.LASF107
 1011 073a 11       		.uleb128 0x11
 1012 073b 04       		.byte	0x4
 1013 073c 0D       		.byte	0xd
 1014 073d E7       		.byte	0xe7
 1015 073e 5B070000 		.4byte	0x75b
 1016 0742 10       		.uleb128 0x10
 1017 0743 73657400 		.ascii	"set\000"
 1018 0747 0D       		.byte	0xd
 1019 0748 E8       		.byte	0xe8
 1020 0749 AD000000 		.4byte	0xad
 1021 074d 00       		.byte	0
 1022 074e 06       		.uleb128 0x6
 1023 074f B9020000 		.4byte	.LASF108
 1024 0753 0D       		.byte	0xd
 1025 0754 E9       		.byte	0xe9
 1026 0755 AD000000 		.4byte	0xad
ARM GAS  /var/folders/m4/4md61f0s1_g0rzfghffqnxvr0000gn/T//cc02JlWH.s 			page 19


 1027 0759 02       		.byte	0x2
 1028 075a 00       		.byte	0
 1029 075b 12       		.uleb128 0x12
 1030 075c 04       		.byte	0x4
 1031 075d 0D       		.byte	0xd
 1032 075e E5       		.byte	0xe5
 1033 075f 76070000 		.4byte	0x776
 1034 0763 17       		.uleb128 0x17
 1035 0764 5700     		.ascii	"W\000"
 1036 0766 0D       		.byte	0xd
 1037 0767 E6       		.byte	0xe6
 1038 0768 C3000000 		.4byte	0xc3
 1039 076c 17       		.uleb128 0x17
 1040 076d 4800     		.ascii	"H\000"
 1041 076f 0D       		.byte	0xd
 1042 0770 EA       		.byte	0xea
 1043 0771 3A070000 		.4byte	0x73a
 1044 0775 00       		.byte	0
 1045 0776 11       		.uleb128 0x11
 1046 0777 2C       		.byte	0x2c
 1047 0778 0D       		.byte	0xd
 1048 0779 DD       		.byte	0xdd
 1049 077a 03080000 		.4byte	0x803
 1050 077e 06       		.uleb128 0x6
 1051 077f 5C000000 		.4byte	.LASF109
 1052 0783 0D       		.byte	0xd
 1053 0784 DF       		.byte	0xdf
 1054 0785 87040000 		.4byte	0x487
 1055 0789 00       		.byte	0
 1056 078a 06       		.uleb128 0x6
 1057 078b 2D000000 		.4byte	.LASF110
 1058 078f 0D       		.byte	0xd
 1059 0790 E0       		.byte	0xe0
 1060 0791 87040000 		.4byte	0x487
 1061 0795 04       		.byte	0x4
 1062 0796 06       		.uleb128 0x6
 1063 0797 35010000 		.4byte	.LASF111
 1064 079b 0D       		.byte	0xd
 1065 079c E1       		.byte	0xe1
 1066 079d 87040000 		.4byte	0x487
 1067 07a1 08       		.byte	0x8
 1068 07a2 06       		.uleb128 0x6
 1069 07a3 79000000 		.4byte	.LASF112
 1070 07a7 0D       		.byte	0xd
 1071 07a8 E2       		.byte	0xe2
 1072 07a9 87040000 		.4byte	0x487
 1073 07ad 0C       		.byte	0xc
 1074 07ae 10       		.uleb128 0x10
 1075 07af 49445200 		.ascii	"IDR\000"
 1076 07b3 0D       		.byte	0xd
 1077 07b4 E3       		.byte	0xe3
 1078 07b5 87040000 		.4byte	0x487
 1079 07b9 10       		.byte	0x10
 1080 07ba 10       		.uleb128 0x10
 1081 07bb 4F445200 		.ascii	"ODR\000"
 1082 07bf 0D       		.byte	0xd
 1083 07c0 E4       		.byte	0xe4
ARM GAS  /var/folders/m4/4md61f0s1_g0rzfghffqnxvr0000gn/T//cc02JlWH.s 			page 20


 1084 07c1 87040000 		.4byte	0x487
 1085 07c5 14       		.byte	0x14
 1086 07c6 06       		.uleb128 0x6
 1087 07c7 E8000000 		.4byte	.LASF113
 1088 07cb 0D       		.byte	0xd
 1089 07cc EB       		.byte	0xeb
 1090 07cd 03080000 		.4byte	0x803
 1091 07d1 18       		.byte	0x18
 1092 07d2 06       		.uleb128 0x6
 1093 07d3 BC010000 		.4byte	.LASF114
 1094 07d7 0D       		.byte	0xd
 1095 07d8 EC       		.byte	0xec
 1096 07d9 87040000 		.4byte	0x487
 1097 07dd 1C       		.byte	0x1c
 1098 07de 06       		.uleb128 0x6
 1099 07df 2A030000 		.4byte	.LASF115
 1100 07e3 0D       		.byte	0xd
 1101 07e4 ED       		.byte	0xed
 1102 07e5 87040000 		.4byte	0x487
 1103 07e9 20       		.byte	0x20
 1104 07ea 06       		.uleb128 0x6
 1105 07eb 17030000 		.4byte	.LASF116
 1106 07ef 0D       		.byte	0xd
 1107 07f0 EE       		.byte	0xee
 1108 07f1 87040000 		.4byte	0x487
 1109 07f5 24       		.byte	0x24
 1110 07f6 10       		.uleb128 0x10
 1111 07f7 42525200 		.ascii	"BRR\000"
 1112 07fb 0D       		.byte	0xd
 1113 07fc EF       		.byte	0xef
 1114 07fd 87040000 		.4byte	0x487
 1115 0801 28       		.byte	0x28
 1116 0802 00       		.byte	0
 1117 0803 0F       		.uleb128 0xf
 1118 0804 5B070000 		.4byte	0x75b
 1119 0808 04       		.uleb128 0x4
 1120 0809 5B010000 		.4byte	.LASF117
 1121 080d 0D       		.byte	0xd
 1122 080e F0       		.byte	0xf0
 1123 080f 76070000 		.4byte	0x776
 1124 0813 18       		.uleb128 0x18
 1125 0814 4F000000 		.4byte	.LASF118
 1126 0818 0D       		.byte	0xd
 1127 0819 3F01     		.2byte	0x13f
 1128 081b C3000000 		.4byte	0xc3
 1129 081f 18       		.uleb128 0x18
 1130 0820 58060000 		.4byte	.LASF119
 1131 0824 0D       		.byte	0xd
 1132 0825 4401     		.2byte	0x144
 1133 0827 C3000000 		.4byte	0xc3
 1134 082b 18       		.uleb128 0x18
 1135 082c C2050000 		.4byte	.LASF120
 1136 0830 0D       		.byte	0xd
 1137 0831 5101     		.2byte	0x151
 1138 0833 37080000 		.4byte	0x837
 1139 0837 09       		.uleb128 0x9
 1140 0838 04       		.byte	0x4
ARM GAS  /var/folders/m4/4md61f0s1_g0rzfghffqnxvr0000gn/T//cc02JlWH.s 			page 21


 1141 0839 08080000 		.4byte	0x808
 1142 083d 11       		.uleb128 0x11
 1143 083e 0C       		.byte	0xc
 1144 083f 0E       		.byte	0xe
 1145 0840 7A       		.byte	0x7a
 1146 0841 6A080000 		.4byte	0x86a
 1147 0845 06       		.uleb128 0x6
 1148 0846 10030000 		.4byte	.LASF121
 1149 084a 0E       		.byte	0xe
 1150 084b 7E       		.byte	0x7e
 1151 084c 2B080000 		.4byte	0x82b
 1152 0850 00       		.byte	0
 1153 0851 06       		.uleb128 0x6
 1154 0852 45010000 		.4byte	.LASF122
 1155 0856 0E       		.byte	0xe
 1156 0857 84       		.byte	0x84
 1157 0858 13080000 		.4byte	0x813
 1158 085c 04       		.byte	0x4
 1159 085d 06       		.uleb128 0x6
 1160 085e BB050000 		.4byte	.LASF89
 1161 0862 0E       		.byte	0xe
 1162 0863 88       		.byte	0x88
 1163 0864 D9000000 		.4byte	0xd9
 1164 0868 08       		.byte	0x8
 1165 0869 00       		.byte	0
 1166 086a 04       		.uleb128 0x4
 1167 086b 70010000 		.4byte	.LASF123
 1168 086f 0E       		.byte	0xe
 1169 0870 89       		.byte	0x89
 1170 0871 3D080000 		.4byte	0x83d
 1171 0875 19       		.uleb128 0x19
 1172 0876 62050000 		.4byte	.LASF133
 1173 087a 01       		.byte	0x1
 1174 087b 41       		.byte	0x41
 1175 087c 13080000 		.4byte	0x813
 1176 0880 00000000 		.4byte	.LFB268
 1177 0884 0E000000 		.4byte	.LFE268-.LFB268
 1178 0888 01       		.uleb128 0x1
 1179 0889 9C       		.byte	0x9c
 1180 088a A7080000 		.4byte	0x8a7
 1181 088e 1A       		.uleb128 0x1a
 1182 088f 62757300 		.ascii	"bus\000"
 1183 0893 01       		.byte	0x1
 1184 0894 41       		.byte	0x41
 1185 0895 A7080000 		.4byte	0x8a7
 1186 0899 00000000 		.4byte	.LLST0
 1187 089d 1B       		.uleb128 0x1b
 1188 089e D2030000 		.4byte	.LASF125
 1189 08a2 BD080000 		.4byte	0x8bd
 1190 08a6 00       		.byte	0
 1191 08a7 09       		.uleb128 0x9
 1192 08a8 04       		.byte	0x4
 1193 08a9 6A080000 		.4byte	0x86a
 1194 08ad 15       		.uleb128 0x15
 1195 08ae F6060000 		.4byte	0x6f6
 1196 08b2 BD080000 		.4byte	0x8bd
 1197 08b6 16       		.uleb128 0x16
ARM GAS  /var/folders/m4/4md61f0s1_g0rzfghffqnxvr0000gn/T//cc02JlWH.s 			page 22


 1198 08b7 80040000 		.4byte	0x480
 1199 08bb 0A       		.byte	0xa
 1200 08bc 00       		.byte	0
 1201 08bd 14       		.uleb128 0x14
 1202 08be AD080000 		.4byte	0x8ad
 1203 08c2 1C       		.uleb128 0x1c
 1204 08c3 FA050000 		.4byte	.LASF126
 1205 08c7 01       		.byte	0x1
 1206 08c8 5A       		.byte	0x5a
 1207 08c9 00000000 		.4byte	.LFB269
 1208 08cd 1E000000 		.4byte	.LFE269-.LFB269
 1209 08d1 01       		.uleb128 0x1
 1210 08d2 9C       		.byte	0x9c
 1211 08d3 FF080000 		.4byte	0x8ff
 1212 08d7 1A       		.uleb128 0x1a
 1213 08d8 62757300 		.ascii	"bus\000"
 1214 08dc 01       		.byte	0x1
 1215 08dd 5A       		.byte	0x5a
 1216 08de A7080000 		.4byte	0x8a7
 1217 08e2 21000000 		.4byte	.LLST1
 1218 08e6 1D       		.uleb128 0x1d
 1219 08e7 0E010000 		.4byte	.LASF124
 1220 08eb 01       		.byte	0x1
 1221 08ec 5A       		.byte	0x5a
 1222 08ed 13080000 		.4byte	0x813
 1223 08f1 42000000 		.4byte	.LLST2
 1224 08f5 1B       		.uleb128 0x1b
 1225 08f6 D2030000 		.4byte	.LASF125
 1226 08fa 0F090000 		.4byte	0x90f
 1227 08fe 00       		.byte	0
 1228 08ff 15       		.uleb128 0x15
 1229 0900 F6060000 		.4byte	0x6f6
 1230 0904 0F090000 		.4byte	0x90f
 1231 0908 16       		.uleb128 0x16
 1232 0909 80040000 		.4byte	0x480
 1233 090d 0B       		.byte	0xb
 1234 090e 00       		.byte	0
 1235 090f 14       		.uleb128 0x14
 1236 0910 FF080000 		.4byte	0x8ff
 1237 0914 1C       		.uleb128 0x1c
 1238 0915 1C030000 		.4byte	.LASF127
 1239 0919 01       		.byte	0x1
 1240 091a 71       		.byte	0x71
 1241 091b 00000000 		.4byte	.LFB270
 1242 091f 0A000000 		.4byte	.LFE270-.LFB270
 1243 0923 01       		.uleb128 0x1
 1244 0924 9C       		.byte	0x9c
 1245 0925 62090000 		.4byte	0x962
 1246 0929 1A       		.uleb128 0x1a
 1247 092a 62757300 		.ascii	"bus\000"
 1248 092e 01       		.byte	0x1
 1249 092f 71       		.byte	0x71
 1250 0930 A7080000 		.4byte	0x8a7
 1251 0934 63000000 		.4byte	.LLST3
 1252 0938 1D       		.uleb128 0x1d
 1253 0939 26060000 		.4byte	.LASF128
 1254 093d 01       		.byte	0x1
ARM GAS  /var/folders/m4/4md61f0s1_g0rzfghffqnxvr0000gn/T//cc02JlWH.s 			page 23


 1255 093e 71       		.byte	0x71
 1256 093f 1F080000 		.4byte	0x81f
 1257 0943 84000000 		.4byte	.LLST4
 1258 0947 1B       		.uleb128 0x1b
 1259 0948 D2030000 		.4byte	.LASF125
 1260 094c 72090000 		.4byte	0x972
 1261 0950 1E       		.uleb128 0x1e
 1262 0951 0A000000 		.4byte	.LVL7
 1263 0955 93090000 		.4byte	0x993
 1264 0959 1F       		.uleb128 0x1f
 1265 095a 01       		.uleb128 0x1
 1266 095b 52       		.byte	0x52
 1267 095c 03       		.uleb128 0x3
 1268 095d F3       		.byte	0xf3
 1269 095e 01       		.uleb128 0x1
 1270 095f 51       		.byte	0x51
 1271 0960 00       		.byte	0
 1272 0961 00       		.byte	0
 1273 0962 15       		.uleb128 0x15
 1274 0963 F6060000 		.4byte	0x6f6
 1275 0967 72090000 		.4byte	0x972
 1276 096b 16       		.uleb128 0x16
 1277 096c 80040000 		.4byte	0x480
 1278 0970 0D       		.byte	0xd
 1279 0971 00       		.byte	0
 1280 0972 14       		.uleb128 0x14
 1281 0973 62090000 		.4byte	0x962
 1282 0977 20       		.uleb128 0x20
 1283 0978 A9000000 		.4byte	.LASF129
 1284 097c 0F       		.byte	0xf
 1285 097d FA06     		.2byte	0x6fa
 1286 097f 83090000 		.4byte	0x983
 1287 0983 0F       		.uleb128 0xf
 1288 0984 B8000000 		.4byte	0xb8
 1289 0988 21       		.uleb128 0x21
 1290 0989 636800   		.ascii	"ch\000"
 1291 098c 07       		.byte	0x7
 1292 098d 0902     		.2byte	0x209
 1293 098f 19040000 		.4byte	0x419
 1294 0993 22       		.uleb128 0x22
 1295 0994 D5050000 		.4byte	.LASF134
 1296 0998 D5050000 		.4byte	.LASF134
 1297 099c 0D       		.byte	0xd
 1298 099d 2402     		.2byte	0x224
 1299 099f 00       		.byte	0
 1300              		.section	.debug_abbrev,"",%progbits
 1301              	.Ldebug_abbrev0:
 1302 0000 01       		.uleb128 0x1
 1303 0001 11       		.uleb128 0x11
 1304 0002 01       		.byte	0x1
 1305 0003 25       		.uleb128 0x25
 1306 0004 0E       		.uleb128 0xe
 1307 0005 13       		.uleb128 0x13
 1308 0006 0B       		.uleb128 0xb
 1309 0007 03       		.uleb128 0x3
 1310 0008 0E       		.uleb128 0xe
 1311 0009 1B       		.uleb128 0x1b
ARM GAS  /var/folders/m4/4md61f0s1_g0rzfghffqnxvr0000gn/T//cc02JlWH.s 			page 24


 1312 000a 0E       		.uleb128 0xe
 1313 000b 55       		.uleb128 0x55
 1314 000c 17       		.uleb128 0x17
 1315 000d 11       		.uleb128 0x11
 1316 000e 01       		.uleb128 0x1
 1317 000f 10       		.uleb128 0x10
 1318 0010 17       		.uleb128 0x17
 1319 0011 00       		.byte	0
 1320 0012 00       		.byte	0
 1321 0013 02       		.uleb128 0x2
 1322 0014 24       		.uleb128 0x24
 1323 0015 00       		.byte	0
 1324 0016 0B       		.uleb128 0xb
 1325 0017 0B       		.uleb128 0xb
 1326 0018 3E       		.uleb128 0x3e
 1327 0019 0B       		.uleb128 0xb
 1328 001a 03       		.uleb128 0x3
 1329 001b 08       		.uleb128 0x8
 1330 001c 00       		.byte	0
 1331 001d 00       		.byte	0
 1332 001e 03       		.uleb128 0x3
 1333 001f 24       		.uleb128 0x24
 1334 0020 00       		.byte	0
 1335 0021 0B       		.uleb128 0xb
 1336 0022 0B       		.uleb128 0xb
 1337 0023 3E       		.uleb128 0x3e
 1338 0024 0B       		.uleb128 0xb
 1339 0025 03       		.uleb128 0x3
 1340 0026 0E       		.uleb128 0xe
 1341 0027 00       		.byte	0
 1342 0028 00       		.byte	0
 1343 0029 04       		.uleb128 0x4
 1344 002a 16       		.uleb128 0x16
 1345 002b 00       		.byte	0
 1346 002c 03       		.uleb128 0x3
 1347 002d 0E       		.uleb128 0xe
 1348 002e 3A       		.uleb128 0x3a
 1349 002f 0B       		.uleb128 0xb
 1350 0030 3B       		.uleb128 0x3b
 1351 0031 0B       		.uleb128 0xb
 1352 0032 49       		.uleb128 0x49
 1353 0033 13       		.uleb128 0x13
 1354 0034 00       		.byte	0
 1355 0035 00       		.byte	0
 1356 0036 05       		.uleb128 0x5
 1357 0037 13       		.uleb128 0x13
 1358 0038 01       		.byte	0x1
 1359 0039 03       		.uleb128 0x3
 1360 003a 0E       		.uleb128 0xe
 1361 003b 0B       		.uleb128 0xb
 1362 003c 0B       		.uleb128 0xb
 1363 003d 3A       		.uleb128 0x3a
 1364 003e 0B       		.uleb128 0xb
 1365 003f 3B       		.uleb128 0x3b
 1366 0040 0B       		.uleb128 0xb
 1367 0041 01       		.uleb128 0x1
 1368 0042 13       		.uleb128 0x13
ARM GAS  /var/folders/m4/4md61f0s1_g0rzfghffqnxvr0000gn/T//cc02JlWH.s 			page 25


 1369 0043 00       		.byte	0
 1370 0044 00       		.byte	0
 1371 0045 06       		.uleb128 0x6
 1372 0046 0D       		.uleb128 0xd
 1373 0047 00       		.byte	0
 1374 0048 03       		.uleb128 0x3
 1375 0049 0E       		.uleb128 0xe
 1376 004a 3A       		.uleb128 0x3a
 1377 004b 0B       		.uleb128 0xb
 1378 004c 3B       		.uleb128 0x3b
 1379 004d 0B       		.uleb128 0xb
 1380 004e 49       		.uleb128 0x49
 1381 004f 13       		.uleb128 0x13
 1382 0050 38       		.uleb128 0x38
 1383 0051 0B       		.uleb128 0xb
 1384 0052 00       		.byte	0
 1385 0053 00       		.byte	0
 1386 0054 07       		.uleb128 0x7
 1387 0055 0D       		.uleb128 0xd
 1388 0056 00       		.byte	0
 1389 0057 03       		.uleb128 0x3
 1390 0058 08       		.uleb128 0x8
 1391 0059 3A       		.uleb128 0x3a
 1392 005a 0B       		.uleb128 0xb
 1393 005b 3B       		.uleb128 0x3b
 1394 005c 05       		.uleb128 0x5
 1395 005d 49       		.uleb128 0x49
 1396 005e 13       		.uleb128 0x13
 1397 005f 38       		.uleb128 0x38
 1398 0060 0B       		.uleb128 0xb
 1399 0061 00       		.byte	0
 1400 0062 00       		.byte	0
 1401 0063 08       		.uleb128 0x8
 1402 0064 0D       		.uleb128 0xd
 1403 0065 00       		.byte	0
 1404 0066 03       		.uleb128 0x3
 1405 0067 0E       		.uleb128 0xe
 1406 0068 3A       		.uleb128 0x3a
 1407 0069 0B       		.uleb128 0xb
 1408 006a 3B       		.uleb128 0x3b
 1409 006b 05       		.uleb128 0x5
 1410 006c 49       		.uleb128 0x49
 1411 006d 13       		.uleb128 0x13
 1412 006e 38       		.uleb128 0x38
 1413 006f 0B       		.uleb128 0xb
 1414 0070 00       		.byte	0
 1415 0071 00       		.byte	0
 1416 0072 09       		.uleb128 0x9
 1417 0073 0F       		.uleb128 0xf
 1418 0074 00       		.byte	0
 1419 0075 0B       		.uleb128 0xb
 1420 0076 0B       		.uleb128 0xb
 1421 0077 49       		.uleb128 0x49
 1422 0078 13       		.uleb128 0x13
 1423 0079 00       		.byte	0
 1424 007a 00       		.byte	0
 1425 007b 0A       		.uleb128 0xa
ARM GAS  /var/folders/m4/4md61f0s1_g0rzfghffqnxvr0000gn/T//cc02JlWH.s 			page 26


 1426 007c 13       		.uleb128 0x13
 1427 007d 01       		.byte	0x1
 1428 007e 03       		.uleb128 0x3
 1429 007f 0E       		.uleb128 0xe
 1430 0080 0B       		.uleb128 0xb
 1431 0081 0B       		.uleb128 0xb
 1432 0082 3A       		.uleb128 0x3a
 1433 0083 0B       		.uleb128 0xb
 1434 0084 3B       		.uleb128 0x3b
 1435 0085 05       		.uleb128 0x5
 1436 0086 01       		.uleb128 0x1
 1437 0087 13       		.uleb128 0x13
 1438 0088 00       		.byte	0
 1439 0089 00       		.byte	0
 1440 008a 0B       		.uleb128 0xb
 1441 008b 15       		.uleb128 0x15
 1442 008c 01       		.byte	0x1
 1443 008d 27       		.uleb128 0x27
 1444 008e 19       		.uleb128 0x19
 1445 008f 01       		.uleb128 0x1
 1446 0090 13       		.uleb128 0x13
 1447 0091 00       		.byte	0
 1448 0092 00       		.byte	0
 1449 0093 0C       		.uleb128 0xc
 1450 0094 05       		.uleb128 0x5
 1451 0095 00       		.byte	0
 1452 0096 49       		.uleb128 0x49
 1453 0097 13       		.uleb128 0x13
 1454 0098 00       		.byte	0
 1455 0099 00       		.byte	0
 1456 009a 0D       		.uleb128 0xd
 1457 009b 0F       		.uleb128 0xf
 1458 009c 00       		.byte	0
 1459 009d 0B       		.uleb128 0xb
 1460 009e 0B       		.uleb128 0xb
 1461 009f 00       		.byte	0
 1462 00a0 00       		.byte	0
 1463 00a1 0E       		.uleb128 0xe
 1464 00a2 13       		.uleb128 0x13
 1465 00a3 01       		.byte	0x1
 1466 00a4 03       		.uleb128 0x3
 1467 00a5 0E       		.uleb128 0xe
 1468 00a6 0B       		.uleb128 0xb
 1469 00a7 05       		.uleb128 0x5
 1470 00a8 3A       		.uleb128 0x3a
 1471 00a9 0B       		.uleb128 0xb
 1472 00aa 3B       		.uleb128 0x3b
 1473 00ab 05       		.uleb128 0x5
 1474 00ac 01       		.uleb128 0x1
 1475 00ad 13       		.uleb128 0x13
 1476 00ae 00       		.byte	0
 1477 00af 00       		.byte	0
 1478 00b0 0F       		.uleb128 0xf
 1479 00b1 35       		.uleb128 0x35
 1480 00b2 00       		.byte	0
 1481 00b3 49       		.uleb128 0x49
 1482 00b4 13       		.uleb128 0x13
ARM GAS  /var/folders/m4/4md61f0s1_g0rzfghffqnxvr0000gn/T//cc02JlWH.s 			page 27


 1483 00b5 00       		.byte	0
 1484 00b6 00       		.byte	0
 1485 00b7 10       		.uleb128 0x10
 1486 00b8 0D       		.uleb128 0xd
 1487 00b9 00       		.byte	0
 1488 00ba 03       		.uleb128 0x3
 1489 00bb 08       		.uleb128 0x8
 1490 00bc 3A       		.uleb128 0x3a
 1491 00bd 0B       		.uleb128 0xb
 1492 00be 3B       		.uleb128 0x3b
 1493 00bf 0B       		.uleb128 0xb
 1494 00c0 49       		.uleb128 0x49
 1495 00c1 13       		.uleb128 0x13
 1496 00c2 38       		.uleb128 0x38
 1497 00c3 0B       		.uleb128 0xb
 1498 00c4 00       		.byte	0
 1499 00c5 00       		.byte	0
 1500 00c6 11       		.uleb128 0x11
 1501 00c7 13       		.uleb128 0x13
 1502 00c8 01       		.byte	0x1
 1503 00c9 0B       		.uleb128 0xb
 1504 00ca 0B       		.uleb128 0xb
 1505 00cb 3A       		.uleb128 0x3a
 1506 00cc 0B       		.uleb128 0xb
 1507 00cd 3B       		.uleb128 0x3b
 1508 00ce 0B       		.uleb128 0xb
 1509 00cf 01       		.uleb128 0x1
 1510 00d0 13       		.uleb128 0x13
 1511 00d1 00       		.byte	0
 1512 00d2 00       		.byte	0
 1513 00d3 12       		.uleb128 0x12
 1514 00d4 17       		.uleb128 0x17
 1515 00d5 01       		.byte	0x1
 1516 00d6 0B       		.uleb128 0xb
 1517 00d7 0B       		.uleb128 0xb
 1518 00d8 3A       		.uleb128 0x3a
 1519 00d9 0B       		.uleb128 0xb
 1520 00da 3B       		.uleb128 0x3b
 1521 00db 0B       		.uleb128 0xb
 1522 00dc 01       		.uleb128 0x1
 1523 00dd 13       		.uleb128 0x13
 1524 00de 00       		.byte	0
 1525 00df 00       		.byte	0
 1526 00e0 13       		.uleb128 0x13
 1527 00e1 0D       		.uleb128 0xd
 1528 00e2 00       		.byte	0
 1529 00e3 03       		.uleb128 0x3
 1530 00e4 0E       		.uleb128 0xe
 1531 00e5 3A       		.uleb128 0x3a
 1532 00e6 0B       		.uleb128 0xb
 1533 00e7 3B       		.uleb128 0x3b
 1534 00e8 05       		.uleb128 0x5
 1535 00e9 49       		.uleb128 0x49
 1536 00ea 13       		.uleb128 0x13
 1537 00eb 00       		.byte	0
 1538 00ec 00       		.byte	0
 1539 00ed 14       		.uleb128 0x14
ARM GAS  /var/folders/m4/4md61f0s1_g0rzfghffqnxvr0000gn/T//cc02JlWH.s 			page 28


 1540 00ee 26       		.uleb128 0x26
 1541 00ef 00       		.byte	0
 1542 00f0 49       		.uleb128 0x49
 1543 00f1 13       		.uleb128 0x13
 1544 00f2 00       		.byte	0
 1545 00f3 00       		.byte	0
 1546 00f4 15       		.uleb128 0x15
 1547 00f5 01       		.uleb128 0x1
 1548 00f6 01       		.byte	0x1
 1549 00f7 49       		.uleb128 0x49
 1550 00f8 13       		.uleb128 0x13
 1551 00f9 01       		.uleb128 0x1
 1552 00fa 13       		.uleb128 0x13
 1553 00fb 00       		.byte	0
 1554 00fc 00       		.byte	0
 1555 00fd 16       		.uleb128 0x16
 1556 00fe 21       		.uleb128 0x21
 1557 00ff 00       		.byte	0
 1558 0100 49       		.uleb128 0x49
 1559 0101 13       		.uleb128 0x13
 1560 0102 2F       		.uleb128 0x2f
 1561 0103 0B       		.uleb128 0xb
 1562 0104 00       		.byte	0
 1563 0105 00       		.byte	0
 1564 0106 17       		.uleb128 0x17
 1565 0107 0D       		.uleb128 0xd
 1566 0108 00       		.byte	0
 1567 0109 03       		.uleb128 0x3
 1568 010a 08       		.uleb128 0x8
 1569 010b 3A       		.uleb128 0x3a
 1570 010c 0B       		.uleb128 0xb
 1571 010d 3B       		.uleb128 0x3b
 1572 010e 0B       		.uleb128 0xb
 1573 010f 49       		.uleb128 0x49
 1574 0110 13       		.uleb128 0x13
 1575 0111 00       		.byte	0
 1576 0112 00       		.byte	0
 1577 0113 18       		.uleb128 0x18
 1578 0114 16       		.uleb128 0x16
 1579 0115 00       		.byte	0
 1580 0116 03       		.uleb128 0x3
 1581 0117 0E       		.uleb128 0xe
 1582 0118 3A       		.uleb128 0x3a
 1583 0119 0B       		.uleb128 0xb
 1584 011a 3B       		.uleb128 0x3b
 1585 011b 05       		.uleb128 0x5
 1586 011c 49       		.uleb128 0x49
 1587 011d 13       		.uleb128 0x13
 1588 011e 00       		.byte	0
 1589 011f 00       		.byte	0
 1590 0120 19       		.uleb128 0x19
 1591 0121 2E       		.uleb128 0x2e
 1592 0122 01       		.byte	0x1
 1593 0123 3F       		.uleb128 0x3f
 1594 0124 19       		.uleb128 0x19
 1595 0125 03       		.uleb128 0x3
 1596 0126 0E       		.uleb128 0xe
ARM GAS  /var/folders/m4/4md61f0s1_g0rzfghffqnxvr0000gn/T//cc02JlWH.s 			page 29


 1597 0127 3A       		.uleb128 0x3a
 1598 0128 0B       		.uleb128 0xb
 1599 0129 3B       		.uleb128 0x3b
 1600 012a 0B       		.uleb128 0xb
 1601 012b 27       		.uleb128 0x27
 1602 012c 19       		.uleb128 0x19
 1603 012d 49       		.uleb128 0x49
 1604 012e 13       		.uleb128 0x13
 1605 012f 11       		.uleb128 0x11
 1606 0130 01       		.uleb128 0x1
 1607 0131 12       		.uleb128 0x12
 1608 0132 06       		.uleb128 0x6
 1609 0133 40       		.uleb128 0x40
 1610 0134 18       		.uleb128 0x18
 1611 0135 9742     		.uleb128 0x2117
 1612 0137 19       		.uleb128 0x19
 1613 0138 01       		.uleb128 0x1
 1614 0139 13       		.uleb128 0x13
 1615 013a 00       		.byte	0
 1616 013b 00       		.byte	0
 1617 013c 1A       		.uleb128 0x1a
 1618 013d 05       		.uleb128 0x5
 1619 013e 00       		.byte	0
 1620 013f 03       		.uleb128 0x3
 1621 0140 08       		.uleb128 0x8
 1622 0141 3A       		.uleb128 0x3a
 1623 0142 0B       		.uleb128 0xb
 1624 0143 3B       		.uleb128 0x3b
 1625 0144 0B       		.uleb128 0xb
 1626 0145 49       		.uleb128 0x49
 1627 0146 13       		.uleb128 0x13
 1628 0147 02       		.uleb128 0x2
 1629 0148 17       		.uleb128 0x17
 1630 0149 00       		.byte	0
 1631 014a 00       		.byte	0
 1632 014b 1B       		.uleb128 0x1b
 1633 014c 34       		.uleb128 0x34
 1634 014d 00       		.byte	0
 1635 014e 03       		.uleb128 0x3
 1636 014f 0E       		.uleb128 0xe
 1637 0150 49       		.uleb128 0x49
 1638 0151 13       		.uleb128 0x13
 1639 0152 34       		.uleb128 0x34
 1640 0153 19       		.uleb128 0x19
 1641 0154 00       		.byte	0
 1642 0155 00       		.byte	0
 1643 0156 1C       		.uleb128 0x1c
 1644 0157 2E       		.uleb128 0x2e
 1645 0158 01       		.byte	0x1
 1646 0159 3F       		.uleb128 0x3f
 1647 015a 19       		.uleb128 0x19
 1648 015b 03       		.uleb128 0x3
 1649 015c 0E       		.uleb128 0xe
 1650 015d 3A       		.uleb128 0x3a
 1651 015e 0B       		.uleb128 0xb
 1652 015f 3B       		.uleb128 0x3b
 1653 0160 0B       		.uleb128 0xb
ARM GAS  /var/folders/m4/4md61f0s1_g0rzfghffqnxvr0000gn/T//cc02JlWH.s 			page 30


 1654 0161 27       		.uleb128 0x27
 1655 0162 19       		.uleb128 0x19
 1656 0163 11       		.uleb128 0x11
 1657 0164 01       		.uleb128 0x1
 1658 0165 12       		.uleb128 0x12
 1659 0166 06       		.uleb128 0x6
 1660 0167 40       		.uleb128 0x40
 1661 0168 18       		.uleb128 0x18
 1662 0169 9742     		.uleb128 0x2117
 1663 016b 19       		.uleb128 0x19
 1664 016c 01       		.uleb128 0x1
 1665 016d 13       		.uleb128 0x13
 1666 016e 00       		.byte	0
 1667 016f 00       		.byte	0
 1668 0170 1D       		.uleb128 0x1d
 1669 0171 05       		.uleb128 0x5
 1670 0172 00       		.byte	0
 1671 0173 03       		.uleb128 0x3
 1672 0174 0E       		.uleb128 0xe
 1673 0175 3A       		.uleb128 0x3a
 1674 0176 0B       		.uleb128 0xb
 1675 0177 3B       		.uleb128 0x3b
 1676 0178 0B       		.uleb128 0xb
 1677 0179 49       		.uleb128 0x49
 1678 017a 13       		.uleb128 0x13
 1679 017b 02       		.uleb128 0x2
 1680 017c 17       		.uleb128 0x17
 1681 017d 00       		.byte	0
 1682 017e 00       		.byte	0
 1683 017f 1E       		.uleb128 0x1e
 1684 0180 898201   		.uleb128 0x4109
 1685 0183 01       		.byte	0x1
 1686 0184 11       		.uleb128 0x11
 1687 0185 01       		.uleb128 0x1
 1688 0186 9542     		.uleb128 0x2115
 1689 0188 19       		.uleb128 0x19
 1690 0189 31       		.uleb128 0x31
 1691 018a 13       		.uleb128 0x13
 1692 018b 00       		.byte	0
 1693 018c 00       		.byte	0
 1694 018d 1F       		.uleb128 0x1f
 1695 018e 8A8201   		.uleb128 0x410a
 1696 0191 00       		.byte	0
 1697 0192 02       		.uleb128 0x2
 1698 0193 18       		.uleb128 0x18
 1699 0194 9142     		.uleb128 0x2111
 1700 0196 18       		.uleb128 0x18
 1701 0197 00       		.byte	0
 1702 0198 00       		.byte	0
 1703 0199 20       		.uleb128 0x20
 1704 019a 34       		.uleb128 0x34
 1705 019b 00       		.byte	0
 1706 019c 03       		.uleb128 0x3
 1707 019d 0E       		.uleb128 0xe
 1708 019e 3A       		.uleb128 0x3a
 1709 019f 0B       		.uleb128 0xb
 1710 01a0 3B       		.uleb128 0x3b
ARM GAS  /var/folders/m4/4md61f0s1_g0rzfghffqnxvr0000gn/T//cc02JlWH.s 			page 31


 1711 01a1 05       		.uleb128 0x5
 1712 01a2 49       		.uleb128 0x49
 1713 01a3 13       		.uleb128 0x13
 1714 01a4 3F       		.uleb128 0x3f
 1715 01a5 19       		.uleb128 0x19
 1716 01a6 3C       		.uleb128 0x3c
 1717 01a7 19       		.uleb128 0x19
 1718 01a8 00       		.byte	0
 1719 01a9 00       		.byte	0
 1720 01aa 21       		.uleb128 0x21
 1721 01ab 34       		.uleb128 0x34
 1722 01ac 00       		.byte	0
 1723 01ad 03       		.uleb128 0x3
 1724 01ae 08       		.uleb128 0x8
 1725 01af 3A       		.uleb128 0x3a
 1726 01b0 0B       		.uleb128 0xb
 1727 01b1 3B       		.uleb128 0x3b
 1728 01b2 05       		.uleb128 0x5
 1729 01b3 49       		.uleb128 0x49
 1730 01b4 13       		.uleb128 0x13
 1731 01b5 3F       		.uleb128 0x3f
 1732 01b6 19       		.uleb128 0x19
 1733 01b7 3C       		.uleb128 0x3c
 1734 01b8 19       		.uleb128 0x19
 1735 01b9 00       		.byte	0
 1736 01ba 00       		.byte	0
 1737 01bb 22       		.uleb128 0x22
 1738 01bc 2E       		.uleb128 0x2e
 1739 01bd 00       		.byte	0
 1740 01be 3F       		.uleb128 0x3f
 1741 01bf 19       		.uleb128 0x19
 1742 01c0 3C       		.uleb128 0x3c
 1743 01c1 19       		.uleb128 0x19
 1744 01c2 6E       		.uleb128 0x6e
 1745 01c3 0E       		.uleb128 0xe
 1746 01c4 03       		.uleb128 0x3
 1747 01c5 0E       		.uleb128 0xe
 1748 01c6 3A       		.uleb128 0x3a
 1749 01c7 0B       		.uleb128 0xb
 1750 01c8 3B       		.uleb128 0x3b
 1751 01c9 05       		.uleb128 0x5
 1752 01ca 00       		.byte	0
 1753 01cb 00       		.byte	0
 1754 01cc 00       		.byte	0
 1755              		.section	.debug_loc,"",%progbits
 1756              	.Ldebug_loc0:
 1757              	.LLST0:
 1758 0000 00000000 		.4byte	.LVL0
 1759 0004 08000000 		.4byte	.LVL1
 1760 0008 0100     		.2byte	0x1
 1761 000a 50       		.byte	0x50
 1762 000b 08000000 		.4byte	.LVL1
 1763 000f 0E000000 		.4byte	.LFE268
 1764 0013 0400     		.2byte	0x4
 1765 0015 F3       		.byte	0xf3
 1766 0016 01       		.uleb128 0x1
 1767 0017 50       		.byte	0x50
ARM GAS  /var/folders/m4/4md61f0s1_g0rzfghffqnxvr0000gn/T//cc02JlWH.s 			page 32


 1768 0018 9F       		.byte	0x9f
 1769 0019 00000000 		.4byte	0
 1770 001d 00000000 		.4byte	0
 1771              	.LLST1:
 1772 0021 00000000 		.4byte	.LVL2
 1773 0025 04000000 		.4byte	.LVL3
 1774 0029 0100     		.2byte	0x1
 1775 002b 50       		.byte	0x50
 1776 002c 04000000 		.4byte	.LVL3
 1777 0030 1E000000 		.4byte	.LFE269
 1778 0034 0400     		.2byte	0x4
 1779 0036 F3       		.byte	0xf3
 1780 0037 01       		.uleb128 0x1
 1781 0038 50       		.byte	0x50
 1782 0039 9F       		.byte	0x9f
 1783 003a 00000000 		.4byte	0
 1784 003e 00000000 		.4byte	0
 1785              	.LLST2:
 1786 0042 00000000 		.4byte	.LVL2
 1787 0046 0A000000 		.4byte	.LVL4
 1788 004a 0100     		.2byte	0x1
 1789 004c 51       		.byte	0x51
 1790 004d 0A000000 		.4byte	.LVL4
 1791 0051 1E000000 		.4byte	.LFE269
 1792 0055 0400     		.2byte	0x4
 1793 0057 F3       		.byte	0xf3
 1794 0058 01       		.uleb128 0x1
 1795 0059 51       		.byte	0x51
 1796 005a 9F       		.byte	0x9f
 1797 005b 00000000 		.4byte	0
 1798 005f 00000000 		.4byte	0
 1799              	.LLST3:
 1800 0063 00000000 		.4byte	.LVL5
 1801 0067 04000000 		.4byte	.LVL6
 1802 006b 0100     		.2byte	0x1
 1803 006d 50       		.byte	0x50
 1804 006e 04000000 		.4byte	.LVL6
 1805 0072 0A000000 		.4byte	.LFE270
 1806 0076 0400     		.2byte	0x4
 1807 0078 F3       		.byte	0xf3
 1808 0079 01       		.uleb128 0x1
 1809 007a 50       		.byte	0x50
 1810 007b 9F       		.byte	0x9f
 1811 007c 00000000 		.4byte	0
 1812 0080 00000000 		.4byte	0
 1813              	.LLST4:
 1814 0084 00000000 		.4byte	.LVL5
 1815 0088 04000000 		.4byte	.LVL6
 1816 008c 0100     		.2byte	0x1
 1817 008e 51       		.byte	0x51
 1818 008f 04000000 		.4byte	.LVL6
 1819 0093 09000000 		.4byte	.LVL7-1
 1820 0097 0100     		.2byte	0x1
 1821 0099 52       		.byte	0x52
 1822 009a 09000000 		.4byte	.LVL7-1
 1823 009e 0A000000 		.4byte	.LFE270
 1824 00a2 0400     		.2byte	0x4
ARM GAS  /var/folders/m4/4md61f0s1_g0rzfghffqnxvr0000gn/T//cc02JlWH.s 			page 33


 1825 00a4 F3       		.byte	0xf3
 1826 00a5 01       		.uleb128 0x1
 1827 00a6 51       		.byte	0x51
 1828 00a7 9F       		.byte	0x9f
 1829 00a8 00000000 		.4byte	0
 1830 00ac 00000000 		.4byte	0
 1831              		.section	.debug_aranges,"",%progbits
 1832 0000 2C000000 		.4byte	0x2c
 1833 0004 0200     		.2byte	0x2
 1834 0006 00000000 		.4byte	.Ldebug_info0
 1835 000a 04       		.byte	0x4
 1836 000b 00       		.byte	0
 1837 000c 0000     		.2byte	0
 1838 000e 0000     		.2byte	0
 1839 0010 00000000 		.4byte	.LFB268
 1840 0014 0E000000 		.4byte	.LFE268-.LFB268
 1841 0018 00000000 		.4byte	.LFB269
 1842 001c 1E000000 		.4byte	.LFE269-.LFB269
 1843 0020 00000000 		.4byte	.LFB270
 1844 0024 0A000000 		.4byte	.LFE270-.LFB270
 1845 0028 00000000 		.4byte	0
 1846 002c 00000000 		.4byte	0
 1847              		.section	.debug_ranges,"",%progbits
 1848              	.Ldebug_ranges0:
 1849 0000 00000000 		.4byte	.LFB268
 1850 0004 0E000000 		.4byte	.LFE268
 1851 0008 00000000 		.4byte	.LFB269
 1852 000c 1E000000 		.4byte	.LFE269
 1853 0010 00000000 		.4byte	.LFB270
 1854 0014 0A000000 		.4byte	.LFE270
 1855 0018 00000000 		.4byte	0
 1856 001c 00000000 		.4byte	0
 1857              		.section	.debug_line,"",%progbits
 1858              	.Ldebug_line0:
 1859 0000 6D030000 		.section	.debug_str,"MS",%progbits,1
 1859      02003203 
 1859      00000201 
 1859      FB0E0D00 
 1859      01010101 
 1860              	.LASF56:
 1861 0000 72656164 		.ascii	"ready_list_t\000"
 1861      795F6C69 
 1861      73745F74 
 1861      00
 1862              	.LASF94:
 1863 000d 77747472 		.ascii	"wttrp\000"
 1863      7000
 1864              	.LASF91:
 1865 0013 7264796D 		.ascii	"rdymsg\000"
 1865      736700
 1866              	.LASF18:
 1867 001a 75696E74 		.ascii	"uint64_t\000"
 1867      36345F74 
 1867      00
 1868              	.LASF4:
 1869 0023 5F5F7569 		.ascii	"__uint8_t\000"
 1869      6E74385F 
ARM GAS  /var/folders/m4/4md61f0s1_g0rzfghffqnxvr0000gn/T//cc02JlWH.s 			page 34


 1869      7400
 1870              	.LASF110:
 1871 002d 4F545950 		.ascii	"OTYPER\000"
 1871      455200
 1872              	.LASF88:
 1873 0034 706F7274 		.ascii	"port_intctx\000"
 1873      5F696E74 
 1873      63747800 
 1874              	.LASF75:
 1875 0040 73797374 		.ascii	"system_debug_t\000"
 1875      656D5F64 
 1875      65627567 
 1875      5F7400
 1876              	.LASF118:
 1877 004f 696F706F 		.ascii	"ioportmask_t\000"
 1877      72746D61 
 1877      736B5F74 
 1877      00
 1878              	.LASF109:
 1879 005c 4D4F4445 		.ascii	"MODER\000"
 1879      5200
 1880              	.LASF13:
 1881 0062 6C6F6E67 		.ascii	"long long unsigned int\000"
 1881      206C6F6E 
 1881      6720756E 
 1881      7369676E 
 1881      65642069 
 1882              	.LASF112:
 1883 0079 50555044 		.ascii	"PUPDR\000"
 1883      5200
 1884              	.LASF92:
 1885 007f 65786974 		.ascii	"exitcode\000"
 1885      636F6465 
 1885      00
 1886              	.LASF82:
 1887 0088 6D61696E 		.ascii	"mainthread\000"
 1887      74687265 
 1887      616400
 1888              	.LASF72:
 1889 0093 76697274 		.ascii	"virtual_timers_list_t\000"
 1889      75616C5F 
 1889      74696D65 
 1889      72735F6C 
 1889      6973745F 
 1890              	.LASF129:
 1891 00a9 49544D5F 		.ascii	"ITM_RxBuffer\000"
 1891      52784275 
 1891      66666572 
 1891      00
 1892              	.LASF55:
 1893 00b6 63685F74 		.ascii	"ch_threads_queue\000"
 1893      68726561 
 1893      64735F71 
 1893      75657565 
 1893      00
 1894              	.LASF33:
 1895 00c7 705F7072 		.ascii	"p_prio\000"
ARM GAS  /var/folders/m4/4md61f0s1_g0rzfghffqnxvr0000gn/T//cc02JlWH.s 			page 35


 1895      696F00
 1896              	.LASF11:
 1897 00ce 6C6F6E67 		.ascii	"long long int\000"
 1897      206C6F6E 
 1897      6720696E 
 1897      7400
 1898              	.LASF1:
 1899 00dc 7369676E 		.ascii	"signed char\000"
 1899      65642063 
 1899      68617200 
 1900              	.LASF113:
 1901 00e8 42535252 		.ascii	"BSRR\000"
 1901      00
 1902              	.LASF49:
 1903 00ed 705F6D70 		.ascii	"p_mpool\000"
 1903      6F6F6C00 
 1904              	.LASF102:
 1905 00f5 6D5F7175 		.ascii	"m_queue\000"
 1905      65756500 
 1906              	.LASF81:
 1907 00fd 76746C69 		.ascii	"vtlist\000"
 1907      737400
 1908              	.LASF24:
 1909 0104 74736C69 		.ascii	"tslices_t\000"
 1909      6365735F 
 1909      7400
 1910              	.LASF124:
 1911 010e 62697473 		.ascii	"bits\000"
 1911      00
 1912              	.LASF8:
 1913 0113 6C6F6E67 		.ascii	"long int\000"
 1913      20696E74 
 1913      00
 1914              	.LASF22:
 1915 011c 74737461 		.ascii	"tstate_t\000"
 1915      74655F74 
 1915      00
 1916              	.LASF35:
 1917 0125 705F6E65 		.ascii	"p_newer\000"
 1917      77657200 
 1918              	.LASF99:
 1919 012d 735F7175 		.ascii	"s_queue\000"
 1919      65756500 
 1920              	.LASF111:
 1921 0135 4F535045 		.ascii	"OSPEEDR\000"
 1921      45445200 
 1922              	.LASF61:
 1923 013d 725F6E65 		.ascii	"r_newer\000"
 1923      77657200 
 1924              	.LASF122:
 1925 0145 6D61736B 		.ascii	"mask\000"
 1925      00
 1926              	.LASF85:
 1927 014a 72656761 		.ascii	"regarm_t\000"
 1927      726D5F74 
 1927      00
 1928              	.LASF68:
ARM GAS  /var/folders/m4/4md61f0s1_g0rzfghffqnxvr0000gn/T//cc02JlWH.s 			page 36


 1929 0153 76745F70 		.ascii	"vt_prev\000"
 1929      72657600 
 1930              	.LASF117:
 1931 015b 73746D33 		.ascii	"stm32_gpio_t\000"
 1931      325F6770 
 1931      696F5F74 
 1931      00
 1932              	.LASF106:
 1933 0168 6D757465 		.ascii	"mutex_t\000"
 1933      785F7400 
 1934              	.LASF123:
 1935 0170 494F4275 		.ascii	"IOBus\000"
 1935      7300
 1936              	.LASF28:
 1937 0176 636E745F 		.ascii	"cnt_t\000"
 1937      7400
 1938              	.LASF0:
 1939 017c 756E7369 		.ascii	"unsigned int\000"
 1939      676E6564 
 1939      20696E74 
 1939      00
 1940              	.LASF67:
 1941 0189 76745F6E 		.ascii	"vt_next\000"
 1941      65787400 
 1942              	.LASF15:
 1943 0191 75696E74 		.ascii	"uint16_t\000"
 1943      31365F74 
 1943      00
 1944              	.LASF42:
 1945 019a 705F7469 		.ascii	"p_time\000"
 1945      6D6500
 1946              	.LASF95:
 1947 01a1 77747365 		.ascii	"wtsemp\000"
 1947      6D7000
 1948              	.LASF69:
 1949 01a8 76745F64 		.ascii	"vt_delta\000"
 1949      656C7461 
 1949      00
 1950              	.LASF44:
 1951 01b1 705F6D73 		.ascii	"p_msgqueue\000"
 1951      67717565 
 1951      756500
 1952              	.LASF114:
 1953 01bc 4C434B52 		.ascii	"LCKR\000"
 1953      00
 1954              	.LASF100:
 1955 01c1 735F636E 		.ascii	"s_cnt\000"
 1955      7400
 1956              	.LASF6:
 1957 01c7 73686F72 		.ascii	"short unsigned int\000"
 1957      7420756E 
 1957      7369676E 
 1957      65642069 
 1957      6E7400
 1958              	.LASF52:
 1959 01da 63685F74 		.ascii	"ch_thread\000"
 1959      68726561 
ARM GAS  /var/folders/m4/4md61f0s1_g0rzfghffqnxvr0000gn/T//cc02JlWH.s 			page 37


 1959      6400
 1960              	.LASF26:
 1961 01e4 6D73675F 		.ascii	"msg_t\000"
 1961      7400
 1962              	.LASF132:
 1963 01ea 2F557365 		.ascii	"/Users/raphael/Documents/Projects/rESC/resc-firmwar"
 1963      72732F72 
 1963      61706861 
 1963      656C2F44 
 1963      6F63756D 
 1964 021d 6500     		.ascii	"e\000"
 1965              	.LASF78:
 1966 021f 63685F73 		.ascii	"ch_system_t\000"
 1966      79737465 
 1966      6D5F7400 
 1967              	.LASF21:
 1968 022b 746D6F64 		.ascii	"tmode_t\000"
 1968      655F7400 
 1969              	.LASF57:
 1970 0233 63685F72 		.ascii	"ch_ready_list\000"
 1970      65616479 
 1970      5F6C6973 
 1970      7400
 1971              	.LASF27:
 1972 0241 6576656E 		.ascii	"eventmask_t\000"
 1972      746D6173 
 1972      6B5F7400 
 1973              	.LASF7:
 1974 024d 5F5F696E 		.ascii	"__int32_t\000"
 1974      7433325F 
 1974      7400
 1975              	.LASF86:
 1976 0257 73746B61 		.ascii	"stkalign_t\000"
 1976      6C69676E 
 1976      5F7400
 1977              	.LASF51:
 1978 0262 74687265 		.ascii	"threads_list_t\000"
 1978      6164735F 
 1978      6C697374 
 1978      5F7400
 1979              	.LASF12:
 1980 0271 5F5F7569 		.ascii	"__uint64_t\000"
 1980      6E743634 
 1980      5F7400
 1981              	.LASF43:
 1982 027c 705F7761 		.ascii	"p_waiting\000"
 1982      6974696E 
 1982      6700
 1983              	.LASF84:
 1984 0286 73697A65 		.ascii	"sizetype\000"
 1984      74797065 
 1984      00
 1985              	.LASF50:
 1986 028f 74687265 		.ascii	"thread_reference_t\000"
 1986      61645F72 
 1986      65666572 
 1986      656E6365 
ARM GAS  /var/folders/m4/4md61f0s1_g0rzfghffqnxvr0000gn/T//cc02JlWH.s 			page 38


 1986      5F7400
 1987              	.LASF73:
 1988 02a2 63685F76 		.ascii	"ch_virtual_timers_list\000"
 1988      69727475 
 1988      616C5F74 
 1988      696D6572 
 1988      735F6C69 
 1989              	.LASF108:
 1990 02b9 636C6561 		.ascii	"clear\000"
 1990      7200
 1991              	.LASF131:
 1992 02bf 43686962 		.ascii	"ChibiOS_16.1.4/os/hal/src/pal.c\000"
 1992      694F535F 
 1992      31362E31 
 1992      2E342F6F 
 1992      732F6861 
 1993              	.LASF36:
 1994 02df 705F6F6C 		.ascii	"p_older\000"
 1994      64657200 
 1995              	.LASF60:
 1996 02e7 725F6374 		.ascii	"r_ctx\000"
 1996      7800
 1997              	.LASF90:
 1998 02ed 746D5F63 		.ascii	"tm_calibration_t\000"
 1998      616C6962 
 1998      72617469 
 1998      6F6E5F74 
 1998      00
 1999              	.LASF63:
 2000 02fe 725F6375 		.ascii	"r_current\000"
 2000      7272656E 
 2000      7400
 2001              	.LASF62:
 2002 0308 725F6F6C 		.ascii	"r_older\000"
 2002      64657200 
 2003              	.LASF121:
 2004 0310 706F7274 		.ascii	"portid\000"
 2004      696400
 2005              	.LASF116:
 2006 0317 41465248 		.ascii	"AFRH\000"
 2006      00
 2007              	.LASF127:
 2008 031c 70616C53 		.ascii	"palSetBusMode\000"
 2008      65744275 
 2008      734D6F64 
 2008      6500
 2009              	.LASF115:
 2010 032a 4146524C 		.ascii	"AFRL\000"
 2010      00
 2011              	.LASF23:
 2012 032f 74726566 		.ascii	"trefs_t\000"
 2012      735F7400 
 2013              	.LASF65:
 2014 0337 76697274 		.ascii	"virtual_timer_t\000"
 2014      75616C5F 
 2014      74696D65 
 2014      725F7400 
ARM GAS  /var/folders/m4/4md61f0s1_g0rzfghffqnxvr0000gn/T//cc02JlWH.s 			page 39


 2015              	.LASF32:
 2016 0347 705F7072 		.ascii	"p_prev\000"
 2016      657600
 2017              	.LASF25:
 2018 034e 74707269 		.ascii	"tprio_t\000"
 2018      6F5F7400 
 2019              	.LASF76:
 2020 0356 63685F73 		.ascii	"ch_system_debug\000"
 2020      79737465 
 2020      6D5F6465 
 2020      62756700 
 2021              	.LASF107:
 2022 0366 5F426F6F 		.ascii	"_Bool\000"
 2022      6C00
 2023              	.LASF16:
 2024 036c 696E7433 		.ascii	"int32_t\000"
 2024      325F7400 
 2025              	.LASF2:
 2026 0374 756E7369 		.ascii	"unsigned char\000"
 2026      676E6564 
 2026      20636861 
 2026      7200
 2027              	.LASF47:
 2028 0382 705F6D74 		.ascii	"p_mtxlist\000"
 2028      786C6973 
 2028      7400
 2029              	.LASF3:
 2030 038c 73686F72 		.ascii	"short int\000"
 2030      7420696E 
 2030      7400
 2031              	.LASF38:
 2032 0396 705F7374 		.ascii	"p_state\000"
 2032      61746500 
 2033              	.LASF41:
 2034 039e 705F7072 		.ascii	"p_preempt\000"
 2034      65656D70 
 2034      7400
 2035              	.LASF59:
 2036 03a8 725F7072 		.ascii	"r_prio\000"
 2036      696F00
 2037              	.LASF97:
 2038 03af 65776D61 		.ascii	"ewmask\000"
 2038      736B00
 2039              	.LASF31:
 2040 03b6 705F6E65 		.ascii	"p_next\000"
 2040      787400
 2041              	.LASF19:
 2042 03bd 75696E74 		.ascii	"uint_fast8_t\000"
 2042      5F666173 
 2042      74385F74 
 2042      00
 2043              	.LASF39:
 2044 03ca 705F666C 		.ascii	"p_flags\000"
 2044      61677300 
 2045              	.LASF125:
 2046 03d2 5F5F6675 		.ascii	"__func__\000"
 2046      6E635F5F 
ARM GAS  /var/folders/m4/4md61f0s1_g0rzfghffqnxvr0000gn/T//cc02JlWH.s 			page 40


 2046      00
 2047              	.LASF83:
 2048 03db 69646C65 		.ascii	"idle_thread_wa\000"
 2048      5F746872 
 2048      6561645F 
 2048      776100
 2049              	.LASF79:
 2050 03ea 63685F73 		.ascii	"ch_system\000"
 2050      79737465 
 2050      6D00
 2051              	.LASF66:
 2052 03f4 63685F76 		.ascii	"ch_virtual_timer\000"
 2052      69727475 
 2052      616C5F74 
 2052      696D6572 
 2052      00
 2053              	.LASF98:
 2054 0405 63685F73 		.ascii	"ch_semaphore\000"
 2054      656D6170 
 2054      686F7265 
 2054      00
 2055              	.LASF46:
 2056 0412 705F6570 		.ascii	"p_epending\000"
 2056      656E6469 
 2056      6E6700
 2057              	.LASF17:
 2058 041d 75696E74 		.ascii	"uint32_t\000"
 2058      33325F74 
 2058      00
 2059              	.LASF96:
 2060 0426 77746D74 		.ascii	"wtmtxp\000"
 2060      787000
 2061              	.LASF58:
 2062 042d 725F7175 		.ascii	"r_queue\000"
 2062      65756500 
 2063              	.LASF53:
 2064 0435 63685F74 		.ascii	"ch_threads_list\000"
 2064      68726561 
 2064      64735F6C 
 2064      69737400 
 2065              	.LASF10:
 2066 0445 6C6F6E67 		.ascii	"long unsigned int\000"
 2066      20756E73 
 2066      69676E65 
 2066      6420696E 
 2066      7400
 2067              	.LASF105:
 2068 0457 63686172 		.ascii	"char\000"
 2068      00
 2069              	.LASF130:
 2070 045c 474E5520 		.ascii	"GNU C99 5.2.1 20151202 (release) [ARM/embedded-5-br"
 2070      43393920 
 2070      352E322E 
 2070      31203230 
 2070      31353132 
 2071 048f 616E6368 		.ascii	"anch revision 231848] -mcpu=cortex-m4 -mfloat-abi=h"
 2071      20726576 
ARM GAS  /var/folders/m4/4md61f0s1_g0rzfghffqnxvr0000gn/T//cc02JlWH.s 			page 41


 2071      6973696F 
 2071      6E203233 
 2071      31383438 
 2072 04c2 61726420 		.ascii	"ard -mfpu=fpv4-sp-d16 -mno-thumb-interwork -mthumb "
 2072      2D6D6670 
 2072      753D6670 
 2072      76342D73 
 2072      702D6431 
 2073 04f5 2D676764 		.ascii	"-ggdb -O2 -std=c99 -fomit-frame-pointer -falign-fun"
 2073      62202D4F 
 2073      32202D73 
 2073      74643D63 
 2073      3939202D 
 2074 0528 6374696F 		.ascii	"ctions=16 -ffunction-sections -fdata-sections -fno-"
 2074      6E733D31 
 2074      36202D66 
 2074      66756E63 
 2074      74696F6E 
 2075 055b 636F6D6D 		.ascii	"common\000"
 2075      6F6E00
 2076              	.LASF133:
 2077 0562 70616C52 		.ascii	"palReadBus\000"
 2077      65616442 
 2077      757300
 2078              	.LASF5:
 2079 056d 5F5F7569 		.ascii	"__uint16_t\000"
 2079      6E743136 
 2079      5F7400
 2080              	.LASF30:
 2081 0578 74687265 		.ascii	"thread_t\000"
 2081      61645F74 
 2081      00
 2082              	.LASF104:
 2083 0581 6D5F6E65 		.ascii	"m_next\000"
 2083      787400
 2084              	.LASF29:
 2085 0588 73797374 		.ascii	"systime_t\000"
 2085      696D655F 
 2085      7400
 2086              	.LASF48:
 2087 0592 705F7265 		.ascii	"p_realprio\000"
 2087      616C7072 
 2087      696F00
 2088              	.LASF64:
 2089 059d 76746675 		.ascii	"vtfunc_t\000"
 2089      6E635F74 
 2089      00
 2090              	.LASF9:
 2091 05a6 5F5F7569 		.ascii	"__uint32_t\000"
 2091      6E743332 
 2091      5F7400
 2092              	.LASF77:
 2093 05b1 70616E69 		.ascii	"panic_msg\000"
 2093      635F6D73 
 2093      6700
 2094              	.LASF89:
 2095 05bb 6F666673 		.ascii	"offset\000"
ARM GAS  /var/folders/m4/4md61f0s1_g0rzfghffqnxvr0000gn/T//cc02JlWH.s 			page 42


 2095      657400
 2096              	.LASF120:
 2097 05c2 696F706F 		.ascii	"ioportid_t\000"
 2097      72746964 
 2097      5F7400
 2098              	.LASF87:
 2099 05cd 636F6E74 		.ascii	"context\000"
 2099      65787400 
 2100              	.LASF134:
 2101 05d5 5F70616C 		.ascii	"_pal_lld_setgroupmode\000"
 2101      5F6C6C64 
 2101      5F736574 
 2101      67726F75 
 2101      706D6F64 
 2102              	.LASF20:
 2103 05eb 7274636E 		.ascii	"rtcnt_t\000"
 2103      745F7400 
 2104              	.LASF71:
 2105 05f3 76745F70 		.ascii	"vt_par\000"
 2105      617200
 2106              	.LASF126:
 2107 05fa 70616C57 		.ascii	"palWriteBus\000"
 2107      72697465 
 2107      42757300 
 2108              	.LASF54:
 2109 0606 74687265 		.ascii	"threads_queue_t\000"
 2109      6164735F 
 2109      71756575 
 2109      655F7400 
 2110              	.LASF101:
 2111 0616 63685F6D 		.ascii	"ch_mutex\000"
 2111      75746578 
 2111      00
 2112              	.LASF40:
 2113 061f 705F7265 		.ascii	"p_refs\000"
 2113      667300
 2114              	.LASF128:
 2115 0626 6D6F6465 		.ascii	"mode\000"
 2115      00
 2116              	.LASF80:
 2117 062b 726C6973 		.ascii	"rlist\000"
 2117      7400
 2118              	.LASF14:
 2119 0631 75696E74 		.ascii	"uint8_t\000"
 2119      385F7400 
 2120              	.LASF93:
 2121 0639 77746F62 		.ascii	"wtobjp\000"
 2121      6A7000
 2122              	.LASF37:
 2123 0640 705F6E61 		.ascii	"p_name\000"
 2123      6D6500
 2124              	.LASF74:
 2125 0647 76745F73 		.ascii	"vt_systime\000"
 2125      79737469 
 2125      6D6500
 2126              	.LASF45:
 2127 0652 705F6D73 		.ascii	"p_msg\000"
ARM GAS  /var/folders/m4/4md61f0s1_g0rzfghffqnxvr0000gn/T//cc02JlWH.s 			page 43


 2127      6700
 2128              	.LASF119:
 2129 0658 696F6D6F 		.ascii	"iomode_t\000"
 2129      64655F74 
 2129      00
 2130              	.LASF103:
 2131 0661 6D5F6F77 		.ascii	"m_owner\000"
 2131      6E657200 
 2132              	.LASF34:
 2133 0669 705F6374 		.ascii	"p_ctx\000"
 2133      7800
 2134              	.LASF70:
 2135 066f 76745F66 		.ascii	"vt_func\000"
 2135      756E6300 
 2136              		.ident	"GCC: (GNU Tools for ARM Embedded Processors) 5.2.1 20151202 (release) [ARM/embedded-5-bran
ARM GAS  /var/folders/m4/4md61f0s1_g0rzfghffqnxvr0000gn/T//cc02JlWH.s 			page 44


DEFINED SYMBOLS
                            *ABS*:0000000000000000 pal.c
/var/folders/m4/4md61f0s1_g0rzfghffqnxvr0000gn/T//cc02JlWH.s:22     .text.palReadBus:0000000000000000 $t
/var/folders/m4/4md61f0s1_g0rzfghffqnxvr0000gn/T//cc02JlWH.s:28     .text.palReadBus:0000000000000000 palReadBus
/var/folders/m4/4md61f0s1_g0rzfghffqnxvr0000gn/T//cc02JlWH.s:51     .text.palWriteBus:0000000000000000 $t
/var/folders/m4/4md61f0s1_g0rzfghffqnxvr0000gn/T//cc02JlWH.s:57     .text.palWriteBus:0000000000000000 palWriteBus
/var/folders/m4/4md61f0s1_g0rzfghffqnxvr0000gn/T//cc02JlWH.s:88     .text.palSetBusMode:0000000000000000 $t
/var/folders/m4/4md61f0s1_g0rzfghffqnxvr0000gn/T//cc02JlWH.s:94     .text.palSetBusMode:0000000000000000 palSetBusMode
                     .debug_frame:0000000000000010 $d

UNDEFINED SYMBOLS
_pal_lld_setgroupmode
