ARM GAS  /var/folders/m4/4md61f0s1_g0rzfghffqnxvr0000gn/T//cc02JlWH.s 			page 1


   1              		.syntax unified
   2              		.cpu cortex-m4
   3              		.eabi_attribute 27, 1
   4              		.eabi_attribute 28, 1
   5              		.fpu fpv4-sp-d16
   6              		.eabi_attribute 20, 1
   7              		.eabi_attribute 21, 1
   8              		.eabi_attribute 23, 3
   9              		.eabi_attribute 24, 1
  10              		.eabi_attribute 25, 1
  11              		.eabi_attribute 26, 1
  12              		.eabi_attribute 30, 2
  13              		.eabi_attribute 34, 1
  14              		.eabi_attribute 18, 4
  15              		.thumb
  16              		.syntax unified
  17              		.file	"pal.c"
  18              		.text
  19              	.Ltext0:
  20              		.cfi_sections	.debug_frame
  21              		.section	.text.palReadBus,"ax",%progbits
  22              		.align	2
  23              		.p2align 4,,15
  24              		.global	palReadBus
  25              		.thumb
  26              		.thumb_func
  27              		.type	palReadBus, %function
  28              	palReadBus:
  29              	.LFB268:
  30              		.file 1 "ChibiOS_16.1.4/os/hal/src/pal.c"
  31              		.loc 1 65 0
  32              		.cfi_startproc
  33              		@ args = 0, pretend = 0, frame = 0
  34              		@ frame_needed = 0, uses_anonymous_args = 0
  35              		@ link register save eliminated.
  36              	.LVL0:
  37              		.loc 1 69 0
  38 0000 0368     		ldr	r3, [r0]
  39 0002 8268     		ldr	r2, [r0, #8]
  40 0004 1B69     		ldr	r3, [r3, #16]
  41 0006 4068     		ldr	r0, [r0, #4]
  42              	.LVL1:
  43 0008 D340     		lsrs	r3, r3, r2
  44              		.loc 1 70 0
  45 000a 1840     		ands	r0, r0, r3
  46 000c 7047     		bx	lr
  47              		.cfi_endproc
  48              	.LFE268:
  49              		.size	palReadBus, .-palReadBus
  50 000e 00BF     		.section	.text.palWriteBus,"ax",%progbits
  51              		.align	2
  52              		.p2align 4,,15
  53              		.global	palWriteBus
  54              		.thumb
  55              		.thumb_func
  56              		.type	palWriteBus, %function
  57              	palWriteBus:
ARM GAS  /var/folders/m4/4md61f0s1_g0rzfghffqnxvr0000gn/T//cc02JlWH.s 			page 2


  58              	.LFB269:
  59              		.loc 1 90 0
  60              		.cfi_startproc
  61              		@ args = 0, pretend = 0, frame = 0
  62              		@ frame_needed = 0, uses_anonymous_args = 0
  63              		@ link register save eliminated.
  64              	.LVL2:
  65 0000 10B4     		push	{r4}
  66              		.cfi_def_cfa_offset 4
  67              		.cfi_offset 4, -4
  68              		.loc 1 94 0
  69 0002 19C8     		ldmia	r0, {r0, r3, r4}
  70              	.LVL3:
  71 0004 23EA0102 		bic	r2, r3, r1
  72 0008 1940     		ands	r1, r1, r3
  73              	.LVL4:
  74 000a 04F11003 		add	r3, r4, #16
  75 000e A140     		lsls	r1, r1, r4
  76 0010 02FA03F3 		lsl	r3, r2, r3
  77 0014 0B43     		orrs	r3, r3, r1
  78 0016 8361     		str	r3, [r0, #24]
  79              		.loc 1 95 0
  80 0018 5DF8044B 		ldr	r4, [sp], #4
  81              		.cfi_restore 4
  82              		.cfi_def_cfa_offset 0
  83 001c 7047     		bx	lr
  84              		.cfi_endproc
  85              	.LFE269:
  86              		.size	palWriteBus, .-palWriteBus
  87 001e 00BF     		.section	.text.palSetBusMode,"ax",%progbits
  88              		.align	2
  89              		.p2align 4,,15
  90              		.global	palSetBusMode
  91              		.thumb
  92              		.thumb_func
  93              		.type	palSetBusMode, %function
  94              	palSetBusMode:
  95              	.LFB270:
  96              		.loc 1 113 0
  97              		.cfi_startproc
  98              		@ args = 0, pretend = 0, frame = 0
  99              		@ frame_needed = 0, uses_anonymous_args = 0
 100              		@ link register save eliminated.
 101              	.LVL5:
 102              		.loc 1 117 0
 103 0000 0A46     		mov	r2, r1
 104 0002 0BC8     		ldmia	r0, {r0, r1, r3}
 105              	.LVL6:
 106 0004 9940     		lsls	r1, r1, r3
 107 0006 FFF7FEBF 		b	_pal_lld_setgroupmode
 108              	.LVL7:
 109              		.cfi_endproc
 110              	.LFE270:
 111              		.size	palSetBusMode, .-palSetBusMode
 112 000a 00BF     		.text
 113              	.Letext0:
 114              		.file 2 "/opt/homebrew-cask/Caskroom/gcc-arm-embedded/5_2-2015q4,20151219/gcc-arm-none-eabi-5_2-20
ARM GAS  /var/folders/m4/4md61f0s1_g0rzfghffqnxvr0000gn/T//cc02JlWH.s 			page 3


 115              		.file 3 "/opt/homebrew-cask/Caskroom/gcc-arm-embedded/5_2-2015q4,20151219/gcc-arm-none-eabi-5_2-20
 116              		.file 4 "/opt/homebrew-cask/Caskroom/gcc-arm-embedded/5_2-2015q4,20151219/gcc-arm-none-eabi-5_2-20
 117              		.file 5 "ChibiOS_16.1.4/os/rt/ports/ARMCMx/compilers/GCC/chtypes.h"
 118              		.file 6 "ChibiOS_16.1.4/os/rt/include/chsystypes.h"
 119              		.file 7 "ChibiOS_16.1.4/os/rt/include/chschd.h"
 120              		.file 8 "ChibiOS_16.1.4/os/rt/ports/ARMCMx/chcore.h"
 121              		.file 9 "ChibiOS_16.1.4/os/rt/ports/ARMCMx/chcore_v7m.h"
 122              		.file 10 "ChibiOS_16.1.4/os/rt/include/chtm.h"
 123              		.file 11 "ChibiOS_16.1.4/os/rt/include/chsem.h"
 124              		.file 12 "ChibiOS_16.1.4/os/rt/include/chmtx.h"
 125              		.file 13 "ChibiOS_16.1.4/os/hal/ports/STM32/LLD/GPIOv2/pal_lld.h"
 126              		.file 14 "ChibiOS_16.1.4/os/hal/include/pal.h"
 127              		.file 15 "ChibiOS_16.1.4/os/ext/CMSIS/include/core_cm4.h"