ARM GAS  /var/folders/m4/4md61f0s1_g0rzfghffqnxvr0000gn/T//ccl2e1ol.s 			page 1


   1              		.syntax unified
   2              		.cpu cortex-m4
   3              		.eabi_attribute 27, 1
   4              		.eabi_attribute 28, 1
   5              		.fpu fpv4-sp-d16
   6              		.eabi_attribute 20, 1
   7              		.eabi_attribute 21, 1
   8              		.eabi_attribute 23, 3
   9              		.eabi_attribute 24, 1
  10              		.eabi_attribute 25, 1
  11              		.eabi_attribute 26, 1
  12              		.eabi_attribute 30, 2
  13              		.eabi_attribute 34, 1
  14              		.eabi_attribute 18, 4
  15              		.thumb
  16              		.syntax unified
  17              		.file	"pal_lld.c"
  18              		.text
  19              	.Ltext0:
  20              		.cfi_sections	.debug_frame
  21              		.section	.text._pal_lld_init,"ax",%progbits
  22              		.align	2
  23              		.p2align 4,,15
  24              		.global	_pal_lld_init
  25              		.thumb
  26              		.thumb_func
  27              		.type	_pal_lld_init, %function
  28              	_pal_lld_init:
  29              	.LFB269:
  30              		.file 1 "ChibiOS_16.1.4/os/hal/ports/STM32/LLD/GPIOv2/pal_lld.c"
  31              		.loc 1 88 0
  32              		.cfi_startproc
  33              		@ args = 0, pretend = 0, frame = 0
  34              		@ frame_needed = 0, uses_anonymous_args = 0
  35              		@ link register save eliminated.
  36              	.LVL0:
  37 0000 F0B4     		push	{r4, r5, r6, r7}
  38              		.cfi_def_cfa_offset 16
  39              		.cfi_offset 4, -16
  40              		.cfi_offset 5, -12
  41              		.cfi_offset 6, -8
  42              		.cfi_offset 7, -4
  43              		.loc 1 104 0
  44 0002 654D     		ldr	r5, .L3
  45              	.LBB20:
  46              	.LBB21:
  47              		.loc 1 63 0
  48 0004 654C     		ldr	r4, .L3+4
  49              	.LBE21:
  50              	.LBE20:
  51              		.loc 1 104 0
  52 0006 2F6B     		ldr	r7, [r5, #48]
  53              	.LBB23:
  54              	.LBB24:
  55              		.loc 1 63 0
  56 0008 6549     		ldr	r1, .L3+8
  57              	.LBE24:
ARM GAS  /var/folders/m4/4md61f0s1_g0rzfghffqnxvr0000gn/T//ccl2e1ol.s 			page 2


  58              	.LBE23:
  59              	.LBB26:
  60              	.LBB27:
  61 000a 664A     		ldr	r2, .L3+12
  62              	.LBE27:
  63              	.LBE26:
  64              	.LBB29:
  65              	.LBB30:
  66 000c 664B     		ldr	r3, .L3+16
  67              	.LBE30:
  68              	.LBE29:
  69              		.loc 1 104 0
  70 000e 40F2FF16 		movw	r6, #511
  71 0012 3743     		orrs	r7, r7, r6
  72 0014 2F63     		str	r7, [r5, #48]
  73              		.loc 1 105 0
  74 0016 2F6D     		ldr	r7, [r5, #80]
  75 0018 3E43     		orrs	r6, r6, r7
  76 001a 2E65     		str	r6, [r5, #80]
  77              	.LVL1:
  78              	.LBB32:
  79              	.LBB22:
  80              		.loc 1 63 0
  81 001c 4568     		ldr	r5, [r0, #4]
  82 001e 6560     		str	r5, [r4, #4]
  83              		.loc 1 64 0
  84 0020 8568     		ldr	r5, [r0, #8]
  85 0022 A560     		str	r5, [r4, #8]
  86              		.loc 1 65 0
  87 0024 C568     		ldr	r5, [r0, #12]
  88 0026 E560     		str	r5, [r4, #12]
  89              		.loc 1 66 0
  90 0028 0569     		ldr	r5, [r0, #16]
  91 002a 6561     		str	r5, [r4, #20]
  92              		.loc 1 67 0
  93 002c 4569     		ldr	r5, [r0, #20]
  94 002e 2562     		str	r5, [r4, #32]
  95              		.loc 1 68 0
  96 0030 8569     		ldr	r5, [r0, #24]
  97 0032 6562     		str	r5, [r4, #36]
  98              		.loc 1 69 0
  99 0034 0568     		ldr	r5, [r0]
 100 0036 2560     		str	r5, [r4]
 101              	.LVL2:
 102              	.LBE22:
 103              	.LBE32:
 104              	.LBB33:
 105              	.LBB25:
 106              		.loc 1 63 0
 107 0038 046A     		ldr	r4, [r0, #32]
 108 003a 4C60     		str	r4, [r1, #4]
 109              		.loc 1 64 0
 110 003c 446A     		ldr	r4, [r0, #36]
 111 003e 8C60     		str	r4, [r1, #8]
 112              		.loc 1 65 0
 113 0040 846A     		ldr	r4, [r0, #40]
 114 0042 CC60     		str	r4, [r1, #12]
ARM GAS  /var/folders/m4/4md61f0s1_g0rzfghffqnxvr0000gn/T//ccl2e1ol.s 			page 3


 115              		.loc 1 66 0
 116 0044 C46A     		ldr	r4, [r0, #44]
 117 0046 4C61     		str	r4, [r1, #20]
 118              		.loc 1 67 0
 119 0048 046B     		ldr	r4, [r0, #48]
 120 004a 0C62     		str	r4, [r1, #32]
 121              		.loc 1 68 0
 122 004c 446B     		ldr	r4, [r0, #52]
 123 004e 4C62     		str	r4, [r1, #36]
 124              		.loc 1 69 0
 125 0050 C469     		ldr	r4, [r0, #28]
 126 0052 0C60     		str	r4, [r1]
 127              	.LVL3:
 128              	.LBE25:
 129              	.LBE33:
 130              	.LBB34:
 131              	.LBB28:
 132              		.loc 1 63 0
 133 0054 C16B     		ldr	r1, [r0, #60]
 134 0056 5160     		str	r1, [r2, #4]
 135              		.loc 1 64 0
 136 0058 016C     		ldr	r1, [r0, #64]
 137 005a 9160     		str	r1, [r2, #8]
 138              		.loc 1 65 0
 139 005c 416C     		ldr	r1, [r0, #68]
 140 005e D160     		str	r1, [r2, #12]
 141              		.loc 1 66 0
 142 0060 816C     		ldr	r1, [r0, #72]
 143 0062 5161     		str	r1, [r2, #20]
 144              		.loc 1 67 0
 145 0064 C16C     		ldr	r1, [r0, #76]
 146 0066 1162     		str	r1, [r2, #32]
 147              		.loc 1 68 0
 148 0068 016D     		ldr	r1, [r0, #80]
 149 006a 5162     		str	r1, [r2, #36]
 150              		.loc 1 69 0
 151 006c 816B     		ldr	r1, [r0, #56]
 152 006e 1160     		str	r1, [r2]
 153              	.LVL4:
 154              	.LBE28:
 155              	.LBE34:
 156              	.LBB35:
 157              	.LBB31:
 158              		.loc 1 63 0
 159 0070 826D     		ldr	r2, [r0, #88]
 160 0072 5A60     		str	r2, [r3, #4]
 161              		.loc 1 64 0
 162 0074 C26D     		ldr	r2, [r0, #92]
 163 0076 9A60     		str	r2, [r3, #8]
 164              		.loc 1 65 0
 165 0078 026E     		ldr	r2, [r0, #96]
 166 007a DA60     		str	r2, [r3, #12]
 167              		.loc 1 66 0
 168 007c 426E     		ldr	r2, [r0, #100]
 169 007e 5A61     		str	r2, [r3, #20]
 170              		.loc 1 67 0
 171 0080 826E     		ldr	r2, [r0, #104]
ARM GAS  /var/folders/m4/4md61f0s1_g0rzfghffqnxvr0000gn/T//ccl2e1ol.s 			page 4


 172 0082 1A62     		str	r2, [r3, #32]
 173              		.loc 1 68 0
 174 0084 C26E     		ldr	r2, [r0, #108]
 175 0086 5A62     		str	r2, [r3, #36]
 176              		.loc 1 69 0
 177 0088 426D     		ldr	r2, [r0, #84]
 178 008a 1A60     		str	r2, [r3]
 179              	.LVL5:
 180              	.LBE31:
 181              	.LBE35:
 182              	.LBB36:
 183              	.LBB37:
 184              		.loc 1 63 0
 185 008c 426F     		ldr	r2, [r0, #116]
 186 008e C3F80424 		str	r2, [r3, #1028]
 187              		.loc 1 64 0
 188 0092 826F     		ldr	r2, [r0, #120]
 189 0094 C3F80824 		str	r2, [r3, #1032]
 190              		.loc 1 65 0
 191 0098 C26F     		ldr	r2, [r0, #124]
 192 009a C3F80C24 		str	r2, [r3, #1036]
 193              		.loc 1 66 0
 194 009e D0F88020 		ldr	r2, [r0, #128]
 195 00a2 C3F81424 		str	r2, [r3, #1044]
 196              		.loc 1 67 0
 197 00a6 D0F88420 		ldr	r2, [r0, #132]
 198 00aa C3F82024 		str	r2, [r3, #1056]
 199              		.loc 1 68 0
 200 00ae D0F88820 		ldr	r2, [r0, #136]
 201 00b2 C3F82424 		str	r2, [r3, #1060]
 202              		.loc 1 69 0
 203 00b6 026F     		ldr	r2, [r0, #112]
 204 00b8 C3F80024 		str	r2, [r3, #1024]
 205              	.LVL6:
 206              	.LBE37:
 207              	.LBE36:
 208              	.LBB38:
 209              	.LBB39:
 210              		.loc 1 63 0
 211 00bc D0F89020 		ldr	r2, [r0, #144]
 212 00c0 C3F80428 		str	r2, [r3, #2052]
 213              		.loc 1 64 0
 214 00c4 D0F89420 		ldr	r2, [r0, #148]
 215 00c8 C3F80828 		str	r2, [r3, #2056]
 216              		.loc 1 65 0
 217 00cc D0F89820 		ldr	r2, [r0, #152]
 218 00d0 C3F80C28 		str	r2, [r3, #2060]
 219              		.loc 1 66 0
 220 00d4 D0F89C20 		ldr	r2, [r0, #156]
 221 00d8 C3F81428 		str	r2, [r3, #2068]
 222              		.loc 1 67 0
 223 00dc D0F8A020 		ldr	r2, [r0, #160]
 224 00e0 C3F82028 		str	r2, [r3, #2080]
 225              		.loc 1 68 0
 226 00e4 D0F8A420 		ldr	r2, [r0, #164]
 227 00e8 C3F82428 		str	r2, [r3, #2084]
 228              		.loc 1 69 0
ARM GAS  /var/folders/m4/4md61f0s1_g0rzfghffqnxvr0000gn/T//ccl2e1ol.s 			page 5


 229 00ec D0F88C20 		ldr	r2, [r0, #140]
 230 00f0 C3F80028 		str	r2, [r3, #2048]
 231              	.LVL7:
 232              	.LBE39:
 233              	.LBE38:
 234              	.LBB40:
 235              	.LBB41:
 236              		.loc 1 63 0
 237 00f4 03F54063 		add	r3, r3, #3072
 238 00f8 D0F8AC20 		ldr	r2, [r0, #172]
 239 00fc 5A60     		str	r2, [r3, #4]
 240              		.loc 1 64 0
 241 00fe D0F8B020 		ldr	r2, [r0, #176]
 242 0102 9A60     		str	r2, [r3, #8]
 243              		.loc 1 65 0
 244 0104 D0F8B420 		ldr	r2, [r0, #180]
 245 0108 DA60     		str	r2, [r3, #12]
 246              		.loc 1 66 0
 247 010a D0F8B820 		ldr	r2, [r0, #184]
 248 010e 5A61     		str	r2, [r3, #20]
 249              		.loc 1 67 0
 250 0110 D0F8BC20 		ldr	r2, [r0, #188]
 251 0114 1A62     		str	r2, [r3, #32]
 252              		.loc 1 68 0
 253 0116 D0F8C020 		ldr	r2, [r0, #192]
 254 011a 5A62     		str	r2, [r3, #36]
 255              		.loc 1 69 0
 256 011c D0F8A820 		ldr	r2, [r0, #168]
 257 0120 1A60     		str	r2, [r3]
 258              	.LVL8:
 259              	.LBE41:
 260              	.LBE40:
 261              	.LBB42:
 262              	.LBB43:
 263              		.loc 1 63 0
 264 0122 D0F8C820 		ldr	r2, [r0, #200]
 265 0126 C3F80424 		str	r2, [r3, #1028]
 266              		.loc 1 64 0
 267 012a D0F8CC20 		ldr	r2, [r0, #204]
 268 012e C3F80824 		str	r2, [r3, #1032]
 269              		.loc 1 65 0
 270 0132 D0F8D020 		ldr	r2, [r0, #208]
 271 0136 C3F80C24 		str	r2, [r3, #1036]
 272              		.loc 1 66 0
 273 013a D0F8D420 		ldr	r2, [r0, #212]
 274 013e C3F81424 		str	r2, [r3, #1044]
 275              		.loc 1 67 0
 276 0142 D0F8D820 		ldr	r2, [r0, #216]
 277 0146 C3F82024 		str	r2, [r3, #1056]
 278              		.loc 1 68 0
 279 014a D0F8DC20 		ldr	r2, [r0, #220]
 280 014e C3F82424 		str	r2, [r3, #1060]
 281              		.loc 1 69 0
 282 0152 D0F8C420 		ldr	r2, [r0, #196]
 283 0156 C3F80024 		str	r2, [r3, #1024]
 284              	.LVL9:
 285              	.LBE43:
ARM GAS  /var/folders/m4/4md61f0s1_g0rzfghffqnxvr0000gn/T//ccl2e1ol.s 			page 6


 286              	.LBE42:
 287              	.LBB44:
 288              	.LBB45:
 289              		.loc 1 63 0
 290 015a D0F8E420 		ldr	r2, [r0, #228]
 291 015e C3F80428 		str	r2, [r3, #2052]
 292              		.loc 1 64 0
 293 0162 D0F8E820 		ldr	r2, [r0, #232]
 294 0166 C3F80828 		str	r2, [r3, #2056]
 295              		.loc 1 65 0
 296 016a D0F8EC20 		ldr	r2, [r0, #236]
 297 016e C3F80C28 		str	r2, [r3, #2060]
 298              		.loc 1 66 0
 299 0172 D0F8F020 		ldr	r2, [r0, #240]
 300 0176 C3F81428 		str	r2, [r3, #2068]
 301              		.loc 1 67 0
 302 017a D0F8F420 		ldr	r2, [r0, #244]
 303 017e C3F82028 		str	r2, [r3, #2080]
 304              		.loc 1 68 0
 305 0182 D0F8F820 		ldr	r2, [r0, #248]
 306 0186 C3F82428 		str	r2, [r3, #2084]
 307              		.loc 1 69 0
 308 018a D0F8E020 		ldr	r2, [r0, #224]
 309 018e C3F80028 		str	r2, [r3, #2048]
 310              	.LVL10:
 311              	.LBE45:
 312              	.LBE44:
 313              		.loc 1 144 0
 314 0192 F0BC     		pop	{r4, r5, r6, r7}
 315              		.cfi_restore 7
 316              		.cfi_restore 6
 317              		.cfi_restore 5
 318              		.cfi_restore 4
 319              		.cfi_def_cfa_offset 0
 320 0194 7047     		bx	lr
 321              	.L4:
 322 0196 00BF     		.align	2
 323              	.L3:
 324 0198 00380240 		.word	1073887232
 325 019c 00000240 		.word	1073872896
 326 01a0 00040240 		.word	1073873920
 327 01a4 00080240 		.word	1073874944
 328 01a8 000C0240 		.word	1073875968
 329              		.cfi_endproc
 330              	.LFE269:
 331              		.size	_pal_lld_init, .-_pal_lld_init
 332              		.section	.text._pal_lld_setgroupmode,"ax",%progbits
 333              		.align	2
 334              		.p2align 4,,15
 335              		.global	_pal_lld_setgroupmode
 336              		.thumb
 337              		.thumb_func
 338              		.type	_pal_lld_setgroupmode, %function
 339              	_pal_lld_setgroupmode:
 340              	.LFB270:
 341              		.loc 1 161 0
 342              		.cfi_startproc
ARM GAS  /var/folders/m4/4md61f0s1_g0rzfghffqnxvr0000gn/T//ccl2e1ol.s 			page 7


 343              		@ args = 0, pretend = 0, frame = 0
 344              		@ frame_needed = 0, uses_anonymous_args = 0
 345              	.LVL11:
 346 0000 2DE9F04F 		push	{r4, r5, r6, r7, r8, r9, r10, fp, lr}
 347              		.cfi_def_cfa_offset 36
 348              		.cfi_offset 4, -36
 349              		.cfi_offset 5, -32
 350              		.cfi_offset 6, -28
 351              		.cfi_offset 7, -24
 352              		.cfi_offset 8, -20
 353              		.cfi_offset 9, -16
 354              		.cfi_offset 10, -12
 355              		.cfi_offset 11, -8
 356              		.cfi_offset 14, -4
 357              		.loc 1 166 0
 358 0004 C2F3411C 		ubfx	ip, r2, #5, #2
 359              		.loc 1 163 0
 360 0008 02F0030E 		and	lr, r2, #3
 361              	.LVL12:
 362              		.loc 1 164 0
 363 000c C2F38009 		ubfx	r9, r2, #2, #1
 364              	.LVL13:
 365              		.loc 1 165 0
 366 0010 C2F3C108 		ubfx	r8, r2, #3, #2
 367              	.LVL14:
 368              		.loc 1 168 0
 369 0014 0027     		movs	r7, #0
 370              		.loc 1 167 0
 371 0016 C2F3C312 		ubfx	r2, r2, #7, #4
 372              	.LVL15:
 373              	.LBB46:
 374              		.loc 1 176 0
 375 001a 4FF00F0B 		mov	fp, #15
 376              		.loc 1 177 0
 377 001e 4FF0010A 		mov	r10, #1
 378 0022 0FE0     		b	.L12
 379              	.LVL16:
 380              	.L19:
 381              		.loc 1 194 0
 382 0024 046A     		ldr	r4, [r0, #32]
 383 0026 24EA0303 		bic	r3, r4, r3
 384              	.LVL17:
 385 002a 1D43     		orrs	r5, r5, r3
 386              	.LVL18:
 387 002c 0562     		str	r5, [r0, #32]
 388              	.LVL19:
 389              	.L6:
 390              	.LBE46:
 391              		.loc 1 200 0
 392 002e 4908     		lsrs	r1, r1, #1
 393              	.LVL20:
 394 0030 39D0     		beq	.L5
 395              	.LVL21:
 396              	.L20:
 397              		.loc 1 202 0
 398 0032 4FEA4909 		lsl	r9, r9, #1
 399              	.LVL22:
ARM GAS  /var/folders/m4/4md61f0s1_g0rzfghffqnxvr0000gn/T//ccl2e1ol.s 			page 8


 400              		.loc 1 203 0
 401 0036 4FEA8808 		lsl	r8, r8, #2
 402              	.LVL23:
 403              		.loc 1 204 0
 404 003a 4FEA8C0C 		lsl	ip, ip, #2
 405              	.LVL24:
 406              		.loc 1 205 0
 407 003e 4FEA8E0E 		lsl	lr, lr, #2
 408              	.LVL25:
 409              		.loc 1 206 0
 410 0042 0137     		adds	r7, r7, #1
 411              	.LVL26:
 412              	.L12:
 413              		.loc 1 170 0
 414 0044 CB07     		lsls	r3, r1, #31
 415 0046 F2D5     		bpl	.L6
 416              	.LBB47:
 417              		.loc 1 177 0
 418 0048 4368     		ldr	r3, [r0, #4]
 419 004a 0AFA07F4 		lsl	r4, r10, r7
 420 004e 23EA0403 		bic	r3, r3, r4
 421 0052 43EA0903 		orr	r3, r3, r9
 422 0056 4360     		str	r3, [r0, #4]
 423              		.loc 1 178 0
 424 0058 0325     		movs	r5, #3
 425 005a 7C00     		lsls	r4, r7, #1
 426 005c 8368     		ldr	r3, [r0, #8]
 427 005e 05FA04F4 		lsl	r4, r5, r4
 428 0062 E443     		mvns	r4, r4
 429 0064 2340     		ands	r3, r3, r4
 430 0066 43EA0803 		orr	r3, r3, r8
 431 006a 8360     		str	r3, [r0, #8]
 432              		.loc 1 179 0
 433 006c C568     		ldr	r5, [r0, #12]
 434              		.loc 1 173 0
 435 006e 07F00703 		and	r3, r7, #7
 436              		.loc 1 179 0
 437 0072 2540     		ands	r5, r5, r4
 438 0074 45EA0C05 		orr	r5, r5, ip
 439              		.loc 1 173 0
 440 0078 9B00     		lsls	r3, r3, #2
 441              		.loc 1 180 0
 442 007a BEF1020F 		cmp	lr, #2
 443              		.loc 1 179 0
 444 007e C560     		str	r5, [r0, #12]
 445              		.loc 1 173 0
 446 0080 02FA03F5 		lsl	r5, r2, r3
 447              	.LVL27:
 448              		.loc 1 176 0
 449 0084 0BFA03F3 		lsl	r3, fp, r3
 450              	.LVL28:
 451              		.loc 1 180 0
 452 0088 0FD0     		beq	.L18
 453              		.loc 1 192 0
 454 008a 0668     		ldr	r6, [r0]
 455 008c 3440     		ands	r4, r4, r6
 456              	.LVL29:
ARM GAS  /var/folders/m4/4md61f0s1_g0rzfghffqnxvr0000gn/T//ccl2e1ol.s 			page 9


 457 008e 44EA0E04 		orr	r4, r4, lr
 458              		.loc 1 193 0
 459 0092 072F     		cmp	r7, #7
 460              		.loc 1 192 0
 461 0094 0460     		str	r4, [r0]
 462              		.loc 1 193 0
 463 0096 C5D9     		bls	.L19
 464              		.loc 1 196 0
 465 0098 446A     		ldr	r4, [r0, #36]
 466 009a 24EA0303 		bic	r3, r4, r3
 467              	.LVL30:
 468 009e 1D43     		orrs	r5, r5, r3
 469              	.LVL31:
 470              	.LBE47:
 471              		.loc 1 200 0
 472 00a0 4908     		lsrs	r1, r1, #1
 473              	.LVL32:
 474              	.LBB48:
 475              		.loc 1 196 0
 476 00a2 4562     		str	r5, [r0, #36]
 477              	.LBE48:
 478              		.loc 1 200 0
 479 00a4 C5D1     		bne	.L20
 480              	.LVL33:
 481              	.L5:
 482 00a6 BDE8F08F 		pop	{r4, r5, r6, r7, r8, r9, r10, fp, pc}
 483              	.LVL34:
 484              	.L18:
 485              	.LBB49:
 486              		.loc 1 183 0
 487 00aa 072F     		cmp	r7, #7
 488 00ac 0AD8     		bhi	.L8
 489              		.loc 1 184 0
 490 00ae 066A     		ldr	r6, [r0, #32]
 491 00b0 26EA0303 		bic	r3, r6, r3
 492              	.LVL35:
 493 00b4 1D43     		orrs	r5, r5, r3
 494              	.LVL36:
 495 00b6 0562     		str	r5, [r0, #32]
 496              	.L9:
 497              		.loc 1 187 0
 498 00b8 0368     		ldr	r3, [r0]
 499 00ba 1C40     		ands	r4, r4, r3
 500              	.LVL37:
 501 00bc 44F00204 		orr	r4, r4, #2
 502 00c0 0460     		str	r4, [r0]
 503 00c2 B4E7     		b	.L6
 504              	.LVL38:
 505              	.L8:
 506              		.loc 1 186 0
 507 00c4 466A     		ldr	r6, [r0, #36]
 508 00c6 26EA0303 		bic	r3, r6, r3
 509              	.LVL39:
 510 00ca 1D43     		orrs	r5, r5, r3
 511              	.LVL40:
 512 00cc 4562     		str	r5, [r0, #36]
 513 00ce F3E7     		b	.L9
ARM GAS  /var/folders/m4/4md61f0s1_g0rzfghffqnxvr0000gn/T//ccl2e1ol.s 			page 10


 514              	.LBE49:
 515              		.cfi_endproc
 516              	.LFE270:
 517              		.size	_pal_lld_setgroupmode, .-_pal_lld_setgroupmode
 518              		.text
 519              	.Letext0:
 520              		.file 2 "/opt/homebrew-cask/Caskroom/gcc-arm-embedded/5_2-2015q4,20151219/gcc-arm-none-eabi-5_2-20
 521              		.file 3 "/opt/homebrew-cask/Caskroom/gcc-arm-embedded/5_2-2015q4,20151219/gcc-arm-none-eabi-5_2-20
 522              		.file 4 "ChibiOS_16.1.4/os/rt/ports/ARMCMx/compilers/GCC/chtypes.h"
 523              		.file 5 "ChibiOS_16.1.4/os/rt/include/chsystypes.h"
 524              		.file 6 "ChibiOS_16.1.4/os/rt/include/chschd.h"
 525              		.file 7 "ChibiOS_16.1.4/os/ext/CMSIS/ST/STM32F4xx/stm32f405xx.h"
 526              		.file 8 "ChibiOS_16.1.4/os/rt/ports/ARMCMx/chcore.h"
 527              		.file 9 "ChibiOS_16.1.4/os/rt/ports/ARMCMx/chcore_v7m.h"
 528              		.file 10 "ChibiOS_16.1.4/os/rt/include/chtm.h"
 529              		.file 11 "ChibiOS_16.1.4/os/rt/include/chsem.h"
 530              		.file 12 "ChibiOS_16.1.4/os/rt/include/chmtx.h"
 531              		.file 13 "ChibiOS_16.1.4/os/hal/ports/STM32/LLD/GPIOv2/pal_lld.h"
 532              		.file 14 "ChibiOS_16.1.4/os/ext/CMSIS/include/core_cm4.h"
 533              		.section	.debug_info,"",%progbits
 534              	.Ldebug_info0:
 535 0000 6A0D0000 		.4byte	0xd6a
 536 0004 0400     		.2byte	0x4
 537 0006 00000000 		.4byte	.Ldebug_abbrev0
 538 000a 04       		.byte	0x4
 539 000b 01       		.uleb128 0x1
 540 000c 86050000 		.4byte	.LASF175
 541 0010 0C       		.byte	0xc
 542 0011 6B040000 		.4byte	.LASF176
 543 0015 95020000 		.4byte	.LASF177
 544 0019 88000000 		.4byte	.Ldebug_ranges0+0x88
 545 001d 00000000 		.4byte	0
 546 0021 00000000 		.4byte	.Ldebug_line0
 547 0025 02       		.uleb128 0x2
 548 0026 04       		.byte	0x4
 549 0027 05       		.byte	0x5
 550 0028 696E7400 		.ascii	"int\000"
 551 002c 03       		.uleb128 0x3
 552 002d 04       		.byte	0x4
 553 002e 07       		.byte	0x7
 554 002f 03020000 		.4byte	.LASF0
 555 0033 03       		.uleb128 0x3
 556 0034 01       		.byte	0x1
 557 0035 06       		.byte	0x6
 558 0036 0B010000 		.4byte	.LASF1
 559 003a 04       		.uleb128 0x4
 560 003b 36000000 		.4byte	.LASF4
 561 003f 02       		.byte	0x2
 562 0040 1D       		.byte	0x1d
 563 0041 45000000 		.4byte	0x45
 564 0045 03       		.uleb128 0x3
 565 0046 01       		.byte	0x1
 566 0047 08       		.byte	0x8
 567 0048 5D040000 		.4byte	.LASF2
 568 004c 03       		.uleb128 0x3
 569 004d 02       		.byte	0x2
 570 004e 05       		.byte	0x5
ARM GAS  /var/folders/m4/4md61f0s1_g0rzfghffqnxvr0000gn/T//ccl2e1ol.s 			page 11


 571 004f B7040000 		.4byte	.LASF3
 572 0053 04       		.uleb128 0x4
 573 0054 93060000 		.4byte	.LASF5
 574 0058 02       		.byte	0x2
 575 0059 2B       		.byte	0x2b
 576 005a 5E000000 		.4byte	0x5e
 577 005e 03       		.uleb128 0x3
 578 005f 02       		.byte	0x2
 579 0060 07       		.byte	0x7
 580 0061 57020000 		.4byte	.LASF6
 581 0065 04       		.uleb128 0x4
 582 0066 02030000 		.4byte	.LASF7
 583 006a 02       		.byte	0x2
 584 006b 3F       		.byte	0x3f
 585 006c 70000000 		.4byte	0x70
 586 0070 03       		.uleb128 0x3
 587 0071 04       		.byte	0x4
 588 0072 05       		.byte	0x5
 589 0073 5B010000 		.4byte	.LASF8
 590 0077 04       		.uleb128 0x4
 591 0078 D5060000 		.4byte	.LASF9
 592 007c 02       		.byte	0x2
 593 007d 41       		.byte	0x41
 594 007e 82000000 		.4byte	0x82
 595 0082 03       		.uleb128 0x3
 596 0083 04       		.byte	0x4
 597 0084 07       		.byte	0x7
 598 0085 6A050000 		.4byte	.LASF10
 599 0089 03       		.uleb128 0x3
 600 008a 08       		.byte	0x8
 601 008b 05       		.byte	0x5
 602 008c FD000000 		.4byte	.LASF11
 603 0090 04       		.uleb128 0x4
 604 0091 D7030000 		.4byte	.LASF12
 605 0095 02       		.byte	0x2
 606 0096 5B       		.byte	0x5b
 607 0097 9B000000 		.4byte	0x9b
 608 009b 03       		.uleb128 0x3
 609 009c 08       		.byte	0x8
 610 009d 07       		.byte	0x7
 611 009e 7C000000 		.4byte	.LASF13
 612 00a2 04       		.uleb128 0x4
 613 00a3 8E070000 		.4byte	.LASF14
 614 00a7 03       		.byte	0x3
 615 00a8 14       		.byte	0x14
 616 00a9 3A000000 		.4byte	0x3a
 617 00ad 04       		.uleb128 0x4
 618 00ae 18020000 		.4byte	.LASF15
 619 00b2 03       		.byte	0x3
 620 00b3 1A       		.byte	0x1a
 621 00b4 53000000 		.4byte	0x53
 622 00b8 04       		.uleb128 0x4
 623 00b9 55040000 		.4byte	.LASF16
 624 00bd 03       		.byte	0x3
 625 00be 1F       		.byte	0x1f
 626 00bf 65000000 		.4byte	0x65
 627 00c3 04       		.uleb128 0x4
ARM GAS  /var/folders/m4/4md61f0s1_g0rzfghffqnxvr0000gn/T//ccl2e1ol.s 			page 12


 628 00c4 42050000 		.4byte	.LASF17
 629 00c8 03       		.byte	0x3
 630 00c9 20       		.byte	0x20
 631 00ca 77000000 		.4byte	0x77
 632 00ce 04       		.uleb128 0x4
 633 00cf 2D000000 		.4byte	.LASF18
 634 00d3 03       		.byte	0x3
 635 00d4 26       		.byte	0x26
 636 00d5 90000000 		.4byte	0x90
 637 00d9 04       		.uleb128 0x4
 638 00da 3B070000 		.4byte	.LASF19
 639 00de 04       		.byte	0x4
 640 00df 39       		.byte	0x39
 641 00e0 C3000000 		.4byte	0xc3
 642 00e4 04       		.uleb128 0x4
 643 00e5 D6020000 		.4byte	.LASF20
 644 00e9 04       		.byte	0x4
 645 00ea 3C       		.byte	0x3c
 646 00eb A2000000 		.4byte	0xa2
 647 00ef 04       		.uleb128 0x4
 648 00f0 7E010000 		.4byte	.LASF21
 649 00f4 04       		.byte	0x4
 650 00f5 3D       		.byte	0x3d
 651 00f6 A2000000 		.4byte	0xa2
 652 00fa 04       		.uleb128 0x4
 653 00fb EC030000 		.4byte	.LASF22
 654 00ff 04       		.byte	0x4
 655 0100 3E       		.byte	0x3e
 656 0101 A2000000 		.4byte	0xa2
 657 0105 04       		.uleb128 0x4
 658 0106 3B010000 		.4byte	.LASF23
 659 010a 04       		.byte	0x4
 660 010b 3F       		.byte	0x3f
 661 010c A2000000 		.4byte	0xa2
 662 0110 04       		.uleb128 0x4
 663 0111 37040000 		.4byte	.LASF24
 664 0115 04       		.byte	0x4
 665 0116 40       		.byte	0x40
 666 0117 C3000000 		.4byte	0xc3
 667 011b 04       		.uleb128 0x4
 668 011c 86020000 		.4byte	.LASF25
 669 0120 04       		.byte	0x4
 670 0121 41       		.byte	0x41
 671 0122 B8000000 		.4byte	0xb8
 672 0126 04       		.uleb128 0x4
 673 0127 F6020000 		.4byte	.LASF26
 674 012b 04       		.byte	0x4
 675 012c 43       		.byte	0x43
 676 012d C3000000 		.4byte	0xc3
 677 0131 04       		.uleb128 0x4
 678 0132 FD010000 		.4byte	.LASF27
 679 0136 04       		.byte	0x4
 680 0137 45       		.byte	0x45
 681 0138 B8000000 		.4byte	0xb8
 682 013c 04       		.uleb128 0x4
 683 013d B7060000 		.4byte	.LASF28
 684 0141 05       		.byte	0x5
ARM GAS  /var/folders/m4/4md61f0s1_g0rzfghffqnxvr0000gn/T//ccl2e1ol.s 			page 13


 685 0142 33       		.byte	0x33
 686 0143 C3000000 		.4byte	0xc3
 687 0147 04       		.uleb128 0x4
 688 0148 A7060000 		.4byte	.LASF29
 689 014c 05       		.byte	0x5
 690 014d 3F       		.byte	0x3f
 691 014e 52010000 		.4byte	0x152
 692 0152 05       		.uleb128 0x5
 693 0153 71020000 		.4byte	.LASF51
 694 0157 48       		.byte	0x48
 695 0158 06       		.byte	0x6
 696 0159 C2       		.byte	0xc2
 697 015a 57020000 		.4byte	0x257
 698 015e 06       		.uleb128 0x6
 699 015f 80030000 		.4byte	.LASF30
 700 0163 06       		.byte	0x6
 701 0164 C3       		.byte	0xc3
 702 0165 62020000 		.4byte	0x262
 703 0169 00       		.byte	0
 704 016a 06       		.uleb128 0x6
 705 016b 26040000 		.4byte	.LASF31
 706 016f 06       		.byte	0x6
 707 0170 C5       		.byte	0xc5
 708 0171 62020000 		.4byte	0x262
 709 0175 04       		.byte	0x4
 710 0176 06       		.uleb128 0x6
 711 0177 EB000000 		.4byte	.LASF32
 712 017b 06       		.byte	0x6
 713 017c C7       		.byte	0xc7
 714 017d 10010000 		.4byte	0x110
 715 0181 08       		.byte	0x8
 716 0182 06       		.uleb128 0x6
 717 0183 E7070000 		.4byte	.LASF33
 718 0187 06       		.byte	0x6
 719 0188 C8       		.byte	0xc8
 720 0189 42060000 		.4byte	0x642
 721 018d 0C       		.byte	0xc
 722 018e 06       		.uleb128 0x6
 723 018f 90010000 		.4byte	.LASF34
 724 0193 06       		.byte	0x6
 725 0194 CA       		.byte	0xca
 726 0195 62020000 		.4byte	0x262
 727 0199 10       		.byte	0x10
 728 019a 06       		.uleb128 0x6
 729 019b 8F030000 		.4byte	.LASF35
 730 019f 06       		.byte	0x6
 731 01a0 CB       		.byte	0xcb
 732 01a1 62020000 		.4byte	0x262
 733 01a5 14       		.byte	0x14
 734 01a6 06       		.uleb128 0x6
 735 01a7 A3070000 		.4byte	.LASF36
 736 01ab 06       		.byte	0x6
 737 01ac D2       		.byte	0xd2
 738 01ad 90080000 		.4byte	0x890
 739 01b1 18       		.byte	0x18
 740 01b2 06       		.uleb128 0x6
 741 01b3 C1040000 		.4byte	.LASF37
ARM GAS  /var/folders/m4/4md61f0s1_g0rzfghffqnxvr0000gn/T//ccl2e1ol.s 			page 14


 742 01b7 06       		.byte	0x6
 743 01b8 DD       		.byte	0xdd
 744 01b9 EF000000 		.4byte	0xef
 745 01bd 1C       		.byte	0x1c
 746 01be 06       		.uleb128 0x6
 747 01bf F2040000 		.4byte	.LASF38
 748 01c3 06       		.byte	0x6
 749 01c4 E1       		.byte	0xe1
 750 01c5 E4000000 		.4byte	0xe4
 751 01c9 1D       		.byte	0x1d
 752 01ca 06       		.uleb128 0x6
 753 01cb 69070000 		.4byte	.LASF39
 754 01cf 06       		.byte	0x6
 755 01d0 E6       		.byte	0xe6
 756 01d1 FA000000 		.4byte	0xfa
 757 01d5 1E       		.byte	0x1e
 758 01d6 06       		.uleb128 0x6
 759 01d7 C9040000 		.4byte	.LASF40
 760 01db 06       		.byte	0x6
 761 01dc EC       		.byte	0xec
 762 01dd 05010000 		.4byte	0x105
 763 01e1 1F       		.byte	0x1f
 764 01e2 06       		.uleb128 0x6
 765 01e3 21020000 		.4byte	.LASF41
 766 01e7 06       		.byte	0x6
 767 01e8 F3       		.byte	0xf3
 768 01e9 A2080000 		.4byte	0x8a2
 769 01ed 20       		.byte	0x20
 770 01ee 07       		.uleb128 0x7
 771 01ef 705F7500 		.ascii	"p_u\000"
 772 01f3 06       		.byte	0x6
 773 01f4 3101     		.2byte	0x131
 774 01f6 CB070000 		.4byte	0x7cb
 775 01fa 24       		.byte	0x24
 776 01fb 08       		.uleb128 0x8
 777 01fc 3D030000 		.4byte	.LASF42
 778 0200 06       		.byte	0x6
 779 0201 3601     		.2byte	0x136
 780 0203 68020000 		.4byte	0x268
 781 0207 28       		.byte	0x28
 782 0208 08       		.uleb128 0x8
 783 0209 38020000 		.4byte	.LASF43
 784 020d 06       		.byte	0x6
 785 020e 3C01     		.2byte	0x13c
 786 0210 8C020000 		.4byte	0x28c
 787 0214 2C       		.byte	0x2c
 788 0215 08       		.uleb128 0x8
 789 0216 C6070000 		.4byte	.LASF44
 790 021a 06       		.byte	0x6
 791 021b 4001     		.2byte	0x140
 792 021d 1B010000 		.4byte	0x11b
 793 0221 34       		.byte	0x34
 794 0222 08       		.uleb128 0x8
 795 0223 2D050000 		.4byte	.LASF45
 796 0227 06       		.byte	0x6
 797 0228 4601     		.2byte	0x146
 798 022a 26010000 		.4byte	0x126
ARM GAS  /var/folders/m4/4md61f0s1_g0rzfghffqnxvr0000gn/T//ccl2e1ol.s 			page 15


 799 022e 38       		.byte	0x38
 800 022f 08       		.uleb128 0x8
 801 0230 AD040000 		.4byte	.LASF46
 802 0234 06       		.byte	0x6
 803 0235 4D01     		.2byte	0x14d
 804 0237 8A080000 		.4byte	0x88a
 805 023b 3C       		.byte	0x3c
 806 023c 08       		.uleb128 0x8
 807 023d C1060000 		.4byte	.LASF47
 808 0241 06       		.byte	0x6
 809 0242 5101     		.2byte	0x151
 810 0244 10010000 		.4byte	0x110
 811 0248 40       		.byte	0x40
 812 0249 08       		.uleb128 0x8
 813 024a 25010000 		.4byte	.LASF48
 814 024e 06       		.byte	0x6
 815 024f 5801     		.2byte	0x158
 816 0251 3F030000 		.4byte	0x33f
 817 0255 44       		.byte	0x44
 818 0256 00       		.byte	0
 819 0257 04       		.uleb128 0x4
 820 0258 50030000 		.4byte	.LASF49
 821 025c 05       		.byte	0x5
 822 025d 44       		.byte	0x44
 823 025e 62020000 		.4byte	0x262
 824 0262 09       		.uleb128 0x9
 825 0263 04       		.byte	0x4
 826 0264 47010000 		.4byte	0x147
 827 0268 04       		.uleb128 0x4
 828 0269 1E030000 		.4byte	.LASF50
 829 026d 05       		.byte	0x5
 830 026e 49       		.byte	0x49
 831 026f 73020000 		.4byte	0x273
 832 0273 05       		.uleb128 0x5
 833 0274 5A050000 		.4byte	.LASF52
 834 0278 04       		.byte	0x4
 835 0279 06       		.byte	0x6
 836 027a B0       		.byte	0xb0
 837 027b 8C020000 		.4byte	0x28c
 838 027f 06       		.uleb128 0x6
 839 0280 80030000 		.4byte	.LASF30
 840 0284 06       		.byte	0x6
 841 0285 B1       		.byte	0xb1
 842 0286 62020000 		.4byte	0x262
 843 028a 00       		.byte	0
 844 028b 00       		.byte	0
 845 028c 04       		.uleb128 0x4
 846 028d 50070000 		.4byte	.LASF53
 847 0291 05       		.byte	0x5
 848 0292 50       		.byte	0x50
 849 0293 97020000 		.4byte	0x297
 850 0297 05       		.uleb128 0x5
 851 0298 D0000000 		.4byte	.LASF54
 852 029c 08       		.byte	0x8
 853 029d 06       		.byte	0x6
 854 029e B7       		.byte	0xb7
 855 029f BC020000 		.4byte	0x2bc
ARM GAS  /var/folders/m4/4md61f0s1_g0rzfghffqnxvr0000gn/T//ccl2e1ol.s 			page 16


 856 02a3 06       		.uleb128 0x6
 857 02a4 80030000 		.4byte	.LASF30
 858 02a8 06       		.byte	0x6
 859 02a9 B8       		.byte	0xb8
 860 02aa 62020000 		.4byte	0x262
 861 02ae 00       		.byte	0
 862 02af 06       		.uleb128 0x6
 863 02b0 26040000 		.4byte	.LASF31
 864 02b4 06       		.byte	0x6
 865 02b5 B9       		.byte	0xb9
 866 02b6 62020000 		.4byte	0x262
 867 02ba 04       		.byte	0x4
 868 02bb 00       		.byte	0
 869 02bc 04       		.uleb128 0x4
 870 02bd 13000000 		.4byte	.LASF55
 871 02c1 05       		.byte	0x5
 872 02c2 57       		.byte	0x57
 873 02c3 C7020000 		.4byte	0x2c7
 874 02c7 0A       		.uleb128 0xa
 875 02c8 E8020000 		.4byte	.LASF56
 876 02cc 1C       		.byte	0x1c
 877 02cd 06       		.byte	0x6
 878 02ce 9001     		.2byte	0x190
 879 02d0 23030000 		.4byte	0x323
 880 02d4 08       		.uleb128 0x8
 881 02d5 52050000 		.4byte	.LASF57
 882 02d9 06       		.byte	0x6
 883 02da 9101     		.2byte	0x191
 884 02dc 8C020000 		.4byte	0x28c
 885 02e0 00       		.byte	0
 886 02e1 08       		.uleb128 0x8
 887 02e2 DD040000 		.4byte	.LASF58
 888 02e6 06       		.byte	0x6
 889 02e7 9201     		.2byte	0x192
 890 02e9 10010000 		.4byte	0x110
 891 02ed 08       		.byte	0x8
 892 02ee 08       		.uleb128 0x8
 893 02ef 97030000 		.4byte	.LASF59
 894 02f3 06       		.byte	0x6
 895 02f4 9401     		.2byte	0x194
 896 02f6 42060000 		.4byte	0x642
 897 02fa 0C       		.byte	0xc
 898 02fb 08       		.uleb128 0x8
 899 02fc A8010000 		.4byte	.LASF60
 900 0300 06       		.byte	0x6
 901 0301 9701     		.2byte	0x197
 902 0303 62020000 		.4byte	0x262
 903 0307 10       		.byte	0x10
 904 0308 08       		.uleb128 0x8
 905 0309 1D070000 		.4byte	.LASF61
 906 030d 06       		.byte	0x6
 907 030e 9801     		.2byte	0x198
 908 0310 62020000 		.4byte	0x262
 909 0314 14       		.byte	0x14
 910 0315 08       		.uleb128 0x8
 911 0316 C4030000 		.4byte	.LASF62
 912 031a 06       		.byte	0x6
ARM GAS  /var/folders/m4/4md61f0s1_g0rzfghffqnxvr0000gn/T//ccl2e1ol.s 			page 17


 913 031b 9B01     		.2byte	0x19b
 914 031d 62020000 		.4byte	0x262
 915 0321 18       		.byte	0x18
 916 0322 00       		.byte	0
 917 0323 04       		.uleb128 0x4
 918 0324 CC060000 		.4byte	.LASF63
 919 0328 05       		.byte	0x5
 920 0329 5C       		.byte	0x5c
 921 032a 2E030000 		.4byte	0x32e
 922 032e 09       		.uleb128 0x9
 923 032f 04       		.byte	0x4
 924 0330 34030000 		.4byte	0x334
 925 0334 0B       		.uleb128 0xb
 926 0335 3F030000 		.4byte	0x33f
 927 0339 0C       		.uleb128 0xc
 928 033a 3F030000 		.4byte	0x33f
 929 033e 00       		.byte	0
 930 033f 0D       		.uleb128 0xd
 931 0340 04       		.byte	0x4
 932 0341 04       		.uleb128 0x4
 933 0342 2D030000 		.4byte	.LASF64
 934 0346 05       		.byte	0x5
 935 0347 61       		.byte	0x61
 936 0348 4C030000 		.4byte	0x34c
 937 034c 0A       		.uleb128 0xa
 938 034d 0F050000 		.4byte	.LASF65
 939 0351 14       		.byte	0x14
 940 0352 06       		.byte	0x6
 941 0353 6B01     		.2byte	0x16b
 942 0355 9B030000 		.4byte	0x39b
 943 0359 08       		.uleb128 0x8
 944 035a 10020000 		.4byte	.LASF66
 945 035e 06       		.byte	0x6
 946 035f 6C01     		.2byte	0x16c
 947 0361 A7080000 		.4byte	0x8a7
 948 0365 00       		.byte	0
 949 0366 08       		.uleb128 0x8
 950 0367 BE010000 		.4byte	.LASF67
 951 036b 06       		.byte	0x6
 952 036c 6D01     		.2byte	0x16d
 953 036e A7080000 		.4byte	0x8a7
 954 0372 04       		.byte	0x4
 955 0373 08       		.uleb128 0x8
 956 0374 2F020000 		.4byte	.LASF68
 957 0378 06       		.byte	0x6
 958 0379 6E01     		.2byte	0x16e
 959 037b 3C010000 		.4byte	0x13c
 960 037f 08       		.byte	0x8
 961 0380 08       		.uleb128 0x8
 962 0381 ED070000 		.4byte	.LASF69
 963 0385 06       		.byte	0x6
 964 0386 6F01     		.2byte	0x16f
 965 0388 23030000 		.4byte	0x323
 966 038c 0C       		.byte	0xc
 967 038d 08       		.uleb128 0x8
 968 038e 43070000 		.4byte	.LASF70
 969 0392 06       		.byte	0x6
ARM GAS  /var/folders/m4/4md61f0s1_g0rzfghffqnxvr0000gn/T//ccl2e1ol.s 			page 18


 970 0393 7101     		.2byte	0x171
 971 0395 3F030000 		.4byte	0x33f
 972 0399 10       		.byte	0x10
 973 039a 00       		.byte	0
 974 039b 04       		.uleb128 0x4
 975 039c AD000000 		.4byte	.LASF71
 976 03a0 05       		.byte	0x5
 977 03a1 66       		.byte	0x66
 978 03a2 A6030000 		.4byte	0x3a6
 979 03a6 0A       		.uleb128 0xa
 980 03a7 63030000 		.4byte	.LASF72
 981 03ab 10       		.byte	0x10
 982 03ac 06       		.byte	0x6
 983 03ad 7B01     		.2byte	0x17b
 984 03af E8030000 		.4byte	0x3e8
 985 03b3 08       		.uleb128 0x8
 986 03b4 10020000 		.4byte	.LASF66
 987 03b8 06       		.byte	0x6
 988 03b9 7C01     		.2byte	0x17c
 989 03bb A7080000 		.4byte	0x8a7
 990 03bf 00       		.byte	0
 991 03c0 08       		.uleb128 0x8
 992 03c1 BE010000 		.4byte	.LASF67
 993 03c5 06       		.byte	0x6
 994 03c6 7E01     		.2byte	0x17e
 995 03c8 A7080000 		.4byte	0x8a7
 996 03cc 04       		.byte	0x4
 997 03cd 08       		.uleb128 0x8
 998 03ce 2F020000 		.4byte	.LASF68
 999 03d2 06       		.byte	0x6
 1000 03d3 8001     		.2byte	0x180
 1001 03d5 3C010000 		.4byte	0x13c
 1002 03d9 08       		.byte	0x8
 1003 03da 08       		.uleb128 0x8
 1004 03db F2000000 		.4byte	.LASF73
 1005 03df 06       		.byte	0x6
 1006 03e0 8201     		.2byte	0x182
 1007 03e2 A2080000 		.4byte	0x8a2
 1008 03e6 0C       		.byte	0xc
 1009 03e7 00       		.byte	0
 1010 03e8 04       		.uleb128 0x4
 1011 03e9 53000000 		.4byte	.LASF74
 1012 03ed 05       		.byte	0x5
 1013 03ee 6B       		.byte	0x6b
 1014 03ef F3030000 		.4byte	0x3f3
 1015 03f3 0A       		.uleb128 0xa
 1016 03f4 3F040000 		.4byte	.LASF75
 1017 03f8 04       		.byte	0x4
 1018 03f9 06       		.byte	0x6
 1019 03fa A201     		.2byte	0x1a2
 1020 03fc 0E040000 		.4byte	0x40e
 1021 0400 08       		.uleb128 0x8
 1022 0401 E9060000 		.4byte	.LASF76
 1023 0405 06       		.byte	0x6
 1024 0406 AA01     		.2byte	0x1aa
 1025 0408 AD080000 		.4byte	0x8ad
 1026 040c 00       		.byte	0
ARM GAS  /var/folders/m4/4md61f0s1_g0rzfghffqnxvr0000gn/T//ccl2e1ol.s 			page 19


 1027 040d 00       		.byte	0
 1028 040e 04       		.uleb128 0x4
 1029 040f CA020000 		.4byte	.LASF77
 1030 0413 05       		.byte	0x5
 1031 0414 70       		.byte	0x70
 1032 0415 19040000 		.4byte	0x419
 1033 0419 0E       		.uleb128 0xe
 1034 041a 51010000 		.4byte	.LASF78
 1035 041e 5802     		.2byte	0x258
 1036 0420 06       		.byte	0x6
 1037 0421 C201     		.2byte	0x1c2
 1038 0423 75040000 		.4byte	0x475
 1039 0427 08       		.uleb128 0x8
 1040 0428 88070000 		.4byte	.LASF79
 1041 042c 06       		.byte	0x6
 1042 042d C601     		.2byte	0x1c6
 1043 042f BC020000 		.4byte	0x2bc
 1044 0433 00       		.byte	0
 1045 0434 08       		.uleb128 0x8
 1046 0435 C6010000 		.4byte	.LASF80
 1047 0439 06       		.byte	0x6
 1048 043a CA01     		.2byte	0x1ca
 1049 043c 9B030000 		.4byte	0x39b
 1050 0440 1C       		.byte	0x1c
 1051 0441 07       		.uleb128 0x7
 1052 0442 64626700 		.ascii	"dbg\000"
 1053 0446 06       		.byte	0x6
 1054 0447 CE01     		.2byte	0x1ce
 1055 0449 E8030000 		.4byte	0x3e8
 1056 044d 2C       		.byte	0x2c
 1057 044e 08       		.uleb128 0x8
 1058 044f A2000000 		.4byte	.LASF81
 1059 0453 06       		.byte	0x6
 1060 0454 D201     		.2byte	0x1d2
 1061 0456 47010000 		.4byte	0x147
 1062 045a 30       		.byte	0x30
 1063 045b 07       		.uleb128 0x7
 1064 045c 746D00   		.ascii	"tm\000"
 1065 045f 06       		.byte	0x6
 1066 0460 D701     		.2byte	0x1d7
 1067 0462 C0070000 		.4byte	0x7c0
 1068 0466 78       		.byte	0x78
 1069 0467 08       		.uleb128 0x8
 1070 0468 EE010000 		.4byte	.LASF82
 1071 046c 06       		.byte	0x6
 1072 046d E301     		.2byte	0x1e3
 1073 046f B2080000 		.4byte	0x8b2
 1074 0473 80       		.byte	0x80
 1075 0474 00       		.byte	0
 1076 0475 03       		.uleb128 0x3
 1077 0476 04       		.byte	0x4
 1078 0477 07       		.byte	0x7
 1079 0478 47030000 		.4byte	.LASF83
 1080 047c 0F       		.uleb128 0xf
 1081 047d C3000000 		.4byte	0xc3
 1082 0481 10       		.uleb128 0x10
 1083 0482 C3000000 		.4byte	0xc3
ARM GAS  /var/folders/m4/4md61f0s1_g0rzfghffqnxvr0000gn/T//ccl2e1ol.s 			page 20


 1084 0486 91040000 		.4byte	0x491
 1085 048a 11       		.uleb128 0x11
 1086 048b 75040000 		.4byte	0x475
 1087 048f 01       		.byte	0x1
 1088 0490 00       		.byte	0
 1089 0491 12       		.uleb128 0x12
 1090 0492 88       		.byte	0x88
 1091 0493 07       		.byte	0x7
 1092 0494 0702     		.2byte	0x207
 1093 0496 20060000 		.4byte	0x620
 1094 049a 07       		.uleb128 0x7
 1095 049b 435200   		.ascii	"CR\000"
 1096 049e 07       		.byte	0x7
 1097 049f 0902     		.2byte	0x209
 1098 04a1 7C040000 		.4byte	0x47c
 1099 04a5 00       		.byte	0
 1100 04a6 08       		.uleb128 0x8
 1101 04a7 98010000 		.4byte	.LASF84
 1102 04ab 07       		.byte	0x7
 1103 04ac 0A02     		.2byte	0x20a
 1104 04ae 7C040000 		.4byte	0x47c
 1105 04b2 04       		.byte	0x4
 1106 04b3 08       		.uleb128 0x8
 1107 04b4 B9070000 		.4byte	.LASF85
 1108 04b8 07       		.byte	0x7
 1109 04b9 0B02     		.2byte	0x20b
 1110 04bb 7C040000 		.4byte	0x47c
 1111 04bf 08       		.byte	0x8
 1112 04c0 07       		.uleb128 0x7
 1113 04c1 43495200 		.ascii	"CIR\000"
 1114 04c5 07       		.byte	0x7
 1115 04c6 0C02     		.2byte	0x20c
 1116 04c8 7C040000 		.4byte	0x47c
 1117 04cc 0C       		.byte	0xc
 1118 04cd 08       		.uleb128 0x8
 1119 04ce 1C010000 		.4byte	.LASF86
 1120 04d2 07       		.byte	0x7
 1121 04d3 0D02     		.2byte	0x20d
 1122 04d5 7C040000 		.4byte	0x47c
 1123 04d9 10       		.byte	0x10
 1124 04da 08       		.uleb128 0x8
 1125 04db 9E060000 		.4byte	.LASF87
 1126 04df 07       		.byte	0x7
 1127 04e0 0E02     		.2byte	0x20e
 1128 04e2 7C040000 		.4byte	0x47c
 1129 04e6 14       		.byte	0x14
 1130 04e7 08       		.uleb128 0x8
 1131 04e8 8C020000 		.4byte	.LASF88
 1132 04ec 07       		.byte	0x7
 1133 04ed 0F02     		.2byte	0x20f
 1134 04ef 7C040000 		.4byte	0x47c
 1135 04f3 18       		.byte	0x18
 1136 04f4 08       		.uleb128 0x8
 1137 04f5 F4030000 		.4byte	.LASF89
 1138 04f9 07       		.byte	0x7
 1139 04fa 1002     		.2byte	0x210
 1140 04fc C3000000 		.4byte	0xc3
ARM GAS  /var/folders/m4/4md61f0s1_g0rzfghffqnxvr0000gn/T//ccl2e1ol.s 			page 21


 1141 0500 1C       		.byte	0x1c
 1142 0501 08       		.uleb128 0x8
 1143 0502 CE030000 		.4byte	.LASF90
 1144 0506 07       		.byte	0x7
 1145 0507 1102     		.2byte	0x211
 1146 0509 7C040000 		.4byte	0x47c
 1147 050d 20       		.byte	0x20
 1148 050e 08       		.uleb128 0x8
 1149 050f 6B010000 		.4byte	.LASF91
 1150 0513 07       		.byte	0x7
 1151 0514 1202     		.2byte	0x212
 1152 0516 7C040000 		.4byte	0x47c
 1153 051a 24       		.byte	0x24
 1154 051b 08       		.uleb128 0x8
 1155 051c FE030000 		.4byte	.LASF92
 1156 0520 07       		.byte	0x7
 1157 0521 1302     		.2byte	0x213
 1158 0523 81040000 		.4byte	0x481
 1159 0527 28       		.byte	0x28
 1160 0528 08       		.uleb128 0x8
 1161 0529 AA070000 		.4byte	.LASF93
 1162 052d 07       		.byte	0x7
 1163 052e 1402     		.2byte	0x214
 1164 0530 7C040000 		.4byte	0x47c
 1165 0534 30       		.byte	0x30
 1166 0535 08       		.uleb128 0x8
 1167 0536 0D070000 		.4byte	.LASF94
 1168 053a 07       		.byte	0x7
 1169 053b 1502     		.2byte	0x215
 1170 053d 7C040000 		.4byte	0x47c
 1171 0541 34       		.byte	0x34
 1172 0542 08       		.uleb128 0x8
 1173 0543 87030000 		.4byte	.LASF95
 1174 0547 07       		.byte	0x7
 1175 0548 1602     		.2byte	0x216
 1176 054a 7C040000 		.4byte	0x47c
 1177 054e 38       		.byte	0x38
 1178 054f 08       		.uleb128 0x8
 1179 0550 08040000 		.4byte	.LASF96
 1180 0554 07       		.byte	0x7
 1181 0555 1702     		.2byte	0x217
 1182 0557 C3000000 		.4byte	0xc3
 1183 055b 3C       		.byte	0x3c
 1184 055c 08       		.uleb128 0x8
 1185 055d FA060000 		.4byte	.LASF97
 1186 0561 07       		.byte	0x7
 1187 0562 1802     		.2byte	0x218
 1188 0564 7C040000 		.4byte	0x47c
 1189 0568 40       		.byte	0x40
 1190 0569 08       		.uleb128 0x8
 1191 056a 00050000 		.4byte	.LASF98
 1192 056e 07       		.byte	0x7
 1193 056f 1902     		.2byte	0x219
 1194 0571 7C040000 		.4byte	0x47c
 1195 0575 44       		.byte	0x44
 1196 0576 08       		.uleb128 0x8
 1197 0577 12040000 		.4byte	.LASF99
ARM GAS  /var/folders/m4/4md61f0s1_g0rzfghffqnxvr0000gn/T//ccl2e1ol.s 			page 22


 1198 057b 07       		.byte	0x7
 1199 057c 1A02     		.2byte	0x21a
 1200 057e 81040000 		.4byte	0x481
 1201 0582 48       		.byte	0x48
 1202 0583 08       		.uleb128 0x8
 1203 0584 E1000000 		.4byte	.LASF100
 1204 0588 07       		.byte	0x7
 1205 0589 1B02     		.2byte	0x21b
 1206 058b 7C040000 		.4byte	0x47c
 1207 058f 50       		.byte	0x50
 1208 0590 08       		.uleb128 0x8
 1209 0591 9D030000 		.4byte	.LASF101
 1210 0595 07       		.byte	0x7
 1211 0596 1C02     		.2byte	0x21c
 1212 0598 7C040000 		.4byte	0x47c
 1213 059c 54       		.byte	0x54
 1214 059d 08       		.uleb128 0x8
 1215 059e D3040000 		.4byte	.LASF102
 1216 05a2 07       		.byte	0x7
 1217 05a3 1D02     		.2byte	0x21d
 1218 05a5 7C040000 		.4byte	0x47c
 1219 05a9 58       		.byte	0x58
 1220 05aa 08       		.uleb128 0x8
 1221 05ab 1C040000 		.4byte	.LASF103
 1222 05af 07       		.byte	0x7
 1223 05b0 1E02     		.2byte	0x21e
 1224 05b2 C3000000 		.4byte	0xc3
 1225 05b6 5C       		.byte	0x5c
 1226 05b7 08       		.uleb128 0x8
 1227 05b8 74010000 		.4byte	.LASF104
 1228 05bc 07       		.byte	0x7
 1229 05bd 1F02     		.2byte	0x21f
 1230 05bf 7C040000 		.4byte	0x47c
 1231 05c3 60       		.byte	0x60
 1232 05c4 08       		.uleb128 0x8
 1233 05c5 DE020000 		.4byte	.LASF105
 1234 05c9 07       		.byte	0x7
 1235 05ca 2002     		.2byte	0x220
 1236 05cc 7C040000 		.4byte	0x47c
 1237 05d0 64       		.byte	0x64
 1238 05d1 08       		.uleb128 0x8
 1239 05d2 38050000 		.4byte	.LASF106
 1240 05d6 07       		.byte	0x7
 1241 05d7 2102     		.2byte	0x221
 1242 05d9 81040000 		.4byte	0x481
 1243 05dd 68       		.byte	0x68
 1244 05de 08       		.uleb128 0x8
 1245 05df 83070000 		.4byte	.LASF107
 1246 05e3 07       		.byte	0x7
 1247 05e4 2202     		.2byte	0x222
 1248 05e6 7C040000 		.4byte	0x47c
 1249 05ea 70       		.byte	0x70
 1250 05eb 07       		.uleb128 0x7
 1251 05ec 43535200 		.ascii	"CSR\000"
 1252 05f0 07       		.byte	0x7
 1253 05f1 2302     		.2byte	0x223
 1254 05f3 7C040000 		.4byte	0x47c
ARM GAS  /var/folders/m4/4md61f0s1_g0rzfghffqnxvr0000gn/T//ccl2e1ol.s 			page 23


 1255 05f7 74       		.byte	0x74
 1256 05f8 08       		.uleb128 0x8
 1257 05f9 2D040000 		.4byte	.LASF108
 1258 05fd 07       		.byte	0x7
 1259 05fe 2402     		.2byte	0x224
 1260 0600 81040000 		.4byte	0x481
 1261 0604 78       		.byte	0x78
 1262 0605 08       		.uleb128 0x8
 1263 0606 4A070000 		.4byte	.LASF109
 1264 060a 07       		.byte	0x7
 1265 060b 2502     		.2byte	0x225
 1266 060d 7C040000 		.4byte	0x47c
 1267 0611 80       		.byte	0x80
 1268 0612 08       		.uleb128 0x8
 1269 0613 7B020000 		.4byte	.LASF110
 1270 0617 07       		.byte	0x7
 1271 0618 2602     		.2byte	0x226
 1272 061a 7C040000 		.4byte	0x47c
 1273 061e 84       		.byte	0x84
 1274 061f 00       		.byte	0
 1275 0620 13       		.uleb128 0x13
 1276 0621 45010000 		.4byte	.LASF111
 1277 0625 07       		.byte	0x7
 1278 0626 2802     		.2byte	0x228
 1279 0628 91040000 		.4byte	0x491
 1280 062c 04       		.uleb128 0x4
 1281 062d B5010000 		.4byte	.LASF112
 1282 0631 08       		.byte	0x8
 1283 0632 65       		.byte	0x65
 1284 0633 3F030000 		.4byte	0x33f
 1285 0637 04       		.uleb128 0x4
 1286 0638 13030000 		.4byte	.LASF113
 1287 063c 08       		.byte	0x8
 1288 063d 6D       		.byte	0x6d
 1289 063e CE000000 		.4byte	0xce
 1290 0642 05       		.uleb128 0x5
 1291 0643 15070000 		.4byte	.LASF114
 1292 0647 04       		.byte	0x4
 1293 0648 08       		.byte	0x8
 1294 0649 89       		.byte	0x89
 1295 064a 5B060000 		.4byte	0x65b
 1296 064e 14       		.uleb128 0x14
 1297 064f 72313300 		.ascii	"r13\000"
 1298 0653 08       		.byte	0x8
 1299 0654 8A       		.byte	0x8a
 1300 0655 A5070000 		.4byte	0x7a5
 1301 0659 00       		.byte	0
 1302 065a 00       		.byte	0
 1303 065b 05       		.uleb128 0x5
 1304 065c 47000000 		.4byte	.LASF115
 1305 0660 64       		.byte	0x64
 1306 0661 09       		.byte	0x9
 1307 0662 FD       		.byte	0xfd
 1308 0663 A5070000 		.4byte	0x7a5
 1309 0667 14       		.uleb128 0x14
 1310 0668 73313600 		.ascii	"s16\000"
 1311 066c 09       		.byte	0x9
ARM GAS  /var/folders/m4/4md61f0s1_g0rzfghffqnxvr0000gn/T//ccl2e1ol.s 			page 24


 1312 066d FF       		.byte	0xff
 1313 066e 2C060000 		.4byte	0x62c
 1314 0672 00       		.byte	0
 1315 0673 07       		.uleb128 0x7
 1316 0674 73313700 		.ascii	"s17\000"
 1317 0678 09       		.byte	0x9
 1318 0679 0001     		.2byte	0x100
 1319 067b 2C060000 		.4byte	0x62c
 1320 067f 04       		.byte	0x4
 1321 0680 07       		.uleb128 0x7
 1322 0681 73313800 		.ascii	"s18\000"
 1323 0685 09       		.byte	0x9
 1324 0686 0101     		.2byte	0x101
 1325 0688 2C060000 		.4byte	0x62c
 1326 068c 08       		.byte	0x8
 1327 068d 07       		.uleb128 0x7
 1328 068e 73313900 		.ascii	"s19\000"
 1329 0692 09       		.byte	0x9
 1330 0693 0201     		.2byte	0x102
 1331 0695 2C060000 		.4byte	0x62c
 1332 0699 0C       		.byte	0xc
 1333 069a 07       		.uleb128 0x7
 1334 069b 73323000 		.ascii	"s20\000"
 1335 069f 09       		.byte	0x9
 1336 06a0 0301     		.2byte	0x103
 1337 06a2 2C060000 		.4byte	0x62c
 1338 06a6 10       		.byte	0x10
 1339 06a7 07       		.uleb128 0x7
 1340 06a8 73323100 		.ascii	"s21\000"
 1341 06ac 09       		.byte	0x9
 1342 06ad 0401     		.2byte	0x104
 1343 06af 2C060000 		.4byte	0x62c
 1344 06b3 14       		.byte	0x14
 1345 06b4 07       		.uleb128 0x7
 1346 06b5 73323200 		.ascii	"s22\000"
 1347 06b9 09       		.byte	0x9
 1348 06ba 0501     		.2byte	0x105
 1349 06bc 2C060000 		.4byte	0x62c
 1350 06c0 18       		.byte	0x18
 1351 06c1 07       		.uleb128 0x7
 1352 06c2 73323300 		.ascii	"s23\000"
 1353 06c6 09       		.byte	0x9
 1354 06c7 0601     		.2byte	0x106
 1355 06c9 2C060000 		.4byte	0x62c
 1356 06cd 1C       		.byte	0x1c
 1357 06ce 07       		.uleb128 0x7
 1358 06cf 73323400 		.ascii	"s24\000"
 1359 06d3 09       		.byte	0x9
 1360 06d4 0701     		.2byte	0x107
 1361 06d6 2C060000 		.4byte	0x62c
 1362 06da 20       		.byte	0x20
 1363 06db 07       		.uleb128 0x7
 1364 06dc 73323500 		.ascii	"s25\000"
 1365 06e0 09       		.byte	0x9
 1366 06e1 0801     		.2byte	0x108
 1367 06e3 2C060000 		.4byte	0x62c
 1368 06e7 24       		.byte	0x24
ARM GAS  /var/folders/m4/4md61f0s1_g0rzfghffqnxvr0000gn/T//ccl2e1ol.s 			page 25


 1369 06e8 07       		.uleb128 0x7
 1370 06e9 73323600 		.ascii	"s26\000"
 1371 06ed 09       		.byte	0x9
 1372 06ee 0901     		.2byte	0x109
 1373 06f0 2C060000 		.4byte	0x62c
 1374 06f4 28       		.byte	0x28
 1375 06f5 07       		.uleb128 0x7
 1376 06f6 73323700 		.ascii	"s27\000"
 1377 06fa 09       		.byte	0x9
 1378 06fb 0A01     		.2byte	0x10a
 1379 06fd 2C060000 		.4byte	0x62c
 1380 0701 2C       		.byte	0x2c
 1381 0702 07       		.uleb128 0x7
 1382 0703 73323800 		.ascii	"s28\000"
 1383 0707 09       		.byte	0x9
 1384 0708 0B01     		.2byte	0x10b
 1385 070a 2C060000 		.4byte	0x62c
 1386 070e 30       		.byte	0x30
 1387 070f 07       		.uleb128 0x7
 1388 0710 73323900 		.ascii	"s29\000"
 1389 0714 09       		.byte	0x9
 1390 0715 0C01     		.2byte	0x10c
 1391 0717 2C060000 		.4byte	0x62c
 1392 071b 34       		.byte	0x34
 1393 071c 07       		.uleb128 0x7
 1394 071d 73333000 		.ascii	"s30\000"
 1395 0721 09       		.byte	0x9
 1396 0722 0D01     		.2byte	0x10d
 1397 0724 2C060000 		.4byte	0x62c
 1398 0728 38       		.byte	0x38
 1399 0729 07       		.uleb128 0x7
 1400 072a 73333100 		.ascii	"s31\000"
 1401 072e 09       		.byte	0x9
 1402 072f 0E01     		.2byte	0x10e
 1403 0731 2C060000 		.4byte	0x62c
 1404 0735 3C       		.byte	0x3c
 1405 0736 07       		.uleb128 0x7
 1406 0737 723400   		.ascii	"r4\000"
 1407 073a 09       		.byte	0x9
 1408 073b 1001     		.2byte	0x110
 1409 073d 2C060000 		.4byte	0x62c
 1410 0741 40       		.byte	0x40
 1411 0742 07       		.uleb128 0x7
 1412 0743 723500   		.ascii	"r5\000"
 1413 0746 09       		.byte	0x9
 1414 0747 1101     		.2byte	0x111
 1415 0749 2C060000 		.4byte	0x62c
 1416 074d 44       		.byte	0x44
 1417 074e 07       		.uleb128 0x7
 1418 074f 723600   		.ascii	"r6\000"
 1419 0752 09       		.byte	0x9
 1420 0753 1201     		.2byte	0x112
 1421 0755 2C060000 		.4byte	0x62c
 1422 0759 48       		.byte	0x48
 1423 075a 07       		.uleb128 0x7
 1424 075b 723700   		.ascii	"r7\000"
 1425 075e 09       		.byte	0x9
ARM GAS  /var/folders/m4/4md61f0s1_g0rzfghffqnxvr0000gn/T//ccl2e1ol.s 			page 26


 1426 075f 1301     		.2byte	0x113
 1427 0761 2C060000 		.4byte	0x62c
 1428 0765 4C       		.byte	0x4c
 1429 0766 07       		.uleb128 0x7
 1430 0767 723800   		.ascii	"r8\000"
 1431 076a 09       		.byte	0x9
 1432 076b 1401     		.2byte	0x114
 1433 076d 2C060000 		.4byte	0x62c
 1434 0771 50       		.byte	0x50
 1435 0772 07       		.uleb128 0x7
 1436 0773 723900   		.ascii	"r9\000"
 1437 0776 09       		.byte	0x9
 1438 0777 1501     		.2byte	0x115
 1439 0779 2C060000 		.4byte	0x62c
 1440 077d 54       		.byte	0x54
 1441 077e 07       		.uleb128 0x7
 1442 077f 72313000 		.ascii	"r10\000"
 1443 0783 09       		.byte	0x9
 1444 0784 1601     		.2byte	0x116
 1445 0786 2C060000 		.4byte	0x62c
 1446 078a 58       		.byte	0x58
 1447 078b 07       		.uleb128 0x7
 1448 078c 72313100 		.ascii	"r11\000"
 1449 0790 09       		.byte	0x9
 1450 0791 1701     		.2byte	0x117
 1451 0793 2C060000 		.4byte	0x62c
 1452 0797 5C       		.byte	0x5c
 1453 0798 07       		.uleb128 0x7
 1454 0799 6C7200   		.ascii	"lr\000"
 1455 079c 09       		.byte	0x9
 1456 079d 1801     		.2byte	0x118
 1457 079f 2C060000 		.4byte	0x62c
 1458 07a3 60       		.byte	0x60
 1459 07a4 00       		.byte	0
 1460 07a5 09       		.uleb128 0x9
 1461 07a6 04       		.byte	0x4
 1462 07a7 5B060000 		.4byte	0x65b
 1463 07ab 15       		.uleb128 0x15
 1464 07ac 04       		.byte	0x4
 1465 07ad 0A       		.byte	0xa
 1466 07ae 38       		.byte	0x38
 1467 07af C0070000 		.4byte	0x7c0
 1468 07b3 06       		.uleb128 0x6
 1469 07b4 F3060000 		.4byte	.LASF116
 1470 07b8 0A       		.byte	0xa
 1471 07b9 3C       		.byte	0x3c
 1472 07ba D9000000 		.4byte	0xd9
 1473 07be 00       		.byte	0
 1474 07bf 00       		.byte	0
 1475 07c0 04       		.uleb128 0x4
 1476 07c1 A7030000 		.4byte	.LASF117
 1477 07c5 0A       		.byte	0xa
 1478 07c6 3D       		.byte	0x3d
 1479 07c7 AB070000 		.4byte	0x7ab
 1480 07cb 16       		.uleb128 0x16
 1481 07cc 04       		.byte	0x4
 1482 07cd 06       		.byte	0x6
ARM GAS  /var/folders/m4/4md61f0s1_g0rzfghffqnxvr0000gn/T//ccl2e1ol.s 			page 27


 1483 07ce FA       		.byte	0xfa
 1484 07cf 28080000 		.4byte	0x828
 1485 07d3 17       		.uleb128 0x17
 1486 07d4 26000000 		.4byte	.LASF118
 1487 07d8 06       		.byte	0x6
 1488 07d9 0101     		.2byte	0x101
 1489 07db 1B010000 		.4byte	0x11b
 1490 07df 17       		.uleb128 0x17
 1491 07e0 99000000 		.4byte	.LASF119
 1492 07e4 06       		.byte	0x6
 1493 07e5 0801     		.2byte	0x108
 1494 07e7 1B010000 		.4byte	0x11b
 1495 07eb 17       		.uleb128 0x17
 1496 07ec 9C070000 		.4byte	.LASF120
 1497 07f0 06       		.byte	0x6
 1498 07f1 0F01     		.2byte	0x10f
 1499 07f3 3F030000 		.4byte	0x33f
 1500 07f7 17       		.uleb128 0x17
 1501 07f8 20000000 		.4byte	.LASF121
 1502 07fc 06       		.byte	0x6
 1503 07fd 1601     		.2byte	0x116
 1504 07ff 28080000 		.4byte	0x828
 1505 0803 17       		.uleb128 0x17
 1506 0804 28020000 		.4byte	.LASF122
 1507 0808 06       		.byte	0x6
 1508 0809 1E01     		.2byte	0x11e
 1509 080b 53080000 		.4byte	0x853
 1510 080f 17       		.uleb128 0x17
 1511 0810 4B050000 		.4byte	.LASF123
 1512 0814 06       		.byte	0x6
 1513 0815 2701     		.2byte	0x127
 1514 0817 8A080000 		.4byte	0x88a
 1515 081b 17       		.uleb128 0x17
 1516 081c EB040000 		.4byte	.LASF124
 1517 0820 06       		.byte	0x6
 1518 0821 2F01     		.2byte	0x12f
 1519 0823 26010000 		.4byte	0x126
 1520 0827 00       		.byte	0
 1521 0828 09       		.uleb128 0x9
 1522 0829 04       		.byte	0x4
 1523 082a 57020000 		.4byte	0x257
 1524 082e 05       		.uleb128 0x5
 1525 082f 20050000 		.4byte	.LASF125
 1526 0833 0C       		.byte	0xc
 1527 0834 0B       		.byte	0xb
 1528 0835 34       		.byte	0x34
 1529 0836 53080000 		.4byte	0x853
 1530 083a 06       		.uleb128 0x6
 1531 083b BE070000 		.4byte	.LASF126
 1532 083f 0B       		.byte	0xb
 1533 0840 35       		.byte	0x35
 1534 0841 8C020000 		.4byte	0x28c
 1535 0845 00       		.byte	0
 1536 0846 06       		.uleb128 0x6
 1537 0847 A7040000 		.4byte	.LASF127
 1538 084b 0B       		.byte	0xb
 1539 084c 37       		.byte	0x37
ARM GAS  /var/folders/m4/4md61f0s1_g0rzfghffqnxvr0000gn/T//ccl2e1ol.s 			page 28


 1540 084d 31010000 		.4byte	0x131
 1541 0851 08       		.byte	0x8
 1542 0852 00       		.byte	0
 1543 0853 09       		.uleb128 0x9
 1544 0854 04       		.byte	0x4
 1545 0855 2E080000 		.4byte	0x82e
 1546 0859 05       		.uleb128 0x5
 1547 085a 60070000 		.4byte	.LASF128
 1548 085e 10       		.byte	0x10
 1549 085f 0C       		.byte	0xc
 1550 0860 39       		.byte	0x39
 1551 0861 8A080000 		.4byte	0x88a
 1552 0865 06       		.uleb128 0x6
 1553 0866 2D010000 		.4byte	.LASF129
 1554 086a 0C       		.byte	0xc
 1555 086b 3A       		.byte	0x3a
 1556 086c 8C020000 		.4byte	0x28c
 1557 0870 00       		.byte	0
 1558 0871 06       		.uleb128 0x6
 1559 0872 DF070000 		.4byte	.LASF130
 1560 0876 0C       		.byte	0xc
 1561 0877 3C       		.byte	0x3c
 1562 0878 62020000 		.4byte	0x262
 1563 087c 08       		.byte	0x8
 1564 087d 06       		.uleb128 0x6
 1565 087e B0060000 		.4byte	.LASF131
 1566 0882 0C       		.byte	0xc
 1567 0883 3E       		.byte	0x3e
 1568 0884 CD080000 		.4byte	0x8cd
 1569 0888 0C       		.byte	0xc
 1570 0889 00       		.byte	0
 1571 088a 09       		.uleb128 0x9
 1572 088b 04       		.byte	0x4
 1573 088c 59080000 		.4byte	0x859
 1574 0890 09       		.uleb128 0x9
 1575 0891 04       		.byte	0x4
 1576 0892 9D080000 		.4byte	0x89d
 1577 0896 03       		.uleb128 0x3
 1578 0897 01       		.byte	0x1
 1579 0898 08       		.byte	0x8
 1580 0899 81050000 		.4byte	.LASF132
 1581 089d 18       		.uleb128 0x18
 1582 089e 96080000 		.4byte	0x896
 1583 08a2 0F       		.uleb128 0xf
 1584 08a3 3C010000 		.4byte	0x13c
 1585 08a7 09       		.uleb128 0x9
 1586 08a8 04       		.byte	0x4
 1587 08a9 41030000 		.4byte	0x341
 1588 08ad 0F       		.uleb128 0xf
 1589 08ae 90080000 		.4byte	0x890
 1590 08b2 10       		.uleb128 0x10
 1591 08b3 37060000 		.4byte	0x637
 1592 08b7 C2080000 		.4byte	0x8c2
 1593 08bb 11       		.uleb128 0x11
 1594 08bc 75040000 		.4byte	0x475
 1595 08c0 3A       		.byte	0x3a
 1596 08c1 00       		.byte	0
ARM GAS  /var/folders/m4/4md61f0s1_g0rzfghffqnxvr0000gn/T//ccl2e1ol.s 			page 29


 1597 08c2 04       		.uleb128 0x4
 1598 08c3 DF010000 		.4byte	.LASF133
 1599 08c7 0C       		.byte	0xc
 1600 08c8 34       		.byte	0x34
 1601 08c9 59080000 		.4byte	0x859
 1602 08cd 09       		.uleb128 0x9
 1603 08ce 04       		.byte	0x4
 1604 08cf C2080000 		.4byte	0x8c2
 1605 08d3 03       		.uleb128 0x3
 1606 08d4 01       		.byte	0x1
 1607 08d5 02       		.byte	0x2
 1608 08d6 4F040000 		.4byte	.LASF134
 1609 08da 15       		.uleb128 0x15
 1610 08db 04       		.byte	0x4
 1611 08dc 0D       		.byte	0xd
 1612 08dd E7       		.byte	0xe7
 1613 08de FB080000 		.4byte	0x8fb
 1614 08e2 14       		.uleb128 0x14
 1615 08e3 73657400 		.ascii	"set\000"
 1616 08e7 0D       		.byte	0xd
 1617 08e8 E8       		.byte	0xe8
 1618 08e9 AD000000 		.4byte	0xad
 1619 08ed 00       		.byte	0
 1620 08ee 06       		.uleb128 0x6
 1621 08ef 7A030000 		.4byte	.LASF135
 1622 08f3 0D       		.byte	0xd
 1623 08f4 E9       		.byte	0xe9
 1624 08f5 AD000000 		.4byte	0xad
 1625 08f9 02       		.byte	0x2
 1626 08fa 00       		.byte	0
 1627 08fb 16       		.uleb128 0x16
 1628 08fc 04       		.byte	0x4
 1629 08fd 0D       		.byte	0xd
 1630 08fe E5       		.byte	0xe5
 1631 08ff 16090000 		.4byte	0x916
 1632 0903 19       		.uleb128 0x19
 1633 0904 5700     		.ascii	"W\000"
 1634 0906 0D       		.byte	0xd
 1635 0907 E6       		.byte	0xe6
 1636 0908 C3000000 		.4byte	0xc3
 1637 090c 19       		.uleb128 0x19
 1638 090d 4800     		.ascii	"H\000"
 1639 090f 0D       		.byte	0xd
 1640 0910 EA       		.byte	0xea
 1641 0911 DA080000 		.4byte	0x8da
 1642 0915 00       		.byte	0
 1643 0916 15       		.uleb128 0x15
 1644 0917 2C       		.byte	0x2c
 1645 0918 0D       		.byte	0xd
 1646 0919 DD       		.byte	0xdd
 1647 091a A3090000 		.4byte	0x9a3
 1648 091e 06       		.uleb128 0x6
 1649 091f 76000000 		.4byte	.LASF136
 1650 0923 0D       		.byte	0xd
 1651 0924 DF       		.byte	0xdf
 1652 0925 7C040000 		.4byte	0x47c
 1653 0929 00       		.byte	0
ARM GAS  /var/folders/m4/4md61f0s1_g0rzfghffqnxvr0000gn/T//ccl2e1ol.s 			page 30


 1654 092a 06       		.uleb128 0x6
 1655 092b 40000000 		.4byte	.LASF137
 1656 092f 0D       		.byte	0xd
 1657 0930 E0       		.byte	0xe0
 1658 0931 7C040000 		.4byte	0x47c
 1659 0935 04       		.byte	0x4
 1660 0936 06       		.uleb128 0x6
 1661 0937 A0010000 		.4byte	.LASF138
 1662 093b 0D       		.byte	0xd
 1663 093c E1       		.byte	0xe1
 1664 093d 7C040000 		.4byte	0x47c
 1665 0941 08       		.byte	0x8
 1666 0942 06       		.uleb128 0x6
 1667 0943 93000000 		.4byte	.LASF139
 1668 0947 0D       		.byte	0xd
 1669 0948 E2       		.byte	0xe2
 1670 0949 7C040000 		.4byte	0x47c
 1671 094d 0C       		.byte	0xc
 1672 094e 14       		.uleb128 0x14
 1673 094f 49445200 		.ascii	"IDR\000"
 1674 0953 0D       		.byte	0xd
 1675 0954 E3       		.byte	0xe3
 1676 0955 7C040000 		.4byte	0x47c
 1677 0959 10       		.byte	0x10
 1678 095a 14       		.uleb128 0x14
 1679 095b 4F445200 		.ascii	"ODR\000"
 1680 095f 0D       		.byte	0xd
 1681 0960 E4       		.byte	0xe4
 1682 0961 7C040000 		.4byte	0x47c
 1683 0965 14       		.byte	0x14
 1684 0966 06       		.uleb128 0x6
 1685 0967 17010000 		.4byte	.LASF140
 1686 096b 0D       		.byte	0xd
 1687 096c EB       		.byte	0xeb
 1688 096d A3090000 		.4byte	0x9a3
 1689 0971 18       		.byte	0x18
 1690 0972 06       		.uleb128 0x6
 1691 0973 4B020000 		.4byte	.LASF141
 1692 0977 0D       		.byte	0xd
 1693 0978 EC       		.byte	0xec
 1694 0979 7C040000 		.4byte	0x47c
 1695 097d 1C       		.byte	0x1c
 1696 097e 06       		.uleb128 0x6
 1697 097f E7030000 		.4byte	.LASF142
 1698 0983 0D       		.byte	0xd
 1699 0984 ED       		.byte	0xed
 1700 0985 7C040000 		.4byte	0x47c
 1701 0989 20       		.byte	0x20
 1702 098a 06       		.uleb128 0x6
 1703 098b E2030000 		.4byte	.LASF143
 1704 098f 0D       		.byte	0xd
 1705 0990 EE       		.byte	0xee
 1706 0991 7C040000 		.4byte	0x47c
 1707 0995 24       		.byte	0x24
 1708 0996 14       		.uleb128 0x14
 1709 0997 42525200 		.ascii	"BRR\000"
 1710 099b 0D       		.byte	0xd
ARM GAS  /var/folders/m4/4md61f0s1_g0rzfghffqnxvr0000gn/T//ccl2e1ol.s 			page 31


 1711 099c EF       		.byte	0xef
 1712 099d 7C040000 		.4byte	0x47c
 1713 09a1 28       		.byte	0x28
 1714 09a2 00       		.byte	0
 1715 09a3 0F       		.uleb128 0xf
 1716 09a4 FB080000 		.4byte	0x8fb
 1717 09a8 04       		.uleb128 0x4
 1718 09a9 CD010000 		.4byte	.LASF144
 1719 09ad 0D       		.byte	0xd
 1720 09ae F0       		.byte	0xf0
 1721 09af 16090000 		.4byte	0x916
 1722 09b3 15       		.uleb128 0x15
 1723 09b4 1C       		.byte	0x1c
 1724 09b5 0D       		.byte	0xd
 1725 09b6 F5       		.byte	0xf5
 1726 09b7 120A0000 		.4byte	0xa12
 1727 09bb 06       		.uleb128 0x6
 1728 09bc 35010000 		.4byte	.LASF145
 1729 09c0 0D       		.byte	0xd
 1730 09c1 F7       		.byte	0xf7
 1731 09c2 C3000000 		.4byte	0xc3
 1732 09c6 00       		.byte	0
 1733 09c7 06       		.uleb128 0x6
 1734 09c8 50020000 		.4byte	.LASF146
 1735 09cc 0D       		.byte	0xd
 1736 09cd F9       		.byte	0xf9
 1737 09ce C3000000 		.4byte	0xc3
 1738 09d2 04       		.byte	0x4
 1739 09d3 06       		.uleb128 0x6
 1740 09d4 43020000 		.4byte	.LASF147
 1741 09d8 0D       		.byte	0xd
 1742 09d9 FB       		.byte	0xfb
 1743 09da C3000000 		.4byte	0xc3
 1744 09de 08       		.byte	0x8
 1745 09df 06       		.uleb128 0x6
 1746 09e0 96070000 		.4byte	.LASF148
 1747 09e4 0D       		.byte	0xd
 1748 09e5 FD       		.byte	0xfd
 1749 09e6 C3000000 		.4byte	0xc3
 1750 09ea 0C       		.byte	0xc
 1751 09eb 14       		.uleb128 0x14
 1752 09ec 6F647200 		.ascii	"odr\000"
 1753 09f0 0D       		.byte	0xd
 1754 09f1 FF       		.byte	0xff
 1755 09f2 C3000000 		.4byte	0xc3
 1756 09f6 10       		.byte	0x10
 1757 09f7 08       		.uleb128 0x8
 1758 09f8 A2040000 		.4byte	.LASF149
 1759 09fc 0D       		.byte	0xd
 1760 09fd 0101     		.2byte	0x101
 1761 09ff C3000000 		.4byte	0xc3
 1762 0a03 14       		.byte	0x14
 1763 0a04 08       		.uleb128 0x8
 1764 0a05 B8030000 		.4byte	.LASF150
 1765 0a09 0D       		.byte	0xd
 1766 0a0a 0301     		.2byte	0x103
 1767 0a0c C3000000 		.4byte	0xc3
ARM GAS  /var/folders/m4/4md61f0s1_g0rzfghffqnxvr0000gn/T//ccl2e1ol.s 			page 32


 1768 0a10 18       		.byte	0x18
 1769 0a11 00       		.byte	0
 1770 0a12 13       		.uleb128 0x13
 1771 0a13 00000000 		.4byte	.LASF151
 1772 0a17 0D       		.byte	0xd
 1773 0a18 0401     		.2byte	0x104
 1774 0a1a B3090000 		.4byte	0x9b3
 1775 0a1e 12       		.uleb128 0x12
 1776 0a1f FC       		.byte	0xfc
 1777 0a20 0D       		.byte	0xd
 1778 0a21 0D01     		.2byte	0x10d
 1779 0a23 9D0A0000 		.4byte	0xa9d
 1780 0a27 08       		.uleb128 0x8
 1781 0a28 E4040000 		.4byte	.LASF152
 1782 0a2c 0D       		.byte	0xd
 1783 0a2d 1001     		.2byte	0x110
 1784 0a2f 120A0000 		.4byte	0xa12
 1785 0a33 00       		.byte	0
 1786 0a34 08       		.uleb128 0x8
 1787 0a35 E7010000 		.4byte	.LASF153
 1788 0a39 0D       		.byte	0xd
 1789 0a3a 1401     		.2byte	0x114
 1790 0a3c 120A0000 		.4byte	0xa12
 1791 0a40 1C       		.byte	0x1c
 1792 0a41 08       		.uleb128 0x8
 1793 0a42 B2070000 		.4byte	.LASF154
 1794 0a46 0D       		.byte	0xd
 1795 0a47 1801     		.2byte	0x118
 1796 0a49 120A0000 		.4byte	0xa12
 1797 0a4d 38       		.byte	0x38
 1798 0a4e 08       		.uleb128 0x8
 1799 0a4f BD030000 		.4byte	.LASF155
 1800 0a53 0D       		.byte	0xd
 1801 0a54 1C01     		.2byte	0x11c
 1802 0a56 120A0000 		.4byte	0xa12
 1803 0a5a 54       		.byte	0x54
 1804 0a5b 08       		.uleb128 0x8
 1805 0a5c 64010000 		.4byte	.LASF156
 1806 0a60 0D       		.byte	0xd
 1807 0a61 2001     		.2byte	0x120
 1808 0a63 120A0000 		.4byte	0xa12
 1809 0a67 70       		.byte	0x70
 1810 0a68 08       		.uleb128 0x8
 1811 0a69 6A020000 		.4byte	.LASF157
 1812 0a6d 0D       		.byte	0xd
 1813 0a6e 2401     		.2byte	0x124
 1814 0a70 120A0000 		.4byte	0xa12
 1815 0a74 8C       		.byte	0x8c
 1816 0a75 08       		.uleb128 0x8
 1817 0a76 0C030000 		.4byte	.LASF158
 1818 0a7a 0D       		.byte	0xd
 1819 0a7b 2801     		.2byte	0x128
 1820 0a7d 120A0000 		.4byte	0xa12
 1821 0a81 A8       		.byte	0xa8
 1822 0a82 08       		.uleb128 0x8
 1823 0a83 6F000000 		.4byte	.LASF159
 1824 0a87 0D       		.byte	0xd
ARM GAS  /var/folders/m4/4md61f0s1_g0rzfghffqnxvr0000gn/T//ccl2e1ol.s 			page 33


 1825 0a88 2C01     		.2byte	0x12c
 1826 0a8a 120A0000 		.4byte	0xa12
 1827 0a8e C4       		.byte	0xc4
 1828 0a8f 08       		.uleb128 0x8
 1829 0a90 08050000 		.4byte	.LASF160
 1830 0a94 0D       		.byte	0xd
 1831 0a95 3001     		.2byte	0x130
 1832 0a97 120A0000 		.4byte	0xa12
 1833 0a9b E0       		.byte	0xe0
 1834 0a9c 00       		.byte	0
 1835 0a9d 13       		.uleb128 0x13
 1836 0a9e D5070000 		.4byte	.LASF161
 1837 0aa2 0D       		.byte	0xd
 1838 0aa3 3A01     		.2byte	0x13a
 1839 0aa5 1E0A0000 		.4byte	0xa1e
 1840 0aa9 13       		.uleb128 0x13
 1841 0aaa 62000000 		.4byte	.LASF162
 1842 0aae 0D       		.byte	0xd
 1843 0aaf 3F01     		.2byte	0x13f
 1844 0ab1 C3000000 		.4byte	0xc3
 1845 0ab5 13       		.uleb128 0x13
 1846 0ab6 CC070000 		.4byte	.LASF163
 1847 0aba 0D       		.byte	0xd
 1848 0abb 4401     		.2byte	0x144
 1849 0abd C3000000 		.4byte	0xc3
 1850 0ac1 13       		.uleb128 0x13
 1851 0ac2 02070000 		.4byte	.LASF164
 1852 0ac6 0D       		.byte	0xd
 1853 0ac7 5101     		.2byte	0x151
 1854 0ac9 CD0A0000 		.4byte	0xacd
 1855 0acd 09       		.uleb128 0x9
 1856 0ace 04       		.byte	0x4
 1857 0acf A8090000 		.4byte	0x9a8
 1858 0ad3 1A       		.uleb128 0x1a
 1859 0ad4 E0060000 		.4byte	.LASF178
 1860 0ad8 01       		.byte	0x1
 1861 0ad9 3D       		.byte	0x3d
 1862 0ada 01       		.byte	0x1
 1863 0adb F60A0000 		.4byte	0xaf6
 1864 0adf 1B       		.uleb128 0x1b
 1865 0ae0 FA040000 		.4byte	.LASF165
 1866 0ae4 01       		.byte	0x1
 1867 0ae5 3D       		.byte	0x3d
 1868 0ae6 CD0A0000 		.4byte	0xacd
 1869 0aea 1B       		.uleb128 0x1b
 1870 0aeb 8C060000 		.4byte	.LASF166
 1871 0aef 01       		.byte	0x1
 1872 0af0 3D       		.byte	0x3d
 1873 0af1 F60A0000 		.4byte	0xaf6
 1874 0af5 00       		.byte	0
 1875 0af6 09       		.uleb128 0x9
 1876 0af7 04       		.byte	0x4
 1877 0af8 FC0A0000 		.4byte	0xafc
 1878 0afc 18       		.uleb128 0x18
 1879 0afd 120A0000 		.4byte	0xa12
 1880 0b01 1C       		.uleb128 0x1c
 1881 0b02 75070000 		.4byte	.LASF167
ARM GAS  /var/folders/m4/4md61f0s1_g0rzfghffqnxvr0000gn/T//ccl2e1ol.s 			page 34


 1882 0b06 01       		.byte	0x1
 1883 0b07 58       		.byte	0x58
 1884 0b08 00000000 		.4byte	.LFB269
 1885 0b0c AC010000 		.4byte	.LFE269-.LFB269
 1886 0b10 01       		.uleb128 0x1
 1887 0b11 9C       		.byte	0x9c
 1888 0b12 760C0000 		.4byte	0xc76
 1889 0b16 1D       		.uleb128 0x1d
 1890 0b17 8C060000 		.4byte	.LASF166
 1891 0b1b 01       		.byte	0x1
 1892 0b1c 58       		.byte	0x58
 1893 0b1d 760C0000 		.4byte	0xc76
 1894 0b21 01       		.uleb128 0x1
 1895 0b22 50       		.byte	0x50
 1896 0b23 1E       		.uleb128 0x1e
 1897 0b24 D30A0000 		.4byte	0xad3
 1898 0b28 04000000 		.4byte	.LBB20
 1899 0b2c 00000000 		.4byte	.Ldebug_ranges0+0
 1900 0b30 01       		.byte	0x1
 1901 0b31 70       		.byte	0x70
 1902 0b32 490B0000 		.4byte	0xb49
 1903 0b36 1F       		.uleb128 0x1f
 1904 0b37 EA0A0000 		.4byte	0xaea
 1905 0b3b 00000000 		.4byte	.LLST0
 1906 0b3f 1F       		.uleb128 0x1f
 1907 0b40 DF0A0000 		.4byte	0xadf
 1908 0b44 13000000 		.4byte	.LLST1
 1909 0b48 00       		.byte	0
 1910 0b49 1E       		.uleb128 0x1e
 1911 0b4a D30A0000 		.4byte	0xad3
 1912 0b4e 08000000 		.4byte	.LBB23
 1913 0b52 18000000 		.4byte	.Ldebug_ranges0+0x18
 1914 0b56 01       		.byte	0x1
 1915 0b57 73       		.byte	0x73
 1916 0b58 6F0B0000 		.4byte	0xb6f
 1917 0b5c 1F       		.uleb128 0x1f
 1918 0b5d EA0A0000 		.4byte	0xaea
 1919 0b61 2B000000 		.4byte	.LLST2
 1920 0b65 1F       		.uleb128 0x1f
 1921 0b66 DF0A0000 		.4byte	0xadf
 1922 0b6a 40000000 		.4byte	.LLST3
 1923 0b6e 00       		.byte	0
 1924 0b6f 1E       		.uleb128 0x1e
 1925 0b70 D30A0000 		.4byte	0xad3
 1926 0b74 0A000000 		.4byte	.LBB26
 1927 0b78 30000000 		.4byte	.Ldebug_ranges0+0x30
 1928 0b7c 01       		.byte	0x1
 1929 0b7d 76       		.byte	0x76
 1930 0b7e 950B0000 		.4byte	0xb95
 1931 0b82 1F       		.uleb128 0x1f
 1932 0b83 EA0A0000 		.4byte	0xaea
 1933 0b87 58000000 		.4byte	.LLST4
 1934 0b8b 1F       		.uleb128 0x1f
 1935 0b8c DF0A0000 		.4byte	0xadf
 1936 0b90 6D000000 		.4byte	.LLST5
 1937 0b94 00       		.byte	0
 1938 0b95 1E       		.uleb128 0x1e
ARM GAS  /var/folders/m4/4md61f0s1_g0rzfghffqnxvr0000gn/T//ccl2e1ol.s 			page 35


 1939 0b96 D30A0000 		.4byte	0xad3
 1940 0b9a 0C000000 		.4byte	.LBB29
 1941 0b9e 48000000 		.4byte	.Ldebug_ranges0+0x48
 1942 0ba2 01       		.byte	0x1
 1943 0ba3 79       		.byte	0x79
 1944 0ba4 BB0B0000 		.4byte	0xbbb
 1945 0ba8 1F       		.uleb128 0x1f
 1946 0ba9 EA0A0000 		.4byte	0xaea
 1947 0bad 85000000 		.4byte	.LLST6
 1948 0bb1 1F       		.uleb128 0x1f
 1949 0bb2 DF0A0000 		.4byte	0xadf
 1950 0bb6 9B000000 		.4byte	.LLST7
 1951 0bba 00       		.byte	0
 1952 0bbb 20       		.uleb128 0x20
 1953 0bbc D30A0000 		.4byte	0xad3
 1954 0bc0 8C000000 		.4byte	.LBB36
 1955 0bc4 30000000 		.4byte	.LBE36-.LBB36
 1956 0bc8 01       		.byte	0x1
 1957 0bc9 7C       		.byte	0x7c
 1958 0bca E10B0000 		.4byte	0xbe1
 1959 0bce 1F       		.uleb128 0x1f
 1960 0bcf EA0A0000 		.4byte	0xaea
 1961 0bd3 B3000000 		.4byte	.LLST8
 1962 0bd7 1F       		.uleb128 0x1f
 1963 0bd8 DF0A0000 		.4byte	0xadf
 1964 0bdc C9000000 		.4byte	.LLST9
 1965 0be0 00       		.byte	0
 1966 0be1 20       		.uleb128 0x20
 1967 0be2 D30A0000 		.4byte	0xad3
 1968 0be6 BC000000 		.4byte	.LBB38
 1969 0bea 38000000 		.4byte	.LBE38-.LBB38
 1970 0bee 01       		.byte	0x1
 1971 0bef 7F       		.byte	0x7f
 1972 0bf0 070C0000 		.4byte	0xc07
 1973 0bf4 1F       		.uleb128 0x1f
 1974 0bf5 EA0A0000 		.4byte	0xaea
 1975 0bf9 E1000000 		.4byte	.LLST10
 1976 0bfd 1F       		.uleb128 0x1f
 1977 0bfe DF0A0000 		.4byte	0xadf
 1978 0c02 F7000000 		.4byte	.LLST11
 1979 0c06 00       		.byte	0
 1980 0c07 20       		.uleb128 0x20
 1981 0c08 D30A0000 		.4byte	0xad3
 1982 0c0c F4000000 		.4byte	.LBB40
 1983 0c10 2E000000 		.4byte	.LBE40-.LBB40
 1984 0c14 01       		.byte	0x1
 1985 0c15 82       		.byte	0x82
 1986 0c16 2D0C0000 		.4byte	0xc2d
 1987 0c1a 1F       		.uleb128 0x1f
 1988 0c1b EA0A0000 		.4byte	0xaea
 1989 0c1f 0F010000 		.4byte	.LLST12
 1990 0c23 1F       		.uleb128 0x1f
 1991 0c24 DF0A0000 		.4byte	0xadf
 1992 0c28 25010000 		.4byte	.LLST13
 1993 0c2c 00       		.byte	0
 1994 0c2d 20       		.uleb128 0x20
 1995 0c2e D30A0000 		.4byte	0xad3
ARM GAS  /var/folders/m4/4md61f0s1_g0rzfghffqnxvr0000gn/T//ccl2e1ol.s 			page 36


 1996 0c32 22010000 		.4byte	.LBB42
 1997 0c36 38000000 		.4byte	.LBE42-.LBB42
 1998 0c3a 01       		.byte	0x1
 1999 0c3b 85       		.byte	0x85
 2000 0c3c 530C0000 		.4byte	0xc53
 2001 0c40 1F       		.uleb128 0x1f
 2002 0c41 EA0A0000 		.4byte	0xaea
 2003 0c45 3D010000 		.4byte	.LLST14
 2004 0c49 1F       		.uleb128 0x1f
 2005 0c4a DF0A0000 		.4byte	0xadf
 2006 0c4e 53010000 		.4byte	.LLST15
 2007 0c52 00       		.byte	0
 2008 0c53 21       		.uleb128 0x21
 2009 0c54 D30A0000 		.4byte	0xad3
 2010 0c58 5A010000 		.4byte	.LBB44
 2011 0c5c 38000000 		.4byte	.LBE44-.LBB44
 2012 0c60 01       		.byte	0x1
 2013 0c61 88       		.byte	0x88
 2014 0c62 1F       		.uleb128 0x1f
 2015 0c63 EA0A0000 		.4byte	0xaea
 2016 0c67 6B010000 		.4byte	.LLST16
 2017 0c6b 1F       		.uleb128 0x1f
 2018 0c6c DF0A0000 		.4byte	0xadf
 2019 0c70 81010000 		.4byte	.LLST17
 2020 0c74 00       		.byte	0
 2021 0c75 00       		.byte	0
 2022 0c76 09       		.uleb128 0x9
 2023 0c77 04       		.byte	0x4
 2024 0c78 7C0C0000 		.4byte	0xc7c
 2025 0c7c 18       		.uleb128 0x18
 2026 0c7d 9D0A0000 		.4byte	0xa9d
 2027 0c81 1C       		.uleb128 0x1c
 2028 0c82 25070000 		.4byte	.LASF168
 2029 0c86 01       		.byte	0x1
 2030 0c87 9F       		.byte	0x9f
 2031 0c88 00000000 		.4byte	.LFB270
 2032 0c8c D0000000 		.4byte	.LFE270-.LFB270
 2033 0c90 01       		.uleb128 0x1
 2034 0c91 9C       		.byte	0x9c
 2035 0c92 510D0000 		.4byte	0xd51
 2036 0c96 1D       		.uleb128 0x1d
 2037 0c97 DA010000 		.4byte	.LASF169
 2038 0c9b 01       		.byte	0x1
 2039 0c9c 9F       		.byte	0x9f
 2040 0c9d C10A0000 		.4byte	0xac1
 2041 0ca1 01       		.uleb128 0x1
 2042 0ca2 50       		.byte	0x50
 2043 0ca3 22       		.uleb128 0x22
 2044 0ca4 B0010000 		.4byte	.LASF170
 2045 0ca8 01       		.byte	0x1
 2046 0ca9 A0       		.byte	0xa0
 2047 0caa A90A0000 		.4byte	0xaa9
 2048 0cae 99010000 		.4byte	.LLST18
 2049 0cb2 22       		.uleb128 0x22
 2050 0cb3 70070000 		.4byte	.LASF171
 2051 0cb7 01       		.byte	0x1
 2052 0cb8 A1       		.byte	0xa1
ARM GAS  /var/folders/m4/4md61f0s1_g0rzfghffqnxvr0000gn/T//ccl2e1ol.s 			page 37


 2053 0cb9 B50A0000 		.4byte	0xab5
 2054 0cbd DC010000 		.4byte	.LLST19
 2055 0cc1 23       		.uleb128 0x23
 2056 0cc2 35010000 		.4byte	.LASF145
 2057 0cc6 01       		.byte	0x1
 2058 0cc7 A3       		.byte	0xa3
 2059 0cc8 C3000000 		.4byte	0xc3
 2060 0ccc 01       		.uleb128 0x1
 2061 0ccd 5E       		.byte	0x5e
 2062 0cce 23       		.uleb128 0x23
 2063 0ccf 50020000 		.4byte	.LASF146
 2064 0cd3 01       		.byte	0x1
 2065 0cd4 A4       		.byte	0xa4
 2066 0cd5 C3000000 		.4byte	0xc3
 2067 0cd9 01       		.uleb128 0x1
 2068 0cda 59       		.byte	0x59
 2069 0cdb 23       		.uleb128 0x23
 2070 0cdc 43020000 		.4byte	.LASF147
 2071 0ce0 01       		.byte	0x1
 2072 0ce1 A5       		.byte	0xa5
 2073 0ce2 C3000000 		.4byte	0xc3
 2074 0ce6 01       		.uleb128 0x1
 2075 0ce7 58       		.byte	0x58
 2076 0ce8 23       		.uleb128 0x23
 2077 0ce9 96070000 		.4byte	.LASF148
 2078 0ced 01       		.byte	0x1
 2079 0cee A6       		.byte	0xa6
 2080 0cef C3000000 		.4byte	0xc3
 2081 0cf3 01       		.uleb128 0x1
 2082 0cf4 5C       		.byte	0x5c
 2083 0cf5 23       		.uleb128 0x23
 2084 0cf6 7C050000 		.4byte	.LASF172
 2085 0cfa 01       		.byte	0x1
 2086 0cfb A7       		.byte	0xa7
 2087 0cfc C3000000 		.4byte	0xc3
 2088 0d00 01       		.uleb128 0x1
 2089 0d01 52       		.byte	0x52
 2090 0d02 24       		.uleb128 0x24
 2091 0d03 62697400 		.ascii	"bit\000"
 2092 0d07 01       		.byte	0x1
 2093 0d08 A8       		.byte	0xa8
 2094 0d09 C3000000 		.4byte	0xc3
 2095 0d0d FD010000 		.4byte	.LLST20
 2096 0d11 25       		.uleb128 0x25
 2097 0d12 60000000 		.4byte	.Ldebug_ranges0+0x60
 2098 0d16 26       		.uleb128 0x26
 2099 0d17 87010000 		.4byte	.LASF173
 2100 0d1b 01       		.byte	0x1
 2101 0d1c AB       		.byte	0xab
 2102 0d1d C3000000 		.4byte	0xc3
 2103 0d21 1C020000 		.4byte	.LLST21
 2104 0d25 24       		.uleb128 0x24
 2105 0d26 6D3100   		.ascii	"m1\000"
 2106 0d29 01       		.byte	0x1
 2107 0d2a AB       		.byte	0xab
 2108 0d2b C3000000 		.4byte	0xc3
 2109 0d2f A0020000 		.4byte	.LLST22
ARM GAS  /var/folders/m4/4md61f0s1_g0rzfghffqnxvr0000gn/T//ccl2e1ol.s 			page 38


 2110 0d33 24       		.uleb128 0x24
 2111 0d34 6D3200   		.ascii	"m2\000"
 2112 0d37 01       		.byte	0x1
 2113 0d38 AB       		.byte	0xab
 2114 0d39 C3000000 		.4byte	0xc3
 2115 0d3d D5020000 		.4byte	.LLST23
 2116 0d41 24       		.uleb128 0x24
 2117 0d42 6D3400   		.ascii	"m4\000"
 2118 0d45 01       		.byte	0x1
 2119 0d46 AB       		.byte	0xab
 2120 0d47 C3000000 		.4byte	0xc3
 2121 0d4b 2C030000 		.4byte	.LLST24
 2122 0d4f 00       		.byte	0
 2123 0d50 00       		.byte	0
 2124 0d51 27       		.uleb128 0x27
 2125 0d52 C3000000 		.4byte	.LASF174
 2126 0d56 0E       		.byte	0xe
 2127 0d57 FA06     		.2byte	0x6fa
 2128 0d59 5D0D0000 		.4byte	0xd5d
 2129 0d5d 0F       		.uleb128 0xf
 2130 0d5e B8000000 		.4byte	0xb8
 2131 0d62 28       		.uleb128 0x28
 2132 0d63 636800   		.ascii	"ch\000"
 2133 0d66 06       		.byte	0x6
 2134 0d67 0902     		.2byte	0x209
 2135 0d69 0E040000 		.4byte	0x40e
 2136 0d6d 00       		.byte	0
 2137              		.section	.debug_abbrev,"",%progbits
 2138              	.Ldebug_abbrev0:
 2139 0000 01       		.uleb128 0x1
 2140 0001 11       		.uleb128 0x11
 2141 0002 01       		.byte	0x1
 2142 0003 25       		.uleb128 0x25
 2143 0004 0E       		.uleb128 0xe
 2144 0005 13       		.uleb128 0x13
 2145 0006 0B       		.uleb128 0xb
 2146 0007 03       		.uleb128 0x3
 2147 0008 0E       		.uleb128 0xe
 2148 0009 1B       		.uleb128 0x1b
 2149 000a 0E       		.uleb128 0xe
 2150 000b 55       		.uleb128 0x55
 2151 000c 17       		.uleb128 0x17
 2152 000d 11       		.uleb128 0x11
 2153 000e 01       		.uleb128 0x1
 2154 000f 10       		.uleb128 0x10
 2155 0010 17       		.uleb128 0x17
 2156 0011 00       		.byte	0
 2157 0012 00       		.byte	0
 2158 0013 02       		.uleb128 0x2
 2159 0014 24       		.uleb128 0x24
 2160 0015 00       		.byte	0
 2161 0016 0B       		.uleb128 0xb
 2162 0017 0B       		.uleb128 0xb
 2163 0018 3E       		.uleb128 0x3e
 2164 0019 0B       		.uleb128 0xb
 2165 001a 03       		.uleb128 0x3
 2166 001b 08       		.uleb128 0x8
ARM GAS  /var/folders/m4/4md61f0s1_g0rzfghffqnxvr0000gn/T//ccl2e1ol.s 			page 39


 2167 001c 00       		.byte	0
 2168 001d 00       		.byte	0
 2169 001e 03       		.uleb128 0x3
 2170 001f 24       		.uleb128 0x24
 2171 0020 00       		.byte	0
 2172 0021 0B       		.uleb128 0xb
 2173 0022 0B       		.uleb128 0xb
 2174 0023 3E       		.uleb128 0x3e
 2175 0024 0B       		.uleb128 0xb
 2176 0025 03       		.uleb128 0x3
 2177 0026 0E       		.uleb128 0xe
 2178 0027 00       		.byte	0
 2179 0028 00       		.byte	0
 2180 0029 04       		.uleb128 0x4
 2181 002a 16       		.uleb128 0x16
 2182 002b 00       		.byte	0
 2183 002c 03       		.uleb128 0x3
 2184 002d 0E       		.uleb128 0xe
 2185 002e 3A       		.uleb128 0x3a
 2186 002f 0B       		.uleb128 0xb
 2187 0030 3B       		.uleb128 0x3b
 2188 0031 0B       		.uleb128 0xb
 2189 0032 49       		.uleb128 0x49
 2190 0033 13       		.uleb128 0x13
 2191 0034 00       		.byte	0
 2192 0035 00       		.byte	0
 2193 0036 05       		.uleb128 0x5
 2194 0037 13       		.uleb128 0x13
 2195 0038 01       		.byte	0x1
 2196 0039 03       		.uleb128 0x3
 2197 003a 0E       		.uleb128 0xe
 2198 003b 0B       		.uleb128 0xb
 2199 003c 0B       		.uleb128 0xb
 2200 003d 3A       		.uleb128 0x3a
 2201 003e 0B       		.uleb128 0xb
 2202 003f 3B       		.uleb128 0x3b
 2203 0040 0B       		.uleb128 0xb
 2204 0041 01       		.uleb128 0x1
 2205 0042 13       		.uleb128 0x13
 2206 0043 00       		.byte	0
 2207 0044 00       		.byte	0
 2208 0045 06       		.uleb128 0x6
 2209 0046 0D       		.uleb128 0xd
 2210 0047 00       		.byte	0
 2211 0048 03       		.uleb128 0x3
 2212 0049 0E       		.uleb128 0xe
 2213 004a 3A       		.uleb128 0x3a
 2214 004b 0B       		.uleb128 0xb
 2215 004c 3B       		.uleb128 0x3b
 2216 004d 0B       		.uleb128 0xb
 2217 004e 49       		.uleb128 0x49
 2218 004f 13       		.uleb128 0x13
 2219 0050 38       		.uleb128 0x38
 2220 0051 0B       		.uleb128 0xb
 2221 0052 00       		.byte	0
 2222 0053 00       		.byte	0
 2223 0054 07       		.uleb128 0x7
ARM GAS  /var/folders/m4/4md61f0s1_g0rzfghffqnxvr0000gn/T//ccl2e1ol.s 			page 40


 2224 0055 0D       		.uleb128 0xd
 2225 0056 00       		.byte	0
 2226 0057 03       		.uleb128 0x3
 2227 0058 08       		.uleb128 0x8
 2228 0059 3A       		.uleb128 0x3a
 2229 005a 0B       		.uleb128 0xb
 2230 005b 3B       		.uleb128 0x3b
 2231 005c 05       		.uleb128 0x5
 2232 005d 49       		.uleb128 0x49
 2233 005e 13       		.uleb128 0x13
 2234 005f 38       		.uleb128 0x38
 2235 0060 0B       		.uleb128 0xb
 2236 0061 00       		.byte	0
 2237 0062 00       		.byte	0
 2238 0063 08       		.uleb128 0x8
 2239 0064 0D       		.uleb128 0xd
 2240 0065 00       		.byte	0
 2241 0066 03       		.uleb128 0x3
 2242 0067 0E       		.uleb128 0xe
 2243 0068 3A       		.uleb128 0x3a
 2244 0069 0B       		.uleb128 0xb
 2245 006a 3B       		.uleb128 0x3b
 2246 006b 05       		.uleb128 0x5
 2247 006c 49       		.uleb128 0x49
 2248 006d 13       		.uleb128 0x13
 2249 006e 38       		.uleb128 0x38
 2250 006f 0B       		.uleb128 0xb
 2251 0070 00       		.byte	0
 2252 0071 00       		.byte	0
 2253 0072 09       		.uleb128 0x9
 2254 0073 0F       		.uleb128 0xf
 2255 0074 00       		.byte	0
 2256 0075 0B       		.uleb128 0xb
 2257 0076 0B       		.uleb128 0xb
 2258 0077 49       		.uleb128 0x49
 2259 0078 13       		.uleb128 0x13
 2260 0079 00       		.byte	0
 2261 007a 00       		.byte	0
 2262 007b 0A       		.uleb128 0xa
 2263 007c 13       		.uleb128 0x13
 2264 007d 01       		.byte	0x1
 2265 007e 03       		.uleb128 0x3
 2266 007f 0E       		.uleb128 0xe
 2267 0080 0B       		.uleb128 0xb
 2268 0081 0B       		.uleb128 0xb
 2269 0082 3A       		.uleb128 0x3a
 2270 0083 0B       		.uleb128 0xb
 2271 0084 3B       		.uleb128 0x3b
 2272 0085 05       		.uleb128 0x5
 2273 0086 01       		.uleb128 0x1
 2274 0087 13       		.uleb128 0x13
 2275 0088 00       		.byte	0
 2276 0089 00       		.byte	0
 2277 008a 0B       		.uleb128 0xb
 2278 008b 15       		.uleb128 0x15
 2279 008c 01       		.byte	0x1
 2280 008d 27       		.uleb128 0x27
ARM GAS  /var/folders/m4/4md61f0s1_g0rzfghffqnxvr0000gn/T//ccl2e1ol.s 			page 41


 2281 008e 19       		.uleb128 0x19
 2282 008f 01       		.uleb128 0x1
 2283 0090 13       		.uleb128 0x13
 2284 0091 00       		.byte	0
 2285 0092 00       		.byte	0
 2286 0093 0C       		.uleb128 0xc
 2287 0094 05       		.uleb128 0x5
 2288 0095 00       		.byte	0
 2289 0096 49       		.uleb128 0x49
 2290 0097 13       		.uleb128 0x13
 2291 0098 00       		.byte	0
 2292 0099 00       		.byte	0
 2293 009a 0D       		.uleb128 0xd
 2294 009b 0F       		.uleb128 0xf
 2295 009c 00       		.byte	0
 2296 009d 0B       		.uleb128 0xb
 2297 009e 0B       		.uleb128 0xb
 2298 009f 00       		.byte	0
 2299 00a0 00       		.byte	0
 2300 00a1 0E       		.uleb128 0xe
 2301 00a2 13       		.uleb128 0x13
 2302 00a3 01       		.byte	0x1
 2303 00a4 03       		.uleb128 0x3
 2304 00a5 0E       		.uleb128 0xe
 2305 00a6 0B       		.uleb128 0xb
 2306 00a7 05       		.uleb128 0x5
 2307 00a8 3A       		.uleb128 0x3a
 2308 00a9 0B       		.uleb128 0xb
 2309 00aa 3B       		.uleb128 0x3b
 2310 00ab 05       		.uleb128 0x5
 2311 00ac 01       		.uleb128 0x1
 2312 00ad 13       		.uleb128 0x13
 2313 00ae 00       		.byte	0
 2314 00af 00       		.byte	0
 2315 00b0 0F       		.uleb128 0xf
 2316 00b1 35       		.uleb128 0x35
 2317 00b2 00       		.byte	0
 2318 00b3 49       		.uleb128 0x49
 2319 00b4 13       		.uleb128 0x13
 2320 00b5 00       		.byte	0
 2321 00b6 00       		.byte	0
 2322 00b7 10       		.uleb128 0x10
 2323 00b8 01       		.uleb128 0x1
 2324 00b9 01       		.byte	0x1
 2325 00ba 49       		.uleb128 0x49
 2326 00bb 13       		.uleb128 0x13
 2327 00bc 01       		.uleb128 0x1
 2328 00bd 13       		.uleb128 0x13
 2329 00be 00       		.byte	0
 2330 00bf 00       		.byte	0
 2331 00c0 11       		.uleb128 0x11
 2332 00c1 21       		.uleb128 0x21
 2333 00c2 00       		.byte	0
 2334 00c3 49       		.uleb128 0x49
 2335 00c4 13       		.uleb128 0x13
 2336 00c5 2F       		.uleb128 0x2f
 2337 00c6 0B       		.uleb128 0xb
ARM GAS  /var/folders/m4/4md61f0s1_g0rzfghffqnxvr0000gn/T//ccl2e1ol.s 			page 42


 2338 00c7 00       		.byte	0
 2339 00c8 00       		.byte	0
 2340 00c9 12       		.uleb128 0x12
 2341 00ca 13       		.uleb128 0x13
 2342 00cb 01       		.byte	0x1
 2343 00cc 0B       		.uleb128 0xb
 2344 00cd 0B       		.uleb128 0xb
 2345 00ce 3A       		.uleb128 0x3a
 2346 00cf 0B       		.uleb128 0xb
 2347 00d0 3B       		.uleb128 0x3b
 2348 00d1 05       		.uleb128 0x5
 2349 00d2 01       		.uleb128 0x1
 2350 00d3 13       		.uleb128 0x13
 2351 00d4 00       		.byte	0
 2352 00d5 00       		.byte	0
 2353 00d6 13       		.uleb128 0x13
 2354 00d7 16       		.uleb128 0x16
 2355 00d8 00       		.byte	0
 2356 00d9 03       		.uleb128 0x3
 2357 00da 0E       		.uleb128 0xe
 2358 00db 3A       		.uleb128 0x3a
 2359 00dc 0B       		.uleb128 0xb
 2360 00dd 3B       		.uleb128 0x3b
 2361 00de 05       		.uleb128 0x5
 2362 00df 49       		.uleb128 0x49
 2363 00e0 13       		.uleb128 0x13
 2364 00e1 00       		.byte	0
 2365 00e2 00       		.byte	0
 2366 00e3 14       		.uleb128 0x14
 2367 00e4 0D       		.uleb128 0xd
 2368 00e5 00       		.byte	0
 2369 00e6 03       		.uleb128 0x3
 2370 00e7 08       		.uleb128 0x8
 2371 00e8 3A       		.uleb128 0x3a
 2372 00e9 0B       		.uleb128 0xb
 2373 00ea 3B       		.uleb128 0x3b
 2374 00eb 0B       		.uleb128 0xb
 2375 00ec 49       		.uleb128 0x49
 2376 00ed 13       		.uleb128 0x13
 2377 00ee 38       		.uleb128 0x38
 2378 00ef 0B       		.uleb128 0xb
 2379 00f0 00       		.byte	0
 2380 00f1 00       		.byte	0
 2381 00f2 15       		.uleb128 0x15
 2382 00f3 13       		.uleb128 0x13
 2383 00f4 01       		.byte	0x1
 2384 00f5 0B       		.uleb128 0xb
 2385 00f6 0B       		.uleb128 0xb
 2386 00f7 3A       		.uleb128 0x3a
 2387 00f8 0B       		.uleb128 0xb
 2388 00f9 3B       		.uleb128 0x3b
 2389 00fa 0B       		.uleb128 0xb
 2390 00fb 01       		.uleb128 0x1
 2391 00fc 13       		.uleb128 0x13
 2392 00fd 00       		.byte	0
 2393 00fe 00       		.byte	0
 2394 00ff 16       		.uleb128 0x16
ARM GAS  /var/folders/m4/4md61f0s1_g0rzfghffqnxvr0000gn/T//ccl2e1ol.s 			page 43


 2395 0100 17       		.uleb128 0x17
 2396 0101 01       		.byte	0x1
 2397 0102 0B       		.uleb128 0xb
 2398 0103 0B       		.uleb128 0xb
 2399 0104 3A       		.uleb128 0x3a
 2400 0105 0B       		.uleb128 0xb
 2401 0106 3B       		.uleb128 0x3b
 2402 0107 0B       		.uleb128 0xb
 2403 0108 01       		.uleb128 0x1
 2404 0109 13       		.uleb128 0x13
 2405 010a 00       		.byte	0
 2406 010b 00       		.byte	0
 2407 010c 17       		.uleb128 0x17
 2408 010d 0D       		.uleb128 0xd
 2409 010e 00       		.byte	0
 2410 010f 03       		.uleb128 0x3
 2411 0110 0E       		.uleb128 0xe
 2412 0111 3A       		.uleb128 0x3a
 2413 0112 0B       		.uleb128 0xb
 2414 0113 3B       		.uleb128 0x3b
 2415 0114 05       		.uleb128 0x5
 2416 0115 49       		.uleb128 0x49
 2417 0116 13       		.uleb128 0x13
 2418 0117 00       		.byte	0
 2419 0118 00       		.byte	0
 2420 0119 18       		.uleb128 0x18
 2421 011a 26       		.uleb128 0x26
 2422 011b 00       		.byte	0
 2423 011c 49       		.uleb128 0x49
 2424 011d 13       		.uleb128 0x13
 2425 011e 00       		.byte	0
 2426 011f 00       		.byte	0
 2427 0120 19       		.uleb128 0x19
 2428 0121 0D       		.uleb128 0xd
 2429 0122 00       		.byte	0
 2430 0123 03       		.uleb128 0x3
 2431 0124 08       		.uleb128 0x8
 2432 0125 3A       		.uleb128 0x3a
 2433 0126 0B       		.uleb128 0xb
 2434 0127 3B       		.uleb128 0x3b
 2435 0128 0B       		.uleb128 0xb
 2436 0129 49       		.uleb128 0x49
 2437 012a 13       		.uleb128 0x13
 2438 012b 00       		.byte	0
 2439 012c 00       		.byte	0
 2440 012d 1A       		.uleb128 0x1a
 2441 012e 2E       		.uleb128 0x2e
 2442 012f 01       		.byte	0x1
 2443 0130 03       		.uleb128 0x3
 2444 0131 0E       		.uleb128 0xe
 2445 0132 3A       		.uleb128 0x3a
 2446 0133 0B       		.uleb128 0xb
 2447 0134 3B       		.uleb128 0x3b
 2448 0135 0B       		.uleb128 0xb
 2449 0136 27       		.uleb128 0x27
 2450 0137 19       		.uleb128 0x19
 2451 0138 20       		.uleb128 0x20
ARM GAS  /var/folders/m4/4md61f0s1_g0rzfghffqnxvr0000gn/T//ccl2e1ol.s 			page 44


 2452 0139 0B       		.uleb128 0xb
 2453 013a 01       		.uleb128 0x1
 2454 013b 13       		.uleb128 0x13
 2455 013c 00       		.byte	0
 2456 013d 00       		.byte	0
 2457 013e 1B       		.uleb128 0x1b
 2458 013f 05       		.uleb128 0x5
 2459 0140 00       		.byte	0
 2460 0141 03       		.uleb128 0x3
 2461 0142 0E       		.uleb128 0xe
 2462 0143 3A       		.uleb128 0x3a
 2463 0144 0B       		.uleb128 0xb
 2464 0145 3B       		.uleb128 0x3b
 2465 0146 0B       		.uleb128 0xb
 2466 0147 49       		.uleb128 0x49
 2467 0148 13       		.uleb128 0x13
 2468 0149 00       		.byte	0
 2469 014a 00       		.byte	0
 2470 014b 1C       		.uleb128 0x1c
 2471 014c 2E       		.uleb128 0x2e
 2472 014d 01       		.byte	0x1
 2473 014e 3F       		.uleb128 0x3f
 2474 014f 19       		.uleb128 0x19
 2475 0150 03       		.uleb128 0x3
 2476 0151 0E       		.uleb128 0xe
 2477 0152 3A       		.uleb128 0x3a
 2478 0153 0B       		.uleb128 0xb
 2479 0154 3B       		.uleb128 0x3b
 2480 0155 0B       		.uleb128 0xb
 2481 0156 27       		.uleb128 0x27
 2482 0157 19       		.uleb128 0x19
 2483 0158 11       		.uleb128 0x11
 2484 0159 01       		.uleb128 0x1
 2485 015a 12       		.uleb128 0x12
 2486 015b 06       		.uleb128 0x6
 2487 015c 40       		.uleb128 0x40
 2488 015d 18       		.uleb128 0x18
 2489 015e 9742     		.uleb128 0x2117
 2490 0160 19       		.uleb128 0x19
 2491 0161 01       		.uleb128 0x1
 2492 0162 13       		.uleb128 0x13
 2493 0163 00       		.byte	0
 2494 0164 00       		.byte	0
 2495 0165 1D       		.uleb128 0x1d
 2496 0166 05       		.uleb128 0x5
 2497 0167 00       		.byte	0
 2498 0168 03       		.uleb128 0x3
 2499 0169 0E       		.uleb128 0xe
 2500 016a 3A       		.uleb128 0x3a
 2501 016b 0B       		.uleb128 0xb
 2502 016c 3B       		.uleb128 0x3b
 2503 016d 0B       		.uleb128 0xb
 2504 016e 49       		.uleb128 0x49
 2505 016f 13       		.uleb128 0x13
 2506 0170 02       		.uleb128 0x2
 2507 0171 18       		.uleb128 0x18
 2508 0172 00       		.byte	0
ARM GAS  /var/folders/m4/4md61f0s1_g0rzfghffqnxvr0000gn/T//ccl2e1ol.s 			page 45


 2509 0173 00       		.byte	0
 2510 0174 1E       		.uleb128 0x1e
 2511 0175 1D       		.uleb128 0x1d
 2512 0176 01       		.byte	0x1
 2513 0177 31       		.uleb128 0x31
 2514 0178 13       		.uleb128 0x13
 2515 0179 52       		.uleb128 0x52
 2516 017a 01       		.uleb128 0x1
 2517 017b 55       		.uleb128 0x55
 2518 017c 17       		.uleb128 0x17
 2519 017d 58       		.uleb128 0x58
 2520 017e 0B       		.uleb128 0xb
 2521 017f 59       		.uleb128 0x59
 2522 0180 0B       		.uleb128 0xb
 2523 0181 01       		.uleb128 0x1
 2524 0182 13       		.uleb128 0x13
 2525 0183 00       		.byte	0
 2526 0184 00       		.byte	0
 2527 0185 1F       		.uleb128 0x1f
 2528 0186 05       		.uleb128 0x5
 2529 0187 00       		.byte	0
 2530 0188 31       		.uleb128 0x31
 2531 0189 13       		.uleb128 0x13
 2532 018a 02       		.uleb128 0x2
 2533 018b 17       		.uleb128 0x17
 2534 018c 00       		.byte	0
 2535 018d 00       		.byte	0
 2536 018e 20       		.uleb128 0x20
 2537 018f 1D       		.uleb128 0x1d
 2538 0190 01       		.byte	0x1
 2539 0191 31       		.uleb128 0x31
 2540 0192 13       		.uleb128 0x13
 2541 0193 11       		.uleb128 0x11
 2542 0194 01       		.uleb128 0x1
 2543 0195 12       		.uleb128 0x12
 2544 0196 06       		.uleb128 0x6
 2545 0197 58       		.uleb128 0x58
 2546 0198 0B       		.uleb128 0xb
 2547 0199 59       		.uleb128 0x59
 2548 019a 0B       		.uleb128 0xb
 2549 019b 01       		.uleb128 0x1
 2550 019c 13       		.uleb128 0x13
 2551 019d 00       		.byte	0
 2552 019e 00       		.byte	0
 2553 019f 21       		.uleb128 0x21
 2554 01a0 1D       		.uleb128 0x1d
 2555 01a1 01       		.byte	0x1
 2556 01a2 31       		.uleb128 0x31
 2557 01a3 13       		.uleb128 0x13
 2558 01a4 11       		.uleb128 0x11
 2559 01a5 01       		.uleb128 0x1
 2560 01a6 12       		.uleb128 0x12
 2561 01a7 06       		.uleb128 0x6
 2562 01a8 58       		.uleb128 0x58
 2563 01a9 0B       		.uleb128 0xb
 2564 01aa 59       		.uleb128 0x59
 2565 01ab 0B       		.uleb128 0xb
ARM GAS  /var/folders/m4/4md61f0s1_g0rzfghffqnxvr0000gn/T//ccl2e1ol.s 			page 46


 2566 01ac 00       		.byte	0
 2567 01ad 00       		.byte	0
 2568 01ae 22       		.uleb128 0x22
 2569 01af 05       		.uleb128 0x5
 2570 01b0 00       		.byte	0
 2571 01b1 03       		.uleb128 0x3
 2572 01b2 0E       		.uleb128 0xe
 2573 01b3 3A       		.uleb128 0x3a
 2574 01b4 0B       		.uleb128 0xb
 2575 01b5 3B       		.uleb128 0x3b
 2576 01b6 0B       		.uleb128 0xb
 2577 01b7 49       		.uleb128 0x49
 2578 01b8 13       		.uleb128 0x13
 2579 01b9 02       		.uleb128 0x2
 2580 01ba 17       		.uleb128 0x17
 2581 01bb 00       		.byte	0
 2582 01bc 00       		.byte	0
 2583 01bd 23       		.uleb128 0x23
 2584 01be 34       		.uleb128 0x34
 2585 01bf 00       		.byte	0
 2586 01c0 03       		.uleb128 0x3
 2587 01c1 0E       		.uleb128 0xe
 2588 01c2 3A       		.uleb128 0x3a
 2589 01c3 0B       		.uleb128 0xb
 2590 01c4 3B       		.uleb128 0x3b
 2591 01c5 0B       		.uleb128 0xb
 2592 01c6 49       		.uleb128 0x49
 2593 01c7 13       		.uleb128 0x13
 2594 01c8 02       		.uleb128 0x2
 2595 01c9 18       		.uleb128 0x18
 2596 01ca 00       		.byte	0
 2597 01cb 00       		.byte	0
 2598 01cc 24       		.uleb128 0x24
 2599 01cd 34       		.uleb128 0x34
 2600 01ce 00       		.byte	0
 2601 01cf 03       		.uleb128 0x3
 2602 01d0 08       		.uleb128 0x8
 2603 01d1 3A       		.uleb128 0x3a
 2604 01d2 0B       		.uleb128 0xb
 2605 01d3 3B       		.uleb128 0x3b
 2606 01d4 0B       		.uleb128 0xb
 2607 01d5 49       		.uleb128 0x49
 2608 01d6 13       		.uleb128 0x13
 2609 01d7 02       		.uleb128 0x2
 2610 01d8 17       		.uleb128 0x17
 2611 01d9 00       		.byte	0
 2612 01da 00       		.byte	0
 2613 01db 25       		.uleb128 0x25
 2614 01dc 0B       		.uleb128 0xb
 2615 01dd 01       		.byte	0x1
 2616 01de 55       		.uleb128 0x55
 2617 01df 17       		.uleb128 0x17
 2618 01e0 00       		.byte	0
 2619 01e1 00       		.byte	0
 2620 01e2 26       		.uleb128 0x26
 2621 01e3 34       		.uleb128 0x34
 2622 01e4 00       		.byte	0
ARM GAS  /var/folders/m4/4md61f0s1_g0rzfghffqnxvr0000gn/T//ccl2e1ol.s 			page 47


 2623 01e5 03       		.uleb128 0x3
 2624 01e6 0E       		.uleb128 0xe
 2625 01e7 3A       		.uleb128 0x3a
 2626 01e8 0B       		.uleb128 0xb
 2627 01e9 3B       		.uleb128 0x3b
 2628 01ea 0B       		.uleb128 0xb
 2629 01eb 49       		.uleb128 0x49
 2630 01ec 13       		.uleb128 0x13
 2631 01ed 02       		.uleb128 0x2
 2632 01ee 17       		.uleb128 0x17
 2633 01ef 00       		.byte	0
 2634 01f0 00       		.byte	0
 2635 01f1 27       		.uleb128 0x27
 2636 01f2 34       		.uleb128 0x34
 2637 01f3 00       		.byte	0
 2638 01f4 03       		.uleb128 0x3
 2639 01f5 0E       		.uleb128 0xe
 2640 01f6 3A       		.uleb128 0x3a
 2641 01f7 0B       		.uleb128 0xb
 2642 01f8 3B       		.uleb128 0x3b
 2643 01f9 05       		.uleb128 0x5
 2644 01fa 49       		.uleb128 0x49
 2645 01fb 13       		.uleb128 0x13
 2646 01fc 3F       		.uleb128 0x3f
 2647 01fd 19       		.uleb128 0x19
 2648 01fe 3C       		.uleb128 0x3c
 2649 01ff 19       		.uleb128 0x19
 2650 0200 00       		.byte	0
 2651 0201 00       		.byte	0
 2652 0202 28       		.uleb128 0x28
 2653 0203 34       		.uleb128 0x34
 2654 0204 00       		.byte	0
 2655 0205 03       		.uleb128 0x3
 2656 0206 08       		.uleb128 0x8
 2657 0207 3A       		.uleb128 0x3a
 2658 0208 0B       		.uleb128 0xb
 2659 0209 3B       		.uleb128 0x3b
 2660 020a 05       		.uleb128 0x5
 2661 020b 49       		.uleb128 0x49
 2662 020c 13       		.uleb128 0x13
 2663 020d 3F       		.uleb128 0x3f
 2664 020e 19       		.uleb128 0x19
 2665 020f 3C       		.uleb128 0x3c
 2666 0210 19       		.uleb128 0x19
 2667 0211 00       		.byte	0
 2668 0212 00       		.byte	0
 2669 0213 00       		.byte	0
 2670              		.section	.debug_loc,"",%progbits
 2671              	.Ldebug_loc0:
 2672              	.LLST0:
 2673 0000 1C000000 		.4byte	.LVL1
 2674 0004 38000000 		.4byte	.LVL2
 2675 0008 0100     		.2byte	0x1
 2676 000a 50       		.byte	0x50
 2677 000b 00000000 		.4byte	0
 2678 000f 00000000 		.4byte	0
 2679              	.LLST1:
ARM GAS  /var/folders/m4/4md61f0s1_g0rzfghffqnxvr0000gn/T//ccl2e1ol.s 			page 48


 2680 0013 1C000000 		.4byte	.LVL1
 2681 0017 38000000 		.4byte	.LVL2
 2682 001b 0600     		.2byte	0x6
 2683 001d 0C       		.byte	0xc
 2684 001e 00000240 		.4byte	0x40020000
 2685 0022 9F       		.byte	0x9f
 2686 0023 00000000 		.4byte	0
 2687 0027 00000000 		.4byte	0
 2688              	.LLST2:
 2689 002b 38000000 		.4byte	.LVL2
 2690 002f 54000000 		.4byte	.LVL3
 2691 0033 0300     		.2byte	0x3
 2692 0035 70       		.byte	0x70
 2693 0036 1C       		.sleb128 28
 2694 0037 9F       		.byte	0x9f
 2695 0038 00000000 		.4byte	0
 2696 003c 00000000 		.4byte	0
 2697              	.LLST3:
 2698 0040 38000000 		.4byte	.LVL2
 2699 0044 54000000 		.4byte	.LVL3
 2700 0048 0600     		.2byte	0x6
 2701 004a 0C       		.byte	0xc
 2702 004b 00040240 		.4byte	0x40020400
 2703 004f 9F       		.byte	0x9f
 2704 0050 00000000 		.4byte	0
 2705 0054 00000000 		.4byte	0
 2706              	.LLST4:
 2707 0058 54000000 		.4byte	.LVL3
 2708 005c 70000000 		.4byte	.LVL4
 2709 0060 0300     		.2byte	0x3
 2710 0062 70       		.byte	0x70
 2711 0063 38       		.sleb128 56
 2712 0064 9F       		.byte	0x9f
 2713 0065 00000000 		.4byte	0
 2714 0069 00000000 		.4byte	0
 2715              	.LLST5:
 2716 006d 54000000 		.4byte	.LVL3
 2717 0071 70000000 		.4byte	.LVL4
 2718 0075 0600     		.2byte	0x6
 2719 0077 0C       		.byte	0xc
 2720 0078 00080240 		.4byte	0x40020800
 2721 007c 9F       		.byte	0x9f
 2722 007d 00000000 		.4byte	0
 2723 0081 00000000 		.4byte	0
 2724              	.LLST6:
 2725 0085 70000000 		.4byte	.LVL4
 2726 0089 8C000000 		.4byte	.LVL5
 2727 008d 0400     		.2byte	0x4
 2728 008f 70       		.byte	0x70
 2729 0090 D400     		.sleb128 84
 2730 0092 9F       		.byte	0x9f
 2731 0093 00000000 		.4byte	0
 2732 0097 00000000 		.4byte	0
 2733              	.LLST7:
 2734 009b 70000000 		.4byte	.LVL4
 2735 009f 8C000000 		.4byte	.LVL5
 2736 00a3 0600     		.2byte	0x6
ARM GAS  /var/folders/m4/4md61f0s1_g0rzfghffqnxvr0000gn/T//ccl2e1ol.s 			page 49


 2737 00a5 0C       		.byte	0xc
 2738 00a6 000C0240 		.4byte	0x40020c00
 2739 00aa 9F       		.byte	0x9f
 2740 00ab 00000000 		.4byte	0
 2741 00af 00000000 		.4byte	0
 2742              	.LLST8:
 2743 00b3 8C000000 		.4byte	.LVL5
 2744 00b7 BC000000 		.4byte	.LVL6
 2745 00bb 0400     		.2byte	0x4
 2746 00bd 70       		.byte	0x70
 2747 00be F000     		.sleb128 112
 2748 00c0 9F       		.byte	0x9f
 2749 00c1 00000000 		.4byte	0
 2750 00c5 00000000 		.4byte	0
 2751              	.LLST9:
 2752 00c9 8C000000 		.4byte	.LVL5
 2753 00cd BC000000 		.4byte	.LVL6
 2754 00d1 0600     		.2byte	0x6
 2755 00d3 0C       		.byte	0xc
 2756 00d4 00100240 		.4byte	0x40021000
 2757 00d8 9F       		.byte	0x9f
 2758 00d9 00000000 		.4byte	0
 2759 00dd 00000000 		.4byte	0
 2760              	.LLST10:
 2761 00e1 BC000000 		.4byte	.LVL6
 2762 00e5 F4000000 		.4byte	.LVL7
 2763 00e9 0400     		.2byte	0x4
 2764 00eb 70       		.byte	0x70
 2765 00ec 8C01     		.sleb128 140
 2766 00ee 9F       		.byte	0x9f
 2767 00ef 00000000 		.4byte	0
 2768 00f3 00000000 		.4byte	0
 2769              	.LLST11:
 2770 00f7 BC000000 		.4byte	.LVL6
 2771 00fb F4000000 		.4byte	.LVL7
 2772 00ff 0600     		.2byte	0x6
 2773 0101 0C       		.byte	0xc
 2774 0102 00140240 		.4byte	0x40021400
 2775 0106 9F       		.byte	0x9f
 2776 0107 00000000 		.4byte	0
 2777 010b 00000000 		.4byte	0
 2778              	.LLST12:
 2779 010f F4000000 		.4byte	.LVL7
 2780 0113 22010000 		.4byte	.LVL8
 2781 0117 0400     		.2byte	0x4
 2782 0119 70       		.byte	0x70
 2783 011a A801     		.sleb128 168
 2784 011c 9F       		.byte	0x9f
 2785 011d 00000000 		.4byte	0
 2786 0121 00000000 		.4byte	0
 2787              	.LLST13:
 2788 0125 F4000000 		.4byte	.LVL7
 2789 0129 22010000 		.4byte	.LVL8
 2790 012d 0600     		.2byte	0x6
 2791 012f 0C       		.byte	0xc
 2792 0130 00180240 		.4byte	0x40021800
 2793 0134 9F       		.byte	0x9f
ARM GAS  /var/folders/m4/4md61f0s1_g0rzfghffqnxvr0000gn/T//ccl2e1ol.s 			page 50


 2794 0135 00000000 		.4byte	0
 2795 0139 00000000 		.4byte	0
 2796              	.LLST14:
 2797 013d 22010000 		.4byte	.LVL8
 2798 0141 5A010000 		.4byte	.LVL9
 2799 0145 0400     		.2byte	0x4
 2800 0147 70       		.byte	0x70
 2801 0148 C401     		.sleb128 196
 2802 014a 9F       		.byte	0x9f
 2803 014b 00000000 		.4byte	0
 2804 014f 00000000 		.4byte	0
 2805              	.LLST15:
 2806 0153 22010000 		.4byte	.LVL8
 2807 0157 5A010000 		.4byte	.LVL9
 2808 015b 0600     		.2byte	0x6
 2809 015d 0C       		.byte	0xc
 2810 015e 001C0240 		.4byte	0x40021c00
 2811 0162 9F       		.byte	0x9f
 2812 0163 00000000 		.4byte	0
 2813 0167 00000000 		.4byte	0
 2814              	.LLST16:
 2815 016b 5A010000 		.4byte	.LVL9
 2816 016f 92010000 		.4byte	.LVL10
 2817 0173 0400     		.2byte	0x4
 2818 0175 70       		.byte	0x70
 2819 0176 E001     		.sleb128 224
 2820 0178 9F       		.byte	0x9f
 2821 0179 00000000 		.4byte	0
 2822 017d 00000000 		.4byte	0
 2823              	.LLST17:
 2824 0181 5A010000 		.4byte	.LVL9
 2825 0185 92010000 		.4byte	.LVL10
 2826 0189 0600     		.2byte	0x6
 2827 018b 0C       		.byte	0xc
 2828 018c 00200240 		.4byte	0x40022000
 2829 0190 9F       		.byte	0x9f
 2830 0191 00000000 		.4byte	0
 2831 0195 00000000 		.4byte	0
 2832              	.LLST18:
 2833 0199 00000000 		.4byte	.LVL11
 2834 019d 2E000000 		.4byte	.LVL19
 2835 01a1 0100     		.2byte	0x1
 2836 01a3 51       		.byte	0x51
 2837 01a4 2E000000 		.4byte	.LVL19
 2838 01a8 30000000 		.4byte	.LVL20
 2839 01ac 0500     		.2byte	0x5
 2840 01ae 71       		.byte	0x71
 2841 01af 00       		.sleb128 0
 2842 01b0 31       		.byte	0x31
 2843 01b1 25       		.byte	0x25
 2844 01b2 9F       		.byte	0x9f
 2845 01b3 30000000 		.4byte	.LVL20
 2846 01b7 32000000 		.4byte	.LVL21
 2847 01bb 0100     		.2byte	0x1
 2848 01bd 51       		.byte	0x51
 2849 01be 44000000 		.4byte	.LVL26
 2850 01c2 A2000000 		.4byte	.LVL32
ARM GAS  /var/folders/m4/4md61f0s1_g0rzfghffqnxvr0000gn/T//ccl2e1ol.s 			page 51


 2851 01c6 0100     		.2byte	0x1
 2852 01c8 51       		.byte	0x51
 2853 01c9 AA000000 		.4byte	.LVL34
 2854 01cd D0000000 		.4byte	.LFE270
 2855 01d1 0100     		.2byte	0x1
 2856 01d3 51       		.byte	0x51
 2857 01d4 00000000 		.4byte	0
 2858 01d8 00000000 		.4byte	0
 2859              	.LLST19:
 2860 01dc 00000000 		.4byte	.LVL11
 2861 01e0 1A000000 		.4byte	.LVL15
 2862 01e4 0100     		.2byte	0x1
 2863 01e6 52       		.byte	0x52
 2864 01e7 1A000000 		.4byte	.LVL15
 2865 01eb D0000000 		.4byte	.LFE270
 2866 01ef 0400     		.2byte	0x4
 2867 01f1 F3       		.byte	0xf3
 2868 01f2 01       		.uleb128 0x1
 2869 01f3 52       		.byte	0x52
 2870 01f4 9F       		.byte	0x9f
 2871 01f5 00000000 		.4byte	0
 2872 01f9 00000000 		.4byte	0
 2873              	.LLST20:
 2874 01fd 1A000000 		.4byte	.LVL15
 2875 0201 24000000 		.4byte	.LVL16
 2876 0205 0200     		.2byte	0x2
 2877 0207 30       		.byte	0x30
 2878 0208 9F       		.byte	0x9f
 2879 0209 24000000 		.4byte	.LVL16
 2880 020d D0000000 		.4byte	.LFE270
 2881 0211 0100     		.2byte	0x1
 2882 0213 57       		.byte	0x57
 2883 0214 00000000 		.4byte	0
 2884 0218 00000000 		.4byte	0
 2885              	.LLST21:
 2886 021c 24000000 		.4byte	.LVL16
 2887 0220 2C000000 		.4byte	.LVL18
 2888 0224 0100     		.2byte	0x1
 2889 0226 55       		.byte	0x55
 2890 0227 2C000000 		.4byte	.LVL18
 2891 022b 2E000000 		.4byte	.LVL19
 2892 022f 0A00     		.2byte	0xa
 2893 0231 72       		.byte	0x72
 2894 0232 00       		.sleb128 0
 2895 0233 77       		.byte	0x77
 2896 0234 00       		.sleb128 0
 2897 0235 37       		.byte	0x37
 2898 0236 1A       		.byte	0x1a
 2899 0237 32       		.byte	0x32
 2900 0238 24       		.byte	0x24
 2901 0239 24       		.byte	0x24
 2902 023a 9F       		.byte	0x9f
 2903 023b 84000000 		.4byte	.LVL27
 2904 023f A0000000 		.4byte	.LVL31
 2905 0243 0100     		.2byte	0x1
 2906 0245 55       		.byte	0x55
 2907 0246 A0000000 		.4byte	.LVL31
ARM GAS  /var/folders/m4/4md61f0s1_g0rzfghffqnxvr0000gn/T//ccl2e1ol.s 			page 52


 2908 024a A6000000 		.4byte	.LVL33
 2909 024e 0A00     		.2byte	0xa
 2910 0250 72       		.byte	0x72
 2911 0251 00       		.sleb128 0
 2912 0252 77       		.byte	0x77
 2913 0253 00       		.sleb128 0
 2914 0254 37       		.byte	0x37
 2915 0255 1A       		.byte	0x1a
 2916 0256 32       		.byte	0x32
 2917 0257 24       		.byte	0x24
 2918 0258 24       		.byte	0x24
 2919 0259 9F       		.byte	0x9f
 2920 025a AA000000 		.4byte	.LVL34
 2921 025e B6000000 		.4byte	.LVL36
 2922 0262 0100     		.2byte	0x1
 2923 0264 55       		.byte	0x55
 2924 0265 B6000000 		.4byte	.LVL36
 2925 0269 C4000000 		.4byte	.LVL38
 2926 026d 0A00     		.2byte	0xa
 2927 026f 72       		.byte	0x72
 2928 0270 00       		.sleb128 0
 2929 0271 77       		.byte	0x77
 2930 0272 00       		.sleb128 0
 2931 0273 37       		.byte	0x37
 2932 0274 1A       		.byte	0x1a
 2933 0275 32       		.byte	0x32
 2934 0276 24       		.byte	0x24
 2935 0277 24       		.byte	0x24
 2936 0278 9F       		.byte	0x9f
 2937 0279 C4000000 		.4byte	.LVL38
 2938 027d CC000000 		.4byte	.LVL40
 2939 0281 0100     		.2byte	0x1
 2940 0283 55       		.byte	0x55
 2941 0284 CC000000 		.4byte	.LVL40
 2942 0288 D0000000 		.4byte	.LFE270
 2943 028c 0A00     		.2byte	0xa
 2944 028e 72       		.byte	0x72
 2945 028f 00       		.sleb128 0
 2946 0290 77       		.byte	0x77
 2947 0291 00       		.sleb128 0
 2948 0292 37       		.byte	0x37
 2949 0293 1A       		.byte	0x1a
 2950 0294 32       		.byte	0x32
 2951 0295 24       		.byte	0x24
 2952 0296 24       		.byte	0x24
 2953 0297 9F       		.byte	0x9f
 2954 0298 00000000 		.4byte	0
 2955 029c 00000000 		.4byte	0
 2956              	.LLST22:
 2957 02a0 24000000 		.4byte	.LVL16
 2958 02a4 2E000000 		.4byte	.LVL19
 2959 02a8 0500     		.2byte	0x5
 2960 02aa 31       		.byte	0x31
 2961 02ab 77       		.byte	0x77
 2962 02ac 00       		.sleb128 0
 2963 02ad 24       		.byte	0x24
 2964 02ae 9F       		.byte	0x9f
ARM GAS  /var/folders/m4/4md61f0s1_g0rzfghffqnxvr0000gn/T//ccl2e1ol.s 			page 53


 2965 02af 84000000 		.4byte	.LVL27
 2966 02b3 A6000000 		.4byte	.LVL33
 2967 02b7 0500     		.2byte	0x5
 2968 02b9 31       		.byte	0x31
 2969 02ba 77       		.byte	0x77
 2970 02bb 00       		.sleb128 0
 2971 02bc 24       		.byte	0x24
 2972 02bd 9F       		.byte	0x9f
 2973 02be AA000000 		.4byte	.LVL34
 2974 02c2 D0000000 		.4byte	.LFE270
 2975 02c6 0500     		.2byte	0x5
 2976 02c8 31       		.byte	0x31
 2977 02c9 77       		.byte	0x77
 2978 02ca 00       		.sleb128 0
 2979 02cb 24       		.byte	0x24
 2980 02cc 9F       		.byte	0x9f
 2981 02cd 00000000 		.4byte	0
 2982 02d1 00000000 		.4byte	0
 2983              	.LLST23:
 2984 02d5 24000000 		.4byte	.LVL16
 2985 02d9 2E000000 		.4byte	.LVL19
 2986 02dd 0700     		.2byte	0x7
 2987 02df 33       		.byte	0x33
 2988 02e0 77       		.byte	0x77
 2989 02e1 00       		.sleb128 0
 2990 02e2 31       		.byte	0x31
 2991 02e3 24       		.byte	0x24
 2992 02e4 24       		.byte	0x24
 2993 02e5 9F       		.byte	0x9f
 2994 02e6 84000000 		.4byte	.LVL27
 2995 02ea 8E000000 		.4byte	.LVL29
 2996 02ee 0400     		.2byte	0x4
 2997 02f0 74       		.byte	0x74
 2998 02f1 00       		.sleb128 0
 2999 02f2 20       		.byte	0x20
 3000 02f3 9F       		.byte	0x9f
 3001 02f4 8E000000 		.4byte	.LVL29
 3002 02f8 A6000000 		.4byte	.LVL33
 3003 02fc 0700     		.2byte	0x7
 3004 02fe 33       		.byte	0x33
 3005 02ff 77       		.byte	0x77
 3006 0300 00       		.sleb128 0
 3007 0301 31       		.byte	0x31
 3008 0302 24       		.byte	0x24
 3009 0303 24       		.byte	0x24
 3010 0304 9F       		.byte	0x9f
 3011 0305 AA000000 		.4byte	.LVL34
 3012 0309 BC000000 		.4byte	.LVL37
 3013 030d 0400     		.2byte	0x4
 3014 030f 74       		.byte	0x74
 3015 0310 00       		.sleb128 0
 3016 0311 20       		.byte	0x20
 3017 0312 9F       		.byte	0x9f
 3018 0313 BC000000 		.4byte	.LVL37
 3019 0317 D0000000 		.4byte	.LFE270
 3020 031b 0700     		.2byte	0x7
 3021 031d 33       		.byte	0x33
ARM GAS  /var/folders/m4/4md61f0s1_g0rzfghffqnxvr0000gn/T//ccl2e1ol.s 			page 54


 3022 031e 77       		.byte	0x77
 3023 031f 00       		.sleb128 0
 3024 0320 31       		.byte	0x31
 3025 0321 24       		.byte	0x24
 3026 0322 24       		.byte	0x24
 3027 0323 9F       		.byte	0x9f
 3028 0324 00000000 		.4byte	0
 3029 0328 00000000 		.4byte	0
 3030              	.LLST24:
 3031 032c 24000000 		.4byte	.LVL16
 3032 0330 2A000000 		.4byte	.LVL17
 3033 0334 0100     		.2byte	0x1
 3034 0336 53       		.byte	0x53
 3035 0337 2A000000 		.4byte	.LVL17
 3036 033b 2E000000 		.4byte	.LVL19
 3037 033f 0A00     		.2byte	0xa
 3038 0341 7B       		.byte	0x7b
 3039 0342 00       		.sleb128 0
 3040 0343 77       		.byte	0x77
 3041 0344 00       		.sleb128 0
 3042 0345 37       		.byte	0x37
 3043 0346 1A       		.byte	0x1a
 3044 0347 32       		.byte	0x32
 3045 0348 24       		.byte	0x24
 3046 0349 24       		.byte	0x24
 3047 034a 9F       		.byte	0x9f
 3048 034b 88000000 		.4byte	.LVL28
 3049 034f 9E000000 		.4byte	.LVL30
 3050 0353 0100     		.2byte	0x1
 3051 0355 53       		.byte	0x53
 3052 0356 9E000000 		.4byte	.LVL30
 3053 035a A6000000 		.4byte	.LVL33
 3054 035e 0A00     		.2byte	0xa
 3055 0360 7B       		.byte	0x7b
 3056 0361 00       		.sleb128 0
 3057 0362 77       		.byte	0x77
 3058 0363 00       		.sleb128 0
 3059 0364 37       		.byte	0x37
 3060 0365 1A       		.byte	0x1a
 3061 0366 32       		.byte	0x32
 3062 0367 24       		.byte	0x24
 3063 0368 24       		.byte	0x24
 3064 0369 9F       		.byte	0x9f
 3065 036a AA000000 		.4byte	.LVL34
 3066 036e B4000000 		.4byte	.LVL35
 3067 0372 0100     		.2byte	0x1
 3068 0374 53       		.byte	0x53
 3069 0375 B4000000 		.4byte	.LVL35
 3070 0379 C4000000 		.4byte	.LVL38
 3071 037d 0A00     		.2byte	0xa
 3072 037f 7B       		.byte	0x7b
 3073 0380 00       		.sleb128 0
 3074 0381 77       		.byte	0x77
 3075 0382 00       		.sleb128 0
 3076 0383 37       		.byte	0x37
 3077 0384 1A       		.byte	0x1a
 3078 0385 32       		.byte	0x32
ARM GAS  /var/folders/m4/4md61f0s1_g0rzfghffqnxvr0000gn/T//ccl2e1ol.s 			page 55


 3079 0386 24       		.byte	0x24
 3080 0387 24       		.byte	0x24
 3081 0388 9F       		.byte	0x9f
 3082 0389 C4000000 		.4byte	.LVL38
 3083 038d CA000000 		.4byte	.LVL39
 3084 0391 0100     		.2byte	0x1
 3085 0393 53       		.byte	0x53
 3086 0394 CA000000 		.4byte	.LVL39
 3087 0398 D0000000 		.4byte	.LFE270
 3088 039c 0A00     		.2byte	0xa
 3089 039e 7B       		.byte	0x7b
 3090 039f 00       		.sleb128 0
 3091 03a0 77       		.byte	0x77
 3092 03a1 00       		.sleb128 0
 3093 03a2 37       		.byte	0x37
 3094 03a3 1A       		.byte	0x1a
 3095 03a4 32       		.byte	0x32
 3096 03a5 24       		.byte	0x24
 3097 03a6 24       		.byte	0x24
 3098 03a7 9F       		.byte	0x9f
 3099 03a8 00000000 		.4byte	0
 3100 03ac 00000000 		.4byte	0
 3101              		.section	.debug_aranges,"",%progbits
 3102 0000 24000000 		.4byte	0x24
 3103 0004 0200     		.2byte	0x2
 3104 0006 00000000 		.4byte	.Ldebug_info0
 3105 000a 04       		.byte	0x4
 3106 000b 00       		.byte	0
 3107 000c 0000     		.2byte	0
 3108 000e 0000     		.2byte	0
 3109 0010 00000000 		.4byte	.LFB269
 3110 0014 AC010000 		.4byte	.LFE269-.LFB269
 3111 0018 00000000 		.4byte	.LFB270
 3112 001c D0000000 		.4byte	.LFE270-.LFB270
 3113 0020 00000000 		.4byte	0
 3114 0024 00000000 		.4byte	0
 3115              		.section	.debug_ranges,"",%progbits
 3116              	.Ldebug_ranges0:
 3117 0000 04000000 		.4byte	.LBB20
 3118 0004 06000000 		.4byte	.LBE20
 3119 0008 1C000000 		.4byte	.LBB32
 3120 000c 38000000 		.4byte	.LBE32
 3121 0010 00000000 		.4byte	0
 3122 0014 00000000 		.4byte	0
 3123 0018 08000000 		.4byte	.LBB23
 3124 001c 0A000000 		.4byte	.LBE23
 3125 0020 38000000 		.4byte	.LBB33
 3126 0024 54000000 		.4byte	.LBE33
 3127 0028 00000000 		.4byte	0
 3128 002c 00000000 		.4byte	0
 3129 0030 0A000000 		.4byte	.LBB26
 3130 0034 0C000000 		.4byte	.LBE26
 3131 0038 54000000 		.4byte	.LBB34
 3132 003c 70000000 		.4byte	.LBE34
 3133 0040 00000000 		.4byte	0
 3134 0044 00000000 		.4byte	0
 3135 0048 0C000000 		.4byte	.LBB29
ARM GAS  /var/folders/m4/4md61f0s1_g0rzfghffqnxvr0000gn/T//ccl2e1ol.s 			page 56


 3136 004c 0E000000 		.4byte	.LBE29
 3137 0050 70000000 		.4byte	.LBB35
 3138 0054 8C000000 		.4byte	.LBE35
 3139 0058 00000000 		.4byte	0
 3140 005c 00000000 		.4byte	0
 3141 0060 1A000000 		.4byte	.LBB46
 3142 0064 2E000000 		.4byte	.LBE46
 3143 0068 48000000 		.4byte	.LBB47
 3144 006c A0000000 		.4byte	.LBE47
 3145 0070 A2000000 		.4byte	.LBB48
 3146 0074 A4000000 		.4byte	.LBE48
 3147 0078 AA000000 		.4byte	.LBB49
 3148 007c D0000000 		.4byte	.LBE49
 3149 0080 00000000 		.4byte	0
 3150 0084 00000000 		.4byte	0
 3151 0088 00000000 		.4byte	.LFB269
 3152 008c AC010000 		.4byte	.LFE269
 3153 0090 00000000 		.4byte	.LFB270
 3154 0094 D0000000 		.4byte	.LFE270
 3155 0098 00000000 		.4byte	0
 3156 009c 00000000 		.4byte	0
 3157              		.section	.debug_line,"",%progbits
 3158              	.Ldebug_line0:
 3159 0000 71030000 		.section	.debug_str,"MS",%progbits,1
 3159      0200AF02 
 3159      00000201 
 3159      FB0E0D00 
 3159      01010101 
 3160              	.LASF151:
 3161 0000 73746D33 		.ascii	"stm32_gpio_setup_t\000"
 3161      325F6770 
 3161      696F5F73 
 3161      65747570 
 3161      5F7400
 3162              	.LASF55:
 3163 0013 72656164 		.ascii	"ready_list_t\000"
 3163      795F6C69 
 3163      73745F74 
 3163      00
 3164              	.LASF121:
 3165 0020 77747472 		.ascii	"wttrp\000"
 3165      7000
 3166              	.LASF118:
 3167 0026 7264796D 		.ascii	"rdymsg\000"
 3167      736700
 3168              	.LASF18:
 3169 002d 75696E74 		.ascii	"uint64_t\000"
 3169      36345F74 
 3169      00
 3170              	.LASF4:
 3171 0036 5F5F7569 		.ascii	"__uint8_t\000"
 3171      6E74385F 
 3171      7400
 3172              	.LASF137:
 3173 0040 4F545950 		.ascii	"OTYPER\000"
 3173      455200
 3174              	.LASF115:
ARM GAS  /var/folders/m4/4md61f0s1_g0rzfghffqnxvr0000gn/T//ccl2e1ol.s 			page 57


 3175 0047 706F7274 		.ascii	"port_intctx\000"
 3175      5F696E74 
 3175      63747800 
 3176              	.LASF74:
 3177 0053 73797374 		.ascii	"system_debug_t\000"
 3177      656D5F64 
 3177      65627567 
 3177      5F7400
 3178              	.LASF162:
 3179 0062 696F706F 		.ascii	"ioportmask_t\000"
 3179      72746D61 
 3179      736B5F74 
 3179      00
 3180              	.LASF159:
 3181 006f 50484461 		.ascii	"PHData\000"
 3181      746100
 3182              	.LASF136:
 3183 0076 4D4F4445 		.ascii	"MODER\000"
 3183      5200
 3184              	.LASF13:
 3185 007c 6C6F6E67 		.ascii	"long long unsigned int\000"
 3185      206C6F6E 
 3185      6720756E 
 3185      7369676E 
 3185      65642069 
 3186              	.LASF139:
 3187 0093 50555044 		.ascii	"PUPDR\000"
 3187      5200
 3188              	.LASF119:
 3189 0099 65786974 		.ascii	"exitcode\000"
 3189      636F6465 
 3189      00
 3190              	.LASF81:
 3191 00a2 6D61696E 		.ascii	"mainthread\000"
 3191      74687265 
 3191      616400
 3192              	.LASF71:
 3193 00ad 76697274 		.ascii	"virtual_timers_list_t\000"
 3193      75616C5F 
 3193      74696D65 
 3193      72735F6C 
 3193      6973745F 
 3194              	.LASF174:
 3195 00c3 49544D5F 		.ascii	"ITM_RxBuffer\000"
 3195      52784275 
 3195      66666572 
 3195      00
 3196              	.LASF54:
 3197 00d0 63685F74 		.ascii	"ch_threads_queue\000"
 3197      68726561 
 3197      64735F71 
 3197      75657565 
 3197      00
 3198              	.LASF100:
 3199 00e1 41484231 		.ascii	"AHB1LPENR\000"
 3199      4C50454E 
 3199      5200
ARM GAS  /var/folders/m4/4md61f0s1_g0rzfghffqnxvr0000gn/T//ccl2e1ol.s 			page 58


 3200              	.LASF32:
 3201 00eb 705F7072 		.ascii	"p_prio\000"
 3201      696F00
 3202              	.LASF73:
 3203 00f2 76745F73 		.ascii	"vt_systime\000"
 3203      79737469 
 3203      6D6500
 3204              	.LASF11:
 3205 00fd 6C6F6E67 		.ascii	"long long int\000"
 3205      206C6F6E 
 3205      6720696E 
 3205      7400
 3206              	.LASF1:
 3207 010b 7369676E 		.ascii	"signed char\000"
 3207      65642063 
 3207      68617200 
 3208              	.LASF140:
 3209 0117 42535252 		.ascii	"BSRR\000"
 3209      00
 3210              	.LASF86:
 3211 011c 41484231 		.ascii	"AHB1RSTR\000"
 3211      52535452 
 3211      00
 3212              	.LASF48:
 3213 0125 705F6D70 		.ascii	"p_mpool\000"
 3213      6F6F6C00 
 3214              	.LASF129:
 3215 012d 6D5F7175 		.ascii	"m_queue\000"
 3215      65756500 
 3216              	.LASF145:
 3217 0135 6D6F6465 		.ascii	"moder\000"
 3217      7200
 3218              	.LASF23:
 3219 013b 74736C69 		.ascii	"tslices_t\000"
 3219      6365735F 
 3219      7400
 3220              	.LASF111:
 3221 0145 5243435F 		.ascii	"RCC_TypeDef\000"
 3221      54797065 
 3221      44656600 
 3222              	.LASF78:
 3223 0151 63685F73 		.ascii	"ch_system\000"
 3223      79737465 
 3223      6D00
 3224              	.LASF8:
 3225 015b 6C6F6E67 		.ascii	"long int\000"
 3225      20696E74 
 3225      00
 3226              	.LASF156:
 3227 0164 50454461 		.ascii	"PEData\000"
 3227      746100
 3228              	.LASF91:
 3229 016b 41504232 		.ascii	"APB2RSTR\000"
 3229      52535452 
 3229      00
 3230              	.LASF104:
 3231 0174 41504231 		.ascii	"APB1LPENR\000"
ARM GAS  /var/folders/m4/4md61f0s1_g0rzfghffqnxvr0000gn/T//ccl2e1ol.s 			page 59


 3231      4C50454E 
 3231      5200
 3232              	.LASF21:
 3233 017e 74737461 		.ascii	"tstate_t\000"
 3233      74655F74 
 3233      00
 3234              	.LASF173:
 3235 0187 616C7472 		.ascii	"altrmask\000"
 3235      6D61736B 
 3235      00
 3236              	.LASF34:
 3237 0190 705F6E65 		.ascii	"p_newer\000"
 3237      77657200 
 3238              	.LASF84:
 3239 0198 504C4C43 		.ascii	"PLLCFGR\000"
 3239      46475200 
 3240              	.LASF138:
 3241 01a0 4F535045 		.ascii	"OSPEEDR\000"
 3241      45445200 
 3242              	.LASF60:
 3243 01a8 725F6E65 		.ascii	"r_newer\000"
 3243      77657200 
 3244              	.LASF170:
 3245 01b0 6D61736B 		.ascii	"mask\000"
 3245      00
 3246              	.LASF112:
 3247 01b5 72656761 		.ascii	"regarm_t\000"
 3247      726D5F74 
 3247      00
 3248              	.LASF67:
 3249 01be 76745F70 		.ascii	"vt_prev\000"
 3249      72657600 
 3250              	.LASF80:
 3251 01c6 76746C69 		.ascii	"vtlist\000"
 3251      737400
 3252              	.LASF144:
 3253 01cd 73746D33 		.ascii	"stm32_gpio_t\000"
 3253      325F6770 
 3253      696F5F74 
 3253      00
 3254              	.LASF169:
 3255 01da 706F7274 		.ascii	"port\000"
 3255      00
 3256              	.LASF133:
 3257 01df 6D757465 		.ascii	"mutex_t\000"
 3257      785F7400 
 3258              	.LASF153:
 3259 01e7 50424461 		.ascii	"PBData\000"
 3259      746100
 3260              	.LASF82:
 3261 01ee 69646C65 		.ascii	"idle_thread_wa\000"
 3261      5F746872 
 3261      6561645F 
 3261      776100
 3262              	.LASF27:
 3263 01fd 636E745F 		.ascii	"cnt_t\000"
 3263      7400
ARM GAS  /var/folders/m4/4md61f0s1_g0rzfghffqnxvr0000gn/T//ccl2e1ol.s 			page 60


 3264              	.LASF0:
 3265 0203 756E7369 		.ascii	"unsigned int\000"
 3265      676E6564 
 3265      20696E74 
 3265      00
 3266              	.LASF66:
 3267 0210 76745F6E 		.ascii	"vt_next\000"
 3267      65787400 
 3268              	.LASF15:
 3269 0218 75696E74 		.ascii	"uint16_t\000"
 3269      31365F74 
 3269      00
 3270              	.LASF41:
 3271 0221 705F7469 		.ascii	"p_time\000"
 3271      6D6500
 3272              	.LASF122:
 3273 0228 77747365 		.ascii	"wtsemp\000"
 3273      6D7000
 3274              	.LASF68:
 3275 022f 76745F64 		.ascii	"vt_delta\000"
 3275      656C7461 
 3275      00
 3276              	.LASF43:
 3277 0238 705F6D73 		.ascii	"p_msgqueue\000"
 3277      67717565 
 3277      756500
 3278              	.LASF147:
 3279 0243 6F737065 		.ascii	"ospeedr\000"
 3279      65647200 
 3280              	.LASF141:
 3281 024b 4C434B52 		.ascii	"LCKR\000"
 3281      00
 3282              	.LASF146:
 3283 0250 6F747970 		.ascii	"otyper\000"
 3283      657200
 3284              	.LASF6:
 3285 0257 73686F72 		.ascii	"short unsigned int\000"
 3285      7420756E 
 3285      7369676E 
 3285      65642069 
 3285      6E7400
 3286              	.LASF157:
 3287 026a 50464461 		.ascii	"PFData\000"
 3287      746100
 3288              	.LASF51:
 3289 0271 63685F74 		.ascii	"ch_thread\000"
 3289      68726561 
 3289      6400
 3290              	.LASF110:
 3291 027b 504C4C49 		.ascii	"PLLI2SCFGR\000"
 3291      32534346 
 3291      475200
 3292              	.LASF25:
 3293 0286 6D73675F 		.ascii	"msg_t\000"
 3293      7400
 3294              	.LASF88:
 3295 028c 41484233 		.ascii	"AHB3RSTR\000"
ARM GAS  /var/folders/m4/4md61f0s1_g0rzfghffqnxvr0000gn/T//ccl2e1ol.s 			page 61


 3295      52535452 
 3295      00
 3296              	.LASF177:
 3297 0295 2F557365 		.ascii	"/Users/raphael/Documents/Projects/rESC/resc-firmwar"
 3297      72732F72 
 3297      61706861 
 3297      656C2F44 
 3297      6F63756D 
 3298 02c8 6500     		.ascii	"e\000"
 3299              	.LASF77:
 3300 02ca 63685F73 		.ascii	"ch_system_t\000"
 3300      79737465 
 3300      6D5F7400 
 3301              	.LASF20:
 3302 02d6 746D6F64 		.ascii	"tmode_t\000"
 3302      655F7400 
 3303              	.LASF105:
 3304 02de 41504232 		.ascii	"APB2LPENR\000"
 3304      4C50454E 
 3304      5200
 3305              	.LASF56:
 3306 02e8 63685F72 		.ascii	"ch_ready_list\000"
 3306      65616479 
 3306      5F6C6973 
 3306      7400
 3307              	.LASF26:
 3308 02f6 6576656E 		.ascii	"eventmask_t\000"
 3308      746D6173 
 3308      6B5F7400 
 3309              	.LASF7:
 3310 0302 5F5F696E 		.ascii	"__int32_t\000"
 3310      7433325F 
 3310      7400
 3311              	.LASF158:
 3312 030c 50474461 		.ascii	"PGData\000"
 3312      746100
 3313              	.LASF113:
 3314 0313 73746B61 		.ascii	"stkalign_t\000"
 3314      6C69676E 
 3314      5F7400
 3315              	.LASF50:
 3316 031e 74687265 		.ascii	"threads_list_t\000"
 3316      6164735F 
 3316      6C697374 
 3316      5F7400
 3317              	.LASF64:
 3318 032d 76697274 		.ascii	"virtual_timer_t\000"
 3318      75616C5F 
 3318      74696D65 
 3318      725F7400 
 3319              	.LASF42:
 3320 033d 705F7761 		.ascii	"p_waiting\000"
 3320      6974696E 
 3320      6700
 3321              	.LASF83:
 3322 0347 73697A65 		.ascii	"sizetype\000"
 3322      74797065 
ARM GAS  /var/folders/m4/4md61f0s1_g0rzfghffqnxvr0000gn/T//ccl2e1ol.s 			page 62


 3322      00
 3323              	.LASF49:
 3324 0350 74687265 		.ascii	"thread_reference_t\000"
 3324      61645F72 
 3324      65666572 
 3324      656E6365 
 3324      5F7400
 3325              	.LASF72:
 3326 0363 63685F76 		.ascii	"ch_virtual_timers_list\000"
 3326      69727475 
 3326      616C5F74 
 3326      696D6572 
 3326      735F6C69 
 3327              	.LASF135:
 3328 037a 636C6561 		.ascii	"clear\000"
 3328      7200
 3329              	.LASF30:
 3330 0380 705F6E65 		.ascii	"p_next\000"
 3330      787400
 3331              	.LASF95:
 3332 0387 41484233 		.ascii	"AHB3ENR\000"
 3332      454E5200 
 3333              	.LASF35:
 3334 038f 705F6F6C 		.ascii	"p_older\000"
 3334      64657200 
 3335              	.LASF59:
 3336 0397 725F6374 		.ascii	"r_ctx\000"
 3336      7800
 3337              	.LASF101:
 3338 039d 41484232 		.ascii	"AHB2LPENR\000"
 3338      4C50454E 
 3338      5200
 3339              	.LASF117:
 3340 03a7 746D5F63 		.ascii	"tm_calibration_t\000"
 3340      616C6962 
 3340      72617469 
 3340      6F6E5F74 
 3340      00
 3341              	.LASF150:
 3342 03b8 61667268 		.ascii	"afrh\000"
 3342      00
 3343              	.LASF155:
 3344 03bd 50444461 		.ascii	"PDData\000"
 3344      746100
 3345              	.LASF62:
 3346 03c4 725F6375 		.ascii	"r_current\000"
 3346      7272656E 
 3346      7400
 3347              	.LASF90:
 3348 03ce 41504231 		.ascii	"APB1RSTR\000"
 3348      52535452 
 3348      00
 3349              	.LASF12:
 3350 03d7 5F5F7569 		.ascii	"__uint64_t\000"
 3350      6E743634 
 3350      5F7400
 3351              	.LASF143:
ARM GAS  /var/folders/m4/4md61f0s1_g0rzfghffqnxvr0000gn/T//ccl2e1ol.s 			page 63


 3352 03e2 41465248 		.ascii	"AFRH\000"
 3352      00
 3353              	.LASF142:
 3354 03e7 4146524C 		.ascii	"AFRL\000"
 3354      00
 3355              	.LASF22:
 3356 03ec 74726566 		.ascii	"trefs_t\000"
 3356      735F7400 
 3357              	.LASF89:
 3358 03f4 52455345 		.ascii	"RESERVED0\000"
 3358      52564544 
 3358      3000
 3359              	.LASF92:
 3360 03fe 52455345 		.ascii	"RESERVED1\000"
 3360      52564544 
 3360      3100
 3361              	.LASF96:
 3362 0408 52455345 		.ascii	"RESERVED2\000"
 3362      52564544 
 3362      3200
 3363              	.LASF99:
 3364 0412 52455345 		.ascii	"RESERVED3\000"
 3364      52564544 
 3364      3300
 3365              	.LASF103:
 3366 041c 52455345 		.ascii	"RESERVED4\000"
 3366      52564544 
 3366      3400
 3367              	.LASF31:
 3368 0426 705F7072 		.ascii	"p_prev\000"
 3368      657600
 3369              	.LASF108:
 3370 042d 52455345 		.ascii	"RESERVED6\000"
 3370      52564544 
 3370      3600
 3371              	.LASF24:
 3372 0437 74707269 		.ascii	"tprio_t\000"
 3372      6F5F7400 
 3373              	.LASF75:
 3374 043f 63685F73 		.ascii	"ch_system_debug\000"
 3374      79737465 
 3374      6D5F6465 
 3374      62756700 
 3375              	.LASF134:
 3376 044f 5F426F6F 		.ascii	"_Bool\000"
 3376      6C00
 3377              	.LASF16:
 3378 0455 696E7433 		.ascii	"int32_t\000"
 3378      325F7400 
 3379              	.LASF2:
 3380 045d 756E7369 		.ascii	"unsigned char\000"
 3380      676E6564 
 3380      20636861 
 3380      7200
 3381              	.LASF176:
 3382 046b 43686962 		.ascii	"ChibiOS_16.1.4/os/hal/ports/STM32/LLD/GPIOv2/pal_ll"
 3382      694F535F 
ARM GAS  /var/folders/m4/4md61f0s1_g0rzfghffqnxvr0000gn/T//ccl2e1ol.s 			page 64


 3382      31362E31 
 3382      2E342F6F 
 3382      732F6861 
 3383 049e 642E6300 		.ascii	"d.c\000"
 3384              	.LASF149:
 3385 04a2 6166726C 		.ascii	"afrl\000"
 3385      00
 3386              	.LASF127:
 3387 04a7 735F636E 		.ascii	"s_cnt\000"
 3387      7400
 3388              	.LASF46:
 3389 04ad 705F6D74 		.ascii	"p_mtxlist\000"
 3389      786C6973 
 3389      7400
 3390              	.LASF3:
 3391 04b7 73686F72 		.ascii	"short int\000"
 3391      7420696E 
 3391      7400
 3392              	.LASF37:
 3393 04c1 705F7374 		.ascii	"p_state\000"
 3393      61746500 
 3394              	.LASF40:
 3395 04c9 705F7072 		.ascii	"p_preempt\000"
 3395      65656D70 
 3395      7400
 3396              	.LASF102:
 3397 04d3 41484233 		.ascii	"AHB3LPENR\000"
 3397      4C50454E 
 3397      5200
 3398              	.LASF58:
 3399 04dd 725F7072 		.ascii	"r_prio\000"
 3399      696F00
 3400              	.LASF152:
 3401 04e4 50414461 		.ascii	"PAData\000"
 3401      746100
 3402              	.LASF124:
 3403 04eb 65776D61 		.ascii	"ewmask\000"
 3403      736B00
 3404              	.LASF38:
 3405 04f2 705F666C 		.ascii	"p_flags\000"
 3405      61677300 
 3406              	.LASF165:
 3407 04fa 6770696F 		.ascii	"gpiop\000"
 3407      7000
 3408              	.LASF98:
 3409 0500 41504232 		.ascii	"APB2ENR\000"
 3409      454E5200 
 3410              	.LASF160:
 3411 0508 50494461 		.ascii	"PIData\000"
 3411      746100
 3412              	.LASF65:
 3413 050f 63685F76 		.ascii	"ch_virtual_timer\000"
 3413      69727475 
 3413      616C5F74 
 3413      696D6572 
 3413      00
 3414              	.LASF125:
ARM GAS  /var/folders/m4/4md61f0s1_g0rzfghffqnxvr0000gn/T//ccl2e1ol.s 			page 65


 3415 0520 63685F73 		.ascii	"ch_semaphore\000"
 3415      656D6170 
 3415      686F7265 
 3415      00
 3416              	.LASF45:
 3417 052d 705F6570 		.ascii	"p_epending\000"
 3417      656E6469 
 3417      6E6700
 3418              	.LASF106:
 3419 0538 52455345 		.ascii	"RESERVED5\000"
 3419      52564544 
 3419      3500
 3420              	.LASF17:
 3421 0542 75696E74 		.ascii	"uint32_t\000"
 3421      33325F74 
 3421      00
 3422              	.LASF123:
 3423 054b 77746D74 		.ascii	"wtmtxp\000"
 3423      787000
 3424              	.LASF57:
 3425 0552 725F7175 		.ascii	"r_queue\000"
 3425      65756500 
 3426              	.LASF52:
 3427 055a 63685F74 		.ascii	"ch_threads_list\000"
 3427      68726561 
 3427      64735F6C 
 3427      69737400 
 3428              	.LASF10:
 3429 056a 6C6F6E67 		.ascii	"long unsigned int\000"
 3429      20756E73 
 3429      69676E65 
 3429      6420696E 
 3429      7400
 3430              	.LASF172:
 3431 057c 616C7472 		.ascii	"altr\000"
 3431      00
 3432              	.LASF132:
 3433 0581 63686172 		.ascii	"char\000"
 3433      00
 3434              	.LASF175:
 3435 0586 474E5520 		.ascii	"GNU C99 5.2.1 20151202 (release) [ARM/embedded-5-br"
 3435      43393920 
 3435      352E322E 
 3435      31203230 
 3435      31353132 
 3436 05b9 616E6368 		.ascii	"anch revision 231848] -mcpu=cortex-m4 -mfloat-abi=h"
 3436      20726576 
 3436      6973696F 
 3436      6E203233 
 3436      31383438 
 3437 05ec 61726420 		.ascii	"ard -mfpu=fpv4-sp-d16 -mno-thumb-interwork -mthumb "
 3437      2D6D6670 
 3437      753D6670 
 3437      76342D73 
 3437      702D6431 
 3438 061f 2D676764 		.ascii	"-ggdb -O2 -std=c99 -fomit-frame-pointer -falign-fun"
 3438      62202D4F 
ARM GAS  /var/folders/m4/4md61f0s1_g0rzfghffqnxvr0000gn/T//ccl2e1ol.s 			page 66


 3438      32202D73 
 3438      74643D63 
 3438      3939202D 
 3439 0652 6374696F 		.ascii	"ctions=16 -ffunction-sections -fdata-sections -fno-"
 3439      6E733D31 
 3439      36202D66 
 3439      66756E63 
 3439      74696F6E 
 3440 0685 636F6D6D 		.ascii	"common\000"
 3440      6F6E00
 3441              	.LASF166:
 3442 068c 636F6E66 		.ascii	"config\000"
 3442      696700
 3443              	.LASF5:
 3444 0693 5F5F7569 		.ascii	"__uint16_t\000"
 3444      6E743136 
 3444      5F7400
 3445              	.LASF87:
 3446 069e 41484232 		.ascii	"AHB2RSTR\000"
 3446      52535452 
 3446      00
 3447              	.LASF29:
 3448 06a7 74687265 		.ascii	"thread_t\000"
 3448      61645F74 
 3448      00
 3449              	.LASF131:
 3450 06b0 6D5F6E65 		.ascii	"m_next\000"
 3450      787400
 3451              	.LASF28:
 3452 06b7 73797374 		.ascii	"systime_t\000"
 3452      696D655F 
 3452      7400
 3453              	.LASF47:
 3454 06c1 705F7265 		.ascii	"p_realprio\000"
 3454      616C7072 
 3454      696F00
 3455              	.LASF63:
 3456 06cc 76746675 		.ascii	"vtfunc_t\000"
 3456      6E635F74 
 3456      00
 3457              	.LASF9:
 3458 06d5 5F5F7569 		.ascii	"__uint32_t\000"
 3458      6E743332 
 3458      5F7400
 3459              	.LASF178:
 3460 06e0 696E6974 		.ascii	"initgpio\000"
 3460      6770696F 
 3460      00
 3461              	.LASF76:
 3462 06e9 70616E69 		.ascii	"panic_msg\000"
 3462      635F6D73 
 3462      6700
 3463              	.LASF116:
 3464 06f3 6F666673 		.ascii	"offset\000"
 3464      657400
 3465              	.LASF97:
 3466 06fa 41504231 		.ascii	"APB1ENR\000"
ARM GAS  /var/folders/m4/4md61f0s1_g0rzfghffqnxvr0000gn/T//ccl2e1ol.s 			page 67


 3466      454E5200 
 3467              	.LASF164:
 3468 0702 696F706F 		.ascii	"ioportid_t\000"
 3468      72746964 
 3468      5F7400
 3469              	.LASF94:
 3470 070d 41484232 		.ascii	"AHB2ENR\000"
 3470      454E5200 
 3471              	.LASF114:
 3472 0715 636F6E74 		.ascii	"context\000"
 3472      65787400 
 3473              	.LASF61:
 3474 071d 725F6F6C 		.ascii	"r_older\000"
 3474      64657200 
 3475              	.LASF168:
 3476 0725 5F70616C 		.ascii	"_pal_lld_setgroupmode\000"
 3476      5F6C6C64 
 3476      5F736574 
 3476      67726F75 
 3476      706D6F64 
 3477              	.LASF19:
 3478 073b 7274636E 		.ascii	"rtcnt_t\000"
 3478      745F7400 
 3479              	.LASF70:
 3480 0743 76745F70 		.ascii	"vt_par\000"
 3480      617200
 3481              	.LASF109:
 3482 074a 53534347 		.ascii	"SSCGR\000"
 3482      5200
 3483              	.LASF53:
 3484 0750 74687265 		.ascii	"threads_queue_t\000"
 3484      6164735F 
 3484      71756575 
 3484      655F7400 
 3485              	.LASF128:
 3486 0760 63685F6D 		.ascii	"ch_mutex\000"
 3486      75746578 
 3486      00
 3487              	.LASF39:
 3488 0769 705F7265 		.ascii	"p_refs\000"
 3488      667300
 3489              	.LASF171:
 3490 0770 6D6F6465 		.ascii	"mode\000"
 3490      00
 3491              	.LASF167:
 3492 0775 5F70616C 		.ascii	"_pal_lld_init\000"
 3492      5F6C6C64 
 3492      5F696E69 
 3492      7400
 3493              	.LASF107:
 3494 0783 42444352 		.ascii	"BDCR\000"
 3494      00
 3495              	.LASF79:
 3496 0788 726C6973 		.ascii	"rlist\000"
 3496      7400
 3497              	.LASF14:
 3498 078e 75696E74 		.ascii	"uint8_t\000"
ARM GAS  /var/folders/m4/4md61f0s1_g0rzfghffqnxvr0000gn/T//ccl2e1ol.s 			page 68


 3498      385F7400 
 3499              	.LASF148:
 3500 0796 70757064 		.ascii	"pupdr\000"
 3500      7200
 3501              	.LASF120:
 3502 079c 77746F62 		.ascii	"wtobjp\000"
 3502      6A7000
 3503              	.LASF36:
 3504 07a3 705F6E61 		.ascii	"p_name\000"
 3504      6D6500
 3505              	.LASF93:
 3506 07aa 41484231 		.ascii	"AHB1ENR\000"
 3506      454E5200 
 3507              	.LASF154:
 3508 07b2 50434461 		.ascii	"PCData\000"
 3508      746100
 3509              	.LASF85:
 3510 07b9 43464752 		.ascii	"CFGR\000"
 3510      00
 3511              	.LASF126:
 3512 07be 735F7175 		.ascii	"s_queue\000"
 3512      65756500 
 3513              	.LASF44:
 3514 07c6 705F6D73 		.ascii	"p_msg\000"
 3514      6700
 3515              	.LASF163:
 3516 07cc 696F6D6F 		.ascii	"iomode_t\000"
 3516      64655F74 
 3516      00
 3517              	.LASF161:
 3518 07d5 50414C43 		.ascii	"PALConfig\000"
 3518      6F6E6669 
 3518      6700
 3519              	.LASF130:
 3520 07df 6D5F6F77 		.ascii	"m_owner\000"
 3520      6E657200 
 3521              	.LASF33:
 3522 07e7 705F6374 		.ascii	"p_ctx\000"
 3522      7800
 3523              	.LASF69:
 3524 07ed 76745F66 		.ascii	"vt_func\000"
 3524      756E6300 
 3525              		.ident	"GCC: (GNU Tools for ARM Embedded Processors) 5.2.1 20151202 (release) [ARM/embedded-5-bran
ARM GAS  /var/folders/m4/4md61f0s1_g0rzfghffqnxvr0000gn/T//ccl2e1ol.s 			page 69


DEFINED SYMBOLS
                            *ABS*:0000000000000000 pal_lld.c
/var/folders/m4/4md61f0s1_g0rzfghffqnxvr0000gn/T//ccl2e1ol.s:22     .text._pal_lld_init:0000000000000000 $t
/var/folders/m4/4md61f0s1_g0rzfghffqnxvr0000gn/T//ccl2e1ol.s:28     .text._pal_lld_init:0000000000000000 _pal_lld_init
/var/folders/m4/4md61f0s1_g0rzfghffqnxvr0000gn/T//ccl2e1ol.s:324    .text._pal_lld_init:0000000000000198 $d
/var/folders/m4/4md61f0s1_g0rzfghffqnxvr0000gn/T//ccl2e1ol.s:333    .text._pal_lld_setgroupmode:0000000000000000 $t
/var/folders/m4/4md61f0s1_g0rzfghffqnxvr0000gn/T//ccl2e1ol.s:339    .text._pal_lld_setgroupmode:0000000000000000 _pal_lld_setgroupmode
                     .debug_frame:0000000000000010 $d

NO UNDEFINED SYMBOLS
