ARM GAS  /var/folders/m4/4md61f0s1_g0rzfghffqnxvr0000gn/T//ccl2e1ol.s 			page 1


   1              		.syntax unified
   2              		.cpu cortex-m4
   3              		.eabi_attribute 27, 1
   4              		.eabi_attribute 28, 1
   5              		.fpu fpv4-sp-d16
   6              		.eabi_attribute 20, 1
   7              		.eabi_attribute 21, 1
   8              		.eabi_attribute 23, 3
   9              		.eabi_attribute 24, 1
  10              		.eabi_attribute 25, 1
  11              		.eabi_attribute 26, 1
  12              		.eabi_attribute 30, 2
  13              		.eabi_attribute 34, 1
  14              		.eabi_attribute 18, 4
  15              		.thumb
  16              		.syntax unified
  17              		.file	"pal_lld.c"
  18              		.text
  19              	.Ltext0:
  20              		.cfi_sections	.debug_frame
  21              		.section	.text._pal_lld_init,"ax",%progbits
  22              		.align	2
  23              		.p2align 4,,15
  24              		.global	_pal_lld_init
  25              		.thumb
  26              		.thumb_func
  27              		.type	_pal_lld_init, %function
  28              	_pal_lld_init:
  29              	.LFB269:
  30              		.file 1 "ChibiOS_16.1.4/os/hal/ports/STM32/LLD/GPIOv2/pal_lld.c"
  31              		.loc 1 88 0
  32              		.cfi_startproc
  33              		@ args = 0, pretend = 0, frame = 0
  34              		@ frame_needed = 0, uses_anonymous_args = 0
  35              		@ link register save eliminated.
  36              	.LVL0:
  37 0000 F0B4     		push	{r4, r5, r6, r7}
  38              		.cfi_def_cfa_offset 16
  39              		.cfi_offset 4, -16
  40              		.cfi_offset 5, -12
  41              		.cfi_offset 6, -8
  42              		.cfi_offset 7, -4
  43              		.loc 1 104 0
  44 0002 654D     		ldr	r5, .L3
  45              	.LBB20:
  46              	.LBB21:
  47              		.loc 1 63 0
  48 0004 654C     		ldr	r4, .L3+4
  49              	.LBE21:
  50              	.LBE20:
  51              		.loc 1 104 0
  52 0006 2F6B     		ldr	r7, [r5, #48]
  53              	.LBB23:
  54              	.LBB24:
  55              		.loc 1 63 0
  56 0008 6549     		ldr	r1, .L3+8
  57              	.LBE24:
ARM GAS  /var/folders/m4/4md61f0s1_g0rzfghffqnxvr0000gn/T//ccl2e1ol.s 			page 2


  58              	.LBE23:
  59              	.LBB26:
  60              	.LBB27:
  61 000a 664A     		ldr	r2, .L3+12
  62              	.LBE27:
  63              	.LBE26:
  64              	.LBB29:
  65              	.LBB30:
  66 000c 664B     		ldr	r3, .L3+16
  67              	.LBE30:
  68              	.LBE29:
  69              		.loc 1 104 0
  70 000e 40F2FF16 		movw	r6, #511
  71 0012 3743     		orrs	r7, r7, r6
  72 0014 2F63     		str	r7, [r5, #48]
  73              		.loc 1 105 0
  74 0016 2F6D     		ldr	r7, [r5, #80]
  75 0018 3E43     		orrs	r6, r6, r7
  76 001a 2E65     		str	r6, [r5, #80]
  77              	.LVL1:
  78              	.LBB32:
  79              	.LBB22:
  80              		.loc 1 63 0
  81 001c 4568     		ldr	r5, [r0, #4]
  82 001e 6560     		str	r5, [r4, #4]
  83              		.loc 1 64 0
  84 0020 8568     		ldr	r5, [r0, #8]
  85 0022 A560     		str	r5, [r4, #8]
  86              		.loc 1 65 0
  87 0024 C568     		ldr	r5, [r0, #12]
  88 0026 E560     		str	r5, [r4, #12]
  89              		.loc 1 66 0
  90 0028 0569     		ldr	r5, [r0, #16]
  91 002a 6561     		str	r5, [r4, #20]
  92              		.loc 1 67 0
  93 002c 4569     		ldr	r5, [r0, #20]
  94 002e 2562     		str	r5, [r4, #32]
  95              		.loc 1 68 0
  96 0030 8569     		ldr	r5, [r0, #24]
  97 0032 6562     		str	r5, [r4, #36]
  98              		.loc 1 69 0
  99 0034 0568     		ldr	r5, [r0]
 100 0036 2560     		str	r5, [r4]
 101              	.LVL2:
 102              	.LBE22:
 103              	.LBE32:
 104              	.LBB33:
 105              	.LBB25:
 106              		.loc 1 63 0
 107 0038 046A     		ldr	r4, [r0, #32]
 108 003a 4C60     		str	r4, [r1, #4]
 109              		.loc 1 64 0
 110 003c 446A     		ldr	r4, [r0, #36]
 111 003e 8C60     		str	r4, [r1, #8]
 112              		.loc 1 65 0
 113 0040 846A     		ldr	r4, [r0, #40]
 114 0042 CC60     		str	r4, [r1, #12]
ARM GAS  /var/folders/m4/4md61f0s1_g0rzfghffqnxvr0000gn/T//ccl2e1ol.s 			page 3


 115              		.loc 1 66 0
 116 0044 C46A     		ldr	r4, [r0, #44]
 117 0046 4C61     		str	r4, [r1, #20]
 118              		.loc 1 67 0
 119 0048 046B     		ldr	r4, [r0, #48]
 120 004a 0C62     		str	r4, [r1, #32]
 121              		.loc 1 68 0
 122 004c 446B     		ldr	r4, [r0, #52]
 123 004e 4C62     		str	r4, [r1, #36]
 124              		.loc 1 69 0
 125 0050 C469     		ldr	r4, [r0, #28]
 126 0052 0C60     		str	r4, [r1]
 127              	.LVL3:
 128              	.LBE25:
 129              	.LBE33:
 130              	.LBB34:
 131              	.LBB28:
 132              		.loc 1 63 0
 133 0054 C16B     		ldr	r1, [r0, #60]
 134 0056 5160     		str	r1, [r2, #4]
 135              		.loc 1 64 0
 136 0058 016C     		ldr	r1, [r0, #64]
 137 005a 9160     		str	r1, [r2, #8]
 138              		.loc 1 65 0
 139 005c 416C     		ldr	r1, [r0, #68]
 140 005e D160     		str	r1, [r2, #12]
 141              		.loc 1 66 0
 142 0060 816C     		ldr	r1, [r0, #72]
 143 0062 5161     		str	r1, [r2, #20]
 144              		.loc 1 67 0
 145 0064 C16C     		ldr	r1, [r0, #76]
 146 0066 1162     		str	r1, [r2, #32]
 147              		.loc 1 68 0
 148 0068 016D     		ldr	r1, [r0, #80]
 149 006a 5162     		str	r1, [r2, #36]
 150              		.loc 1 69 0
 151 006c 816B     		ldr	r1, [r0, #56]
 152 006e 1160     		str	r1, [r2]
 153              	.LVL4:
 154              	.LBE28:
 155              	.LBE34:
 156              	.LBB35:
 157              	.LBB31:
 158              		.loc 1 63 0
 159 0070 826D     		ldr	r2, [r0, #88]
 160 0072 5A60     		str	r2, [r3, #4]
 161              		.loc 1 64 0
 162 0074 C26D     		ldr	r2, [r0, #92]
 163 0076 9A60     		str	r2, [r3, #8]
 164              		.loc 1 65 0
 165 0078 026E     		ldr	r2, [r0, #96]
 166 007a DA60     		str	r2, [r3, #12]
 167              		.loc 1 66 0
 168 007c 426E     		ldr	r2, [r0, #100]
 169 007e 5A61     		str	r2, [r3, #20]
 170              		.loc 1 67 0
 171 0080 826E     		ldr	r2, [r0, #104]
ARM GAS  /var/folders/m4/4md61f0s1_g0rzfghffqnxvr0000gn/T//ccl2e1ol.s 			page 4


 172 0082 1A62     		str	r2, [r3, #32]
 173              		.loc 1 68 0
 174 0084 C26E     		ldr	r2, [r0, #108]
 175 0086 5A62     		str	r2, [r3, #36]
 176              		.loc 1 69 0
 177 0088 426D     		ldr	r2, [r0, #84]
 178 008a 1A60     		str	r2, [r3]
 179              	.LVL5:
 180              	.LBE31:
 181              	.LBE35:
 182              	.LBB36:
 183              	.LBB37:
 184              		.loc 1 63 0
 185 008c 426F     		ldr	r2, [r0, #116]
 186 008e C3F80424 		str	r2, [r3, #1028]
 187              		.loc 1 64 0
 188 0092 826F     		ldr	r2, [r0, #120]
 189 0094 C3F80824 		str	r2, [r3, #1032]
 190              		.loc 1 65 0
 191 0098 C26F     		ldr	r2, [r0, #124]
 192 009a C3F80C24 		str	r2, [r3, #1036]
 193              		.loc 1 66 0
 194 009e D0F88020 		ldr	r2, [r0, #128]
 195 00a2 C3F81424 		str	r2, [r3, #1044]
 196              		.loc 1 67 0
 197 00a6 D0F88420 		ldr	r2, [r0, #132]
 198 00aa C3F82024 		str	r2, [r3, #1056]
 199              		.loc 1 68 0
 200 00ae D0F88820 		ldr	r2, [r0, #136]
 201 00b2 C3F82424 		str	r2, [r3, #1060]
 202              		.loc 1 69 0
 203 00b6 026F     		ldr	r2, [r0, #112]
 204 00b8 C3F80024 		str	r2, [r3, #1024]
 205              	.LVL6:
 206              	.LBE37:
 207              	.LBE36:
 208              	.LBB38:
 209              	.LBB39:
 210              		.loc 1 63 0
 211 00bc D0F89020 		ldr	r2, [r0, #144]
 212 00c0 C3F80428 		str	r2, [r3, #2052]
 213              		.loc 1 64 0
 214 00c4 D0F89420 		ldr	r2, [r0, #148]
 215 00c8 C3F80828 		str	r2, [r3, #2056]
 216              		.loc 1 65 0
 217 00cc D0F89820 		ldr	r2, [r0, #152]
 218 00d0 C3F80C28 		str	r2, [r3, #2060]
 219              		.loc 1 66 0
 220 00d4 D0F89C20 		ldr	r2, [r0, #156]
 221 00d8 C3F81428 		str	r2, [r3, #2068]
 222              		.loc 1 67 0
 223 00dc D0F8A020 		ldr	r2, [r0, #160]
 224 00e0 C3F82028 		str	r2, [r3, #2080]
 225              		.loc 1 68 0
 226 00e4 D0F8A420 		ldr	r2, [r0, #164]
 227 00e8 C3F82428 		str	r2, [r3, #2084]
 228              		.loc 1 69 0
ARM GAS  /var/folders/m4/4md61f0s1_g0rzfghffqnxvr0000gn/T//ccl2e1ol.s 			page 5


 229 00ec D0F88C20 		ldr	r2, [r0, #140]
 230 00f0 C3F80028 		str	r2, [r3, #2048]
 231              	.LVL7:
 232              	.LBE39:
 233              	.LBE38:
 234              	.LBB40:
 235              	.LBB41:
 236              		.loc 1 63 0
 237 00f4 03F54063 		add	r3, r3, #3072
 238 00f8 D0F8AC20 		ldr	r2, [r0, #172]
 239 00fc 5A60     		str	r2, [r3, #4]
 240              		.loc 1 64 0
 241 00fe D0F8B020 		ldr	r2, [r0, #176]
 242 0102 9A60     		str	r2, [r3, #8]
 243              		.loc 1 65 0
 244 0104 D0F8B420 		ldr	r2, [r0, #180]
 245 0108 DA60     		str	r2, [r3, #12]
 246              		.loc 1 66 0
 247 010a D0F8B820 		ldr	r2, [r0, #184]
 248 010e 5A61     		str	r2, [r3, #20]
 249              		.loc 1 67 0
 250 0110 D0F8BC20 		ldr	r2, [r0, #188]
 251 0114 1A62     		str	r2, [r3, #32]
 252              		.loc 1 68 0
 253 0116 D0F8C020 		ldr	r2, [r0, #192]
 254 011a 5A62     		str	r2, [r3, #36]
 255              		.loc 1 69 0
 256 011c D0F8A820 		ldr	r2, [r0, #168]
 257 0120 1A60     		str	r2, [r3]
 258              	.LVL8:
 259              	.LBE41:
 260              	.LBE40:
 261              	.LBB42:
 262              	.LBB43:
 263              		.loc 1 63 0
 264 0122 D0F8C820 		ldr	r2, [r0, #200]
 265 0126 C3F80424 		str	r2, [r3, #1028]
 266              		.loc 1 64 0
 267 012a D0F8CC20 		ldr	r2, [r0, #204]
 268 012e C3F80824 		str	r2, [r3, #1032]
 269              		.loc 1 65 0
 270 0132 D0F8D020 		ldr	r2, [r0, #208]
 271 0136 C3F80C24 		str	r2, [r3, #1036]
 272              		.loc 1 66 0
 273 013a D0F8D420 		ldr	r2, [r0, #212]
 274 013e C3F81424 		str	r2, [r3, #1044]
 275              		.loc 1 67 0
 276 0142 D0F8D820 		ldr	r2, [r0, #216]
 277 0146 C3F82024 		str	r2, [r3, #1056]
 278              		.loc 1 68 0
 279 014a D0F8DC20 		ldr	r2, [r0, #220]
 280 014e C3F82424 		str	r2, [r3, #1060]
 281              		.loc 1 69 0
 282 0152 D0F8C420 		ldr	r2, [r0, #196]
 283 0156 C3F80024 		str	r2, [r3, #1024]
 284              	.LVL9:
 285              	.LBE43:
ARM GAS  /var/folders/m4/4md61f0s1_g0rzfghffqnxvr0000gn/T//ccl2e1ol.s 			page 6


 286              	.LBE42:
 287              	.LBB44:
 288              	.LBB45:
 289              		.loc 1 63 0
 290 015a D0F8E420 		ldr	r2, [r0, #228]
 291 015e C3F80428 		str	r2, [r3, #2052]
 292              		.loc 1 64 0
 293 0162 D0F8E820 		ldr	r2, [r0, #232]
 294 0166 C3F80828 		str	r2, [r3, #2056]
 295              		.loc 1 65 0
 296 016a D0F8EC20 		ldr	r2, [r0, #236]
 297 016e C3F80C28 		str	r2, [r3, #2060]
 298              		.loc 1 66 0
 299 0172 D0F8F020 		ldr	r2, [r0, #240]
 300 0176 C3F81428 		str	r2, [r3, #2068]
 301              		.loc 1 67 0
 302 017a D0F8F420 		ldr	r2, [r0, #244]
 303 017e C3F82028 		str	r2, [r3, #2080]
 304              		.loc 1 68 0
 305 0182 D0F8F820 		ldr	r2, [r0, #248]
 306 0186 C3F82428 		str	r2, [r3, #2084]
 307              		.loc 1 69 0
 308 018a D0F8E020 		ldr	r2, [r0, #224]
 309 018e C3F80028 		str	r2, [r3, #2048]
 310              	.LVL10:
 311              	.LBE45:
 312              	.LBE44:
 313              		.loc 1 144 0
 314 0192 F0BC     		pop	{r4, r5, r6, r7}
 315              		.cfi_restore 7
 316              		.cfi_restore 6
 317              		.cfi_restore 5
 318              		.cfi_restore 4
 319              		.cfi_def_cfa_offset 0
 320 0194 7047     		bx	lr
 321              	.L4:
 322 0196 00BF     		.align	2
 323              	.L3:
 324 0198 00380240 		.word	1073887232
 325 019c 00000240 		.word	1073872896
 326 01a0 00040240 		.word	1073873920
 327 01a4 00080240 		.word	1073874944
 328 01a8 000C0240 		.word	1073875968
 329              		.cfi_endproc
 330              	.LFE269:
 331              		.size	_pal_lld_init, .-_pal_lld_init
 332              		.section	.text._pal_lld_setgroupmode,"ax",%progbits
 333              		.align	2
 334              		.p2align 4,,15
 335              		.global	_pal_lld_setgroupmode
 336              		.thumb
 337              		.thumb_func
 338              		.type	_pal_lld_setgroupmode, %function
 339              	_pal_lld_setgroupmode:
 340              	.LFB270:
 341              		.loc 1 161 0
 342              		.cfi_startproc
ARM GAS  /var/folders/m4/4md61f0s1_g0rzfghffqnxvr0000gn/T//ccl2e1ol.s 			page 7


 343              		@ args = 0, pretend = 0, frame = 0
 344              		@ frame_needed = 0, uses_anonymous_args = 0
 345              	.LVL11:
 346 0000 2DE9F04F 		push	{r4, r5, r6, r7, r8, r9, r10, fp, lr}
 347              		.cfi_def_cfa_offset 36
 348              		.cfi_offset 4, -36
 349              		.cfi_offset 5, -32
 350              		.cfi_offset 6, -28
 351              		.cfi_offset 7, -24
 352              		.cfi_offset 8, -20
 353              		.cfi_offset 9, -16
 354              		.cfi_offset 10, -12
 355              		.cfi_offset 11, -8
 356              		.cfi_offset 14, -4
 357              		.loc 1 166 0
 358 0004 C2F3411C 		ubfx	ip, r2, #5, #2
 359              		.loc 1 163 0
 360 0008 02F0030E 		and	lr, r2, #3
 361              	.LVL12:
 362              		.loc 1 164 0
 363 000c C2F38009 		ubfx	r9, r2, #2, #1
 364              	.LVL13:
 365              		.loc 1 165 0
 366 0010 C2F3C108 		ubfx	r8, r2, #3, #2
 367              	.LVL14:
 368              		.loc 1 168 0
 369 0014 0027     		movs	r7, #0
 370              		.loc 1 167 0
 371 0016 C2F3C312 		ubfx	r2, r2, #7, #4
 372              	.LVL15:
 373              	.LBB46:
 374              		.loc 1 176 0
 375 001a 4FF00F0B 		mov	fp, #15
 376              		.loc 1 177 0
 377 001e 4FF0010A 		mov	r10, #1
 378 0022 0FE0     		b	.L12
 379              	.LVL16:
 380              	.L19:
 381              		.loc 1 194 0
 382 0024 046A     		ldr	r4, [r0, #32]
 383 0026 24EA0303 		bic	r3, r4, r3
 384              	.LVL17:
 385 002a 1D43     		orrs	r5, r5, r3
 386              	.LVL18:
 387 002c 0562     		str	r5, [r0, #32]
 388              	.LVL19:
 389              	.L6:
 390              	.LBE46:
 391              		.loc 1 200 0
 392 002e 4908     		lsrs	r1, r1, #1
 393              	.LVL20:
 394 0030 39D0     		beq	.L5
 395              	.LVL21:
 396              	.L20:
 397              		.loc 1 202 0
 398 0032 4FEA4909 		lsl	r9, r9, #1
 399              	.LVL22:
ARM GAS  /var/folders/m4/4md61f0s1_g0rzfghffqnxvr0000gn/T//ccl2e1ol.s 			page 8


 400              		.loc 1 203 0
 401 0036 4FEA8808 		lsl	r8, r8, #2
 402              	.LVL23:
 403              		.loc 1 204 0
 404 003a 4FEA8C0C 		lsl	ip, ip, #2
 405              	.LVL24:
 406              		.loc 1 205 0
 407 003e 4FEA8E0E 		lsl	lr, lr, #2
 408              	.LVL25:
 409              		.loc 1 206 0
 410 0042 0137     		adds	r7, r7, #1
 411              	.LVL26:
 412              	.L12:
 413              		.loc 1 170 0
 414 0044 CB07     		lsls	r3, r1, #31
 415 0046 F2D5     		bpl	.L6
 416              	.LBB47:
 417              		.loc 1 177 0
 418 0048 4368     		ldr	r3, [r0, #4]
 419 004a 0AFA07F4 		lsl	r4, r10, r7
 420 004e 23EA0403 		bic	r3, r3, r4
 421 0052 43EA0903 		orr	r3, r3, r9
 422 0056 4360     		str	r3, [r0, #4]
 423              		.loc 1 178 0
 424 0058 0325     		movs	r5, #3
 425 005a 7C00     		lsls	r4, r7, #1
 426 005c 8368     		ldr	r3, [r0, #8]
 427 005e 05FA04F4 		lsl	r4, r5, r4
 428 0062 E443     		mvns	r4, r4
 429 0064 2340     		ands	r3, r3, r4
 430 0066 43EA0803 		orr	r3, r3, r8
 431 006a 8360     		str	r3, [r0, #8]
 432              		.loc 1 179 0
 433 006c C568     		ldr	r5, [r0, #12]
 434              		.loc 1 173 0
 435 006e 07F00703 		and	r3, r7, #7
 436              		.loc 1 179 0
 437 0072 2540     		ands	r5, r5, r4
 438 0074 45EA0C05 		orr	r5, r5, ip
 439              		.loc 1 173 0
 440 0078 9B00     		lsls	r3, r3, #2
 441              		.loc 1 180 0
 442 007a BEF1020F 		cmp	lr, #2
 443              		.loc 1 179 0
 444 007e C560     		str	r5, [r0, #12]
 445              		.loc 1 173 0
 446 0080 02FA03F5 		lsl	r5, r2, r3
 447              	.LVL27:
 448              		.loc 1 176 0
 449 0084 0BFA03F3 		lsl	r3, fp, r3
 450              	.LVL28:
 451              		.loc 1 180 0
 452 0088 0FD0     		beq	.L18
 453              		.loc 1 192 0
 454 008a 0668     		ldr	r6, [r0]
 455 008c 3440     		ands	r4, r4, r6
 456              	.LVL29:
ARM GAS  /var/folders/m4/4md61f0s1_g0rzfghffqnxvr0000gn/T//ccl2e1ol.s 			page 9


 457 008e 44EA0E04 		orr	r4, r4, lr
 458              		.loc 1 193 0
 459 0092 072F     		cmp	r7, #7
 460              		.loc 1 192 0
 461 0094 0460     		str	r4, [r0]
 462              		.loc 1 193 0
 463 0096 C5D9     		bls	.L19
 464              		.loc 1 196 0
 465 0098 446A     		ldr	r4, [r0, #36]
 466 009a 24EA0303 		bic	r3, r4, r3
 467              	.LVL30:
 468 009e 1D43     		orrs	r5, r5, r3
 469              	.LVL31:
 470              	.LBE47:
 471              		.loc 1 200 0
 472 00a0 4908     		lsrs	r1, r1, #1
 473              	.LVL32:
 474              	.LBB48:
 475              		.loc 1 196 0
 476 00a2 4562     		str	r5, [r0, #36]
 477              	.LBE48:
 478              		.loc 1 200 0
 479 00a4 C5D1     		bne	.L20
 480              	.LVL33:
 481              	.L5:
 482 00a6 BDE8F08F 		pop	{r4, r5, r6, r7, r8, r9, r10, fp, pc}
 483              	.LVL34:
 484              	.L18:
 485              	.LBB49:
 486              		.loc 1 183 0
 487 00aa 072F     		cmp	r7, #7
 488 00ac 0AD8     		bhi	.L8
 489              		.loc 1 184 0
 490 00ae 066A     		ldr	r6, [r0, #32]
 491 00b0 26EA0303 		bic	r3, r6, r3
 492              	.LVL35:
 493 00b4 1D43     		orrs	r5, r5, r3
 494              	.LVL36:
 495 00b6 0562     		str	r5, [r0, #32]
 496              	.L9:
 497              		.loc 1 187 0
 498 00b8 0368     		ldr	r3, [r0]
 499 00ba 1C40     		ands	r4, r4, r3
 500              	.LVL37:
 501 00bc 44F00204 		orr	r4, r4, #2
 502 00c0 0460     		str	r4, [r0]
 503 00c2 B4E7     		b	.L6
 504              	.LVL38:
 505              	.L8:
 506              		.loc 1 186 0
 507 00c4 466A     		ldr	r6, [r0, #36]
 508 00c6 26EA0303 		bic	r3, r6, r3
 509              	.LVL39:
 510 00ca 1D43     		orrs	r5, r5, r3
 511              	.LVL40:
 512 00cc 4562     		str	r5, [r0, #36]
 513 00ce F3E7     		b	.L9
ARM GAS  /var/folders/m4/4md61f0s1_g0rzfghffqnxvr0000gn/T//ccl2e1ol.s 			page 10


 514              	.LBE49:
 515              		.cfi_endproc
 516              	.LFE270:
 517              		.size	_pal_lld_setgroupmode, .-_pal_lld_setgroupmode
 518              		.text
 519              	.Letext0:
 520              		.file 2 "/opt/homebrew-cask/Caskroom/gcc-arm-embedded/5_2-2015q4,20151219/gcc-arm-none-eabi-5_2-20
 521              		.file 3 "/opt/homebrew-cask/Caskroom/gcc-arm-embedded/5_2-2015q4,20151219/gcc-arm-none-eabi-5_2-20
 522              		.file 4 "ChibiOS_16.1.4/os/rt/ports/ARMCMx/compilers/GCC/chtypes.h"
 523              		.file 5 "ChibiOS_16.1.4/os/rt/include/chsystypes.h"
 524              		.file 6 "ChibiOS_16.1.4/os/rt/include/chschd.h"
 525              		.file 7 "ChibiOS_16.1.4/os/ext/CMSIS/ST/STM32F4xx/stm32f405xx.h"
 526              		.file 8 "ChibiOS_16.1.4/os/rt/ports/ARMCMx/chcore.h"
 527              		.file 9 "ChibiOS_16.1.4/os/rt/ports/ARMCMx/chcore_v7m.h"
 528              		.file 10 "ChibiOS_16.1.4/os/rt/include/chtm.h"
 529              		.file 11 "ChibiOS_16.1.4/os/rt/include/chsem.h"
 530              		.file 12 "ChibiOS_16.1.4/os/rt/include/chmtx.h"
 531              		.file 13 "ChibiOS_16.1.4/os/hal/ports/STM32/LLD/GPIOv2/pal_lld.h"
 532              		.file 14 "ChibiOS_16.1.4/os/ext/CMSIS/include/core_cm4.h"