ARM GAS  /var/folders/m4/4md61f0s1_g0rzfghffqnxvr0000gn/T//ccFU9EsD.s 			page 1


   1              		.syntax unified
   2              		.cpu cortex-m4
   3              		.eabi_attribute 27, 1
   4              		.eabi_attribute 28, 1
   5              		.fpu fpv4-sp-d16
   6              		.eabi_attribute 20, 1
   7              		.eabi_attribute 21, 1
   8              		.eabi_attribute 23, 3
   9              		.eabi_attribute 24, 1
  10              		.eabi_attribute 25, 1
  11              		.eabi_attribute 26, 1
  12              		.eabi_attribute 30, 2
  13              		.eabi_attribute 34, 1
  14              		.eabi_attribute 18, 4
  15              		.thumb
  16              		.syntax unified
  17              		.file	"pwm.c"
  18              		.text
  19              	.Ltext0:
  20              		.cfi_sections	.debug_frame
  21              		.section	.text.pwmInit,"ax",%progbits
  22              		.align	2
  23              		.p2align 4,,15
  24              		.global	pwmInit
  25              		.thumb
  26              		.thumb_func
  27              		.type	pwmInit, %function
  28              	pwmInit:
  29              	.LFB268:
  30              		.file 1 "ChibiOS_16.1.4/os/hal/src/pwm.c"
  31              		.loc 1 56 0
  32              		.cfi_startproc
  33              		@ args = 0, pretend = 0, frame = 0
  34              		@ frame_needed = 0, uses_anonymous_args = 0
  35              		@ link register save eliminated.
  36              		.loc 1 58 0
  37 0000 FFF7FEBF 		b	pwm_lld_init
  38              	.LVL0:
  39              		.cfi_endproc
  40              	.LFE268:
  41              		.size	pwmInit, .-pwmInit
  42              		.section	.text.pwmObjectInit,"ax",%progbits
  43              		.align	2
  44              		.p2align 4,,15
  45              		.global	pwmObjectInit
  46              		.thumb
  47              		.thumb_func
  48              		.type	pwmObjectInit, %function
  49              	pwmObjectInit:
  50              	.LFB269:
  51              		.loc 1 68 0
  52              		.cfi_startproc
  53              		@ args = 0, pretend = 0, frame = 0
  54              		@ frame_needed = 0, uses_anonymous_args = 0
  55              		@ link register save eliminated.
  56              	.LVL1:
  57              		.loc 1 71 0
ARM GAS  /var/folders/m4/4md61f0s1_g0rzfghffqnxvr0000gn/T//ccFU9EsD.s 			page 2


  58 0000 0023     		movs	r3, #0
  59              		.loc 1 70 0
  60 0002 0122     		movs	r2, #1
  61 0004 0270     		strb	r2, [r0]
  62              		.loc 1 71 0
  63 0006 4360     		str	r3, [r0, #4]
  64              		.loc 1 72 0
  65 0008 C360     		str	r3, [r0, #12]
  66              		.loc 1 73 0
  67 000a 0374     		strb	r3, [r0, #16]
  68 000c 7047     		bx	lr
  69              		.cfi_endproc
  70              	.LFE269:
  71              		.size	pwmObjectInit, .-pwmObjectInit
  72 000e 00BF     		.section	.text.pwmStart,"ax",%progbits
  73              		.align	2
  74              		.p2align 4,,15
  75              		.global	pwmStart
  76              		.thumb
  77              		.thumb_func
  78              		.type	pwmStart, %function
  79              	pwmStart:
  80              	.LFB270:
  81              		.loc 1 89 0
  82              		.cfi_startproc
  83              		@ args = 0, pretend = 0, frame = 0
  84              		@ frame_needed = 0, uses_anonymous_args = 0
  85              	.LVL2:
  86 0000 10B5     		push	{r4, lr}
  87              		.cfi_def_cfa_offset 8
  88              		.cfi_offset 4, -8
  89              		.cfi_offset 14, -4
  90              	.LBB141:
  91              	.LBB142:
  92              	.LBB143:
  93              	.LBB144:
  94              	.LBB145:
  95              		.file 2 "ChibiOS_16.1.4/os/ext/CMSIS/include/core_cmFunc.h"
  96              		.loc 2 548 0
  97 0002 2023     		movs	r3, #32
  98              	.LBE145:
  99              	.LBE144:
 100              	.LBE143:
 101              	.LBE142:
 102              	.LBE141:
 103              		.loc 1 89 0
 104 0004 0446     		mov	r4, r0
 105              	.LBB150:
 106              	.LBB149:
 107              	.LBB148:
 108              	.LBB147:
 109              	.LBB146:
 110              		.loc 2 548 0
 111              		.syntax unified
 112              	@ 548 "ChibiOS_16.1.4/os/ext/CMSIS/include/core_cmFunc.h" 1
 113 0006 83F31188 		MSR basepri, r3
 114              	@ 0 "" 2
ARM GAS  /var/folders/m4/4md61f0s1_g0rzfghffqnxvr0000gn/T//ccFU9EsD.s 			page 3


 115              	.LVL3:
 116              		.thumb
 117              		.syntax unified
 118              	.LBE146:
 119              	.LBE147:
 120              	.LBE148:
 121              	.LBE149:
 122              	.LBE150:
 123              		.loc 1 97 0
 124 000a 4B68     		ldr	r3, [r1, #4]
 125 000c 8360     		str	r3, [r0, #8]
 126              		.loc 1 96 0
 127 000e 4160     		str	r1, [r0, #4]
 128              		.loc 1 98 0
 129 0010 FFF7FEFF 		bl	pwm_lld_start
 130              	.LVL4:
 131              		.loc 1 100 0
 132 0014 0222     		movs	r2, #2
 133              		.loc 1 99 0
 134 0016 0023     		movs	r3, #0
 135              		.loc 1 100 0
 136 0018 2270     		strb	r2, [r4]
 137              	.LVL5:
 138              		.loc 1 99 0
 139 001a E360     		str	r3, [r4, #12]
 140              	.LBB151:
 141              	.LBB152:
 142              	.LBB153:
 143              	.LBB154:
 144              	.LBB155:
 145              	.LBB156:
 146              		.loc 2 548 0
 147              		.syntax unified
 148              	@ 548 "ChibiOS_16.1.4/os/ext/CMSIS/include/core_cmFunc.h" 1
 149 001c 83F31188 		MSR basepri, r3
 150              	@ 0 "" 2
 151              	.LVL6:
 152              		.thumb
 153              		.syntax unified
 154 0020 10BD     		pop	{r4, pc}
 155              	.LBE156:
 156              	.LBE155:
 157              	.LBE154:
 158              	.LBE153:
 159              	.LBE152:
 160              	.LBE151:
 161              		.cfi_endproc
 162              	.LFE270:
 163              		.size	pwmStart, .-pwmStart
 164 0022 00BF     		.section	.text.pwmStop,"ax",%progbits
 165              		.align	2
 166              		.p2align 4,,15
 167              		.global	pwmStop
 168              		.thumb
 169              		.thumb_func
 170              		.type	pwmStop, %function
 171              	pwmStop:
ARM GAS  /var/folders/m4/4md61f0s1_g0rzfghffqnxvr0000gn/T//ccFU9EsD.s 			page 4


 172              	.LFB271:
 173              		.loc 1 111 0
 174              		.cfi_startproc
 175              		@ args = 0, pretend = 0, frame = 0
 176              		@ frame_needed = 0, uses_anonymous_args = 0
 177              	.LVL7:
 178 0000 10B5     		push	{r4, lr}
 179              		.cfi_def_cfa_offset 8
 180              		.cfi_offset 4, -8
 181              		.cfi_offset 14, -4
 182              	.LBB157:
 183              	.LBB158:
 184              	.LBB159:
 185              	.LBB160:
 186              	.LBB161:
 187              		.loc 2 548 0
 188 0002 2023     		movs	r3, #32
 189              	.LBE161:
 190              	.LBE160:
 191              	.LBE159:
 192              	.LBE158:
 193              	.LBE157:
 194              		.loc 1 111 0
 195 0004 0446     		mov	r4, r0
 196              	.LBB166:
 197              	.LBB165:
 198              	.LBB164:
 199              	.LBB163:
 200              	.LBB162:
 201              		.loc 2 548 0
 202              		.syntax unified
 203              	@ 548 "ChibiOS_16.1.4/os/ext/CMSIS/include/core_cmFunc.h" 1
 204 0006 83F31188 		MSR basepri, r3
 205              	@ 0 "" 2
 206              	.LVL8:
 207              		.thumb
 208              		.syntax unified
 209              	.LBE162:
 210              	.LBE163:
 211              	.LBE164:
 212              	.LBE165:
 213              	.LBE166:
 214              		.loc 1 118 0
 215 000a FFF7FEFF 		bl	pwm_lld_stop
 216              	.LVL9:
 217              		.loc 1 120 0
 218 000e 0122     		movs	r2, #1
 219              		.loc 1 119 0
 220 0010 0023     		movs	r3, #0
 221              		.loc 1 120 0
 222 0012 2270     		strb	r2, [r4]
 223              	.LVL10:
 224              		.loc 1 119 0
 225 0014 E360     		str	r3, [r4, #12]
 226              	.LBB167:
 227              	.LBB168:
 228              	.LBB169:
ARM GAS  /var/folders/m4/4md61f0s1_g0rzfghffqnxvr0000gn/T//ccFU9EsD.s 			page 5


 229              	.LBB170:
 230              	.LBB171:
 231              	.LBB172:
 232              		.loc 2 548 0
 233              		.syntax unified
 234              	@ 548 "ChibiOS_16.1.4/os/ext/CMSIS/include/core_cmFunc.h" 1
 235 0016 83F31188 		MSR basepri, r3
 236              	@ 0 "" 2
 237              	.LVL11:
 238              		.thumb
 239              		.syntax unified
 240 001a 10BD     		pop	{r4, pc}
 241              	.LBE172:
 242              	.LBE171:
 243              	.LBE170:
 244              	.LBE169:
 245              	.LBE168:
 246              	.LBE167:
 247              		.cfi_endproc
 248              	.LFE271:
 249              		.size	pwmStop, .-pwmStop
 250              		.section	.text.pwmChangePeriod,"ax",%progbits
 251              		.align	2
 252              		.p2align 4,,15
 253              		.global	pwmChangePeriod
 254              		.thumb
 255              		.thumb_func
 256              		.type	pwmChangePeriod, %function
 257              	pwmChangePeriod:
 258              	.LFB272:
 259              		.loc 1 139 0
 260              		.cfi_startproc
 261              		@ args = 0, pretend = 0, frame = 0
 262              		@ frame_needed = 0, uses_anonymous_args = 0
 263              		@ link register save eliminated.
 264              	.LVL12:
 265              	.LBB173:
 266              	.LBB174:
 267              	.LBB175:
 268              	.LBB176:
 269              	.LBB177:
 270              		.loc 2 548 0
 271 0000 2023     		movs	r3, #32
 272              		.syntax unified
 273              	@ 548 "ChibiOS_16.1.4/os/ext/CMSIS/include/core_cmFunc.h" 1
 274 0002 83F31188 		MSR basepri, r3
 275              	@ 0 "" 2
 276              	.LVL13:
 277              		.thumb
 278              		.syntax unified
 279              	.LBE177:
 280              	.LBE176:
 281              	.LBE175:
 282              	.LBE174:
 283              	.LBE173:
 284              		.loc 1 145 0
 285 0006 8369     		ldr	r3, [r0, #24]
ARM GAS  /var/folders/m4/4md61f0s1_g0rzfghffqnxvr0000gn/T//ccFU9EsD.s 			page 6


 286 0008 8160     		str	r1, [r0, #8]
 287 000a 0139     		subs	r1, r1, #1
 288              	.LVL14:
 289 000c D962     		str	r1, [r3, #44]
 290              	.LVL15:
 291              	.LBB178:
 292              	.LBB179:
 293              	.LBB180:
 294              	.LBB181:
 295              	.LBB182:
 296              	.LBB183:
 297              		.loc 2 548 0
 298 000e 0023     		movs	r3, #0
 299              		.syntax unified
 300              	@ 548 "ChibiOS_16.1.4/os/ext/CMSIS/include/core_cmFunc.h" 1
 301 0010 83F31188 		MSR basepri, r3
 302              	@ 0 "" 2
 303              	.LVL16:
 304              		.thumb
 305              		.syntax unified
 306 0014 7047     		bx	lr
 307              	.LBE183:
 308              	.LBE182:
 309              	.LBE181:
 310              	.LBE180:
 311              	.LBE179:
 312              	.LBE178:
 313              		.cfi_endproc
 314              	.LFE272:
 315              		.size	pwmChangePeriod, .-pwmChangePeriod
 316 0016 00BF     		.section	.text.pwmEnableChannel,"ax",%progbits
 317              		.align	2
 318              		.p2align 4,,15
 319              		.global	pwmEnableChannel
 320              		.thumb
 321              		.thumb_func
 322              		.type	pwmEnableChannel, %function
 323              	pwmEnableChannel:
 324              	.LFB273:
 325              		.loc 1 165 0
 326              		.cfi_startproc
 327              		@ args = 0, pretend = 0, frame = 0
 328              		@ frame_needed = 0, uses_anonymous_args = 0
 329              	.LVL17:
 330 0000 70B5     		push	{r4, r5, r6, lr}
 331              		.cfi_def_cfa_offset 16
 332              		.cfi_offset 4, -16
 333              		.cfi_offset 5, -12
 334              		.cfi_offset 6, -8
 335              		.cfi_offset 14, -4
 336              	.LBB184:
 337              	.LBB185:
 338              	.LBB186:
 339              	.LBB187:
 340              	.LBB188:
 341              		.loc 2 548 0
 342 0002 2024     		movs	r4, #32
ARM GAS  /var/folders/m4/4md61f0s1_g0rzfghffqnxvr0000gn/T//ccFU9EsD.s 			page 7


 343              		.syntax unified
 344              	@ 548 "ChibiOS_16.1.4/os/ext/CMSIS/include/core_cmFunc.h" 1
 345 0004 84F31188 		MSR basepri, r4
 346              	@ 0 "" 2
 347              	.LVL18:
 348              		.thumb
 349              		.syntax unified
 350              	.LBE188:
 351              	.LBE187:
 352              	.LBE186:
 353              	.LBE185:
 354              	.LBE184:
 355              		.loc 1 173 0
 356 0008 0124     		movs	r4, #1
 357 000a C668     		ldr	r6, [r0, #12]
 358 000c 04FA01F3 		lsl	r3, r4, r1
 359 0010 3343     		orrs	r3, r3, r6
 360 0012 C360     		str	r3, [r0, #12]
 361 0014 FFF7FEFF 		bl	pwm_lld_enable_channel
 362              	.LVL19:
 363              	.LBB189:
 364              	.LBB190:
 365              	.LBB191:
 366              	.LBB192:
 367              	.LBB193:
 368              	.LBB194:
 369              		.loc 2 548 0
 370 0018 0023     		movs	r3, #0
 371              		.syntax unified
 372              	@ 548 "ChibiOS_16.1.4/os/ext/CMSIS/include/core_cmFunc.h" 1
 373 001a 83F31188 		MSR basepri, r3
 374              	@ 0 "" 2
 375              	.LVL20:
 376              		.thumb
 377              		.syntax unified
 378 001e 70BD     		pop	{r4, r5, r6, pc}
 379              	.LBE194:
 380              	.LBE193:
 381              	.LBE192:
 382              	.LBE191:
 383              	.LBE190:
 384              	.LBE189:
 385              		.cfi_endproc
 386              	.LFE273:
 387              		.size	pwmEnableChannel, .-pwmEnableChannel
 388              		.section	.text.pwmDisableChannel,"ax",%progbits
 389              		.align	2
 390              		.p2align 4,,15
 391              		.global	pwmDisableChannel
 392              		.thumb
 393              		.thumb_func
 394              		.type	pwmDisableChannel, %function
 395              	pwmDisableChannel:
 396              	.LFB274:
 397              		.loc 1 192 0
 398              		.cfi_startproc
 399              		@ args = 0, pretend = 0, frame = 0
ARM GAS  /var/folders/m4/4md61f0s1_g0rzfghffqnxvr0000gn/T//ccFU9EsD.s 			page 8


 400              		@ frame_needed = 0, uses_anonymous_args = 0
 401              	.LVL21:
 402 0000 38B5     		push	{r3, r4, r5, lr}
 403              		.cfi_def_cfa_offset 16
 404              		.cfi_offset 3, -16
 405              		.cfi_offset 4, -12
 406              		.cfi_offset 5, -8
 407              		.cfi_offset 14, -4
 408              	.LBB195:
 409              	.LBB196:
 410              	.LBB197:
 411              	.LBB198:
 412              	.LBB199:
 413              		.loc 2 548 0
 414 0002 2023     		movs	r3, #32
 415              		.syntax unified
 416              	@ 548 "ChibiOS_16.1.4/os/ext/CMSIS/include/core_cmFunc.h" 1
 417 0004 83F31188 		MSR basepri, r3
 418              	@ 0 "" 2
 419              	.LVL22:
 420              		.thumb
 421              		.syntax unified
 422              	.LBE199:
 423              	.LBE198:
 424              	.LBE197:
 425              	.LBE196:
 426              	.LBE195:
 427              		.loc 1 200 0
 428 0008 0122     		movs	r2, #1
 429 000a C368     		ldr	r3, [r0, #12]
 430 000c 8A40     		lsls	r2, r2, r1
 431 000e 23EA0203 		bic	r3, r3, r2
 432 0012 C360     		str	r3, [r0, #12]
 433 0014 FFF7FEFF 		bl	pwm_lld_disable_channel
 434              	.LVL23:
 435              	.LBB200:
 436              	.LBB201:
 437              	.LBB202:
 438              	.LBB203:
 439              	.LBB204:
 440              	.LBB205:
 441              		.loc 2 548 0
 442 0018 0023     		movs	r3, #0
 443              		.syntax unified
 444              	@ 548 "ChibiOS_16.1.4/os/ext/CMSIS/include/core_cmFunc.h" 1
 445 001a 83F31188 		MSR basepri, r3
 446              	@ 0 "" 2
 447              	.LVL24:
 448              		.thumb
 449              		.syntax unified
 450 001e 38BD     		pop	{r3, r4, r5, pc}
 451              	.LBE205:
 452              	.LBE204:
 453              	.LBE203:
 454              	.LBE202:
 455              	.LBE201:
 456              	.LBE200:
ARM GAS  /var/folders/m4/4md61f0s1_g0rzfghffqnxvr0000gn/T//ccFU9EsD.s 			page 9


 457              		.cfi_endproc
 458              	.LFE274:
 459              		.size	pwmDisableChannel, .-pwmDisableChannel
 460              		.section	.text.pwmEnablePeriodicNotification,"ax",%progbits
 461              		.align	2
 462              		.p2align 4,,15
 463              		.global	pwmEnablePeriodicNotification
 464              		.thumb
 465              		.thumb_func
 466              		.type	pwmEnablePeriodicNotification, %function
 467              	pwmEnablePeriodicNotification:
 468              	.LFB275:
 469              		.loc 1 214 0
 470              		.cfi_startproc
 471              		@ args = 0, pretend = 0, frame = 0
 472              		@ frame_needed = 0, uses_anonymous_args = 0
 473              	.LVL25:
 474 0000 08B5     		push	{r3, lr}
 475              		.cfi_def_cfa_offset 8
 476              		.cfi_offset 3, -8
 477              		.cfi_offset 14, -4
 478              	.LBB206:
 479              	.LBB207:
 480              	.LBB208:
 481              	.LBB209:
 482              	.LBB210:
 483              		.loc 2 548 0
 484 0002 2023     		movs	r3, #32
 485              		.syntax unified
 486              	@ 548 "ChibiOS_16.1.4/os/ext/CMSIS/include/core_cmFunc.h" 1
 487 0004 83F31188 		MSR basepri, r3
 488              	@ 0 "" 2
 489              	.LVL26:
 490              		.thumb
 491              		.syntax unified
 492              	.LBE210:
 493              	.LBE209:
 494              	.LBE208:
 495              	.LBE207:
 496              	.LBE206:
 497              		.loc 1 223 0
 498 0008 FFF7FEFF 		bl	pwm_lld_enable_periodic_notification
 499              	.LVL27:
 500              	.LBB211:
 501              	.LBB212:
 502              	.LBB213:
 503              	.LBB214:
 504              	.LBB215:
 505              	.LBB216:
 506              		.loc 2 548 0
 507 000c 0023     		movs	r3, #0
 508              		.syntax unified
 509              	@ 548 "ChibiOS_16.1.4/os/ext/CMSIS/include/core_cmFunc.h" 1
 510 000e 83F31188 		MSR basepri, r3
 511              	@ 0 "" 2
 512              	.LVL28:
 513              		.thumb
ARM GAS  /var/folders/m4/4md61f0s1_g0rzfghffqnxvr0000gn/T//ccFU9EsD.s 			page 10


 514              		.syntax unified
 515 0012 08BD     		pop	{r3, pc}
 516              	.LBE216:
 517              	.LBE215:
 518              	.LBE214:
 519              	.LBE213:
 520              	.LBE212:
 521              	.LBE211:
 522              		.cfi_endproc
 523              	.LFE275:
 524              		.size	pwmEnablePeriodicNotification, .-pwmEnablePeriodicNotification
 525              		.section	.text.pwmDisablePeriodicNotification,"ax",%progbits
 526              		.align	2
 527              		.p2align 4,,15
 528              		.global	pwmDisablePeriodicNotification
 529              		.thumb
 530              		.thumb_func
 531              		.type	pwmDisablePeriodicNotification, %function
 532              	pwmDisablePeriodicNotification:
 533              	.LFB276:
 534              		.loc 1 237 0
 535              		.cfi_startproc
 536              		@ args = 0, pretend = 0, frame = 0
 537              		@ frame_needed = 0, uses_anonymous_args = 0
 538              	.LVL29:
 539 0000 08B5     		push	{r3, lr}
 540              		.cfi_def_cfa_offset 8
 541              		.cfi_offset 3, -8
 542              		.cfi_offset 14, -4
 543              	.LBB217:
 544              	.LBB218:
 545              	.LBB219:
 546              	.LBB220:
 547              	.LBB221:
 548              		.loc 2 548 0
 549 0002 2023     		movs	r3, #32
 550              		.syntax unified
 551              	@ 548 "ChibiOS_16.1.4/os/ext/CMSIS/include/core_cmFunc.h" 1
 552 0004 83F31188 		MSR basepri, r3
 553              	@ 0 "" 2
 554              	.LVL30:
 555              		.thumb
 556              		.syntax unified
 557              	.LBE221:
 558              	.LBE220:
 559              	.LBE219:
 560              	.LBE218:
 561              	.LBE217:
 562              		.loc 1 246 0
 563 0008 FFF7FEFF 		bl	pwm_lld_disable_periodic_notification
 564              	.LVL31:
 565              	.LBB222:
 566              	.LBB223:
 567              	.LBB224:
 568              	.LBB225:
 569              	.LBB226:
 570              	.LBB227:
ARM GAS  /var/folders/m4/4md61f0s1_g0rzfghffqnxvr0000gn/T//ccFU9EsD.s 			page 11


 571              		.loc 2 548 0
 572 000c 0023     		movs	r3, #0
 573              		.syntax unified
 574              	@ 548 "ChibiOS_16.1.4/os/ext/CMSIS/include/core_cmFunc.h" 1
 575 000e 83F31188 		MSR basepri, r3
 576              	@ 0 "" 2
 577              	.LVL32:
 578              		.thumb
 579              		.syntax unified
 580 0012 08BD     		pop	{r3, pc}
 581              	.LBE227:
 582              	.LBE226:
 583              	.LBE225:
 584              	.LBE224:
 585              	.LBE223:
 586              	.LBE222:
 587              		.cfi_endproc
 588              	.LFE276:
 589              		.size	pwmDisablePeriodicNotification, .-pwmDisablePeriodicNotification
 590              		.section	.text.pwmEnableChannelNotification,"ax",%progbits
 591              		.align	2
 592              		.p2align 4,,15
 593              		.global	pwmEnableChannelNotification
 594              		.thumb
 595              		.thumb_func
 596              		.type	pwmEnableChannelNotification, %function
 597              	pwmEnableChannelNotification:
 598              	.LFB277:
 599              		.loc 1 262 0
 600              		.cfi_startproc
 601              		@ args = 0, pretend = 0, frame = 0
 602              		@ frame_needed = 0, uses_anonymous_args = 0
 603              	.LVL33:
 604 0000 08B5     		push	{r3, lr}
 605              		.cfi_def_cfa_offset 8
 606              		.cfi_offset 3, -8
 607              		.cfi_offset 14, -4
 608              	.LBB228:
 609              	.LBB229:
 610              	.LBB230:
 611              	.LBB231:
 612              	.LBB232:
 613              		.loc 2 548 0
 614 0002 2023     		movs	r3, #32
 615              		.syntax unified
 616              	@ 548 "ChibiOS_16.1.4/os/ext/CMSIS/include/core_cmFunc.h" 1
 617 0004 83F31188 		MSR basepri, r3
 618              	@ 0 "" 2
 619              	.LVL34:
 620              		.thumb
 621              		.syntax unified
 622              	.LBE232:
 623              	.LBE231:
 624              	.LBE230:
 625              	.LBE229:
 626              	.LBE228:
 627              		.loc 1 274 0
ARM GAS  /var/folders/m4/4md61f0s1_g0rzfghffqnxvr0000gn/T//ccFU9EsD.s 			page 12


 628 0008 FFF7FEFF 		bl	pwm_lld_enable_channel_notification
 629              	.LVL35:
 630              	.LBB233:
 631              	.LBB234:
 632              	.LBB235:
 633              	.LBB236:
 634              	.LBB237:
 635              	.LBB238:
 636              		.loc 2 548 0
 637 000c 0023     		movs	r3, #0
 638              		.syntax unified
 639              	@ 548 "ChibiOS_16.1.4/os/ext/CMSIS/include/core_cmFunc.h" 1
 640 000e 83F31188 		MSR basepri, r3
 641              	@ 0 "" 2
 642              	.LVL36:
 643              		.thumb
 644              		.syntax unified
 645 0012 08BD     		pop	{r3, pc}
 646              	.LBE238:
 647              	.LBE237:
 648              	.LBE236:
 649              	.LBE235:
 650              	.LBE234:
 651              	.LBE233:
 652              		.cfi_endproc
 653              	.LFE277:
 654              		.size	pwmEnableChannelNotification, .-pwmEnableChannelNotification
 655              		.section	.text.pwmDisableChannelNotification,"ax",%progbits
 656              		.align	2
 657              		.p2align 4,,15
 658              		.global	pwmDisableChannelNotification
 659              		.thumb
 660              		.thumb_func
 661              		.type	pwmDisableChannelNotification, %function
 662              	pwmDisableChannelNotification:
 663              	.LFB278:
 664              		.loc 1 290 0
 665              		.cfi_startproc
 666              		@ args = 0, pretend = 0, frame = 0
 667              		@ frame_needed = 0, uses_anonymous_args = 0
 668              	.LVL37:
 669 0000 08B5     		push	{r3, lr}
 670              		.cfi_def_cfa_offset 8
 671              		.cfi_offset 3, -8
 672              		.cfi_offset 14, -4
 673              	.LBB239:
 674              	.LBB240:
 675              	.LBB241:
 676              	.LBB242:
 677              	.LBB243:
 678              		.loc 2 548 0
 679 0002 2023     		movs	r3, #32
 680              		.syntax unified
 681              	@ 548 "ChibiOS_16.1.4/os/ext/CMSIS/include/core_cmFunc.h" 1
 682 0004 83F31188 		MSR basepri, r3
 683              	@ 0 "" 2
 684              	.LVL38:
ARM GAS  /var/folders/m4/4md61f0s1_g0rzfghffqnxvr0000gn/T//ccFU9EsD.s 			page 13


 685              		.thumb
 686              		.syntax unified
 687              	.LBE243:
 688              	.LBE242:
 689              	.LBE241:
 690              	.LBE240:
 691              	.LBE239:
 692              		.loc 1 302 0
 693 0008 FFF7FEFF 		bl	pwm_lld_disable_channel_notification
 694              	.LVL39:
 695              	.LBB244:
 696              	.LBB245:
 697              	.LBB246:
 698              	.LBB247:
 699              	.LBB248:
 700              	.LBB249:
 701              		.loc 2 548 0
 702 000c 0023     		movs	r3, #0
 703              		.syntax unified
 704              	@ 548 "ChibiOS_16.1.4/os/ext/CMSIS/include/core_cmFunc.h" 1
 705 000e 83F31188 		MSR basepri, r3
 706              	@ 0 "" 2
 707              	.LVL40:
 708              		.thumb
 709              		.syntax unified
 710 0012 08BD     		pop	{r3, pc}
 711              	.LBE249:
 712              	.LBE248:
 713              	.LBE247:
 714              	.LBE246:
 715              	.LBE245:
 716              	.LBE244:
 717              		.cfi_endproc
 718              	.LFE278:
 719              		.size	pwmDisableChannelNotification, .-pwmDisableChannelNotification
 720              		.text
 721              	.Letext0:
 722              		.file 3 "/opt/homebrew-cask/Caskroom/gcc-arm-embedded/5_2-2015q4,20151219/gcc-arm-none-eabi-5_2-20
 723              		.file 4 "/opt/homebrew-cask/Caskroom/gcc-arm-embedded/5_2-2015q4,20151219/gcc-arm-none-eabi-5_2-20
 724              		.file 5 "ChibiOS_16.1.4/os/rt/ports/ARMCMx/compilers/GCC/chtypes.h"
 725              		.file 6 "ChibiOS_16.1.4/os/rt/include/chsystypes.h"
 726              		.file 7 "ChibiOS_16.1.4/os/rt/include/chschd.h"
 727              		.file 8 "ChibiOS_16.1.4/os/rt/ports/ARMCMx/chcore.h"
 728              		.file 9 "ChibiOS_16.1.4/os/rt/ports/ARMCMx/chcore_v7m.h"
 729              		.file 10 "ChibiOS_16.1.4/os/rt/include/chtm.h"
 730              		.file 11 "ChibiOS_16.1.4/os/rt/include/chsem.h"
 731              		.file 12 "ChibiOS_16.1.4/os/rt/include/chmtx.h"
 732              		.file 13 "ChibiOS_16.1.4/os/hal/include/pwm.h"
 733              		.file 14 "ChibiOS_16.1.4/os/hal/ports/STM32/LLD/TIMv1/pwm_lld.h"
 734              		.file 15 "ChibiOS_16.1.4/os/hal/ports/STM32/LLD/TIMv1/stm32_tim.h"
 735              		.file 16 "ChibiOS_16.1.4/os/rt/include/chsys.h"
 736              		.file 17 "ChibiOS_16.1.4/os/hal/osal/rt/osal.h"
 737              		.file 18 "ChibiOS_16.1.4/os/ext/CMSIS/include/core_cm4.h"