ARM GAS  /var/folders/m4/4md61f0s1_g0rzfghffqnxvr0000gn/T//ccN3TxNM.s 			page 1


   1              		.syntax unified
   2              		.cpu cortex-m4
   3              		.eabi_attribute 27, 1
   4              		.eabi_attribute 28, 1
   5              		.fpu fpv4-sp-d16
   6              		.eabi_attribute 20, 1
   7              		.eabi_attribute 21, 1
   8              		.eabi_attribute 23, 3
   9              		.eabi_attribute 24, 1
  10              		.eabi_attribute 25, 1
  11              		.eabi_attribute 26, 1
  12              		.eabi_attribute 30, 2
  13              		.eabi_attribute 34, 1
  14              		.eabi_attribute 18, 4
  15              		.thumb
  16              		.syntax unified
  17              		.file	"pwm_lld.c"
  18              		.text
  19              	.Ltext0:
  20              		.cfi_sections	.debug_frame
  21              		.section	.text.pwm_lld_init,"ax",%progbits
  22              		.align	2
  23              		.p2align 4,,15
  24              		.global	pwm_lld_init
  25              		.thumb
  26              		.thumb_func
  27              		.type	pwm_lld_init, %function
  28              	pwm_lld_init:
  29              	.LFB269:
  30              		.file 1 "ChibiOS_16.1.4/os/hal/ports/STM32/LLD/TIMv1/pwm_lld.c"
  31              		.loc 1 307 0
  32              		.cfi_startproc
  33              		@ args = 0, pretend = 0, frame = 0
  34              		@ frame_needed = 0, uses_anonymous_args = 0
  35 0000 10B5     		push	{r4, lr}
  36              		.cfi_def_cfa_offset 8
  37              		.cfi_offset 4, -8
  38              		.cfi_offset 14, -4
  39              		.loc 1 339 0
  40 0002 044C     		ldr	r4, .L3
  41 0004 2046     		mov	r0, r4
  42 0006 FFF7FEFF 		bl	pwmObjectInit
  43              	.LVL0:
  44              		.loc 1 340 0
  45 000a 0422     		movs	r2, #4
  46              		.loc 1 341 0
  47 000c 024B     		ldr	r3, .L3+4
  48              		.loc 1 340 0
  49 000e 2274     		strb	r2, [r4, #16]
  50              		.loc 1 341 0
  51 0010 A361     		str	r3, [r4, #24]
  52 0012 10BD     		pop	{r4, pc}
  53              	.L4:
  54              		.align	2
  55              	.L3:
  56 0014 00000000 		.word	.LANCHOR0
  57 0018 000C0040 		.word	1073744896
ARM GAS  /var/folders/m4/4md61f0s1_g0rzfghffqnxvr0000gn/T//ccN3TxNM.s 			page 2


  58              		.cfi_endproc
  59              	.LFE269:
  60              		.size	pwm_lld_init, .-pwm_lld_init
  61              		.section	.text.pwm_lld_start,"ax",%progbits
  62              		.align	2
  63              		.p2align 4,,15
  64              		.global	pwm_lld_start
  65              		.thumb
  66              		.thumb_func
  67              		.type	pwm_lld_start, %function
  68              	pwm_lld_start:
  69              	.LFB270:
  70              		.loc 1 368 0
  71              		.cfi_startproc
  72              		@ args = 0, pretend = 0, frame = 0
  73              		@ frame_needed = 0, uses_anonymous_args = 0
  74              	.LVL1:
  75 0000 F8B5     		push	{r3, r4, r5, r6, r7, lr}
  76              		.cfi_def_cfa_offset 24
  77              		.cfi_offset 3, -24
  78              		.cfi_offset 4, -20
  79              		.cfi_offset 5, -16
  80              		.cfi_offset 6, -12
  81              		.cfi_offset 7, -8
  82              		.cfi_offset 14, -4
  83              		.loc 1 372 0
  84 0002 0378     		ldrb	r3, [r0]	@ zero_extendqisi2
  85 0004 012B     		cmp	r3, #1
  86              		.loc 1 368 0
  87 0006 0446     		mov	r4, r0
  88              		.loc 1 372 0
  89 0008 4BD0     		beq	.L34
  90              		.loc 1 494 0
  91 000a 8369     		ldr	r3, [r0, #24]
  92 000c 0022     		movs	r2, #0
  93 000e 1A60     		str	r2, [r3]
  94              		.loc 1 495 0
  95 0010 5A63     		str	r2, [r3, #52]
  96              		.loc 1 496 0
  97 0012 9A63     		str	r2, [r3, #56]
  98              		.loc 1 497 0
  99 0014 DA63     		str	r2, [r3, #60]
 100              		.loc 1 498 0
 101 0016 1A64     		str	r2, [r3, #64]
 102              		.loc 1 505 0
 103 0018 5A62     		str	r2, [r3, #36]
 104              	.LVL2:
 105              	.L8:
 106              		.loc 1 509 0
 107 001a 6168     		ldr	r1, [r4, #4]
 108              		.loc 1 514 0
 109 001c A568     		ldr	r5, [r4, #8]
 110              		.loc 1 519 0
 111 001e CA68     		ldr	r2, [r1, #12]
 112              		.loc 1 509 0
 113 0020 6069     		ldr	r0, [r4, #20]
 114 0022 0F68     		ldr	r7, [r1]
ARM GAS  /var/folders/m4/4md61f0s1_g0rzfghffqnxvr0000gn/T//ccN3TxNM.s 			page 3


 115              		.loc 1 515 0
 116 0024 CE6A     		ldr	r6, [r1, #44]
 117              		.loc 1 509 0
 118 0026 B0FBF7F0 		udiv	r0, r0, r7
 119              		.loc 1 519 0
 120 002a 02F00F02 		and	r2, r2, #15
 121              		.loc 1 514 0
 122 002e 6C1E     		subs	r4, r5, #1
 123              	.LVL3:
 124              		.loc 1 509 0
 125 0030 0138     		subs	r0, r0, #1
 126              	.LVL4:
 127              		.loc 1 519 0
 128 0032 012A     		cmp	r2, #1
 129              		.loc 1 513 0
 130 0034 9862     		str	r0, [r3, #40]
 131              		.loc 1 514 0
 132 0036 DC62     		str	r4, [r3, #44]
 133              		.loc 1 515 0
 134 0038 5E60     		str	r6, [r3, #4]
 135              	.LVL5:
 136              		.loc 1 519 0
 137 003a 03D0     		beq	.L9
 138              		.loc 1 518 0
 139 003c 022A     		cmp	r2, #2
 140 003e 0CBF     		ite	eq
 141 0040 0322     		moveq	r2, #3
 142 0042 0022     		movne	r2, #0
 143              	.L9:
 144              	.LVL6:
 145              		.loc 1 527 0
 146 0044 4869     		ldr	r0, [r1, #20]
 147              	.LVL7:
 148 0046 00F00F00 		and	r0, r0, #15
 149 004a 0128     		cmp	r0, #1
 150 004c 26D0     		beq	.L13
 151 004e 0228     		cmp	r0, #2
 152 0050 22D0     		beq	.L35
 153              	.L12:
 154              		.loc 1 535 0
 155 0052 C869     		ldr	r0, [r1, #28]
 156 0054 00F00F00 		and	r0, r0, #15
 157 0058 0128     		cmp	r0, #1
 158 005a 1AD0     		beq	.L16
 159 005c 0228     		cmp	r0, #2
 160 005e 16D0     		beq	.L36
 161              	.L15:
 162              		.loc 1 543 0
 163 0060 486A     		ldr	r0, [r1, #36]
 164 0062 00F00F00 		and	r0, r0, #15
 165 0066 0128     		cmp	r0, #1
 166 0068 03D0     		beq	.L19
 167 006a 0228     		cmp	r0, #2
 168 006c 03D1     		bne	.L18
 169              		.loc 1 545 0
 170 006e 42F40052 		orr	r2, r2, #8192
 171              	.LVL8:
ARM GAS  /var/folders/m4/4md61f0s1_g0rzfghffqnxvr0000gn/T//ccN3TxNM.s 			page 4


 172              	.L19:
 173              		.loc 1 547 0
 174 0072 42F48052 		orr	r2, r2, #4096
 175              	.LVL9:
 176              	.L18:
 177              		.loc 1 591 0
 178 0076 096B     		ldr	r1, [r1, #48]
 179              		.loc 1 588 0
 180 0078 1A62     		str	r2, [r3, #32]
 181              		.loc 1 589 0
 182 007a 0124     		movs	r4, #1
 183              		.loc 1 591 0
 184 007c 21F0FF02 		bic	r2, r1, #255
 185              	.LVL10:
 186              		.loc 1 590 0
 187 0080 0020     		movs	r0, #0
 188              		.loc 1 601 0
 189 0082 8521     		movs	r1, #133
 190              		.loc 1 589 0
 191 0084 5C61     		str	r4, [r3, #20]
 192              	.LVL11:
 193              		.loc 1 590 0
 194 0086 1861     		str	r0, [r3, #16]
 195              		.loc 1 591 0
 196 0088 DA60     		str	r2, [r3, #12]
 197              		.loc 1 601 0
 198 008a 1960     		str	r1, [r3]
 199 008c F8BD     		pop	{r3, r4, r5, r6, r7, pc}
 200              	.LVL12:
 201              	.L36:
 202              		.loc 1 537 0
 203 008e 42F40072 		orr	r2, r2, #512
 204              	.LVL13:
 205              	.L16:
 206              		.loc 1 539 0
 207 0092 42F48072 		orr	r2, r2, #256
 208              	.LVL14:
 209 0096 E3E7     		b	.L15
 210              	.L35:
 211              		.loc 1 529 0
 212 0098 42F02002 		orr	r2, r2, #32
 213              	.LVL15:
 214              	.L13:
 215              		.loc 1 531 0
 216 009c 42F01002 		orr	r2, r2, #16
 217              	.LVL16:
 218 00a0 D7E7     		b	.L12
 219              	.LVL17:
 220              	.L34:
 221              		.loc 1 436 0
 222 00a2 0D4B     		ldr	r3, .L38
 223 00a4 9842     		cmp	r0, r3
 224 00a6 05D0     		beq	.L37
 225              	.LVL18:
 226              	.L7:
 227              		.loc 1 483 0
 228 00a8 A369     		ldr	r3, [r4, #24]
ARM GAS  /var/folders/m4/4md61f0s1_g0rzfghffqnxvr0000gn/T//ccN3TxNM.s 			page 5


 229 00aa 46F66802 		movw	r2, #26728
 230 00ae 9A61     		str	r2, [r3, #24]
 231              		.loc 1 485 0
 232 00b0 DA61     		str	r2, [r3, #28]
 233 00b2 B2E7     		b	.L8
 234              	.LVL19:
 235              	.L37:
 236              		.loc 1 437 0
 237 00b4 094B     		ldr	r3, .L38+4
 238 00b6 1A6C     		ldr	r2, [r3, #64]
 239 00b8 42F00802 		orr	r2, r2, #8
 240 00bc 1A64     		str	r2, [r3, #64]
 241              		.loc 1 438 0
 242 00be 1A6A     		ldr	r2, [r3, #32]
 243 00c0 0020     		movs	r0, #0
 244              	.LVL20:
 245 00c2 42F00802 		orr	r2, r2, #8
 246 00c6 1A62     		str	r2, [r3, #32]
 247              		.loc 1 440 0
 248 00c8 0721     		movs	r1, #7
 249              		.loc 1 438 0
 250 00ca 1862     		str	r0, [r3, #32]
 251              		.loc 1 440 0
 252 00cc 3220     		movs	r0, #50
 253 00ce FFF7FEFF 		bl	nvicEnableVector
 254              	.LVL21:
 255              		.loc 1 445 0
 256 00d2 034B     		ldr	r3, .L38+8
 257 00d4 6361     		str	r3, [r4, #20]
 258 00d6 E7E7     		b	.L7
 259              	.L39:
 260              		.align	2
 261              	.L38:
 262 00d8 00000000 		.word	.LANCHOR0
 263 00dc 00380240 		.word	1073887232
 264 00e0 00BD0105 		.word	84000000
 265              		.cfi_endproc
 266              	.LFE270:
 267              		.size	pwm_lld_start, .-pwm_lld_start
 268              		.section	.text.pwm_lld_stop,"ax",%progbits
 269              		.align	2
 270              		.p2align 4,,15
 271              		.global	pwm_lld_stop
 272              		.thumb
 273              		.thumb_func
 274              		.type	pwm_lld_stop, %function
 275              	pwm_lld_stop:
 276              	.LFB271:
 277              		.loc 1 612 0
 278              		.cfi_startproc
 279              		@ args = 0, pretend = 0, frame = 0
 280              		@ frame_needed = 0, uses_anonymous_args = 0
 281              	.LVL22:
 282 0000 08B5     		push	{r3, lr}
 283              		.cfi_def_cfa_offset 8
 284              		.cfi_offset 3, -8
 285              		.cfi_offset 14, -4
ARM GAS  /var/folders/m4/4md61f0s1_g0rzfghffqnxvr0000gn/T//ccN3TxNM.s 			page 6


 286              		.loc 1 615 0
 287 0002 0378     		ldrb	r3, [r0]	@ zero_extendqisi2
 288 0004 022B     		cmp	r3, #2
 289 0006 00D0     		beq	.L45
 290              	.LVL23:
 291              	.L40:
 292 0008 08BD     		pop	{r3, pc}
 293              	.LVL24:
 294              	.L45:
 295              		.loc 1 661 0
 296 000a 0849     		ldr	r1, .L46
 297              		.loc 1 616 0
 298 000c 8369     		ldr	r3, [r0, #24]
 299 000e 0022     		movs	r2, #0
 300              		.loc 1 661 0
 301 0010 8842     		cmp	r0, r1
 302              		.loc 1 616 0
 303 0012 1A60     		str	r2, [r3]
 304              		.loc 1 617 0
 305 0014 DA60     		str	r2, [r3, #12]
 306              		.loc 1 618 0
 307 0016 1A61     		str	r2, [r3, #16]
 308              		.loc 1 661 0
 309 0018 F6D1     		bne	.L40
 310              		.loc 1 663 0
 311 001a 3220     		movs	r0, #50
 312              	.LVL25:
 313 001c FFF7FEFF 		bl	nvicDisableVector
 314              	.LVL26:
 315              		.loc 1 665 0
 316 0020 034A     		ldr	r2, .L46+4
 317 0022 136C     		ldr	r3, [r2, #64]
 318 0024 23F00803 		bic	r3, r3, #8
 319 0028 1364     		str	r3, [r2, #64]
 320              		.loc 1 688 0
 321 002a EDE7     		b	.L40
 322              	.L47:
 323              		.align	2
 324              	.L46:
 325 002c 00000000 		.word	.LANCHOR0
 326 0030 00380240 		.word	1073887232
 327              		.cfi_endproc
 328              	.LFE271:
 329              		.size	pwm_lld_stop, .-pwm_lld_stop
 330              		.section	.text.pwm_lld_enable_channel,"ax",%progbits
 331              		.align	2
 332              		.p2align 4,,15
 333              		.global	pwm_lld_enable_channel
 334              		.thumb
 335              		.thumb_func
 336              		.type	pwm_lld_enable_channel, %function
 337              	pwm_lld_enable_channel:
 338              	.LFB272:
 339              		.loc 1 705 0
 340              		.cfi_startproc
 341              		@ args = 0, pretend = 0, frame = 0
 342              		@ frame_needed = 0, uses_anonymous_args = 0
ARM GAS  /var/folders/m4/4md61f0s1_g0rzfghffqnxvr0000gn/T//ccN3TxNM.s 			page 7


 343              		@ link register save eliminated.
 344              	.LVL27:
 345              		.loc 1 709 0
 346 0000 8369     		ldr	r3, [r0, #24]
 347 0002 0C31     		adds	r1, r1, #12
 348              	.LVL28:
 349 0004 03EB8103 		add	r3, r3, r1, lsl #2
 350 0008 5A60     		str	r2, [r3, #4]
 351 000a 7047     		bx	lr
 352              		.cfi_endproc
 353              	.LFE272:
 354              		.size	pwm_lld_enable_channel, .-pwm_lld_enable_channel
 355              		.section	.text.pwm_lld_disable_channel,"ax",%progbits
 356              		.align	2
 357              		.p2align 4,,15
 358              		.global	pwm_lld_disable_channel
 359              		.thumb
 360              		.thumb_func
 361              		.type	pwm_lld_disable_channel, %function
 362              	pwm_lld_disable_channel:
 363              	.LFB273:
 364              		.loc 1 730 0
 365              		.cfi_startproc
 366              		@ args = 0, pretend = 0, frame = 0
 367              		@ frame_needed = 0, uses_anonymous_args = 0
 368              		@ link register save eliminated.
 369              	.LVL29:
 370              		.loc 1 733 0
 371 0000 8369     		ldr	r3, [r0, #24]
 372 0002 01F10C02 		add	r2, r1, #12
 373 0006 03EB8202 		add	r2, r3, r2, lsl #2
 374 000a 0020     		movs	r0, #0
 375              	.LVL30:
 376 000c 5060     		str	r0, [r2, #4]
 377              		.loc 1 734 0
 378 000e DA68     		ldr	r2, [r3, #12]
 379 0010 0220     		movs	r0, #2
 380 0012 00FA01F1 		lsl	r1, r0, r1
 381              	.LVL31:
 382 0016 22EA0101 		bic	r1, r2, r1
 383 001a D960     		str	r1, [r3, #12]
 384 001c 7047     		bx	lr
 385              		.cfi_endproc
 386              	.LFE273:
 387              		.size	pwm_lld_disable_channel, .-pwm_lld_disable_channel
 388 001e 00BF     		.section	.text.pwm_lld_enable_periodic_notification,"ax",%progbits
 389              		.align	2
 390              		.p2align 4,,15
 391              		.global	pwm_lld_enable_periodic_notification
 392              		.thumb
 393              		.thumb_func
 394              		.type	pwm_lld_enable_periodic_notification, %function
 395              	pwm_lld_enable_periodic_notification:
 396              	.LFB274:
 397              		.loc 1 754 0
 398              		.cfi_startproc
 399              		@ args = 0, pretend = 0, frame = 0
ARM GAS  /var/folders/m4/4md61f0s1_g0rzfghffqnxvr0000gn/T//ccN3TxNM.s 			page 8


 400              		@ frame_needed = 0, uses_anonymous_args = 0
 401              		@ link register save eliminated.
 402              	.LVL32:
 403              		.loc 1 755 0
 404 0000 8369     		ldr	r3, [r0, #24]
 405 0002 DA68     		ldr	r2, [r3, #12]
 406              	.LVL33:
 407              		.loc 1 759 0
 408 0004 D107     		lsls	r1, r2, #31
 409 0006 06D4     		bmi	.L50
 410              		.loc 1 760 0
 411 0008 42F00102 		orr	r2, r2, #1
 412              	.LVL34:
 413 000c DA60     		str	r2, [r3, #12]
 414              		.loc 1 761 0
 415 000e 1A69     		ldr	r2, [r3, #16]
 416 0010 02F00102 		and	r2, r2, #1
 417 0014 1A61     		str	r2, [r3, #16]
 418              	.L50:
 419 0016 7047     		bx	lr
 420              		.cfi_endproc
 421              	.LFE274:
 422              		.size	pwm_lld_enable_periodic_notification, .-pwm_lld_enable_periodic_notification
 423              		.section	.text.pwm_lld_disable_periodic_notification,"ax",%progbits
 424              		.align	2
 425              		.p2align 4,,15
 426              		.global	pwm_lld_disable_periodic_notification
 427              		.thumb
 428              		.thumb_func
 429              		.type	pwm_lld_disable_periodic_notification, %function
 430              	pwm_lld_disable_periodic_notification:
 431              	.LFB275:
 432              		.loc 1 774 0
 433              		.cfi_startproc
 434              		@ args = 0, pretend = 0, frame = 0
 435              		@ frame_needed = 0, uses_anonymous_args = 0
 436              		@ link register save eliminated.
 437              	.LVL35:
 438              		.loc 1 776 0
 439 0000 8269     		ldr	r2, [r0, #24]
 440 0002 D368     		ldr	r3, [r2, #12]
 441 0004 23F00103 		bic	r3, r3, #1
 442 0008 D360     		str	r3, [r2, #12]
 443 000a 7047     		bx	lr
 444              		.cfi_endproc
 445              	.LFE275:
 446              		.size	pwm_lld_disable_periodic_notification, .-pwm_lld_disable_periodic_notification
 447              		.section	.text.pwm_lld_enable_channel_notification,"ax",%progbits
 448              		.align	2
 449              		.p2align 4,,15
 450              		.global	pwm_lld_enable_channel_notification
 451              		.thumb
 452              		.thumb_func
 453              		.type	pwm_lld_enable_channel_notification, %function
 454              	pwm_lld_enable_channel_notification:
 455              	.LFB276:
 456              		.loc 1 791 0
ARM GAS  /var/folders/m4/4md61f0s1_g0rzfghffqnxvr0000gn/T//ccN3TxNM.s 			page 9


 457              		.cfi_startproc
 458              		@ args = 0, pretend = 0, frame = 0
 459              		@ frame_needed = 0, uses_anonymous_args = 0
 460              		@ link register save eliminated.
 461              	.LVL36:
 462              		.loc 1 792 0
 463 0000 8069     		ldr	r0, [r0, #24]
 464              	.LVL37:
 465              		.loc 1 801 0
 466 0002 0223     		movs	r3, #2
 467              		.loc 1 792 0
 468 0004 C268     		ldr	r2, [r0, #12]
 469              	.LVL38:
 470              		.loc 1 801 0
 471 0006 03FA01F1 		lsl	r1, r3, r1
 472              	.LVL39:
 473 000a 0A42     		tst	r2, r1
 474 000c 03D1     		bne	.L53
 475              		.loc 1 802 0
 476 000e 0A43     		orrs	r2, r2, r1
 477              	.LVL40:
 478              		.loc 1 803 0
 479 0010 C943     		mvns	r1, r1
 480              		.loc 1 802 0
 481 0012 C260     		str	r2, [r0, #12]
 482              		.loc 1 803 0
 483 0014 0161     		str	r1, [r0, #16]
 484              	.L53:
 485 0016 7047     		bx	lr
 486              		.cfi_endproc
 487              	.LFE276:
 488              		.size	pwm_lld_enable_channel_notification, .-pwm_lld_enable_channel_notification
 489              		.section	.text.pwm_lld_disable_channel_notification,"ax",%progbits
 490              		.align	2
 491              		.p2align 4,,15
 492              		.global	pwm_lld_disable_channel_notification
 493              		.thumb
 494              		.thumb_func
 495              		.type	pwm_lld_disable_channel_notification, %function
 496              	pwm_lld_disable_channel_notification:
 497              	.LFB277:
 498              		.loc 1 819 0
 499              		.cfi_startproc
 500              		@ args = 0, pretend = 0, frame = 0
 501              		@ frame_needed = 0, uses_anonymous_args = 0
 502              		@ link register save eliminated.
 503              	.LVL41:
 504              		.loc 1 821 0
 505 0000 8069     		ldr	r0, [r0, #24]
 506              	.LVL42:
 507 0002 0222     		movs	r2, #2
 508 0004 C368     		ldr	r3, [r0, #12]
 509 0006 02FA01F1 		lsl	r1, r2, r1
 510              	.LVL43:
 511 000a 23EA0103 		bic	r3, r3, r1
 512 000e C360     		str	r3, [r0, #12]
 513 0010 7047     		bx	lr
ARM GAS  /var/folders/m4/4md61f0s1_g0rzfghffqnxvr0000gn/T//ccN3TxNM.s 			page 10


 514              		.cfi_endproc
 515              	.LFE277:
 516              		.size	pwm_lld_disable_channel_notification, .-pwm_lld_disable_channel_notification
 517 0012 00BF     		.section	.text.pwm_lld_serve_interrupt,"ax",%progbits
 518              		.align	2
 519              		.p2align 4,,15
 520              		.global	pwm_lld_serve_interrupt
 521              		.thumb
 522              		.thumb_func
 523              		.type	pwm_lld_serve_interrupt, %function
 524              	pwm_lld_serve_interrupt:
 525              	.LFB278:
 526              		.loc 1 834 0
 527              		.cfi_startproc
 528              		@ args = 0, pretend = 0, frame = 0
 529              		@ frame_needed = 0, uses_anonymous_args = 0
 530              	.LVL44:
 531              		.loc 1 837 0
 532 0000 8369     		ldr	r3, [r0, #24]
 533              		.loc 1 834 0
 534 0002 70B5     		push	{r4, r5, r6, lr}
 535              		.cfi_def_cfa_offset 16
 536              		.cfi_offset 4, -16
 537              		.cfi_offset 5, -12
 538              		.cfi_offset 6, -8
 539              		.cfi_offset 14, -4
 540              		.loc 1 837 0
 541 0004 1C69     		ldr	r4, [r3, #16]
 542              	.LVL45:
 543              		.loc 1 838 0
 544 0006 DA68     		ldr	r2, [r3, #12]
 545 0008 1440     		ands	r4, r4, r2
 546              	.LVL46:
 547              		.loc 1 839 0
 548 000a E2B2     		uxtb	r2, r4
 549 000c D243     		mvns	r2, r2
 550              		.loc 1 840 0
 551 000e A607     		lsls	r6, r4, #30
 552              		.loc 1 834 0
 553 0010 0546     		mov	r5, r0
 554              		.loc 1 839 0
 555 0012 1A61     		str	r2, [r3, #16]
 556              		.loc 1 840 0
 557 0014 03D5     		bpl	.L57
 558              		.loc 1 841 0 discriminator 1
 559 0016 4368     		ldr	r3, [r0, #4]
 560 0018 1B69     		ldr	r3, [r3, #16]
 561              		.loc 1 840 0 discriminator 1
 562 001a 03B1     		cbz	r3, .L57
 563              		.loc 1 842 0
 564 001c 9847     		blx	r3
 565              	.LVL47:
 566              	.L57:
 567              		.loc 1 843 0
 568 001e 6007     		lsls	r0, r4, #29
 569 0020 04D5     		bpl	.L58
 570              		.loc 1 844 0 discriminator 1
ARM GAS  /var/folders/m4/4md61f0s1_g0rzfghffqnxvr0000gn/T//ccN3TxNM.s 			page 11


 571 0022 6B68     		ldr	r3, [r5, #4]
 572 0024 9B69     		ldr	r3, [r3, #24]
 573              		.loc 1 843 0 discriminator 1
 574 0026 0BB1     		cbz	r3, .L58
 575              		.loc 1 845 0
 576 0028 2846     		mov	r0, r5
 577 002a 9847     		blx	r3
 578              	.LVL48:
 579              	.L58:
 580              		.loc 1 846 0
 581 002c 2107     		lsls	r1, r4, #28
 582 002e 04D5     		bpl	.L59
 583              		.loc 1 847 0 discriminator 1
 584 0030 6B68     		ldr	r3, [r5, #4]
 585 0032 1B6A     		ldr	r3, [r3, #32]
 586              		.loc 1 846 0 discriminator 1
 587 0034 0BB1     		cbz	r3, .L59
 588              		.loc 1 848 0
 589 0036 2846     		mov	r0, r5
 590 0038 9847     		blx	r3
 591              	.LVL49:
 592              	.L59:
 593              		.loc 1 849 0
 594 003a E206     		lsls	r2, r4, #27
 595 003c 04D5     		bpl	.L60
 596              		.loc 1 850 0 discriminator 1
 597 003e 6B68     		ldr	r3, [r5, #4]
 598 0040 9B6A     		ldr	r3, [r3, #40]
 599              		.loc 1 849 0 discriminator 1
 600 0042 0BB1     		cbz	r3, .L60
 601              		.loc 1 851 0
 602 0044 2846     		mov	r0, r5
 603 0046 9847     		blx	r3
 604              	.LVL50:
 605              	.L60:
 606              		.loc 1 852 0
 607 0048 E307     		lsls	r3, r4, #31
 608 004a 06D5     		bpl	.L56
 609              		.loc 1 852 0 is_stmt 0 discriminator 1
 610 004c 6B68     		ldr	r3, [r5, #4]
 611 004e 9B68     		ldr	r3, [r3, #8]
 612 0050 1BB1     		cbz	r3, .L56
 613              		.loc 1 853 0 is_stmt 1
 614 0052 2846     		mov	r0, r5
 615              		.loc 1 854 0
 616 0054 BDE87040 		pop	{r4, r5, r6, lr}
 617              		.cfi_remember_state
 618              		.cfi_restore 14
 619              		.cfi_restore 6
 620              		.cfi_restore 5
 621              		.cfi_restore 4
 622              		.cfi_def_cfa_offset 0
 623              	.LVL51:
 624              		.loc 1 853 0
 625 0058 1847     		bx	r3	@ indirect register sibling call
 626              	.LVL52:
 627              	.L56:
ARM GAS  /var/folders/m4/4md61f0s1_g0rzfghffqnxvr0000gn/T//ccN3TxNM.s 			page 12


 628              		.cfi_restore_state
 629 005a 70BD     		pop	{r4, r5, r6, pc}
 630              		.cfi_endproc
 631              	.LFE278:
 632              		.size	pwm_lld_serve_interrupt, .-pwm_lld_serve_interrupt
 633              		.section	.text.Vector108,"ax",%progbits
 634              		.align	2
 635              		.p2align 4,,15
 636              		.global	Vector108
 637              		.thumb
 638              		.thumb_func
 639              		.type	Vector108, %function
 640              	Vector108:
 641              	.LFB268:
 642              		.loc 1 222 0
 643              		.cfi_startproc
 644              		@ args = 0, pretend = 0, frame = 0
 645              		@ frame_needed = 0, uses_anonymous_args = 0
 646 0000 08B5     		push	{r3, lr}
 647              		.cfi_def_cfa_offset 8
 648              		.cfi_offset 3, -8
 649              		.cfi_offset 14, -4
 650              		.loc 1 226 0
 651 0002 0348     		ldr	r0, .L95
 652 0004 FFF7FEFF 		bl	pwm_lld_serve_interrupt
 653              	.LVL53:
 654              		.loc 1 229 0
 655 0008 BDE80840 		pop	{r3, lr}
 656              		.cfi_restore 14
 657              		.cfi_restore 3
 658              		.cfi_def_cfa_offset 0
 659              		.loc 1 228 0
 660 000c FFF7FEBF 		b	_port_irq_epilogue
 661              	.LVL54:
 662              	.L96:
 663              		.align	2
 664              	.L95:
 665 0010 00000000 		.word	.LANCHOR0
 666              		.cfi_endproc
 667              	.LFE268:
 668              		.size	Vector108, .-Vector108
 669              		.global	PWMD5
 670              		.section	.bss.PWMD5,"aw",%nobits
 671              		.align	2
 672              		.set	.LANCHOR0,. + 0
 673              		.type	PWMD5, %object
 674              		.size	PWMD5, 28
 675              	PWMD5:
 676 0000 00000000 		.space	28
 676      00000000 
 676      00000000 
 676      00000000 
 676      00000000 
 677              		.text
 678              	.Letext0:
 679              		.file 2 "/opt/homebrew-cask/Caskroom/gcc-arm-embedded/5_2-2015q4,20151219/gcc-arm-none-eabi-5_2-20
 680              		.file 3 "/opt/homebrew-cask/Caskroom/gcc-arm-embedded/5_2-2015q4,20151219/gcc-arm-none-eabi-5_2-20
ARM GAS  /var/folders/m4/4md61f0s1_g0rzfghffqnxvr0000gn/T//ccN3TxNM.s 			page 13


 681              		.file 4 "/opt/homebrew-cask/Caskroom/gcc-arm-embedded/5_2-2015q4,20151219/gcc-arm-none-eabi-5_2-20
 682              		.file 5 "ChibiOS_16.1.4/os/rt/ports/ARMCMx/compilers/GCC/chtypes.h"
 683              		.file 6 "ChibiOS_16.1.4/os/rt/include/chsystypes.h"
 684              		.file 7 "ChibiOS_16.1.4/os/rt/include/chschd.h"
 685              		.file 8 "ChibiOS_16.1.4/os/ext/CMSIS/ST/STM32F4xx/stm32f405xx.h"
 686              		.file 9 "ChibiOS_16.1.4/os/rt/ports/ARMCMx/chcore.h"
 687              		.file 10 "ChibiOS_16.1.4/os/rt/ports/ARMCMx/chcore_v7m.h"
 688              		.file 11 "ChibiOS_16.1.4/os/rt/include/chtm.h"
 689              		.file 12 "ChibiOS_16.1.4/os/rt/include/chsem.h"
 690              		.file 13 "ChibiOS_16.1.4/os/rt/include/chmtx.h"
 691              		.file 14 "ChibiOS_16.1.4/os/hal/include/pwm.h"
 692              		.file 15 "ChibiOS_16.1.4/os/hal/ports/STM32/LLD/TIMv1/pwm_lld.h"
 693              		.file 16 "ChibiOS_16.1.4/os/hal/ports/STM32/LLD/TIMv1/stm32_tim.h"
 694              		.file 17 "ChibiOS_16.1.4/os/ext/CMSIS/include/core_cm4.h"
 695              		.file 18 "ChibiOS_16.1.4/os/hal/ports/common/ARMCMx/nvic.h"