ARM GAS  /var/folders/m4/4md61f0s1_g0rzfghffqnxvr0000gn/T//ccB9oxNV.s 			page 1


   1              		.syntax unified
   2              		.cpu cortex-m4
   3              		.eabi_attribute 27, 1
   4              		.eabi_attribute 28, 1
   5              		.fpu fpv4-sp-d16
   6              		.eabi_attribute 20, 1
   7              		.eabi_attribute 21, 1
   8              		.eabi_attribute 23, 3
   9              		.eabi_attribute 24, 1
  10              		.eabi_attribute 25, 1
  11              		.eabi_attribute 26, 1
  12              		.eabi_attribute 30, 2
  13              		.eabi_attribute 34, 1
  14              		.eabi_attribute 18, 4
  15              		.thumb
  16              		.syntax unified
  17              		.file	"serial_usb.c"
  18              		.text
  19              	.Ltext0:
  20              		.cfi_sections	.debug_frame
  21              		.section	.text.obnotify,"ax",%progbits
  22              		.align	2
  23              		.p2align 4,,15
  24              		.thumb
  25              		.thumb_func
  26              		.type	obnotify, %function
  27              	obnotify:
  28              	.LFB277:
  29              		.file 1 "ChibiOS_16.1.4/os/hal/src/serial_usb.c"
  30              		.loc 1 168 0
  31              		.cfi_startproc
  32              		@ args = 0, pretend = 0, frame = 8
  33              		@ frame_needed = 0, uses_anonymous_args = 0
  34              	.LVL0:
  35 0000 10B5     		push	{r4, lr}
  36              		.cfi_def_cfa_offset 8
  37              		.cfi_offset 4, -8
  38              		.cfi_offset 14, -4
  39              		.loc 1 170 0
  40 0002 046B     		ldr	r4, [r0, #48]
  41              	.LVL1:
  42              		.loc 1 174 0
  43 0004 D4F88424 		ldr	r2, [r4, #1156]
  44 0008 1368     		ldr	r3, [r2]
  45 000a 1978     		ldrb	r1, [r3]	@ zero_extendqisi2
  46 000c 0429     		cmp	r1, #4
  47              		.loc 1 168 0
  48 000e 82B0     		sub	sp, sp, #8
  49              		.cfi_def_cfa_offset 16
  50              		.loc 1 174 0
  51 0010 01D0     		beq	.L12
  52              	.LVL2:
  53              	.L1:
  54              		.loc 1 188 0
  55 0012 02B0     		add	sp, sp, #8
  56              		.cfi_remember_state
  57              		.cfi_def_cfa_offset 8
ARM GAS  /var/folders/m4/4md61f0s1_g0rzfghffqnxvr0000gn/T//ccB9oxNV.s 			page 2


  58              		@ sp needed
  59 0014 10BD     		pop	{r4, pc}
  60              	.LVL3:
  61              	.L12:
  62              		.cfi_restore_state
  63              		.loc 1 174 0 discriminator 1
  64 0016 217A     		ldrb	r1, [r4, #8]	@ zero_extendqisi2
  65 0018 0229     		cmp	r1, #2
  66 001a FAD1     		bne	.L1
  67              		.loc 1 180 0
  68 001c 1179     		ldrb	r1, [r2, #4]	@ zero_extendqisi2
  69 001e 1A89     		ldrh	r2, [r3, #8]
  70 0020 0123     		movs	r3, #1
  71 0022 8B40     		lsls	r3, r3, r1
  72 0024 1342     		tst	r3, r2
  73 0026 F4D1     		bne	.L1
  74              	.LBB124:
  75              		.loc 1 182 0
  76 0028 01A9     		add	r1, sp, #4
  77 002a 04F14000 		add	r0, r4, #64
  78              	.LVL4:
  79 002e FFF7FEFF 		bl	obqGetFullBufferI
  80              	.LVL5:
  81              		.loc 1 183 0
  82 0032 0246     		mov	r2, r0
  83 0034 0028     		cmp	r0, #0
  84 0036 ECD0     		beq	.L1
  85              		.loc 1 185 0
  86 0038 D4F88404 		ldr	r0, [r4, #1156]
  87              	.LVL6:
  88 003c 019B     		ldr	r3, [sp, #4]
  89 003e 0179     		ldrb	r1, [r0, #4]	@ zero_extendqisi2
  90 0040 0068     		ldr	r0, [r0]
  91 0042 FFF7FEFF 		bl	usbStartTransmitI
  92              	.LVL7:
  93 0046 E4E7     		b	.L1
  94              	.LBE124:
  95              		.cfi_endproc
  96              	.LFE277:
  97              		.size	obnotify, .-obnotify
  98              		.section	.text.ibnotify,"ax",%progbits
  99              		.align	2
 100              		.p2align 4,,15
 101              		.thumb
 102              		.thumb_func
 103              		.type	ibnotify, %function
 104              	ibnotify:
 105              	.LFB276:
 106              		.loc 1 141 0
 107              		.cfi_startproc
 108              		@ args = 0, pretend = 0, frame = 0
 109              		@ frame_needed = 0, uses_anonymous_args = 0
 110              	.LVL8:
 111 0000 10B5     		push	{r4, lr}
 112              		.cfi_def_cfa_offset 8
 113              		.cfi_offset 4, -8
 114              		.cfi_offset 14, -4
ARM GAS  /var/folders/m4/4md61f0s1_g0rzfghffqnxvr0000gn/T//ccB9oxNV.s 			page 3


 115              		.loc 1 142 0
 116 0002 046B     		ldr	r4, [r0, #48]
 117              	.LVL9:
 118              		.loc 1 146 0
 119 0004 D4F88424 		ldr	r2, [r4, #1156]
 120 0008 1368     		ldr	r3, [r2]
 121 000a 1978     		ldrb	r1, [r3]	@ zero_extendqisi2
 122 000c 0429     		cmp	r1, #4
 123 000e 00D0     		beq	.L21
 124              	.LVL10:
 125              	.L13:
 126 0010 10BD     		pop	{r4, pc}
 127              	.LVL11:
 128              	.L21:
 129              		.loc 1 146 0 is_stmt 0 discriminator 1
 130 0012 217A     		ldrb	r1, [r4, #8]	@ zero_extendqisi2
 131 0014 0229     		cmp	r1, #2
 132 0016 FBD1     		bne	.L13
 133              		.loc 1 152 0 is_stmt 1
 134 0018 5179     		ldrb	r1, [r2, #5]	@ zero_extendqisi2
 135 001a 5A89     		ldrh	r2, [r3, #10]
 136 001c 0123     		movs	r3, #1
 137 001e 8B40     		lsls	r3, r3, r1
 138 0020 1342     		tst	r3, r2
 139 0022 F5D1     		bne	.L13
 140              	.LBB125:
 141              		.loc 1 154 0
 142 0024 04F10C00 		add	r0, r4, #12
 143              	.LVL12:
 144 0028 FFF7FEFF 		bl	ibqGetEmptyBufferI
 145              	.LVL13:
 146              		.loc 1 155 0
 147 002c 0028     		cmp	r0, #0
 148 002e EFD0     		beq	.L13
 149              		.loc 1 157 0
 150 0030 D4F88434 		ldr	r3, [r4, #1156]
 151 0034 0246     		mov	r2, r0
 152 0036 5979     		ldrb	r1, [r3, #5]	@ zero_extendqisi2
 153 0038 1868     		ldr	r0, [r3]
 154              	.LVL14:
 155              	.LBE125:
 156              		.loc 1 161 0
 157 003a BDE81040 		pop	{r4, lr}
 158              		.cfi_restore 14
 159              		.cfi_restore 4
 160              		.cfi_def_cfa_offset 0
 161              	.LVL15:
 162              	.LBB126:
 163              		.loc 1 157 0
 164 003e 4FF48073 		mov	r3, #256
 165 0042 FFF7FEBF 		b	usbStartReceiveI
 166              	.LVL16:
 167              	.LBE126:
 168              		.cfi_endproc
 169              	.LFE276:
 170              		.size	ibnotify, .-ibnotify
 171 0046 00BF     		.section	.text.readt,"ax",%progbits
ARM GAS  /var/folders/m4/4md61f0s1_g0rzfghffqnxvr0000gn/T//ccB9oxNV.s 			page 4


 172              		.align	2
 173              		.p2align 4,,15
 174              		.thumb
 175              		.thumb_func
 176              		.type	readt, %function
 177              	readt:
 178              	.LFB275:
 179              		.loc 1 122 0
 180              		.cfi_startproc
 181              		@ args = 0, pretend = 0, frame = 0
 182              		@ frame_needed = 0, uses_anonymous_args = 0
 183              		@ link register save eliminated.
 184              	.LVL17:
 185 0000 10B4     		push	{r4}
 186              		.cfi_def_cfa_offset 4
 187              		.cfi_offset 4, -4
 188              		.loc 1 124 0
 189 0002 D0F88444 		ldr	r4, [r0, #1156]
 190 0006 2468     		ldr	r4, [r4]
 191 0008 2478     		ldrb	r4, [r4]	@ zero_extendqisi2
 192 000a 042C     		cmp	r4, #4
 193 000c 03D0     		beq	.L25
 194              		.loc 1 129 0
 195 000e 0020     		movs	r0, #0
 196              	.LVL18:
 197 0010 5DF8044B 		ldr	r4, [sp], #4
 198              		.cfi_remember_state
 199              		.cfi_restore 4
 200              		.cfi_def_cfa_offset 0
 201 0014 7047     		bx	lr
 202              	.LVL19:
 203              	.L25:
 204              		.cfi_restore_state
 205              		.loc 1 128 0
 206 0016 0C30     		adds	r0, r0, #12
 207              	.LVL20:
 208              		.loc 1 129 0
 209 0018 5DF8044B 		ldr	r4, [sp], #4
 210              		.cfi_restore 4
 211              		.cfi_def_cfa_offset 0
 212              		.loc 1 128 0
 213 001c FFF7FEBF 		b	ibqReadTimeout
 214              	.LVL21:
 215              		.cfi_endproc
 216              	.LFE275:
 217              		.size	readt, .-readt
 218              		.section	.text.writet,"ax",%progbits
 219              		.align	2
 220              		.p2align 4,,15
 221              		.thumb
 222              		.thumb_func
 223              		.type	writet, %function
 224              	writet:
 225              	.LFB274:
 226              		.loc 1 113 0
 227              		.cfi_startproc
 228              		@ args = 0, pretend = 0, frame = 0
ARM GAS  /var/folders/m4/4md61f0s1_g0rzfghffqnxvr0000gn/T//ccB9oxNV.s 			page 5


 229              		@ frame_needed = 0, uses_anonymous_args = 0
 230              		@ link register save eliminated.
 231              	.LVL22:
 232 0000 10B4     		push	{r4}
 233              		.cfi_def_cfa_offset 4
 234              		.cfi_offset 4, -4
 235              		.loc 1 115 0
 236 0002 D0F88444 		ldr	r4, [r0, #1156]
 237 0006 2468     		ldr	r4, [r4]
 238 0008 2478     		ldrb	r4, [r4]	@ zero_extendqisi2
 239 000a 042C     		cmp	r4, #4
 240 000c 03D0     		beq	.L29
 241              		.loc 1 120 0
 242 000e 0020     		movs	r0, #0
 243              	.LVL23:
 244 0010 5DF8044B 		ldr	r4, [sp], #4
 245              		.cfi_remember_state
 246              		.cfi_restore 4
 247              		.cfi_def_cfa_offset 0
 248 0014 7047     		bx	lr
 249              	.LVL24:
 250              	.L29:
 251              		.cfi_restore_state
 252              		.loc 1 119 0
 253 0016 4030     		adds	r0, r0, #64
 254              	.LVL25:
 255              		.loc 1 120 0
 256 0018 5DF8044B 		ldr	r4, [sp], #4
 257              		.cfi_restore 4
 258              		.cfi_def_cfa_offset 0
 259              		.loc 1 119 0
 260 001c FFF7FEBF 		b	obqWriteTimeout
 261              	.LVL26:
 262              		.cfi_endproc
 263              	.LFE274:
 264              		.size	writet, .-writet
 265              		.section	.text.gett,"ax",%progbits
 266              		.align	2
 267              		.p2align 4,,15
 268              		.thumb
 269              		.thumb_func
 270              		.type	gett, %function
 271              	gett:
 272              	.LFB273:
 273              		.loc 1 104 0
 274              		.cfi_startproc
 275              		@ args = 0, pretend = 0, frame = 0
 276              		@ frame_needed = 0, uses_anonymous_args = 0
 277              		@ link register save eliminated.
 278              	.LVL27:
 279              		.loc 1 106 0
 280 0000 D0F88434 		ldr	r3, [r0, #1156]
 281 0004 1B68     		ldr	r3, [r3]
 282 0006 1B78     		ldrb	r3, [r3]	@ zero_extendqisi2
 283 0008 042B     		cmp	r3, #4
 284 000a 02D1     		bne	.L31
 285              		.loc 1 110 0
ARM GAS  /var/folders/m4/4md61f0s1_g0rzfghffqnxvr0000gn/T//ccB9oxNV.s 			page 6


 286 000c 0C30     		adds	r0, r0, #12
 287              	.LVL28:
 288 000e FFF7FEBF 		b	ibqGetTimeout
 289              	.LVL29:
 290              	.L31:
 291              		.loc 1 111 0
 292 0012 6FF00100 		mvn	r0, #1
 293              	.LVL30:
 294 0016 7047     		bx	lr
 295              		.cfi_endproc
 296              	.LFE273:
 297              		.size	gett, .-gett
 298              		.section	.text.get,"ax",%progbits
 299              		.align	2
 300              		.p2align 4,,15
 301              		.thumb
 302              		.thumb_func
 303              		.type	get, %function
 304              	get:
 305              	.LFB271:
 306              		.loc 1 86 0
 307              		.cfi_startproc
 308              		@ args = 0, pretend = 0, frame = 0
 309              		@ frame_needed = 0, uses_anonymous_args = 0
 310              		@ link register save eliminated.
 311              	.LVL31:
 312              		.loc 1 88 0
 313 0000 D0F88434 		ldr	r3, [r0, #1156]
 314 0004 1B68     		ldr	r3, [r3]
 315 0006 1B78     		ldrb	r3, [r3]	@ zero_extendqisi2
 316 0008 042B     		cmp	r3, #4
 317 000a 04D1     		bne	.L33
 318              		.loc 1 92 0
 319 000c 0C30     		adds	r0, r0, #12
 320              	.LVL32:
 321 000e 4FF0FF31 		mov	r1, #-1
 322 0012 FFF7FEBF 		b	ibqGetTimeout
 323              	.LVL33:
 324              	.L33:
 325              		.loc 1 93 0
 326 0016 6FF00100 		mvn	r0, #1
 327              	.LVL34:
 328 001a 7047     		bx	lr
 329              		.cfi_endproc
 330              	.LFE271:
 331              		.size	get, .-get
 332              		.section	.text.putt,"ax",%progbits
 333              		.align	2
 334              		.p2align 4,,15
 335              		.thumb
 336              		.thumb_func
 337              		.type	putt, %function
 338              	putt:
 339              	.LFB272:
 340              		.loc 1 95 0
 341              		.cfi_startproc
 342              		@ args = 0, pretend = 0, frame = 0
ARM GAS  /var/folders/m4/4md61f0s1_g0rzfghffqnxvr0000gn/T//ccB9oxNV.s 			page 7


 343              		@ frame_needed = 0, uses_anonymous_args = 0
 344              		@ link register save eliminated.
 345              	.LVL35:
 346              		.loc 1 97 0
 347 0000 D0F88434 		ldr	r3, [r0, #1156]
 348 0004 1B68     		ldr	r3, [r3]
 349 0006 1B78     		ldrb	r3, [r3]	@ zero_extendqisi2
 350 0008 042B     		cmp	r3, #4
 351 000a 02D1     		bne	.L35
 352              		.loc 1 101 0
 353 000c 4030     		adds	r0, r0, #64
 354              	.LVL36:
 355 000e FFF7FEBF 		b	obqPutTimeout
 356              	.LVL37:
 357              	.L35:
 358              		.loc 1 102 0
 359 0012 6FF00100 		mvn	r0, #1
 360              	.LVL38:
 361 0016 7047     		bx	lr
 362              		.cfi_endproc
 363              	.LFE272:
 364              		.size	putt, .-putt
 365              		.section	.text.put,"ax",%progbits
 366              		.align	2
 367              		.p2align 4,,15
 368              		.thumb
 369              		.thumb_func
 370              		.type	put, %function
 371              	put:
 372              	.LFB270:
 373              		.loc 1 77 0
 374              		.cfi_startproc
 375              		@ args = 0, pretend = 0, frame = 0
 376              		@ frame_needed = 0, uses_anonymous_args = 0
 377              		@ link register save eliminated.
 378              	.LVL39:
 379              		.loc 1 79 0
 380 0000 D0F88434 		ldr	r3, [r0, #1156]
 381 0004 1B68     		ldr	r3, [r3]
 382 0006 1B78     		ldrb	r3, [r3]	@ zero_extendqisi2
 383 0008 042B     		cmp	r3, #4
 384 000a 04D1     		bne	.L37
 385              		.loc 1 83 0
 386 000c 4030     		adds	r0, r0, #64
 387              	.LVL40:
 388 000e 4FF0FF32 		mov	r2, #-1
 389 0012 FFF7FEBF 		b	obqPutTimeout
 390              	.LVL41:
 391              	.L37:
 392              		.loc 1 84 0
 393 0016 6FF00100 		mvn	r0, #1
 394              	.LVL42:
 395 001a 7047     		bx	lr
 396              		.cfi_endproc
 397              	.LFE270:
 398              		.size	put, .-put
 399              		.section	.text.read,"ax",%progbits
ARM GAS  /var/folders/m4/4md61f0s1_g0rzfghffqnxvr0000gn/T//ccB9oxNV.s 			page 8


 400              		.align	2
 401              		.p2align 4,,15
 402              		.thumb
 403              		.thumb_func
 404              		.type	read, %function
 405              	read:
 406              	.LFB269:
 407              		.loc 1 67 0
 408              		.cfi_startproc
 409              		@ args = 0, pretend = 0, frame = 0
 410              		@ frame_needed = 0, uses_anonymous_args = 0
 411              		@ link register save eliminated.
 412              	.LVL43:
 413              		.loc 1 69 0
 414 0000 D0F88434 		ldr	r3, [r0, #1156]
 415 0004 1B68     		ldr	r3, [r3]
 416 0006 1B78     		ldrb	r3, [r3]	@ zero_extendqisi2
 417 0008 042B     		cmp	r3, #4
 418 000a 01D0     		beq	.L40
 419              		.loc 1 75 0
 420 000c 0020     		movs	r0, #0
 421              	.LVL44:
 422 000e 7047     		bx	lr
 423              	.LVL45:
 424              	.L40:
 425              	.LBB129:
 426              	.LBB130:
 427              		.loc 1 73 0
 428 0010 0C30     		adds	r0, r0, #12
 429              	.LVL46:
 430 0012 4FF0FF33 		mov	r3, #-1
 431 0016 FFF7FEBF 		b	ibqReadTimeout
 432              	.LVL47:
 433              	.LBE130:
 434              	.LBE129:
 435              		.cfi_endproc
 436              	.LFE269:
 437              		.size	read, .-read
 438 001a 00BF     		.section	.text.write,"ax",%progbits
 439              		.align	2
 440              		.p2align 4,,15
 441              		.thumb
 442              		.thumb_func
 443              		.type	write, %function
 444              	write:
 445              	.LFB268:
 446              		.loc 1 57 0
 447              		.cfi_startproc
 448              		@ args = 0, pretend = 0, frame = 0
 449              		@ frame_needed = 0, uses_anonymous_args = 0
 450              		@ link register save eliminated.
 451              	.LVL48:
 452              		.loc 1 59 0
 453 0000 D0F88434 		ldr	r3, [r0, #1156]
 454 0004 1B68     		ldr	r3, [r3]
 455 0006 1B78     		ldrb	r3, [r3]	@ zero_extendqisi2
 456 0008 042B     		cmp	r3, #4
ARM GAS  /var/folders/m4/4md61f0s1_g0rzfghffqnxvr0000gn/T//ccB9oxNV.s 			page 9


 457 000a 01D0     		beq	.L43
 458              		.loc 1 65 0
 459 000c 0020     		movs	r0, #0
 460              	.LVL49:
 461 000e 7047     		bx	lr
 462              	.LVL50:
 463              	.L43:
 464              	.LBB133:
 465              	.LBB134:
 466              		.loc 1 63 0
 467 0010 4030     		adds	r0, r0, #64
 468              	.LVL51:
 469 0012 4FF0FF33 		mov	r3, #-1
 470 0016 FFF7FEBF 		b	obqWriteTimeout
 471              	.LVL52:
 472              	.LBE134:
 473              	.LBE133:
 474              		.cfi_endproc
 475              	.LFE268:
 476              		.size	write, .-write
 477 001a 00BF     		.section	.text.sduInit,"ax",%progbits
 478              		.align	2
 479              		.p2align 4,,15
 480              		.global	sduInit
 481              		.thumb
 482              		.thumb_func
 483              		.type	sduInit, %function
 484              	sduInit:
 485              	.LFB278:
 486              		.loc 1 201 0
 487              		.cfi_startproc
 488              		@ args = 0, pretend = 0, frame = 0
 489              		@ frame_needed = 0, uses_anonymous_args = 0
 490              		@ link register save eliminated.
 491 0000 7047     		bx	lr
 492              		.cfi_endproc
 493              	.LFE278:
 494              		.size	sduInit, .-sduInit
 495 0002 00BF     		.section	.text.sduObjectInit,"ax",%progbits
 496              		.align	2
 497              		.p2align 4,,15
 498              		.global	sduObjectInit
 499              		.thumb
 500              		.thumb_func
 501              		.type	sduObjectInit, %function
 502              	sduObjectInit:
 503              	.LFB279:
 504              		.loc 1 213 0
 505              		.cfi_startproc
 506              		@ args = 0, pretend = 0, frame = 0
 507              		@ frame_needed = 0, uses_anonymous_args = 0
 508              	.LVL53:
 509              		.loc 1 213 0
 510 0000 10B5     		push	{r4, lr}
 511              		.cfi_def_cfa_offset 8
 512              		.cfi_offset 4, -8
 513              		.cfi_offset 14, -4
ARM GAS  /var/folders/m4/4md61f0s1_g0rzfghffqnxvr0000gn/T//ccB9oxNV.s 			page 10


 514              		.loc 1 215 0
 515 0002 0346     		mov	r3, r0
 516 0004 104A     		ldr	r2, .L47
 517 0006 43F8042B 		str	r2, [r3], #4
 518              	.LVL54:
 519              		.loc 1 213 0
 520 000a 82B0     		sub	sp, sp, #8
 521              		.cfi_def_cfa_offset 16
 522              		.loc 1 217 0
 523 000c 0121     		movs	r1, #1
 524              		.loc 1 218 0
 525 000e 0F4A     		ldr	r2, .L47+4
 526 0010 0190     		str	r0, [sp, #4]
 527              		.loc 1 213 0
 528 0012 0446     		mov	r4, r0
 529              	.LBB135:
 530              	.LBB136:
 531              	.LBB137:
 532              		.file 2 "ChibiOS_16.1.4/os/rt/include/chevents.h"
 533              		.loc 2 172 0
 534 0014 4360     		str	r3, [r0, #4]
 535              	.LVL55:
 536              	.LBE137:
 537              	.LBE136:
 538              	.LBE135:
 539              		.loc 1 217 0
 540 0016 0172     		strb	r1, [r0, #8]
 541              		.loc 1 218 0
 542 0018 0223     		movs	r3, #2
 543 001a 00F17401 		add	r1, r0, #116
 544 001e 0092     		str	r2, [sp]
 545 0020 0C30     		adds	r0, r0, #12
 546              	.LVL56:
 547 0022 4FF48072 		mov	r2, #256
 548 0026 FFF7FEFF 		bl	ibqObjectInit
 549              	.LVL57:
 550              		.loc 1 221 0
 551 002a 094B     		ldr	r3, .L47+8
 552 002c 0093     		str	r3, [sp]
 553 002e 0194     		str	r4, [sp, #4]
 554 0030 04F51F71 		add	r1, r4, #636
 555 0034 04F14000 		add	r0, r4, #64
 556 0038 0223     		movs	r3, #2
 557 003a 4FF48072 		mov	r2, #256
 558 003e FFF7FEFF 		bl	obqObjectInit
 559              	.LVL58:
 560              		.loc 1 224 0
 561 0042 02B0     		add	sp, sp, #8
 562              		.cfi_def_cfa_offset 8
 563              		@ sp needed
 564 0044 10BD     		pop	{r4, pc}
 565              	.LVL59:
 566              	.L48:
 567 0046 00BF     		.align	2
 568              	.L47:
 569 0048 00000000 		.word	.LANCHOR0
 570 004c 00000000 		.word	ibnotify
ARM GAS  /var/folders/m4/4md61f0s1_g0rzfghffqnxvr0000gn/T//ccB9oxNV.s 			page 11


 571 0050 00000000 		.word	obnotify
 572              		.cfi_endproc
 573              	.LFE279:
 574              		.size	sduObjectInit, .-sduObjectInit
 575              		.section	.text.sduStart,"ax",%progbits
 576              		.align	2
 577              		.p2align 4,,15
 578              		.global	sduStart
 579              		.thumb
 580              		.thumb_func
 581              		.type	sduStart, %function
 582              	sduStart:
 583              	.LFB280:
 584              		.loc 1 234 0
 585              		.cfi_startproc
 586              		@ args = 0, pretend = 0, frame = 0
 587              		@ frame_needed = 0, uses_anonymous_args = 0
 588              		@ link register save eliminated.
 589              	.LVL60:
 590              		.loc 1 235 0
 591 0000 0B68     		ldr	r3, [r1]
 592              	.LVL61:
 593              	.LBB138:
 594              	.LBB139:
 595              	.LBB140:
 596              	.LBB141:
 597              	.LBB142:
 598              		.file 3 "ChibiOS_16.1.4/os/ext/CMSIS/include/core_cmFunc.h"
 599              		.loc 3 548 0
 600 0002 2022     		movs	r2, #32
 601              		.syntax unified
 602              	@ 548 "ChibiOS_16.1.4/os/ext/CMSIS/include/core_cmFunc.h" 1
 603 0004 82F31188 		MSR basepri, r2
 604              	@ 0 "" 2
 605              	.LVL62:
 606              		.thumb
 607              		.syntax unified
 608              	.LBE142:
 609              	.LBE141:
 610              	.LBE140:
 611              	.LBE139:
 612              	.LBE138:
 613              		.loc 1 242 0
 614 0008 0A79     		ldrb	r2, [r1, #4]	@ zero_extendqisi2
 615 000a 03EB8202 		add	r2, r3, r2, lsl #2
 616 000e 9061     		str	r0, [r2, #24]
 617              		.loc 1 243 0
 618 0010 4A79     		ldrb	r2, [r1, #5]	@ zero_extendqisi2
 619 0012 0932     		adds	r2, r2, #9
 620 0014 43F82200 		str	r0, [r3, r2, lsl #2]
 621              		.loc 1 244 0
 622 0018 8A79     		ldrb	r2, [r1, #6]	@ zero_extendqisi2
 623 001a 12B1     		cbz	r2, .L50
 624              		.loc 1 245 0
 625 001c 03EB8203 		add	r3, r3, r2, lsl #2
 626              	.LVL63:
 627 0020 9861     		str	r0, [r3, #24]
ARM GAS  /var/folders/m4/4md61f0s1_g0rzfghffqnxvr0000gn/T//ccB9oxNV.s 			page 12


 628              	.L50:
 629              		.loc 1 248 0
 630 0022 0223     		movs	r3, #2
 631 0024 0372     		strb	r3, [r0, #8]
 632              	.LVL64:
 633              		.loc 1 247 0
 634 0026 C0F88414 		str	r1, [r0, #1156]
 635              	.LBB143:
 636              	.LBB144:
 637              	.LBB145:
 638              	.LBB146:
 639              	.LBB147:
 640              	.LBB148:
 641              		.loc 3 548 0
 642 002a 0023     		movs	r3, #0
 643              		.syntax unified
 644              	@ 548 "ChibiOS_16.1.4/os/ext/CMSIS/include/core_cmFunc.h" 1
 645 002c 83F31188 		MSR basepri, r3
 646              	@ 0 "" 2
 647              	.LVL65:
 648              		.thumb
 649              		.syntax unified
 650 0030 7047     		bx	lr
 651              	.LBE148:
 652              	.LBE147:
 653              	.LBE146:
 654              	.LBE145:
 655              	.LBE144:
 656              	.LBE143:
 657              		.cfi_endproc
 658              	.LFE280:
 659              		.size	sduStart, .-sduStart
 660 0032 00BF     		.section	.text.sduDisconnectI,"ax",%progbits
 661              		.align	2
 662              		.p2align 4,,15
 663              		.global	sduDisconnectI
 664              		.thumb
 665              		.thumb_func
 666              		.type	sduDisconnectI, %function
 667              	sduDisconnectI:
 668              	.LFB282:
 669              		.loc 1 293 0
 670              		.cfi_startproc
 671              		@ args = 0, pretend = 0, frame = 0
 672              		@ frame_needed = 0, uses_anonymous_args = 0
 673              	.LVL66:
 674 0000 10B5     		push	{r4, lr}
 675              		.cfi_def_cfa_offset 8
 676              		.cfi_offset 4, -8
 677              		.cfi_offset 14, -4
 678              	.LBB149:
 679              	.LBB150:
 680              		.file 4 "ChibiOS_16.1.4/os/hal/osal/rt/osal.h"
 681              		.loc 4 844 0
 682 0002 0221     		movs	r1, #2
 683              	.LBE150:
 684              	.LBE149:
ARM GAS  /var/folders/m4/4md61f0s1_g0rzfghffqnxvr0000gn/T//ccB9oxNV.s 			page 13


 685              		.loc 1 293 0
 686 0004 0446     		mov	r4, r0
 687              	.LVL67:
 688              	.LBB152:
 689              	.LBB151:
 690              		.loc 4 844 0
 691 0006 0430     		adds	r0, r0, #4
 692              	.LVL68:
 693 0008 FFF7FEFF 		bl	chEvtBroadcastFlagsI
 694              	.LVL69:
 695              	.LBE151:
 696              	.LBE152:
 697              		.loc 1 297 0
 698 000c 04F10C00 		add	r0, r4, #12
 699 0010 FFF7FEFF 		bl	ibqResetI
 700              	.LVL70:
 701              		.loc 1 298 0
 702 0014 04F14000 		add	r0, r4, #64
 703              		.loc 1 299 0
 704 0018 BDE81040 		pop	{r4, lr}
 705              		.cfi_restore 14
 706              		.cfi_restore 4
 707              		.cfi_def_cfa_offset 0
 708              	.LVL71:
 709              		.loc 1 298 0
 710 001c FFF7FEBF 		b	obqResetI
 711              	.LVL72:
 712              		.cfi_endproc
 713              	.LFE282:
 714              		.size	sduDisconnectI, .-sduDisconnectI
 715              		.section	.text.sduStop,"ax",%progbits
 716              		.align	2
 717              		.p2align 4,,15
 718              		.global	sduStop
 719              		.thumb
 720              		.thumb_func
 721              		.type	sduStop, %function
 722              	sduStop:
 723              	.LFB281:
 724              		.loc 1 261 0
 725              		.cfi_startproc
 726              		@ args = 0, pretend = 0, frame = 0
 727              		@ frame_needed = 0, uses_anonymous_args = 0
 728              	.LVL73:
 729              		.loc 1 262 0
 730 0000 D0F88424 		ldr	r2, [r0, #1156]
 731              		.loc 1 261 0
 732 0004 10B5     		push	{r4, lr}
 733              		.cfi_def_cfa_offset 8
 734              		.cfi_offset 4, -8
 735              		.cfi_offset 14, -4
 736              	.LBB153:
 737              	.LBB154:
 738              	.LBB155:
 739              	.LBB156:
 740              	.LBB157:
 741              		.loc 3 548 0
ARM GAS  /var/folders/m4/4md61f0s1_g0rzfghffqnxvr0000gn/T//ccB9oxNV.s 			page 14


 742 0006 2023     		movs	r3, #32
 743              	.LBE157:
 744              	.LBE156:
 745              	.LBE155:
 746              	.LBE154:
 747              	.LBE153:
 748              		.loc 1 262 0
 749 0008 1268     		ldr	r2, [r2]
 750              	.LVL74:
 751              	.LBB162:
 752              	.LBB161:
 753              	.LBB160:
 754              	.LBB159:
 755              	.LBB158:
 756              		.loc 3 548 0
 757              		.syntax unified
 758              	@ 548 "ChibiOS_16.1.4/os/ext/CMSIS/include/core_cmFunc.h" 1
 759 000a 83F31188 		MSR basepri, r3
 760              	@ 0 "" 2
 761              	.LVL75:
 762              		.thumb
 763              		.syntax unified
 764              	.LBE158:
 765              	.LBE159:
 766              	.LBE160:
 767              	.LBE161:
 768              	.LBE162:
 769              		.loc 1 271 0
 770 000e D0F88414 		ldr	r1, [r0, #1156]
 771 0012 0B79     		ldrb	r3, [r1, #4]	@ zero_extendqisi2
 772 0014 0533     		adds	r3, r3, #5
 773 0016 02EB8303 		add	r3, r2, r3, lsl #2
 774 001a 0024     		movs	r4, #0
 775 001c 5C60     		str	r4, [r3, #4]
 776              		.loc 1 272 0
 777 001e 4B79     		ldrb	r3, [r1, #5]	@ zero_extendqisi2
 778 0020 0933     		adds	r3, r3, #9
 779 0022 42F82340 		str	r4, [r2, r3, lsl #2]
 780              		.loc 1 273 0
 781 0026 8B79     		ldrb	r3, [r1, #6]	@ zero_extendqisi2
 782 0028 1BB1     		cbz	r3, .L57
 783              		.loc 1 274 0
 784 002a 0533     		adds	r3, r3, #5
 785 002c 02EB8302 		add	r2, r2, r3, lsl #2
 786              	.LVL76:
 787 0030 5460     		str	r4, [r2, #4]
 788              	.L57:
 789              		.loc 1 276 0
 790 0032 0123     		movs	r3, #1
 791 0034 0372     		strb	r3, [r0, #8]
 792              		.loc 1 279 0
 793 0036 FFF7FEFF 		bl	sduDisconnectI
 794              	.LVL77:
 795              	.LBB163:
 796              	.LBB164:
 797              		.loc 4 600 0
 798 003a FFF7FEFF 		bl	chSchRescheduleS
ARM GAS  /var/folders/m4/4md61f0s1_g0rzfghffqnxvr0000gn/T//ccB9oxNV.s 			page 15


 799              	.LVL78:
 800              	.LBE164:
 801              	.LBE163:
 802              	.LBB165:
 803              	.LBB166:
 804              	.LBB167:
 805              	.LBB168:
 806              	.LBB169:
 807              	.LBB170:
 808              		.loc 3 548 0
 809 003e 0023     		movs	r3, #0
 810              		.syntax unified
 811              	@ 548 "ChibiOS_16.1.4/os/ext/CMSIS/include/core_cmFunc.h" 1
 812 0040 83F31188 		MSR basepri, r3
 813              	@ 0 "" 2
 814              	.LVL79:
 815              		.thumb
 816              		.syntax unified
 817 0044 10BD     		pop	{r4, pc}
 818              	.LBE170:
 819              	.LBE169:
 820              	.LBE168:
 821              	.LBE167:
 822              	.LBE166:
 823              	.LBE165:
 824              		.cfi_endproc
 825              	.LFE281:
 826              		.size	sduStop, .-sduStop
 827 0046 00BF     		.section	.text.sduConfigureHookI,"ax",%progbits
 828              		.align	2
 829              		.p2align 4,,15
 830              		.global	sduConfigureHookI
 831              		.thumb
 832              		.thumb_func
 833              		.type	sduConfigureHookI, %function
 834              	sduConfigureHookI:
 835              	.LFB283:
 836              		.loc 1 308 0
 837              		.cfi_startproc
 838              		@ args = 0, pretend = 0, frame = 0
 839              		@ frame_needed = 0, uses_anonymous_args = 0
 840              	.LVL80:
 841 0000 70B5     		push	{r4, r5, r6, lr}
 842              		.cfi_def_cfa_offset 16
 843              		.cfi_offset 4, -16
 844              		.cfi_offset 5, -12
 845              		.cfi_offset 6, -8
 846              		.cfi_offset 14, -4
 847              		.loc 1 311 0
 848 0002 00F10C05 		add	r5, r0, #12
 849              		.loc 1 308 0
 850 0006 0446     		mov	r4, r0
 851              		.loc 1 311 0
 852 0008 2846     		mov	r0, r5
 853              	.LVL81:
 854 000a FFF7FEFF 		bl	ibqResetI
 855              	.LVL82:
ARM GAS  /var/folders/m4/4md61f0s1_g0rzfghffqnxvr0000gn/T//ccB9oxNV.s 			page 16


 856              		.loc 1 312 0
 857 000e 04F14000 		add	r0, r4, #64
 858 0012 FFF7FEFF 		bl	obqResetI
 859              	.LVL83:
 860              	.LBB171:
 861              	.LBB172:
 862              		.loc 4 844 0
 863 0016 201D     		adds	r0, r4, #4
 864              	.LVL84:
 865 0018 0121     		movs	r1, #1
 866 001a FFF7FEFF 		bl	chEvtBroadcastFlagsI
 867              	.LVL85:
 868              	.LBE172:
 869              	.LBE171:
 870              		.loc 1 316 0
 871 001e 2846     		mov	r0, r5
 872 0020 FFF7FEFF 		bl	ibqGetEmptyBufferI
 873              	.LVL86:
 874              		.loc 1 320 0
 875 0024 D4F88434 		ldr	r3, [r4, #1156]
 876 0028 0246     		mov	r2, r0
 877 002a 5979     		ldrb	r1, [r3, #5]	@ zero_extendqisi2
 878 002c 1868     		ldr	r0, [r3]
 879              	.LVL87:
 880              		.loc 1 322 0
 881 002e BDE87040 		pop	{r4, r5, r6, lr}
 882              		.cfi_restore 14
 883              		.cfi_restore 6
 884              		.cfi_restore 5
 885              		.cfi_restore 4
 886              		.cfi_def_cfa_offset 0
 887              	.LVL88:
 888              		.loc 1 320 0
 889 0032 4FF48073 		mov	r3, #256
 890 0036 FFF7FEBF 		b	usbStartReceiveI
 891              	.LVL89:
 892              		.cfi_endproc
 893              	.LFE283:
 894              		.size	sduConfigureHookI, .-sduConfigureHookI
 895 003a 00BF     		.section	.text.sduRequestsHook,"ax",%progbits
 896              		.align	2
 897              		.p2align 4,,15
 898              		.global	sduRequestsHook
 899              		.thumb
 900              		.thumb_func
 901              		.type	sduRequestsHook, %function
 902              	sduRequestsHook:
 903              	.LFB284:
 904              		.loc 1 339 0
 905              		.cfi_startproc
 906              		@ args = 0, pretend = 0, frame = 0
 907              		@ frame_needed = 0, uses_anonymous_args = 0
 908              		@ link register save eliminated.
 909              	.LVL90:
 910              		.loc 1 341 0
 911 0000 90F84430 		ldrb	r3, [r0, #68]	@ zero_extendqisi2
 912 0004 03F06003 		and	r3, r3, #96
ARM GAS  /var/folders/m4/4md61f0s1_g0rzfghffqnxvr0000gn/T//ccB9oxNV.s 			page 17


 913 0008 202B     		cmp	r3, #32
 914 000a 01D0     		beq	.L72
 915              	.L71:
 916              		.loc 1 354 0
 917 000c 0020     		movs	r0, #0
 918              	.LVL91:
 919              		.loc 1 358 0
 920 000e 7047     		bx	lr
 921              	.LVL92:
 922              	.L72:
 923              		.loc 1 342 0
 924 0010 90F84530 		ldrb	r3, [r0, #69]	@ zero_extendqisi2
 925 0014 212B     		cmp	r3, #33
 926 0016 03D0     		beq	.L68
 927 0018 222B     		cmp	r3, #34
 928 001a 09D0     		beq	.L67
 929 001c 202B     		cmp	r3, #32
 930 001e F5D1     		bne	.L71
 931              	.L68:
 932              		.loc 1 347 0
 933 0020 064B     		ldr	r3, .L73
 934 0022 8363     		str	r3, [r0, #56]
 935 0024 0722     		movs	r2, #7
 936 0026 0023     		movs	r3, #0
 937 0028 C263     		str	r2, [r0, #60]
 938 002a 0364     		str	r3, [r0, #64]
 939              		.loc 1 348 0
 940 002c 0120     		movs	r0, #1
 941              	.LVL93:
 942 002e 7047     		bx	lr
 943              	.LVL94:
 944              	.L67:
 945              		.loc 1 351 0
 946 0030 0023     		movs	r3, #0
 947 0032 8363     		str	r3, [r0, #56]
 948 0034 C363     		str	r3, [r0, #60]
 949 0036 0364     		str	r3, [r0, #64]
 950              		.loc 1 352 0
 951 0038 0120     		movs	r0, #1
 952              	.LVL95:
 953 003a 7047     		bx	lr
 954              	.L74:
 955              		.align	2
 956              	.L73:
 957 003c 00000000 		.word	.LANCHOR1
 958              		.cfi_endproc
 959              	.LFE284:
 960              		.size	sduRequestsHook, .-sduRequestsHook
 961              		.section	.text.sduSOFHookI,"ax",%progbits
 962              		.align	2
 963              		.p2align 4,,15
 964              		.global	sduSOFHookI
 965              		.thumb
 966              		.thumb_func
 967              		.type	sduSOFHookI, %function
 968              	sduSOFHookI:
 969              	.LFB285:
ARM GAS  /var/folders/m4/4md61f0s1_g0rzfghffqnxvr0000gn/T//ccB9oxNV.s 			page 18


 970              		.loc 1 369 0
 971              		.cfi_startproc
 972              		@ args = 0, pretend = 0, frame = 8
 973              		@ frame_needed = 0, uses_anonymous_args = 0
 974              	.LVL96:
 975              		.loc 1 373 0
 976 0000 D0F88424 		ldr	r2, [r0, #1156]
 977 0004 1368     		ldr	r3, [r2]
 978 0006 1978     		ldrb	r1, [r3]	@ zero_extendqisi2
 979 0008 0429     		cmp	r1, #4
 980 000a 00D0     		beq	.L84
 981              	.L83:
 982 000c 7047     		bx	lr
 983              	.L84:
 984              		.loc 1 373 0 is_stmt 0 discriminator 1
 985 000e 017A     		ldrb	r1, [r0, #8]	@ zero_extendqisi2
 986 0010 0229     		cmp	r1, #2
 987 0012 FBD1     		bne	.L83
 988              		.loc 1 380 0 is_stmt 1
 989 0014 1179     		ldrb	r1, [r2, #4]	@ zero_extendqisi2
 990 0016 1A89     		ldrh	r2, [r3, #8]
 991 0018 0123     		movs	r3, #1
 992 001a 8B40     		lsls	r3, r3, r1
 993 001c 1342     		tst	r3, r2
 994 001e F5D1     		bne	.L83
 995              		.loc 1 369 0
 996 0020 30B5     		push	{r4, r5, lr}
 997              		.cfi_def_cfa_offset 12
 998              		.cfi_offset 4, -12
 999              		.cfi_offset 5, -8
 1000              		.cfi_offset 14, -4
 1001              		.loc 1 386 0
 1002 0022 00F14005 		add	r5, r0, #64
 1003              		.loc 1 369 0
 1004 0026 83B0     		sub	sp, sp, #12
 1005              		.cfi_def_cfa_offset 24
 1006 0028 0446     		mov	r4, r0
 1007              		.loc 1 386 0
 1008 002a 2846     		mov	r0, r5
 1009              	.LVL97:
 1010 002c FFF7FEFF 		bl	obqTryFlushI
 1011              	.LVL98:
 1012 0030 08B9     		cbnz	r0, .L85
 1013              	.LVL99:
 1014              	.L75:
 1015              		.loc 1 394 0
 1016 0032 03B0     		add	sp, sp, #12
 1017              		.cfi_remember_state
 1018              		.cfi_def_cfa_offset 12
 1019              		@ sp needed
 1020 0034 30BD     		pop	{r4, r5, pc}
 1021              	.LVL100:
 1022              	.L85:
 1023              		.cfi_restore_state
 1024              	.LBB173:
 1025              		.loc 1 388 0
 1026 0036 01A9     		add	r1, sp, #4
ARM GAS  /var/folders/m4/4md61f0s1_g0rzfghffqnxvr0000gn/T//ccB9oxNV.s 			page 19


 1027 0038 2846     		mov	r0, r5
 1028 003a FFF7FEFF 		bl	obqGetFullBufferI
 1029              	.LVL101:
 1030              		.loc 1 392 0
 1031 003e D4F88444 		ldr	r4, [r4, #1156]
 1032              	.LVL102:
 1033 0042 019B     		ldr	r3, [sp, #4]
 1034 0044 2179     		ldrb	r1, [r4, #4]	@ zero_extendqisi2
 1035 0046 0246     		mov	r2, r0
 1036 0048 2068     		ldr	r0, [r4]
 1037              	.LVL103:
 1038 004a FFF7FEFF 		bl	usbStartTransmitI
 1039              	.LVL104:
 1040 004e F0E7     		b	.L75
 1041              	.LBE173:
 1042              		.cfi_endproc
 1043              	.LFE285:
 1044              		.size	sduSOFHookI, .-sduSOFHookI
 1045              		.section	.text.sduDataTransmitted,"ax",%progbits
 1046              		.align	2
 1047              		.p2align 4,,15
 1048              		.global	sduDataTransmitted
 1049              		.thumb
 1050              		.thumb_func
 1051              		.type	sduDataTransmitted, %function
 1052              	sduDataTransmitted:
 1053              	.LFB286:
 1054              		.loc 1 404 0
 1055              		.cfi_startproc
 1056              		@ args = 0, pretend = 0, frame = 8
 1057              		@ frame_needed = 0, uses_anonymous_args = 0
 1058              	.LVL105:
 1059 0000 F0B5     		push	{r4, r5, r6, r7, lr}
 1060              		.cfi_def_cfa_offset 20
 1061              		.cfi_offset 4, -20
 1062              		.cfi_offset 5, -16
 1063              		.cfi_offset 6, -12
 1064              		.cfi_offset 7, -8
 1065              		.cfi_offset 14, -4
 1066              		.loc 1 407 0
 1067 0002 00EB8103 		add	r3, r0, r1, lsl #2
 1068              		.loc 1 404 0
 1069 0006 83B0     		sub	sp, sp, #12
 1070              		.cfi_def_cfa_offset 32
 1071              		.loc 1 407 0
 1072 0008 9C69     		ldr	r4, [r3, #24]
 1073              	.LVL106:
 1074              		.loc 1 409 0
 1075 000a ECB1     		cbz	r4, .L86
 1076              	.LVL107:
 1077 000c 0E46     		mov	r6, r1
 1078 000e 0546     		mov	r5, r0
 1079              	.LBB174:
 1080              	.LBB175:
 1081              	.LBB176:
 1082              	.LBB177:
 1083              	.LBB178:
ARM GAS  /var/folders/m4/4md61f0s1_g0rzfghffqnxvr0000gn/T//ccB9oxNV.s 			page 20


 1084              	.LBB179:
 1085              		.loc 3 548 0
 1086 0010 2023     		movs	r3, #32
 1087              		.syntax unified
 1088              	@ 548 "ChibiOS_16.1.4/os/ext/CMSIS/include/core_cmFunc.h" 1
 1089 0012 83F31188 		MSR basepri, r3
 1090              	@ 0 "" 2
 1091              	.LVL108:
 1092              		.thumb
 1093              		.syntax unified
 1094 0016 00EB8107 		add	r7, r0, r1, lsl #2
 1095              	.LBE179:
 1096              	.LBE178:
 1097              	.LBE177:
 1098              	.LBE176:
 1099              	.LBE175:
 1100              	.LBE174:
 1101              	.LBB180:
 1102              	.LBB181:
 1103              		.loc 4 844 0
 1104 001a 201D     		adds	r0, r4, #4
 1105              	.LVL109:
 1106 001c 0821     		movs	r1, #8
 1107              	.LVL110:
 1108 001e FFF7FEFF 		bl	chEvtBroadcastFlagsI
 1109              	.LVL111:
 1110              	.LBE181:
 1111              	.LBE180:
 1112              		.loc 1 419 0
 1113 0022 FB68     		ldr	r3, [r7, #12]
 1114 0024 5B69     		ldr	r3, [r3, #20]
 1115 0026 1B68     		ldr	r3, [r3]
 1116              		.loc 1 420 0
 1117 0028 4034     		adds	r4, r4, #64
 1118              	.LVL112:
 1119              		.loc 1 419 0
 1120 002a FBB9     		cbnz	r3, .L100
 1121              		.loc 1 424 0
 1122 002c 2046     		mov	r0, r4
 1123 002e 01A9     		add	r1, sp, #4
 1124 0030 FFF7FEFF 		bl	obqGetFullBufferI
 1125              	.LVL113:
 1126              		.loc 1 426 0
 1127 0034 50B1     		cbz	r0, .L90
 1128              	.L101:
 1129              		.loc 1 429 0
 1130 0036 0246     		mov	r2, r0
 1131 0038 3146     		mov	r1, r6
 1132 003a 2846     		mov	r0, r5
 1133              	.LVL114:
 1134 003c 019B     		ldr	r3, [sp, #4]
 1135 003e FFF7FEFF 		bl	usbStartTransmitI
 1136              	.LVL115:
 1137              	.L91:
 1138              	.LBB182:
 1139              	.LBB183:
 1140              	.LBB184:
ARM GAS  /var/folders/m4/4md61f0s1_g0rzfghffqnxvr0000gn/T//ccB9oxNV.s 			page 21


 1141              	.LBB185:
 1142              	.LBB186:
 1143              	.LBB187:
 1144              		.loc 3 548 0
 1145 0042 0023     		movs	r3, #0
 1146              		.syntax unified
 1147              	@ 548 "ChibiOS_16.1.4/os/ext/CMSIS/include/core_cmFunc.h" 1
 1148 0044 83F31188 		MSR basepri, r3
 1149              	@ 0 "" 2
 1150              	.LVL116:
 1151              		.thumb
 1152              		.syntax unified
 1153              	.L86:
 1154              	.LBE187:
 1155              	.LBE186:
 1156              	.LBE185:
 1157              	.LBE184:
 1158              	.LBE183:
 1159              	.LBE182:
 1160              		.loc 1 446 0
 1161 0048 03B0     		add	sp, sp, #12
 1162              		.cfi_remember_state
 1163              		.cfi_def_cfa_offset 20
 1164              		@ sp needed
 1165 004a F0BD     		pop	{r4, r5, r6, r7, pc}
 1166              	.LVL117:
 1167              	.L90:
 1168              		.cfi_restore_state
 1169              		.loc 1 431 0
 1170 004c FB68     		ldr	r3, [r7, #12]
 1171 004e 5A69     		ldr	r2, [r3, #20]
 1172 0050 1268     		ldr	r2, [r2]
 1173 0052 002A     		cmp	r2, #0
 1174 0054 F5D0     		beq	.L91
 1175              		.loc 1 431 0 is_stmt 0 discriminator 1
 1176 0056 1B8A     		ldrh	r3, [r3, #16]
 1177 0058 013B     		subs	r3, r3, #1
 1178 005a 1340     		ands	r3, r3, r2
 1179 005c F1D1     		bne	.L91
 1180              		.loc 1 438 0 is_stmt 1
 1181 005e 3146     		mov	r1, r6
 1182 0060 05F14402 		add	r2, r5, #68
 1183 0064 2846     		mov	r0, r5
 1184              	.LVL118:
 1185 0066 FFF7FEFF 		bl	usbStartTransmitI
 1186              	.LVL119:
 1187 006a EAE7     		b	.L91
 1188              	.L100:
 1189              		.loc 1 420 0
 1190 006c 2046     		mov	r0, r4
 1191 006e FFF7FEFF 		bl	obqReleaseEmptyBufferI
 1192              	.LVL120:
 1193              		.loc 1 424 0
 1194 0072 2046     		mov	r0, r4
 1195 0074 01A9     		add	r1, sp, #4
 1196 0076 FFF7FEFF 		bl	obqGetFullBufferI
 1197              	.LVL121:
ARM GAS  /var/folders/m4/4md61f0s1_g0rzfghffqnxvr0000gn/T//ccB9oxNV.s 			page 22


 1198              		.loc 1 426 0
 1199 007a 0028     		cmp	r0, #0
 1200 007c DBD1     		bne	.L101
 1201 007e E5E7     		b	.L90
 1202              		.cfi_endproc
 1203              	.LFE286:
 1204              		.size	sduDataTransmitted, .-sduDataTransmitted
 1205              		.section	.text.sduDataReceived,"ax",%progbits
 1206              		.align	2
 1207              		.p2align 4,,15
 1208              		.global	sduDataReceived
 1209              		.thumb
 1210              		.thumb_func
 1211              		.type	sduDataReceived, %function
 1212              	sduDataReceived:
 1213              	.LFB287:
 1214              		.loc 1 456 0
 1215              		.cfi_startproc
 1216              		@ args = 0, pretend = 0, frame = 0
 1217              		@ frame_needed = 0, uses_anonymous_args = 0
 1218              	.LVL122:
 1219              		.loc 1 458 0
 1220 0000 0931     		adds	r1, r1, #9
 1221              	.LVL123:
 1222              		.loc 1 456 0
 1223 0002 38B5     		push	{r3, r4, r5, lr}
 1224              		.cfi_def_cfa_offset 16
 1225              		.cfi_offset 3, -16
 1226              		.cfi_offset 4, -12
 1227              		.cfi_offset 5, -8
 1228              		.cfi_offset 14, -4
 1229              		.loc 1 458 0
 1230 0004 50F82140 		ldr	r4, [r0, r1, lsl #2]
 1231              	.LVL124:
 1232              		.loc 1 460 0
 1233 0008 24B3     		cbz	r4, .L102
 1234              	.LVL125:
 1235              	.LBB188:
 1236              	.LBB189:
 1237              	.LBB190:
 1238              	.LBB191:
 1239              	.LBB192:
 1240              	.LBB193:
 1241              		.loc 3 548 0
 1242 000a 2023     		movs	r3, #32
 1243              		.syntax unified
 1244              	@ 548 "ChibiOS_16.1.4/os/ext/CMSIS/include/core_cmFunc.h" 1
 1245 000c 83F31188 		MSR basepri, r3
 1246              	@ 0 "" 2
 1247              	.LVL126:
 1248              		.thumb
 1249              		.syntax unified
 1250              	.LBE193:
 1251              	.LBE192:
 1252              	.LBE191:
 1253              	.LBE190:
 1254              	.LBE189:
ARM GAS  /var/folders/m4/4md61f0s1_g0rzfghffqnxvr0000gn/T//ccB9oxNV.s 			page 23


 1255              	.LBE188:
 1256              	.LBB194:
 1257              	.LBB195:
 1258              		.loc 4 844 0
 1259 0010 0421     		movs	r1, #4
 1260 0012 6018     		adds	r0, r4, r1
 1261              	.LVL127:
 1262 0014 FFF7FEFF 		bl	chEvtBroadcastFlagsI
 1263              	.LVL128:
 1264              	.LBE195:
 1265              	.LBE194:
 1266              		.loc 1 471 0
 1267 0018 D4F88424 		ldr	r2, [r4, #1156]
 1268 001c 1368     		ldr	r3, [r2]
 1269 001e 5279     		ldrb	r2, [r2, #5]	@ zero_extendqisi2
 1270 0020 03EB8203 		add	r3, r3, r2, lsl #2
 1271              		.loc 1 470 0
 1272 0024 04F10C05 		add	r5, r4, #12
 1273              		.loc 1 471 0
 1274 0028 DB68     		ldr	r3, [r3, #12]
 1275              		.loc 1 470 0
 1276 002a 9B69     		ldr	r3, [r3, #24]
 1277 002c 2846     		mov	r0, r5
 1278 002e 5968     		ldr	r1, [r3, #4]
 1279 0030 FFF7FEFF 		bl	ibqPostFullBufferI
 1280              	.LVL129:
 1281              		.loc 1 477 0
 1282 0034 2846     		mov	r0, r5
 1283 0036 FFF7FEFF 		bl	ibqGetEmptyBufferI
 1284              	.LVL130:
 1285              		.loc 1 478 0
 1286 003a 40B1     		cbz	r0, .L104
 1287              		.loc 1 480 0
 1288 003c D4F88434 		ldr	r3, [r4, #1156]
 1289 0040 0246     		mov	r2, r0
 1290 0042 5979     		ldrb	r1, [r3, #5]	@ zero_extendqisi2
 1291 0044 1868     		ldr	r0, [r3]
 1292              	.LVL131:
 1293 0046 4FF48073 		mov	r3, #256
 1294 004a FFF7FEFF 		bl	usbStartReceiveI
 1295              	.LVL132:
 1296              	.L104:
 1297              	.LBB196:
 1298              	.LBB197:
 1299              	.LBB198:
 1300              	.LBB199:
 1301              	.LBB200:
 1302              	.LBB201:
 1303              		.loc 3 548 0
 1304 004e 0023     		movs	r3, #0
 1305              		.syntax unified
 1306              	@ 548 "ChibiOS_16.1.4/os/ext/CMSIS/include/core_cmFunc.h" 1
 1307 0050 83F31188 		MSR basepri, r3
 1308              	@ 0 "" 2
 1309              	.LVL133:
 1310              		.thumb
 1311              		.syntax unified
ARM GAS  /var/folders/m4/4md61f0s1_g0rzfghffqnxvr0000gn/T//ccB9oxNV.s 			page 24


 1312              	.L102:
 1313 0054 38BD     		pop	{r3, r4, r5, pc}
 1314              	.LBE201:
 1315              	.LBE200:
 1316              	.LBE199:
 1317              	.LBE198:
 1318              	.LBE197:
 1319              	.LBE196:
 1320              		.cfi_endproc
 1321              	.LFE287:
 1322              		.size	sduDataReceived, .-sduDataReceived
 1323 0056 00BF     		.section	.text.sduInterruptTransmitted,"ax",%progbits
 1324              		.align	2
 1325              		.p2align 4,,15
 1326              		.global	sduInterruptTransmitted
 1327              		.thumb
 1328              		.thumb_func
 1329              		.type	sduInterruptTransmitted, %function
 1330              	sduInterruptTransmitted:
 1331              	.LFB288:
 1332              		.loc 1 494 0
 1333              		.cfi_startproc
 1334              		@ args = 0, pretend = 0, frame = 0
 1335              		@ frame_needed = 0, uses_anonymous_args = 0
 1336              		@ link register save eliminated.
 1337              	.LVL134:
 1338 0000 7047     		bx	lr
 1339              		.cfi_endproc
 1340              	.LFE288:
 1341              		.size	sduInterruptTransmitted, .-sduInterruptTransmitted
 1342 0002 00BF     		.section	.rodata.vmt,"a",%progbits
 1343              		.align	2
 1344              		.set	.LANCHOR0,. + 0
 1345              		.type	vmt, %object
 1346              		.size	vmt, 32
 1347              	vmt:
 1348 0000 00000000 		.word	write
 1349 0004 00000000 		.word	read
 1350 0008 00000000 		.word	put
 1351 000c 00000000 		.word	get
 1352 0010 00000000 		.word	putt
 1353 0014 00000000 		.word	gett
 1354 0018 00000000 		.word	writet
 1355 001c 00000000 		.word	readt
 1356              		.section	.data.linecoding,"aw",%progbits
 1357              		.align	2
 1358              		.set	.LANCHOR1,. + 0
 1359              		.type	linecoding, %object
 1360              		.size	linecoding, 7
 1361              	linecoding:
 1362 0000 00       		.byte	0
 1363 0001 96       		.byte	-106
 1364 0002 00       		.byte	0
 1365 0003 00       		.byte	0
 1366 0004 00       		.byte	0
 1367 0005 00       		.byte	0
 1368 0006 08       		.byte	8
ARM GAS  /var/folders/m4/4md61f0s1_g0rzfghffqnxvr0000gn/T//ccB9oxNV.s 			page 25


 1369              		.text
 1370              	.Letext0:
 1371              		.file 5 "/opt/homebrew-cask/Caskroom/gcc-arm-embedded/5_2-2015q4,20151219/gcc-arm-none-eabi-5_2-20
 1372              		.file 6 "/opt/homebrew-cask/Caskroom/gcc-arm-embedded/5_2-2015q4,20151219/gcc-arm-none-eabi-5_2-20
 1373              		.file 7 "/opt/homebrew-cask/Caskroom/gcc-arm-embedded/5_2-2015q4,20151219/gcc-arm-none-eabi-5_2-20
 1374              		.file 8 "ChibiOS_16.1.4/os/rt/ports/ARMCMx/compilers/GCC/chtypes.h"
 1375              		.file 9 "ChibiOS_16.1.4/os/rt/include/chsystypes.h"
 1376              		.file 10 "ChibiOS_16.1.4/os/rt/include/chschd.h"
 1377              		.file 11 "ChibiOS_16.1.4/os/rt/ports/ARMCMx/chcore.h"
 1378              		.file 12 "ChibiOS_16.1.4/os/rt/ports/ARMCMx/chcore_v7m.h"
 1379              		.file 13 "ChibiOS_16.1.4/os/rt/include/chtm.h"
 1380              		.file 14 "ChibiOS_16.1.4/os/rt/include/chsem.h"
 1381              		.file 15 "ChibiOS_16.1.4/os/rt/include/chmtx.h"
 1382              		.file 16 "ChibiOS_16.1.4/os/hal/include/hal_buffers.h"
 1383              		.file 17 "ChibiOS_16.1.4/os/hal/include/usb.h"
 1384              		.file 18 "ChibiOS_16.1.4/os/hal/ports/STM32/LLD/OTGv1/usb_lld.h"
 1385              		.file 19 "ChibiOS_16.1.4/os/hal/ports/STM32/LLD/OTGv1/stm32_otg.h"
 1386              		.file 20 "ChibiOS_16.1.4/os/hal/include/usb_cdc.h"
 1387              		.file 21 "ChibiOS_16.1.4/os/hal/include/serial_usb.h"
 1388              		.file 22 "ChibiOS_16.1.4/os/rt/include/chsys.h"
 1389              		.file 23 "ChibiOS_16.1.4/os/ext/CMSIS/include/core_cm4.h"