ARM GAS  /var/folders/m4/4md61f0s1_g0rzfghffqnxvr0000gn/T//ccZOgsL0.s 			page 1


   1              		.syntax unified
   2              		.cpu cortex-m4
   3              		.eabi_attribute 27, 1
   4              		.eabi_attribute 28, 1
   5              		.fpu fpv4-sp-d16
   6              		.eabi_attribute 20, 1
   7              		.eabi_attribute 21, 1
   8              		.eabi_attribute 23, 3
   9              		.eabi_attribute 24, 1
  10              		.eabi_attribute 25, 1
  11              		.eabi_attribute 26, 1
  12              		.eabi_attribute 30, 2
  13              		.eabi_attribute 34, 1
  14              		.eabi_attribute 18, 4
  15              		.thumb
  16              		.syntax unified
  17              		.file	"shell.c"
  18              		.text
  19              	.Ltext0:
  20              		.cfi_sections	.debug_frame
  21              		.section	.text.cmd_systime,"ax",%progbits
  22              		.align	2
  23              		.p2align 4,,15
  24              		.thumb
  25              		.thumb_func
  26              		.type	cmd_systime, %function
  27              	cmd_systime:
  28              	.LFB272:
  29              		.file 1 "ChibiOS_16.1.4/os/various/shell.c"
  30              		.loc 1 99 0
  31              		.cfi_startproc
  32              		@ args = 0, pretend = 0, frame = 0
  33              		@ frame_needed = 0, uses_anonymous_args = 0
  34              		@ link register save eliminated.
  35              	.LVL0:
  36              		.loc 1 102 0
  37 0000 0029     		cmp	r1, #0
  38 0002 03DD     		ble	.L2
  39              	.LVL1:
  40              	.LBB106:
  41              	.LBB107:
  42              		.loc 1 56 0
  43 0004 074A     		ldr	r2, .L4
  44              	.LVL2:
  45 0006 0849     		ldr	r1, .L4+4
  46              	.LVL3:
  47 0008 FFF7FEBF 		b	chprintf
  48              	.LVL4:
  49              	.L2:
  50              	.LBE107:
  51              	.LBE106:
  52              	.LBB108:
  53              	.LBB109:
  54              	.LBB110:
  55              	.LBB111:
  56              	.LBB112:
  57              	.LBB113:
ARM GAS  /var/folders/m4/4md61f0s1_g0rzfghffqnxvr0000gn/T//ccZOgsL0.s 			page 2


  58              	.LBB114:
  59              	.LBB115:
  60              		.file 2 "ChibiOS_16.1.4/os/ext/CMSIS/include/core_cmFunc.h"
  61              		.loc 2 548 0
  62 000c 2023     		movs	r3, #32
  63              		.syntax unified
  64              	@ 548 "ChibiOS_16.1.4/os/ext/CMSIS/include/core_cmFunc.h" 1
  65 000e 83F31188 		MSR basepri, r3
  66              	@ 0 "" 2
  67              	.LVL5:
  68              		.thumb
  69              		.syntax unified
  70              	.LBE115:
  71              	.LBE114:
  72              	.LBE113:
  73              	.LBE112:
  74              	.LBB116:
  75              	.LBB117:
  76              		.file 3 "ChibiOS_16.1.4/os/rt/include/chvt.h"
  77              		.loc 3 231 0
  78 0012 064A     		ldr	r2, .L4+8
  79              	.LVL6:
  80              	.LBE117:
  81              	.LBE116:
  82              	.LBB119:
  83              	.LBB120:
  84              	.LBB121:
  85              	.LBB122:
  86              	.LBB123:
  87              		.loc 2 548 0
  88 0014 0023     		movs	r3, #0
  89              	.LBE123:
  90              	.LBE122:
  91              	.LBE121:
  92              	.LBE120:
  93              	.LBE119:
  94              	.LBB128:
  95              	.LBB118:
  96              		.loc 3 231 0
  97 0016 926A     		ldr	r2, [r2, #40]
  98              	.LVL7:
  99              	.LBE118:
 100              	.LBE128:
 101              	.LBB129:
 102              	.LBB127:
 103              	.LBB126:
 104              	.LBB125:
 105              	.LBB124:
 106              		.loc 2 548 0
 107              		.syntax unified
 108              	@ 548 "ChibiOS_16.1.4/os/ext/CMSIS/include/core_cmFunc.h" 1
 109 0018 83F31188 		MSR basepri, r3
 110              	@ 0 "" 2
 111              	.LVL8:
 112              		.thumb
 113              		.syntax unified
 114              	.LBE124:
ARM GAS  /var/folders/m4/4md61f0s1_g0rzfghffqnxvr0000gn/T//ccZOgsL0.s 			page 3


 115              	.LBE125:
 116              	.LBE126:
 117              	.LBE127:
 118              	.LBE129:
 119              	.LBE111:
 120              	.LBE110:
 121              		.loc 1 106 0
 122 001c 0449     		ldr	r1, .L4+12
 123              	.LVL9:
 124 001e FFF7FEBF 		b	chprintf
 125              	.LVL10:
 126              	.L5:
 127 0022 00BF     		.align	2
 128              	.L4:
 129 0024 00000000 		.word	.LC0
 130 0028 08000000 		.word	.LC1
 131 002c 00000000 		.word	ch
 132 0030 14000000 		.word	.LC2
 133              	.LBE109:
 134              	.LBE108:
 135              		.cfi_endproc
 136              	.LFE272:
 137              		.size	cmd_systime, .-cmd_systime
 138              		.section	.text.cmd_info,"ax",%progbits
 139              		.align	2
 140              		.p2align 4,,15
 141              		.thumb
 142              		.thumb_func
 143              		.type	cmd_info, %function
 144              	cmd_info:
 145              	.LFB271:
 146              		.loc 1 67 0
 147              		.cfi_startproc
 148              		@ args = 0, pretend = 0, frame = 0
 149              		@ frame_needed = 0, uses_anonymous_args = 0
 150              	.LVL11:
 151              		.loc 1 70 0
 152 0000 0029     		cmp	r1, #0
 153 0002 03DD     		ble	.L7
 154              	.LVL12:
 155              	.LBB136:
 156              	.LBB137:
 157              		.loc 1 56 0
 158 0004 194A     		ldr	r2, .L9
 159              	.LVL13:
 160 0006 1A49     		ldr	r1, .L9+4
 161              	.LVL14:
 162 0008 FFF7FEBF 		b	chprintf
 163              	.LVL15:
 164              	.L7:
 165              	.LBE137:
 166              	.LBE136:
 167              		.loc 1 67 0
 168 000c 10B5     		push	{r4, lr}
 169              		.cfi_def_cfa_offset 8
 170              		.cfi_offset 4, -8
 171              		.cfi_offset 14, -4
ARM GAS  /var/folders/m4/4md61f0s1_g0rzfghffqnxvr0000gn/T//ccZOgsL0.s 			page 4


 172              	.LBB138:
 173              	.LBB139:
 174              		.loc 1 75 0
 175 000e 194A     		ldr	r2, .L9+8
 176              	.LVL16:
 177 0010 1949     		ldr	r1, .L9+12
 178              	.LVL17:
 179              	.LBE139:
 180              	.LBE138:
 181              		.loc 1 67 0
 182 0012 82B0     		sub	sp, sp, #8
 183              		.cfi_def_cfa_offset 16
 184 0014 0446     		mov	r4, r0
 185              	.LVL18:
 186              	.LBB141:
 187              	.LBB140:
 188              		.loc 1 75 0
 189 0016 FFF7FEFF 		bl	chprintf
 190              	.LVL19:
 191              		.loc 1 77 0
 192 001a 184A     		ldr	r2, .L9+16
 193 001c 1849     		ldr	r1, .L9+20
 194 001e 2046     		mov	r0, r4
 195 0020 FFF7FEFF 		bl	chprintf
 196              	.LVL20:
 197              		.loc 1 79 0
 198 0024 174A     		ldr	r2, .L9+24
 199 0026 1849     		ldr	r1, .L9+28
 200 0028 2046     		mov	r0, r4
 201 002a FFF7FEFF 		bl	chprintf
 202              	.LVL21:
 203              		.loc 1 81 0
 204 002e 174A     		ldr	r2, .L9+32
 205 0030 1749     		ldr	r1, .L9+36
 206 0032 2046     		mov	r0, r4
 207 0034 FFF7FEFF 		bl	chprintf
 208              	.LVL22:
 209              		.loc 1 84 0
 210 0038 164A     		ldr	r2, .L9+40
 211 003a 1749     		ldr	r1, .L9+44
 212 003c 2046     		mov	r0, r4
 213 003e FFF7FEFF 		bl	chprintf
 214              	.LVL23:
 215              		.loc 1 87 0
 216 0042 164A     		ldr	r2, .L9+48
 217 0044 1649     		ldr	r1, .L9+52
 218 0046 2046     		mov	r0, r4
 219 0048 FFF7FEFF 		bl	chprintf
 220              	.LVL24:
 221              		.loc 1 90 0
 222 004c 154A     		ldr	r2, .L9+56
 223 004e 1649     		ldr	r1, .L9+60
 224 0050 2046     		mov	r0, r4
 225 0052 FFF7FEFF 		bl	chprintf
 226              	.LVL25:
 227              		.loc 1 94 0
 228 0056 154B     		ldr	r3, .L9+64
ARM GAS  /var/folders/m4/4md61f0s1_g0rzfghffqnxvr0000gn/T//ccZOgsL0.s 			page 5


 229 0058 0093     		str	r3, [sp]
 230 005a 2046     		mov	r0, r4
 231 005c 144B     		ldr	r3, .L9+68
 232 005e 154A     		ldr	r2, .L9+72
 233 0060 1549     		ldr	r1, .L9+76
 234 0062 FFF7FEFF 		bl	chprintf
 235              	.LVL26:
 236              	.LBE140:
 237              	.LBE141:
 238              		.loc 1 97 0
 239 0066 02B0     		add	sp, sp, #8
 240              		.cfi_def_cfa_offset 8
 241              		@ sp needed
 242 0068 10BD     		pop	{r4, pc}
 243              	.LVL27:
 244              	.L10:
 245 006a 00BF     		.align	2
 246              	.L9:
 247 006c 1C000000 		.word	.LC3
 248 0070 08000000 		.word	.LC1
 249 0074 24000000 		.word	.LC4
 250 0078 2C000000 		.word	.LC5
 251 007c 40000000 		.word	.LC6
 252 0080 88000000 		.word	.LC7
 253 0084 9C000000 		.word	.LC8
 254 0088 A8000000 		.word	.LC9
 255 008c BC000000 		.word	.LC10
 256 0090 C8000000 		.word	.LC11
 257 0094 DC000000 		.word	.LC12
 258 0098 F4000000 		.word	.LC13
 259 009c 08010000 		.word	.LC14
 260 00a0 34010000 		.word	.LC15
 261 00a4 48010000 		.word	.LC16
 262 00a8 50010000 		.word	.LC17
 263 00ac 8C010000 		.word	.LC21
 264 00b0 64010000 		.word	.LC18
 265 00b4 68010000 		.word	.LC19
 266 00b8 74010000 		.word	.LC20
 267              		.cfi_endproc
 268              	.LFE271:
 269              		.size	cmd_info, .-cmd_info
 270              		.section	.text._strtok.constprop.2,"ax",%progbits
 271              		.align	2
 272              		.p2align 4,,15
 273              		.thumb
 274              		.thumb_func
 275              		.type	_strtok.constprop.2, %function
 276              	_strtok.constprop.2:
 277              	.LFB282:
 278              		.loc 1 37 0
 279              		.cfi_startproc
 280              		@ args = 0, pretend = 0, frame = 0
 281              		@ frame_needed = 0, uses_anonymous_args = 0
 282              	.LVL28:
 283 0000 38B5     		push	{r3, r4, r5, lr}
 284              		.cfi_def_cfa_offset 16
 285              		.cfi_offset 3, -16
ARM GAS  /var/folders/m4/4md61f0s1_g0rzfghffqnxvr0000gn/T//ccZOgsL0.s 			page 6


 286              		.cfi_offset 4, -12
 287              		.cfi_offset 5, -8
 288              		.cfi_offset 14, -4
 289              		.loc 1 37 0
 290 0002 0D46     		mov	r5, r1
 291              		.loc 1 39 0
 292 0004 98B1     		cbz	r0, .L12
 293 0006 0446     		mov	r4, r0
 294              		.loc 1 40 0
 295 0008 2860     		str	r0, [r5]
 296              	.LVL29:
 297              	.L13:
 298              		.loc 1 46 0
 299 000a 0C49     		ldr	r1, .L23
 300              	.LVL30:
 301 000c 2046     		mov	r0, r4
 302              	.LVL31:
 303 000e FFF7FEFF 		bl	strspn
 304              	.LVL32:
 305 0012 0444     		add	r4, r4, r0
 306              	.LVL33:
 307              		.loc 1 47 0
 308 0014 2046     		mov	r0, r4
 309 0016 0949     		ldr	r1, .L23
 310 0018 FFF7FEFF 		bl	strpbrk
 311              	.LVL34:
 312              		.loc 1 48 0
 313 001c 60B1     		cbz	r0, .L22
 314              		.loc 1 49 0
 315 001e 421C     		adds	r2, r0, #1
 316 0020 0023     		movs	r3, #0
 317 0022 2A60     		str	r2, [r5]
 318 0024 0370     		strb	r3, [r0]
 319              	.L16:
 320              		.loc 1 51 0
 321 0026 2378     		ldrb	r3, [r4]	@ zero_extendqisi2
 322 0028 23B1     		cbz	r3, .L17
 323 002a 2046     		mov	r0, r4
 324              		.loc 1 52 0
 325 002c 38BD     		pop	{r3, r4, r5, pc}
 326              	.LVL35:
 327              	.L12:
 328              		.loc 1 41 0
 329 002e 0C68     		ldr	r4, [r1]
 330              	.LVL36:
 331              		.loc 1 43 0
 332 0030 002C     		cmp	r4, #0
 333 0032 EAD1     		bne	.L13
 334              	.LVL37:
 335              	.L17:
 336              		.loc 1 44 0
 337 0034 0020     		movs	r0, #0
 338 0036 38BD     		pop	{r3, r4, r5, pc}
 339              	.LVL38:
 340              	.L22:
 341              		.loc 1 47 0
 342 0038 2860     		str	r0, [r5]
ARM GAS  /var/folders/m4/4md61f0s1_g0rzfghffqnxvr0000gn/T//ccZOgsL0.s 			page 7


 343 003a F4E7     		b	.L16
 344              	.L24:
 345              		.align	2
 346              	.L23:
 347 003c 98010000 		.word	.LC22
 348              		.cfi_endproc
 349              	.LFE282:
 350              		.size	_strtok.constprop.2, .-_strtok.constprop.2
 351              		.section	.text.shellInit,"ax",%progbits
 352              		.align	2
 353              		.p2align 4,,15
 354              		.global	shellInit
 355              		.thumb
 356              		.thumb_func
 357              		.type	shellInit, %function
 358              	shellInit:
 359              	.LFB275:
 360              		.loc 1 197 0
 361              		.cfi_startproc
 362              		@ args = 0, pretend = 0, frame = 0
 363              		@ frame_needed = 0, uses_anonymous_args = 0
 364              		@ link register save eliminated.
 365              	.LVL39:
 366              	.LBB142:
 367              	.LBB143:
 368              		.file 4 "ChibiOS_16.1.4/os/rt/include/chevents.h"
 369              		.loc 4 172 0
 370 0000 014B     		ldr	r3, .L26
 371 0002 1B60     		str	r3, [r3]
 372              	.LVL40:
 373 0004 7047     		bx	lr
 374              	.L27:
 375 0006 00BF     		.align	2
 376              	.L26:
 377 0008 00000000 		.word	.LANCHOR0
 378              	.LBE143:
 379              	.LBE142:
 380              		.cfi_endproc
 381              	.LFE275:
 382              		.size	shellInit, .-shellInit
 383              		.section	.text.shellExit,"ax",%progbits
 384              		.align	2
 385              		.p2align 4,,15
 386              		.global	shellExit
 387              		.thumb
 388              		.thumb_func
 389              		.type	shellExit, %function
 390              	shellExit:
 391              	.LFB276:
 392              		.loc 1 211 0
 393              		.cfi_startproc
 394              		@ args = 0, pretend = 0, frame = 0
 395              		@ frame_needed = 0, uses_anonymous_args = 0
 396              	.LVL41:
 397 0000 10B5     		push	{r4, lr}
 398              		.cfi_def_cfa_offset 8
 399              		.cfi_offset 4, -8
ARM GAS  /var/folders/m4/4md61f0s1_g0rzfghffqnxvr0000gn/T//ccZOgsL0.s 			page 8


 400              		.cfi_offset 14, -4
 401              	.LBB144:
 402              	.LBB145:
 403              	.LBB146:
 404              	.LBB147:
 405              		.loc 2 548 0
 406 0002 2023     		movs	r3, #32
 407              	.LBE147:
 408              	.LBE146:
 409              	.LBE145:
 410              	.LBE144:
 411              		.loc 1 211 0
 412 0004 0446     		mov	r4, r0
 413              	.LBB151:
 414              	.LBB150:
 415              	.LBB149:
 416              	.LBB148:
 417              		.loc 2 548 0
 418              		.syntax unified
 419              	@ 548 "ChibiOS_16.1.4/os/ext/CMSIS/include/core_cmFunc.h" 1
 420 0006 83F31188 		MSR basepri, r3
 421              	@ 0 "" 2
 422              	.LVL42:
 423              		.thumb
 424              		.syntax unified
 425              	.LBE148:
 426              	.LBE149:
 427              	.LBE150:
 428              	.LBE151:
 429              	.LBB152:
 430              	.LBB153:
 431              		.loc 4 256 0
 432 000a 0448     		ldr	r0, .L30
 433              	.LVL43:
 434 000c 0021     		movs	r1, #0
 435 000e FFF7FEFF 		bl	chEvtBroadcastFlagsI
 436              	.LVL44:
 437              	.LBE153:
 438              	.LBE152:
 439              		.loc 1 217 0
 440 0012 2046     		mov	r0, r4
 441              		.loc 1 218 0
 442 0014 BDE81040 		pop	{r4, lr}
 443              		.cfi_restore 14
 444              		.cfi_restore 4
 445              		.cfi_def_cfa_offset 0
 446              	.LVL45:
 447              		.loc 1 217 0
 448 0018 FFF7FEBF 		b	chThdExitS
 449              	.LVL46:
 450              	.L31:
 451              		.align	2
 452              	.L30:
 453 001c 00000000 		.word	.LANCHOR0
 454              		.cfi_endproc
 455              	.LFE276:
 456              		.size	shellExit, .-shellExit
ARM GAS  /var/folders/m4/4md61f0s1_g0rzfghffqnxvr0000gn/T//ccZOgsL0.s 			page 9


 457              		.section	.text.shellCreate,"ax",%progbits
 458              		.align	2
 459              		.p2align 4,,15
 460              		.global	shellCreate
 461              		.thumb
 462              		.thumb_func
 463              		.type	shellCreate, %function
 464              	shellCreate:
 465              	.LFB277:
 466              		.loc 1 233 0
 467              		.cfi_startproc
 468              		@ args = 0, pretend = 0, frame = 0
 469              		@ frame_needed = 0, uses_anonymous_args = 0
 470              	.LVL47:
 471 0000 00B5     		push	{lr}
 472              		.cfi_def_cfa_offset 4
 473              		.cfi_offset 14, -4
 474 0002 83B0     		sub	sp, sp, #12
 475              		.cfi_def_cfa_offset 16
 476              		.loc 1 235 0
 477 0004 034B     		ldr	r3, .L34
 478 0006 0090     		str	r0, [sp]
 479 0008 0020     		movs	r0, #0
 480              	.LVL48:
 481 000a FFF7FEFF 		bl	chThdCreateFromHeap
 482              	.LVL49:
 483              		.loc 1 236 0
 484 000e 03B0     		add	sp, sp, #12
 485              		.cfi_def_cfa_offset 4
 486              		@ sp needed
 487 0010 5DF804FB 		ldr	pc, [sp], #4
 488              	.L35:
 489              		.align	2
 490              	.L34:
 491 0014 00000000 		.word	shell_thread
 492              		.cfi_endproc
 493              	.LFE277:
 494              		.size	shellCreate, .-shellCreate
 495              		.section	.text.shellCreateStatic,"ax",%progbits
 496              		.align	2
 497              		.p2align 4,,15
 498              		.global	shellCreateStatic
 499              		.thumb
 500              		.thumb_func
 501              		.type	shellCreateStatic, %function
 502              	shellCreateStatic:
 503              	.LFB278:
 504              		.loc 1 251 0
 505              		.cfi_startproc
 506              		@ args = 0, pretend = 0, frame = 0
 507              		@ frame_needed = 0, uses_anonymous_args = 0
 508              	.LVL50:
 509 0000 10B5     		push	{r4, lr}
 510              		.cfi_def_cfa_offset 8
 511              		.cfi_offset 4, -8
 512              		.cfi_offset 14, -4
 513 0002 82B0     		sub	sp, sp, #8
ARM GAS  /var/folders/m4/4md61f0s1_g0rzfghffqnxvr0000gn/T//ccZOgsL0.s 			page 10


 514              		.cfi_def_cfa_offset 16
 515              		.loc 1 251 0
 516 0004 0C46     		mov	r4, r1
 517              		.loc 1 253 0
 518 0006 0090     		str	r0, [sp]
 519 0008 1146     		mov	r1, r2
 520              	.LVL51:
 521 000a 2046     		mov	r0, r4
 522              	.LVL52:
 523 000c 1A46     		mov	r2, r3
 524              	.LVL53:
 525 000e 024B     		ldr	r3, .L38
 526              	.LVL54:
 527 0010 FFF7FEFF 		bl	chThdCreateStatic
 528              	.LVL55:
 529              		.loc 1 254 0
 530 0014 02B0     		add	sp, sp, #8
 531              		.cfi_def_cfa_offset 8
 532              		@ sp needed
 533 0016 10BD     		pop	{r4, pc}
 534              	.LVL56:
 535              	.L39:
 536              		.align	2
 537              	.L38:
 538 0018 00000000 		.word	shell_thread
 539              		.cfi_endproc
 540              	.LFE278:
 541              		.size	shellCreateStatic, .-shellCreateStatic
 542              		.section	.text.shellGetLine,"ax",%progbits
 543              		.align	2
 544              		.p2align 4,,15
 545              		.global	shellGetLine
 546              		.thumb
 547              		.thumb_func
 548              		.type	shellGetLine, %function
 549              	shellGetLine:
 550              	.LFB279:
 551              		.loc 1 268 0
 552              		.cfi_startproc
 553              		@ args = 0, pretend = 0, frame = 8
 554              		@ frame_needed = 0, uses_anonymous_args = 0
 555              	.LVL57:
 556 0000 F0B5     		push	{r4, r5, r6, r7, lr}
 557              		.cfi_def_cfa_offset 20
 558              		.cfi_offset 4, -20
 559              		.cfi_offset 5, -16
 560              		.cfi_offset 6, -12
 561              		.cfi_offset 7, -8
 562              		.cfi_offset 14, -4
 563              	.LBB154:
 564              		.loc 1 296 0
 565 0002 013A     		subs	r2, r2, #1
 566              	.LVL58:
 567              	.LBE154:
 568              		.loc 1 268 0
 569 0004 83B0     		sub	sp, sp, #12
 570              		.cfi_def_cfa_offset 32
ARM GAS  /var/folders/m4/4md61f0s1_g0rzfghffqnxvr0000gn/T//ccZOgsL0.s 			page 11


 571              		.loc 1 268 0
 572 0006 0E46     		mov	r6, r1
 573              	.LVL59:
 574              	.LBB155:
 575              		.loc 1 296 0
 576 0008 8F18     		adds	r7, r1, r2
 577              	.LBE155:
 578              		.loc 1 268 0
 579 000a 0446     		mov	r4, r0
 580 000c 0D46     		mov	r5, r1
 581              	.LVL60:
 582              	.L41:
 583              	.LBB156:
 584              		.loc 1 274 0
 585 000e 2368     		ldr	r3, [r4]
 586 0010 0122     		movs	r2, #1
 587 0012 5B68     		ldr	r3, [r3, #4]
 588 0014 0DF10701 		add	r1, sp, #7
 589 0018 2046     		mov	r0, r4
 590 001a 9847     		blx	r3
 591              	.LVL61:
 592 001c 48B3     		cbz	r0, .L50
 593              		.loc 1 276 0
 594 001e 9DF80710 		ldrb	r1, [sp, #7]	@ zero_extendqisi2
 595 0022 0429     		cmp	r1, #4
 596 0024 28D0     		beq	.L57
 597              		.loc 1 280 0
 598 0026 0829     		cmp	r1, #8
 599 0028 10D0     		beq	.L44
 600              		.loc 1 280 0 is_stmt 0 discriminator 1
 601 002a 7F29     		cmp	r1, #127
 602 002c 0ED0     		beq	.L44
 603              		.loc 1 289 0 is_stmt 1
 604 002e 0D29     		cmp	r1, #13
 605 0030 29D0     		beq	.L58
 606              		.loc 1 294 0
 607 0032 1F29     		cmp	r1, #31
 608 0034 EBD9     		bls	.L41
 609              		.loc 1 296 0
 610 0036 BD42     		cmp	r5, r7
 611 0038 E9D2     		bcs	.L41
 612              		.loc 1 297 0
 613 003a 2368     		ldr	r3, [r4]
 614 003c 2046     		mov	r0, r4
 615 003e 9B68     		ldr	r3, [r3, #8]
 616 0040 9847     		blx	r3
 617              	.LVL62:
 618              		.loc 1 298 0
 619 0042 9DF80730 		ldrb	r3, [sp, #7]	@ zero_extendqisi2
 620 0046 2B70     		strb	r3, [r5]
 621 0048 0135     		adds	r5, r5, #1
 622              	.LVL63:
 623 004a E0E7     		b	.L41
 624              	.L44:
 625              		.loc 1 281 0
 626 004c B542     		cmp	r5, r6
 627              		.loc 1 282 0
ARM GAS  /var/folders/m4/4md61f0s1_g0rzfghffqnxvr0000gn/T//ccZOgsL0.s 			page 12


 628 004e 2046     		mov	r0, r4
 629              		.loc 1 281 0
 630 0050 DDD0     		beq	.L41
 631              	.LVL64:
 632              		.loc 1 282 0
 633 0052 2368     		ldr	r3, [r4]
 634 0054 9B68     		ldr	r3, [r3, #8]
 635 0056 9847     		blx	r3
 636              	.LVL65:
 637              		.loc 1 283 0
 638 0058 2368     		ldr	r3, [r4]
 639 005a 2021     		movs	r1, #32
 640 005c 9B68     		ldr	r3, [r3, #8]
 641 005e 2046     		mov	r0, r4
 642 0060 9847     		blx	r3
 643              	.LVL66:
 644              		.loc 1 284 0
 645 0062 2368     		ldr	r3, [r4]
 646 0064 9DF80710 		ldrb	r1, [sp, #7]	@ zero_extendqisi2
 647 0068 9B68     		ldr	r3, [r3, #8]
 648 006a 2046     		mov	r0, r4
 649              		.loc 1 285 0
 650 006c 013D     		subs	r5, r5, #1
 651              	.LVL67:
 652              		.loc 1 284 0
 653 006e 9847     		blx	r3
 654              	.LVL68:
 655 0070 CDE7     		b	.L41
 656              	.L50:
 657              		.loc 1 275 0
 658 0072 0120     		movs	r0, #1
 659              	.LBE156:
 660              		.loc 1 301 0
 661 0074 03B0     		add	sp, sp, #12
 662              		.cfi_remember_state
 663              		.cfi_def_cfa_offset 20
 664              		@ sp needed
 665 0076 F0BD     		pop	{r4, r5, r6, r7, pc}
 666              	.LVL69:
 667              	.L57:
 668              		.cfi_restore_state
 669              	.LBB157:
 670              		.loc 1 277 0
 671 0078 2046     		mov	r0, r4
 672 007a 0749     		ldr	r1, .L59
 673 007c FFF7FEFF 		bl	chprintf
 674              	.LVL70:
 675              		.loc 1 278 0
 676 0080 0120     		movs	r0, #1
 677              	.LBE157:
 678              		.loc 1 301 0
 679 0082 03B0     		add	sp, sp, #12
 680              		.cfi_remember_state
 681              		.cfi_def_cfa_offset 20
 682              		@ sp needed
 683 0084 F0BD     		pop	{r4, r5, r6, r7, pc}
 684              	.LVL71:
ARM GAS  /var/folders/m4/4md61f0s1_g0rzfghffqnxvr0000gn/T//ccZOgsL0.s 			page 13


 685              	.L58:
 686              		.cfi_restore_state
 687              	.LBB158:
 688              		.loc 1 290 0
 689 0086 2046     		mov	r0, r4
 690 0088 0449     		ldr	r1, .L59+4
 691 008a FFF7FEFF 		bl	chprintf
 692              	.LVL72:
 693              		.loc 1 291 0
 694 008e 0020     		movs	r0, #0
 695 0090 2870     		strb	r0, [r5]
 696              	.LBE158:
 697              		.loc 1 301 0
 698 0092 03B0     		add	sp, sp, #12
 699              		.cfi_def_cfa_offset 20
 700              		@ sp needed
 701 0094 F0BD     		pop	{r4, r5, r6, r7, pc}
 702              	.LVL73:
 703              	.L60:
 704 0096 00BF     		.align	2
 705              	.L59:
 706 0098 9C010000 		.word	.LC23
 707 009c A0010000 		.word	.LC24
 708              		.cfi_endproc
 709              	.LFE279:
 710              		.size	shellGetLine, .-shellGetLine
 711              		.section	.text.shell_thread,"ax",%progbits
 712              		.align	2
 713              		.p2align 4,,15
 714              		.thumb
 715              		.thumb_func
 716              		.type	shell_thread, %function
 717              	shell_thread:
 718              	.LFB274:
 719              		.loc 1 136 0
 720              		.cfi_startproc
 721              		@ args = 0, pretend = 0, frame = 88
 722              		@ frame_needed = 0, uses_anonymous_args = 0
 723              	.LVL74:
 724 0000 2DE9F041 		push	{r4, r5, r6, r7, r8, lr}
 725              		.cfi_def_cfa_offset 24
 726              		.cfi_offset 4, -24
 727              		.cfi_offset 5, -20
 728              		.cfi_offset 6, -16
 729              		.cfi_offset 7, -12
 730              		.cfi_offset 8, -8
 731              		.cfi_offset 14, -4
 732              	.LBB181:
 733              	.LBB182:
 734              		.file 5 "ChibiOS_16.1.4/os/rt/include/chregistry.h"
 735              		.loc 5 135 0
 736 0004 5A4B     		ldr	r3, .L114
 737              	.LBE182:
 738              	.LBE181:
 739              		.loc 1 138 0
 740 0006 0668     		ldr	r6, [r0]
 741              	.LVL75:
ARM GAS  /var/folders/m4/4md61f0s1_g0rzfghffqnxvr0000gn/T//ccZOgsL0.s 			page 14


 742              	.LBB185:
 743              	.LBB183:
 744              		.loc 5 135 0
 745 0008 9B69     		ldr	r3, [r3, #24]
 746 000a 5A4A     		ldr	r2, .L114+4
 747              	.LBE183:
 748              	.LBE185:
 749              		.loc 1 139 0
 750 000c D0F80480 		ldr	r8, [r0, #4]
 751              	.LVL76:
 752              		.loc 1 144 0
 753 0010 5949     		ldr	r1, .L114+8
 754              	.LBB186:
 755              	.LBB184:
 756              		.loc 5 135 0
 757 0012 9A61     		str	r2, [r3, #24]
 758              	.LVL77:
 759              	.LBE184:
 760              	.LBE186:
 761              		.loc 1 136 0
 762 0014 96B0     		sub	sp, sp, #88
 763              		.cfi_def_cfa_offset 112
 764              		.loc 1 144 0
 765 0016 3046     		mov	r0, r6
 766              	.LVL78:
 767 0018 FFF7FEFF 		bl	chprintf
 768              	.LVL79:
 769              	.L63:
 770              		.loc 1 146 0
 771 001c 5749     		ldr	r1, .L114+12
 772 001e 3046     		mov	r0, r6
 773 0020 FFF7FEFF 		bl	chprintf
 774              	.LVL80:
 775              		.loc 1 147 0
 776 0024 4022     		movs	r2, #64
 777 0026 06A9     		add	r1, sp, #24
 778 0028 3046     		mov	r0, r6
 779 002a FFF7FEFF 		bl	shellGetLine
 780              	.LVL81:
 781 002e 0446     		mov	r4, r0
 782 0030 78BB     		cbnz	r0, .L109
 783              		.loc 1 151 0
 784 0032 6946     		mov	r1, sp
 785 0034 06A8     		add	r0, sp, #24
 786 0036 FFF7FEFF 		bl	_strtok.constprop.2
 787              	.LVL82:
 788              		.loc 1 154 0
 789 003a 6946     		mov	r1, sp
 790              		.loc 1 151 0
 791 003c 0746     		mov	r7, r0
 792              	.LVL83:
 793              		.loc 1 154 0
 794 003e 0020     		movs	r0, #0
 795              	.LVL84:
 796 0040 01AD     		add	r5, sp, #4
 797 0042 FFF7FEFF 		bl	_strtok.constprop.2
 798              	.LVL85:
ARM GAS  /var/folders/m4/4md61f0s1_g0rzfghffqnxvr0000gn/T//ccZOgsL0.s 			page 15


 799 0046 50B1     		cbz	r0, .L110
 800              	.L69:
 801              		.loc 1 155 0
 802 0048 042C     		cmp	r4, #4
 803 004a 1BD0     		beq	.L111
 804              		.loc 1 160 0
 805 004c 45F8040B 		str	r0, [r5], #4
 806              		.loc 1 154 0
 807 0050 6946     		mov	r1, sp
 808 0052 0020     		movs	r0, #0
 809              	.LVL86:
 810              		.loc 1 160 0
 811 0054 0134     		adds	r4, r4, #1
 812              	.LVL87:
 813              		.loc 1 154 0
 814 0056 FFF7FEFF 		bl	_strtok.constprop.2
 815              	.LVL88:
 816 005a 0028     		cmp	r0, #0
 817 005c F4D1     		bne	.L69
 818              	.L110:
 819              		.loc 1 162 0
 820 005e 16AB     		add	r3, sp, #88
 821 0060 03EB8403 		add	r3, r3, r4, lsl #2
 822 0064 43F8540C 		str	r0, [r3, #-84]
 823              		.loc 1 163 0
 824 0068 002F     		cmp	r7, #0
 825 006a D7D0     		beq	.L63
 826              		.loc 1 164 0
 827 006c 4449     		ldr	r1, .L114+16
 828 006e 3846     		mov	r0, r7
 829              	.LVL89:
 830 0070 FFF7FEFF 		bl	strcmp
 831              	.LVL90:
 832 0074 F0B9     		cbnz	r0, .L70
 833              		.loc 1 165 0
 834 0076 84B1     		cbz	r4, .L65
 835              	.LVL91:
 836              	.LBB187:
 837              	.LBB188:
 838              		.loc 1 56 0
 839 0078 414A     		ldr	r2, .L114+16
 840 007a 4249     		ldr	r1, .L114+20
 841 007c 3046     		mov	r0, r6
 842 007e FFF7FEFF 		bl	chprintf
 843              	.LVL92:
 844              	.LBE188:
 845              	.LBE187:
 846              		.loc 1 167 0
 847 0082 CBE7     		b	.L63
 848              	.LVL93:
 849              	.L111:
 850              		.loc 1 156 0
 851 0084 4049     		ldr	r1, .L114+24
 852 0086 3046     		mov	r0, r6
 853              	.LVL94:
 854 0088 FFF7FEFF 		bl	chprintf
 855              	.LVL95:
ARM GAS  /var/folders/m4/4md61f0s1_g0rzfghffqnxvr0000gn/T//ccZOgsL0.s 			page 16


 856              		.loc 1 162 0
 857 008c 0023     		movs	r3, #0
 858 008e 0593     		str	r3, [sp, #20]
 859 0090 C4E7     		b	.L63
 860              	.LVL96:
 861              	.L109:
 862              		.loc 1 148 0
 863 0092 3046     		mov	r0, r6
 864 0094 3D49     		ldr	r1, .L114+28
 865 0096 FFF7FEFF 		bl	chprintf
 866              	.LVL97:
 867              	.L65:
 868              	.LBB189:
 869              	.LBB190:
 870              	.LBB191:
 871              	.LBB192:
 872              	.LBB193:
 873              	.LBB194:
 874              		.loc 2 548 0
 875 009a 2023     		movs	r3, #32
 876              		.syntax unified
 877              	@ 548 "ChibiOS_16.1.4/os/ext/CMSIS/include/core_cmFunc.h" 1
 878 009c 83F31188 		MSR basepri, r3
 879              	@ 0 "" 2
 880              	.LVL98:
 881              		.thumb
 882              		.syntax unified
 883              	.LBE194:
 884              	.LBE193:
 885              	.LBE192:
 886              	.LBE191:
 887              	.LBB195:
 888              	.LBB196:
 889              		.loc 4 256 0
 890 00a0 0021     		movs	r1, #0
 891 00a2 3B48     		ldr	r0, .L114+32
 892 00a4 FFF7FEFF 		bl	chEvtBroadcastFlagsI
 893              	.LVL99:
 894              	.LBE196:
 895              	.LBE195:
 896              		.loc 1 217 0
 897 00a8 0020     		movs	r0, #0
 898 00aa FFF7FEFF 		bl	chThdExitS
 899              	.LVL100:
 900              	.LBE190:
 901              	.LBE189:
 902              		.loc 1 190 0
 903 00ae 16B0     		add	sp, sp, #88
 904              		.cfi_remember_state
 905              		.cfi_def_cfa_offset 24
 906              		@ sp needed
 907 00b0 BDE8F081 		pop	{r4, r5, r6, r7, r8, pc}
 908              	.LVL101:
 909              	.L70:
 910              		.cfi_restore_state
 911              		.loc 1 171 0
 912 00b4 3749     		ldr	r1, .L114+36
ARM GAS  /var/folders/m4/4md61f0s1_g0rzfghffqnxvr0000gn/T//ccZOgsL0.s 			page 17


 913 00b6 3846     		mov	r0, r7
 914 00b8 FFF7FEFF 		bl	strcmp
 915              	.LVL102:
 916 00bc 30B9     		cbnz	r0, .L112
 917              		.loc 1 172 0
 918 00be BCB1     		cbz	r4, .L75
 919              	.LVL103:
 920              	.LBB197:
 921              	.LBB198:
 922              		.loc 1 56 0
 923 00c0 344A     		ldr	r2, .L114+36
 924 00c2 3049     		ldr	r1, .L114+20
 925 00c4 3046     		mov	r0, r6
 926 00c6 FFF7FEFF 		bl	chprintf
 927              	.LVL104:
 928              	.LBE198:
 929              	.LBE197:
 930              		.loc 1 174 0
 931 00ca A7E7     		b	.L63
 932              	.L112:
 933              	.LVL105:
 934              	.LBB199:
 935              	.LBB200:
 936              		.loc 1 121 0
 937 00cc 324D     		ldr	r5, .L114+40
 938 00ce 2868     		ldr	r0, [r5]
 939 00d0 18B9     		cbnz	r0, .L83
 940 00d2 31E0     		b	.L74
 941              	.LVL106:
 942              	.L113:
 943 00d4 55F8080F 		ldr	r0, [r5, #8]!
 944              	.LVL107:
 945 00d8 70B3     		cbz	r0, .L74
 946              	.LVL108:
 947              	.L83:
 948              		.loc 1 122 0
 949 00da 3946     		mov	r1, r7
 950 00dc FFF7FEFF 		bl	strcmp
 951              	.LVL109:
 952 00e0 0028     		cmp	r0, #0
 953 00e2 F7D1     		bne	.L113
 954              	.LVL110:
 955              	.L108:
 956              	.LBE200:
 957              	.LBE199:
 958              	.LBB201:
 959              	.LBB202:
 960              		.loc 1 123 0
 961 00e4 6B68     		ldr	r3, [r5, #4]
 962 00e6 01AA     		add	r2, sp, #4
 963 00e8 2146     		mov	r1, r4
 964 00ea 3046     		mov	r0, r6
 965 00ec 9847     		blx	r3
 966              	.LVL111:
 967 00ee 95E7     		b	.L63
 968              	.L75:
 969              	.LBE202:
ARM GAS  /var/folders/m4/4md61f0s1_g0rzfghffqnxvr0000gn/T//ccZOgsL0.s 			page 18


 970              	.LBE201:
 971              	.LBB204:
 972              	.LBB205:
 973              		.loc 1 61 0
 974 00f0 294D     		ldr	r5, .L114+40
 975              	.LBE205:
 976              	.LBE204:
 977              		.loc 1 176 0
 978 00f2 2A49     		ldr	r1, .L114+44
 979 00f4 3046     		mov	r0, r6
 980 00f6 FFF7FEFF 		bl	chprintf
 981              	.LVL112:
 982              	.LBB207:
 983              	.LBB206:
 984              		.loc 1 61 0
 985 00fa 2A68     		ldr	r2, [r5]
 986 00fc 2C46     		mov	r4, r5
 987              	.LVL113:
 988 00fe 3AB1     		cbz	r2, .L80
 989              	.LVL114:
 990              	.L79:
 991              		.loc 1 62 0
 992 0100 2749     		ldr	r1, .L114+48
 993 0102 3046     		mov	r0, r6
 994 0104 FFF7FEFF 		bl	chprintf
 995              	.LVL115:
 996              		.loc 1 61 0
 997 0108 54F8082F 		ldr	r2, [r4, #8]!
 998              	.LVL116:
 999 010c 002A     		cmp	r2, #0
 1000 010e F7D1     		bne	.L79
 1001              	.LVL117:
 1002              	.L80:
 1003              	.LBE206:
 1004              	.LBE207:
 1005              		.loc 1 178 0
 1006 0110 B8F1000F 		cmp	r8, #0
 1007 0114 0BD0     		beq	.L78
 1008              	.LVL118:
 1009              	.LBB208:
 1010              	.LBB209:
 1011              		.loc 1 61 0
 1012 0116 D8F80020 		ldr	r2, [r8]
 1013 011a 42B1     		cbz	r2, .L78
 1014 011c 4446     		mov	r4, r8
 1015              	.LVL119:
 1016              	.L81:
 1017              		.loc 1 62 0
 1018 011e 2049     		ldr	r1, .L114+48
 1019 0120 3046     		mov	r0, r6
 1020 0122 FFF7FEFF 		bl	chprintf
 1021              	.LVL120:
 1022              		.loc 1 61 0
 1023 0126 54F8082F 		ldr	r2, [r4, #8]!
 1024              	.LVL121:
 1025 012a 002A     		cmp	r2, #0
 1026 012c F7D1     		bne	.L81
ARM GAS  /var/folders/m4/4md61f0s1_g0rzfghffqnxvr0000gn/T//ccZOgsL0.s 			page 19


 1027              	.LVL122:
 1028              	.L78:
 1029              	.LBE209:
 1030              	.LBE208:
 1031              		.loc 1 180 0
 1032 012e 1D49     		ldr	r1, .L114+52
 1033 0130 3046     		mov	r0, r6
 1034 0132 FFF7FEFF 		bl	chprintf
 1035              	.LVL123:
 1036 0136 71E7     		b	.L63
 1037              	.LVL124:
 1038              	.L74:
 1039              		.loc 1 182 0
 1040 0138 B8F1000F 		cmp	r8, #0
 1041 013c 0DD0     		beq	.L86
 1042              	.LVL125:
 1043              	.LBB210:
 1044              	.LBB203:
 1045              		.loc 1 121 0
 1046 013e D8F80000 		ldr	r0, [r8]
 1047 0142 50B1     		cbz	r0, .L86
 1048 0144 4546     		mov	r5, r8
 1049 0146 02E0     		b	.L85
 1050              	.LVL126:
 1051              	.L84:
 1052 0148 55F8080F 		ldr	r0, [r5, #8]!
 1053              	.LVL127:
 1054 014c 28B1     		cbz	r0, .L86
 1055              	.LVL128:
 1056              	.L85:
 1057              		.loc 1 122 0
 1058 014e 3946     		mov	r1, r7
 1059 0150 FFF7FEFF 		bl	strcmp
 1060              	.LVL129:
 1061 0154 0028     		cmp	r0, #0
 1062 0156 F7D1     		bne	.L84
 1063 0158 C4E7     		b	.L108
 1064              	.LVL130:
 1065              	.L86:
 1066              	.LBE203:
 1067              	.LBE210:
 1068              		.loc 1 184 0
 1069 015a 3A46     		mov	r2, r7
 1070 015c 1249     		ldr	r1, .L114+56
 1071 015e 3046     		mov	r0, r6
 1072 0160 FFF7FEFF 		bl	chprintf
 1073              	.LVL131:
 1074              		.loc 1 185 0
 1075 0164 1149     		ldr	r1, .L114+60
 1076 0166 3046     		mov	r0, r6
 1077 0168 FFF7FEFF 		bl	chprintf
 1078              	.LVL132:
 1079 016c 56E7     		b	.L63
 1080              	.L115:
 1081 016e 00BF     		.align	2
 1082              	.L114:
 1083 0170 00000000 		.word	ch
ARM GAS  /var/folders/m4/4md61f0s1_g0rzfghffqnxvr0000gn/T//ccZOgsL0.s 			page 20


 1084 0174 A4010000 		.word	.LC25
 1085 0178 AC010000 		.word	.LC26
 1086 017c C4010000 		.word	.LC27
 1087 0180 F0010000 		.word	.LC30
 1088 0184 08000000 		.word	.LC1
 1089 0188 D8010000 		.word	.LC29
 1090 018c CC010000 		.word	.LC28
 1091 0190 00000000 		.word	.LANCHOR0
 1092 0194 F8010000 		.word	.LC31
 1093 0198 00000000 		.word	.LANCHOR1
 1094 019c 00020000 		.word	.LC32
 1095 01a0 18020000 		.word	.LC33
 1096 01a4 A0010000 		.word	.LC24
 1097 01a8 1C020000 		.word	.LC34
 1098 01ac 20020000 		.word	.LC35
 1099              		.cfi_endproc
 1100              	.LFE274:
 1101              		.size	shell_thread, .-shell_thread
 1102              		.global	shell_terminated
 1103              		.section	.data.local_commands,"aw",%progbits
 1104              		.align	2
 1105              		.set	.LANCHOR1,. + 0
 1106              		.type	local_commands, %object
 1107              		.size	local_commands, 24
 1108              	local_commands:
 1109 0000 1C000000 		.word	.LC3
 1110 0004 00000000 		.word	cmd_info
 1111 0008 00000000 		.word	.LC0
 1112 000c 00000000 		.word	cmd_systime
 1113 0010 00000000 		.word	0
 1114 0014 00000000 		.word	0
 1115              		.section	.rodata.str1.4,"aMS",%progbits,1
 1116              		.align	2
 1117              	.LC0:
 1118 0000 73797374 		.ascii	"systime\000"
 1118      696D6500 
 1119              	.LC1:
 1120 0008 55736167 		.ascii	"Usage: %s\015\012\000"
 1120      653A2025 
 1120      730D0A00 
 1121              	.LC2:
 1122 0014 256C750D 		.ascii	"%lu\015\012\000"
 1122      0A00
 1123 001a 0000     		.space	2
 1124              	.LC3:
 1125 001c 696E666F 		.ascii	"info\000"
 1125      00
 1126 0021 000000   		.space	3
 1127              	.LC4:
 1128 0024 332E312E 		.ascii	"3.1.3\000"
 1128      3300
 1129 002a 0000     		.space	2
 1130              	.LC5:
 1131 002c 4B65726E 		.ascii	"Kernel:       %s\015\012\000"
 1131      656C3A20 
 1131      20202020 
 1131      20202573 
ARM GAS  /var/folders/m4/4md61f0s1_g0rzfghffqnxvr0000gn/T//ccZOgsL0.s 			page 21


 1131      0D0A00
 1132 003f 00       		.space	1
 1133              	.LC6:
 1134 0040 47434320 		.ascii	"GCC 5.2.1 20151202 (release) [ARM/embedded-5-branch"
 1134      352E322E 
 1134      31203230 
 1134      31353132 
 1134      30322028 
 1135 0073 20726576 		.ascii	" revision 231848]\000"
 1135      6973696F 
 1135      6E203233 
 1135      31383438 
 1135      5D00
 1136 0085 000000   		.space	3
 1137              	.LC7:
 1138 0088 436F6D70 		.ascii	"Compiler:     %s\015\012\000"
 1138      696C6572 
 1138      3A202020 
 1138      20202573 
 1138      0D0A00
 1139 009b 00       		.space	1
 1140              	.LC8:
 1141 009c 41524D76 		.ascii	"ARMv7E-M\000"
 1141      37452D4D 
 1141      00
 1142 00a5 000000   		.space	3
 1143              	.LC9:
 1144 00a8 41726368 		.ascii	"Architecture: %s\015\012\000"
 1144      69746563 
 1144      74757265 
 1144      3A202573 
 1144      0D0A00
 1145 00bb 00       		.space	1
 1146              	.LC10:
 1147 00bc 436F7274 		.ascii	"Cortex-M4F\000"
 1147      65782D4D 
 1147      344600
 1148 00c7 00       		.space	1
 1149              	.LC11:
 1150 00c8 436F7265 		.ascii	"Core Variant: %s\015\012\000"
 1150      20566172 
 1150      69616E74 
 1150      3A202573 
 1150      0D0A00
 1151 00db 00       		.space	1
 1152              	.LC12:
 1153 00dc 41647661 		.ascii	"Advanced kernel mode\000"
 1153      6E636564 
 1153      206B6572 
 1153      6E656C20 
 1153      6D6F6465 
 1154 00f1 000000   		.space	3
 1155              	.LC13:
 1156 00f4 506F7274 		.ascii	"Port Info:    %s\015\012\000"
 1156      20496E66 
 1156      6F3A2020 
 1156      20202573 
ARM GAS  /var/folders/m4/4md61f0s1_g0rzfghffqnxvr0000gn/T//ccZOgsL0.s 			page 22


 1156      0D0A00
 1157 0107 00       		.space	1
 1158              	.LC14:
 1159 0108 53544D33 		.ascii	"STM32F405 High Performance with DSP and FPU\000"
 1159      32463430 
 1159      35204869 
 1159      67682050 
 1159      6572666F 
 1160              	.LC15:
 1161 0134 506C6174 		.ascii	"Platform:     %s\015\012\000"
 1161      666F726D 
 1161      3A202020 
 1161      20202573 
 1161      0D0A00
 1162 0147 00       		.space	1
 1163              	.LC16:
 1164 0148 72455343 		.ascii	"rESC\000"
 1164      00
 1165 014d 000000   		.space	3
 1166              	.LC17:
 1167 0150 426F6172 		.ascii	"Board:        %s\015\012\000"
 1167      643A2020 
 1167      20202020 
 1167      20202573 
 1167      0D0A00
 1168 0163 00       		.space	1
 1169              	.LC18:
 1170 0164 202D2000 		.ascii	" - \000"
 1171              	.LC19:
 1172 0168 4D617920 		.ascii	"May 30 2016\000"
 1172      33302032 
 1172      30313600 
 1173              	.LC20:
 1174 0174 4275696C 		.ascii	"Build time:   %s%s%s\015\012\000"
 1174      64207469 
 1174      6D653A20 
 1174      20202573 
 1174      25732573 
 1175 018b 00       		.space	1
 1176              	.LC21:
 1177 018c 30313A32 		.ascii	"01:26:00\000"
 1177      363A3030 
 1177      00
 1178 0195 000000   		.space	3
 1179              	.LC22:
 1180 0198 200900   		.ascii	" \011\000"
 1181 019b 00       		.space	1
 1182              	.LC23:
 1183 019c 5E4400   		.ascii	"^D\000"
 1184 019f 00       		.space	1
 1185              	.LC24:
 1186 01a0 0D0A00   		.ascii	"\015\012\000"
 1187 01a3 00       		.space	1
 1188              	.LC25:
 1189 01a4 7368656C 		.ascii	"shell\000"
 1189      6C00
 1190 01aa 0000     		.space	2
ARM GAS  /var/folders/m4/4md61f0s1_g0rzfghffqnxvr0000gn/T//ccZOgsL0.s 			page 23


 1191              	.LC26:
 1192 01ac 0D0A4368 		.ascii	"\015\012ChibiOS/RT Shell\015\012\000"
 1192      6962694F 
 1192      532F5254 
 1192      20536865 
 1192      6C6C0D0A 
 1193 01c1 000000   		.space	3
 1194              	.LC27:
 1195 01c4 63683E20 		.ascii	"ch> \000"
 1195      00
 1196 01c9 000000   		.space	3
 1197              	.LC28:
 1198 01cc 0D0A6C6F 		.ascii	"\015\012logout\000"
 1198      676F7574 
 1198      00
 1199 01d5 000000   		.space	3
 1200              	.LC29:
 1201 01d8 746F6F20 		.ascii	"too many arguments\015\012\000"
 1201      6D616E79 
 1201      20617267 
 1201      756D656E 
 1201      74730D0A 
 1202 01ed 000000   		.space	3
 1203              	.LC30:
 1204 01f0 65786974 		.ascii	"exit\000"
 1204      00
 1205 01f5 000000   		.space	3
 1206              	.LC31:
 1207 01f8 68656C70 		.ascii	"help\000"
 1207      00
 1208 01fd 000000   		.space	3
 1209              	.LC32:
 1210 0200 436F6D6D 		.ascii	"Commands: help exit \000"
 1210      616E6473 
 1210      3A206865 
 1210      6C702065 
 1210      78697420 
 1211 0215 000000   		.space	3
 1212              	.LC33:
 1213 0218 25732000 		.ascii	"%s \000"
 1214              	.LC34:
 1215 021c 257300   		.ascii	"%s\000"
 1216 021f 00       		.space	1
 1217              	.LC35:
 1218 0220 203F0D0A 		.ascii	" ?\015\012\000"
 1218      00
 1219              		.section	.bss.shell_terminated,"aw",%nobits
 1220              		.align	2
 1221              		.set	.LANCHOR0,. + 0
 1222              		.type	shell_terminated, %object
 1223              		.size	shell_terminated, 4
 1224              	shell_terminated:
 1225 0000 00000000 		.space	4
 1226              		.text
 1227              	.Letext0:
 1228              		.file 6 "/opt/homebrew-cask/Caskroom/gcc-arm-embedded/5_2-2015q4,20151219/gcc-arm-none-eabi-5_2-20
 1229              		.file 7 "/opt/homebrew-cask/Caskroom/gcc-arm-embedded/5_2-2015q4,20151219/gcc-arm-none-eabi-5_2-20
ARM GAS  /var/folders/m4/4md61f0s1_g0rzfghffqnxvr0000gn/T//ccZOgsL0.s 			page 24


 1230              		.file 8 "/opt/homebrew-cask/Caskroom/gcc-arm-embedded/5_2-2015q4,20151219/gcc-arm-none-eabi-5_2-20
 1231              		.file 9 "ChibiOS_16.1.4/os/rt/ports/ARMCMx/compilers/GCC/chtypes.h"
 1232              		.file 10 "ChibiOS_16.1.4/os/rt/include/chsystypes.h"
 1233              		.file 11 "ChibiOS_16.1.4/os/rt/include/chschd.h"
 1234              		.file 12 "ChibiOS_16.1.4/os/rt/ports/ARMCMx/chcore.h"
 1235              		.file 13 "ChibiOS_16.1.4/os/rt/ports/ARMCMx/chcore_v7m.h"
 1236              		.file 14 "ChibiOS_16.1.4/os/rt/include/chtm.h"
 1237              		.file 15 "ChibiOS_16.1.4/os/rt/include/chsem.h"
 1238              		.file 16 "ChibiOS_16.1.4/os/rt/include/chmtx.h"
 1239              		.file 17 "ChibiOS_16.1.4/os/rt/include/chstreams.h"
 1240              		.file 18 "ChibiOS_16.1.4/os/various/shell.h"
 1241              		.file 19 "ChibiOS_16.1.4/os/rt/include/chsys.h"
 1242              		.file 20 "ChibiOS_16.1.4/os/ext/CMSIS/include/core_cm4.h"
 1243              		.file 21 "ChibiOS_16.1.4/os/hal/lib/streams/chprintf.h"
 1244              		.file 22 "/opt/homebrew-cask/Caskroom/gcc-arm-embedded/5_2-2015q4,20151219/gcc-arm-none-eabi-5_2-2
 1245              		.file 23 "ChibiOS_16.1.4/os/rt/include/chthreads.h"
 1246              		.file 24 "ChibiOS_16.1.4/os/rt/include/chdynamic.h"