ARM GAS  /var/folders/m4/4md61f0s1_g0rzfghffqnxvr0000gn/T//ccHfRd1a.s 			page 1


   1              		.syntax unified
   2              		.cpu cortex-m4
   3              		.eabi_attribute 27, 1
   4              		.eabi_attribute 28, 1
   5              		.fpu fpv4-sp-d16
   6              		.eabi_attribute 20, 1
   7              		.eabi_attribute 21, 1
   8              		.eabi_attribute 23, 3
   9              		.eabi_attribute 24, 1
  10              		.eabi_attribute 25, 1
  11              		.eabi_attribute 26, 1
  12              		.eabi_attribute 30, 2
  13              		.eabi_attribute 34, 1
  14              		.eabi_attribute 18, 4
  15              		.thumb
  16              		.syntax unified
  17              		.file	"spi_lld.c"
  18              		.text
  19              	.Ltext0:
  20              		.cfi_sections	.debug_frame
  21              		.section	.text.spi_lld_serve_tx_interrupt,"ax",%progbits
  22              		.align	2
  23              		.p2align 4,,15
  24              		.thumb
  25              		.thumb_func
  26              		.type	spi_lld_serve_tx_interrupt, %function
  27              	spi_lld_serve_tx_interrupt:
  28              	.LFB269:
  29              		.file 1 "ChibiOS_16.1.4/os/hal/ports/STM32/LLD/SPIv1/spi_lld.c"
  30              		.loc 1 158 0
  31              		.cfi_startproc
  32              		@ args = 0, pretend = 0, frame = 0
  33              		@ frame_needed = 0, uses_anonymous_args = 0
  34              		@ link register save eliminated.
  35              	.LVL0:
  36              		.loc 1 163 0
  37 0000 11F00C0F 		tst	r1, #12
  38 0004 00D1     		bne	.L4
  39 0006 7047     		bx	lr
  40              	.L4:
  41              	.LVL1:
  42              	.LBB56:
  43              	.LBB57:
  44              		.file 2 "ChibiOS_16.1.4/os/hal/osal/rt/osal.h"
  45              		.loc 2 462 0
  46 0008 0148     		ldr	r0, .L5
  47              	.LVL2:
  48 000a FFF7FEBF 		b	chSysHalt
  49              	.LVL3:
  50              	.L6:
  51 000e 00BF     		.align	2
  52              	.L5:
  53 0010 00000000 		.word	.LC0
  54              	.LBE57:
  55              	.LBE56:
  56              		.cfi_endproc
  57              	.LFE269:
ARM GAS  /var/folders/m4/4md61f0s1_g0rzfghffqnxvr0000gn/T//ccHfRd1a.s 			page 2


  58              		.size	spi_lld_serve_tx_interrupt, .-spi_lld_serve_tx_interrupt
  59              		.section	.text.spi_lld_serve_rx_interrupt,"ax",%progbits
  60              		.align	2
  61              		.p2align 4,,15
  62              		.thumb
  63              		.thumb_func
  64              		.type	spi_lld_serve_rx_interrupt, %function
  65              	spi_lld_serve_rx_interrupt:
  66              	.LFB268:
  67              		.loc 1 132 0
  68              		.cfi_startproc
  69              		@ args = 0, pretend = 0, frame = 0
  70              		@ frame_needed = 0, uses_anonymous_args = 0
  71              	.LVL4:
  72              		.loc 1 136 0
  73 0000 11F00C0F 		tst	r1, #12
  74              		.loc 1 132 0
  75 0004 38B5     		push	{r3, r4, r5, lr}
  76              		.cfi_def_cfa_offset 16
  77              		.cfi_offset 3, -16
  78              		.cfi_offset 4, -12
  79              		.cfi_offset 5, -8
  80              		.cfi_offset 14, -4
  81              		.loc 1 132 0
  82 0006 0446     		mov	r4, r0
  83              		.loc 1 136 0
  84 0008 34D1     		bne	.L22
  85              	.LVL5:
  86              	.L8:
  87              		.loc 1 144 0
  88 000a 606A     		ldr	r0, [r4, #36]
  89 000c 0268     		ldr	r2, [r0]
  90 000e 1368     		ldr	r3, [r2]
  91 0010 23F01F03 		bic	r3, r3, #31
  92 0014 1360     		str	r3, [r2]
  93              	.L9:
  94              		.loc 1 144 0 is_stmt 0 discriminator 2
  95 0016 1368     		ldr	r3, [r2]
  96 0018 D907     		lsls	r1, r3, #31
  97 001a FCD4     		bmi	.L9
  98              		.loc 1 144 0 discriminator 3
  99 001c 057A     		ldrb	r5, [r0, #8]	@ zero_extendqisi2
 100              		.loc 1 145 0 is_stmt 1 discriminator 3
 101 001e 216A     		ldr	r1, [r4, #32]
 102              		.loc 1 144 0 discriminator 3
 103 0020 4068     		ldr	r0, [r0, #4]
 104              		.loc 1 145 0 discriminator 3
 105 0022 0A68     		ldr	r2, [r1]
 106              		.loc 1 144 0 discriminator 3
 107 0024 3D23     		movs	r3, #61
 108 0026 AB40     		lsls	r3, r3, r5
 109 0028 0360     		str	r3, [r0]
 110              		.loc 1 145 0 discriminator 3
 111 002a 1368     		ldr	r3, [r2]
 112 002c 23F01F03 		bic	r3, r3, #31
 113 0030 1360     		str	r3, [r2]
 114              	.L10:
ARM GAS  /var/folders/m4/4md61f0s1_g0rzfghffqnxvr0000gn/T//ccHfRd1a.s 			page 3


 115              		.loc 1 145 0 is_stmt 0 discriminator 2
 116 0032 1368     		ldr	r3, [r2]
 117 0034 DB07     		lsls	r3, r3, #31
 118 0036 FCD4     		bmi	.L10
 119              		.loc 1 149 0 is_stmt 1 discriminator 3
 120 0038 6368     		ldr	r3, [r4, #4]
 121              		.loc 1 145 0 discriminator 3
 122 003a 087A     		ldrb	r0, [r1, #8]	@ zero_extendqisi2
 123              		.loc 1 149 0 discriminator 3
 124 003c 1A68     		ldr	r2, [r3]
 125              		.loc 1 145 0 discriminator 3
 126 003e 4968     		ldr	r1, [r1, #4]
 127 0040 3D23     		movs	r3, #61
 128 0042 8340     		lsls	r3, r3, r0
 129 0044 0B60     		str	r3, [r1]
 130              		.loc 1 149 0 discriminator 3
 131 0046 92B1     		cbz	r2, .L11
 132              		.loc 1 149 0 is_stmt 0 discriminator 1
 133 0048 0423     		movs	r3, #4
 134 004a 2370     		strb	r3, [r4]
 135 004c 2046     		mov	r0, r4
 136 004e 9047     		blx	r2
 137              	.LVL6:
 138 0050 2378     		ldrb	r3, [r4]	@ zero_extendqisi2
 139 0052 042B     		cmp	r3, #4
 140 0054 0BD0     		beq	.L11
 141              	.L12:
 142              	.LVL7:
 143              	.LBB58:
 144              	.LBB59:
 145              	.LBB60:
 146              	.LBB61:
 147              	.LBB62:
 148              	.LBB63:
 149              		.file 3 "ChibiOS_16.1.4/os/ext/CMSIS/include/core_cmFunc.h"
 150              		.loc 3 548 0 is_stmt 1 discriminator 4
 151 0056 2023     		movs	r3, #32
 152              		.syntax unified
 153              	@ 548 "ChibiOS_16.1.4/os/ext/CMSIS/include/core_cmFunc.h" 1
 154 0058 83F31188 		MSR basepri, r3
 155              	@ 0 "" 2
 156              	.LVL8:
 157              		.thumb
 158              		.syntax unified
 159              	.LBE63:
 160              	.LBE62:
 161              	.LBE61:
 162              	.LBE60:
 163              	.LBE59:
 164              	.LBE58:
 165              	.LBB64:
 166              	.LBB65:
 167              		.loc 2 728 0 discriminator 4
 168 005c 0021     		movs	r1, #0
 169 005e 04F10800 		add	r0, r4, #8
 170              	.LVL9:
 171 0062 FFF7FEFF 		bl	chThdResumeI
ARM GAS  /var/folders/m4/4md61f0s1_g0rzfghffqnxvr0000gn/T//ccHfRd1a.s 			page 4


 172              	.LVL10:
 173              	.LBE65:
 174              	.LBE64:
 175              	.LBB66:
 176              	.LBB67:
 177              	.LBB68:
 178              	.LBB69:
 179              	.LBB70:
 180              	.LBB71:
 181              		.loc 3 548 0 discriminator 4
 182 0066 0023     		movs	r3, #0
 183              		.syntax unified
 184              	@ 548 "ChibiOS_16.1.4/os/ext/CMSIS/include/core_cmFunc.h" 1
 185 0068 83F31188 		MSR basepri, r3
 186              	@ 0 "" 2
 187              	.LVL11:
 188              		.thumb
 189              		.syntax unified
 190 006c 38BD     		pop	{r3, r4, r5, pc}
 191              	.LVL12:
 192              	.L11:
 193              	.LBE71:
 194              	.LBE70:
 195              	.LBE69:
 196              	.LBE68:
 197              	.LBE67:
 198              	.LBE66:
 199              		.loc 1 149 0 discriminator 3
 200 006e 0223     		movs	r3, #2
 201 0070 2370     		strb	r3, [r4]
 202 0072 F0E7     		b	.L12
 203              	.LVL13:
 204              	.L22:
 205              	.LBB72:
 206              	.LBB73:
 207              		.loc 2 462 0
 208 0074 0148     		ldr	r0, .L23
 209              	.LVL14:
 210 0076 FFF7FEFF 		bl	chSysHalt
 211              	.LVL15:
 212 007a C6E7     		b	.L8
 213              	.L24:
 214              		.align	2
 215              	.L23:
 216 007c 00000000 		.word	.LC0
 217              	.LBE73:
 218              	.LBE72:
 219              		.cfi_endproc
 220              	.LFE268:
 221              		.size	spi_lld_serve_rx_interrupt, .-spi_lld_serve_rx_interrupt
 222              		.section	.text.spi_lld_init,"ax",%progbits
 223              		.align	2
 224              		.p2align 4,,15
 225              		.global	spi_lld_init
 226              		.thumb
 227              		.thumb_func
 228              		.type	spi_lld_init, %function
ARM GAS  /var/folders/m4/4md61f0s1_g0rzfghffqnxvr0000gn/T//ccHfRd1a.s 			page 5


 229              	spi_lld_init:
 230              	.LFB270:
 231              		.loc 1 185 0
 232              		.cfi_startproc
 233              		@ args = 0, pretend = 0, frame = 0
 234              		@ frame_needed = 0, uses_anonymous_args = 0
 235 0000 10B5     		push	{r4, lr}
 236              		.cfi_def_cfa_offset 8
 237              		.cfi_offset 4, -8
 238              		.cfi_offset 14, -4
 239              		.loc 1 190 0
 240 0002 0A4C     		ldr	r4, .L27
 241              		.loc 1 187 0
 242 0004 0A4B     		ldr	r3, .L27+4
 243 0006 4FF6FF72 		movw	r2, #65535
 244              		.loc 1 190 0
 245 000a 2046     		mov	r0, r4
 246              		.loc 1 187 0
 247 000c 1A80     		strh	r2, [r3]	@ movhi
 248              		.loc 1 190 0
 249 000e FFF7FEFF 		bl	spiObjectInit
 250              	.LVL16:
 251              		.loc 1 192 0
 252 0012 084B     		ldr	r3, .L27+8
 253              		.loc 1 191 0
 254 0014 0848     		ldr	r0, .L27+12
 255              		.loc 1 194 0
 256 0016 0949     		ldr	r1, .L27+16
 257              		.loc 1 200 0
 258 0018 094A     		ldr	r2, .L27+20
 259              		.loc 1 191 0
 260 001a E061     		str	r0, [r4, #28]
 261              		.loc 1 193 0
 262 001c 03F12400 		add	r0, r3, #36
 263              		.loc 1 192 0
 264 0020 2362     		str	r3, [r4, #32]
 265              		.loc 1 193 0
 266 0022 6062     		str	r0, [r4, #36]
 267              		.loc 1 194 0
 268 0024 A162     		str	r1, [r4, #40]
 269              		.loc 1 200 0
 270 0026 E262     		str	r2, [r4, #44]
 271 0028 10BD     		pop	{r4, pc}
 272              	.L28:
 273 002a 00BF     		.align	2
 274              	.L27:
 275 002c 00000000 		.word	.LANCHOR1
 276 0030 00000000 		.word	.LANCHOR0
 277 0034 60000000 		.word	_stm32_dma_streams+96
 278 0038 00300140 		.word	1073819648
 279 003c 16000106 		.word	100728854
 280 0040 46000106 		.word	100728902
 281              		.cfi_endproc
 282              	.LFE270:
 283              		.size	spi_lld_init, .-spi_lld_init
 284              		.section	.text.spi_lld_start,"ax",%progbits
 285              		.align	2
ARM GAS  /var/folders/m4/4md61f0s1_g0rzfghffqnxvr0000gn/T//ccHfRd1a.s 			page 6


 286              		.p2align 4,,15
 287              		.global	spi_lld_start
 288              		.thumb
 289              		.thumb_func
 290              		.type	spi_lld_start, %function
 291              	spi_lld_start:
 292              	.LFB271:
 293              		.loc 1 305 0
 294              		.cfi_startproc
 295              		@ args = 0, pretend = 0, frame = 0
 296              		@ frame_needed = 0, uses_anonymous_args = 0
 297              	.LVL17:
 298              		.loc 1 308 0
 299 0000 0378     		ldrb	r3, [r0]	@ zero_extendqisi2
 300 0002 012B     		cmp	r3, #1
 301              		.loc 1 305 0
 302 0004 10B5     		push	{r4, lr}
 303              		.cfi_def_cfa_offset 8
 304              		.cfi_offset 4, -8
 305              		.cfi_offset 14, -4
 306              		.loc 1 305 0
 307 0006 0446     		mov	r4, r0
 308              		.loc 1 308 0
 309 0008 1DD0     		beq	.L35
 310 000a C369     		ldr	r3, [r0, #28]
 311              	.LVL18:
 312              	.L30:
 313              		.loc 1 412 0
 314 000c 6268     		ldr	r2, [r4, #4]
 315              		.loc 1 414 0
 316 000e A06A     		ldr	r0, [r4, #40]
 317              		.loc 1 412 0
 318 0010 5289     		ldrh	r2, [r2, #10]
 319              		.loc 1 416 0
 320 0012 E16A     		ldr	r1, [r4, #44]
 321              		.loc 1 414 0
 322 0014 20F4F040 		bic	r0, r0, #30720
 323              		.loc 1 416 0
 324 0018 21F4F041 		bic	r1, r1, #30720
 325              		.loc 1 412 0
 326 001c 12F4006F 		tst	r2, #2048
 327              		.loc 1 421 0
 328 0020 1CBF     		itt	ne
 329 0022 40F42050 		orrne	r0, r0, #10240
 330              		.loc 1 423 0
 331 0026 41F42051 		orrne	r1, r1, #10240
 332              		.loc 1 421 0
 333 002a A062     		str	r0, [r4, #40]
 334              		.loc 1 423 0
 335 002c E162     		str	r1, [r4, #44]
 336              		.loc 1 428 0
 337 002e 42F44172 		orr	r2, r2, #772
 338              		.loc 1 427 0
 339 0032 0020     		movs	r0, #0
 340              		.loc 1 430 0
 341 0034 0721     		movs	r1, #7
 342              		.loc 1 427 0
ARM GAS  /var/folders/m4/4md61f0s1_g0rzfghffqnxvr0000gn/T//ccHfRd1a.s 			page 7


 343 0036 1860     		str	r0, [r3]
 344              		.loc 1 428 0
 345 0038 1A60     		str	r2, [r3]
 346              		.loc 1 430 0
 347 003a 5960     		str	r1, [r3, #4]
 348              		.loc 1 431 0
 349 003c 1A68     		ldr	r2, [r3]
 350 003e 42F04002 		orr	r2, r2, #64
 351 0042 1A60     		str	r2, [r3]
 352 0044 10BD     		pop	{r4, pc}
 353              	.LVL19:
 354              	.L35:
 355              		.loc 1 310 0
 356 0046 0F4B     		ldr	r3, .L39
 357 0048 9842     		cmp	r0, r3
 358 004a 09D0     		beq	.L38
 359              	.LVL20:
 360              	.L31:
 361              		.loc 1 407 0
 362 004c 216A     		ldr	r1, [r4, #32]
 363              		.loc 1 408 0
 364 004e 626A     		ldr	r2, [r4, #36]
 365              		.loc 1 407 0
 366 0050 E369     		ldr	r3, [r4, #28]
 367 0052 0868     		ldr	r0, [r1]
 368              		.loc 1 408 0
 369 0054 1168     		ldr	r1, [r2]
 370              		.loc 1 407 0
 371 0056 03F10C02 		add	r2, r3, #12
 372 005a 8260     		str	r2, [r0, #8]
 373              		.loc 1 408 0
 374 005c 8A60     		str	r2, [r1, #8]
 375 005e D5E7     		b	.L30
 376              	.LVL21:
 377              	.L38:
 378              	.LBB74:
 379              		.loc 1 312 0
 380 0060 0346     		mov	r3, r0
 381 0062 094A     		ldr	r2, .L39+4
 382 0064 006A     		ldr	r0, [r0, #32]
 383              	.LVL22:
 384 0066 0A21     		movs	r1, #10
 385 0068 FFF7FEFF 		bl	dmaStreamAllocate
 386              	.LVL23:
 387              		.loc 1 317 0
 388 006c 2346     		mov	r3, r4
 389 006e 074A     		ldr	r2, .L39+8
 390 0070 606A     		ldr	r0, [r4, #36]
 391 0072 0A21     		movs	r1, #10
 392 0074 FFF7FEFF 		bl	dmaStreamAllocate
 393              	.LVL24:
 394              		.loc 1 322 0
 395 0078 054A     		ldr	r2, .L39+12
 396 007a 536C     		ldr	r3, [r2, #68]
 397 007c 43F48053 		orr	r3, r3, #4096
 398 0080 5364     		str	r3, [r2, #68]
 399 0082 E3E7     		b	.L31
ARM GAS  /var/folders/m4/4md61f0s1_g0rzfghffqnxvr0000gn/T//ccHfRd1a.s 			page 8


 400              	.L40:
 401              		.align	2
 402              	.L39:
 403 0084 00000000 		.word	.LANCHOR1
 404 0088 00000000 		.word	spi_lld_serve_rx_interrupt
 405 008c 00000000 		.word	spi_lld_serve_tx_interrupt
 406 0090 00380240 		.word	1073887232
 407              	.LBE74:
 408              		.cfi_endproc
 409              	.LFE271:
 410              		.size	spi_lld_start, .-spi_lld_start
 411              		.section	.text.spi_lld_stop,"ax",%progbits
 412              		.align	2
 413              		.p2align 4,,15
 414              		.global	spi_lld_stop
 415              		.thumb
 416              		.thumb_func
 417              		.type	spi_lld_stop, %function
 418              	spi_lld_stop:
 419              	.LFB272:
 420              		.loc 1 441 0
 421              		.cfi_startproc
 422              		@ args = 0, pretend = 0, frame = 0
 423              		@ frame_needed = 0, uses_anonymous_args = 0
 424              	.LVL25:
 425              		.loc 1 444 0
 426 0000 0378     		ldrb	r3, [r0]	@ zero_extendqisi2
 427 0002 022B     		cmp	r3, #2
 428 0004 00D0     		beq	.L47
 429 0006 7047     		bx	lr
 430              	.L47:
 431              		.loc 1 447 0
 432 0008 C369     		ldr	r3, [r0, #28]
 433              		.loc 1 441 0
 434 000a 10B5     		push	{r4, lr}
 435              		.cfi_def_cfa_offset 8
 436              		.cfi_offset 4, -8
 437              		.cfi_offset 14, -4
 438              		.loc 1 447 0
 439 000c 0022     		movs	r2, #0
 440 000e 0446     		mov	r4, r0
 441              		.loc 1 449 0
 442 0010 006A     		ldr	r0, [r0, #32]
 443              	.LVL26:
 444              		.loc 1 447 0
 445 0012 1A60     		str	r2, [r3]
 446              		.loc 1 448 0
 447 0014 5A60     		str	r2, [r3, #4]
 448              		.loc 1 449 0
 449 0016 FFF7FEFF 		bl	dmaStreamRelease
 450              	.LVL27:
 451              		.loc 1 450 0
 452 001a 606A     		ldr	r0, [r4, #36]
 453 001c FFF7FEFF 		bl	dmaStreamRelease
 454              	.LVL28:
 455              		.loc 1 453 0
 456 0020 044B     		ldr	r3, .L49
ARM GAS  /var/folders/m4/4md61f0s1_g0rzfghffqnxvr0000gn/T//ccHfRd1a.s 			page 9


 457 0022 9C42     		cmp	r4, r3
 458 0024 00D0     		beq	.L48
 459              	.L41:
 460 0026 10BD     		pop	{r4, pc}
 461              	.LVL29:
 462              	.L48:
 463              		.loc 1 454 0
 464 0028 034A     		ldr	r2, .L49+4
 465 002a 536C     		ldr	r3, [r2, #68]
 466 002c 23F48053 		bic	r3, r3, #4096
 467 0030 5364     		str	r3, [r2, #68]
 468              		.loc 1 477 0
 469 0032 F8E7     		b	.L41
 470              	.L50:
 471              		.align	2
 472              	.L49:
 473 0034 00000000 		.word	.LANCHOR1
 474 0038 00380240 		.word	1073887232
 475              		.cfi_endproc
 476              	.LFE272:
 477              		.size	spi_lld_stop, .-spi_lld_stop
 478              		.section	.text.spi_lld_select,"ax",%progbits
 479              		.align	2
 480              		.p2align 4,,15
 481              		.global	spi_lld_select
 482              		.thumb
 483              		.thumb_func
 484              		.type	spi_lld_select, %function
 485              	spi_lld_select:
 486              	.LFB273:
 487              		.loc 1 486 0
 488              		.cfi_startproc
 489              		@ args = 0, pretend = 0, frame = 0
 490              		@ frame_needed = 0, uses_anonymous_args = 0
 491              		@ link register save eliminated.
 492              	.LVL30:
 493              		.loc 1 488 0
 494 0000 4268     		ldr	r2, [r0, #4]
 495 0002 1189     		ldrh	r1, [r2, #8]
 496 0004 5268     		ldr	r2, [r2, #4]
 497 0006 0123     		movs	r3, #1
 498 0008 8B40     		lsls	r3, r3, r1
 499 000a 9BB2     		uxth	r3, r3
 500 000c 5383     		strh	r3, [r2, #26]	@ movhi
 501 000e 7047     		bx	lr
 502              		.cfi_endproc
 503              	.LFE273:
 504              		.size	spi_lld_select, .-spi_lld_select
 505              		.section	.text.spi_lld_unselect,"ax",%progbits
 506              		.align	2
 507              		.p2align 4,,15
 508              		.global	spi_lld_unselect
 509              		.thumb
 510              		.thumb_func
 511              		.type	spi_lld_unselect, %function
 512              	spi_lld_unselect:
 513              	.LFB274:
ARM GAS  /var/folders/m4/4md61f0s1_g0rzfghffqnxvr0000gn/T//ccHfRd1a.s 			page 10


 514              		.loc 1 499 0
 515              		.cfi_startproc
 516              		@ args = 0, pretend = 0, frame = 0
 517              		@ frame_needed = 0, uses_anonymous_args = 0
 518              		@ link register save eliminated.
 519              	.LVL31:
 520              		.loc 1 501 0
 521 0000 4268     		ldr	r2, [r0, #4]
 522 0002 1189     		ldrh	r1, [r2, #8]
 523 0004 5268     		ldr	r2, [r2, #4]
 524 0006 0123     		movs	r3, #1
 525 0008 8B40     		lsls	r3, r3, r1
 526 000a 9BB2     		uxth	r3, r3
 527 000c 1383     		strh	r3, [r2, #24]	@ movhi
 528 000e 7047     		bx	lr
 529              		.cfi_endproc
 530              	.LFE274:
 531              		.size	spi_lld_unselect, .-spi_lld_unselect
 532              		.section	.text.spi_lld_ignore,"ax",%progbits
 533              		.align	2
 534              		.p2align 4,,15
 535              		.global	spi_lld_ignore
 536              		.thumb
 537              		.thumb_func
 538              		.type	spi_lld_ignore, %function
 539              	spi_lld_ignore:
 540              	.LFB275:
 541              		.loc 1 515 0
 542              		.cfi_startproc
 543              		@ args = 0, pretend = 0, frame = 0
 544              		@ frame_needed = 0, uses_anonymous_args = 0
 545              		@ link register save eliminated.
 546              	.LVL32:
 547              		.loc 1 517 0
 548 0000 026A     		ldr	r2, [r0, #32]
 549              		.loc 1 521 0
 550 0002 436A     		ldr	r3, [r0, #36]
 551              		.loc 1 517 0
 552 0004 1268     		ldr	r2, [r2]
 553              		.loc 1 521 0
 554 0006 1B68     		ldr	r3, [r3]
 555              		.loc 1 515 0
 556 0008 70B4     		push	{r4, r5, r6}
 557              		.cfi_def_cfa_offset 12
 558              		.cfi_offset 4, -12
 559              		.cfi_offset 5, -8
 560              		.cfi_offset 6, -4
 561              		.loc 1 519 0
 562 000a 856A     		ldr	r5, [r0, #40]
 563              		.loc 1 517 0
 564 000c 094E     		ldr	r6, .L55
 565              		.loc 1 523 0
 566 000e C06A     		ldr	r0, [r0, #44]
 567              	.LVL33:
 568              		.loc 1 521 0
 569 0010 094C     		ldr	r4, .L55+4
 570              		.loc 1 517 0
ARM GAS  /var/folders/m4/4md61f0s1_g0rzfghffqnxvr0000gn/T//ccHfRd1a.s 			page 11


 571 0012 D660     		str	r6, [r2, #12]
 572              		.loc 1 518 0
 573 0014 5160     		str	r1, [r2, #4]
 574              		.loc 1 519 0
 575 0016 1560     		str	r5, [r2]
 576              		.loc 1 521 0
 577 0018 DC60     		str	r4, [r3, #12]
 578              		.loc 1 522 0
 579 001a 5960     		str	r1, [r3, #4]
 580              		.loc 1 523 0
 581 001c 1860     		str	r0, [r3]
 582              		.loc 1 525 0
 583 001e 1168     		ldr	r1, [r2]
 584              	.LVL34:
 585 0020 41F00101 		orr	r1, r1, #1
 586 0024 1160     		str	r1, [r2]
 587              		.loc 1 526 0
 588 0026 1A68     		ldr	r2, [r3]
 589 0028 42F00102 		orr	r2, r2, #1
 590 002c 1A60     		str	r2, [r3]
 591              		.loc 1 527 0
 592 002e 70BC     		pop	{r4, r5, r6}
 593              		.cfi_restore 6
 594              		.cfi_restore 5
 595              		.cfi_restore 4
 596              		.cfi_def_cfa_offset 0
 597 0030 7047     		bx	lr
 598              	.L56:
 599 0032 00BF     		.align	2
 600              	.L55:
 601 0034 00000000 		.word	.LANCHOR2
 602 0038 00000000 		.word	.LANCHOR0
 603              		.cfi_endproc
 604              	.LFE275:
 605              		.size	spi_lld_ignore, .-spi_lld_ignore
 606              		.section	.text.spi_lld_exchange,"ax",%progbits
 607              		.align	2
 608              		.p2align 4,,15
 609              		.global	spi_lld_exchange
 610              		.thumb
 611              		.thumb_func
 612              		.type	spi_lld_exchange, %function
 613              	spi_lld_exchange:
 614              	.LFB276:
 615              		.loc 1 545 0
 616              		.cfi_startproc
 617              		@ args = 0, pretend = 0, frame = 0
 618              		@ frame_needed = 0, uses_anonymous_args = 0
 619              		@ link register save eliminated.
 620              	.LVL35:
 621 0000 F0B4     		push	{r4, r5, r6, r7}
 622              		.cfi_def_cfa_offset 16
 623              		.cfi_offset 4, -16
 624              		.cfi_offset 5, -12
 625              		.cfi_offset 6, -8
 626              		.cfi_offset 7, -4
 627              		.loc 1 547 0
ARM GAS  /var/folders/m4/4md61f0s1_g0rzfghffqnxvr0000gn/T//ccHfRd1a.s 			page 12


 628 0002 046A     		ldr	r4, [r0, #32]
 629              		.loc 1 551 0
 630 0004 476A     		ldr	r7, [r0, #36]
 631              		.loc 1 549 0
 632 0006 866A     		ldr	r6, [r0, #40]
 633              		.loc 1 553 0
 634 0008 C56A     		ldr	r5, [r0, #44]
 635              		.loc 1 547 0
 636 000a 2468     		ldr	r4, [r4]
 637              		.loc 1 551 0
 638 000c 3868     		ldr	r0, [r7]
 639              	.LVL36:
 640              		.loc 1 547 0
 641 000e E360     		str	r3, [r4, #12]
 642              		.loc 1 549 0
 643 0010 46F48066 		orr	r6, r6, #1024
 644              		.loc 1 553 0
 645 0014 45F48065 		orr	r5, r5, #1024
 646              		.loc 1 548 0
 647 0018 6160     		str	r1, [r4, #4]
 648              		.loc 1 549 0
 649 001a 2660     		str	r6, [r4]
 650              		.loc 1 551 0
 651 001c C260     		str	r2, [r0, #12]
 652              		.loc 1 552 0
 653 001e 4160     		str	r1, [r0, #4]
 654              		.loc 1 553 0
 655 0020 0560     		str	r5, [r0]
 656              		.loc 1 555 0
 657 0022 2368     		ldr	r3, [r4]
 658              	.LVL37:
 659 0024 43F00103 		orr	r3, r3, #1
 660 0028 2360     		str	r3, [r4]
 661              		.loc 1 556 0
 662 002a 0368     		ldr	r3, [r0]
 663 002c 43F00103 		orr	r3, r3, #1
 664 0030 0360     		str	r3, [r0]
 665              		.loc 1 557 0
 666 0032 F0BC     		pop	{r4, r5, r6, r7}
 667              		.cfi_restore 7
 668              		.cfi_restore 6
 669              		.cfi_restore 5
 670              		.cfi_restore 4
 671              		.cfi_def_cfa_offset 0
 672 0034 7047     		bx	lr
 673              		.cfi_endproc
 674              	.LFE276:
 675              		.size	spi_lld_exchange, .-spi_lld_exchange
 676 0036 00BF     		.section	.text.spi_lld_send,"ax",%progbits
 677              		.align	2
 678              		.p2align 4,,15
 679              		.global	spi_lld_send
 680              		.thumb
 681              		.thumb_func
 682              		.type	spi_lld_send, %function
 683              	spi_lld_send:
 684              	.LFB277:
ARM GAS  /var/folders/m4/4md61f0s1_g0rzfghffqnxvr0000gn/T//ccHfRd1a.s 			page 13


 685              		.loc 1 572 0
 686              		.cfi_startproc
 687              		@ args = 0, pretend = 0, frame = 0
 688              		@ frame_needed = 0, uses_anonymous_args = 0
 689              		@ link register save eliminated.
 690              	.LVL38:
 691 0000 70B4     		push	{r4, r5, r6}
 692              		.cfi_def_cfa_offset 12
 693              		.cfi_offset 4, -12
 694              		.cfi_offset 5, -8
 695              		.cfi_offset 6, -4
 696              		.loc 1 578 0
 697 0002 436A     		ldr	r3, [r0, #36]
 698              		.loc 1 574 0
 699 0004 046A     		ldr	r4, [r0, #32]
 700              		.loc 1 580 0
 701 0006 C56A     		ldr	r5, [r0, #44]
 702              		.loc 1 574 0
 703 0008 2468     		ldr	r4, [r4]
 704              		.loc 1 578 0
 705 000a 1B68     		ldr	r3, [r3]
 706              		.loc 1 576 0
 707 000c 806A     		ldr	r0, [r0, #40]
 708              	.LVL39:
 709              		.loc 1 574 0
 710 000e 094E     		ldr	r6, .L61
 711 0010 E660     		str	r6, [r4, #12]
 712              		.loc 1 580 0
 713 0012 45F48065 		orr	r5, r5, #1024
 714              		.loc 1 575 0
 715 0016 6160     		str	r1, [r4, #4]
 716              		.loc 1 576 0
 717 0018 2060     		str	r0, [r4]
 718              		.loc 1 578 0
 719 001a DA60     		str	r2, [r3, #12]
 720              		.loc 1 579 0
 721 001c 5960     		str	r1, [r3, #4]
 722              		.loc 1 580 0
 723 001e 1D60     		str	r5, [r3]
 724              		.loc 1 582 0
 725 0020 2268     		ldr	r2, [r4]
 726              	.LVL40:
 727 0022 42F00102 		orr	r2, r2, #1
 728 0026 2260     		str	r2, [r4]
 729              		.loc 1 583 0
 730 0028 1A68     		ldr	r2, [r3]
 731 002a 42F00102 		orr	r2, r2, #1
 732 002e 1A60     		str	r2, [r3]
 733              		.loc 1 584 0
 734 0030 70BC     		pop	{r4, r5, r6}
 735              		.cfi_restore 6
 736              		.cfi_restore 5
 737              		.cfi_restore 4
 738              		.cfi_def_cfa_offset 0
 739 0032 7047     		bx	lr
 740              	.L62:
 741              		.align	2
ARM GAS  /var/folders/m4/4md61f0s1_g0rzfghffqnxvr0000gn/T//ccHfRd1a.s 			page 14


 742              	.L61:
 743 0034 00000000 		.word	.LANCHOR2
 744              		.cfi_endproc
 745              	.LFE277:
 746              		.size	spi_lld_send, .-spi_lld_send
 747              		.section	.text.spi_lld_receive,"ax",%progbits
 748              		.align	2
 749              		.p2align 4,,15
 750              		.global	spi_lld_receive
 751              		.thumb
 752              		.thumb_func
 753              		.type	spi_lld_receive, %function
 754              	spi_lld_receive:
 755              	.LFB278:
 756              		.loc 1 599 0
 757              		.cfi_startproc
 758              		@ args = 0, pretend = 0, frame = 0
 759              		@ frame_needed = 0, uses_anonymous_args = 0
 760              		@ link register save eliminated.
 761              	.LVL41:
 762 0000 70B4     		push	{r4, r5, r6}
 763              		.cfi_def_cfa_offset 12
 764              		.cfi_offset 4, -12
 765              		.cfi_offset 5, -8
 766              		.cfi_offset 6, -4
 767              		.loc 1 605 0
 768 0002 436A     		ldr	r3, [r0, #36]
 769              		.loc 1 601 0
 770 0004 046A     		ldr	r4, [r0, #32]
 771              		.loc 1 603 0
 772 0006 856A     		ldr	r5, [r0, #40]
 773              		.loc 1 601 0
 774 0008 2468     		ldr	r4, [r4]
 775              		.loc 1 605 0
 776 000a 1B68     		ldr	r3, [r3]
 777              		.loc 1 607 0
 778 000c C06A     		ldr	r0, [r0, #44]
 779              	.LVL42:
 780              		.loc 1 605 0
 781 000e 094E     		ldr	r6, .L65
 782              		.loc 1 601 0
 783 0010 E260     		str	r2, [r4, #12]
 784              		.loc 1 603 0
 785 0012 45F48065 		orr	r5, r5, #1024
 786              		.loc 1 602 0
 787 0016 6160     		str	r1, [r4, #4]
 788              		.loc 1 603 0
 789 0018 2560     		str	r5, [r4]
 790              		.loc 1 605 0
 791 001a DE60     		str	r6, [r3, #12]
 792              		.loc 1 606 0
 793 001c 5960     		str	r1, [r3, #4]
 794              		.loc 1 607 0
 795 001e 1860     		str	r0, [r3]
 796              		.loc 1 609 0
 797 0020 2268     		ldr	r2, [r4]
 798              	.LVL43:
ARM GAS  /var/folders/m4/4md61f0s1_g0rzfghffqnxvr0000gn/T//ccHfRd1a.s 			page 15


 799 0022 42F00102 		orr	r2, r2, #1
 800 0026 2260     		str	r2, [r4]
 801              		.loc 1 610 0
 802 0028 1A68     		ldr	r2, [r3]
 803 002a 42F00102 		orr	r2, r2, #1
 804 002e 1A60     		str	r2, [r3]
 805              		.loc 1 611 0
 806 0030 70BC     		pop	{r4, r5, r6}
 807              		.cfi_restore 6
 808              		.cfi_restore 5
 809              		.cfi_restore 4
 810              		.cfi_def_cfa_offset 0
 811 0032 7047     		bx	lr
 812              	.L66:
 813              		.align	2
 814              	.L65:
 815 0034 00000000 		.word	.LANCHOR0
 816              		.cfi_endproc
 817              	.LFE278:
 818              		.size	spi_lld_receive, .-spi_lld_receive
 819              		.section	.text.spi_lld_polled_exchange,"ax",%progbits
 820              		.align	2
 821              		.p2align 4,,15
 822              		.global	spi_lld_polled_exchange
 823              		.thumb
 824              		.thumb_func
 825              		.type	spi_lld_polled_exchange, %function
 826              	spi_lld_polled_exchange:
 827              	.LFB279:
 828              		.loc 1 625 0
 829              		.cfi_startproc
 830              		@ args = 0, pretend = 0, frame = 0
 831              		@ frame_needed = 0, uses_anonymous_args = 0
 832              		@ link register save eliminated.
 833              	.LVL44:
 834              		.loc 1 627 0
 835 0000 C269     		ldr	r2, [r0, #28]
 836 0002 D160     		str	r1, [r2, #12]
 837              	.L68:
 838              		.loc 1 628 0 discriminator 1
 839 0004 9368     		ldr	r3, [r2, #8]
 840 0006 DB07     		lsls	r3, r3, #31
 841 0008 FCD5     		bpl	.L68
 842              		.loc 1 630 0
 843 000a D068     		ldr	r0, [r2, #12]
 844              	.LVL45:
 845              		.loc 1 631 0
 846 000c 80B2     		uxth	r0, r0
 847 000e 7047     		bx	lr
 848              		.cfi_endproc
 849              	.LFE279:
 850              		.size	spi_lld_polled_exchange, .-spi_lld_polled_exchange
 851              		.global	SPID1
 852              		.section	.bss.dummytx,"aw",%nobits
 853              		.align	1
 854              		.set	.LANCHOR0,. + 0
 855              		.type	dummytx, %object
ARM GAS  /var/folders/m4/4md61f0s1_g0rzfghffqnxvr0000gn/T//ccHfRd1a.s 			page 16


 856              		.size	dummytx, 2
 857              	dummytx:
 858 0000 0000     		.space	2
 859              		.section	.bss.SPID1,"aw",%nobits
 860              		.align	2
 861              		.set	.LANCHOR1,. + 0
 862              		.type	SPID1, %object
 863              		.size	SPID1, 48
 864              	SPID1:
 865 0000 00000000 		.space	48
 865      00000000 
 865      00000000 
 865      00000000 
 865      00000000 
 866              		.section	.rodata.str1.4,"aMS",%progbits,1
 867              		.align	2
 868              	.LC0:
 869 0000 444D4120 		.ascii	"DMA failure\000"
 869      6661696C 
 869      75726500 
 870              		.section	.bss.dummyrx,"aw",%nobits
 871              		.align	1
 872              		.set	.LANCHOR2,. + 0
 873              		.type	dummyrx, %object
 874              		.size	dummyrx, 2
 875              	dummyrx:
 876 0000 0000     		.space	2
 877              		.text
 878              	.Letext0:
 879              		.file 4 "/opt/homebrew-cask/Caskroom/gcc-arm-embedded/5_2-2015q4,20151219/gcc-arm-none-eabi-5_2-20
 880              		.file 5 "/opt/homebrew-cask/Caskroom/gcc-arm-embedded/5_2-2015q4,20151219/gcc-arm-none-eabi-5_2-20
 881              		.file 6 "/opt/homebrew-cask/Caskroom/gcc-arm-embedded/5_2-2015q4,20151219/gcc-arm-none-eabi-5_2-20
 882              		.file 7 "ChibiOS_16.1.4/os/rt/ports/ARMCMx/compilers/GCC/chtypes.h"
 883              		.file 8 "ChibiOS_16.1.4/os/rt/include/chsystypes.h"
 884              		.file 9 "ChibiOS_16.1.4/os/rt/include/chschd.h"
 885              		.file 10 "ChibiOS_16.1.4/os/ext/CMSIS/ST/STM32F4xx/stm32f405xx.h"
 886              		.file 11 "ChibiOS_16.1.4/os/rt/ports/ARMCMx/chcore.h"
 887              		.file 12 "ChibiOS_16.1.4/os/rt/ports/ARMCMx/chcore_v7m.h"
 888              		.file 13 "ChibiOS_16.1.4/os/rt/include/chtm.h"
 889              		.file 14 "ChibiOS_16.1.4/os/rt/include/chsem.h"
 890              		.file 15 "ChibiOS_16.1.4/os/rt/include/chmtx.h"
 891              		.file 16 "ChibiOS_16.1.4/os/hal/ports/STM32/LLD/DMAv2/stm32_dma.h"
 892              		.file 17 "ChibiOS_16.1.4/os/hal/ports/STM32/LLD/GPIOv2/pal_lld.h"
 893              		.file 18 "ChibiOS_16.1.4/os/hal/include/spi.h"
 894              		.file 19 "ChibiOS_16.1.4/os/hal/ports/STM32/LLD/SPIv1/spi_lld.h"
 895              		.file 20 "ChibiOS_16.1.4/os/rt/include/chsys.h"
 896              		.file 21 "ChibiOS_16.1.4/os/ext/CMSIS/include/core_cm4.h"
 897              		.file 22 "ChibiOS_16.1.4/os/rt/include/chthreads.h"