ARM GAS  /var/folders/m4/4md61f0s1_g0rzfghffqnxvr0000gn/T//ccHfRd1a.s 			page 1


   1              		.syntax unified
   2              		.cpu cortex-m4
   3              		.eabi_attribute 27, 1
   4              		.eabi_attribute 28, 1
   5              		.fpu fpv4-sp-d16
   6              		.eabi_attribute 20, 1
   7              		.eabi_attribute 21, 1
   8              		.eabi_attribute 23, 3
   9              		.eabi_attribute 24, 1
  10              		.eabi_attribute 25, 1
  11              		.eabi_attribute 26, 1
  12              		.eabi_attribute 30, 2
  13              		.eabi_attribute 34, 1
  14              		.eabi_attribute 18, 4
  15              		.thumb
  16              		.syntax unified
  17              		.file	"spi_lld.c"
  18              		.text
  19              	.Ltext0:
  20              		.cfi_sections	.debug_frame
  21              		.section	.text.spi_lld_serve_tx_interrupt,"ax",%progbits
  22              		.align	2
  23              		.p2align 4,,15
  24              		.thumb
  25              		.thumb_func
  26              		.type	spi_lld_serve_tx_interrupt, %function
  27              	spi_lld_serve_tx_interrupt:
  28              	.LFB269:
  29              		.file 1 "ChibiOS_16.1.4/os/hal/ports/STM32/LLD/SPIv1/spi_lld.c"
  30              		.loc 1 158 0
  31              		.cfi_startproc
  32              		@ args = 0, pretend = 0, frame = 0
  33              		@ frame_needed = 0, uses_anonymous_args = 0
  34              		@ link register save eliminated.
  35              	.LVL0:
  36              		.loc 1 163 0
  37 0000 11F00C0F 		tst	r1, #12
  38 0004 00D1     		bne	.L4
  39 0006 7047     		bx	lr
  40              	.L4:
  41              	.LVL1:
  42              	.LBB56:
  43              	.LBB57:
  44              		.file 2 "ChibiOS_16.1.4/os/hal/osal/rt/osal.h"
  45              		.loc 2 462 0
  46 0008 0148     		ldr	r0, .L5
  47              	.LVL2:
  48 000a FFF7FEBF 		b	chSysHalt
  49              	.LVL3:
  50              	.L6:
  51 000e 00BF     		.align	2
  52              	.L5:
  53 0010 00000000 		.word	.LC0
  54              	.LBE57:
  55              	.LBE56:
  56              		.cfi_endproc
  57              	.LFE269:
ARM GAS  /var/folders/m4/4md61f0s1_g0rzfghffqnxvr0000gn/T//ccHfRd1a.s 			page 2


  58              		.size	spi_lld_serve_tx_interrupt, .-spi_lld_serve_tx_interrupt
  59              		.section	.text.spi_lld_serve_rx_interrupt,"ax",%progbits
  60              		.align	2
  61              		.p2align 4,,15
  62              		.thumb
  63              		.thumb_func
  64              		.type	spi_lld_serve_rx_interrupt, %function
  65              	spi_lld_serve_rx_interrupt:
  66              	.LFB268:
  67              		.loc 1 132 0
  68              		.cfi_startproc
  69              		@ args = 0, pretend = 0, frame = 0
  70              		@ frame_needed = 0, uses_anonymous_args = 0
  71              	.LVL4:
  72              		.loc 1 136 0
  73 0000 11F00C0F 		tst	r1, #12
  74              		.loc 1 132 0
  75 0004 38B5     		push	{r3, r4, r5, lr}
  76              		.cfi_def_cfa_offset 16
  77              		.cfi_offset 3, -16
  78              		.cfi_offset 4, -12
  79              		.cfi_offset 5, -8
  80              		.cfi_offset 14, -4
  81              		.loc 1 132 0
  82 0006 0446     		mov	r4, r0
  83              		.loc 1 136 0
  84 0008 34D1     		bne	.L22
  85              	.LVL5:
  86              	.L8:
  87              		.loc 1 144 0
  88 000a 606A     		ldr	r0, [r4, #36]
  89 000c 0268     		ldr	r2, [r0]
  90 000e 1368     		ldr	r3, [r2]
  91 0010 23F01F03 		bic	r3, r3, #31
  92 0014 1360     		str	r3, [r2]
  93              	.L9:
  94              		.loc 1 144 0 is_stmt 0 discriminator 2
  95 0016 1368     		ldr	r3, [r2]
  96 0018 D907     		lsls	r1, r3, #31
  97 001a FCD4     		bmi	.L9
  98              		.loc 1 144 0 discriminator 3
  99 001c 057A     		ldrb	r5, [r0, #8]	@ zero_extendqisi2
 100              		.loc 1 145 0 is_stmt 1 discriminator 3
 101 001e 216A     		ldr	r1, [r4, #32]
 102              		.loc 1 144 0 discriminator 3
 103 0020 4068     		ldr	r0, [r0, #4]
 104              		.loc 1 145 0 discriminator 3
 105 0022 0A68     		ldr	r2, [r1]
 106              		.loc 1 144 0 discriminator 3
 107 0024 3D23     		movs	r3, #61
 108 0026 AB40     		lsls	r3, r3, r5
 109 0028 0360     		str	r3, [r0]
 110              		.loc 1 145 0 discriminator 3
 111 002a 1368     		ldr	r3, [r2]
 112 002c 23F01F03 		bic	r3, r3, #31
 113 0030 1360     		str	r3, [r2]
 114              	.L10:
ARM GAS  /var/folders/m4/4md61f0s1_g0rzfghffqnxvr0000gn/T//ccHfRd1a.s 			page 3


 115              		.loc 1 145 0 is_stmt 0 discriminator 2
 116 0032 1368     		ldr	r3, [r2]
 117 0034 DB07     		lsls	r3, r3, #31
 118 0036 FCD4     		bmi	.L10
 119              		.loc 1 149 0 is_stmt 1 discriminator 3
 120 0038 6368     		ldr	r3, [r4, #4]
 121              		.loc 1 145 0 discriminator 3
 122 003a 087A     		ldrb	r0, [r1, #8]	@ zero_extendqisi2
 123              		.loc 1 149 0 discriminator 3
 124 003c 1A68     		ldr	r2, [r3]
 125              		.loc 1 145 0 discriminator 3
 126 003e 4968     		ldr	r1, [r1, #4]
 127 0040 3D23     		movs	r3, #61
 128 0042 8340     		lsls	r3, r3, r0
 129 0044 0B60     		str	r3, [r1]
 130              		.loc 1 149 0 discriminator 3
 131 0046 92B1     		cbz	r2, .L11
 132              		.loc 1 149 0 is_stmt 0 discriminator 1
 133 0048 0423     		movs	r3, #4
 134 004a 2370     		strb	r3, [r4]
 135 004c 2046     		mov	r0, r4
 136 004e 9047     		blx	r2
 137              	.LVL6:
 138 0050 2378     		ldrb	r3, [r4]	@ zero_extendqisi2
 139 0052 042B     		cmp	r3, #4
 140 0054 0BD0     		beq	.L11
 141              	.L12:
 142              	.LVL7:
 143              	.LBB58:
 144              	.LBB59:
 145              	.LBB60:
 146              	.LBB61:
 147              	.LBB62:
 148              	.LBB63:
 149              		.file 3 "ChibiOS_16.1.4/os/ext/CMSIS/include/core_cmFunc.h"
 150              		.loc 3 548 0 is_stmt 1 discriminator 4
 151 0056 2023     		movs	r3, #32
 152              		.syntax unified
 153              	@ 548 "ChibiOS_16.1.4/os/ext/CMSIS/include/core_cmFunc.h" 1
 154 0058 83F31188 		MSR basepri, r3
 155              	@ 0 "" 2
 156              	.LVL8:
 157              		.thumb
 158              		.syntax unified
 159              	.LBE63:
 160              	.LBE62:
 161              	.LBE61:
 162              	.LBE60:
 163              	.LBE59:
 164              	.LBE58:
 165              	.LBB64:
 166              	.LBB65:
 167              		.loc 2 728 0 discriminator 4
 168 005c 0021     		movs	r1, #0
 169 005e 04F10800 		add	r0, r4, #8
 170              	.LVL9:
 171 0062 FFF7FEFF 		bl	chThdResumeI
ARM GAS  /var/folders/m4/4md61f0s1_g0rzfghffqnxvr0000gn/T//ccHfRd1a.s 			page 4


 172              	.LVL10:
 173              	.LBE65:
 174              	.LBE64:
 175              	.LBB66:
 176              	.LBB67:
 177              	.LBB68:
 178              	.LBB69:
 179              	.LBB70:
 180              	.LBB71:
 181              		.loc 3 548 0 discriminator 4
 182 0066 0023     		movs	r3, #0
 183              		.syntax unified
 184              	@ 548 "ChibiOS_16.1.4/os/ext/CMSIS/include/core_cmFunc.h" 1
 185 0068 83F31188 		MSR basepri, r3
 186              	@ 0 "" 2
 187              	.LVL11:
 188              		.thumb
 189              		.syntax unified
 190 006c 38BD     		pop	{r3, r4, r5, pc}
 191              	.LVL12:
 192              	.L11:
 193              	.LBE71:
 194              	.LBE70:
 195              	.LBE69:
 196              	.LBE68:
 197              	.LBE67:
 198              	.LBE66:
 199              		.loc 1 149 0 discriminator 3
 200 006e 0223     		movs	r3, #2
 201 0070 2370     		strb	r3, [r4]
 202 0072 F0E7     		b	.L12
 203              	.LVL13:
 204              	.L22:
 205              	.LBB72:
 206              	.LBB73:
 207              		.loc 2 462 0
 208 0074 0148     		ldr	r0, .L23
 209              	.LVL14:
 210 0076 FFF7FEFF 		bl	chSysHalt
 211              	.LVL15:
 212 007a C6E7     		b	.L8
 213              	.L24:
 214              		.align	2
 215              	.L23:
 216 007c 00000000 		.word	.LC0
 217              	.LBE73:
 218              	.LBE72:
 219              		.cfi_endproc
 220              	.LFE268:
 221              		.size	spi_lld_serve_rx_interrupt, .-spi_lld_serve_rx_interrupt
 222              		.section	.text.spi_lld_init,"ax",%progbits
 223              		.align	2
 224              		.p2align 4,,15
 225              		.global	spi_lld_init
 226              		.thumb
 227              		.thumb_func
 228              		.type	spi_lld_init, %function
ARM GAS  /var/folders/m4/4md61f0s1_g0rzfghffqnxvr0000gn/T//ccHfRd1a.s 			page 5


 229              	spi_lld_init:
 230              	.LFB270:
 231              		.loc 1 185 0
 232              		.cfi_startproc
 233              		@ args = 0, pretend = 0, frame = 0
 234              		@ frame_needed = 0, uses_anonymous_args = 0
 235 0000 10B5     		push	{r4, lr}
 236              		.cfi_def_cfa_offset 8
 237              		.cfi_offset 4, -8
 238              		.cfi_offset 14, -4
 239              		.loc 1 190 0
 240 0002 0A4C     		ldr	r4, .L27
 241              		.loc 1 187 0
 242 0004 0A4B     		ldr	r3, .L27+4
 243 0006 4FF6FF72 		movw	r2, #65535
 244              		.loc 1 190 0
 245 000a 2046     		mov	r0, r4
 246              		.loc 1 187 0
 247 000c 1A80     		strh	r2, [r3]	@ movhi
 248              		.loc 1 190 0
 249 000e FFF7FEFF 		bl	spiObjectInit
 250              	.LVL16:
 251              		.loc 1 192 0
 252 0012 084B     		ldr	r3, .L27+8
 253              		.loc 1 191 0
 254 0014 0848     		ldr	r0, .L27+12
 255              		.loc 1 194 0
 256 0016 0949     		ldr	r1, .L27+16
 257              		.loc 1 200 0
 258 0018 094A     		ldr	r2, .L27+20
 259              		.loc 1 191 0
 260 001a E061     		str	r0, [r4, #28]
 261              		.loc 1 193 0
 262 001c 03F12400 		add	r0, r3, #36
 263              		.loc 1 192 0
 264 0020 2362     		str	r3, [r4, #32]
 265              		.loc 1 193 0
 266 0022 6062     		str	r0, [r4, #36]
 267              		.loc 1 194 0
 268 0024 A162     		str	r1, [r4, #40]
 269              		.loc 1 200 0
 270 0026 E262     		str	r2, [r4, #44]
 271 0028 10BD     		pop	{r4, pc}
 272              	.L28:
 273 002a 00BF     		.align	2
 274              	.L27:
 275 002c 00000000 		.word	.LANCHOR1
 276 0030 00000000 		.word	.LANCHOR0
 277 0034 60000000 		.word	_stm32_dma_streams+96
 278 0038 00300140 		.word	1073819648
 279 003c 16000106 		.word	100728854
 280 0040 46000106 		.word	100728902
 281              		.cfi_endproc
 282              	.LFE270:
 283              		.size	spi_lld_init, .-spi_lld_init
 284              		.section	.text.spi_lld_start,"ax",%progbits
 285              		.align	2
ARM GAS  /var/folders/m4/4md61f0s1_g0rzfghffqnxvr0000gn/T//ccHfRd1a.s 			page 6


 286              		.p2align 4,,15
 287              		.global	spi_lld_start
 288              		.thumb
 289              		.thumb_func
 290              		.type	spi_lld_start, %function
 291              	spi_lld_start:
 292              	.LFB271:
 293              		.loc 1 305 0
 294              		.cfi_startproc
 295              		@ args = 0, pretend = 0, frame = 0
 296              		@ frame_needed = 0, uses_anonymous_args = 0
 297              	.LVL17:
 298              		.loc 1 308 0
 299 0000 0378     		ldrb	r3, [r0]	@ zero_extendqisi2
 300 0002 012B     		cmp	r3, #1
 301              		.loc 1 305 0
 302 0004 10B5     		push	{r4, lr}
 303              		.cfi_def_cfa_offset 8
 304              		.cfi_offset 4, -8
 305              		.cfi_offset 14, -4
 306              		.loc 1 305 0
 307 0006 0446     		mov	r4, r0
 308              		.loc 1 308 0
 309 0008 1DD0     		beq	.L35
 310 000a C369     		ldr	r3, [r0, #28]
 311              	.LVL18:
 312              	.L30:
 313              		.loc 1 412 0
 314 000c 6268     		ldr	r2, [r4, #4]
 315              		.loc 1 414 0
 316 000e A06A     		ldr	r0, [r4, #40]
 317              		.loc 1 412 0
 318 0010 5289     		ldrh	r2, [r2, #10]
 319              		.loc 1 416 0
 320 0012 E16A     		ldr	r1, [r4, #44]
 321              		.loc 1 414 0
 322 0014 20F4F040 		bic	r0, r0, #30720
 323              		.loc 1 416 0
 324 0018 21F4F041 		bic	r1, r1, #30720
 325              		.loc 1 412 0
 326 001c 12F4006F 		tst	r2, #2048
 327              		.loc 1 421 0
 328 0020 1CBF     		itt	ne
 329 0022 40F42050 		orrne	r0, r0, #10240
 330              		.loc 1 423 0
 331 0026 41F42051 		orrne	r1, r1, #10240
 332              		.loc 1 421 0
 333 002a A062     		str	r0, [r4, #40]
 334              		.loc 1 423 0
 335 002c E162     		str	r1, [r4, #44]
 336              		.loc 1 428 0
 337 002e 42F44172 		orr	r2, r2, #772
 338              		.loc 1 427 0
 339 0032 0020     		movs	r0, #0
 340              		.loc 1 430 0
 341 0034 0721     		movs	r1, #7
 342              		.loc 1 427 0
ARM GAS  /var/folders/m4/4md61f0s1_g0rzfghffqnxvr0000gn/T//ccHfRd1a.s 			page 7


 343 0036 1860     		str	r0, [r3]
 344              		.loc 1 428 0
 345 0038 1A60     		str	r2, [r3]
 346              		.loc 1 430 0
 347 003a 5960     		str	r1, [r3, #4]
 348              		.loc 1 431 0
 349 003c 1A68     		ldr	r2, [r3]
 350 003e 42F04002 		orr	r2, r2, #64
 351 0042 1A60     		str	r2, [r3]
 352 0044 10BD     		pop	{r4, pc}
 353              	.LVL19:
 354              	.L35:
 355              		.loc 1 310 0
 356 0046 0F4B     		ldr	r3, .L39
 357 0048 9842     		cmp	r0, r3
 358 004a 09D0     		beq	.L38
 359              	.LVL20:
 360              	.L31:
 361              		.loc 1 407 0
 362 004c 216A     		ldr	r1, [r4, #32]
 363              		.loc 1 408 0
 364 004e 626A     		ldr	r2, [r4, #36]
 365              		.loc 1 407 0
 366 0050 E369     		ldr	r3, [r4, #28]
 367 0052 0868     		ldr	r0, [r1]
 368              		.loc 1 408 0
 369 0054 1168     		ldr	r1, [r2]
 370              		.loc 1 407 0
 371 0056 03F10C02 		add	r2, r3, #12
 372 005a 8260     		str	r2, [r0, #8]
 373              		.loc 1 408 0
 374 005c 8A60     		str	r2, [r1, #8]
 375 005e D5E7     		b	.L30
 376              	.LVL21:
 377              	.L38:
 378              	.LBB74:
 379              		.loc 1 312 0
 380 0060 0346     		mov	r3, r0
 381 0062 094A     		ldr	r2, .L39+4
 382 0064 006A     		ldr	r0, [r0, #32]
 383              	.LVL22:
 384 0066 0A21     		movs	r1, #10
 385 0068 FFF7FEFF 		bl	dmaStreamAllocate
 386              	.LVL23:
 387              		.loc 1 317 0
 388 006c 2346     		mov	r3, r4
 389 006e 074A     		ldr	r2, .L39+8
 390 0070 606A     		ldr	r0, [r4, #36]
 391 0072 0A21     		movs	r1, #10
 392 0074 FFF7FEFF 		bl	dmaStreamAllocate
 393              	.LVL24:
 394              		.loc 1 322 0
 395 0078 054A     		ldr	r2, .L39+12
 396 007a 536C     		ldr	r3, [r2, #68]
 397 007c 43F48053 		orr	r3, r3, #4096
 398 0080 5364     		str	r3, [r2, #68]
 399 0082 E3E7     		b	.L31
ARM GAS  /var/folders/m4/4md61f0s1_g0rzfghffqnxvr0000gn/T//ccHfRd1a.s 			page 8


 400              	.L40:
 401              		.align	2
 402              	.L39:
 403 0084 00000000 		.word	.LANCHOR1
 404 0088 00000000 		.word	spi_lld_serve_rx_interrupt
 405 008c 00000000 		.word	spi_lld_serve_tx_interrupt
 406 0090 00380240 		.word	1073887232
 407              	.LBE74:
 408              		.cfi_endproc
 409              	.LFE271:
 410              		.size	spi_lld_start, .-spi_lld_start
 411              		.section	.text.spi_lld_stop,"ax",%progbits
 412              		.align	2
 413              		.p2align 4,,15
 414              		.global	spi_lld_stop
 415              		.thumb
 416              		.thumb_func
 417              		.type	spi_lld_stop, %function
 418              	spi_lld_stop:
 419              	.LFB272:
 420              		.loc 1 441 0
 421              		.cfi_startproc
 422              		@ args = 0, pretend = 0, frame = 0
 423              		@ frame_needed = 0, uses_anonymous_args = 0
 424              	.LVL25:
 425              		.loc 1 444 0
 426 0000 0378     		ldrb	r3, [r0]	@ zero_extendqisi2
 427 0002 022B     		cmp	r3, #2
 428 0004 00D0     		beq	.L47
 429 0006 7047     		bx	lr
 430              	.L47:
 431              		.loc 1 447 0
 432 0008 C369     		ldr	r3, [r0, #28]
 433              		.loc 1 441 0
 434 000a 10B5     		push	{r4, lr}
 435              		.cfi_def_cfa_offset 8
 436              		.cfi_offset 4, -8
 437              		.cfi_offset 14, -4
 438              		.loc 1 447 0
 439 000c 0022     		movs	r2, #0
 440 000e 0446     		mov	r4, r0
 441              		.loc 1 449 0
 442 0010 006A     		ldr	r0, [r0, #32]
 443              	.LVL26:
 444              		.loc 1 447 0
 445 0012 1A60     		str	r2, [r3]
 446              		.loc 1 448 0
 447 0014 5A60     		str	r2, [r3, #4]
 448              		.loc 1 449 0
 449 0016 FFF7FEFF 		bl	dmaStreamRelease
 450              	.LVL27:
 451              		.loc 1 450 0
 452 001a 606A     		ldr	r0, [r4, #36]
 453 001c FFF7FEFF 		bl	dmaStreamRelease
 454              	.LVL28:
 455              		.loc 1 453 0
 456 0020 044B     		ldr	r3, .L49
ARM GAS  /var/folders/m4/4md61f0s1_g0rzfghffqnxvr0000gn/T//ccHfRd1a.s 			page 9


 457 0022 9C42     		cmp	r4, r3
 458 0024 00D0     		beq	.L48
 459              	.L41:
 460 0026 10BD     		pop	{r4, pc}
 461              	.LVL29:
 462              	.L48:
 463              		.loc 1 454 0
 464 0028 034A     		ldr	r2, .L49+4
 465 002a 536C     		ldr	r3, [r2, #68]
 466 002c 23F48053 		bic	r3, r3, #4096
 467 0030 5364     		str	r3, [r2, #68]
 468              		.loc 1 477 0
 469 0032 F8E7     		b	.L41
 470              	.L50:
 471              		.align	2
 472              	.L49:
 473 0034 00000000 		.word	.LANCHOR1
 474 0038 00380240 		.word	1073887232
 475              		.cfi_endproc
 476              	.LFE272:
 477              		.size	spi_lld_stop, .-spi_lld_stop
 478              		.section	.text.spi_lld_select,"ax",%progbits
 479              		.align	2
 480              		.p2align 4,,15
 481              		.global	spi_lld_select
 482              		.thumb
 483              		.thumb_func
 484              		.type	spi_lld_select, %function
 485              	spi_lld_select:
 486              	.LFB273:
 487              		.loc 1 486 0
 488              		.cfi_startproc
 489              		@ args = 0, pretend = 0, frame = 0
 490              		@ frame_needed = 0, uses_anonymous_args = 0
 491              		@ link register save eliminated.
 492              	.LVL30:
 493              		.loc 1 488 0
 494 0000 4268     		ldr	r2, [r0, #4]
 495 0002 1189     		ldrh	r1, [r2, #8]
 496 0004 5268     		ldr	r2, [r2, #4]
 497 0006 0123     		movs	r3, #1
 498 0008 8B40     		lsls	r3, r3, r1
 499 000a 9BB2     		uxth	r3, r3
 500 000c 5383     		strh	r3, [r2, #26]	@ movhi
 501 000e 7047     		bx	lr
 502              		.cfi_endproc
 503              	.LFE273:
 504              		.size	spi_lld_select, .-spi_lld_select
 505              		.section	.text.spi_lld_unselect,"ax",%progbits
 506              		.align	2
 507              		.p2align 4,,15
 508              		.global	spi_lld_unselect
 509              		.thumb
 510              		.thumb_func
 511              		.type	spi_lld_unselect, %function
 512              	spi_lld_unselect:
 513              	.LFB274:
ARM GAS  /var/folders/m4/4md61f0s1_g0rzfghffqnxvr0000gn/T//ccHfRd1a.s 			page 10


 514              		.loc 1 499 0
 515              		.cfi_startproc
 516              		@ args = 0, pretend = 0, frame = 0
 517              		@ frame_needed = 0, uses_anonymous_args = 0
 518              		@ link register save eliminated.
 519              	.LVL31:
 520              		.loc 1 501 0
 521 0000 4268     		ldr	r2, [r0, #4]
 522 0002 1189     		ldrh	r1, [r2, #8]
 523 0004 5268     		ldr	r2, [r2, #4]
 524 0006 0123     		movs	r3, #1
 525 0008 8B40     		lsls	r3, r3, r1
 526 000a 9BB2     		uxth	r3, r3
 527 000c 1383     		strh	r3, [r2, #24]	@ movhi
 528 000e 7047     		bx	lr
 529              		.cfi_endproc
 530              	.LFE274:
 531              		.size	spi_lld_unselect, .-spi_lld_unselect
 532              		.section	.text.spi_lld_ignore,"ax",%progbits
 533              		.align	2
 534              		.p2align 4,,15
 535              		.global	spi_lld_ignore
 536              		.thumb
 537              		.thumb_func
 538              		.type	spi_lld_ignore, %function
 539              	spi_lld_ignore:
 540              	.LFB275:
 541              		.loc 1 515 0
 542              		.cfi_startproc
 543              		@ args = 0, pretend = 0, frame = 0
 544              		@ frame_needed = 0, uses_anonymous_args = 0
 545              		@ link register save eliminated.
 546              	.LVL32:
 547              		.loc 1 517 0
 548 0000 026A     		ldr	r2, [r0, #32]
 549              		.loc 1 521 0
 550 0002 436A     		ldr	r3, [r0, #36]
 551              		.loc 1 517 0
 552 0004 1268     		ldr	r2, [r2]
 553              		.loc 1 521 0
 554 0006 1B68     		ldr	r3, [r3]
 555              		.loc 1 515 0
 556 0008 70B4     		push	{r4, r5, r6}
 557              		.cfi_def_cfa_offset 12
 558              		.cfi_offset 4, -12
 559              		.cfi_offset 5, -8
 560              		.cfi_offset 6, -4
 561              		.loc 1 519 0
 562 000a 856A     		ldr	r5, [r0, #40]
 563              		.loc 1 517 0
 564 000c 094E     		ldr	r6, .L55
 565              		.loc 1 523 0
 566 000e C06A     		ldr	r0, [r0, #44]
 567              	.LVL33:
 568              		.loc 1 521 0
 569 0010 094C     		ldr	r4, .L55+4
 570              		.loc 1 517 0
ARM GAS  /var/folders/m4/4md61f0s1_g0rzfghffqnxvr0000gn/T//ccHfRd1a.s 			page 11


 571 0012 D660     		str	r6, [r2, #12]
 572              		.loc 1 518 0
 573 0014 5160     		str	r1, [r2, #4]
 574              		.loc 1 519 0
 575 0016 1560     		str	r5, [r2]
 576              		.loc 1 521 0
 577 0018 DC60     		str	r4, [r3, #12]
 578              		.loc 1 522 0
 579 001a 5960     		str	r1, [r3, #4]
 580              		.loc 1 523 0
 581 001c 1860     		str	r0, [r3]
 582              		.loc 1 525 0
 583 001e 1168     		ldr	r1, [r2]
 584              	.LVL34:
 585 0020 41F00101 		orr	r1, r1, #1
 586 0024 1160     		str	r1, [r2]
 587              		.loc 1 526 0
 588 0026 1A68     		ldr	r2, [r3]
 589 0028 42F00102 		orr	r2, r2, #1
 590 002c 1A60     		str	r2, [r3]
 591              		.loc 1 527 0
 592 002e 70BC     		pop	{r4, r5, r6}
 593              		.cfi_restore 6
 594              		.cfi_restore 5
 595              		.cfi_restore 4
 596              		.cfi_def_cfa_offset 0
 597 0030 7047     		bx	lr
 598              	.L56:
 599 0032 00BF     		.align	2
 600              	.L55:
 601 0034 00000000 		.word	.LANCHOR2
 602 0038 00000000 		.word	.LANCHOR0
 603              		.cfi_endproc
 604              	.LFE275:
 605              		.size	spi_lld_ignore, .-spi_lld_ignore
 606              		.section	.text.spi_lld_exchange,"ax",%progbits
 607              		.align	2
 608              		.p2align 4,,15
 609              		.global	spi_lld_exchange
 610              		.thumb
 611              		.thumb_func
 612              		.type	spi_lld_exchange, %function
 613              	spi_lld_exchange:
 614              	.LFB276:
 615              		.loc 1 545 0
 616              		.cfi_startproc
 617              		@ args = 0, pretend = 0, frame = 0
 618              		@ frame_needed = 0, uses_anonymous_args = 0
 619              		@ link register save eliminated.
 620              	.LVL35:
 621 0000 F0B4     		push	{r4, r5, r6, r7}
 622              		.cfi_def_cfa_offset 16
 623              		.cfi_offset 4, -16
 624              		.cfi_offset 5, -12
 625              		.cfi_offset 6, -8
 626              		.cfi_offset 7, -4
 627              		.loc 1 547 0
ARM GAS  /var/folders/m4/4md61f0s1_g0rzfghffqnxvr0000gn/T//ccHfRd1a.s 			page 12


 628 0002 046A     		ldr	r4, [r0, #32]
 629              		.loc 1 551 0
 630 0004 476A     		ldr	r7, [r0, #36]
 631              		.loc 1 549 0
 632 0006 866A     		ldr	r6, [r0, #40]
 633              		.loc 1 553 0
 634 0008 C56A     		ldr	r5, [r0, #44]
 635              		.loc 1 547 0
 636 000a 2468     		ldr	r4, [r4]
 637              		.loc 1 551 0
 638 000c 3868     		ldr	r0, [r7]
 639              	.LVL36:
 640              		.loc 1 547 0
 641 000e E360     		str	r3, [r4, #12]
 642              		.loc 1 549 0
 643 0010 46F48066 		orr	r6, r6, #1024
 644              		.loc 1 553 0
 645 0014 45F48065 		orr	r5, r5, #1024
 646              		.loc 1 548 0
 647 0018 6160     		str	r1, [r4, #4]
 648              		.loc 1 549 0
 649 001a 2660     		str	r6, [r4]
 650              		.loc 1 551 0
 651 001c C260     		str	r2, [r0, #12]
 652              		.loc 1 552 0
 653 001e 4160     		str	r1, [r0, #4]
 654              		.loc 1 553 0
 655 0020 0560     		str	r5, [r0]
 656              		.loc 1 555 0
 657 0022 2368     		ldr	r3, [r4]
 658              	.LVL37:
 659 0024 43F00103 		orr	r3, r3, #1
 660 0028 2360     		str	r3, [r4]
 661              		.loc 1 556 0
 662 002a 0368     		ldr	r3, [r0]
 663 002c 43F00103 		orr	r3, r3, #1
 664 0030 0360     		str	r3, [r0]
 665              		.loc 1 557 0
 666 0032 F0BC     		pop	{r4, r5, r6, r7}
 667              		.cfi_restore 7
 668              		.cfi_restore 6
 669              		.cfi_restore 5
 670              		.cfi_restore 4
 671              		.cfi_def_cfa_offset 0
 672 0034 7047     		bx	lr
 673              		.cfi_endproc
 674              	.LFE276:
 675              		.size	spi_lld_exchange, .-spi_lld_exchange
 676 0036 00BF     		.section	.text.spi_lld_send,"ax",%progbits
 677              		.align	2
 678              		.p2align 4,,15
 679              		.global	spi_lld_send
 680              		.thumb
 681              		.thumb_func
 682              		.type	spi_lld_send, %function
 683              	spi_lld_send:
 684              	.LFB277:
ARM GAS  /var/folders/m4/4md61f0s1_g0rzfghffqnxvr0000gn/T//ccHfRd1a.s 			page 13


 685              		.loc 1 572 0
 686              		.cfi_startproc
 687              		@ args = 0, pretend = 0, frame = 0
 688              		@ frame_needed = 0, uses_anonymous_args = 0
 689              		@ link register save eliminated.
 690              	.LVL38:
 691 0000 70B4     		push	{r4, r5, r6}
 692              		.cfi_def_cfa_offset 12
 693              		.cfi_offset 4, -12
 694              		.cfi_offset 5, -8
 695              		.cfi_offset 6, -4
 696              		.loc 1 578 0
 697 0002 436A     		ldr	r3, [r0, #36]
 698              		.loc 1 574 0
 699 0004 046A     		ldr	r4, [r0, #32]
 700              		.loc 1 580 0
 701 0006 C56A     		ldr	r5, [r0, #44]
 702              		.loc 1 574 0
 703 0008 2468     		ldr	r4, [r4]
 704              		.loc 1 578 0
 705 000a 1B68     		ldr	r3, [r3]
 706              		.loc 1 576 0
 707 000c 806A     		ldr	r0, [r0, #40]
 708              	.LVL39:
 709              		.loc 1 574 0
 710 000e 094E     		ldr	r6, .L61
 711 0010 E660     		str	r6, [r4, #12]
 712              		.loc 1 580 0
 713 0012 45F48065 		orr	r5, r5, #1024
 714              		.loc 1 575 0
 715 0016 6160     		str	r1, [r4, #4]
 716              		.loc 1 576 0
 717 0018 2060     		str	r0, [r4]
 718              		.loc 1 578 0
 719 001a DA60     		str	r2, [r3, #12]
 720              		.loc 1 579 0
 721 001c 5960     		str	r1, [r3, #4]
 722              		.loc 1 580 0
 723 001e 1D60     		str	r5, [r3]
 724              		.loc 1 582 0
 725 0020 2268     		ldr	r2, [r4]
 726              	.LVL40:
 727 0022 42F00102 		orr	r2, r2, #1
 728 0026 2260     		str	r2, [r4]
 729              		.loc 1 583 0
 730 0028 1A68     		ldr	r2, [r3]
 731 002a 42F00102 		orr	r2, r2, #1
 732 002e 1A60     		str	r2, [r3]
 733              		.loc 1 584 0
 734 0030 70BC     		pop	{r4, r5, r6}
 735              		.cfi_restore 6
 736              		.cfi_restore 5
 737              		.cfi_restore 4
 738              		.cfi_def_cfa_offset 0
 739 0032 7047     		bx	lr
 740              	.L62:
 741              		.align	2
ARM GAS  /var/folders/m4/4md61f0s1_g0rzfghffqnxvr0000gn/T//ccHfRd1a.s 			page 14


 742              	.L61:
 743 0034 00000000 		.word	.LANCHOR2
 744              		.cfi_endproc
 745              	.LFE277:
 746              		.size	spi_lld_send, .-spi_lld_send
 747              		.section	.text.spi_lld_receive,"ax",%progbits
 748              		.align	2
 749              		.p2align 4,,15
 750              		.global	spi_lld_receive
 751              		.thumb
 752              		.thumb_func
 753              		.type	spi_lld_receive, %function
 754              	spi_lld_receive:
 755              	.LFB278:
 756              		.loc 1 599 0
 757              		.cfi_startproc
 758              		@ args = 0, pretend = 0, frame = 0
 759              		@ frame_needed = 0, uses_anonymous_args = 0
 760              		@ link register save eliminated.
 761              	.LVL41:
 762 0000 70B4     		push	{r4, r5, r6}
 763              		.cfi_def_cfa_offset 12
 764              		.cfi_offset 4, -12
 765              		.cfi_offset 5, -8
 766              		.cfi_offset 6, -4
 767              		.loc 1 605 0
 768 0002 436A     		ldr	r3, [r0, #36]
 769              		.loc 1 601 0
 770 0004 046A     		ldr	r4, [r0, #32]
 771              		.loc 1 603 0
 772 0006 856A     		ldr	r5, [r0, #40]
 773              		.loc 1 601 0
 774 0008 2468     		ldr	r4, [r4]
 775              		.loc 1 605 0
 776 000a 1B68     		ldr	r3, [r3]
 777              		.loc 1 607 0
 778 000c C06A     		ldr	r0, [r0, #44]
 779              	.LVL42:
 780              		.loc 1 605 0
 781 000e 094E     		ldr	r6, .L65
 782              		.loc 1 601 0
 783 0010 E260     		str	r2, [r4, #12]
 784              		.loc 1 603 0
 785 0012 45F48065 		orr	r5, r5, #1024
 786              		.loc 1 602 0
 787 0016 6160     		str	r1, [r4, #4]
 788              		.loc 1 603 0
 789 0018 2560     		str	r5, [r4]
 790              		.loc 1 605 0
 791 001a DE60     		str	r6, [r3, #12]
 792              		.loc 1 606 0
 793 001c 5960     		str	r1, [r3, #4]
 794              		.loc 1 607 0
 795 001e 1860     		str	r0, [r3]
 796              		.loc 1 609 0
 797 0020 2268     		ldr	r2, [r4]
 798              	.LVL43:
ARM GAS  /var/folders/m4/4md61f0s1_g0rzfghffqnxvr0000gn/T//ccHfRd1a.s 			page 15


 799 0022 42F00102 		orr	r2, r2, #1
 800 0026 2260     		str	r2, [r4]
 801              		.loc 1 610 0
 802 0028 1A68     		ldr	r2, [r3]
 803 002a 42F00102 		orr	r2, r2, #1
 804 002e 1A60     		str	r2, [r3]
 805              		.loc 1 611 0
 806 0030 70BC     		pop	{r4, r5, r6}
 807              		.cfi_restore 6
 808              		.cfi_restore 5
 809              		.cfi_restore 4
 810              		.cfi_def_cfa_offset 0
 811 0032 7047     		bx	lr
 812              	.L66:
 813              		.align	2
 814              	.L65:
 815 0034 00000000 		.word	.LANCHOR0
 816              		.cfi_endproc
 817              	.LFE278:
 818              		.size	spi_lld_receive, .-spi_lld_receive
 819              		.section	.text.spi_lld_polled_exchange,"ax",%progbits
 820              		.align	2
 821              		.p2align 4,,15
 822              		.global	spi_lld_polled_exchange
 823              		.thumb
 824              		.thumb_func
 825              		.type	spi_lld_polled_exchange, %function
 826              	spi_lld_polled_exchange:
 827              	.LFB279:
 828              		.loc 1 625 0
 829              		.cfi_startproc
 830              		@ args = 0, pretend = 0, frame = 0
 831              		@ frame_needed = 0, uses_anonymous_args = 0
 832              		@ link register save eliminated.
 833              	.LVL44:
 834              		.loc 1 627 0
 835 0000 C269     		ldr	r2, [r0, #28]
 836 0002 D160     		str	r1, [r2, #12]
 837              	.L68:
 838              		.loc 1 628 0 discriminator 1
 839 0004 9368     		ldr	r3, [r2, #8]
 840 0006 DB07     		lsls	r3, r3, #31
 841 0008 FCD5     		bpl	.L68
 842              		.loc 1 630 0
 843 000a D068     		ldr	r0, [r2, #12]
 844              	.LVL45:
 845              		.loc 1 631 0
 846 000c 80B2     		uxth	r0, r0
 847 000e 7047     		bx	lr
 848              		.cfi_endproc
 849              	.LFE279:
 850              		.size	spi_lld_polled_exchange, .-spi_lld_polled_exchange
 851              		.global	SPID1
 852              		.section	.bss.dummytx,"aw",%nobits
 853              		.align	1
 854              		.set	.LANCHOR0,. + 0
 855              		.type	dummytx, %object
ARM GAS  /var/folders/m4/4md61f0s1_g0rzfghffqnxvr0000gn/T//ccHfRd1a.s 			page 16


 856              		.size	dummytx, 2
 857              	dummytx:
 858 0000 0000     		.space	2
 859              		.section	.bss.SPID1,"aw",%nobits
 860              		.align	2
 861              		.set	.LANCHOR1,. + 0
 862              		.type	SPID1, %object
 863              		.size	SPID1, 48
 864              	SPID1:
 865 0000 00000000 		.space	48
 865      00000000 
 865      00000000 
 865      00000000 
 865      00000000 
 866              		.section	.rodata.str1.4,"aMS",%progbits,1
 867              		.align	2
 868              	.LC0:
 869 0000 444D4120 		.ascii	"DMA failure\000"
 869      6661696C 
 869      75726500 
 870              		.section	.bss.dummyrx,"aw",%nobits
 871              		.align	1
 872              		.set	.LANCHOR2,. + 0
 873              		.type	dummyrx, %object
 874              		.size	dummyrx, 2
 875              	dummyrx:
 876 0000 0000     		.space	2
 877              		.text
 878              	.Letext0:
 879              		.file 4 "/opt/homebrew-cask/Caskroom/gcc-arm-embedded/5_2-2015q4,20151219/gcc-arm-none-eabi-5_2-20
 880              		.file 5 "/opt/homebrew-cask/Caskroom/gcc-arm-embedded/5_2-2015q4,20151219/gcc-arm-none-eabi-5_2-20
 881              		.file 6 "/opt/homebrew-cask/Caskroom/gcc-arm-embedded/5_2-2015q4,20151219/gcc-arm-none-eabi-5_2-20
 882              		.file 7 "ChibiOS_16.1.4/os/rt/ports/ARMCMx/compilers/GCC/chtypes.h"
 883              		.file 8 "ChibiOS_16.1.4/os/rt/include/chsystypes.h"
 884              		.file 9 "ChibiOS_16.1.4/os/rt/include/chschd.h"
 885              		.file 10 "ChibiOS_16.1.4/os/ext/CMSIS/ST/STM32F4xx/stm32f405xx.h"
 886              		.file 11 "ChibiOS_16.1.4/os/rt/ports/ARMCMx/chcore.h"
 887              		.file 12 "ChibiOS_16.1.4/os/rt/ports/ARMCMx/chcore_v7m.h"
 888              		.file 13 "ChibiOS_16.1.4/os/rt/include/chtm.h"
 889              		.file 14 "ChibiOS_16.1.4/os/rt/include/chsem.h"
 890              		.file 15 "ChibiOS_16.1.4/os/rt/include/chmtx.h"
 891              		.file 16 "ChibiOS_16.1.4/os/hal/ports/STM32/LLD/DMAv2/stm32_dma.h"
 892              		.file 17 "ChibiOS_16.1.4/os/hal/ports/STM32/LLD/GPIOv2/pal_lld.h"
 893              		.file 18 "ChibiOS_16.1.4/os/hal/include/spi.h"
 894              		.file 19 "ChibiOS_16.1.4/os/hal/ports/STM32/LLD/SPIv1/spi_lld.h"
 895              		.file 20 "ChibiOS_16.1.4/os/rt/include/chsys.h"
 896              		.file 21 "ChibiOS_16.1.4/os/ext/CMSIS/include/core_cm4.h"
 897              		.file 22 "ChibiOS_16.1.4/os/rt/include/chthreads.h"
 898              		.section	.debug_info,"",%progbits
 899              	.Ldebug_info0:
 900 0000 46120000 		.4byte	0x1246
 901 0004 0400     		.2byte	0x4
 902 0006 00000000 		.4byte	.Ldebug_abbrev0
 903 000a 04       		.byte	0x4
 904 000b 01       		.uleb128 0x1
 905 000c 63000000 		.4byte	.LASF224
 906 0010 0C       		.byte	0xc
ARM GAS  /var/folders/m4/4md61f0s1_g0rzfghffqnxvr0000gn/T//ccHfRd1a.s 			page 17


 907 0011 A3040000 		.4byte	.LASF225
 908 0015 EE080000 		.4byte	.LASF226
 909 0019 00000000 		.4byte	.Ldebug_ranges0+0
 910 001d 00000000 		.4byte	0
 911 0021 00000000 		.4byte	.Ldebug_line0
 912 0025 02       		.uleb128 0x2
 913 0026 04       		.byte	0x4
 914 0027 05       		.byte	0x5
 915 0028 696E7400 		.ascii	"int\000"
 916 002c 03       		.uleb128 0x3
 917 002d 18000000 		.4byte	.LASF2
 918 0031 04       		.byte	0x4
 919 0032 D8       		.byte	0xd8
 920 0033 37000000 		.4byte	0x37
 921 0037 04       		.uleb128 0x4
 922 0038 04       		.byte	0x4
 923 0039 07       		.byte	0x7
 924 003a 03070000 		.4byte	.LASF0
 925 003e 04       		.uleb128 0x4
 926 003f 01       		.byte	0x1
 927 0040 06       		.byte	0x6
 928 0041 19030000 		.4byte	.LASF1
 929 0045 03       		.uleb128 0x3
 930 0046 42020000 		.4byte	.LASF3
 931 004a 05       		.byte	0x5
 932 004b 1D       		.byte	0x1d
 933 004c 50000000 		.4byte	0x50
 934 0050 04       		.uleb128 0x4
 935 0051 01       		.byte	0x1
 936 0052 08       		.byte	0x8
 937 0053 86030000 		.4byte	.LASF4
 938 0057 04       		.uleb128 0x4
 939 0058 02       		.byte	0x2
 940 0059 05       		.byte	0x5
 941 005a 82090000 		.4byte	.LASF5
 942 005e 03       		.uleb128 0x3
 943 005f 5C040000 		.4byte	.LASF6
 944 0063 05       		.byte	0x5
 945 0064 2B       		.byte	0x2b
 946 0065 69000000 		.4byte	0x69
 947 0069 04       		.uleb128 0x4
 948 006a 02       		.byte	0x2
 949 006b 07       		.byte	0x7
 950 006c 240A0000 		.4byte	.LASF7
 951 0070 03       		.uleb128 0x3
 952 0071 4E0A0000 		.4byte	.LASF8
 953 0075 05       		.byte	0x5
 954 0076 3F       		.byte	0x3f
 955 0077 7B000000 		.4byte	0x7b
 956 007b 04       		.uleb128 0x4
 957 007c 04       		.byte	0x4
 958 007d 05       		.byte	0x5
 959 007e 7C020000 		.4byte	.LASF9
 960 0082 03       		.uleb128 0x3
 961 0083 30060000 		.4byte	.LASF10
 962 0087 05       		.byte	0x5
 963 0088 41       		.byte	0x41
ARM GAS  /var/folders/m4/4md61f0s1_g0rzfghffqnxvr0000gn/T//ccHfRd1a.s 			page 18


 964 0089 8D000000 		.4byte	0x8d
 965 008d 04       		.uleb128 0x4
 966 008e 04       		.byte	0x4
 967 008f 07       		.byte	0x7
 968 0090 7F050000 		.4byte	.LASF11
 969 0094 04       		.uleb128 0x4
 970 0095 08       		.byte	0x8
 971 0096 05       		.byte	0x5
 972 0097 45060000 		.4byte	.LASF12
 973 009b 03       		.uleb128 0x3
 974 009c 74050000 		.4byte	.LASF13
 975 00a0 05       		.byte	0x5
 976 00a1 5B       		.byte	0x5b
 977 00a2 A6000000 		.4byte	0xa6
 978 00a6 04       		.uleb128 0x4
 979 00a7 08       		.byte	0x8
 980 00a8 07       		.byte	0x7
 981 00a9 1C080000 		.4byte	.LASF14
 982 00ad 03       		.uleb128 0x3
 983 00ae 2F030000 		.4byte	.LASF15
 984 00b2 06       		.byte	0x6
 985 00b3 14       		.byte	0x14
 986 00b4 45000000 		.4byte	0x45
 987 00b8 03       		.uleb128 0x3
 988 00b9 3B080000 		.4byte	.LASF16
 989 00bd 06       		.byte	0x6
 990 00be 1A       		.byte	0x1a
 991 00bf 5E000000 		.4byte	0x5e
 992 00c3 03       		.uleb128 0x3
 993 00c4 69010000 		.4byte	.LASF17
 994 00c8 06       		.byte	0x6
 995 00c9 1F       		.byte	0x1f
 996 00ca 70000000 		.4byte	0x70
 997 00ce 03       		.uleb128 0x3
 998 00cf 010A0000 		.4byte	.LASF18
 999 00d3 06       		.byte	0x6
 1000 00d4 20       		.byte	0x20
 1001 00d5 82000000 		.4byte	0x82
 1002 00d9 03       		.uleb128 0x3
 1003 00da 8C090000 		.4byte	.LASF19
 1004 00de 06       		.byte	0x6
 1005 00df 26       		.byte	0x26
 1006 00e0 9B000000 		.4byte	0x9b
 1007 00e4 03       		.uleb128 0x3
 1008 00e5 25070000 		.4byte	.LASF20
 1009 00e9 07       		.byte	0x7
 1010 00ea 39       		.byte	0x39
 1011 00eb CE000000 		.4byte	0xce
 1012 00ef 03       		.uleb128 0x3
 1013 00f0 D8080000 		.4byte	.LASF21
 1014 00f4 07       		.byte	0x7
 1015 00f5 3C       		.byte	0x3c
 1016 00f6 AD000000 		.4byte	0xad
 1017 00fa 03       		.uleb128 0x3
 1018 00fb D5020000 		.4byte	.LASF22
 1019 00ff 07       		.byte	0x7
 1020 0100 3D       		.byte	0x3d
ARM GAS  /var/folders/m4/4md61f0s1_g0rzfghffqnxvr0000gn/T//ccHfRd1a.s 			page 19


 1021 0101 AD000000 		.4byte	0xad
 1022 0105 03       		.uleb128 0x3
 1023 0106 E0090000 		.4byte	.LASF23
 1024 010a 07       		.byte	0x7
 1025 010b 3E       		.byte	0x3e
 1026 010c AD000000 		.4byte	0xad
 1027 0110 03       		.uleb128 0x3
 1028 0111 61080000 		.4byte	.LASF24
 1029 0115 07       		.byte	0x7
 1030 0116 3F       		.byte	0x3f
 1031 0117 AD000000 		.4byte	0xad
 1032 011b 03       		.uleb128 0x3
 1033 011c 4A000000 		.4byte	.LASF25
 1034 0120 07       		.byte	0x7
 1035 0121 40       		.byte	0x40
 1036 0122 CE000000 		.4byte	0xce
 1037 0126 03       		.uleb128 0x3
 1038 0127 44080000 		.4byte	.LASF26
 1039 012b 07       		.byte	0x7
 1040 012c 41       		.byte	0x41
 1041 012d C3000000 		.4byte	0xc3
 1042 0131 03       		.uleb128 0x3
 1043 0132 37030000 		.4byte	.LASF27
 1044 0136 07       		.byte	0x7
 1045 0137 43       		.byte	0x43
 1046 0138 CE000000 		.4byte	0xce
 1047 013c 03       		.uleb128 0x3
 1048 013d FD040000 		.4byte	.LASF28
 1049 0141 07       		.byte	0x7
 1050 0142 45       		.byte	0x45
 1051 0143 C3000000 		.4byte	0xc3
 1052 0147 03       		.uleb128 0x3
 1053 0148 2F000000 		.4byte	.LASF29
 1054 014c 08       		.byte	0x8
 1055 014d 33       		.byte	0x33
 1056 014e CE000000 		.4byte	0xce
 1057 0152 03       		.uleb128 0x3
 1058 0153 8D070000 		.4byte	.LASF30
 1059 0157 08       		.byte	0x8
 1060 0158 3F       		.byte	0x3f
 1061 0159 5D010000 		.4byte	0x15d
 1062 015d 05       		.uleb128 0x5
 1063 015e 9E050000 		.4byte	.LASF52
 1064 0162 48       		.byte	0x48
 1065 0163 09       		.byte	0x9
 1066 0164 C2       		.byte	0xc2
 1067 0165 62020000 		.4byte	0x262
 1068 0169 06       		.uleb128 0x6
 1069 016a 90020000 		.4byte	.LASF31
 1070 016e 09       		.byte	0x9
 1071 016f C3       		.byte	0xc3
 1072 0170 6D020000 		.4byte	0x26d
 1073 0174 00       		.byte	0
 1074 0175 06       		.uleb128 0x6
 1075 0176 A3020000 		.4byte	.LASF32
 1076 017a 09       		.byte	0x9
 1077 017b C5       		.byte	0xc5
ARM GAS  /var/folders/m4/4md61f0s1_g0rzfghffqnxvr0000gn/T//ccHfRd1a.s 			page 20


 1078 017c 6D020000 		.4byte	0x26d
 1079 0180 04       		.byte	0x4
 1080 0181 06       		.uleb128 0x6
 1081 0182 4B040000 		.4byte	.LASF33
 1082 0186 09       		.byte	0x9
 1083 0187 C7       		.byte	0xc7
 1084 0188 1B010000 		.4byte	0x11b
 1085 018c 08       		.byte	0x8
 1086 018d 06       		.uleb128 0x6
 1087 018e 44000000 		.4byte	.LASF34
 1088 0192 09       		.byte	0x9
 1089 0193 C8       		.byte	0xc8
 1090 0194 39070000 		.4byte	0x739
 1091 0198 0C       		.byte	0xc
 1092 0199 06       		.uleb128 0x6
 1093 019a 6B020000 		.4byte	.LASF35
 1094 019e 09       		.byte	0x9
 1095 019f CA       		.byte	0xca
 1096 01a0 6D020000 		.4byte	0x26d
 1097 01a4 10       		.byte	0x10
 1098 01a5 06       		.uleb128 0x6
 1099 01a6 33080000 		.4byte	.LASF36
 1100 01aa 09       		.byte	0x9
 1101 01ab CB       		.byte	0xcb
 1102 01ac 6D020000 		.4byte	0x26d
 1103 01b0 14       		.byte	0x14
 1104 01b1 06       		.uleb128 0x6
 1105 01b2 680A0000 		.4byte	.LASF37
 1106 01b6 09       		.byte	0x9
 1107 01b7 D2       		.byte	0xd2
 1108 01b8 87090000 		.4byte	0x987
 1109 01bc 18       		.byte	0x18
 1110 01bd 06       		.uleb128 0x6
 1111 01be 860A0000 		.4byte	.LASF38
 1112 01c2 09       		.byte	0x9
 1113 01c3 DD       		.byte	0xdd
 1114 01c4 FA000000 		.4byte	0xfa
 1115 01c8 1C       		.byte	0x1c
 1116 01c9 06       		.uleb128 0x6
 1117 01ca EC060000 		.4byte	.LASF39
 1118 01ce 09       		.byte	0x9
 1119 01cf E1       		.byte	0xe1
 1120 01d0 EF000000 		.4byte	0xef
 1121 01d4 1D       		.byte	0x1d
 1122 01d5 06       		.uleb128 0x6
 1123 01d6 44070000 		.4byte	.LASF40
 1124 01da 09       		.byte	0x9
 1125 01db E6       		.byte	0xe6
 1126 01dc 05010000 		.4byte	0x105
 1127 01e0 1E       		.byte	0x1e
 1128 01e1 06       		.uleb128 0x6
 1129 01e2 25030000 		.4byte	.LASF41
 1130 01e6 09       		.byte	0x9
 1131 01e7 EC       		.byte	0xec
 1132 01e8 10010000 		.4byte	0x110
 1133 01ec 1F       		.byte	0x1f
 1134 01ed 06       		.uleb128 0x6
ARM GAS  /var/folders/m4/4md61f0s1_g0rzfghffqnxvr0000gn/T//ccHfRd1a.s 			page 21


 1135 01ee 6F070000 		.4byte	.LASF42
 1136 01f2 09       		.byte	0x9
 1137 01f3 F3       		.byte	0xf3
 1138 01f4 99090000 		.4byte	0x999
 1139 01f8 20       		.byte	0x20
 1140 01f9 07       		.uleb128 0x7
 1141 01fa 705F7500 		.ascii	"p_u\000"
 1142 01fe 09       		.byte	0x9
 1143 01ff 3101     		.2byte	0x131
 1144 0201 C2080000 		.4byte	0x8c2
 1145 0205 24       		.byte	0x24
 1146 0206 08       		.uleb128 0x8
 1147 0207 D6060000 		.4byte	.LASF43
 1148 020b 09       		.byte	0x9
 1149 020c 3601     		.2byte	0x136
 1150 020e 73020000 		.4byte	0x273
 1151 0212 28       		.byte	0x28
 1152 0213 08       		.uleb128 0x8
 1153 0214 52000000 		.4byte	.LASF44
 1154 0218 09       		.byte	0x9
 1155 0219 3C01     		.2byte	0x13c
 1156 021b 97020000 		.4byte	0x297
 1157 021f 2C       		.byte	0x2c
 1158 0220 08       		.uleb128 0x8
 1159 0221 800A0000 		.4byte	.LASF45
 1160 0225 09       		.byte	0x9
 1161 0226 4001     		.2byte	0x140
 1162 0228 26010000 		.4byte	0x126
 1163 022c 34       		.byte	0x34
 1164 022d 08       		.uleb128 0x8
 1165 022e 23050000 		.4byte	.LASF46
 1166 0232 09       		.byte	0x9
 1167 0233 4601     		.2byte	0x146
 1168 0235 31010000 		.4byte	0x131
 1169 0239 38       		.byte	0x38
 1170 023a 08       		.uleb128 0x8
 1171 023b EE020000 		.4byte	.LASF47
 1172 023f 09       		.byte	0x9
 1173 0240 4D01     		.2byte	0x14d
 1174 0242 81090000 		.4byte	0x981
 1175 0246 3C       		.byte	0x3c
 1176 0247 08       		.uleb128 0x8
 1177 0248 A9070000 		.4byte	.LASF48
 1178 024c 09       		.byte	0x9
 1179 024d 5101     		.2byte	0x151
 1180 024f 1B010000 		.4byte	0x11b
 1181 0253 40       		.byte	0x40
 1182 0254 08       		.uleb128 0x8
 1183 0255 2D070000 		.4byte	.LASF49
 1184 0259 09       		.byte	0x9
 1185 025a 5801     		.2byte	0x158
 1186 025c 4A030000 		.4byte	0x34a
 1187 0260 44       		.byte	0x44
 1188 0261 00       		.byte	0
 1189 0262 03       		.uleb128 0x3
 1190 0263 96070000 		.4byte	.LASF50
 1191 0267 08       		.byte	0x8
ARM GAS  /var/folders/m4/4md61f0s1_g0rzfghffqnxvr0000gn/T//ccHfRd1a.s 			page 22


 1192 0268 44       		.byte	0x44
 1193 0269 6D020000 		.4byte	0x26d
 1194 026d 09       		.uleb128 0x9
 1195 026e 04       		.byte	0x4
 1196 026f 52010000 		.4byte	0x152
 1197 0273 03       		.uleb128 0x3
 1198 0274 E8090000 		.4byte	.LASF51
 1199 0278 08       		.byte	0x8
 1200 0279 49       		.byte	0x49
 1201 027a 7E020000 		.4byte	0x27e
 1202 027e 05       		.uleb128 0x5
 1203 027f 04060000 		.4byte	.LASF53
 1204 0283 04       		.byte	0x4
 1205 0284 09       		.byte	0x9
 1206 0285 B0       		.byte	0xb0
 1207 0286 97020000 		.4byte	0x297
 1208 028a 06       		.uleb128 0x6
 1209 028b 90020000 		.4byte	.LASF31
 1210 028f 09       		.byte	0x9
 1211 0290 B1       		.byte	0xb1
 1212 0291 6D020000 		.4byte	0x26d
 1213 0295 00       		.byte	0
 1214 0296 00       		.byte	0
 1215 0297 03       		.uleb128 0x3
 1216 0298 DE020000 		.4byte	.LASF54
 1217 029c 08       		.byte	0x8
 1218 029d 50       		.byte	0x50
 1219 029e A2020000 		.4byte	0x2a2
 1220 02a2 05       		.uleb128 0x5
 1221 02a3 4A080000 		.4byte	.LASF55
 1222 02a7 08       		.byte	0x8
 1223 02a8 09       		.byte	0x9
 1224 02a9 B7       		.byte	0xb7
 1225 02aa C7020000 		.4byte	0x2c7
 1226 02ae 06       		.uleb128 0x6
 1227 02af 90020000 		.4byte	.LASF31
 1228 02b3 09       		.byte	0x9
 1229 02b4 B8       		.byte	0xb8
 1230 02b5 6D020000 		.4byte	0x26d
 1231 02b9 00       		.byte	0
 1232 02ba 06       		.uleb128 0x6
 1233 02bb A3020000 		.4byte	.LASF32
 1234 02bf 09       		.byte	0x9
 1235 02c0 B9       		.byte	0xb9
 1236 02c1 6D020000 		.4byte	0x26d
 1237 02c5 04       		.byte	0x4
 1238 02c6 00       		.byte	0
 1239 02c7 03       		.uleb128 0x3
 1240 02c8 E1050000 		.4byte	.LASF56
 1241 02cc 08       		.byte	0x8
 1242 02cd 57       		.byte	0x57
 1243 02ce D2020000 		.4byte	0x2d2
 1244 02d2 0A       		.uleb128 0xa
 1245 02d3 46050000 		.4byte	.LASF57
 1246 02d7 1C       		.byte	0x1c
 1247 02d8 09       		.byte	0x9
 1248 02d9 9001     		.2byte	0x190
ARM GAS  /var/folders/m4/4md61f0s1_g0rzfghffqnxvr0000gn/T//ccHfRd1a.s 			page 23


 1249 02db 2E030000 		.4byte	0x32e
 1250 02df 08       		.uleb128 0x8
 1251 02e0 B0080000 		.4byte	.LASF58
 1252 02e4 09       		.byte	0x9
 1253 02e5 9101     		.2byte	0x191
 1254 02e7 97020000 		.4byte	0x297
 1255 02eb 00       		.byte	0
 1256 02ec 08       		.uleb128 0x8
 1257 02ed 9E090000 		.4byte	.LASF59
 1258 02f1 09       		.byte	0x9
 1259 02f2 9201     		.2byte	0x192
 1260 02f4 1B010000 		.4byte	0x11b
 1261 02f8 08       		.byte	0x8
 1262 02f9 08       		.uleb128 0x8
 1263 02fa 5D000000 		.4byte	.LASF60
 1264 02fe 09       		.byte	0x9
 1265 02ff 9401     		.2byte	0x194
 1266 0301 39070000 		.4byte	0x739
 1267 0305 0C       		.byte	0xc
 1268 0306 08       		.uleb128 0x8
 1269 0307 E1030000 		.4byte	.LASF61
 1270 030b 09       		.byte	0x9
 1271 030c 9701     		.2byte	0x197
 1272 030e 6D020000 		.4byte	0x26d
 1273 0312 10       		.byte	0x10
 1274 0313 08       		.uleb128 0x8
 1275 0314 36090000 		.4byte	.LASF62
 1276 0318 09       		.byte	0x9
 1277 0319 9801     		.2byte	0x198
 1278 031b 6D020000 		.4byte	0x26d
 1279 031f 14       		.byte	0x14
 1280 0320 08       		.uleb128 0x8
 1281 0321 6B080000 		.4byte	.LASF63
 1282 0325 09       		.byte	0x9
 1283 0326 9B01     		.2byte	0x19b
 1284 0328 6D020000 		.4byte	0x26d
 1285 032c 18       		.byte	0x18
 1286 032d 00       		.byte	0
 1287 032e 03       		.uleb128 0x3
 1288 032f 7E010000 		.4byte	.LASF64
 1289 0333 08       		.byte	0x8
 1290 0334 5C       		.byte	0x5c
 1291 0335 39030000 		.4byte	0x339
 1292 0339 09       		.uleb128 0x9
 1293 033a 04       		.byte	0x4
 1294 033b 3F030000 		.4byte	0x33f
 1295 033f 0B       		.uleb128 0xb
 1296 0340 4A030000 		.4byte	0x34a
 1297 0344 0C       		.uleb128 0xc
 1298 0345 4A030000 		.4byte	0x34a
 1299 0349 00       		.byte	0
 1300 034a 0D       		.uleb128 0xd
 1301 034b 04       		.byte	0x4
 1302 034c 03       		.uleb128 0x3
 1303 034d D1050000 		.4byte	.LASF65
 1304 0351 08       		.byte	0x8
 1305 0352 61       		.byte	0x61
ARM GAS  /var/folders/m4/4md61f0s1_g0rzfghffqnxvr0000gn/T//ccHfRd1a.s 			page 24


 1306 0353 57030000 		.4byte	0x357
 1307 0357 0A       		.uleb128 0xa
 1308 0358 F3070000 		.4byte	.LASF66
 1309 035c 14       		.byte	0x14
 1310 035d 09       		.byte	0x9
 1311 035e 6B01     		.2byte	0x16b
 1312 0360 A6030000 		.4byte	0x3a6
 1313 0364 08       		.uleb128 0x8
 1314 0365 74060000 		.4byte	.LASF67
 1315 0369 09       		.byte	0x9
 1316 036a 6C01     		.2byte	0x16c
 1317 036c 9E090000 		.4byte	0x99e
 1318 0370 00       		.byte	0
 1319 0371 08       		.uleb128 0x8
 1320 0372 7C060000 		.4byte	.LASF68
 1321 0376 09       		.byte	0x9
 1322 0377 6D01     		.2byte	0x16d
 1323 0379 9E090000 		.4byte	0x99e
 1324 037d 04       		.byte	0x4
 1325 037e 08       		.uleb128 0x8
 1326 037f E1070000 		.4byte	.LASF69
 1327 0383 09       		.byte	0x9
 1328 0384 6E01     		.2byte	0x16e
 1329 0386 47010000 		.4byte	0x147
 1330 038a 08       		.byte	0x8
 1331 038b 08       		.uleb128 0x8
 1332 038c 03050000 		.4byte	.LASF70
 1333 0390 09       		.byte	0x9
 1334 0391 6F01     		.2byte	0x16f
 1335 0393 2E030000 		.4byte	0x32e
 1336 0397 0C       		.byte	0xc
 1337 0398 08       		.uleb128 0x8
 1338 0399 23020000 		.4byte	.LASF71
 1339 039d 09       		.byte	0x9
 1340 039e 7101     		.2byte	0x171
 1341 03a0 4A030000 		.4byte	0x34a
 1342 03a4 10       		.byte	0x10
 1343 03a5 00       		.byte	0
 1344 03a6 03       		.uleb128 0x3
 1345 03a7 A8050000 		.4byte	.LASF72
 1346 03ab 08       		.byte	0x8
 1347 03ac 66       		.byte	0x66
 1348 03ad B1030000 		.4byte	0x3b1
 1349 03b1 0A       		.uleb128 0xa
 1350 03b2 98010000 		.4byte	.LASF73
 1351 03b6 10       		.byte	0x10
 1352 03b7 09       		.byte	0x9
 1353 03b8 7B01     		.2byte	0x17b
 1354 03ba F3030000 		.4byte	0x3f3
 1355 03be 08       		.uleb128 0x8
 1356 03bf 74060000 		.4byte	.LASF67
 1357 03c3 09       		.byte	0x9
 1358 03c4 7C01     		.2byte	0x17c
 1359 03c6 9E090000 		.4byte	0x99e
 1360 03ca 00       		.byte	0
 1361 03cb 08       		.uleb128 0x8
 1362 03cc 7C060000 		.4byte	.LASF68
ARM GAS  /var/folders/m4/4md61f0s1_g0rzfghffqnxvr0000gn/T//ccHfRd1a.s 			page 25


 1363 03d0 09       		.byte	0x9
 1364 03d1 7E01     		.2byte	0x17e
 1365 03d3 9E090000 		.4byte	0x99e
 1366 03d7 04       		.byte	0x4
 1367 03d8 08       		.uleb128 0x8
 1368 03d9 E1070000 		.4byte	.LASF69
 1369 03dd 09       		.byte	0x9
 1370 03de 8001     		.2byte	0x180
 1371 03e0 47010000 		.4byte	0x147
 1372 03e4 08       		.byte	0x8
 1373 03e5 08       		.uleb128 0x8
 1374 03e6 23090000 		.4byte	.LASF74
 1375 03ea 09       		.byte	0x9
 1376 03eb 8201     		.2byte	0x182
 1377 03ed 99090000 		.4byte	0x999
 1378 03f1 0C       		.byte	0xc
 1379 03f2 00       		.byte	0
 1380 03f3 03       		.uleb128 0x3
 1381 03f4 F6030000 		.4byte	.LASF75
 1382 03f8 08       		.byte	0x8
 1383 03f9 6B       		.byte	0x6b
 1384 03fa FE030000 		.4byte	0x3fe
 1385 03fe 0A       		.uleb128 0xa
 1386 03ff A5090000 		.4byte	.LASF76
 1387 0403 04       		.byte	0x4
 1388 0404 09       		.byte	0x9
 1389 0405 A201     		.2byte	0x1a2
 1390 0407 19040000 		.4byte	0x419
 1391 040b 08       		.uleb128 0x8
 1392 040c D7030000 		.4byte	.LASF77
 1393 0410 09       		.byte	0x9
 1394 0411 AA01     		.2byte	0x1aa
 1395 0413 A4090000 		.4byte	0x9a4
 1396 0417 00       		.byte	0
 1397 0418 00       		.byte	0
 1398 0419 03       		.uleb128 0x3
 1399 041a 370A0000 		.4byte	.LASF78
 1400 041e 08       		.byte	0x8
 1401 041f 70       		.byte	0x70
 1402 0420 24040000 		.4byte	0x424
 1403 0424 0E       		.uleb128 0xe
 1404 0425 F7090000 		.4byte	.LASF79
 1405 0429 5802     		.2byte	0x258
 1406 042b 09       		.byte	0x9
 1407 042c C201     		.2byte	0x1c2
 1408 042e 80040000 		.4byte	0x480
 1409 0432 08       		.uleb128 0x8
 1410 0433 D2080000 		.4byte	.LASF80
 1411 0437 09       		.byte	0x9
 1412 0438 C601     		.2byte	0x1c6
 1413 043a C7020000 		.4byte	0x2c7
 1414 043e 00       		.byte	0
 1415 043f 08       		.uleb128 0x8
 1416 0440 C7090000 		.4byte	.LASF81
 1417 0444 09       		.byte	0x9
 1418 0445 CA01     		.2byte	0x1ca
 1419 0447 A6030000 		.4byte	0x3a6
ARM GAS  /var/folders/m4/4md61f0s1_g0rzfghffqnxvr0000gn/T//ccHfRd1a.s 			page 26


 1420 044b 1C       		.byte	0x1c
 1421 044c 07       		.uleb128 0x7
 1422 044d 64626700 		.ascii	"dbg\000"
 1423 0451 09       		.byte	0x9
 1424 0452 CE01     		.2byte	0x1ce
 1425 0454 F3030000 		.4byte	0x3f3
 1426 0458 2C       		.byte	0x2c
 1427 0459 08       		.uleb128 0x8
 1428 045a 8D080000 		.4byte	.LASF82
 1429 045e 09       		.byte	0x9
 1430 045f D201     		.2byte	0x1d2
 1431 0461 52010000 		.4byte	0x152
 1432 0465 30       		.byte	0x30
 1433 0466 07       		.uleb128 0x7
 1434 0467 746D00   		.ascii	"tm\000"
 1435 046a 09       		.byte	0x9
 1436 046b D701     		.2byte	0x1d7
 1437 046d B7080000 		.4byte	0x8b7
 1438 0471 78       		.byte	0x78
 1439 0472 08       		.uleb128 0x8
 1440 0473 F4060000 		.4byte	.LASF83
 1441 0477 09       		.byte	0x9
 1442 0478 E301     		.2byte	0x1e3
 1443 047a A9090000 		.4byte	0x9a9
 1444 047e 80       		.byte	0x80
 1445 047f 00       		.byte	0
 1446 0480 04       		.uleb128 0x4
 1447 0481 04       		.byte	0x4
 1448 0482 07       		.byte	0x7
 1449 0483 1F000000 		.4byte	.LASF84
 1450 0487 0F       		.uleb128 0xf
 1451 0488 CE000000 		.4byte	0xce
 1452 048c 10       		.uleb128 0x10
 1453 048d CE000000 		.4byte	0xce
 1454 0491 9C040000 		.4byte	0x49c
 1455 0495 11       		.uleb128 0x11
 1456 0496 80040000 		.4byte	0x480
 1457 049a 01       		.byte	0x1
 1458 049b 00       		.byte	0
 1459 049c 12       		.uleb128 0x12
 1460 049d 18       		.byte	0x18
 1461 049e 0A       		.byte	0xa
 1462 049f 5601     		.2byte	0x156
 1463 04a1 F3040000 		.4byte	0x4f3
 1464 04a5 07       		.uleb128 0x7
 1465 04a6 435200   		.ascii	"CR\000"
 1466 04a9 0A       		.byte	0xa
 1467 04aa 5801     		.2byte	0x158
 1468 04ac 87040000 		.4byte	0x487
 1469 04b0 00       		.byte	0
 1470 04b1 08       		.uleb128 0x8
 1471 04b2 580A0000 		.4byte	.LASF85
 1472 04b6 0A       		.byte	0xa
 1473 04b7 5901     		.2byte	0x159
 1474 04b9 87040000 		.4byte	0x487
 1475 04bd 04       		.byte	0x4
 1476 04be 07       		.uleb128 0x7
ARM GAS  /var/folders/m4/4md61f0s1_g0rzfghffqnxvr0000gn/T//ccHfRd1a.s 			page 27


 1477 04bf 50415200 		.ascii	"PAR\000"
 1478 04c3 0A       		.byte	0xa
 1479 04c4 5A01     		.2byte	0x15a
 1480 04c6 87040000 		.4byte	0x487
 1481 04ca 08       		.byte	0x8
 1482 04cb 08       		.uleb128 0x8
 1483 04cc 5F090000 		.4byte	.LASF86
 1484 04d0 0A       		.byte	0xa
 1485 04d1 5B01     		.2byte	0x15b
 1486 04d3 87040000 		.4byte	0x487
 1487 04d7 0C       		.byte	0xc
 1488 04d8 08       		.uleb128 0x8
 1489 04d9 00000000 		.4byte	.LASF87
 1490 04dd 0A       		.byte	0xa
 1491 04de 5C01     		.2byte	0x15c
 1492 04e0 87040000 		.4byte	0x487
 1493 04e4 10       		.byte	0x10
 1494 04e5 07       		.uleb128 0x7
 1495 04e6 46435200 		.ascii	"FCR\000"
 1496 04ea 0A       		.byte	0xa
 1497 04eb 5D01     		.2byte	0x15d
 1498 04ed 87040000 		.4byte	0x487
 1499 04f1 14       		.byte	0x14
 1500 04f2 00       		.byte	0
 1501 04f3 13       		.uleb128 0x13
 1502 04f4 5C070000 		.4byte	.LASF88
 1503 04f8 0A       		.byte	0xa
 1504 04f9 5E01     		.2byte	0x15e
 1505 04fb 9C040000 		.4byte	0x49c
 1506 04ff 12       		.uleb128 0x12
 1507 0500 88       		.byte	0x88
 1508 0501 0A       		.byte	0xa
 1509 0502 0702     		.2byte	0x207
 1510 0504 8E060000 		.4byte	0x68e
 1511 0508 07       		.uleb128 0x7
 1512 0509 435200   		.ascii	"CR\000"
 1513 050c 0A       		.byte	0xa
 1514 050d 0902     		.2byte	0x209
 1515 050f 87040000 		.4byte	0x487
 1516 0513 00       		.byte	0
 1517 0514 08       		.uleb128 0x8
 1518 0515 1C060000 		.4byte	.LASF89
 1519 0519 0A       		.byte	0xa
 1520 051a 0A02     		.2byte	0x20a
 1521 051c 87040000 		.4byte	0x487
 1522 0520 04       		.byte	0x4
 1523 0521 08       		.uleb128 0x8
 1524 0522 5A050000 		.4byte	.LASF90
 1525 0526 0A       		.byte	0xa
 1526 0527 0B02     		.2byte	0x20b
 1527 0529 87040000 		.4byte	0x487
 1528 052d 08       		.byte	0x8
 1529 052e 07       		.uleb128 0x7
 1530 052f 43495200 		.ascii	"CIR\000"
 1531 0533 0A       		.byte	0xa
 1532 0534 0C02     		.2byte	0x20c
 1533 0536 87040000 		.4byte	0x487
ARM GAS  /var/folders/m4/4md61f0s1_g0rzfghffqnxvr0000gn/T//ccHfRd1a.s 			page 28


 1534 053a 0C       		.byte	0xc
 1535 053b 08       		.uleb128 0x8
 1536 053c 42040000 		.4byte	.LASF91
 1537 0540 0A       		.byte	0xa
 1538 0541 0D02     		.2byte	0x20d
 1539 0543 87040000 		.4byte	0x487
 1540 0547 10       		.byte	0x10
 1541 0548 08       		.uleb128 0x8
 1542 0549 4F090000 		.4byte	.LASF92
 1543 054d 0A       		.byte	0xa
 1544 054e 0E02     		.2byte	0x20e
 1545 0550 87040000 		.4byte	0x487
 1546 0554 14       		.byte	0x14
 1547 0555 08       		.uleb128 0x8
 1548 0556 84070000 		.4byte	.LASF93
 1549 055a 0A       		.byte	0xa
 1550 055b 0F02     		.2byte	0x20f
 1551 055d 87040000 		.4byte	0x487
 1552 0561 18       		.byte	0x18
 1553 0562 08       		.uleb128 0x8
 1554 0563 72030000 		.4byte	.LASF94
 1555 0567 0A       		.byte	0xa
 1556 0568 1002     		.2byte	0x210
 1557 056a CE000000 		.4byte	0xce
 1558 056e 1C       		.byte	0x1c
 1559 056f 08       		.uleb128 0x8
 1560 0570 EA070000 		.4byte	.LASF95
 1561 0574 0A       		.byte	0xa
 1562 0575 1102     		.2byte	0x211
 1563 0577 87040000 		.4byte	0x487
 1564 057b 20       		.byte	0x20
 1565 057c 08       		.uleb128 0x8
 1566 057d 84060000 		.4byte	.LASF96
 1567 0581 0A       		.byte	0xa
 1568 0582 1202     		.2byte	0x212
 1569 0584 87040000 		.4byte	0x487
 1570 0588 24       		.byte	0x24
 1571 0589 08       		.uleb128 0x8
 1572 058a 7C030000 		.4byte	.LASF97
 1573 058e 0A       		.byte	0xa
 1574 058f 1302     		.2byte	0x213
 1575 0591 8C040000 		.4byte	0x48c
 1576 0595 28       		.byte	0x28
 1577 0596 08       		.uleb128 0x8
 1578 0597 E6080000 		.4byte	.LASF98
 1579 059b 0A       		.byte	0xa
 1580 059c 1402     		.2byte	0x214
 1581 059e 87040000 		.4byte	0x487
 1582 05a2 30       		.byte	0x30
 1583 05a3 08       		.uleb128 0x8
 1584 05a4 67040000 		.4byte	.LASF99
 1585 05a8 0A       		.byte	0xa
 1586 05a9 1502     		.2byte	0x215
 1587 05ab 87040000 		.4byte	0x487
 1588 05af 34       		.byte	0x34
 1589 05b0 08       		.uleb128 0x8
 1590 05b1 2E090000 		.4byte	.LASF100
ARM GAS  /var/folders/m4/4md61f0s1_g0rzfghffqnxvr0000gn/T//ccHfRd1a.s 			page 29


 1591 05b5 0A       		.byte	0xa
 1592 05b6 1602     		.2byte	0x216
 1593 05b8 87040000 		.4byte	0x487
 1594 05bc 38       		.byte	0x38
 1595 05bd 08       		.uleb128 0x8
 1596 05be 0B040000 		.4byte	.LASF101
 1597 05c2 0A       		.byte	0xa
 1598 05c3 1702     		.2byte	0x217
 1599 05c5 CE000000 		.4byte	0xce
 1600 05c9 3C       		.byte	0x3c
 1601 05ca 08       		.uleb128 0x8
 1602 05cb 04080000 		.4byte	.LASF102
 1603 05cf 0A       		.byte	0xa
 1604 05d0 1802     		.2byte	0x218
 1605 05d2 87040000 		.4byte	0x487
 1606 05d6 40       		.byte	0x40
 1607 05d7 08       		.uleb128 0x8
 1608 05d8 07030000 		.4byte	.LASF103
 1609 05dc 0A       		.byte	0xa
 1610 05dd 1902     		.2byte	0x219
 1611 05df 87040000 		.4byte	0x487
 1612 05e3 44       		.byte	0x44
 1613 05e4 08       		.uleb128 0x8
 1614 05e5 94030000 		.4byte	.LASF104
 1615 05e9 0A       		.byte	0xa
 1616 05ea 1A02     		.2byte	0x21a
 1617 05ec 8C040000 		.4byte	0x48c
 1618 05f0 48       		.byte	0x48
 1619 05f1 08       		.uleb128 0x8
 1620 05f2 0F030000 		.4byte	.LASF105
 1621 05f6 0A       		.byte	0xa
 1622 05f7 1B02     		.2byte	0x21b
 1623 05f9 87040000 		.4byte	0x487
 1624 05fd 50       		.byte	0x50
 1625 05fe 08       		.uleb128 0x8
 1626 05ff 53020000 		.4byte	.LASF106
 1627 0603 0A       		.byte	0xa
 1628 0604 1C02     		.2byte	0x21c
 1629 0606 87040000 		.4byte	0x487
 1630 060a 54       		.byte	0x54
 1631 060b 08       		.uleb128 0x8
 1632 060c 98080000 		.4byte	.LASF107
 1633 0610 0A       		.byte	0xa
 1634 0611 1D02     		.2byte	0x21d
 1635 0613 87040000 		.4byte	0x487
 1636 0617 58       		.byte	0x58
 1637 0618 08       		.uleb128 0x8
 1638 0619 9E030000 		.4byte	.LASF108
 1639 061d 0A       		.byte	0xa
 1640 061e 1E02     		.2byte	0x21e
 1641 0620 CE000000 		.4byte	0xce
 1642 0624 5C       		.byte	0x5c
 1643 0625 08       		.uleb128 0x8
 1644 0626 52070000 		.4byte	.LASF109
 1645 062a 0A       		.byte	0xa
 1646 062b 1F02     		.2byte	0x21f
 1647 062d 87040000 		.4byte	0x487
ARM GAS  /var/folders/m4/4md61f0s1_g0rzfghffqnxvr0000gn/T//ccHfRd1a.s 			page 30


 1648 0631 60       		.byte	0x60
 1649 0632 08       		.uleb128 0x8
 1650 0633 C7060000 		.4byte	.LASF110
 1651 0637 0A       		.byte	0xa
 1652 0638 2002     		.2byte	0x220
 1653 063a 87040000 		.4byte	0x487
 1654 063e 64       		.byte	0x64
 1655 063f 08       		.uleb128 0x8
 1656 0640 A8030000 		.4byte	.LASF111
 1657 0644 0A       		.byte	0xa
 1658 0645 2102     		.2byte	0x221
 1659 0647 8C040000 		.4byte	0x48c
 1660 064b 68       		.byte	0x68
 1661 064c 08       		.uleb128 0x8
 1662 064d F8040000 		.4byte	.LASF112
 1663 0651 0A       		.byte	0xa
 1664 0652 2202     		.2byte	0x222
 1665 0654 87040000 		.4byte	0x487
 1666 0658 70       		.byte	0x70
 1667 0659 07       		.uleb128 0x7
 1668 065a 43535200 		.ascii	"CSR\000"
 1669 065e 0A       		.byte	0xa
 1670 065f 2302     		.2byte	0x223
 1671 0661 87040000 		.4byte	0x487
 1672 0665 74       		.byte	0x74
 1673 0666 08       		.uleb128 0x8
 1674 0667 B2030000 		.4byte	.LASF113
 1675 066b 0A       		.byte	0xa
 1676 066c 2402     		.2byte	0x224
 1677 066e 8C040000 		.4byte	0x48c
 1678 0672 78       		.byte	0x78
 1679 0673 08       		.uleb128 0x8
 1680 0674 6E060000 		.4byte	.LASF114
 1681 0678 0A       		.byte	0xa
 1682 0679 2502     		.2byte	0x225
 1683 067b 87040000 		.4byte	0x487
 1684 067f 80       		.byte	0x80
 1685 0680 08       		.uleb128 0x8
 1686 0681 39000000 		.4byte	.LASF115
 1687 0685 0A       		.byte	0xa
 1688 0686 2602     		.2byte	0x226
 1689 0688 87040000 		.4byte	0x487
 1690 068c 84       		.byte	0x84
 1691 068d 00       		.byte	0
 1692 068e 13       		.uleb128 0x13
 1693 068f 76090000 		.4byte	.LASF116
 1694 0693 0A       		.byte	0xa
 1695 0694 2802     		.2byte	0x228
 1696 0696 FF040000 		.4byte	0x4ff
 1697 069a 12       		.uleb128 0x12
 1698 069b 24       		.byte	0x24
 1699 069c 0A       		.byte	0xa
 1700 069d 7B02     		.2byte	0x27b
 1701 069f 17070000 		.4byte	0x717
 1702 06a3 07       		.uleb128 0x7
 1703 06a4 43523100 		.ascii	"CR1\000"
 1704 06a8 0A       		.byte	0xa
ARM GAS  /var/folders/m4/4md61f0s1_g0rzfghffqnxvr0000gn/T//ccHfRd1a.s 			page 31


 1705 06a9 7D02     		.2byte	0x27d
 1706 06ab 87040000 		.4byte	0x487
 1707 06af 00       		.byte	0
 1708 06b0 07       		.uleb128 0x7
 1709 06b1 43523200 		.ascii	"CR2\000"
 1710 06b5 0A       		.byte	0xa
 1711 06b6 7E02     		.2byte	0x27e
 1712 06b8 87040000 		.4byte	0x487
 1713 06bc 04       		.byte	0x4
 1714 06bd 07       		.uleb128 0x7
 1715 06be 535200   		.ascii	"SR\000"
 1716 06c1 0A       		.byte	0xa
 1717 06c2 7F02     		.2byte	0x27f
 1718 06c4 87040000 		.4byte	0x487
 1719 06c8 08       		.byte	0x8
 1720 06c9 07       		.uleb128 0x7
 1721 06ca 445200   		.ascii	"DR\000"
 1722 06cd 0A       		.byte	0xa
 1723 06ce 8002     		.2byte	0x280
 1724 06d0 87040000 		.4byte	0x487
 1725 06d4 0C       		.byte	0xc
 1726 06d5 08       		.uleb128 0x8
 1727 06d6 E0080000 		.4byte	.LASF117
 1728 06da 0A       		.byte	0xa
 1729 06db 8102     		.2byte	0x281
 1730 06dd 87040000 		.4byte	0x487
 1731 06e1 10       		.byte	0x10
 1732 06e2 08       		.uleb128 0x8
 1733 06e3 B6060000 		.4byte	.LASF118
 1734 06e7 0A       		.byte	0xa
 1735 06e8 8202     		.2byte	0x282
 1736 06ea 87040000 		.4byte	0x487
 1737 06ee 14       		.byte	0x14
 1738 06ef 08       		.uleb128 0x8
 1739 06f0 BF080000 		.4byte	.LASF119
 1740 06f4 0A       		.byte	0xa
 1741 06f5 8302     		.2byte	0x283
 1742 06f7 87040000 		.4byte	0x487
 1743 06fb 18       		.byte	0x18
 1744 06fc 08       		.uleb128 0x8
 1745 06fd 3A020000 		.4byte	.LASF120
 1746 0701 0A       		.byte	0xa
 1747 0702 8402     		.2byte	0x284
 1748 0704 87040000 		.4byte	0x487
 1749 0708 1C       		.byte	0x1c
 1750 0709 08       		.uleb128 0x8
 1751 070a 0A0A0000 		.4byte	.LASF121
 1752 070e 0A       		.byte	0xa
 1753 070f 8502     		.2byte	0x285
 1754 0711 87040000 		.4byte	0x487
 1755 0715 20       		.byte	0x20
 1756 0716 00       		.byte	0
 1757 0717 13       		.uleb128 0x13
 1758 0718 C6080000 		.4byte	.LASF122
 1759 071c 0A       		.byte	0xa
 1760 071d 8602     		.2byte	0x286
 1761 071f 9A060000 		.4byte	0x69a
ARM GAS  /var/folders/m4/4md61f0s1_g0rzfghffqnxvr0000gn/T//ccHfRd1a.s 			page 32


 1762 0723 03       		.uleb128 0x3
 1763 0724 FE020000 		.4byte	.LASF123
 1764 0728 0B       		.byte	0xb
 1765 0729 65       		.byte	0x65
 1766 072a 4A030000 		.4byte	0x34a
 1767 072e 03       		.uleb128 0x3
 1768 072f 91040000 		.4byte	.LASF124
 1769 0733 0B       		.byte	0xb
 1770 0734 6D       		.byte	0x6d
 1771 0735 D9000000 		.4byte	0xd9
 1772 0739 05       		.uleb128 0x5
 1773 073a 43030000 		.4byte	.LASF125
 1774 073e 04       		.byte	0x4
 1775 073f 0B       		.byte	0xb
 1776 0740 89       		.byte	0x89
 1777 0741 52070000 		.4byte	0x752
 1778 0745 14       		.uleb128 0x14
 1779 0746 72313300 		.ascii	"r13\000"
 1780 074a 0B       		.byte	0xb
 1781 074b 8A       		.byte	0x8a
 1782 074c 9C080000 		.4byte	0x89c
 1783 0750 00       		.byte	0
 1784 0751 00       		.byte	0
 1785 0752 05       		.uleb128 0x5
 1786 0753 B4070000 		.4byte	.LASF126
 1787 0757 64       		.byte	0x64
 1788 0758 0C       		.byte	0xc
 1789 0759 FD       		.byte	0xfd
 1790 075a 9C080000 		.4byte	0x89c
 1791 075e 14       		.uleb128 0x14
 1792 075f 73313600 		.ascii	"s16\000"
 1793 0763 0C       		.byte	0xc
 1794 0764 FF       		.byte	0xff
 1795 0765 23070000 		.4byte	0x723
 1796 0769 00       		.byte	0
 1797 076a 07       		.uleb128 0x7
 1798 076b 73313700 		.ascii	"s17\000"
 1799 076f 0C       		.byte	0xc
 1800 0770 0001     		.2byte	0x100
 1801 0772 23070000 		.4byte	0x723
 1802 0776 04       		.byte	0x4
 1803 0777 07       		.uleb128 0x7
 1804 0778 73313800 		.ascii	"s18\000"
 1805 077c 0C       		.byte	0xc
 1806 077d 0101     		.2byte	0x101
 1807 077f 23070000 		.4byte	0x723
 1808 0783 08       		.byte	0x8
 1809 0784 07       		.uleb128 0x7
 1810 0785 73313900 		.ascii	"s19\000"
 1811 0789 0C       		.byte	0xc
 1812 078a 0201     		.2byte	0x102
 1813 078c 23070000 		.4byte	0x723
 1814 0790 0C       		.byte	0xc
 1815 0791 07       		.uleb128 0x7
 1816 0792 73323000 		.ascii	"s20\000"
 1817 0796 0C       		.byte	0xc
 1818 0797 0301     		.2byte	0x103
ARM GAS  /var/folders/m4/4md61f0s1_g0rzfghffqnxvr0000gn/T//ccHfRd1a.s 			page 33


 1819 0799 23070000 		.4byte	0x723
 1820 079d 10       		.byte	0x10
 1821 079e 07       		.uleb128 0x7
 1822 079f 73323100 		.ascii	"s21\000"
 1823 07a3 0C       		.byte	0xc
 1824 07a4 0401     		.2byte	0x104
 1825 07a6 23070000 		.4byte	0x723
 1826 07aa 14       		.byte	0x14
 1827 07ab 07       		.uleb128 0x7
 1828 07ac 73323200 		.ascii	"s22\000"
 1829 07b0 0C       		.byte	0xc
 1830 07b1 0501     		.2byte	0x105
 1831 07b3 23070000 		.4byte	0x723
 1832 07b7 18       		.byte	0x18
 1833 07b8 07       		.uleb128 0x7
 1834 07b9 73323300 		.ascii	"s23\000"
 1835 07bd 0C       		.byte	0xc
 1836 07be 0601     		.2byte	0x106
 1837 07c0 23070000 		.4byte	0x723
 1838 07c4 1C       		.byte	0x1c
 1839 07c5 07       		.uleb128 0x7
 1840 07c6 73323400 		.ascii	"s24\000"
 1841 07ca 0C       		.byte	0xc
 1842 07cb 0701     		.2byte	0x107
 1843 07cd 23070000 		.4byte	0x723
 1844 07d1 20       		.byte	0x20
 1845 07d2 07       		.uleb128 0x7
 1846 07d3 73323500 		.ascii	"s25\000"
 1847 07d7 0C       		.byte	0xc
 1848 07d8 0801     		.2byte	0x108
 1849 07da 23070000 		.4byte	0x723
 1850 07de 24       		.byte	0x24
 1851 07df 07       		.uleb128 0x7
 1852 07e0 73323600 		.ascii	"s26\000"
 1853 07e4 0C       		.byte	0xc
 1854 07e5 0901     		.2byte	0x109
 1855 07e7 23070000 		.4byte	0x723
 1856 07eb 28       		.byte	0x28
 1857 07ec 07       		.uleb128 0x7
 1858 07ed 73323700 		.ascii	"s27\000"
 1859 07f1 0C       		.byte	0xc
 1860 07f2 0A01     		.2byte	0x10a
 1861 07f4 23070000 		.4byte	0x723
 1862 07f8 2C       		.byte	0x2c
 1863 07f9 07       		.uleb128 0x7
 1864 07fa 73323800 		.ascii	"s28\000"
 1865 07fe 0C       		.byte	0xc
 1866 07ff 0B01     		.2byte	0x10b
 1867 0801 23070000 		.4byte	0x723
 1868 0805 30       		.byte	0x30
 1869 0806 07       		.uleb128 0x7
 1870 0807 73323900 		.ascii	"s29\000"
 1871 080b 0C       		.byte	0xc
 1872 080c 0C01     		.2byte	0x10c
 1873 080e 23070000 		.4byte	0x723
 1874 0812 34       		.byte	0x34
 1875 0813 07       		.uleb128 0x7
ARM GAS  /var/folders/m4/4md61f0s1_g0rzfghffqnxvr0000gn/T//ccHfRd1a.s 			page 34


 1876 0814 73333000 		.ascii	"s30\000"
 1877 0818 0C       		.byte	0xc
 1878 0819 0D01     		.2byte	0x10d
 1879 081b 23070000 		.4byte	0x723
 1880 081f 38       		.byte	0x38
 1881 0820 07       		.uleb128 0x7
 1882 0821 73333100 		.ascii	"s31\000"
 1883 0825 0C       		.byte	0xc
 1884 0826 0E01     		.2byte	0x10e
 1885 0828 23070000 		.4byte	0x723
 1886 082c 3C       		.byte	0x3c
 1887 082d 07       		.uleb128 0x7
 1888 082e 723400   		.ascii	"r4\000"
 1889 0831 0C       		.byte	0xc
 1890 0832 1001     		.2byte	0x110
 1891 0834 23070000 		.4byte	0x723
 1892 0838 40       		.byte	0x40
 1893 0839 07       		.uleb128 0x7
 1894 083a 723500   		.ascii	"r5\000"
 1895 083d 0C       		.byte	0xc
 1896 083e 1101     		.2byte	0x111
 1897 0840 23070000 		.4byte	0x723
 1898 0844 44       		.byte	0x44
 1899 0845 07       		.uleb128 0x7
 1900 0846 723600   		.ascii	"r6\000"
 1901 0849 0C       		.byte	0xc
 1902 084a 1201     		.2byte	0x112
 1903 084c 23070000 		.4byte	0x723
 1904 0850 48       		.byte	0x48
 1905 0851 07       		.uleb128 0x7
 1906 0852 723700   		.ascii	"r7\000"
 1907 0855 0C       		.byte	0xc
 1908 0856 1301     		.2byte	0x113
 1909 0858 23070000 		.4byte	0x723
 1910 085c 4C       		.byte	0x4c
 1911 085d 07       		.uleb128 0x7
 1912 085e 723800   		.ascii	"r8\000"
 1913 0861 0C       		.byte	0xc
 1914 0862 1401     		.2byte	0x114
 1915 0864 23070000 		.4byte	0x723
 1916 0868 50       		.byte	0x50
 1917 0869 07       		.uleb128 0x7
 1918 086a 723900   		.ascii	"r9\000"
 1919 086d 0C       		.byte	0xc
 1920 086e 1501     		.2byte	0x115
 1921 0870 23070000 		.4byte	0x723
 1922 0874 54       		.byte	0x54
 1923 0875 07       		.uleb128 0x7
 1924 0876 72313000 		.ascii	"r10\000"
 1925 087a 0C       		.byte	0xc
 1926 087b 1601     		.2byte	0x116
 1927 087d 23070000 		.4byte	0x723
 1928 0881 58       		.byte	0x58
 1929 0882 07       		.uleb128 0x7
 1930 0883 72313100 		.ascii	"r11\000"
 1931 0887 0C       		.byte	0xc
 1932 0888 1701     		.2byte	0x117
ARM GAS  /var/folders/m4/4md61f0s1_g0rzfghffqnxvr0000gn/T//ccHfRd1a.s 			page 35


 1933 088a 23070000 		.4byte	0x723
 1934 088e 5C       		.byte	0x5c
 1935 088f 07       		.uleb128 0x7
 1936 0890 6C7200   		.ascii	"lr\000"
 1937 0893 0C       		.byte	0xc
 1938 0894 1801     		.2byte	0x118
 1939 0896 23070000 		.4byte	0x723
 1940 089a 60       		.byte	0x60
 1941 089b 00       		.byte	0
 1942 089c 09       		.uleb128 0x9
 1943 089d 04       		.byte	0x4
 1944 089e 52070000 		.4byte	0x752
 1945 08a2 15       		.uleb128 0x15
 1946 08a3 04       		.byte	0x4
 1947 08a4 0D       		.byte	0xd
 1948 08a5 38       		.byte	0x38
 1949 08a6 B7080000 		.4byte	0x8b7
 1950 08aa 06       		.uleb128 0x6
 1951 08ab 4B070000 		.4byte	.LASF127
 1952 08af 0D       		.byte	0xd
 1953 08b0 3C       		.byte	0x3c
 1954 08b1 E4000000 		.4byte	0xe4
 1955 08b5 00       		.byte	0
 1956 08b6 00       		.byte	0
 1957 08b7 03       		.uleb128 0x3
 1958 08b8 3E090000 		.4byte	.LASF128
 1959 08bc 0D       		.byte	0xd
 1960 08bd 3D       		.byte	0x3d
 1961 08be A2080000 		.4byte	0x8a2
 1962 08c2 16       		.uleb128 0x16
 1963 08c3 04       		.byte	0x4
 1964 08c4 09       		.byte	0x9
 1965 08c5 FA       		.byte	0xfa
 1966 08c6 1F090000 		.4byte	0x91f
 1967 08ca 17       		.uleb128 0x17
 1968 08cb 1D0A0000 		.4byte	.LASF129
 1969 08cf 09       		.byte	0x9
 1970 08d0 0101     		.2byte	0x101
 1971 08d2 26010000 		.4byte	0x126
 1972 08d6 17       		.uleb128 0x17
 1973 08d7 31020000 		.4byte	.LASF130
 1974 08db 09       		.byte	0x9
 1975 08dc 0801     		.2byte	0x108
 1976 08de 26010000 		.4byte	0x126
 1977 08e2 17       		.uleb128 0x17
 1978 08e3 6F040000 		.4byte	.LASF131
 1979 08e7 09       		.byte	0x9
 1980 08e8 0F01     		.2byte	0x10f
 1981 08ea 4A030000 		.4byte	0x34a
 1982 08ee 17       		.uleb128 0x17
 1983 08ef 59030000 		.4byte	.LASF132
 1984 08f3 09       		.byte	0x9
 1985 08f4 1601     		.2byte	0x116
 1986 08f6 1F090000 		.4byte	0x91f
 1987 08fa 17       		.uleb128 0x17
 1988 08fb 28000000 		.4byte	.LASF133
 1989 08ff 09       		.byte	0x9
ARM GAS  /var/folders/m4/4md61f0s1_g0rzfghffqnxvr0000gn/T//ccHfRd1a.s 			page 36


 1990 0900 1E01     		.2byte	0x11e
 1991 0902 4A090000 		.4byte	0x94a
 1992 0906 17       		.uleb128 0x17
 1993 0907 2E050000 		.4byte	.LASF134
 1994 090b 09       		.byte	0x9
 1995 090c 2701     		.2byte	0x127
 1996 090e 81090000 		.4byte	0x981
 1997 0912 17       		.uleb128 0x17
 1998 0913 4C020000 		.4byte	.LASF135
 1999 0917 09       		.byte	0x9
 2000 0918 2F01     		.2byte	0x12f
 2001 091a 31010000 		.4byte	0x131
 2002 091e 00       		.byte	0
 2003 091f 09       		.uleb128 0x9
 2004 0920 04       		.byte	0x4
 2005 0921 62020000 		.4byte	0x262
 2006 0925 05       		.uleb128 0x5
 2007 0926 91050000 		.4byte	.LASF136
 2008 092a 0C       		.byte	0xc
 2009 092b 0E       		.byte	0xe
 2010 092c 34       		.byte	0x34
 2011 092d 4A090000 		.4byte	0x94a
 2012 0931 06       		.uleb128 0x6
 2013 0932 6E090000 		.4byte	.LASF137
 2014 0936 0E       		.byte	0xe
 2015 0937 35       		.byte	0x35
 2016 0938 97020000 		.4byte	0x297
 2017 093c 00       		.byte	0
 2018 093d 06       		.uleb128 0x6
 2019 093e 0C080000 		.4byte	.LASF138
 2020 0942 0E       		.byte	0xe
 2021 0943 37       		.byte	0x37
 2022 0944 3C010000 		.4byte	0x13c
 2023 0948 08       		.byte	0x8
 2024 0949 00       		.byte	0
 2025 094a 09       		.uleb128 0x9
 2026 094b 04       		.byte	0x4
 2027 094c 25090000 		.4byte	0x925
 2028 0950 05       		.uleb128 0x5
 2029 0951 95090000 		.4byte	.LASF139
 2030 0955 10       		.byte	0x10
 2031 0956 0F       		.byte	0xf
 2032 0957 39       		.byte	0x39
 2033 0958 81090000 		.4byte	0x981
 2034 095c 06       		.uleb128 0x6
 2035 095d 53060000 		.4byte	.LASF140
 2036 0961 0F       		.byte	0xf
 2037 0962 3A       		.byte	0x3a
 2038 0963 97020000 		.4byte	0x297
 2039 0967 00       		.byte	0
 2040 0968 06       		.uleb128 0x6
 2041 0969 1B020000 		.4byte	.LASF141
 2042 096d 0F       		.byte	0xf
 2043 096e 3C       		.byte	0x3c
 2044 096f 6D020000 		.4byte	0x26d
 2045 0973 08       		.byte	0x8
 2046 0974 06       		.uleb128 0x6
ARM GAS  /var/folders/m4/4md61f0s1_g0rzfghffqnxvr0000gn/T//ccHfRd1a.s 			page 37


 2047 0975 6F0A0000 		.4byte	.LASF142
 2048 0979 0F       		.byte	0xf
 2049 097a 3E       		.byte	0x3e
 2050 097b C4090000 		.4byte	0x9c4
 2051 097f 0C       		.byte	0xc
 2052 0980 00       		.byte	0
 2053 0981 09       		.uleb128 0x9
 2054 0982 04       		.byte	0x4
 2055 0983 50090000 		.4byte	0x950
 2056 0987 09       		.uleb128 0x9
 2057 0988 04       		.byte	0x4
 2058 0989 94090000 		.4byte	0x994
 2059 098d 04       		.uleb128 0x4
 2060 098e 01       		.byte	0x1
 2061 098f 08       		.byte	0x8
 2062 0990 1B040000 		.4byte	.LASF143
 2063 0994 18       		.uleb128 0x18
 2064 0995 8D090000 		.4byte	0x98d
 2065 0999 0F       		.uleb128 0xf
 2066 099a 47010000 		.4byte	0x147
 2067 099e 09       		.uleb128 0x9
 2068 099f 04       		.byte	0x4
 2069 09a0 4C030000 		.4byte	0x34c
 2070 09a4 0F       		.uleb128 0xf
 2071 09a5 87090000 		.4byte	0x987
 2072 09a9 10       		.uleb128 0x10
 2073 09aa 2E070000 		.4byte	0x72e
 2074 09ae B9090000 		.4byte	0x9b9
 2075 09b2 11       		.uleb128 0x11
 2076 09b3 80040000 		.4byte	0x480
 2077 09b7 3A       		.byte	0x3a
 2078 09b8 00       		.byte	0
 2079 09b9 03       		.uleb128 0x3
 2080 09ba D8090000 		.4byte	.LASF144
 2081 09be 0F       		.byte	0xf
 2082 09bf 34       		.byte	0x34
 2083 09c0 50090000 		.4byte	0x950
 2084 09c4 09       		.uleb128 0x9
 2085 09c5 04       		.byte	0x4
 2086 09c6 B9090000 		.4byte	0x9b9
 2087 09ca 12       		.uleb128 0x12
 2088 09cb 0C       		.byte	0xc
 2089 09cc 10       		.byte	0x10
 2090 09cd 6D01     		.2byte	0x16d
 2091 09cf 150A0000 		.4byte	0xa15
 2092 09d3 08       		.uleb128 0x8
 2093 09d4 9C040000 		.4byte	.LASF145
 2094 09d8 10       		.byte	0x10
 2095 09d9 6E01     		.2byte	0x16e
 2096 09db 150A0000 		.4byte	0xa15
 2097 09df 00       		.byte	0
 2098 09e0 08       		.uleb128 0x8
 2099 09e1 5D0A0000 		.4byte	.LASF146
 2100 09e5 10       		.byte	0x10
 2101 09e6 6F01     		.2byte	0x16f
 2102 09e8 1B0A0000 		.4byte	0xa1b
 2103 09ec 04       		.byte	0x4
ARM GAS  /var/folders/m4/4md61f0s1_g0rzfghffqnxvr0000gn/T//ccHfRd1a.s 			page 38


 2104 09ed 08       		.uleb128 0x8
 2105 09ee 20040000 		.4byte	.LASF147
 2106 09f2 10       		.byte	0x10
 2107 09f3 7001     		.2byte	0x170
 2108 09f5 AD000000 		.4byte	0xad
 2109 09f9 08       		.byte	0x8
 2110 09fa 08       		.uleb128 0x8
 2111 09fb 12080000 		.4byte	.LASF148
 2112 09ff 10       		.byte	0x10
 2113 0a00 7201     		.2byte	0x172
 2114 0a02 AD000000 		.4byte	0xad
 2115 0a06 09       		.byte	0x9
 2116 0a07 08       		.uleb128 0x8
 2117 0a08 86080000 		.4byte	.LASF149
 2118 0a0c 10       		.byte	0x10
 2119 0a0d 7301     		.2byte	0x173
 2120 0a0f AD000000 		.4byte	0xad
 2121 0a13 0A       		.byte	0xa
 2122 0a14 00       		.byte	0
 2123 0a15 09       		.uleb128 0x9
 2124 0a16 04       		.byte	0x4
 2125 0a17 F3040000 		.4byte	0x4f3
 2126 0a1b 09       		.uleb128 0x9
 2127 0a1c 04       		.byte	0x4
 2128 0a1d 87040000 		.4byte	0x487
 2129 0a21 13       		.uleb128 0x13
 2130 0a22 05000000 		.4byte	.LASF150
 2131 0a26 10       		.byte	0x10
 2132 0a27 7401     		.2byte	0x174
 2133 0a29 CA090000 		.4byte	0x9ca
 2134 0a2d 13       		.uleb128 0x13
 2135 0a2e 35070000 		.4byte	.LASF151
 2136 0a32 10       		.byte	0x10
 2137 0a33 7D01     		.2byte	0x17d
 2138 0a35 390A0000 		.4byte	0xa39
 2139 0a39 09       		.uleb128 0x9
 2140 0a3a 04       		.byte	0x4
 2141 0a3b 3F0A0000 		.4byte	0xa3f
 2142 0a3f 0B       		.uleb128 0xb
 2143 0a40 4F0A0000 		.4byte	0xa4f
 2144 0a44 0C       		.uleb128 0xc
 2145 0a45 4A030000 		.4byte	0x34a
 2146 0a49 0C       		.uleb128 0xc
 2147 0a4a CE000000 		.4byte	0xce
 2148 0a4e 00       		.byte	0
 2149 0a4f 04       		.uleb128 0x4
 2150 0a50 01       		.byte	0x1
 2151 0a51 02       		.byte	0x2
 2152 0a52 05040000 		.4byte	.LASF152
 2153 0a56 15       		.uleb128 0x15
 2154 0a57 04       		.byte	0x4
 2155 0a58 11       		.byte	0x11
 2156 0a59 E7       		.byte	0xe7
 2157 0a5a 770A0000 		.4byte	0xa77
 2158 0a5e 14       		.uleb128 0x14
 2159 0a5f 73657400 		.ascii	"set\000"
 2160 0a63 11       		.byte	0x11
ARM GAS  /var/folders/m4/4md61f0s1_g0rzfghffqnxvr0000gn/T//ccHfRd1a.s 			page 39


 2161 0a64 E8       		.byte	0xe8
 2162 0a65 B8000000 		.4byte	0xb8
 2163 0a69 00       		.byte	0
 2164 0a6a 06       		.uleb128 0x6
 2165 0a6b 54050000 		.4byte	.LASF153
 2166 0a6f 11       		.byte	0x11
 2167 0a70 E9       		.byte	0xe9
 2168 0a71 B8000000 		.4byte	0xb8
 2169 0a75 02       		.byte	0x2
 2170 0a76 00       		.byte	0
 2171 0a77 16       		.uleb128 0x16
 2172 0a78 04       		.byte	0x4
 2173 0a79 11       		.byte	0x11
 2174 0a7a E5       		.byte	0xe5
 2175 0a7b 920A0000 		.4byte	0xa92
 2176 0a7f 19       		.uleb128 0x19
 2177 0a80 5700     		.ascii	"W\000"
 2178 0a82 11       		.byte	0x11
 2179 0a83 E6       		.byte	0xe6
 2180 0a84 CE000000 		.4byte	0xce
 2181 0a88 19       		.uleb128 0x19
 2182 0a89 4800     		.ascii	"H\000"
 2183 0a8b 11       		.byte	0x11
 2184 0a8c EA       		.byte	0xea
 2185 0a8d 560A0000 		.4byte	0xa56
 2186 0a91 00       		.byte	0
 2187 0a92 15       		.uleb128 0x15
 2188 0a93 2C       		.byte	0x2c
 2189 0a94 11       		.byte	0x11
 2190 0a95 DD       		.byte	0xdd
 2191 0a96 1F0B0000 		.4byte	0xb1f
 2192 0a9a 06       		.uleb128 0x6
 2193 0a9b E6060000 		.4byte	.LASF154
 2194 0a9f 11       		.byte	0x11
 2195 0aa0 DF       		.byte	0xdf
 2196 0aa1 87040000 		.4byte	0x487
 2197 0aa5 00       		.byte	0
 2198 0aa6 06       		.uleb128 0x6
 2199 0aa7 B8080000 		.4byte	.LASF155
 2200 0aab 11       		.byte	0x11
 2201 0aac E0       		.byte	0xe0
 2202 0aad 87040000 		.4byte	0x487
 2203 0ab1 04       		.byte	0x4
 2204 0ab2 06       		.uleb128 0x6
 2205 0ab3 14060000 		.4byte	.LASF156
 2206 0ab7 11       		.byte	0x11
 2207 0ab8 E1       		.byte	0xe1
 2208 0ab9 87040000 		.4byte	0x487
 2209 0abd 08       		.byte	0x8
 2210 0abe 06       		.uleb128 0x6
 2211 0abf 65020000 		.4byte	.LASF157
 2212 0ac3 11       		.byte	0x11
 2213 0ac4 E2       		.byte	0xe2
 2214 0ac5 87040000 		.4byte	0x487
 2215 0ac9 0C       		.byte	0xc
 2216 0aca 14       		.uleb128 0x14
 2217 0acb 49445200 		.ascii	"IDR\000"
ARM GAS  /var/folders/m4/4md61f0s1_g0rzfghffqnxvr0000gn/T//ccHfRd1a.s 			page 40


 2218 0acf 11       		.byte	0x11
 2219 0ad0 E3       		.byte	0xe3
 2220 0ad1 87040000 		.4byte	0x487
 2221 0ad5 10       		.byte	0x10
 2222 0ad6 14       		.uleb128 0x14
 2223 0ad7 4F445200 		.ascii	"ODR\000"
 2224 0adb 11       		.byte	0x11
 2225 0adc E4       		.byte	0xe4
 2226 0add 87040000 		.4byte	0x487
 2227 0ae1 14       		.byte	0x14
 2228 0ae2 06       		.uleb128 0x6
 2229 0ae3 C2090000 		.4byte	.LASF158
 2230 0ae7 11       		.byte	0x11
 2231 0ae8 EB       		.byte	0xeb
 2232 0ae9 1F0B0000 		.4byte	0xb1f
 2233 0aed 18       		.byte	0x18
 2234 0aee 06       		.uleb128 0x6
 2235 0aef EE050000 		.4byte	.LASF159
 2236 0af3 11       		.byte	0x11
 2237 0af4 EC       		.byte	0xec
 2238 0af5 87040000 		.4byte	0x487
 2239 0af9 1C       		.byte	0x1c
 2240 0afa 06       		.uleb128 0x6
 2241 0afb 7A080000 		.4byte	.LASF160
 2242 0aff 11       		.byte	0x11
 2243 0b00 ED       		.byte	0xed
 2244 0b01 87040000 		.4byte	0x487
 2245 0b05 20       		.byte	0x20
 2246 0b06 06       		.uleb128 0x6
 2247 0b07 75080000 		.4byte	.LASF161
 2248 0b0b 11       		.byte	0x11
 2249 0b0c EE       		.byte	0xee
 2250 0b0d 87040000 		.4byte	0x487
 2251 0b11 24       		.byte	0x24
 2252 0b12 14       		.uleb128 0x14
 2253 0b13 42525200 		.ascii	"BRR\000"
 2254 0b17 11       		.byte	0x11
 2255 0b18 EF       		.byte	0xef
 2256 0b19 87040000 		.4byte	0x487
 2257 0b1d 28       		.byte	0x28
 2258 0b1e 00       		.byte	0
 2259 0b1f 0F       		.uleb128 0xf
 2260 0b20 770A0000 		.4byte	0xa77
 2261 0b24 03       		.uleb128 0x3
 2262 0b25 BC030000 		.4byte	.LASF162
 2263 0b29 11       		.byte	0x11
 2264 0b2a F0       		.byte	0xf0
 2265 0b2b 920A0000 		.4byte	0xa92
 2266 0b2f 13       		.uleb128 0x13
 2267 0b30 D9040000 		.4byte	.LASF163
 2268 0b34 11       		.byte	0x11
 2269 0b35 3F01     		.2byte	0x13f
 2270 0b37 CE000000 		.4byte	0xce
 2271 0b3b 13       		.uleb128 0x13
 2272 0b3c CA020000 		.4byte	.LASF164
 2273 0b40 11       		.byte	0x11
 2274 0b41 5101     		.2byte	0x151
ARM GAS  /var/folders/m4/4md61f0s1_g0rzfghffqnxvr0000gn/T//ccHfRd1a.s 			page 41


 2275 0b43 470B0000 		.4byte	0xb47
 2276 0b47 09       		.uleb128 0x9
 2277 0b48 04       		.byte	0x4
 2278 0b49 240B0000 		.4byte	0xb24
 2279 0b4d 09       		.uleb128 0x9
 2280 0b4e 04       		.byte	0x4
 2281 0b4f 530B0000 		.4byte	0xb53
 2282 0b53 18       		.uleb128 0x18
 2283 0b54 210A0000 		.4byte	0xa21
 2284 0b58 1A       		.uleb128 0x1a
 2285 0b59 01       		.byte	0x1
 2286 0b5a 50000000 		.4byte	0x50
 2287 0b5e 12       		.byte	0x12
 2288 0b5f 46       		.byte	0x46
 2289 0b60 830B0000 		.4byte	0xb83
 2290 0b64 1B       		.uleb128 0x1b
 2291 0b65 85020000 		.4byte	.LASF165
 2292 0b69 00       		.byte	0
 2293 0b6a 1B       		.uleb128 0x1b
 2294 0b6b 73020000 		.4byte	.LASF166
 2295 0b6f 01       		.byte	0x1
 2296 0b70 1B       		.uleb128 0x1b
 2297 0b71 3B060000 		.4byte	.LASF167
 2298 0b75 02       		.byte	0x2
 2299 0b76 1B       		.uleb128 0x1b
 2300 0b77 1A070000 		.4byte	.LASF168
 2301 0b7b 03       		.byte	0x3
 2302 0b7c 1B       		.uleb128 0x1b
 2303 0b7d 100A0000 		.4byte	.LASF169
 2304 0b81 04       		.byte	0x4
 2305 0b82 00       		.byte	0
 2306 0b83 03       		.uleb128 0x3
 2307 0b84 430A0000 		.4byte	.LASF170
 2308 0b88 12       		.byte	0x12
 2309 0b89 4C       		.byte	0x4c
 2310 0b8a 580B0000 		.4byte	0xb58
 2311 0b8e 13       		.uleb128 0x13
 2312 0b8f 52040000 		.4byte	.LASF171
 2313 0b93 13       		.byte	0x13
 2314 0b94 9601     		.2byte	0x196
 2315 0b96 9A0B0000 		.4byte	0xb9a
 2316 0b9a 0A       		.uleb128 0xa
 2317 0b9b 52040000 		.4byte	.LASF171
 2318 0b9f 30       		.byte	0x30
 2319 0ba0 13       		.byte	0x13
 2320 0ba1 BA01     		.2byte	0x1ba
 2321 0ba3 1D0C0000 		.4byte	0xc1d
 2322 0ba7 08       		.uleb128 0x8
 2323 0ba8 CE010000 		.4byte	.LASF172
 2324 0bac 13       		.byte	0x13
 2325 0bad BE01     		.2byte	0x1be
 2326 0baf 830B0000 		.4byte	0xb83
 2327 0bb3 00       		.byte	0
 2328 0bb4 08       		.uleb128 0x8
 2329 0bb5 C7010000 		.4byte	.LASF173
 2330 0bb9 13       		.byte	0x13
 2331 0bba C201     		.2byte	0x1c2
ARM GAS  /var/folders/m4/4md61f0s1_g0rzfghffqnxvr0000gn/T//ccHfRd1a.s 			page 42


 2332 0bbc 8A0C0000 		.4byte	0xc8a
 2333 0bc0 04       		.byte	0x4
 2334 0bc1 08       		.uleb128 0x8
 2335 0bc2 58090000 		.4byte	.LASF174
 2336 0bc6 13       		.byte	0x13
 2337 0bc7 C701     		.2byte	0x1c7
 2338 0bc9 62020000 		.4byte	0x262
 2339 0bcd 08       		.byte	0x8
 2340 0bce 08       		.uleb128 0x8
 2341 0bcf 93060000 		.4byte	.LASF175
 2342 0bd3 13       		.byte	0x13
 2343 0bd4 CD01     		.2byte	0x1cd
 2344 0bd6 B9090000 		.4byte	0x9b9
 2345 0bda 0C       		.byte	0xc
 2346 0bdb 07       		.uleb128 0x7
 2347 0bdc 73706900 		.ascii	"spi\000"
 2348 0be0 13       		.byte	0x13
 2349 0be1 D601     		.2byte	0x1d6
 2350 0be3 950C0000 		.4byte	0xc95
 2351 0be7 1C       		.byte	0x1c
 2352 0be8 08       		.uleb128 0x8
 2353 0be9 2A060000 		.4byte	.LASF176
 2354 0bed 13       		.byte	0x13
 2355 0bee DA01     		.2byte	0x1da
 2356 0bf0 4D0B0000 		.4byte	0xb4d
 2357 0bf4 20       		.byte	0x20
 2358 0bf5 08       		.uleb128 0x8
 2359 0bf6 E0060000 		.4byte	.LASF177
 2360 0bfa 13       		.byte	0x13
 2361 0bfb DE01     		.2byte	0x1de
 2362 0bfd 4D0B0000 		.4byte	0xb4d
 2363 0c01 24       		.byte	0x24
 2364 0c02 08       		.uleb128 0x8
 2365 0c03 BD060000 		.4byte	.LASF178
 2366 0c07 13       		.byte	0x13
 2367 0c08 E201     		.2byte	0x1e2
 2368 0c0a CE000000 		.4byte	0xce
 2369 0c0e 28       		.byte	0x28
 2370 0c0f 08       		.uleb128 0x8
 2371 0c10 760A0000 		.4byte	.LASF179
 2372 0c14 13       		.byte	0x13
 2373 0c15 E601     		.2byte	0x1e6
 2374 0c17 CE000000 		.4byte	0xce
 2375 0c1b 2C       		.byte	0x2c
 2376 0c1c 00       		.byte	0
 2377 0c1d 13       		.uleb128 0x13
 2378 0c1e C9030000 		.4byte	.LASF180
 2379 0c22 13       		.byte	0x13
 2380 0c23 9E01     		.2byte	0x19e
 2381 0c25 290C0000 		.4byte	0xc29
 2382 0c29 09       		.uleb128 0x9
 2383 0c2a 04       		.byte	0x4
 2384 0c2b 2F0C0000 		.4byte	0xc2f
 2385 0c2f 0B       		.uleb128 0xb
 2386 0c30 3A0C0000 		.4byte	0xc3a
 2387 0c34 0C       		.uleb128 0xc
 2388 0c35 3A0C0000 		.4byte	0xc3a
ARM GAS  /var/folders/m4/4md61f0s1_g0rzfghffqnxvr0000gn/T//ccHfRd1a.s 			page 43


 2389 0c39 00       		.byte	0
 2390 0c3a 09       		.uleb128 0x9
 2391 0c3b 04       		.byte	0x4
 2392 0c3c 8E0B0000 		.4byte	0xb8e
 2393 0c40 12       		.uleb128 0x12
 2394 0c41 0C       		.byte	0xc
 2395 0c42 13       		.byte	0x13
 2396 0c43 A301     		.2byte	0x1a3
 2397 0c45 7E0C0000 		.4byte	0xc7e
 2398 0c49 08       		.uleb128 0x8
 2399 0c4a 2A020000 		.4byte	.LASF181
 2400 0c4e 13       		.byte	0x13
 2401 0c4f A701     		.2byte	0x1a7
 2402 0c51 1D0C0000 		.4byte	0xc1d
 2403 0c55 00       		.byte	0
 2404 0c56 08       		.uleb128 0x8
 2405 0c57 AF010000 		.4byte	.LASF182
 2406 0c5b 13       		.byte	0x13
 2407 0c5c AC01     		.2byte	0x1ac
 2408 0c5e 3B0B0000 		.4byte	0xb3b
 2409 0c62 04       		.byte	0x4
 2410 0c63 08       		.uleb128 0x8
 2411 0c64 620A0000 		.4byte	.LASF183
 2412 0c68 13       		.byte	0x13
 2413 0c69 B001     		.2byte	0x1b0
 2414 0c6b B8000000 		.4byte	0xb8
 2415 0c6f 08       		.byte	0x8
 2416 0c70 07       		.uleb128 0x7
 2417 0c71 63723100 		.ascii	"cr1\000"
 2418 0c75 13       		.byte	0x13
 2419 0c76 B401     		.2byte	0x1b4
 2420 0c78 B8000000 		.4byte	0xb8
 2421 0c7c 0A       		.byte	0xa
 2422 0c7d 00       		.byte	0
 2423 0c7e 13       		.uleb128 0x13
 2424 0c7f 10070000 		.4byte	.LASF184
 2425 0c83 13       		.byte	0x13
 2426 0c84 B501     		.2byte	0x1b5
 2427 0c86 400C0000 		.4byte	0xc40
 2428 0c8a 09       		.uleb128 0x9
 2429 0c8b 04       		.byte	0x4
 2430 0c8c 900C0000 		.4byte	0xc90
 2431 0c90 18       		.uleb128 0x18
 2432 0c91 7E0C0000 		.4byte	0xc7e
 2433 0c95 09       		.uleb128 0x9
 2434 0c96 04       		.byte	0x4
 2435 0c97 17070000 		.4byte	0x717
 2436 0c9b 1C       		.uleb128 0x1c
 2437 0c9c A2080000 		.4byte	.LASF191
 2438 0ca0 03       		.byte	0x3
 2439 0ca1 2202     		.2byte	0x222
 2440 0ca3 03       		.byte	0x3
 2441 0ca4 B50C0000 		.4byte	0xcb5
 2442 0ca8 1D       		.uleb128 0x1d
 2443 0ca9 5B080000 		.4byte	.LASF193
 2444 0cad 03       		.byte	0x3
 2445 0cae 2202     		.2byte	0x222
ARM GAS  /var/folders/m4/4md61f0s1_g0rzfghffqnxvr0000gn/T//ccHfRd1a.s 			page 44


 2446 0cb0 CE000000 		.4byte	0xce
 2447 0cb4 00       		.byte	0
 2448 0cb5 1E       		.uleb128 0x1e
 2449 0cb6 64090000 		.4byte	.LASF185
 2450 0cba 0C       		.byte	0xc
 2451 0cbb C801     		.2byte	0x1c8
 2452 0cbd 03       		.byte	0x3
 2453 0cbe 1E       		.uleb128 0x1e
 2454 0cbf 97020000 		.4byte	.LASF186
 2455 0cc3 0C       		.byte	0xc
 2456 0cc4 E001     		.2byte	0x1e0
 2457 0cc6 03       		.byte	0x3
 2458 0cc7 1E       		.uleb128 0x1e
 2459 0cc8 5B060000 		.4byte	.LASF187
 2460 0ccc 0C       		.byte	0xc
 2461 0ccd EF01     		.2byte	0x1ef
 2462 0ccf 03       		.byte	0x3
 2463 0cd0 1E       		.uleb128 0x1e
 2464 0cd1 CC070000 		.4byte	.LASF188
 2465 0cd5 0C       		.byte	0xc
 2466 0cd6 FA01     		.2byte	0x1fa
 2467 0cd8 03       		.byte	0x3
 2468 0cd9 1E       		.uleb128 0x1e
 2469 0cda B9020000 		.4byte	.LASF189
 2470 0cde 14       		.byte	0x14
 2471 0cdf 8201     		.2byte	0x182
 2472 0ce1 03       		.byte	0x3
 2473 0ce2 1E       		.uleb128 0x1e
 2474 0ce3 5F030000 		.4byte	.LASF190
 2475 0ce7 14       		.byte	0x14
 2476 0ce8 9601     		.2byte	0x196
 2477 0cea 03       		.byte	0x3
 2478 0ceb 1C       		.uleb128 0x1c
 2479 0cec C0070000 		.4byte	.LASF192
 2480 0cf0 02       		.byte	0x2
 2481 0cf1 CC01     		.2byte	0x1cc
 2482 0cf3 03       		.byte	0x3
 2483 0cf4 050D0000 		.4byte	0xd05
 2484 0cf8 1D       		.uleb128 0x1d
 2485 0cf9 7F080000 		.4byte	.LASF194
 2486 0cfd 02       		.byte	0x2
 2487 0cfe CC01     		.2byte	0x1cc
 2488 0d00 87090000 		.4byte	0x987
 2489 0d04 00       		.byte	0
 2490 0d05 1E       		.uleb128 0x1e
 2491 0d06 5F050000 		.4byte	.LASF195
 2492 0d0a 02       		.byte	0x2
 2493 0d0b 0C02     		.2byte	0x20c
 2494 0d0d 03       		.byte	0x3
 2495 0d0e 1C       		.uleb128 0x1c
 2496 0d0f 09020000 		.4byte	.LASF196
 2497 0d13 02       		.byte	0x2
 2498 0d14 D602     		.2byte	0x2d6
 2499 0d16 03       		.byte	0x3
 2500 0d17 340D0000 		.4byte	0xd34
 2501 0d1b 1F       		.uleb128 0x1f
 2502 0d1c 74727000 		.ascii	"trp\000"
ARM GAS  /var/folders/m4/4md61f0s1_g0rzfghffqnxvr0000gn/T//ccHfRd1a.s 			page 45


 2503 0d20 02       		.byte	0x2
 2504 0d21 D602     		.2byte	0x2d6
 2505 0d23 1F090000 		.4byte	0x91f
 2506 0d27 1F       		.uleb128 0x1f
 2507 0d28 6D736700 		.ascii	"msg\000"
 2508 0d2c 02       		.byte	0x2
 2509 0d2d D602     		.2byte	0x2d6
 2510 0d2f 26010000 		.4byte	0x126
 2511 0d33 00       		.byte	0
 2512 0d34 1E       		.uleb128 0x1e
 2513 0d35 E9010000 		.4byte	.LASF197
 2514 0d39 02       		.byte	0x2
 2515 0d3a 0102     		.2byte	0x201
 2516 0d3c 03       		.byte	0x3
 2517 0d3d 20       		.uleb128 0x20
 2518 0d3e 76040000 		.4byte	.LASF200
 2519 0d42 01       		.byte	0x1
 2520 0d43 9E       		.byte	0x9e
 2521 0d44 00000000 		.4byte	.LFB269
 2522 0d48 14000000 		.4byte	.LFE269-.LFB269
 2523 0d4c 01       		.uleb128 0x1
 2524 0d4d 9C       		.byte	0x9c
 2525 0d4e A00D0000 		.4byte	0xda0
 2526 0d52 21       		.uleb128 0x21
 2527 0d53 D1060000 		.4byte	.LASF198
 2528 0d57 01       		.byte	0x1
 2529 0d58 9E       		.byte	0x9e
 2530 0d59 3A0C0000 		.4byte	0xc3a
 2531 0d5d 00000000 		.4byte	.LLST0
 2532 0d61 21       		.uleb128 0x21
 2533 0d62 15040000 		.4byte	.LASF199
 2534 0d66 01       		.byte	0x1
 2535 0d67 9E       		.byte	0x9e
 2536 0d68 CE000000 		.4byte	0xce
 2537 0d6c 21000000 		.4byte	.LLST1
 2538 0d70 22       		.uleb128 0x22
 2539 0d71 EB0C0000 		.4byte	0xceb
 2540 0d75 08000000 		.4byte	.LBB56
 2541 0d79 0C000000 		.4byte	.LBE56-.LBB56
 2542 0d7d 01       		.byte	0x1
 2543 0d7e A4       		.byte	0xa4
 2544 0d7f 23       		.uleb128 0x23
 2545 0d80 F80C0000 		.4byte	0xcf8
 2546 0d84 06       		.uleb128 0x6
 2547 0d85 03       		.byte	0x3
 2548 0d86 00000000 		.4byte	.LC0
 2549 0d8a 9F       		.byte	0x9f
 2550 0d8b 24       		.uleb128 0x24
 2551 0d8c 0E000000 		.4byte	.LVL3
 2552 0d90 0E120000 		.4byte	0x120e
 2553 0d94 25       		.uleb128 0x25
 2554 0d95 01       		.uleb128 0x1
 2555 0d96 50       		.byte	0x50
 2556 0d97 05       		.uleb128 0x5
 2557 0d98 03       		.byte	0x3
 2558 0d99 00000000 		.4byte	.LC0
 2559 0d9d 00       		.byte	0
ARM GAS  /var/folders/m4/4md61f0s1_g0rzfghffqnxvr0000gn/T//ccHfRd1a.s 			page 46


 2560 0d9e 00       		.byte	0
 2561 0d9f 00       		.byte	0
 2562 0da0 20       		.uleb128 0x20
 2563 0da1 27040000 		.4byte	.LASF201
 2564 0da5 01       		.byte	0x1
 2565 0da6 84       		.byte	0x84
 2566 0da7 00000000 		.4byte	.LFB268
 2567 0dab 80000000 		.4byte	.LFE268-.LFB268
 2568 0daf 01       		.uleb128 0x1
 2569 0db0 9C       		.byte	0x9c
 2570 0db1 100F0000 		.4byte	0xf10
 2571 0db5 21       		.uleb128 0x21
 2572 0db6 D1060000 		.4byte	.LASF198
 2573 0dba 01       		.byte	0x1
 2574 0dbb 84       		.byte	0x84
 2575 0dbc 3A0C0000 		.4byte	0xc3a
 2576 0dc0 42000000 		.4byte	.LLST2
 2577 0dc4 21       		.uleb128 0x21
 2578 0dc5 15040000 		.4byte	.LASF199
 2579 0dc9 01       		.byte	0x1
 2580 0dca 84       		.byte	0x84
 2581 0dcb CE000000 		.4byte	0xce
 2582 0dcf 76000000 		.4byte	.LLST3
 2583 0dd3 26       		.uleb128 0x26
 2584 0dd4 340D0000 		.4byte	0xd34
 2585 0dd8 56000000 		.4byte	.LBB58
 2586 0ddc 06000000 		.4byte	.LBE58-.LBB58
 2587 0de0 01       		.byte	0x1
 2588 0de1 95       		.byte	0x95
 2589 0de2 340E0000 		.4byte	0xe34
 2590 0de6 27       		.uleb128 0x27
 2591 0de7 D90C0000 		.4byte	0xcd9
 2592 0deb 56000000 		.4byte	.LBB59
 2593 0def 06000000 		.4byte	.LBE59-.LBB59
 2594 0df3 02       		.byte	0x2
 2595 0df4 0302     		.2byte	0x203
 2596 0df6 27       		.uleb128 0x27
 2597 0df7 C70C0000 		.4byte	0xcc7
 2598 0dfb 56000000 		.4byte	.LBB60
 2599 0dff 06000000 		.4byte	.LBE60-.LBB60
 2600 0e03 14       		.byte	0x14
 2601 0e04 8401     		.2byte	0x184
 2602 0e06 27       		.uleb128 0x27
 2603 0e07 B50C0000 		.4byte	0xcb5
 2604 0e0b 56000000 		.4byte	.LBB61
 2605 0e0f 06000000 		.4byte	.LBE61-.LBB61
 2606 0e13 0C       		.byte	0xc
 2607 0e14 F101     		.2byte	0x1f1
 2608 0e16 27       		.uleb128 0x27
 2609 0e17 9B0C0000 		.4byte	0xc9b
 2610 0e1b 56000000 		.4byte	.LBB62
 2611 0e1f 06000000 		.4byte	.LBE62-.LBB62
 2612 0e23 0C       		.byte	0xc
 2613 0e24 D001     		.2byte	0x1d0
 2614 0e26 28       		.uleb128 0x28
 2615 0e27 A80C0000 		.4byte	0xca8
 2616 0e2b B0000000 		.4byte	.LLST4
ARM GAS  /var/folders/m4/4md61f0s1_g0rzfghffqnxvr0000gn/T//ccHfRd1a.s 			page 47


 2617 0e2f 00       		.byte	0
 2618 0e30 00       		.byte	0
 2619 0e31 00       		.byte	0
 2620 0e32 00       		.byte	0
 2621 0e33 00       		.byte	0
 2622 0e34 26       		.uleb128 0x26
 2623 0e35 0E0D0000 		.4byte	0xd0e
 2624 0e39 5C000000 		.4byte	.LBB64
 2625 0e3d 0A000000 		.4byte	.LBE64-.LBB64
 2626 0e41 01       		.byte	0x1
 2627 0e42 95       		.byte	0x95
 2628 0e43 6F0E0000 		.4byte	0xe6f
 2629 0e47 28       		.uleb128 0x28
 2630 0e48 270D0000 		.4byte	0xd27
 2631 0e4c C5000000 		.4byte	.LLST5
 2632 0e50 28       		.uleb128 0x28
 2633 0e51 1B0D0000 		.4byte	0xd1b
 2634 0e55 D9000000 		.4byte	.LLST6
 2635 0e59 29       		.uleb128 0x29
 2636 0e5a 66000000 		.4byte	.LVL10
 2637 0e5e 1A120000 		.4byte	0x121a
 2638 0e62 25       		.uleb128 0x25
 2639 0e63 01       		.uleb128 0x1
 2640 0e64 50       		.byte	0x50
 2641 0e65 02       		.uleb128 0x2
 2642 0e66 74       		.byte	0x74
 2643 0e67 08       		.sleb128 8
 2644 0e68 25       		.uleb128 0x25
 2645 0e69 01       		.uleb128 0x1
 2646 0e6a 51       		.byte	0x51
 2647 0e6b 01       		.uleb128 0x1
 2648 0e6c 30       		.byte	0x30
 2649 0e6d 00       		.byte	0
 2650 0e6e 00       		.byte	0
 2651 0e6f 26       		.uleb128 0x26
 2652 0e70 050D0000 		.4byte	0xd05
 2653 0e74 66000000 		.4byte	.LBB66
 2654 0e78 08000000 		.4byte	.LBE66-.LBB66
 2655 0e7c 01       		.byte	0x1
 2656 0e7d 95       		.byte	0x95
 2657 0e7e D00E0000 		.4byte	0xed0
 2658 0e82 27       		.uleb128 0x27
 2659 0e83 E20C0000 		.4byte	0xce2
 2660 0e87 66000000 		.4byte	.LBB67
 2661 0e8b 08000000 		.4byte	.LBE67-.LBB67
 2662 0e8f 02       		.byte	0x2
 2663 0e90 0E02     		.2byte	0x20e
 2664 0e92 27       		.uleb128 0x27
 2665 0e93 D00C0000 		.4byte	0xcd0
 2666 0e97 66000000 		.4byte	.LBB68
 2667 0e9b 08000000 		.4byte	.LBE68-.LBB68
 2668 0e9f 14       		.byte	0x14
 2669 0ea0 9A01     		.2byte	0x19a
 2670 0ea2 27       		.uleb128 0x27
 2671 0ea3 BE0C0000 		.4byte	0xcbe
 2672 0ea7 66000000 		.4byte	.LBB69
 2673 0eab 08000000 		.4byte	.LBE69-.LBB69
ARM GAS  /var/folders/m4/4md61f0s1_g0rzfghffqnxvr0000gn/T//ccHfRd1a.s 			page 48


 2674 0eaf 0C       		.byte	0xc
 2675 0eb0 FC01     		.2byte	0x1fc
 2676 0eb2 27       		.uleb128 0x27
 2677 0eb3 9B0C0000 		.4byte	0xc9b
 2678 0eb7 66000000 		.4byte	.LBB70
 2679 0ebb 08000000 		.4byte	.LBE70-.LBB70
 2680 0ebf 0C       		.byte	0xc
 2681 0ec0 E301     		.2byte	0x1e3
 2682 0ec2 28       		.uleb128 0x28
 2683 0ec3 A80C0000 		.4byte	0xca8
 2684 0ec7 06010000 		.4byte	.LLST7
 2685 0ecb 00       		.byte	0
 2686 0ecc 00       		.byte	0
 2687 0ecd 00       		.byte	0
 2688 0ece 00       		.byte	0
 2689 0ecf 00       		.byte	0
 2690 0ed0 26       		.uleb128 0x26
 2691 0ed1 EB0C0000 		.4byte	0xceb
 2692 0ed5 74000000 		.4byte	.LBB72
 2693 0ed9 0C000000 		.4byte	.LBE72-.LBB72
 2694 0edd 01       		.byte	0x1
 2695 0ede 89       		.byte	0x89
 2696 0edf 030F0000 		.4byte	0xf03
 2697 0ee3 23       		.uleb128 0x23
 2698 0ee4 F80C0000 		.4byte	0xcf8
 2699 0ee8 06       		.uleb128 0x6
 2700 0ee9 03       		.byte	0x3
 2701 0eea 00000000 		.4byte	.LC0
 2702 0eee 9F       		.byte	0x9f
 2703 0eef 29       		.uleb128 0x29
 2704 0ef0 7A000000 		.4byte	.LVL15
 2705 0ef4 0E120000 		.4byte	0x120e
 2706 0ef8 25       		.uleb128 0x25
 2707 0ef9 01       		.uleb128 0x1
 2708 0efa 50       		.byte	0x50
 2709 0efb 05       		.uleb128 0x5
 2710 0efc 03       		.byte	0x3
 2711 0efd 00000000 		.4byte	.LC0
 2712 0f01 00       		.byte	0
 2713 0f02 00       		.byte	0
 2714 0f03 2A       		.uleb128 0x2a
 2715 0f04 50000000 		.4byte	.LVL6
 2716 0f08 25       		.uleb128 0x25
 2717 0f09 01       		.uleb128 0x1
 2718 0f0a 50       		.byte	0x50
 2719 0f0b 02       		.uleb128 0x2
 2720 0f0c 74       		.byte	0x74
 2721 0f0d 00       		.sleb128 0
 2722 0f0e 00       		.byte	0
 2723 0f0f 00       		.byte	0
 2724 0f10 2B       		.uleb128 0x2b
 2725 0f11 B5090000 		.4byte	.LASF202
 2726 0f15 01       		.byte	0x1
 2727 0f16 B9       		.byte	0xb9
 2728 0f17 00000000 		.4byte	.LFB270
 2729 0f1b 44000000 		.4byte	.LFE270-.LFB270
 2730 0f1f 01       		.uleb128 0x1
ARM GAS  /var/folders/m4/4md61f0s1_g0rzfghffqnxvr0000gn/T//ccHfRd1a.s 			page 49


 2731 0f20 9C       		.byte	0x9c
 2732 0f21 360F0000 		.4byte	0xf36
 2733 0f25 29       		.uleb128 0x29
 2734 0f26 12000000 		.4byte	.LVL16
 2735 0f2a 25120000 		.4byte	0x1225
 2736 0f2e 25       		.uleb128 0x25
 2737 0f2f 01       		.uleb128 0x1
 2738 0f30 50       		.byte	0x50
 2739 0f31 02       		.uleb128 0x2
 2740 0f32 74       		.byte	0x74
 2741 0f33 00       		.sleb128 0
 2742 0f34 00       		.byte	0
 2743 0f35 00       		.byte	0
 2744 0f36 2C       		.uleb128 0x2c
 2745 0f37 4B030000 		.4byte	.LASF203
 2746 0f3b 01       		.byte	0x1
 2747 0f3c 3101     		.2byte	0x131
 2748 0f3e 00000000 		.4byte	.LFB271
 2749 0f42 94000000 		.4byte	.LFE271-.LFB271
 2750 0f46 01       		.uleb128 0x1
 2751 0f47 9C       		.byte	0x9c
 2752 0f48 BA0F0000 		.4byte	0xfba
 2753 0f4c 2D       		.uleb128 0x2d
 2754 0f4d D1060000 		.4byte	.LASF198
 2755 0f51 01       		.byte	0x1
 2756 0f52 3101     		.2byte	0x131
 2757 0f54 3A0C0000 		.4byte	0xc3a
 2758 0f58 1A010000 		.4byte	.LLST8
 2759 0f5c 2E       		.uleb128 0x2e
 2760 0f5d B6010000 		.4byte	.LASF227
 2761 0f61 CA0F0000 		.4byte	0xfca
 2762 0f65 2F       		.uleb128 0x2f
 2763 0f66 60000000 		.4byte	.LBB74
 2764 0f6a 34000000 		.4byte	.LBE74-.LBB74
 2765 0f6e 30       		.uleb128 0x30
 2766 0f6f 6200     		.ascii	"b\000"
 2767 0f71 01       		.byte	0x1
 2768 0f72 3701     		.2byte	0x137
 2769 0f74 4F0A0000 		.4byte	0xa4f
 2770 0f78 31       		.uleb128 0x31
 2771 0f79 6C000000 		.4byte	.LVL23
 2772 0f7d 31120000 		.4byte	0x1231
 2773 0f81 9A0F0000 		.4byte	0xf9a
 2774 0f85 25       		.uleb128 0x25
 2775 0f86 01       		.uleb128 0x1
 2776 0f87 51       		.byte	0x51
 2777 0f88 01       		.uleb128 0x1
 2778 0f89 3A       		.byte	0x3a
 2779 0f8a 25       		.uleb128 0x25
 2780 0f8b 01       		.uleb128 0x1
 2781 0f8c 52       		.byte	0x52
 2782 0f8d 05       		.uleb128 0x5
 2783 0f8e 03       		.byte	0x3
 2784 0f8f 00000000 		.4byte	spi_lld_serve_rx_interrupt
 2785 0f93 25       		.uleb128 0x25
 2786 0f94 01       		.uleb128 0x1
 2787 0f95 53       		.byte	0x53
ARM GAS  /var/folders/m4/4md61f0s1_g0rzfghffqnxvr0000gn/T//ccHfRd1a.s 			page 50


 2788 0f96 02       		.uleb128 0x2
 2789 0f97 74       		.byte	0x74
 2790 0f98 00       		.sleb128 0
 2791 0f99 00       		.byte	0
 2792 0f9a 29       		.uleb128 0x29
 2793 0f9b 78000000 		.4byte	.LVL24
 2794 0f9f 31120000 		.4byte	0x1231
 2795 0fa3 25       		.uleb128 0x25
 2796 0fa4 01       		.uleb128 0x1
 2797 0fa5 51       		.byte	0x51
 2798 0fa6 01       		.uleb128 0x1
 2799 0fa7 3A       		.byte	0x3a
 2800 0fa8 25       		.uleb128 0x25
 2801 0fa9 01       		.uleb128 0x1
 2802 0faa 52       		.byte	0x52
 2803 0fab 05       		.uleb128 0x5
 2804 0fac 03       		.byte	0x3
 2805 0fad 00000000 		.4byte	spi_lld_serve_tx_interrupt
 2806 0fb1 25       		.uleb128 0x25
 2807 0fb2 01       		.uleb128 0x1
 2808 0fb3 53       		.byte	0x53
 2809 0fb4 02       		.uleb128 0x2
 2810 0fb5 74       		.byte	0x74
 2811 0fb6 00       		.sleb128 0
 2812 0fb7 00       		.byte	0
 2813 0fb8 00       		.byte	0
 2814 0fb9 00       		.byte	0
 2815 0fba 10       		.uleb128 0x10
 2816 0fbb 8D090000 		.4byte	0x98d
 2817 0fbf CA0F0000 		.4byte	0xfca
 2818 0fc3 11       		.uleb128 0x11
 2819 0fc4 80040000 		.4byte	0x480
 2820 0fc8 0D       		.byte	0xd
 2821 0fc9 00       		.byte	0
 2822 0fca 18       		.uleb128 0x18
 2823 0fcb BA0F0000 		.4byte	0xfba
 2824 0fcf 2C       		.uleb128 0x2c
 2825 0fd0 FC010000 		.4byte	.LASF204
 2826 0fd4 01       		.byte	0x1
 2827 0fd5 B901     		.2byte	0x1b9
 2828 0fd7 00000000 		.4byte	.LFB272
 2829 0fdb 3C000000 		.4byte	.LFE272-.LFB272
 2830 0fdf 01       		.uleb128 0x1
 2831 0fe0 9C       		.byte	0x9c
 2832 0fe1 08100000 		.4byte	0x1008
 2833 0fe5 2D       		.uleb128 0x2d
 2834 0fe6 D1060000 		.4byte	.LASF198
 2835 0fea 01       		.byte	0x1
 2836 0feb B901     		.2byte	0x1b9
 2837 0fed 3A0C0000 		.4byte	0xc3a
 2838 0ff1 64010000 		.4byte	.LLST9
 2839 0ff5 32       		.uleb128 0x32
 2840 0ff6 1A000000 		.4byte	.LVL27
 2841 0ffa 3D120000 		.4byte	0x123d
 2842 0ffe 32       		.uleb128 0x32
 2843 0fff 20000000 		.4byte	.LVL28
 2844 1003 3D120000 		.4byte	0x123d
ARM GAS  /var/folders/m4/4md61f0s1_g0rzfghffqnxvr0000gn/T//ccHfRd1a.s 			page 51


 2845 1007 00       		.byte	0
 2846 1008 2C       		.uleb128 0x2c
 2847 1009 DA010000 		.4byte	.LASF205
 2848 100d 01       		.byte	0x1
 2849 100e E601     		.2byte	0x1e6
 2850 1010 00000000 		.4byte	.LFB273
 2851 1014 10000000 		.4byte	.LFE273-.LFB273
 2852 1018 01       		.uleb128 0x1
 2853 1019 9C       		.byte	0x9c
 2854 101a 2D100000 		.4byte	0x102d
 2855 101e 33       		.uleb128 0x33
 2856 101f D1060000 		.4byte	.LASF198
 2857 1023 01       		.byte	0x1
 2858 1024 E601     		.2byte	0x1e6
 2859 1026 3A0C0000 		.4byte	0xc3a
 2860 102a 01       		.uleb128 0x1
 2861 102b 50       		.byte	0x50
 2862 102c 00       		.byte	0
 2863 102d 2C       		.uleb128 0x2c
 2864 102e 35050000 		.4byte	.LASF206
 2865 1032 01       		.byte	0x1
 2866 1033 F301     		.2byte	0x1f3
 2867 1035 00000000 		.4byte	.LFB274
 2868 1039 10000000 		.4byte	.LFE274-.LFB274
 2869 103d 01       		.uleb128 0x1
 2870 103e 9C       		.byte	0x9c
 2871 103f 52100000 		.4byte	0x1052
 2872 1043 33       		.uleb128 0x33
 2873 1044 D1060000 		.4byte	.LASF198
 2874 1048 01       		.byte	0x1
 2875 1049 F301     		.2byte	0x1f3
 2876 104b 3A0C0000 		.4byte	0xc3a
 2877 104f 01       		.uleb128 0x1
 2878 1050 50       		.byte	0x50
 2879 1051 00       		.byte	0
 2880 1052 2C       		.uleb128 0x2c
 2881 1053 AA020000 		.4byte	.LASF207
 2882 1057 01       		.byte	0x1
 2883 1058 0302     		.2byte	0x203
 2884 105a 00000000 		.4byte	.LFB275
 2885 105e 3C000000 		.4byte	.LFE275-.LFB275
 2886 1062 01       		.uleb128 0x1
 2887 1063 9C       		.byte	0x9c
 2888 1064 87100000 		.4byte	0x1087
 2889 1068 2D       		.uleb128 0x2d
 2890 1069 D1060000 		.4byte	.LASF198
 2891 106d 01       		.byte	0x1
 2892 106e 0302     		.2byte	0x203
 2893 1070 3A0C0000 		.4byte	0xc3a
 2894 1074 82010000 		.4byte	.LLST10
 2895 1078 34       		.uleb128 0x34
 2896 1079 6E00     		.ascii	"n\000"
 2897 107b 01       		.byte	0x1
 2898 107c 0302     		.2byte	0x203
 2899 107e 2C000000 		.4byte	0x2c
 2900 1082 A3010000 		.4byte	.LLST11
 2901 1086 00       		.byte	0
ARM GAS  /var/folders/m4/4md61f0s1_g0rzfghffqnxvr0000gn/T//ccHfRd1a.s 			page 52


 2902 1087 2C       		.uleb128 0x2c
 2903 1088 F3050000 		.4byte	.LASF208
 2904 108c 01       		.byte	0x1
 2905 108d 2002     		.2byte	0x220
 2906 108f 00000000 		.4byte	.LFB276
 2907 1093 36000000 		.4byte	.LFE276-.LFB276
 2908 1097 01       		.uleb128 0x1
 2909 1098 9C       		.byte	0x9c
 2910 1099 D8100000 		.4byte	0x10d8
 2911 109d 2D       		.uleb128 0x2d
 2912 109e D1060000 		.4byte	.LASF198
 2913 10a2 01       		.byte	0x1
 2914 10a3 2002     		.2byte	0x220
 2915 10a5 3A0C0000 		.4byte	0xc3a
 2916 10a9 C4010000 		.4byte	.LLST12
 2917 10ad 35       		.uleb128 0x35
 2918 10ae 6E00     		.ascii	"n\000"
 2919 10b0 01       		.byte	0x1
 2920 10b1 2002     		.2byte	0x220
 2921 10b3 2C000000 		.4byte	0x2c
 2922 10b7 01       		.uleb128 0x1
 2923 10b8 51       		.byte	0x51
 2924 10b9 33       		.uleb128 0x33
 2925 10ba F8020000 		.4byte	.LASF209
 2926 10be 01       		.byte	0x1
 2927 10bf 2102     		.2byte	0x221
 2928 10c1 D8100000 		.4byte	0x10d8
 2929 10c5 01       		.uleb128 0x1
 2930 10c6 52       		.byte	0x52
 2931 10c7 2D       		.uleb128 0x2d
 2932 10c8 24060000 		.4byte	.LASF210
 2933 10cc 01       		.byte	0x1
 2934 10cd 2102     		.2byte	0x221
 2935 10cf 4A030000 		.4byte	0x34a
 2936 10d3 E5010000 		.4byte	.LLST13
 2937 10d7 00       		.byte	0
 2938 10d8 09       		.uleb128 0x9
 2939 10d9 04       		.byte	0x4
 2940 10da DE100000 		.4byte	0x10de
 2941 10de 36       		.uleb128 0x36
 2942 10df 2C       		.uleb128 0x2c
 2943 10e0 E9030000 		.4byte	.LASF211
 2944 10e4 01       		.byte	0x1
 2945 10e5 3C02     		.2byte	0x23c
 2946 10e7 00000000 		.4byte	.LFB277
 2947 10eb 38000000 		.4byte	.LFE277-.LFB277
 2948 10ef 01       		.uleb128 0x1
 2949 10f0 9C       		.byte	0x9c
 2950 10f1 22110000 		.4byte	0x1122
 2951 10f5 2D       		.uleb128 0x2d
 2952 10f6 D1060000 		.4byte	.LASF198
 2953 10fa 01       		.byte	0x1
 2954 10fb 3C02     		.2byte	0x23c
 2955 10fd 3A0C0000 		.4byte	0xc3a
 2956 1101 06020000 		.4byte	.LLST14
 2957 1105 35       		.uleb128 0x35
 2958 1106 6E00     		.ascii	"n\000"
ARM GAS  /var/folders/m4/4md61f0s1_g0rzfghffqnxvr0000gn/T//ccHfRd1a.s 			page 53


 2959 1108 01       		.byte	0x1
 2960 1109 3C02     		.2byte	0x23c
 2961 110b 2C000000 		.4byte	0x2c
 2962 110f 01       		.uleb128 0x1
 2963 1110 51       		.byte	0x51
 2964 1111 2D       		.uleb128 0x2d
 2965 1112 F8020000 		.4byte	.LASF209
 2966 1116 01       		.byte	0x1
 2967 1117 3C02     		.2byte	0x23c
 2968 1119 D8100000 		.4byte	0x10d8
 2969 111d 27020000 		.4byte	.LLST15
 2970 1121 00       		.byte	0
 2971 1122 2C       		.uleb128 0x2c
 2972 1123 99060000 		.4byte	.LASF212
 2973 1127 01       		.byte	0x1
 2974 1128 5702     		.2byte	0x257
 2975 112a 00000000 		.4byte	.LFB278
 2976 112e 38000000 		.4byte	.LFE278-.LFB278
 2977 1132 01       		.uleb128 0x1
 2978 1133 9C       		.byte	0x9c
 2979 1134 65110000 		.4byte	0x1165
 2980 1138 2D       		.uleb128 0x2d
 2981 1139 D1060000 		.4byte	.LASF198
 2982 113d 01       		.byte	0x1
 2983 113e 5702     		.2byte	0x257
 2984 1140 3A0C0000 		.4byte	0xc3a
 2985 1144 48020000 		.4byte	.LLST16
 2986 1148 35       		.uleb128 0x35
 2987 1149 6E00     		.ascii	"n\000"
 2988 114b 01       		.byte	0x1
 2989 114c 5702     		.2byte	0x257
 2990 114e 2C000000 		.4byte	0x2c
 2991 1152 01       		.uleb128 0x1
 2992 1153 51       		.byte	0x51
 2993 1154 2D       		.uleb128 0x2d
 2994 1155 24060000 		.4byte	.LASF210
 2995 1159 01       		.byte	0x1
 2996 115a 5702     		.2byte	0x257
 2997 115c 4A030000 		.4byte	0x34a
 2998 1160 69020000 		.4byte	.LLST17
 2999 1164 00       		.byte	0
 3000 1165 37       		.uleb128 0x37
 3001 1166 0B050000 		.4byte	.LASF228
 3002 116a 01       		.byte	0x1
 3003 116b 7102     		.2byte	0x271
 3004 116d B8000000 		.4byte	0xb8
 3005 1171 00000000 		.4byte	.LFB279
 3006 1175 10000000 		.4byte	.LFE279-.LFB279
 3007 1179 01       		.uleb128 0x1
 3008 117a 9C       		.byte	0x9c
 3009 117b 9E110000 		.4byte	0x119e
 3010 117f 2D       		.uleb128 0x2d
 3011 1180 D1060000 		.4byte	.LASF198
 3012 1184 01       		.byte	0x1
 3013 1185 7102     		.2byte	0x271
 3014 1187 3A0C0000 		.4byte	0xc3a
 3015 118b 8A020000 		.4byte	.LLST18
ARM GAS  /var/folders/m4/4md61f0s1_g0rzfghffqnxvr0000gn/T//ccHfRd1a.s 			page 54


 3016 118f 33       		.uleb128 0x33
 3017 1190 8D060000 		.4byte	.LASF213
 3018 1194 01       		.byte	0x1
 3019 1195 7102     		.2byte	0x271
 3020 1197 B8000000 		.4byte	0xb8
 3021 119b 01       		.uleb128 0x1
 3022 119c 51       		.byte	0x51
 3023 119d 00       		.byte	0
 3024 119e 38       		.uleb128 0x38
 3025 119f 5D020000 		.4byte	.LASF214
 3026 11a3 01       		.byte	0x1
 3027 11a4 77       		.byte	0x77
 3028 11a5 B8000000 		.4byte	0xb8
 3029 11a9 05       		.uleb128 0x5
 3030 11aa 03       		.byte	0x3
 3031 11ab 00000000 		.4byte	dummytx
 3032 11af 38       		.uleb128 0x38
 3033 11b0 BF010000 		.4byte	.LASF215
 3034 11b4 01       		.byte	0x1
 3035 11b5 78       		.byte	0x78
 3036 11b6 B8000000 		.4byte	0xb8
 3037 11ba 05       		.uleb128 0x5
 3038 11bb 03       		.byte	0x3
 3039 11bc 00000000 		.4byte	dummyrx
 3040 11c0 39       		.uleb128 0x39
 3041 11c1 A9060000 		.4byte	.LASF216
 3042 11c5 15       		.byte	0x15
 3043 11c6 FA06     		.2byte	0x6fa
 3044 11c8 CC110000 		.4byte	0x11cc
 3045 11cc 0F       		.uleb128 0xf
 3046 11cd C3000000 		.4byte	0xc3
 3047 11d1 3A       		.uleb128 0x3a
 3048 11d2 636800   		.ascii	"ch\000"
 3049 11d5 09       		.byte	0x9
 3050 11d6 0902     		.2byte	0x209
 3051 11d8 19040000 		.4byte	0x419
 3052 11dc 10       		.uleb128 0x10
 3053 11dd 210A0000 		.4byte	0xa21
 3054 11e1 EC110000 		.4byte	0x11ec
 3055 11e5 11       		.uleb128 0x11
 3056 11e6 80040000 		.4byte	0x480
 3057 11ea 0F       		.byte	0xf
 3058 11eb 00       		.byte	0
 3059 11ec 39       		.uleb128 0x39
 3060 11ed BE050000 		.4byte	.LASF217
 3061 11f1 10       		.byte	0x10
 3062 11f2 9202     		.2byte	0x292
 3063 11f4 F8110000 		.4byte	0x11f8
 3064 11f8 18       		.uleb128 0x18
 3065 11f9 DC110000 		.4byte	0x11dc
 3066 11fd 3B       		.uleb128 0x3b
 3067 11fe D4010000 		.4byte	.LASF218
 3068 1202 01       		.byte	0x1
 3069 1203 57       		.byte	0x57
 3070 1204 8E0B0000 		.4byte	0xb8e
 3071 1208 05       		.uleb128 0x5
 3072 1209 03       		.byte	0x3
ARM GAS  /var/folders/m4/4md61f0s1_g0rzfghffqnxvr0000gn/T//ccHfRd1a.s 			page 55


 3073 120a 00000000 		.4byte	SPID1
 3074 120e 3C       		.uleb128 0x3c
 3075 120f CE090000 		.4byte	.LASF219
 3076 1213 CE090000 		.4byte	.LASF219
 3077 1217 14       		.byte	0x14
 3078 1218 1601     		.2byte	0x116
 3079 121a 3D       		.uleb128 0x3d
 3080 121b 71010000 		.4byte	.LASF220
 3081 121f 71010000 		.4byte	.LASF220
 3082 1223 16       		.byte	0x16
 3083 1224 8F       		.byte	0x8f
 3084 1225 3C       		.uleb128 0x3c
 3085 1226 76070000 		.4byte	.LASF221
 3086 122a 76070000 		.4byte	.LASF221
 3087 122e 12       		.byte	0x12
 3088 122f 0701     		.2byte	0x107
 3089 1231 3C       		.uleb128 0x3c
 3090 1232 E6040000 		.4byte	.LASF222
 3091 1236 E6040000 		.4byte	.LASF222
 3092 123a 10       		.byte	0x10
 3093 123b 9902     		.2byte	0x299
 3094 123d 3C       		.uleb128 0x3c
 3095 123e 87010000 		.4byte	.LASF223
 3096 1242 87010000 		.4byte	.LASF223
 3097 1246 10       		.byte	0x10
 3098 1247 9D02     		.2byte	0x29d
 3099 1249 00       		.byte	0
 3100              		.section	.debug_abbrev,"",%progbits
 3101              	.Ldebug_abbrev0:
 3102 0000 01       		.uleb128 0x1
 3103 0001 11       		.uleb128 0x11
 3104 0002 01       		.byte	0x1
 3105 0003 25       		.uleb128 0x25
 3106 0004 0E       		.uleb128 0xe
 3107 0005 13       		.uleb128 0x13
 3108 0006 0B       		.uleb128 0xb
 3109 0007 03       		.uleb128 0x3
 3110 0008 0E       		.uleb128 0xe
 3111 0009 1B       		.uleb128 0x1b
 3112 000a 0E       		.uleb128 0xe
 3113 000b 55       		.uleb128 0x55
 3114 000c 17       		.uleb128 0x17
 3115 000d 11       		.uleb128 0x11
 3116 000e 01       		.uleb128 0x1
 3117 000f 10       		.uleb128 0x10
 3118 0010 17       		.uleb128 0x17
 3119 0011 00       		.byte	0
 3120 0012 00       		.byte	0
 3121 0013 02       		.uleb128 0x2
 3122 0014 24       		.uleb128 0x24
 3123 0015 00       		.byte	0
 3124 0016 0B       		.uleb128 0xb
 3125 0017 0B       		.uleb128 0xb
 3126 0018 3E       		.uleb128 0x3e
 3127 0019 0B       		.uleb128 0xb
 3128 001a 03       		.uleb128 0x3
 3129 001b 08       		.uleb128 0x8
ARM GAS  /var/folders/m4/4md61f0s1_g0rzfghffqnxvr0000gn/T//ccHfRd1a.s 			page 56


 3130 001c 00       		.byte	0
 3131 001d 00       		.byte	0
 3132 001e 03       		.uleb128 0x3
 3133 001f 16       		.uleb128 0x16
 3134 0020 00       		.byte	0
 3135 0021 03       		.uleb128 0x3
 3136 0022 0E       		.uleb128 0xe
 3137 0023 3A       		.uleb128 0x3a
 3138 0024 0B       		.uleb128 0xb
 3139 0025 3B       		.uleb128 0x3b
 3140 0026 0B       		.uleb128 0xb
 3141 0027 49       		.uleb128 0x49
 3142 0028 13       		.uleb128 0x13
 3143 0029 00       		.byte	0
 3144 002a 00       		.byte	0
 3145 002b 04       		.uleb128 0x4
 3146 002c 24       		.uleb128 0x24
 3147 002d 00       		.byte	0
 3148 002e 0B       		.uleb128 0xb
 3149 002f 0B       		.uleb128 0xb
 3150 0030 3E       		.uleb128 0x3e
 3151 0031 0B       		.uleb128 0xb
 3152 0032 03       		.uleb128 0x3
 3153 0033 0E       		.uleb128 0xe
 3154 0034 00       		.byte	0
 3155 0035 00       		.byte	0
 3156 0036 05       		.uleb128 0x5
 3157 0037 13       		.uleb128 0x13
 3158 0038 01       		.byte	0x1
 3159 0039 03       		.uleb128 0x3
 3160 003a 0E       		.uleb128 0xe
 3161 003b 0B       		.uleb128 0xb
 3162 003c 0B       		.uleb128 0xb
 3163 003d 3A       		.uleb128 0x3a
 3164 003e 0B       		.uleb128 0xb
 3165 003f 3B       		.uleb128 0x3b
 3166 0040 0B       		.uleb128 0xb
 3167 0041 01       		.uleb128 0x1
 3168 0042 13       		.uleb128 0x13
 3169 0043 00       		.byte	0
 3170 0044 00       		.byte	0
 3171 0045 06       		.uleb128 0x6
 3172 0046 0D       		.uleb128 0xd
 3173 0047 00       		.byte	0
 3174 0048 03       		.uleb128 0x3
 3175 0049 0E       		.uleb128 0xe
 3176 004a 3A       		.uleb128 0x3a
 3177 004b 0B       		.uleb128 0xb
 3178 004c 3B       		.uleb128 0x3b
 3179 004d 0B       		.uleb128 0xb
 3180 004e 49       		.uleb128 0x49
 3181 004f 13       		.uleb128 0x13
 3182 0050 38       		.uleb128 0x38
 3183 0051 0B       		.uleb128 0xb
 3184 0052 00       		.byte	0
 3185 0053 00       		.byte	0
 3186 0054 07       		.uleb128 0x7
ARM GAS  /var/folders/m4/4md61f0s1_g0rzfghffqnxvr0000gn/T//ccHfRd1a.s 			page 57


 3187 0055 0D       		.uleb128 0xd
 3188 0056 00       		.byte	0
 3189 0057 03       		.uleb128 0x3
 3190 0058 08       		.uleb128 0x8
 3191 0059 3A       		.uleb128 0x3a
 3192 005a 0B       		.uleb128 0xb
 3193 005b 3B       		.uleb128 0x3b
 3194 005c 05       		.uleb128 0x5
 3195 005d 49       		.uleb128 0x49
 3196 005e 13       		.uleb128 0x13
 3197 005f 38       		.uleb128 0x38
 3198 0060 0B       		.uleb128 0xb
 3199 0061 00       		.byte	0
 3200 0062 00       		.byte	0
 3201 0063 08       		.uleb128 0x8
 3202 0064 0D       		.uleb128 0xd
 3203 0065 00       		.byte	0
 3204 0066 03       		.uleb128 0x3
 3205 0067 0E       		.uleb128 0xe
 3206 0068 3A       		.uleb128 0x3a
 3207 0069 0B       		.uleb128 0xb
 3208 006a 3B       		.uleb128 0x3b
 3209 006b 05       		.uleb128 0x5
 3210 006c 49       		.uleb128 0x49
 3211 006d 13       		.uleb128 0x13
 3212 006e 38       		.uleb128 0x38
 3213 006f 0B       		.uleb128 0xb
 3214 0070 00       		.byte	0
 3215 0071 00       		.byte	0
 3216 0072 09       		.uleb128 0x9
 3217 0073 0F       		.uleb128 0xf
 3218 0074 00       		.byte	0
 3219 0075 0B       		.uleb128 0xb
 3220 0076 0B       		.uleb128 0xb
 3221 0077 49       		.uleb128 0x49
 3222 0078 13       		.uleb128 0x13
 3223 0079 00       		.byte	0
 3224 007a 00       		.byte	0
 3225 007b 0A       		.uleb128 0xa
 3226 007c 13       		.uleb128 0x13
 3227 007d 01       		.byte	0x1
 3228 007e 03       		.uleb128 0x3
 3229 007f 0E       		.uleb128 0xe
 3230 0080 0B       		.uleb128 0xb
 3231 0081 0B       		.uleb128 0xb
 3232 0082 3A       		.uleb128 0x3a
 3233 0083 0B       		.uleb128 0xb
 3234 0084 3B       		.uleb128 0x3b
 3235 0085 05       		.uleb128 0x5
 3236 0086 01       		.uleb128 0x1
 3237 0087 13       		.uleb128 0x13
 3238 0088 00       		.byte	0
 3239 0089 00       		.byte	0
 3240 008a 0B       		.uleb128 0xb
 3241 008b 15       		.uleb128 0x15
 3242 008c 01       		.byte	0x1
 3243 008d 27       		.uleb128 0x27
ARM GAS  /var/folders/m4/4md61f0s1_g0rzfghffqnxvr0000gn/T//ccHfRd1a.s 			page 58


 3244 008e 19       		.uleb128 0x19
 3245 008f 01       		.uleb128 0x1
 3246 0090 13       		.uleb128 0x13
 3247 0091 00       		.byte	0
 3248 0092 00       		.byte	0
 3249 0093 0C       		.uleb128 0xc
 3250 0094 05       		.uleb128 0x5
 3251 0095 00       		.byte	0
 3252 0096 49       		.uleb128 0x49
 3253 0097 13       		.uleb128 0x13
 3254 0098 00       		.byte	0
 3255 0099 00       		.byte	0
 3256 009a 0D       		.uleb128 0xd
 3257 009b 0F       		.uleb128 0xf
 3258 009c 00       		.byte	0
 3259 009d 0B       		.uleb128 0xb
 3260 009e 0B       		.uleb128 0xb
 3261 009f 00       		.byte	0
 3262 00a0 00       		.byte	0
 3263 00a1 0E       		.uleb128 0xe
 3264 00a2 13       		.uleb128 0x13
 3265 00a3 01       		.byte	0x1
 3266 00a4 03       		.uleb128 0x3
 3267 00a5 0E       		.uleb128 0xe
 3268 00a6 0B       		.uleb128 0xb
 3269 00a7 05       		.uleb128 0x5
 3270 00a8 3A       		.uleb128 0x3a
 3271 00a9 0B       		.uleb128 0xb
 3272 00aa 3B       		.uleb128 0x3b
 3273 00ab 05       		.uleb128 0x5
 3274 00ac 01       		.uleb128 0x1
 3275 00ad 13       		.uleb128 0x13
 3276 00ae 00       		.byte	0
 3277 00af 00       		.byte	0
 3278 00b0 0F       		.uleb128 0xf
 3279 00b1 35       		.uleb128 0x35
 3280 00b2 00       		.byte	0
 3281 00b3 49       		.uleb128 0x49
 3282 00b4 13       		.uleb128 0x13
 3283 00b5 00       		.byte	0
 3284 00b6 00       		.byte	0
 3285 00b7 10       		.uleb128 0x10
 3286 00b8 01       		.uleb128 0x1
 3287 00b9 01       		.byte	0x1
 3288 00ba 49       		.uleb128 0x49
 3289 00bb 13       		.uleb128 0x13
 3290 00bc 01       		.uleb128 0x1
 3291 00bd 13       		.uleb128 0x13
 3292 00be 00       		.byte	0
 3293 00bf 00       		.byte	0
 3294 00c0 11       		.uleb128 0x11
 3295 00c1 21       		.uleb128 0x21
 3296 00c2 00       		.byte	0
 3297 00c3 49       		.uleb128 0x49
 3298 00c4 13       		.uleb128 0x13
 3299 00c5 2F       		.uleb128 0x2f
 3300 00c6 0B       		.uleb128 0xb
ARM GAS  /var/folders/m4/4md61f0s1_g0rzfghffqnxvr0000gn/T//ccHfRd1a.s 			page 59


 3301 00c7 00       		.byte	0
 3302 00c8 00       		.byte	0
 3303 00c9 12       		.uleb128 0x12
 3304 00ca 13       		.uleb128 0x13
 3305 00cb 01       		.byte	0x1
 3306 00cc 0B       		.uleb128 0xb
 3307 00cd 0B       		.uleb128 0xb
 3308 00ce 3A       		.uleb128 0x3a
 3309 00cf 0B       		.uleb128 0xb
 3310 00d0 3B       		.uleb128 0x3b
 3311 00d1 05       		.uleb128 0x5
 3312 00d2 01       		.uleb128 0x1
 3313 00d3 13       		.uleb128 0x13
 3314 00d4 00       		.byte	0
 3315 00d5 00       		.byte	0
 3316 00d6 13       		.uleb128 0x13
 3317 00d7 16       		.uleb128 0x16
 3318 00d8 00       		.byte	0
 3319 00d9 03       		.uleb128 0x3
 3320 00da 0E       		.uleb128 0xe
 3321 00db 3A       		.uleb128 0x3a
 3322 00dc 0B       		.uleb128 0xb
 3323 00dd 3B       		.uleb128 0x3b
 3324 00de 05       		.uleb128 0x5
 3325 00df 49       		.uleb128 0x49
 3326 00e0 13       		.uleb128 0x13
 3327 00e1 00       		.byte	0
 3328 00e2 00       		.byte	0
 3329 00e3 14       		.uleb128 0x14
 3330 00e4 0D       		.uleb128 0xd
 3331 00e5 00       		.byte	0
 3332 00e6 03       		.uleb128 0x3
 3333 00e7 08       		.uleb128 0x8
 3334 00e8 3A       		.uleb128 0x3a
 3335 00e9 0B       		.uleb128 0xb
 3336 00ea 3B       		.uleb128 0x3b
 3337 00eb 0B       		.uleb128 0xb
 3338 00ec 49       		.uleb128 0x49
 3339 00ed 13       		.uleb128 0x13
 3340 00ee 38       		.uleb128 0x38
 3341 00ef 0B       		.uleb128 0xb
 3342 00f0 00       		.byte	0
 3343 00f1 00       		.byte	0
 3344 00f2 15       		.uleb128 0x15
 3345 00f3 13       		.uleb128 0x13
 3346 00f4 01       		.byte	0x1
 3347 00f5 0B       		.uleb128 0xb
 3348 00f6 0B       		.uleb128 0xb
 3349 00f7 3A       		.uleb128 0x3a
 3350 00f8 0B       		.uleb128 0xb
 3351 00f9 3B       		.uleb128 0x3b
 3352 00fa 0B       		.uleb128 0xb
 3353 00fb 01       		.uleb128 0x1
 3354 00fc 13       		.uleb128 0x13
 3355 00fd 00       		.byte	0
 3356 00fe 00       		.byte	0
 3357 00ff 16       		.uleb128 0x16
ARM GAS  /var/folders/m4/4md61f0s1_g0rzfghffqnxvr0000gn/T//ccHfRd1a.s 			page 60


 3358 0100 17       		.uleb128 0x17
 3359 0101 01       		.byte	0x1
 3360 0102 0B       		.uleb128 0xb
 3361 0103 0B       		.uleb128 0xb
 3362 0104 3A       		.uleb128 0x3a
 3363 0105 0B       		.uleb128 0xb
 3364 0106 3B       		.uleb128 0x3b
 3365 0107 0B       		.uleb128 0xb
 3366 0108 01       		.uleb128 0x1
 3367 0109 13       		.uleb128 0x13
 3368 010a 00       		.byte	0
 3369 010b 00       		.byte	0
 3370 010c 17       		.uleb128 0x17
 3371 010d 0D       		.uleb128 0xd
 3372 010e 00       		.byte	0
 3373 010f 03       		.uleb128 0x3
 3374 0110 0E       		.uleb128 0xe
 3375 0111 3A       		.uleb128 0x3a
 3376 0112 0B       		.uleb128 0xb
 3377 0113 3B       		.uleb128 0x3b
 3378 0114 05       		.uleb128 0x5
 3379 0115 49       		.uleb128 0x49
 3380 0116 13       		.uleb128 0x13
 3381 0117 00       		.byte	0
 3382 0118 00       		.byte	0
 3383 0119 18       		.uleb128 0x18
 3384 011a 26       		.uleb128 0x26
 3385 011b 00       		.byte	0
 3386 011c 49       		.uleb128 0x49
 3387 011d 13       		.uleb128 0x13
 3388 011e 00       		.byte	0
 3389 011f 00       		.byte	0
 3390 0120 19       		.uleb128 0x19
 3391 0121 0D       		.uleb128 0xd
 3392 0122 00       		.byte	0
 3393 0123 03       		.uleb128 0x3
 3394 0124 08       		.uleb128 0x8
 3395 0125 3A       		.uleb128 0x3a
 3396 0126 0B       		.uleb128 0xb
 3397 0127 3B       		.uleb128 0x3b
 3398 0128 0B       		.uleb128 0xb
 3399 0129 49       		.uleb128 0x49
 3400 012a 13       		.uleb128 0x13
 3401 012b 00       		.byte	0
 3402 012c 00       		.byte	0
 3403 012d 1A       		.uleb128 0x1a
 3404 012e 04       		.uleb128 0x4
 3405 012f 01       		.byte	0x1
 3406 0130 0B       		.uleb128 0xb
 3407 0131 0B       		.uleb128 0xb
 3408 0132 49       		.uleb128 0x49
 3409 0133 13       		.uleb128 0x13
 3410 0134 3A       		.uleb128 0x3a
 3411 0135 0B       		.uleb128 0xb
 3412 0136 3B       		.uleb128 0x3b
 3413 0137 0B       		.uleb128 0xb
 3414 0138 01       		.uleb128 0x1
ARM GAS  /var/folders/m4/4md61f0s1_g0rzfghffqnxvr0000gn/T//ccHfRd1a.s 			page 61


 3415 0139 13       		.uleb128 0x13
 3416 013a 00       		.byte	0
 3417 013b 00       		.byte	0
 3418 013c 1B       		.uleb128 0x1b
 3419 013d 28       		.uleb128 0x28
 3420 013e 00       		.byte	0
 3421 013f 03       		.uleb128 0x3
 3422 0140 0E       		.uleb128 0xe
 3423 0141 1C       		.uleb128 0x1c
 3424 0142 0B       		.uleb128 0xb
 3425 0143 00       		.byte	0
 3426 0144 00       		.byte	0
 3427 0145 1C       		.uleb128 0x1c
 3428 0146 2E       		.uleb128 0x2e
 3429 0147 01       		.byte	0x1
 3430 0148 03       		.uleb128 0x3
 3431 0149 0E       		.uleb128 0xe
 3432 014a 3A       		.uleb128 0x3a
 3433 014b 0B       		.uleb128 0xb
 3434 014c 3B       		.uleb128 0x3b
 3435 014d 05       		.uleb128 0x5
 3436 014e 27       		.uleb128 0x27
 3437 014f 19       		.uleb128 0x19
 3438 0150 20       		.uleb128 0x20
 3439 0151 0B       		.uleb128 0xb
 3440 0152 01       		.uleb128 0x1
 3441 0153 13       		.uleb128 0x13
 3442 0154 00       		.byte	0
 3443 0155 00       		.byte	0
 3444 0156 1D       		.uleb128 0x1d
 3445 0157 05       		.uleb128 0x5
 3446 0158 00       		.byte	0
 3447 0159 03       		.uleb128 0x3
 3448 015a 0E       		.uleb128 0xe
 3449 015b 3A       		.uleb128 0x3a
 3450 015c 0B       		.uleb128 0xb
 3451 015d 3B       		.uleb128 0x3b
 3452 015e 05       		.uleb128 0x5
 3453 015f 49       		.uleb128 0x49
 3454 0160 13       		.uleb128 0x13
 3455 0161 00       		.byte	0
 3456 0162 00       		.byte	0
 3457 0163 1E       		.uleb128 0x1e
 3458 0164 2E       		.uleb128 0x2e
 3459 0165 00       		.byte	0
 3460 0166 03       		.uleb128 0x3
 3461 0167 0E       		.uleb128 0xe
 3462 0168 3A       		.uleb128 0x3a
 3463 0169 0B       		.uleb128 0xb
 3464 016a 3B       		.uleb128 0x3b
 3465 016b 05       		.uleb128 0x5
 3466 016c 27       		.uleb128 0x27
 3467 016d 19       		.uleb128 0x19
 3468 016e 20       		.uleb128 0x20
 3469 016f 0B       		.uleb128 0xb
 3470 0170 00       		.byte	0
 3471 0171 00       		.byte	0
ARM GAS  /var/folders/m4/4md61f0s1_g0rzfghffqnxvr0000gn/T//ccHfRd1a.s 			page 62


 3472 0172 1F       		.uleb128 0x1f
 3473 0173 05       		.uleb128 0x5
 3474 0174 00       		.byte	0
 3475 0175 03       		.uleb128 0x3
 3476 0176 08       		.uleb128 0x8
 3477 0177 3A       		.uleb128 0x3a
 3478 0178 0B       		.uleb128 0xb
 3479 0179 3B       		.uleb128 0x3b
 3480 017a 05       		.uleb128 0x5
 3481 017b 49       		.uleb128 0x49
 3482 017c 13       		.uleb128 0x13
 3483 017d 00       		.byte	0
 3484 017e 00       		.byte	0
 3485 017f 20       		.uleb128 0x20
 3486 0180 2E       		.uleb128 0x2e
 3487 0181 01       		.byte	0x1
 3488 0182 03       		.uleb128 0x3
 3489 0183 0E       		.uleb128 0xe
 3490 0184 3A       		.uleb128 0x3a
 3491 0185 0B       		.uleb128 0xb
 3492 0186 3B       		.uleb128 0x3b
 3493 0187 0B       		.uleb128 0xb
 3494 0188 27       		.uleb128 0x27
 3495 0189 19       		.uleb128 0x19
 3496 018a 11       		.uleb128 0x11
 3497 018b 01       		.uleb128 0x1
 3498 018c 12       		.uleb128 0x12
 3499 018d 06       		.uleb128 0x6
 3500 018e 40       		.uleb128 0x40
 3501 018f 18       		.uleb128 0x18
 3502 0190 9742     		.uleb128 0x2117
 3503 0192 19       		.uleb128 0x19
 3504 0193 01       		.uleb128 0x1
 3505 0194 13       		.uleb128 0x13
 3506 0195 00       		.byte	0
 3507 0196 00       		.byte	0
 3508 0197 21       		.uleb128 0x21
 3509 0198 05       		.uleb128 0x5
 3510 0199 00       		.byte	0
 3511 019a 03       		.uleb128 0x3
 3512 019b 0E       		.uleb128 0xe
 3513 019c 3A       		.uleb128 0x3a
 3514 019d 0B       		.uleb128 0xb
 3515 019e 3B       		.uleb128 0x3b
 3516 019f 0B       		.uleb128 0xb
 3517 01a0 49       		.uleb128 0x49
 3518 01a1 13       		.uleb128 0x13
 3519 01a2 02       		.uleb128 0x2
 3520 01a3 17       		.uleb128 0x17
 3521 01a4 00       		.byte	0
 3522 01a5 00       		.byte	0
 3523 01a6 22       		.uleb128 0x22
 3524 01a7 1D       		.uleb128 0x1d
 3525 01a8 01       		.byte	0x1
 3526 01a9 31       		.uleb128 0x31
 3527 01aa 13       		.uleb128 0x13
 3528 01ab 11       		.uleb128 0x11
ARM GAS  /var/folders/m4/4md61f0s1_g0rzfghffqnxvr0000gn/T//ccHfRd1a.s 			page 63


 3529 01ac 01       		.uleb128 0x1
 3530 01ad 12       		.uleb128 0x12
 3531 01ae 06       		.uleb128 0x6
 3532 01af 58       		.uleb128 0x58
 3533 01b0 0B       		.uleb128 0xb
 3534 01b1 59       		.uleb128 0x59
 3535 01b2 0B       		.uleb128 0xb
 3536 01b3 00       		.byte	0
 3537 01b4 00       		.byte	0
 3538 01b5 23       		.uleb128 0x23
 3539 01b6 05       		.uleb128 0x5
 3540 01b7 00       		.byte	0
 3541 01b8 31       		.uleb128 0x31
 3542 01b9 13       		.uleb128 0x13
 3543 01ba 02       		.uleb128 0x2
 3544 01bb 18       		.uleb128 0x18
 3545 01bc 00       		.byte	0
 3546 01bd 00       		.byte	0
 3547 01be 24       		.uleb128 0x24
 3548 01bf 898201   		.uleb128 0x4109
 3549 01c2 01       		.byte	0x1
 3550 01c3 11       		.uleb128 0x11
 3551 01c4 01       		.uleb128 0x1
 3552 01c5 9542     		.uleb128 0x2115
 3553 01c7 19       		.uleb128 0x19
 3554 01c8 31       		.uleb128 0x31
 3555 01c9 13       		.uleb128 0x13
 3556 01ca 00       		.byte	0
 3557 01cb 00       		.byte	0
 3558 01cc 25       		.uleb128 0x25
 3559 01cd 8A8201   		.uleb128 0x410a
 3560 01d0 00       		.byte	0
 3561 01d1 02       		.uleb128 0x2
 3562 01d2 18       		.uleb128 0x18
 3563 01d3 9142     		.uleb128 0x2111
 3564 01d5 18       		.uleb128 0x18
 3565 01d6 00       		.byte	0
 3566 01d7 00       		.byte	0
 3567 01d8 26       		.uleb128 0x26
 3568 01d9 1D       		.uleb128 0x1d
 3569 01da 01       		.byte	0x1
 3570 01db 31       		.uleb128 0x31
 3571 01dc 13       		.uleb128 0x13
 3572 01dd 11       		.uleb128 0x11
 3573 01de 01       		.uleb128 0x1
 3574 01df 12       		.uleb128 0x12
 3575 01e0 06       		.uleb128 0x6
 3576 01e1 58       		.uleb128 0x58
 3577 01e2 0B       		.uleb128 0xb
 3578 01e3 59       		.uleb128 0x59
 3579 01e4 0B       		.uleb128 0xb
 3580 01e5 01       		.uleb128 0x1
 3581 01e6 13       		.uleb128 0x13
 3582 01e7 00       		.byte	0
 3583 01e8 00       		.byte	0
 3584 01e9 27       		.uleb128 0x27
 3585 01ea 1D       		.uleb128 0x1d
ARM GAS  /var/folders/m4/4md61f0s1_g0rzfghffqnxvr0000gn/T//ccHfRd1a.s 			page 64


 3586 01eb 01       		.byte	0x1
 3587 01ec 31       		.uleb128 0x31
 3588 01ed 13       		.uleb128 0x13
 3589 01ee 11       		.uleb128 0x11
 3590 01ef 01       		.uleb128 0x1
 3591 01f0 12       		.uleb128 0x12
 3592 01f1 06       		.uleb128 0x6
 3593 01f2 58       		.uleb128 0x58
 3594 01f3 0B       		.uleb128 0xb
 3595 01f4 59       		.uleb128 0x59
 3596 01f5 05       		.uleb128 0x5
 3597 01f6 00       		.byte	0
 3598 01f7 00       		.byte	0
 3599 01f8 28       		.uleb128 0x28
 3600 01f9 05       		.uleb128 0x5
 3601 01fa 00       		.byte	0
 3602 01fb 31       		.uleb128 0x31
 3603 01fc 13       		.uleb128 0x13
 3604 01fd 02       		.uleb128 0x2
 3605 01fe 17       		.uleb128 0x17
 3606 01ff 00       		.byte	0
 3607 0200 00       		.byte	0
 3608 0201 29       		.uleb128 0x29
 3609 0202 898201   		.uleb128 0x4109
 3610 0205 01       		.byte	0x1
 3611 0206 11       		.uleb128 0x11
 3612 0207 01       		.uleb128 0x1
 3613 0208 31       		.uleb128 0x31
 3614 0209 13       		.uleb128 0x13
 3615 020a 00       		.byte	0
 3616 020b 00       		.byte	0
 3617 020c 2A       		.uleb128 0x2a
 3618 020d 898201   		.uleb128 0x4109
 3619 0210 01       		.byte	0x1
 3620 0211 11       		.uleb128 0x11
 3621 0212 01       		.uleb128 0x1
 3622 0213 00       		.byte	0
 3623 0214 00       		.byte	0
 3624 0215 2B       		.uleb128 0x2b
 3625 0216 2E       		.uleb128 0x2e
 3626 0217 01       		.byte	0x1
 3627 0218 3F       		.uleb128 0x3f
 3628 0219 19       		.uleb128 0x19
 3629 021a 03       		.uleb128 0x3
 3630 021b 0E       		.uleb128 0xe
 3631 021c 3A       		.uleb128 0x3a
 3632 021d 0B       		.uleb128 0xb
 3633 021e 3B       		.uleb128 0x3b
 3634 021f 0B       		.uleb128 0xb
 3635 0220 27       		.uleb128 0x27
 3636 0221 19       		.uleb128 0x19
 3637 0222 11       		.uleb128 0x11
 3638 0223 01       		.uleb128 0x1
 3639 0224 12       		.uleb128 0x12
 3640 0225 06       		.uleb128 0x6
 3641 0226 40       		.uleb128 0x40
 3642 0227 18       		.uleb128 0x18
ARM GAS  /var/folders/m4/4md61f0s1_g0rzfghffqnxvr0000gn/T//ccHfRd1a.s 			page 65


 3643 0228 9742     		.uleb128 0x2117
 3644 022a 19       		.uleb128 0x19
 3645 022b 01       		.uleb128 0x1
 3646 022c 13       		.uleb128 0x13
 3647 022d 00       		.byte	0
 3648 022e 00       		.byte	0
 3649 022f 2C       		.uleb128 0x2c
 3650 0230 2E       		.uleb128 0x2e
 3651 0231 01       		.byte	0x1
 3652 0232 3F       		.uleb128 0x3f
 3653 0233 19       		.uleb128 0x19
 3654 0234 03       		.uleb128 0x3
 3655 0235 0E       		.uleb128 0xe
 3656 0236 3A       		.uleb128 0x3a
 3657 0237 0B       		.uleb128 0xb
 3658 0238 3B       		.uleb128 0x3b
 3659 0239 05       		.uleb128 0x5
 3660 023a 27       		.uleb128 0x27
 3661 023b 19       		.uleb128 0x19
 3662 023c 11       		.uleb128 0x11
 3663 023d 01       		.uleb128 0x1
 3664 023e 12       		.uleb128 0x12
 3665 023f 06       		.uleb128 0x6
 3666 0240 40       		.uleb128 0x40
 3667 0241 18       		.uleb128 0x18
 3668 0242 9742     		.uleb128 0x2117
 3669 0244 19       		.uleb128 0x19
 3670 0245 01       		.uleb128 0x1
 3671 0246 13       		.uleb128 0x13
 3672 0247 00       		.byte	0
 3673 0248 00       		.byte	0
 3674 0249 2D       		.uleb128 0x2d
 3675 024a 05       		.uleb128 0x5
 3676 024b 00       		.byte	0
 3677 024c 03       		.uleb128 0x3
 3678 024d 0E       		.uleb128 0xe
 3679 024e 3A       		.uleb128 0x3a
 3680 024f 0B       		.uleb128 0xb
 3681 0250 3B       		.uleb128 0x3b
 3682 0251 05       		.uleb128 0x5
 3683 0252 49       		.uleb128 0x49
 3684 0253 13       		.uleb128 0x13
 3685 0254 02       		.uleb128 0x2
 3686 0255 17       		.uleb128 0x17
 3687 0256 00       		.byte	0
 3688 0257 00       		.byte	0
 3689 0258 2E       		.uleb128 0x2e
 3690 0259 34       		.uleb128 0x34
 3691 025a 00       		.byte	0
 3692 025b 03       		.uleb128 0x3
 3693 025c 0E       		.uleb128 0xe
 3694 025d 49       		.uleb128 0x49
 3695 025e 13       		.uleb128 0x13
 3696 025f 34       		.uleb128 0x34
 3697 0260 19       		.uleb128 0x19
 3698 0261 00       		.byte	0
 3699 0262 00       		.byte	0
ARM GAS  /var/folders/m4/4md61f0s1_g0rzfghffqnxvr0000gn/T//ccHfRd1a.s 			page 66


 3700 0263 2F       		.uleb128 0x2f
 3701 0264 0B       		.uleb128 0xb
 3702 0265 01       		.byte	0x1
 3703 0266 11       		.uleb128 0x11
 3704 0267 01       		.uleb128 0x1
 3705 0268 12       		.uleb128 0x12
 3706 0269 06       		.uleb128 0x6
 3707 026a 00       		.byte	0
 3708 026b 00       		.byte	0
 3709 026c 30       		.uleb128 0x30
 3710 026d 34       		.uleb128 0x34
 3711 026e 00       		.byte	0
 3712 026f 03       		.uleb128 0x3
 3713 0270 08       		.uleb128 0x8
 3714 0271 3A       		.uleb128 0x3a
 3715 0272 0B       		.uleb128 0xb
 3716 0273 3B       		.uleb128 0x3b
 3717 0274 05       		.uleb128 0x5
 3718 0275 49       		.uleb128 0x49
 3719 0276 13       		.uleb128 0x13
 3720 0277 00       		.byte	0
 3721 0278 00       		.byte	0
 3722 0279 31       		.uleb128 0x31
 3723 027a 898201   		.uleb128 0x4109
 3724 027d 01       		.byte	0x1
 3725 027e 11       		.uleb128 0x11
 3726 027f 01       		.uleb128 0x1
 3727 0280 31       		.uleb128 0x31
 3728 0281 13       		.uleb128 0x13
 3729 0282 01       		.uleb128 0x1
 3730 0283 13       		.uleb128 0x13
 3731 0284 00       		.byte	0
 3732 0285 00       		.byte	0
 3733 0286 32       		.uleb128 0x32
 3734 0287 898201   		.uleb128 0x4109
 3735 028a 00       		.byte	0
 3736 028b 11       		.uleb128 0x11
 3737 028c 01       		.uleb128 0x1
 3738 028d 31       		.uleb128 0x31
 3739 028e 13       		.uleb128 0x13
 3740 028f 00       		.byte	0
 3741 0290 00       		.byte	0
 3742 0291 33       		.uleb128 0x33
 3743 0292 05       		.uleb128 0x5
 3744 0293 00       		.byte	0
 3745 0294 03       		.uleb128 0x3
 3746 0295 0E       		.uleb128 0xe
 3747 0296 3A       		.uleb128 0x3a
 3748 0297 0B       		.uleb128 0xb
 3749 0298 3B       		.uleb128 0x3b
 3750 0299 05       		.uleb128 0x5
 3751 029a 49       		.uleb128 0x49
 3752 029b 13       		.uleb128 0x13
 3753 029c 02       		.uleb128 0x2
 3754 029d 18       		.uleb128 0x18
 3755 029e 00       		.byte	0
 3756 029f 00       		.byte	0
ARM GAS  /var/folders/m4/4md61f0s1_g0rzfghffqnxvr0000gn/T//ccHfRd1a.s 			page 67


 3757 02a0 34       		.uleb128 0x34
 3758 02a1 05       		.uleb128 0x5
 3759 02a2 00       		.byte	0
 3760 02a3 03       		.uleb128 0x3
 3761 02a4 08       		.uleb128 0x8
 3762 02a5 3A       		.uleb128 0x3a
 3763 02a6 0B       		.uleb128 0xb
 3764 02a7 3B       		.uleb128 0x3b
 3765 02a8 05       		.uleb128 0x5
 3766 02a9 49       		.uleb128 0x49
 3767 02aa 13       		.uleb128 0x13
 3768 02ab 02       		.uleb128 0x2
 3769 02ac 17       		.uleb128 0x17
 3770 02ad 00       		.byte	0
 3771 02ae 00       		.byte	0
 3772 02af 35       		.uleb128 0x35
 3773 02b0 05       		.uleb128 0x5
 3774 02b1 00       		.byte	0
 3775 02b2 03       		.uleb128 0x3
 3776 02b3 08       		.uleb128 0x8
 3777 02b4 3A       		.uleb128 0x3a
 3778 02b5 0B       		.uleb128 0xb
 3779 02b6 3B       		.uleb128 0x3b
 3780 02b7 05       		.uleb128 0x5
 3781 02b8 49       		.uleb128 0x49
 3782 02b9 13       		.uleb128 0x13
 3783 02ba 02       		.uleb128 0x2
 3784 02bb 18       		.uleb128 0x18
 3785 02bc 00       		.byte	0
 3786 02bd 00       		.byte	0
 3787 02be 36       		.uleb128 0x36
 3788 02bf 26       		.uleb128 0x26
 3789 02c0 00       		.byte	0
 3790 02c1 00       		.byte	0
 3791 02c2 00       		.byte	0
 3792 02c3 37       		.uleb128 0x37
 3793 02c4 2E       		.uleb128 0x2e
 3794 02c5 01       		.byte	0x1
 3795 02c6 3F       		.uleb128 0x3f
 3796 02c7 19       		.uleb128 0x19
 3797 02c8 03       		.uleb128 0x3
 3798 02c9 0E       		.uleb128 0xe
 3799 02ca 3A       		.uleb128 0x3a
 3800 02cb 0B       		.uleb128 0xb
 3801 02cc 3B       		.uleb128 0x3b
 3802 02cd 05       		.uleb128 0x5
 3803 02ce 27       		.uleb128 0x27
 3804 02cf 19       		.uleb128 0x19
 3805 02d0 49       		.uleb128 0x49
 3806 02d1 13       		.uleb128 0x13
 3807 02d2 11       		.uleb128 0x11
 3808 02d3 01       		.uleb128 0x1
 3809 02d4 12       		.uleb128 0x12
 3810 02d5 06       		.uleb128 0x6
 3811 02d6 40       		.uleb128 0x40
 3812 02d7 18       		.uleb128 0x18
 3813 02d8 9742     		.uleb128 0x2117
ARM GAS  /var/folders/m4/4md61f0s1_g0rzfghffqnxvr0000gn/T//ccHfRd1a.s 			page 68


 3814 02da 19       		.uleb128 0x19
 3815 02db 01       		.uleb128 0x1
 3816 02dc 13       		.uleb128 0x13
 3817 02dd 00       		.byte	0
 3818 02de 00       		.byte	0
 3819 02df 38       		.uleb128 0x38
 3820 02e0 34       		.uleb128 0x34
 3821 02e1 00       		.byte	0
 3822 02e2 03       		.uleb128 0x3
 3823 02e3 0E       		.uleb128 0xe
 3824 02e4 3A       		.uleb128 0x3a
 3825 02e5 0B       		.uleb128 0xb
 3826 02e6 3B       		.uleb128 0x3b
 3827 02e7 0B       		.uleb128 0xb
 3828 02e8 49       		.uleb128 0x49
 3829 02e9 13       		.uleb128 0x13
 3830 02ea 02       		.uleb128 0x2
 3831 02eb 18       		.uleb128 0x18
 3832 02ec 00       		.byte	0
 3833 02ed 00       		.byte	0
 3834 02ee 39       		.uleb128 0x39
 3835 02ef 34       		.uleb128 0x34
 3836 02f0 00       		.byte	0
 3837 02f1 03       		.uleb128 0x3
 3838 02f2 0E       		.uleb128 0xe
 3839 02f3 3A       		.uleb128 0x3a
 3840 02f4 0B       		.uleb128 0xb
 3841 02f5 3B       		.uleb128 0x3b
 3842 02f6 05       		.uleb128 0x5
 3843 02f7 49       		.uleb128 0x49
 3844 02f8 13       		.uleb128 0x13
 3845 02f9 3F       		.uleb128 0x3f
 3846 02fa 19       		.uleb128 0x19
 3847 02fb 3C       		.uleb128 0x3c
 3848 02fc 19       		.uleb128 0x19
 3849 02fd 00       		.byte	0
 3850 02fe 00       		.byte	0
 3851 02ff 3A       		.uleb128 0x3a
 3852 0300 34       		.uleb128 0x34
 3853 0301 00       		.byte	0
 3854 0302 03       		.uleb128 0x3
 3855 0303 08       		.uleb128 0x8
 3856 0304 3A       		.uleb128 0x3a
 3857 0305 0B       		.uleb128 0xb
 3858 0306 3B       		.uleb128 0x3b
 3859 0307 05       		.uleb128 0x5
 3860 0308 49       		.uleb128 0x49
 3861 0309 13       		.uleb128 0x13
 3862 030a 3F       		.uleb128 0x3f
 3863 030b 19       		.uleb128 0x19
 3864 030c 3C       		.uleb128 0x3c
 3865 030d 19       		.uleb128 0x19
 3866 030e 00       		.byte	0
 3867 030f 00       		.byte	0
 3868 0310 3B       		.uleb128 0x3b
 3869 0311 34       		.uleb128 0x34
 3870 0312 00       		.byte	0
ARM GAS  /var/folders/m4/4md61f0s1_g0rzfghffqnxvr0000gn/T//ccHfRd1a.s 			page 69


 3871 0313 03       		.uleb128 0x3
 3872 0314 0E       		.uleb128 0xe
 3873 0315 3A       		.uleb128 0x3a
 3874 0316 0B       		.uleb128 0xb
 3875 0317 3B       		.uleb128 0x3b
 3876 0318 0B       		.uleb128 0xb
 3877 0319 49       		.uleb128 0x49
 3878 031a 13       		.uleb128 0x13
 3879 031b 3F       		.uleb128 0x3f
 3880 031c 19       		.uleb128 0x19
 3881 031d 02       		.uleb128 0x2
 3882 031e 18       		.uleb128 0x18
 3883 031f 00       		.byte	0
 3884 0320 00       		.byte	0
 3885 0321 3C       		.uleb128 0x3c
 3886 0322 2E       		.uleb128 0x2e
 3887 0323 00       		.byte	0
 3888 0324 3F       		.uleb128 0x3f
 3889 0325 19       		.uleb128 0x19
 3890 0326 3C       		.uleb128 0x3c
 3891 0327 19       		.uleb128 0x19
 3892 0328 6E       		.uleb128 0x6e
 3893 0329 0E       		.uleb128 0xe
 3894 032a 03       		.uleb128 0x3
 3895 032b 0E       		.uleb128 0xe
 3896 032c 3A       		.uleb128 0x3a
 3897 032d 0B       		.uleb128 0xb
 3898 032e 3B       		.uleb128 0x3b
 3899 032f 05       		.uleb128 0x5
 3900 0330 00       		.byte	0
 3901 0331 00       		.byte	0
 3902 0332 3D       		.uleb128 0x3d
 3903 0333 2E       		.uleb128 0x2e
 3904 0334 00       		.byte	0
 3905 0335 3F       		.uleb128 0x3f
 3906 0336 19       		.uleb128 0x19
 3907 0337 3C       		.uleb128 0x3c
 3908 0338 19       		.uleb128 0x19
 3909 0339 6E       		.uleb128 0x6e
 3910 033a 0E       		.uleb128 0xe
 3911 033b 03       		.uleb128 0x3
 3912 033c 0E       		.uleb128 0xe
 3913 033d 3A       		.uleb128 0x3a
 3914 033e 0B       		.uleb128 0xb
 3915 033f 3B       		.uleb128 0x3b
 3916 0340 0B       		.uleb128 0xb
 3917 0341 00       		.byte	0
 3918 0342 00       		.byte	0
 3919 0343 00       		.byte	0
 3920              		.section	.debug_loc,"",%progbits
 3921              	.Ldebug_loc0:
 3922              	.LLST0:
 3923 0000 00000000 		.4byte	.LVL0
 3924 0004 0A000000 		.4byte	.LVL2
 3925 0008 0100     		.2byte	0x1
 3926 000a 50       		.byte	0x50
 3927 000b 0A000000 		.4byte	.LVL2
ARM GAS  /var/folders/m4/4md61f0s1_g0rzfghffqnxvr0000gn/T//ccHfRd1a.s 			page 70


 3928 000f 14000000 		.4byte	.LFE269
 3929 0013 0400     		.2byte	0x4
 3930 0015 F3       		.byte	0xf3
 3931 0016 01       		.uleb128 0x1
 3932 0017 50       		.byte	0x50
 3933 0018 9F       		.byte	0x9f
 3934 0019 00000000 		.4byte	0
 3935 001d 00000000 		.4byte	0
 3936              	.LLST1:
 3937 0021 00000000 		.4byte	.LVL0
 3938 0025 0D000000 		.4byte	.LVL3-1
 3939 0029 0100     		.2byte	0x1
 3940 002b 51       		.byte	0x51
 3941 002c 0D000000 		.4byte	.LVL3-1
 3942 0030 14000000 		.4byte	.LFE269
 3943 0034 0400     		.2byte	0x4
 3944 0036 F3       		.byte	0xf3
 3945 0037 01       		.uleb128 0x1
 3946 0038 51       		.byte	0x51
 3947 0039 9F       		.byte	0x9f
 3948 003a 00000000 		.4byte	0
 3949 003e 00000000 		.4byte	0
 3950              	.LLST2:
 3951 0042 00000000 		.4byte	.LVL4
 3952 0046 0A000000 		.4byte	.LVL5
 3953 004a 0100     		.2byte	0x1
 3954 004c 50       		.byte	0x50
 3955 004d 0A000000 		.4byte	.LVL5
 3956 0051 74000000 		.4byte	.LVL13
 3957 0055 0100     		.2byte	0x1
 3958 0057 54       		.byte	0x54
 3959 0058 74000000 		.4byte	.LVL13
 3960 005c 76000000 		.4byte	.LVL14
 3961 0060 0100     		.2byte	0x1
 3962 0062 50       		.byte	0x50
 3963 0063 76000000 		.4byte	.LVL14
 3964 0067 80000000 		.4byte	.LFE268
 3965 006b 0100     		.2byte	0x1
 3966 006d 54       		.byte	0x54
 3967 006e 00000000 		.4byte	0
 3968 0072 00000000 		.4byte	0
 3969              	.LLST3:
 3970 0076 00000000 		.4byte	.LVL4
 3971 007a 0A000000 		.4byte	.LVL5
 3972 007e 0100     		.2byte	0x1
 3973 0080 51       		.byte	0x51
 3974 0081 0A000000 		.4byte	.LVL5
 3975 0085 74000000 		.4byte	.LVL13
 3976 0089 0400     		.2byte	0x4
 3977 008b F3       		.byte	0xf3
 3978 008c 01       		.uleb128 0x1
 3979 008d 51       		.byte	0x51
 3980 008e 9F       		.byte	0x9f
 3981 008f 74000000 		.4byte	.LVL13
 3982 0093 79000000 		.4byte	.LVL15-1
 3983 0097 0100     		.2byte	0x1
 3984 0099 51       		.byte	0x51
ARM GAS  /var/folders/m4/4md61f0s1_g0rzfghffqnxvr0000gn/T//ccHfRd1a.s 			page 71


 3985 009a 79000000 		.4byte	.LVL15-1
 3986 009e 80000000 		.4byte	.LFE268
 3987 00a2 0400     		.2byte	0x4
 3988 00a4 F3       		.byte	0xf3
 3989 00a5 01       		.uleb128 0x1
 3990 00a6 51       		.byte	0x51
 3991 00a7 9F       		.byte	0x9f
 3992 00a8 00000000 		.4byte	0
 3993 00ac 00000000 		.4byte	0
 3994              	.LLST4:
 3995 00b0 56000000 		.4byte	.LVL7
 3996 00b4 5C000000 		.4byte	.LVL8
 3997 00b8 0300     		.2byte	0x3
 3998 00ba 08       		.byte	0x8
 3999 00bb 20       		.byte	0x20
 4000 00bc 9F       		.byte	0x9f
 4001 00bd 00000000 		.4byte	0
 4002 00c1 00000000 		.4byte	0
 4003              	.LLST5:
 4004 00c5 5C000000 		.4byte	.LVL8
 4005 00c9 66000000 		.4byte	.LVL10
 4006 00cd 0200     		.2byte	0x2
 4007 00cf 30       		.byte	0x30
 4008 00d0 9F       		.byte	0x9f
 4009 00d1 00000000 		.4byte	0
 4010 00d5 00000000 		.4byte	0
 4011              	.LLST6:
 4012 00d9 5C000000 		.4byte	.LVL8
 4013 00dd 62000000 		.4byte	.LVL9
 4014 00e1 0300     		.2byte	0x3
 4015 00e3 74       		.byte	0x74
 4016 00e4 08       		.sleb128 8
 4017 00e5 9F       		.byte	0x9f
 4018 00e6 62000000 		.4byte	.LVL9
 4019 00ea 65000000 		.4byte	.LVL10-1
 4020 00ee 0100     		.2byte	0x1
 4021 00f0 50       		.byte	0x50
 4022 00f1 65000000 		.4byte	.LVL10-1
 4023 00f5 66000000 		.4byte	.LVL10
 4024 00f9 0300     		.2byte	0x3
 4025 00fb 74       		.byte	0x74
 4026 00fc 08       		.sleb128 8
 4027 00fd 9F       		.byte	0x9f
 4028 00fe 00000000 		.4byte	0
 4029 0102 00000000 		.4byte	0
 4030              	.LLST7:
 4031 0106 66000000 		.4byte	.LVL10
 4032 010a 6C000000 		.4byte	.LVL11
 4033 010e 0200     		.2byte	0x2
 4034 0110 30       		.byte	0x30
 4035 0111 9F       		.byte	0x9f
 4036 0112 00000000 		.4byte	0
 4037 0116 00000000 		.4byte	0
 4038              	.LLST8:
 4039 011a 00000000 		.4byte	.LVL17
 4040 011e 0C000000 		.4byte	.LVL18
 4041 0122 0100     		.2byte	0x1
ARM GAS  /var/folders/m4/4md61f0s1_g0rzfghffqnxvr0000gn/T//ccHfRd1a.s 			page 72


 4042 0124 50       		.byte	0x50
 4043 0125 0C000000 		.4byte	.LVL18
 4044 0129 46000000 		.4byte	.LVL19
 4045 012d 0100     		.2byte	0x1
 4046 012f 54       		.byte	0x54
 4047 0130 46000000 		.4byte	.LVL19
 4048 0134 4C000000 		.4byte	.LVL20
 4049 0138 0100     		.2byte	0x1
 4050 013a 50       		.byte	0x50
 4051 013b 4C000000 		.4byte	.LVL20
 4052 013f 60000000 		.4byte	.LVL21
 4053 0143 0100     		.2byte	0x1
 4054 0145 54       		.byte	0x54
 4055 0146 60000000 		.4byte	.LVL21
 4056 014a 66000000 		.4byte	.LVL22
 4057 014e 0100     		.2byte	0x1
 4058 0150 50       		.byte	0x50
 4059 0151 66000000 		.4byte	.LVL22
 4060 0155 94000000 		.4byte	.LFE271
 4061 0159 0100     		.2byte	0x1
 4062 015b 54       		.byte	0x54
 4063 015c 00000000 		.4byte	0
 4064 0160 00000000 		.4byte	0
 4065              	.LLST9:
 4066 0164 00000000 		.4byte	.LVL25
 4067 0168 12000000 		.4byte	.LVL26
 4068 016c 0100     		.2byte	0x1
 4069 016e 50       		.byte	0x50
 4070 016f 12000000 		.4byte	.LVL26
 4071 0173 3C000000 		.4byte	.LFE272
 4072 0177 0100     		.2byte	0x1
 4073 0179 54       		.byte	0x54
 4074 017a 00000000 		.4byte	0
 4075 017e 00000000 		.4byte	0
 4076              	.LLST10:
 4077 0182 00000000 		.4byte	.LVL32
 4078 0186 10000000 		.4byte	.LVL33
 4079 018a 0100     		.2byte	0x1
 4080 018c 50       		.byte	0x50
 4081 018d 10000000 		.4byte	.LVL33
 4082 0191 3C000000 		.4byte	.LFE275
 4083 0195 0400     		.2byte	0x4
 4084 0197 F3       		.byte	0xf3
 4085 0198 01       		.uleb128 0x1
 4086 0199 50       		.byte	0x50
 4087 019a 9F       		.byte	0x9f
 4088 019b 00000000 		.4byte	0
 4089 019f 00000000 		.4byte	0
 4090              	.LLST11:
 4091 01a3 00000000 		.4byte	.LVL32
 4092 01a7 20000000 		.4byte	.LVL34
 4093 01ab 0100     		.2byte	0x1
 4094 01ad 51       		.byte	0x51
 4095 01ae 20000000 		.4byte	.LVL34
 4096 01b2 3C000000 		.4byte	.LFE275
 4097 01b6 0400     		.2byte	0x4
 4098 01b8 F3       		.byte	0xf3
ARM GAS  /var/folders/m4/4md61f0s1_g0rzfghffqnxvr0000gn/T//ccHfRd1a.s 			page 73


 4099 01b9 01       		.uleb128 0x1
 4100 01ba 51       		.byte	0x51
 4101 01bb 9F       		.byte	0x9f
 4102 01bc 00000000 		.4byte	0
 4103 01c0 00000000 		.4byte	0
 4104              	.LLST12:
 4105 01c4 00000000 		.4byte	.LVL35
 4106 01c8 0E000000 		.4byte	.LVL36
 4107 01cc 0100     		.2byte	0x1
 4108 01ce 50       		.byte	0x50
 4109 01cf 0E000000 		.4byte	.LVL36
 4110 01d3 36000000 		.4byte	.LFE276
 4111 01d7 0400     		.2byte	0x4
 4112 01d9 F3       		.byte	0xf3
 4113 01da 01       		.uleb128 0x1
 4114 01db 50       		.byte	0x50
 4115 01dc 9F       		.byte	0x9f
 4116 01dd 00000000 		.4byte	0
 4117 01e1 00000000 		.4byte	0
 4118              	.LLST13:
 4119 01e5 00000000 		.4byte	.LVL35
 4120 01e9 24000000 		.4byte	.LVL37
 4121 01ed 0100     		.2byte	0x1
 4122 01ef 53       		.byte	0x53
 4123 01f0 24000000 		.4byte	.LVL37
 4124 01f4 36000000 		.4byte	.LFE276
 4125 01f8 0400     		.2byte	0x4
 4126 01fa F3       		.byte	0xf3
 4127 01fb 01       		.uleb128 0x1
 4128 01fc 53       		.byte	0x53
 4129 01fd 9F       		.byte	0x9f
 4130 01fe 00000000 		.4byte	0
 4131 0202 00000000 		.4byte	0
 4132              	.LLST14:
 4133 0206 00000000 		.4byte	.LVL38
 4134 020a 0E000000 		.4byte	.LVL39
 4135 020e 0100     		.2byte	0x1
 4136 0210 50       		.byte	0x50
 4137 0211 0E000000 		.4byte	.LVL39
 4138 0215 38000000 		.4byte	.LFE277
 4139 0219 0400     		.2byte	0x4
 4140 021b F3       		.byte	0xf3
 4141 021c 01       		.uleb128 0x1
 4142 021d 50       		.byte	0x50
 4143 021e 9F       		.byte	0x9f
 4144 021f 00000000 		.4byte	0
 4145 0223 00000000 		.4byte	0
 4146              	.LLST15:
 4147 0227 00000000 		.4byte	.LVL38
 4148 022b 22000000 		.4byte	.LVL40
 4149 022f 0100     		.2byte	0x1
 4150 0231 52       		.byte	0x52
 4151 0232 22000000 		.4byte	.LVL40
 4152 0236 38000000 		.4byte	.LFE277
 4153 023a 0400     		.2byte	0x4
 4154 023c F3       		.byte	0xf3
 4155 023d 01       		.uleb128 0x1
ARM GAS  /var/folders/m4/4md61f0s1_g0rzfghffqnxvr0000gn/T//ccHfRd1a.s 			page 74


 4156 023e 52       		.byte	0x52
 4157 023f 9F       		.byte	0x9f
 4158 0240 00000000 		.4byte	0
 4159 0244 00000000 		.4byte	0
 4160              	.LLST16:
 4161 0248 00000000 		.4byte	.LVL41
 4162 024c 0E000000 		.4byte	.LVL42
 4163 0250 0100     		.2byte	0x1
 4164 0252 50       		.byte	0x50
 4165 0253 0E000000 		.4byte	.LVL42
 4166 0257 38000000 		.4byte	.LFE278
 4167 025b 0400     		.2byte	0x4
 4168 025d F3       		.byte	0xf3
 4169 025e 01       		.uleb128 0x1
 4170 025f 50       		.byte	0x50
 4171 0260 9F       		.byte	0x9f
 4172 0261 00000000 		.4byte	0
 4173 0265 00000000 		.4byte	0
 4174              	.LLST17:
 4175 0269 00000000 		.4byte	.LVL41
 4176 026d 22000000 		.4byte	.LVL43
 4177 0271 0100     		.2byte	0x1
 4178 0273 52       		.byte	0x52
 4179 0274 22000000 		.4byte	.LVL43
 4180 0278 38000000 		.4byte	.LFE278
 4181 027c 0400     		.2byte	0x4
 4182 027e F3       		.byte	0xf3
 4183 027f 01       		.uleb128 0x1
 4184 0280 52       		.byte	0x52
 4185 0281 9F       		.byte	0x9f
 4186 0282 00000000 		.4byte	0
 4187 0286 00000000 		.4byte	0
 4188              	.LLST18:
 4189 028a 00000000 		.4byte	.LVL44
 4190 028e 0C000000 		.4byte	.LVL45
 4191 0292 0100     		.2byte	0x1
 4192 0294 50       		.byte	0x50
 4193 0295 0C000000 		.4byte	.LVL45
 4194 0299 10000000 		.4byte	.LFE279
 4195 029d 0400     		.2byte	0x4
 4196 029f F3       		.byte	0xf3
 4197 02a0 01       		.uleb128 0x1
 4198 02a1 50       		.byte	0x50
 4199 02a2 9F       		.byte	0x9f
 4200 02a3 00000000 		.4byte	0
 4201 02a7 00000000 		.4byte	0
 4202              		.section	.debug_aranges,"",%progbits
 4203 0000 74000000 		.4byte	0x74
 4204 0004 0200     		.2byte	0x2
 4205 0006 00000000 		.4byte	.Ldebug_info0
 4206 000a 04       		.byte	0x4
 4207 000b 00       		.byte	0
 4208 000c 0000     		.2byte	0
 4209 000e 0000     		.2byte	0
 4210 0010 00000000 		.4byte	.LFB269
 4211 0014 14000000 		.4byte	.LFE269-.LFB269
 4212 0018 00000000 		.4byte	.LFB268
ARM GAS  /var/folders/m4/4md61f0s1_g0rzfghffqnxvr0000gn/T//ccHfRd1a.s 			page 75


 4213 001c 80000000 		.4byte	.LFE268-.LFB268
 4214 0020 00000000 		.4byte	.LFB270
 4215 0024 44000000 		.4byte	.LFE270-.LFB270
 4216 0028 00000000 		.4byte	.LFB271
 4217 002c 94000000 		.4byte	.LFE271-.LFB271
 4218 0030 00000000 		.4byte	.LFB272
 4219 0034 3C000000 		.4byte	.LFE272-.LFB272
 4220 0038 00000000 		.4byte	.LFB273
 4221 003c 10000000 		.4byte	.LFE273-.LFB273
 4222 0040 00000000 		.4byte	.LFB274
 4223 0044 10000000 		.4byte	.LFE274-.LFB274
 4224 0048 00000000 		.4byte	.LFB275
 4225 004c 3C000000 		.4byte	.LFE275-.LFB275
 4226 0050 00000000 		.4byte	.LFB276
 4227 0054 36000000 		.4byte	.LFE276-.LFB276
 4228 0058 00000000 		.4byte	.LFB277
 4229 005c 38000000 		.4byte	.LFE277-.LFB277
 4230 0060 00000000 		.4byte	.LFB278
 4231 0064 38000000 		.4byte	.LFE278-.LFB278
 4232 0068 00000000 		.4byte	.LFB279
 4233 006c 10000000 		.4byte	.LFE279-.LFB279
 4234 0070 00000000 		.4byte	0
 4235 0074 00000000 		.4byte	0
 4236              		.section	.debug_ranges,"",%progbits
 4237              	.Ldebug_ranges0:
 4238 0000 00000000 		.4byte	.LFB269
 4239 0004 14000000 		.4byte	.LFE269
 4240 0008 00000000 		.4byte	.LFB268
 4241 000c 80000000 		.4byte	.LFE268
 4242 0010 00000000 		.4byte	.LFB270
 4243 0014 44000000 		.4byte	.LFE270
 4244 0018 00000000 		.4byte	.LFB271
 4245 001c 94000000 		.4byte	.LFE271
 4246 0020 00000000 		.4byte	.LFB272
 4247 0024 3C000000 		.4byte	.LFE272
 4248 0028 00000000 		.4byte	.LFB273
 4249 002c 10000000 		.4byte	.LFE273
 4250 0030 00000000 		.4byte	.LFB274
 4251 0034 10000000 		.4byte	.LFE274
 4252 0038 00000000 		.4byte	.LFB275
 4253 003c 3C000000 		.4byte	.LFE275
 4254 0040 00000000 		.4byte	.LFB276
 4255 0044 36000000 		.4byte	.LFE276
 4256 0048 00000000 		.4byte	.LFB277
 4257 004c 38000000 		.4byte	.LFE277
 4258 0050 00000000 		.4byte	.LFB278
 4259 0054 38000000 		.4byte	.LFE278
 4260 0058 00000000 		.4byte	.LFB279
 4261 005c 10000000 		.4byte	.LFE279
 4262 0060 00000000 		.4byte	0
 4263 0064 00000000 		.4byte	0
 4264              		.section	.debug_line,"",%progbits
 4265              	.Ldebug_line0:
 4266 0000 1A060000 		.section	.debug_str,"MS",%progbits,1
 4266      02002B04 
 4266      00000201 
 4266      FB0E0D00 
ARM GAS  /var/folders/m4/4md61f0s1_g0rzfghffqnxvr0000gn/T//ccHfRd1a.s 			page 76


 4266      01010101 
 4267              	.LASF87:
 4268 0000 4D314152 		.ascii	"M1AR\000"
 4268      00
 4269              	.LASF150:
 4270 0005 73746D33 		.ascii	"stm32_dma_stream_t\000"
 4270      325F646D 
 4270      615F7374 
 4270      7265616D 
 4270      5F7400
 4271              	.LASF2:
 4272 0018 73697A65 		.ascii	"size_t\000"
 4272      5F7400
 4273              	.LASF84:
 4274 001f 73697A65 		.ascii	"sizetype\000"
 4274      74797065 
 4274      00
 4275              	.LASF133:
 4276 0028 77747365 		.ascii	"wtsemp\000"
 4276      6D7000
 4277              	.LASF29:
 4278 002f 73797374 		.ascii	"systime_t\000"
 4278      696D655F 
 4278      7400
 4279              	.LASF115:
 4280 0039 504C4C49 		.ascii	"PLLI2SCFGR\000"
 4280      32534346 
 4280      475200
 4281              	.LASF34:
 4282 0044 705F6374 		.ascii	"p_ctx\000"
 4282      7800
 4283              	.LASF25:
 4284 004a 74707269 		.ascii	"tprio_t\000"
 4284      6F5F7400 
 4285              	.LASF44:
 4286 0052 705F6D73 		.ascii	"p_msgqueue\000"
 4286      67717565 
 4286      756500
 4287              	.LASF60:
 4288 005d 725F6374 		.ascii	"r_ctx\000"
 4288      7800
 4289              	.LASF224:
 4290 0063 474E5520 		.ascii	"GNU C99 5.2.1 20151202 (release) [ARM/embedded-5-br"
 4290      43393920 
 4290      352E322E 
 4290      31203230 
 4290      31353132 
 4291 0096 616E6368 		.ascii	"anch revision 231848] -mcpu=cortex-m4 -mfloat-abi=h"
 4291      20726576 
 4291      6973696F 
 4291      6E203233 
 4291      31383438 
 4292 00c9 61726420 		.ascii	"ard -mfpu=fpv4-sp-d16 -mno-thumb-interwork -mthumb "
 4292      2D6D6670 
 4292      753D6670 
 4292      76342D73 
 4292      702D6431 
ARM GAS  /var/folders/m4/4md61f0s1_g0rzfghffqnxvr0000gn/T//ccHfRd1a.s 			page 77


 4293 00fc 2D676764 		.ascii	"-ggdb -O2 -std=c99 -fomit-frame-pointer -falign-fun"
 4293      62202D4F 
 4293      32202D73 
 4293      74643D63 
 4293      3939202D 
 4294 012f 6374696F 		.ascii	"ctions=16 -ffunction-sections -fdata-sections -fno-"
 4294      6E733D31 
 4294      36202D66 
 4294      66756E63 
 4294      74696F6E 
 4295 0162 636F6D6D 		.ascii	"common\000"
 4295      6F6E00
 4296              	.LASF17:
 4297 0169 696E7433 		.ascii	"int32_t\000"
 4297      325F7400 
 4298              	.LASF220:
 4299 0171 63685468 		.ascii	"chThdResumeI\000"
 4299      64526573 
 4299      756D6549 
 4299      00
 4300              	.LASF64:
 4301 017e 76746675 		.ascii	"vtfunc_t\000"
 4301      6E635F74 
 4301      00
 4302              	.LASF223:
 4303 0187 646D6153 		.ascii	"dmaStreamRelease\000"
 4303      74726561 
 4303      6D52656C 
 4303      65617365 
 4303      00
 4304              	.LASF73:
 4305 0198 63685F76 		.ascii	"ch_virtual_timers_list\000"
 4305      69727475 
 4305      616C5F74 
 4305      696D6572 
 4305      735F6C69 
 4306              	.LASF182:
 4307 01af 7373706F 		.ascii	"ssport\000"
 4307      727400
 4308              	.LASF227:
 4309 01b6 5F5F6675 		.ascii	"__func__\000"
 4309      6E635F5F 
 4309      00
 4310              	.LASF215:
 4311 01bf 64756D6D 		.ascii	"dummyrx\000"
 4311      79727800 
 4312              	.LASF173:
 4313 01c7 636F6E66 		.ascii	"config\000"
 4313      696700
 4314              	.LASF172:
 4315 01ce 73746174 		.ascii	"state\000"
 4315      6500
 4316              	.LASF218:
 4317 01d4 53504944 		.ascii	"SPID1\000"
 4317      3100
 4318              	.LASF205:
 4319 01da 7370695F 		.ascii	"spi_lld_select\000"
ARM GAS  /var/folders/m4/4md61f0s1_g0rzfghffqnxvr0000gn/T//ccHfRd1a.s 			page 78


 4319      6C6C645F 
 4319      73656C65 
 4319      637400
 4320              	.LASF197:
 4321 01e9 6F73616C 		.ascii	"osalSysLockFromISR\000"
 4321      5379734C 
 4321      6F636B46 
 4321      726F6D49 
 4321      535200
 4322              	.LASF204:
 4323 01fc 7370695F 		.ascii	"spi_lld_stop\000"
 4323      6C6C645F 
 4323      73746F70 
 4323      00
 4324              	.LASF196:
 4325 0209 6F73616C 		.ascii	"osalThreadResumeI\000"
 4325      54687265 
 4325      61645265 
 4325      73756D65 
 4325      4900
 4326              	.LASF141:
 4327 021b 6D5F6F77 		.ascii	"m_owner\000"
 4327      6E657200 
 4328              	.LASF71:
 4329 0223 76745F70 		.ascii	"vt_par\000"
 4329      617200
 4330              	.LASF181:
 4331 022a 656E645F 		.ascii	"end_cb\000"
 4331      636200
 4332              	.LASF130:
 4333 0231 65786974 		.ascii	"exitcode\000"
 4333      636F6465 
 4333      00
 4334              	.LASF120:
 4335 023a 49325343 		.ascii	"I2SCFGR\000"
 4335      46475200 
 4336              	.LASF3:
 4337 0242 5F5F7569 		.ascii	"__uint8_t\000"
 4337      6E74385F 
 4337      7400
 4338              	.LASF135:
 4339 024c 65776D61 		.ascii	"ewmask\000"
 4339      736B00
 4340              	.LASF106:
 4341 0253 41484232 		.ascii	"AHB2LPENR\000"
 4341      4C50454E 
 4341      5200
 4342              	.LASF214:
 4343 025d 64756D6D 		.ascii	"dummytx\000"
 4343      79747800 
 4344              	.LASF157:
 4345 0265 50555044 		.ascii	"PUPDR\000"
 4345      5200
 4346              	.LASF35:
 4347 026b 705F6E65 		.ascii	"p_newer\000"
 4347      77657200 
 4348              	.LASF166:
ARM GAS  /var/folders/m4/4md61f0s1_g0rzfghffqnxvr0000gn/T//ccHfRd1a.s 			page 79


 4349 0273 5350495F 		.ascii	"SPI_STOP\000"
 4349      53544F50 
 4349      00
 4350              	.LASF9:
 4351 027c 6C6F6E67 		.ascii	"long int\000"
 4351      20696E74 
 4351      00
 4352              	.LASF165:
 4353 0285 5350495F 		.ascii	"SPI_UNINIT\000"
 4353      554E494E 
 4353      495400
 4354              	.LASF31:
 4355 0290 705F6E65 		.ascii	"p_next\000"
 4355      787400
 4356              	.LASF186:
 4357 0297 706F7274 		.ascii	"port_unlock\000"
 4357      5F756E6C 
 4357      6F636B00 
 4358              	.LASF32:
 4359 02a3 705F7072 		.ascii	"p_prev\000"
 4359      657600
 4360              	.LASF207:
 4361 02aa 7370695F 		.ascii	"spi_lld_ignore\000"
 4361      6C6C645F 
 4361      69676E6F 
 4361      726500
 4362              	.LASF189:
 4363 02b9 63685379 		.ascii	"chSysLockFromISR\000"
 4363      734C6F63 
 4363      6B46726F 
 4363      6D495352 
 4363      00
 4364              	.LASF164:
 4365 02ca 696F706F 		.ascii	"ioportid_t\000"
 4365      72746964 
 4365      5F7400
 4366              	.LASF22:
 4367 02d5 74737461 		.ascii	"tstate_t\000"
 4367      74655F74 
 4367      00
 4368              	.LASF54:
 4369 02de 74687265 		.ascii	"threads_queue_t\000"
 4369      6164735F 
 4369      71756575 
 4369      655F7400 
 4370              	.LASF47:
 4371 02ee 705F6D74 		.ascii	"p_mtxlist\000"
 4371      786C6973 
 4371      7400
 4372              	.LASF209:
 4373 02f8 74786275 		.ascii	"txbuf\000"
 4373      6600
 4374              	.LASF123:
 4375 02fe 72656761 		.ascii	"regarm_t\000"
 4375      726D5F74 
 4375      00
 4376              	.LASF103:
ARM GAS  /var/folders/m4/4md61f0s1_g0rzfghffqnxvr0000gn/T//ccHfRd1a.s 			page 80


 4377 0307 41504232 		.ascii	"APB2ENR\000"
 4377      454E5200 
 4378              	.LASF105:
 4379 030f 41484231 		.ascii	"AHB1LPENR\000"
 4379      4C50454E 
 4379      5200
 4380              	.LASF1:
 4381 0319 7369676E 		.ascii	"signed char\000"
 4381      65642063 
 4381      68617200 
 4382              	.LASF41:
 4383 0325 705F7072 		.ascii	"p_preempt\000"
 4383      65656D70 
 4383      7400
 4384              	.LASF15:
 4385 032f 75696E74 		.ascii	"uint8_t\000"
 4385      385F7400 
 4386              	.LASF27:
 4387 0337 6576656E 		.ascii	"eventmask_t\000"
 4387      746D6173 
 4387      6B5F7400 
 4388              	.LASF125:
 4389 0343 636F6E74 		.ascii	"context\000"
 4389      65787400 
 4390              	.LASF203:
 4391 034b 7370695F 		.ascii	"spi_lld_start\000"
 4391      6C6C645F 
 4391      73746172 
 4391      7400
 4392              	.LASF132:
 4393 0359 77747472 		.ascii	"wttrp\000"
 4393      7000
 4394              	.LASF190:
 4395 035f 63685379 		.ascii	"chSysUnlockFromISR\000"
 4395      73556E6C 
 4395      6F636B46 
 4395      726F6D49 
 4395      535200
 4396              	.LASF94:
 4397 0372 52455345 		.ascii	"RESERVED0\000"
 4397      52564544 
 4397      3000
 4398              	.LASF97:
 4399 037c 52455345 		.ascii	"RESERVED1\000"
 4399      52564544 
 4399      3100
 4400              	.LASF4:
 4401 0386 756E7369 		.ascii	"unsigned char\000"
 4401      676E6564 
 4401      20636861 
 4401      7200
 4402              	.LASF104:
 4403 0394 52455345 		.ascii	"RESERVED3\000"
 4403      52564544 
 4403      3300
 4404              	.LASF108:
 4405 039e 52455345 		.ascii	"RESERVED4\000"
ARM GAS  /var/folders/m4/4md61f0s1_g0rzfghffqnxvr0000gn/T//ccHfRd1a.s 			page 81


 4405      52564544 
 4405      3400
 4406              	.LASF111:
 4407 03a8 52455345 		.ascii	"RESERVED5\000"
 4407      52564544 
 4407      3500
 4408              	.LASF113:
 4409 03b2 52455345 		.ascii	"RESERVED6\000"
 4409      52564544 
 4409      3600
 4410              	.LASF162:
 4411 03bc 73746D33 		.ascii	"stm32_gpio_t\000"
 4411      325F6770 
 4411      696F5F74 
 4411      00
 4412              	.LASF180:
 4413 03c9 73706963 		.ascii	"spicallback_t\000"
 4413      616C6C62 
 4413      61636B5F 
 4413      7400
 4414              	.LASF77:
 4415 03d7 70616E69 		.ascii	"panic_msg\000"
 4415      635F6D73 
 4415      6700
 4416              	.LASF61:
 4417 03e1 725F6E65 		.ascii	"r_newer\000"
 4417      77657200 
 4418              	.LASF211:
 4419 03e9 7370695F 		.ascii	"spi_lld_send\000"
 4419      6C6C645F 
 4419      73656E64 
 4419      00
 4420              	.LASF75:
 4421 03f6 73797374 		.ascii	"system_debug_t\000"
 4421      656D5F64 
 4421      65627567 
 4421      5F7400
 4422              	.LASF152:
 4423 0405 5F426F6F 		.ascii	"_Bool\000"
 4423      6C00
 4424              	.LASF101:
 4425 040b 52455345 		.ascii	"RESERVED2\000"
 4425      52564544 
 4425      3200
 4426              	.LASF199:
 4427 0415 666C6167 		.ascii	"flags\000"
 4427      7300
 4428              	.LASF143:
 4429 041b 63686172 		.ascii	"char\000"
 4429      00
 4430              	.LASF147:
 4431 0420 69736869 		.ascii	"ishift\000"
 4431      667400
 4432              	.LASF201:
 4433 0427 7370695F 		.ascii	"spi_lld_serve_rx_interrupt\000"
 4433      6C6C645F 
 4433      73657276 
ARM GAS  /var/folders/m4/4md61f0s1_g0rzfghffqnxvr0000gn/T//ccHfRd1a.s 			page 82


 4433      655F7278 
 4433      5F696E74 
 4434              	.LASF91:
 4435 0442 41484231 		.ascii	"AHB1RSTR\000"
 4435      52535452 
 4435      00
 4436              	.LASF33:
 4437 044b 705F7072 		.ascii	"p_prio\000"
 4437      696F00
 4438              	.LASF171:
 4439 0452 53504944 		.ascii	"SPIDriver\000"
 4439      72697665 
 4439      7200
 4440              	.LASF6:
 4441 045c 5F5F7569 		.ascii	"__uint16_t\000"
 4441      6E743136 
 4441      5F7400
 4442              	.LASF99:
 4443 0467 41484232 		.ascii	"AHB2ENR\000"
 4443      454E5200 
 4444              	.LASF131:
 4445 046f 77746F62 		.ascii	"wtobjp\000"
 4445      6A7000
 4446              	.LASF200:
 4447 0476 7370695F 		.ascii	"spi_lld_serve_tx_interrupt\000"
 4447      6C6C645F 
 4447      73657276 
 4447      655F7478 
 4447      5F696E74 
 4448              	.LASF124:
 4449 0491 73746B61 		.ascii	"stkalign_t\000"
 4449      6C69676E 
 4449      5F7400
 4450              	.LASF145:
 4451 049c 73747265 		.ascii	"stream\000"
 4451      616D00
 4452              	.LASF225:
 4453 04a3 43686962 		.ascii	"ChibiOS_16.1.4/os/hal/ports/STM32/LLD/SPIv1/spi_lld"
 4453      694F535F 
 4453      31362E31 
 4453      2E342F6F 
 4453      732F6861 
 4454 04d6 2E6300   		.ascii	".c\000"
 4455              	.LASF163:
 4456 04d9 696F706F 		.ascii	"ioportmask_t\000"
 4456      72746D61 
 4456      736B5F74 
 4456      00
 4457              	.LASF222:
 4458 04e6 646D6153 		.ascii	"dmaStreamAllocate\000"
 4458      74726561 
 4458      6D416C6C 
 4458      6F636174 
 4458      6500
 4459              	.LASF112:
 4460 04f8 42444352 		.ascii	"BDCR\000"
 4460      00
ARM GAS  /var/folders/m4/4md61f0s1_g0rzfghffqnxvr0000gn/T//ccHfRd1a.s 			page 83


 4461              	.LASF28:
 4462 04fd 636E745F 		.ascii	"cnt_t\000"
 4462      7400
 4463              	.LASF70:
 4464 0503 76745F66 		.ascii	"vt_func\000"
 4464      756E6300 
 4465              	.LASF228:
 4466 050b 7370695F 		.ascii	"spi_lld_polled_exchange\000"
 4466      6C6C645F 
 4466      706F6C6C 
 4466      65645F65 
 4466      78636861 
 4467              	.LASF46:
 4468 0523 705F6570 		.ascii	"p_epending\000"
 4468      656E6469 
 4468      6E6700
 4469              	.LASF134:
 4470 052e 77746D74 		.ascii	"wtmtxp\000"
 4470      787000
 4471              	.LASF206:
 4472 0535 7370695F 		.ascii	"spi_lld_unselect\000"
 4472      6C6C645F 
 4472      756E7365 
 4472      6C656374 
 4472      00
 4473              	.LASF57:
 4474 0546 63685F72 		.ascii	"ch_ready_list\000"
 4474      65616479 
 4474      5F6C6973 
 4474      7400
 4475              	.LASF153:
 4476 0554 636C6561 		.ascii	"clear\000"
 4476      7200
 4477              	.LASF90:
 4478 055a 43464752 		.ascii	"CFGR\000"
 4478      00
 4479              	.LASF195:
 4480 055f 6F73616C 		.ascii	"osalSysUnlockFromISR\000"
 4480      53797355 
 4480      6E6C6F63 
 4480      6B46726F 
 4480      6D495352 
 4481              	.LASF13:
 4482 0574 5F5F7569 		.ascii	"__uint64_t\000"
 4482      6E743634 
 4482      5F7400
 4483              	.LASF11:
 4484 057f 6C6F6E67 		.ascii	"long unsigned int\000"
 4484      20756E73 
 4484      69676E65 
 4484      6420696E 
 4484      7400
 4485              	.LASF136:
 4486 0591 63685F73 		.ascii	"ch_semaphore\000"
 4486      656D6170 
 4486      686F7265 
 4486      00
ARM GAS  /var/folders/m4/4md61f0s1_g0rzfghffqnxvr0000gn/T//ccHfRd1a.s 			page 84


 4487              	.LASF52:
 4488 059e 63685F74 		.ascii	"ch_thread\000"
 4488      68726561 
 4488      6400
 4489              	.LASF72:
 4490 05a8 76697274 		.ascii	"virtual_timers_list_t\000"
 4490      75616C5F 
 4490      74696D65 
 4490      72735F6C 
 4490      6973745F 
 4491              	.LASF217:
 4492 05be 5F73746D 		.ascii	"_stm32_dma_streams\000"
 4492      33325F64 
 4492      6D615F73 
 4492      74726561 
 4492      6D7300
 4493              	.LASF65:
 4494 05d1 76697274 		.ascii	"virtual_timer_t\000"
 4494      75616C5F 
 4494      74696D65 
 4494      725F7400 
 4495              	.LASF56:
 4496 05e1 72656164 		.ascii	"ready_list_t\000"
 4496      795F6C69 
 4496      73745F74 
 4496      00
 4497              	.LASF159:
 4498 05ee 4C434B52 		.ascii	"LCKR\000"
 4498      00
 4499              	.LASF208:
 4500 05f3 7370695F 		.ascii	"spi_lld_exchange\000"
 4500      6C6C645F 
 4500      65786368 
 4500      616E6765 
 4500      00
 4501              	.LASF53:
 4502 0604 63685F74 		.ascii	"ch_threads_list\000"
 4502      68726561 
 4502      64735F6C 
 4502      69737400 
 4503              	.LASF156:
 4504 0614 4F535045 		.ascii	"OSPEEDR\000"
 4504      45445200 
 4505              	.LASF89:
 4506 061c 504C4C43 		.ascii	"PLLCFGR\000"
 4506      46475200 
 4507              	.LASF210:
 4508 0624 72786275 		.ascii	"rxbuf\000"
 4508      6600
 4509              	.LASF176:
 4510 062a 646D6172 		.ascii	"dmarx\000"
 4510      7800
 4511              	.LASF10:
 4512 0630 5F5F7569 		.ascii	"__uint32_t\000"
 4512      6E743332 
 4512      5F7400
 4513              	.LASF167:
ARM GAS  /var/folders/m4/4md61f0s1_g0rzfghffqnxvr0000gn/T//ccHfRd1a.s 			page 85


 4514 063b 5350495F 		.ascii	"SPI_READY\000"
 4514      52454144 
 4514      5900
 4515              	.LASF12:
 4516 0645 6C6F6E67 		.ascii	"long long int\000"
 4516      206C6F6E 
 4516      6720696E 
 4516      7400
 4517              	.LASF140:
 4518 0653 6D5F7175 		.ascii	"m_queue\000"
 4518      65756500 
 4519              	.LASF187:
 4520 065b 706F7274 		.ascii	"port_lock_from_isr\000"
 4520      5F6C6F63 
 4520      6B5F6672 
 4520      6F6D5F69 
 4520      737200
 4521              	.LASF114:
 4522 066e 53534347 		.ascii	"SSCGR\000"
 4522      5200
 4523              	.LASF67:
 4524 0674 76745F6E 		.ascii	"vt_next\000"
 4524      65787400 
 4525              	.LASF68:
 4526 067c 76745F70 		.ascii	"vt_prev\000"
 4526      72657600 
 4527              	.LASF96:
 4528 0684 41504232 		.ascii	"APB2RSTR\000"
 4528      52535452 
 4528      00
 4529              	.LASF213:
 4530 068d 6672616D 		.ascii	"frame\000"
 4530      6500
 4531              	.LASF175:
 4532 0693 6D757465 		.ascii	"mutex\000"
 4532      7800
 4533              	.LASF212:
 4534 0699 7370695F 		.ascii	"spi_lld_receive\000"
 4534      6C6C645F 
 4534      72656365 
 4534      69766500 
 4535              	.LASF216:
 4536 06a9 49544D5F 		.ascii	"ITM_RxBuffer\000"
 4536      52784275 
 4536      66666572 
 4536      00
 4537              	.LASF118:
 4538 06b6 52584352 		.ascii	"RXCRCR\000"
 4538      435200
 4539              	.LASF178:
 4540 06bd 7278646D 		.ascii	"rxdmamode\000"
 4540      616D6F64 
 4540      6500
 4541              	.LASF110:
 4542 06c7 41504232 		.ascii	"APB2LPENR\000"
 4542      4C50454E 
 4542      5200
ARM GAS  /var/folders/m4/4md61f0s1_g0rzfghffqnxvr0000gn/T//ccHfRd1a.s 			page 86


 4543              	.LASF198:
 4544 06d1 73706970 		.ascii	"spip\000"
 4544      00
 4545              	.LASF43:
 4546 06d6 705F7761 		.ascii	"p_waiting\000"
 4546      6974696E 
 4546      6700
 4547              	.LASF177:
 4548 06e0 646D6174 		.ascii	"dmatx\000"
 4548      7800
 4549              	.LASF154:
 4550 06e6 4D4F4445 		.ascii	"MODER\000"
 4550      5200
 4551              	.LASF39:
 4552 06ec 705F666C 		.ascii	"p_flags\000"
 4552      61677300 
 4553              	.LASF83:
 4554 06f4 69646C65 		.ascii	"idle_thread_wa\000"
 4554      5F746872 
 4554      6561645F 
 4554      776100
 4555              	.LASF0:
 4556 0703 756E7369 		.ascii	"unsigned int\000"
 4556      676E6564 
 4556      20696E74 
 4556      00
 4557              	.LASF184:
 4558 0710 53504943 		.ascii	"SPIConfig\000"
 4558      6F6E6669 
 4558      6700
 4559              	.LASF168:
 4560 071a 5350495F 		.ascii	"SPI_ACTIVE\000"
 4560      41435449 
 4560      564500
 4561              	.LASF20:
 4562 0725 7274636E 		.ascii	"rtcnt_t\000"
 4562      745F7400 
 4563              	.LASF49:
 4564 072d 705F6D70 		.ascii	"p_mpool\000"
 4564      6F6F6C00 
 4565              	.LASF151:
 4566 0735 73746D33 		.ascii	"stm32_dmaisr_t\000"
 4566      325F646D 
 4566      61697372 
 4566      5F7400
 4567              	.LASF40:
 4568 0744 705F7265 		.ascii	"p_refs\000"
 4568      667300
 4569              	.LASF127:
 4570 074b 6F666673 		.ascii	"offset\000"
 4570      657400
 4571              	.LASF109:
 4572 0752 41504231 		.ascii	"APB1LPENR\000"
 4572      4C50454E 
 4572      5200
 4573              	.LASF88:
 4574 075c 444D415F 		.ascii	"DMA_Stream_TypeDef\000"
ARM GAS  /var/folders/m4/4md61f0s1_g0rzfghffqnxvr0000gn/T//ccHfRd1a.s 			page 87


 4574      53747265 
 4574      616D5F54 
 4574      79706544 
 4574      656600
 4575              	.LASF42:
 4576 076f 705F7469 		.ascii	"p_time\000"
 4576      6D6500
 4577              	.LASF221:
 4578 0776 7370694F 		.ascii	"spiObjectInit\000"
 4578      626A6563 
 4578      74496E69 
 4578      7400
 4579              	.LASF93:
 4580 0784 41484233 		.ascii	"AHB3RSTR\000"
 4580      52535452 
 4580      00
 4581              	.LASF30:
 4582 078d 74687265 		.ascii	"thread_t\000"
 4582      61645F74 
 4582      00
 4583              	.LASF50:
 4584 0796 74687265 		.ascii	"thread_reference_t\000"
 4584      61645F72 
 4584      65666572 
 4584      656E6365 
 4584      5F7400
 4585              	.LASF48:
 4586 07a9 705F7265 		.ascii	"p_realprio\000"
 4586      616C7072 
 4586      696F00
 4587              	.LASF126:
 4588 07b4 706F7274 		.ascii	"port_intctx\000"
 4588      5F696E74 
 4588      63747800 
 4589              	.LASF192:
 4590 07c0 6F73616C 		.ascii	"osalSysHalt\000"
 4590      53797348 
 4590      616C7400 
 4591              	.LASF188:
 4592 07cc 706F7274 		.ascii	"port_unlock_from_isr\000"
 4592      5F756E6C 
 4592      6F636B5F 
 4592      66726F6D 
 4592      5F697372 
 4593              	.LASF69:
 4594 07e1 76745F64 		.ascii	"vt_delta\000"
 4594      656C7461 
 4594      00
 4595              	.LASF95:
 4596 07ea 41504231 		.ascii	"APB1RSTR\000"
 4596      52535452 
 4596      00
 4597              	.LASF66:
 4598 07f3 63685F76 		.ascii	"ch_virtual_timer\000"
 4598      69727475 
 4598      616C5F74 
 4598      696D6572 
ARM GAS  /var/folders/m4/4md61f0s1_g0rzfghffqnxvr0000gn/T//ccHfRd1a.s 			page 88


 4598      00
 4599              	.LASF102:
 4600 0804 41504231 		.ascii	"APB1ENR\000"
 4600      454E5200 
 4601              	.LASF138:
 4602 080c 735F636E 		.ascii	"s_cnt\000"
 4602      7400
 4603              	.LASF148:
 4604 0812 73656C66 		.ascii	"selfindex\000"
 4604      696E6465 
 4604      7800
 4605              	.LASF14:
 4606 081c 6C6F6E67 		.ascii	"long long unsigned int\000"
 4606      206C6F6E 
 4606      6720756E 
 4606      7369676E 
 4606      65642069 
 4607              	.LASF36:
 4608 0833 705F6F6C 		.ascii	"p_older\000"
 4608      64657200 
 4609              	.LASF16:
 4610 083b 75696E74 		.ascii	"uint16_t\000"
 4610      31365F74 
 4610      00
 4611              	.LASF26:
 4612 0844 6D73675F 		.ascii	"msg_t\000"
 4612      7400
 4613              	.LASF55:
 4614 084a 63685F74 		.ascii	"ch_threads_queue\000"
 4614      68726561 
 4614      64735F71 
 4614      75657565 
 4614      00
 4615              	.LASF193:
 4616 085b 76616C75 		.ascii	"value\000"
 4616      6500
 4617              	.LASF24:
 4618 0861 74736C69 		.ascii	"tslices_t\000"
 4618      6365735F 
 4618      7400
 4619              	.LASF63:
 4620 086b 725F6375 		.ascii	"r_current\000"
 4620      7272656E 
 4620      7400
 4621              	.LASF161:
 4622 0875 41465248 		.ascii	"AFRH\000"
 4622      00
 4623              	.LASF160:
 4624 087a 4146524C 		.ascii	"AFRL\000"
 4624      00
 4625              	.LASF194:
 4626 087f 72656173 		.ascii	"reason\000"
 4626      6F6E00
 4627              	.LASF149:
 4628 0886 76656374 		.ascii	"vector\000"
 4628      6F7200
 4629              	.LASF82:
ARM GAS  /var/folders/m4/4md61f0s1_g0rzfghffqnxvr0000gn/T//ccHfRd1a.s 			page 89


 4630 088d 6D61696E 		.ascii	"mainthread\000"
 4630      74687265 
 4630      616400
 4631              	.LASF107:
 4632 0898 41484233 		.ascii	"AHB3LPENR\000"
 4632      4C50454E 
 4632      5200
 4633              	.LASF191:
 4634 08a2 5F5F7365 		.ascii	"__set_BASEPRI\000"
 4634      745F4241 
 4634      53455052 
 4634      4900
 4635              	.LASF58:
 4636 08b0 725F7175 		.ascii	"r_queue\000"
 4636      65756500 
 4637              	.LASF155:
 4638 08b8 4F545950 		.ascii	"OTYPER\000"
 4638      455200
 4639              	.LASF119:
 4640 08bf 54584352 		.ascii	"TXCRCR\000"
 4640      435200
 4641              	.LASF122:
 4642 08c6 5350495F 		.ascii	"SPI_TypeDef\000"
 4642      54797065 
 4642      44656600 
 4643              	.LASF80:
 4644 08d2 726C6973 		.ascii	"rlist\000"
 4644      7400
 4645              	.LASF21:
 4646 08d8 746D6F64 		.ascii	"tmode_t\000"
 4646      655F7400 
 4647              	.LASF117:
 4648 08e0 43524350 		.ascii	"CRCPR\000"
 4648      5200
 4649              	.LASF98:
 4650 08e6 41484231 		.ascii	"AHB1ENR\000"
 4650      454E5200 
 4651              	.LASF226:
 4652 08ee 2F557365 		.ascii	"/Users/raphael/Documents/Projects/rESC/resc-firmwar"
 4652      72732F72 
 4652      61706861 
 4652      656C2F44 
 4652      6F63756D 
 4653 0921 6500     		.ascii	"e\000"
 4654              	.LASF74:
 4655 0923 76745F73 		.ascii	"vt_systime\000"
 4655      79737469 
 4655      6D6500
 4656              	.LASF100:
 4657 092e 41484233 		.ascii	"AHB3ENR\000"
 4657      454E5200 
 4658              	.LASF62:
 4659 0936 725F6F6C 		.ascii	"r_older\000"
 4659      64657200 
 4660              	.LASF128:
 4661 093e 746D5F63 		.ascii	"tm_calibration_t\000"
 4661      616C6962 
ARM GAS  /var/folders/m4/4md61f0s1_g0rzfghffqnxvr0000gn/T//ccHfRd1a.s 			page 90


 4661      72617469 
 4661      6F6E5F74 
 4661      00
 4662              	.LASF92:
 4663 094f 41484232 		.ascii	"AHB2RSTR\000"
 4663      52535452 
 4663      00
 4664              	.LASF174:
 4665 0958 74687265 		.ascii	"thread\000"
 4665      616400
 4666              	.LASF86:
 4667 095f 4D304152 		.ascii	"M0AR\000"
 4667      00
 4668              	.LASF185:
 4669 0964 706F7274 		.ascii	"port_lock\000"
 4669      5F6C6F63 
 4669      6B00
 4670              	.LASF137:
 4671 096e 735F7175 		.ascii	"s_queue\000"
 4671      65756500 
 4672              	.LASF116:
 4673 0976 5243435F 		.ascii	"RCC_TypeDef\000"
 4673      54797065 
 4673      44656600 
 4674              	.LASF5:
 4675 0982 73686F72 		.ascii	"short int\000"
 4675      7420696E 
 4675      7400
 4676              	.LASF19:
 4677 098c 75696E74 		.ascii	"uint64_t\000"
 4677      36345F74 
 4677      00
 4678              	.LASF139:
 4679 0995 63685F6D 		.ascii	"ch_mutex\000"
 4679      75746578 
 4679      00
 4680              	.LASF59:
 4681 099e 725F7072 		.ascii	"r_prio\000"
 4681      696F00
 4682              	.LASF76:
 4683 09a5 63685F73 		.ascii	"ch_system_debug\000"
 4683      79737465 
 4683      6D5F6465 
 4683      62756700 
 4684              	.LASF202:
 4685 09b5 7370695F 		.ascii	"spi_lld_init\000"
 4685      6C6C645F 
 4685      696E6974 
 4685      00
 4686              	.LASF158:
 4687 09c2 42535252 		.ascii	"BSRR\000"
 4687      00
 4688              	.LASF81:
 4689 09c7 76746C69 		.ascii	"vtlist\000"
 4689      737400
 4690              	.LASF219:
 4691 09ce 63685379 		.ascii	"chSysHalt\000"
ARM GAS  /var/folders/m4/4md61f0s1_g0rzfghffqnxvr0000gn/T//ccHfRd1a.s 			page 91


 4691      7348616C 
 4691      7400
 4692              	.LASF144:
 4693 09d8 6D757465 		.ascii	"mutex_t\000"
 4693      785F7400 
 4694              	.LASF23:
 4695 09e0 74726566 		.ascii	"trefs_t\000"
 4695      735F7400 
 4696              	.LASF51:
 4697 09e8 74687265 		.ascii	"threads_list_t\000"
 4697      6164735F 
 4697      6C697374 
 4697      5F7400
 4698              	.LASF79:
 4699 09f7 63685F73 		.ascii	"ch_system\000"
 4699      79737465 
 4699      6D00
 4700              	.LASF18:
 4701 0a01 75696E74 		.ascii	"uint32_t\000"
 4701      33325F74 
 4701      00
 4702              	.LASF121:
 4703 0a0a 49325350 		.ascii	"I2SPR\000"
 4703      5200
 4704              	.LASF169:
 4705 0a10 5350495F 		.ascii	"SPI_COMPLETE\000"
 4705      434F4D50 
 4705      4C455445 
 4705      00
 4706              	.LASF129:
 4707 0a1d 7264796D 		.ascii	"rdymsg\000"
 4707      736700
 4708              	.LASF7:
 4709 0a24 73686F72 		.ascii	"short unsigned int\000"
 4709      7420756E 
 4709      7369676E 
 4709      65642069 
 4709      6E7400
 4710              	.LASF78:
 4711 0a37 63685F73 		.ascii	"ch_system_t\000"
 4711      79737465 
 4711      6D5F7400 
 4712              	.LASF170:
 4713 0a43 73706973 		.ascii	"spistate_t\000"
 4713      74617465 
 4713      5F7400
 4714              	.LASF8:
 4715 0a4e 5F5F696E 		.ascii	"__int32_t\000"
 4715      7433325F 
 4715      7400
 4716              	.LASF85:
 4717 0a58 4E445452 		.ascii	"NDTR\000"
 4717      00
 4718              	.LASF146:
 4719 0a5d 69666372 		.ascii	"ifcr\000"
 4719      00
 4720              	.LASF183:
ARM GAS  /var/folders/m4/4md61f0s1_g0rzfghffqnxvr0000gn/T//ccHfRd1a.s 			page 92


 4721 0a62 73737061 		.ascii	"sspad\000"
 4721      6400
 4722              	.LASF37:
 4723 0a68 705F6E61 		.ascii	"p_name\000"
 4723      6D6500
 4724              	.LASF142:
 4725 0a6f 6D5F6E65 		.ascii	"m_next\000"
 4725      787400
 4726              	.LASF179:
 4727 0a76 7478646D 		.ascii	"txdmamode\000"
 4727      616D6F64 
 4727      6500
 4728              	.LASF45:
 4729 0a80 705F6D73 		.ascii	"p_msg\000"
 4729      6700
 4730              	.LASF38:
 4731 0a86 705F7374 		.ascii	"p_state\000"
 4731      61746500 
 4732              		.ident	"GCC: (GNU Tools for ARM Embedded Processors) 5.2.1 20151202 (release) [ARM/embedded-5-bran
ARM GAS  /var/folders/m4/4md61f0s1_g0rzfghffqnxvr0000gn/T//ccHfRd1a.s 			page 93


DEFINED SYMBOLS
                            *ABS*:0000000000000000 spi_lld.c
/var/folders/m4/4md61f0s1_g0rzfghffqnxvr0000gn/T//ccHfRd1a.s:22     .text.spi_lld_serve_tx_interrupt:0000000000000000 $t
/var/folders/m4/4md61f0s1_g0rzfghffqnxvr0000gn/T//ccHfRd1a.s:27     .text.spi_lld_serve_tx_interrupt:0000000000000000 spi_lld_serve_tx_interrupt
/var/folders/m4/4md61f0s1_g0rzfghffqnxvr0000gn/T//ccHfRd1a.s:53     .text.spi_lld_serve_tx_interrupt:0000000000000010 $d
/var/folders/m4/4md61f0s1_g0rzfghffqnxvr0000gn/T//ccHfRd1a.s:60     .text.spi_lld_serve_rx_interrupt:0000000000000000 $t
/var/folders/m4/4md61f0s1_g0rzfghffqnxvr0000gn/T//ccHfRd1a.s:65     .text.spi_lld_serve_rx_interrupt:0000000000000000 spi_lld_serve_rx_interrupt
/var/folders/m4/4md61f0s1_g0rzfghffqnxvr0000gn/T//ccHfRd1a.s:216    .text.spi_lld_serve_rx_interrupt:000000000000007c $d
/var/folders/m4/4md61f0s1_g0rzfghffqnxvr0000gn/T//ccHfRd1a.s:223    .text.spi_lld_init:0000000000000000 $t
/var/folders/m4/4md61f0s1_g0rzfghffqnxvr0000gn/T//ccHfRd1a.s:229    .text.spi_lld_init:0000000000000000 spi_lld_init
/var/folders/m4/4md61f0s1_g0rzfghffqnxvr0000gn/T//ccHfRd1a.s:275    .text.spi_lld_init:000000000000002c $d
/var/folders/m4/4md61f0s1_g0rzfghffqnxvr0000gn/T//ccHfRd1a.s:285    .text.spi_lld_start:0000000000000000 $t
/var/folders/m4/4md61f0s1_g0rzfghffqnxvr0000gn/T//ccHfRd1a.s:291    .text.spi_lld_start:0000000000000000 spi_lld_start
/var/folders/m4/4md61f0s1_g0rzfghffqnxvr0000gn/T//ccHfRd1a.s:403    .text.spi_lld_start:0000000000000084 $d
/var/folders/m4/4md61f0s1_g0rzfghffqnxvr0000gn/T//ccHfRd1a.s:412    .text.spi_lld_stop:0000000000000000 $t
/var/folders/m4/4md61f0s1_g0rzfghffqnxvr0000gn/T//ccHfRd1a.s:418    .text.spi_lld_stop:0000000000000000 spi_lld_stop
/var/folders/m4/4md61f0s1_g0rzfghffqnxvr0000gn/T//ccHfRd1a.s:473    .text.spi_lld_stop:0000000000000034 $d
/var/folders/m4/4md61f0s1_g0rzfghffqnxvr0000gn/T//ccHfRd1a.s:479    .text.spi_lld_select:0000000000000000 $t
/var/folders/m4/4md61f0s1_g0rzfghffqnxvr0000gn/T//ccHfRd1a.s:485    .text.spi_lld_select:0000000000000000 spi_lld_select
/var/folders/m4/4md61f0s1_g0rzfghffqnxvr0000gn/T//ccHfRd1a.s:506    .text.spi_lld_unselect:0000000000000000 $t
/var/folders/m4/4md61f0s1_g0rzfghffqnxvr0000gn/T//ccHfRd1a.s:512    .text.spi_lld_unselect:0000000000000000 spi_lld_unselect
/var/folders/m4/4md61f0s1_g0rzfghffqnxvr0000gn/T//ccHfRd1a.s:533    .text.spi_lld_ignore:0000000000000000 $t
/var/folders/m4/4md61f0s1_g0rzfghffqnxvr0000gn/T//ccHfRd1a.s:539    .text.spi_lld_ignore:0000000000000000 spi_lld_ignore
/var/folders/m4/4md61f0s1_g0rzfghffqnxvr0000gn/T//ccHfRd1a.s:601    .text.spi_lld_ignore:0000000000000034 $d
/var/folders/m4/4md61f0s1_g0rzfghffqnxvr0000gn/T//ccHfRd1a.s:607    .text.spi_lld_exchange:0000000000000000 $t
/var/folders/m4/4md61f0s1_g0rzfghffqnxvr0000gn/T//ccHfRd1a.s:613    .text.spi_lld_exchange:0000000000000000 spi_lld_exchange
/var/folders/m4/4md61f0s1_g0rzfghffqnxvr0000gn/T//ccHfRd1a.s:677    .text.spi_lld_send:0000000000000000 $t
/var/folders/m4/4md61f0s1_g0rzfghffqnxvr0000gn/T//ccHfRd1a.s:683    .text.spi_lld_send:0000000000000000 spi_lld_send
/var/folders/m4/4md61f0s1_g0rzfghffqnxvr0000gn/T//ccHfRd1a.s:743    .text.spi_lld_send:0000000000000034 $d
/var/folders/m4/4md61f0s1_g0rzfghffqnxvr0000gn/T//ccHfRd1a.s:748    .text.spi_lld_receive:0000000000000000 $t
/var/folders/m4/4md61f0s1_g0rzfghffqnxvr0000gn/T//ccHfRd1a.s:754    .text.spi_lld_receive:0000000000000000 spi_lld_receive
/var/folders/m4/4md61f0s1_g0rzfghffqnxvr0000gn/T//ccHfRd1a.s:815    .text.spi_lld_receive:0000000000000034 $d
/var/folders/m4/4md61f0s1_g0rzfghffqnxvr0000gn/T//ccHfRd1a.s:820    .text.spi_lld_polled_exchange:0000000000000000 $t
/var/folders/m4/4md61f0s1_g0rzfghffqnxvr0000gn/T//ccHfRd1a.s:826    .text.spi_lld_polled_exchange:0000000000000000 spi_lld_polled_exchange
/var/folders/m4/4md61f0s1_g0rzfghffqnxvr0000gn/T//ccHfRd1a.s:864    .bss.SPID1:0000000000000000 SPID1
/var/folders/m4/4md61f0s1_g0rzfghffqnxvr0000gn/T//ccHfRd1a.s:853    .bss.dummytx:0000000000000000 $d
/var/folders/m4/4md61f0s1_g0rzfghffqnxvr0000gn/T//ccHfRd1a.s:857    .bss.dummytx:0000000000000000 dummytx
/var/folders/m4/4md61f0s1_g0rzfghffqnxvr0000gn/T//ccHfRd1a.s:860    .bss.SPID1:0000000000000000 $d
/var/folders/m4/4md61f0s1_g0rzfghffqnxvr0000gn/T//ccHfRd1a.s:867    .rodata.str1.4:0000000000000000 $d
/var/folders/m4/4md61f0s1_g0rzfghffqnxvr0000gn/T//ccHfRd1a.s:871    .bss.dummyrx:0000000000000000 $d
/var/folders/m4/4md61f0s1_g0rzfghffqnxvr0000gn/T//ccHfRd1a.s:875    .bss.dummyrx:0000000000000000 dummyrx
                     .debug_frame:0000000000000010 $d

UNDEFINED SYMBOLS
chSysHalt
chThdResumeI
spiObjectInit
_stm32_dma_streams
dmaStreamAllocate
dmaStreamRelease
