ARM GAS  /var/folders/m4/4md61f0s1_g0rzfghffqnxvr0000gn/T//ccnva95y.s 			page 1


   1              		.syntax unified
   2              		.cpu cortex-m4
   3              		.eabi_attribute 27, 1
   4              		.eabi_attribute 28, 1
   5              		.fpu fpv4-sp-d16
   6              		.eabi_attribute 20, 1
   7              		.eabi_attribute 21, 1
   8              		.eabi_attribute 23, 3
   9              		.eabi_attribute 24, 1
  10              		.eabi_attribute 25, 1
  11              		.eabi_attribute 26, 1
  12              		.eabi_attribute 30, 2
  13              		.eabi_attribute 34, 1
  14              		.eabi_attribute 18, 4
  15              		.thumb
  16              		.syntax unified
  17              		.file	"st.c"
  18              		.text
  19              	.Ltext0:
  20              		.cfi_sections	.debug_frame
  21              		.section	.text.stInit,"ax",%progbits
  22              		.align	2
  23              		.p2align 4,,15
  24              		.global	stInit
  25              		.thumb
  26              		.thumb_func
  27              		.type	stInit, %function
  28              	stInit:
  29              	.LFB268:
  30              		.file 1 "ChibiOS_16.1.4/os/hal/src/st.c"
  31              		.loc 1 60 0
  32              		.cfi_startproc
  33              		@ args = 0, pretend = 0, frame = 0
  34              		@ frame_needed = 0, uses_anonymous_args = 0
  35              		@ link register save eliminated.
  36              		.loc 1 62 0
  37 0000 FFF7FEBF 		b	st_lld_init
  38              	.LVL0:
  39              		.cfi_endproc
  40              	.LFE268:
  41              		.size	stInit, .-stInit
  42              		.section	.text.stStartAlarm,"ax",%progbits
  43              		.align	2
  44              		.p2align 4,,15
  45              		.global	stStartAlarm
  46              		.thumb
  47              		.thumb_func
  48              		.type	stStartAlarm, %function
  49              	stStartAlarm:
  50              	.LFB269:
  51              		.loc 1 77 0
  52              		.cfi_startproc
  53              		@ args = 0, pretend = 0, frame = 0
  54              		@ frame_needed = 0, uses_anonymous_args = 0
  55              		@ link register save eliminated.
  56              	.LVL1:
  57              	.LBB10:
ARM GAS  /var/folders/m4/4md61f0s1_g0rzfghffqnxvr0000gn/T//ccnva95y.s 			page 2


  58              	.LBB11:
  59              		.file 2 "ChibiOS_16.1.4/os/hal/ports/STM32/LLD/TIMv1/st_lld.h"
  60              		.loc 2 155 0
  61 0000 4FF08043 		mov	r3, #1073741824
  62              	.LVL2:
  63              		.loc 2 156 0
  64 0004 0021     		movs	r1, #0
  65              		.loc 2 157 0
  66 0006 0222     		movs	r2, #2
  67              		.loc 2 155 0
  68 0008 5863     		str	r0, [r3, #52]
  69              		.loc 2 156 0
  70 000a 1961     		str	r1, [r3, #16]
  71              		.loc 2 157 0
  72 000c DA60     		str	r2, [r3, #12]
  73              	.LVL3:
  74 000e 7047     		bx	lr
  75              	.LBE11:
  76              	.LBE10:
  77              		.cfi_endproc
  78              	.LFE269:
  79              		.size	stStartAlarm, .-stStartAlarm
  80              		.section	.text.stStopAlarm,"ax",%progbits
  81              		.align	2
  82              		.p2align 4,,15
  83              		.global	stStopAlarm
  84              		.thumb
  85              		.thumb_func
  86              		.type	stStopAlarm, %function
  87              	stStopAlarm:
  88              	.LFB270:
  89              		.loc 1 91 0
  90              		.cfi_startproc
  91              		@ args = 0, pretend = 0, frame = 0
  92              		@ frame_needed = 0, uses_anonymous_args = 0
  93              		@ link register save eliminated.
  94              	.LBB12:
  95              	.LBB13:
  96              		.loc 2 167 0
  97 0000 4FF08043 		mov	r3, #1073741824
  98 0004 0022     		movs	r2, #0
  99 0006 DA60     		str	r2, [r3, #12]
 100 0008 7047     		bx	lr
 101              	.LBE13:
 102              	.LBE12:
 103              		.cfi_endproc
 104              	.LFE270:
 105              		.size	stStopAlarm, .-stStopAlarm
 106              		.section	.text.stSetAlarm,"ax",%progbits
 107              		.align	2
 108              		.p2align 4,,15
 109              		.global	stSetAlarm
 110              		.thumb
 111              		.thumb_func
 112              		.type	stSetAlarm, %function
 113              	stSetAlarm:
 114              	.LFB271:
ARM GAS  /var/folders/m4/4md61f0s1_g0rzfghffqnxvr0000gn/T//ccnva95y.s 			page 3


 115              		.loc 1 105 0
 116              		.cfi_startproc
 117              		@ args = 0, pretend = 0, frame = 0
 118              		@ frame_needed = 0, uses_anonymous_args = 0
 119              		@ link register save eliminated.
 120              	.LVL4:
 121              	.LBB14:
 122              	.LBB15:
 123              		.loc 2 179 0
 124 0000 4FF08043 		mov	r3, #1073741824
 125              	.LVL5:
 126 0004 5863     		str	r0, [r3, #52]
 127              	.LVL6:
 128 0006 7047     		bx	lr
 129              	.LBE15:
 130              	.LBE14:
 131              		.cfi_endproc
 132              	.LFE271:
 133              		.size	stSetAlarm, .-stSetAlarm
 134              		.section	.text.stGetAlarm,"ax",%progbits
 135              		.align	2
 136              		.p2align 4,,15
 137              		.global	stGetAlarm
 138              		.thumb
 139              		.thumb_func
 140              		.type	stGetAlarm, %function
 141              	stGetAlarm:
 142              	.LFB272:
 143              		.loc 1 121 0
 144              		.cfi_startproc
 145              		@ args = 0, pretend = 0, frame = 0
 146              		@ frame_needed = 0, uses_anonymous_args = 0
 147              		@ link register save eliminated.
 148              	.LBB16:
 149              	.LBB17:
 150              		.loc 2 191 0
 151 0000 4FF08043 		mov	r3, #1073741824
 152 0004 586B     		ldr	r0, [r3, #52]
 153              	.LBE17:
 154              	.LBE16:
 155              		.loc 1 126 0
 156 0006 7047     		bx	lr
 157              		.cfi_endproc
 158              	.LFE272:
 159              		.size	stGetAlarm, .-stGetAlarm
 160              		.text
 161              	.Letext0:
 162              		.file 3 "/opt/homebrew-cask/Caskroom/gcc-arm-embedded/5_2-2015q4,20151219/gcc-arm-none-eabi-5_2-20
 163              		.file 4 "/opt/homebrew-cask/Caskroom/gcc-arm-embedded/5_2-2015q4,20151219/gcc-arm-none-eabi-5_2-20
 164              		.file 5 "ChibiOS_16.1.4/os/rt/ports/ARMCMx/compilers/GCC/chtypes.h"
 165              		.file 6 "ChibiOS_16.1.4/os/rt/include/chsystypes.h"
 166              		.file 7 "ChibiOS_16.1.4/os/rt/include/chschd.h"
 167              		.file 8 "ChibiOS_16.1.4/os/rt/ports/ARMCMx/chcore.h"
 168              		.file 9 "ChibiOS_16.1.4/os/rt/ports/ARMCMx/chcore_v7m.h"
 169              		.file 10 "ChibiOS_16.1.4/os/rt/include/chtm.h"
 170              		.file 11 "ChibiOS_16.1.4/os/rt/include/chsem.h"
 171              		.file 12 "ChibiOS_16.1.4/os/rt/include/chmtx.h"
ARM GAS  /var/folders/m4/4md61f0s1_g0rzfghffqnxvr0000gn/T//ccnva95y.s 			page 4


 172              		.file 13 "ChibiOS_16.1.4/os/hal/ports/STM32/LLD/TIMv1/stm32_tim.h"
 173              		.file 14 "ChibiOS_16.1.4/os/ext/CMSIS/include/core_cm4.h"
 174              		.section	.debug_info,"",%progbits
 175              	.Ldebug_info0:
 176 0000 F2090000 		.4byte	0x9f2
 177 0004 0400     		.2byte	0x4
 178 0006 00000000 		.4byte	.Ldebug_abbrev0
 179 000a 04       		.byte	0x4
 180 000b 01       		.uleb128 0x1
 181 000c CB020000 		.4byte	.LASF125
 182 0010 0C       		.byte	0xc
 183 0011 4C060000 		.4byte	.LASF126
 184 0015 E1010000 		.4byte	.LASF127
 185 0019 00000000 		.4byte	.Ldebug_ranges0+0
 186 001d 00000000 		.4byte	0
 187 0021 00000000 		.4byte	.Ldebug_line0
 188 0025 02       		.uleb128 0x2
 189 0026 04       		.byte	0x4
 190 0027 05       		.byte	0x5
 191 0028 696E7400 		.ascii	"int\000"
 192 002c 03       		.uleb128 0x3
 193 002d 04       		.byte	0x4
 194 002e 07       		.byte	0x7
 195 002f 7E010000 		.4byte	.LASF0
 196 0033 03       		.uleb128 0x3
 197 0034 01       		.byte	0x1
 198 0035 06       		.byte	0x6
 199 0036 D6000000 		.4byte	.LASF1
 200 003a 04       		.uleb128 0x4
 201 003b 28000000 		.4byte	.LASF5
 202 003f 03       		.byte	0x3
 203 0040 1D       		.byte	0x1d
 204 0041 45000000 		.4byte	0x45
 205 0045 03       		.uleb128 0x3
 206 0046 01       		.byte	0x1
 207 0047 08       		.byte	0x8
 208 0048 6B040000 		.4byte	.LASF2
 209 004c 03       		.uleb128 0x3
 210 004d 02       		.byte	0x2
 211 004e 05       		.byte	0x5
 212 004f 83040000 		.4byte	.LASF3
 213 0053 03       		.uleb128 0x3
 214 0054 02       		.byte	0x2
 215 0055 07       		.byte	0x7
 216 0056 27010000 		.4byte	.LASF4
 217 005a 04       		.uleb128 0x4
 218 005b 48020000 		.4byte	.LASF6
 219 005f 03       		.byte	0x3
 220 0060 3F       		.byte	0x3f
 221 0061 65000000 		.4byte	0x65
 222 0065 03       		.uleb128 0x3
 223 0066 04       		.byte	0x4
 224 0067 05       		.byte	0x5
 225 0068 05010000 		.4byte	.LASF7
 226 006c 04       		.uleb128 0x4
 227 006d 8F050000 		.4byte	.LASF8
 228 0071 03       		.byte	0x3
ARM GAS  /var/folders/m4/4md61f0s1_g0rzfghffqnxvr0000gn/T//ccnva95y.s 			page 5


 229 0072 41       		.byte	0x41
 230 0073 77000000 		.4byte	0x77
 231 0077 03       		.uleb128 0x3
 232 0078 04       		.byte	0x4
 233 0079 07       		.byte	0x7
 234 007a 34050000 		.4byte	.LASF9
 235 007e 03       		.uleb128 0x3
 236 007f 08       		.byte	0x8
 237 0080 05       		.byte	0x5
 238 0081 5B010000 		.4byte	.LASF10
 239 0085 04       		.uleb128 0x4
 240 0086 1B040000 		.4byte	.LASF11
 241 008a 03       		.byte	0x3
 242 008b 5B       		.byte	0x5b
 243 008c 90000000 		.4byte	0x90
 244 0090 03       		.uleb128 0x3
 245 0091 08       		.byte	0x8
 246 0092 07       		.byte	0x7
 247 0093 4D000000 		.4byte	.LASF12
 248 0097 04       		.uleb128 0x4
 249 0098 BC040000 		.4byte	.LASF13
 250 009c 04       		.byte	0x4
 251 009d 14       		.byte	0x14
 252 009e 3A000000 		.4byte	0x3a
 253 00a2 04       		.uleb128 0x4
 254 00a3 63040000 		.4byte	.LASF14
 255 00a7 04       		.byte	0x4
 256 00a8 1F       		.byte	0x1f
 257 00a9 5A000000 		.4byte	0x5a
 258 00ad 04       		.uleb128 0x4
 259 00ae 0C050000 		.4byte	.LASF15
 260 00b2 04       		.byte	0x4
 261 00b3 20       		.byte	0x20
 262 00b4 6C000000 		.4byte	0x6c
 263 00b8 04       		.uleb128 0x4
 264 00b9 1F000000 		.4byte	.LASF16
 265 00bd 04       		.byte	0x4
 266 00be 26       		.byte	0x26
 267 00bf 85000000 		.4byte	0x85
 268 00c3 04       		.uleb128 0x4
 269 00c4 C6050000 		.4byte	.LASF17
 270 00c8 05       		.byte	0x5
 271 00c9 39       		.byte	0x39
 272 00ca AD000000 		.4byte	0xad
 273 00ce 04       		.uleb128 0x4
 274 00cf B4040000 		.4byte	.LASF18
 275 00d3 05       		.byte	0x5
 276 00d4 3C       		.byte	0x3c
 277 00d5 97000000 		.4byte	0x97
 278 00d9 04       		.uleb128 0x4
 279 00da 0E010000 		.4byte	.LASF19
 280 00de 05       		.byte	0x5
 281 00df 3D       		.byte	0x3d
 282 00e0 97000000 		.4byte	0x97
 283 00e4 04       		.uleb128 0x4
 284 00e5 26040000 		.4byte	.LASF20
 285 00e9 05       		.byte	0x5
ARM GAS  /var/folders/m4/4md61f0s1_g0rzfghffqnxvr0000gn/T//ccnva95y.s 			page 6


 286 00ea 3E       		.byte	0x3e
 287 00eb 97000000 		.4byte	0x97
 288 00ef 04       		.uleb128 0x4
 289 00f0 F1000000 		.4byte	.LASF21
 290 00f4 05       		.byte	0x5
 291 00f5 3F       		.byte	0x3f
 292 00f6 97000000 		.4byte	0x97
 293 00fa 04       		.uleb128 0x4
 294 00fb 45040000 		.4byte	.LASF22
 295 00ff 05       		.byte	0x5
 296 0100 40       		.byte	0x40
 297 0101 AD000000 		.4byte	0xad
 298 0105 04       		.uleb128 0x4
 299 0106 DB010000 		.4byte	.LASF23
 300 010a 05       		.byte	0x5
 301 010b 41       		.byte	0x41
 302 010c A2000000 		.4byte	0xa2
 303 0110 04       		.uleb128 0x4
 304 0111 3C020000 		.4byte	.LASF24
 305 0115 05       		.byte	0x5
 306 0116 43       		.byte	0x43
 307 0117 AD000000 		.4byte	0xad
 308 011b 04       		.uleb128 0x4
 309 011c 78010000 		.4byte	.LASF25
 310 0120 05       		.byte	0x5
 311 0121 45       		.byte	0x45
 312 0122 A2000000 		.4byte	0xa2
 313 0126 04       		.uleb128 0x4
 314 0127 71050000 		.4byte	.LASF26
 315 012b 06       		.byte	0x6
 316 012c 33       		.byte	0x33
 317 012d AD000000 		.4byte	0xad
 318 0131 04       		.uleb128 0x4
 319 0132 5C050000 		.4byte	.LASF27
 320 0136 06       		.byte	0x6
 321 0137 3F       		.byte	0x3f
 322 0138 3C010000 		.4byte	0x13c
 323 013c 05       		.uleb128 0x5
 324 013d C0010000 		.4byte	.LASF49
 325 0141 48       		.byte	0x48
 326 0142 07       		.byte	0x7
 327 0143 C2       		.byte	0xc2
 328 0144 41020000 		.4byte	0x241
 329 0148 06       		.uleb128 0x6
 330 0149 AD040000 		.4byte	.LASF28
 331 014d 07       		.byte	0x7
 332 014e C3       		.byte	0xc3
 333 014f 4C020000 		.4byte	0x24c
 334 0153 00       		.byte	0
 335 0154 06       		.uleb128 0x6
 336 0155 3E040000 		.4byte	.LASF29
 337 0159 07       		.byte	0x7
 338 015a C5       		.byte	0xc5
 339 015b 4C020000 		.4byte	0x24c
 340 015f 04       		.byte	0x4
 341 0160 06       		.uleb128 0x6
 342 0161 BD000000 		.4byte	.LASF30
ARM GAS  /var/folders/m4/4md61f0s1_g0rzfghffqnxvr0000gn/T//ccnva95y.s 			page 7


 343 0165 07       		.byte	0x7
 344 0166 C7       		.byte	0xc7
 345 0167 FA000000 		.4byte	0xfa
 346 016b 08       		.byte	0x8
 347 016c 06       		.uleb128 0x6
 348 016d 7B060000 		.4byte	.LASF31
 349 0171 07       		.byte	0x7
 350 0172 C8       		.byte	0xc8
 351 0173 A1040000 		.4byte	0x4a1
 352 0177 0C       		.byte	0xc
 353 0178 06       		.uleb128 0x6
 354 0179 17010000 		.4byte	.LASF32
 355 017d 07       		.byte	0x7
 356 017e CA       		.byte	0xca
 357 017f 4C020000 		.4byte	0x24c
 358 0183 10       		.byte	0x10
 359 0184 06       		.uleb128 0x6
 360 0185 BC020000 		.4byte	.LASF33
 361 0189 07       		.byte	0x7
 362 018a CB       		.byte	0xcb
 363 018b 4C020000 		.4byte	0x24c
 364 018f 14       		.byte	0x14
 365 0190 06       		.uleb128 0x6
 366 0191 2A060000 		.4byte	.LASF34
 367 0195 07       		.byte	0x7
 368 0196 D2       		.byte	0xd2
 369 0197 EF060000 		.4byte	0x6ef
 370 019b 18       		.byte	0x18
 371 019c 06       		.uleb128 0x6
 372 019d 8D040000 		.4byte	.LASF35
 373 01a1 07       		.byte	0x7
 374 01a2 DD       		.byte	0xdd
 375 01a3 D9000000 		.4byte	0xd9
 376 01a7 1C       		.byte	0x1c
 377 01a8 06       		.uleb128 0x6
 378 01a9 44060000 		.4byte	.LASF36
 379 01ad 07       		.byte	0x7
 380 01ae E1       		.byte	0xe1
 381 01af CE000000 		.4byte	0xce
 382 01b3 1D       		.byte	0x1d
 383 01b4 06       		.uleb128 0x6
 384 01b5 00060000 		.4byte	.LASF37
 385 01b9 07       		.byte	0x7
 386 01ba E6       		.byte	0xe6
 387 01bb E4000000 		.4byte	0xe4
 388 01bf 1E       		.byte	0x1e
 389 01c0 06       		.uleb128 0x6
 390 01c1 95040000 		.4byte	.LASF38
 391 01c5 07       		.byte	0x7
 392 01c6 EC       		.byte	0xec
 393 01c7 EF000000 		.4byte	0xef
 394 01cb 1F       		.byte	0x1f
 395 01cc 06       		.uleb128 0x6
 396 01cd 93010000 		.4byte	.LASF39
 397 01d1 07       		.byte	0x7
 398 01d2 F3       		.byte	0xf3
 399 01d3 01070000 		.4byte	0x701
ARM GAS  /var/folders/m4/4md61f0s1_g0rzfghffqnxvr0000gn/T//ccnva95y.s 			page 8


 400 01d7 20       		.byte	0x20
 401 01d8 07       		.uleb128 0x7
 402 01d9 705F7500 		.ascii	"p_u\000"
 403 01dd 07       		.byte	0x7
 404 01de 3101     		.2byte	0x131
 405 01e0 2A060000 		.4byte	0x62a
 406 01e4 24       		.byte	0x24
 407 01e5 08       		.uleb128 0x8
 408 01e6 7F020000 		.4byte	.LASF40
 409 01ea 07       		.byte	0x7
 410 01eb 3601     		.2byte	0x136
 411 01ed 52020000 		.4byte	0x252
 412 01f1 28       		.byte	0x28
 413 01f2 08       		.uleb128 0x8
 414 01f3 AA010000 		.4byte	.LASF41
 415 01f7 07       		.byte	0x7
 416 01f8 3C01     		.2byte	0x13c
 417 01fa 76020000 		.4byte	0x276
 418 01fe 2C       		.byte	0x2c
 419 01ff 08       		.uleb128 0x8
 420 0200 C0050000 		.4byte	.LASF42
 421 0204 07       		.byte	0x7
 422 0205 4001     		.2byte	0x140
 423 0207 05010000 		.4byte	0x105
 424 020b 34       		.byte	0x34
 425 020c 08       		.uleb128 0x8
 426 020d 01050000 		.4byte	.LASF43
 427 0211 07       		.byte	0x7
 428 0212 4601     		.2byte	0x146
 429 0214 10010000 		.4byte	0x110
 430 0218 38       		.byte	0x38
 431 0219 08       		.uleb128 0x8
 432 021a 79040000 		.4byte	.LASF44
 433 021e 07       		.byte	0x7
 434 021f 4D01     		.2byte	0x14d
 435 0221 E9060000 		.4byte	0x6e9
 436 0225 3C       		.byte	0x3c
 437 0226 08       		.uleb128 0x8
 438 0227 7B050000 		.4byte	.LASF45
 439 022b 07       		.byte	0x7
 440 022c 5101     		.2byte	0x151
 441 022e FA000000 		.4byte	0xfa
 442 0232 40       		.byte	0x40
 443 0233 08       		.uleb128 0x8
 444 0234 42010000 		.4byte	.LASF46
 445 0238 07       		.byte	0x7
 446 0239 5801     		.2byte	0x158
 447 023b 29030000 		.4byte	0x329
 448 023f 44       		.byte	0x44
 449 0240 00       		.byte	0
 450 0241 04       		.uleb128 0x4
 451 0242 92020000 		.4byte	.LASF47
 452 0246 06       		.byte	0x6
 453 0247 44       		.byte	0x44
 454 0248 4C020000 		.4byte	0x24c
 455 024c 09       		.uleb128 0x9
 456 024d 04       		.byte	0x4
ARM GAS  /var/folders/m4/4md61f0s1_g0rzfghffqnxvr0000gn/T//ccnva95y.s 			page 9


 457 024e 31010000 		.4byte	0x131
 458 0252 04       		.uleb128 0x4
 459 0253 70020000 		.4byte	.LASF48
 460 0257 06       		.byte	0x6
 461 0258 49       		.byte	0x49
 462 0259 5D020000 		.4byte	0x25d
 463 025d 05       		.uleb128 0x5
 464 025e 24050000 		.4byte	.LASF50
 465 0262 04       		.byte	0x4
 466 0263 07       		.byte	0x7
 467 0264 B0       		.byte	0xb0
 468 0265 76020000 		.4byte	0x276
 469 0269 06       		.uleb128 0x6
 470 026a AD040000 		.4byte	.LASF28
 471 026e 07       		.byte	0x7
 472 026f B1       		.byte	0xb1
 473 0270 4C020000 		.4byte	0x24c
 474 0274 00       		.byte	0
 475 0275 00       		.byte	0
 476 0276 04       		.uleb128 0x4
 477 0277 E7050000 		.4byte	.LASF51
 478 027b 06       		.byte	0x6
 479 027c 50       		.byte	0x50
 480 027d 81020000 		.4byte	0x281
 481 0281 05       		.uleb128 0x5
 482 0282 AC000000 		.4byte	.LASF52
 483 0286 08       		.byte	0x8
 484 0287 07       		.byte	0x7
 485 0288 B7       		.byte	0xb7
 486 0289 A6020000 		.4byte	0x2a6
 487 028d 06       		.uleb128 0x6
 488 028e AD040000 		.4byte	.LASF28
 489 0292 07       		.byte	0x7
 490 0293 B8       		.byte	0xb8
 491 0294 4C020000 		.4byte	0x24c
 492 0298 00       		.byte	0
 493 0299 06       		.uleb128 0x6
 494 029a 3E040000 		.4byte	.LASF29
 495 029e 07       		.byte	0x7
 496 029f B9       		.byte	0xb9
 497 02a0 4C020000 		.4byte	0x24c
 498 02a4 04       		.byte	0x4
 499 02a5 00       		.byte	0
 500 02a6 04       		.uleb128 0x4
 501 02a7 00000000 		.4byte	.LASF53
 502 02ab 06       		.byte	0x6
 503 02ac 57       		.byte	0x57
 504 02ad B1020000 		.4byte	0x2b1
 505 02b1 0A       		.uleb128 0xa
 506 02b2 2E020000 		.4byte	.LASF54
 507 02b6 1C       		.byte	0x1c
 508 02b7 07       		.byte	0x7
 509 02b8 9001     		.2byte	0x190
 510 02ba 0D030000 		.4byte	0x30d
 511 02be 08       		.uleb128 0x8
 512 02bf 1C050000 		.4byte	.LASF55
 513 02c3 07       		.byte	0x7
ARM GAS  /var/folders/m4/4md61f0s1_g0rzfghffqnxvr0000gn/T//ccnva95y.s 			page 10


 514 02c4 9101     		.2byte	0x191
 515 02c6 76020000 		.4byte	0x276
 516 02ca 00       		.byte	0
 517 02cb 08       		.uleb128 0x8
 518 02cc 9F040000 		.4byte	.LASF56
 519 02d0 07       		.byte	0x7
 520 02d1 9201     		.2byte	0x192
 521 02d3 FA000000 		.4byte	0xfa
 522 02d7 08       		.byte	0x8
 523 02d8 08       		.uleb128 0x8
 524 02d9 ED030000 		.4byte	.LASF57
 525 02dd 07       		.byte	0x7
 526 02de 9401     		.2byte	0x194
 527 02e0 A1040000 		.4byte	0x4a1
 528 02e4 0C       		.byte	0xc
 529 02e5 08       		.uleb128 0x8
 530 02e6 3A010000 		.4byte	.LASF58
 531 02ea 07       		.byte	0x7
 532 02eb 9701     		.2byte	0x197
 533 02ed 4C020000 		.4byte	0x24c
 534 02f1 10       		.byte	0x10
 535 02f2 08       		.uleb128 0x8
 536 02f3 13040000 		.4byte	.LASF59
 537 02f7 07       		.byte	0x7
 538 02f8 9801     		.2byte	0x198
 539 02fa 4C020000 		.4byte	0x24c
 540 02fe 14       		.byte	0x14
 541 02ff 08       		.uleb128 0x8
 542 0300 09040000 		.4byte	.LASF60
 543 0304 07       		.byte	0x7
 544 0305 9B01     		.2byte	0x19b
 545 0307 4C020000 		.4byte	0x24c
 546 030b 18       		.byte	0x18
 547 030c 00       		.byte	0
 548 030d 04       		.uleb128 0x4
 549 030e 86050000 		.4byte	.LASF61
 550 0312 06       		.byte	0x6
 551 0313 5C       		.byte	0x5c
 552 0314 18030000 		.4byte	0x318
 553 0318 09       		.uleb128 0x9
 554 0319 04       		.byte	0x4
 555 031a 1E030000 		.4byte	0x31e
 556 031e 0B       		.uleb128 0xb
 557 031f 29030000 		.4byte	0x329
 558 0323 0C       		.uleb128 0xc
 559 0324 29030000 		.4byte	0x329
 560 0328 00       		.byte	0
 561 0329 0D       		.uleb128 0xd
 562 032a 04       		.byte	0x4
 563 032b 04       		.uleb128 0x4
 564 032c 2E040000 		.4byte	.LASF62
 565 0330 06       		.byte	0x6
 566 0331 61       		.byte	0x61
 567 0332 36030000 		.4byte	0x336
 568 0336 0A       		.uleb128 0xa
 569 0337 CD040000 		.4byte	.LASF63
 570 033b 14       		.byte	0x14
ARM GAS  /var/folders/m4/4md61f0s1_g0rzfghffqnxvr0000gn/T//ccnva95y.s 			page 11


 571 033c 07       		.byte	0x7
 572 033d 6B01     		.2byte	0x16b
 573 033f 85030000 		.4byte	0x385
 574 0343 08       		.uleb128 0x8
 575 0344 8B010000 		.4byte	.LASF64
 576 0348 07       		.byte	0x7
 577 0349 6C01     		.2byte	0x16c
 578 034b 06070000 		.4byte	0x706
 579 034f 00       		.byte	0
 580 0350 08       		.uleb128 0x8
 581 0351 53010000 		.4byte	.LASF65
 582 0355 07       		.byte	0x7
 583 0356 6D01     		.2byte	0x16d
 584 0358 06070000 		.4byte	0x706
 585 035c 04       		.byte	0x4
 586 035d 08       		.uleb128 0x8
 587 035e A1010000 		.4byte	.LASF66
 588 0362 07       		.byte	0x7
 589 0363 6E01     		.2byte	0x16e
 590 0365 26010000 		.4byte	0x126
 591 0369 08       		.byte	0x8
 592 036a 08       		.uleb128 0x8
 593 036b 81060000 		.4byte	.LASF67
 594 036f 07       		.byte	0x7
 595 0370 6F01     		.2byte	0x16f
 596 0372 0D030000 		.4byte	0x30d
 597 0376 0C       		.byte	0xc
 598 0377 08       		.uleb128 0x8
 599 0378 E0050000 		.4byte	.LASF68
 600 037c 07       		.byte	0x7
 601 037d 7101     		.2byte	0x171
 602 037f 29030000 		.4byte	0x329
 603 0383 10       		.byte	0x10
 604 0384 00       		.byte	0
 605 0385 04       		.uleb128 0x4
 606 0386 78000000 		.4byte	.LASF69
 607 038a 06       		.byte	0x6
 608 038b 66       		.byte	0x66
 609 038c 90030000 		.4byte	0x390
 610 0390 0A       		.uleb128 0xa
 611 0391 A5020000 		.4byte	.LASF70
 612 0395 10       		.byte	0x10
 613 0396 07       		.byte	0x7
 614 0397 7B01     		.2byte	0x17b
 615 0399 D2030000 		.4byte	0x3d2
 616 039d 08       		.uleb128 0x8
 617 039e 8B010000 		.4byte	.LASF64
 618 03a2 07       		.byte	0x7
 619 03a3 7C01     		.2byte	0x17c
 620 03a5 06070000 		.4byte	0x706
 621 03a9 00       		.byte	0
 622 03aa 08       		.uleb128 0x8
 623 03ab 53010000 		.4byte	.LASF65
 624 03af 07       		.byte	0x7
 625 03b0 7E01     		.2byte	0x17e
 626 03b2 06070000 		.4byte	0x706
 627 03b6 04       		.byte	0x4
ARM GAS  /var/folders/m4/4md61f0s1_g0rzfghffqnxvr0000gn/T//ccnva95y.s 			page 12


 628 03b7 08       		.uleb128 0x8
 629 03b8 A1010000 		.4byte	.LASF66
 630 03bc 07       		.byte	0x7
 631 03bd 8001     		.2byte	0x180
 632 03bf 26010000 		.4byte	0x126
 633 03c3 08       		.byte	0x8
 634 03c4 08       		.uleb128 0x8
 635 03c5 31060000 		.4byte	.LASF71
 636 03c9 07       		.byte	0x7
 637 03ca 8201     		.2byte	0x182
 638 03cc 01070000 		.4byte	0x701
 639 03d0 0C       		.byte	0xc
 640 03d1 00       		.byte	0
 641 03d2 04       		.uleb128 0x4
 642 03d3 3E000000 		.4byte	.LASF72
 643 03d7 06       		.byte	0x6
 644 03d8 6B       		.byte	0x6b
 645 03d9 DD030000 		.4byte	0x3dd
 646 03dd 0A       		.uleb128 0xa
 647 03de 4D040000 		.4byte	.LASF73
 648 03e2 04       		.byte	0x4
 649 03e3 07       		.byte	0x7
 650 03e4 A201     		.2byte	0x1a2
 651 03e6 F8030000 		.4byte	0x3f8
 652 03ea 08       		.uleb128 0x8
 653 03eb 9A050000 		.4byte	.LASF74
 654 03ef 07       		.byte	0x7
 655 03f0 AA01     		.2byte	0x1aa
 656 03f2 0C070000 		.4byte	0x70c
 657 03f6 00       		.byte	0
 658 03f7 00       		.byte	0
 659 03f8 04       		.uleb128 0x4
 660 03f9 16020000 		.4byte	.LASF75
 661 03fd 06       		.byte	0x6
 662 03fe 70       		.byte	0x70
 663 03ff 03040000 		.4byte	0x403
 664 0403 0E       		.uleb128 0xe
 665 0404 FB000000 		.4byte	.LASF76
 666 0408 5802     		.2byte	0x258
 667 040a 07       		.byte	0x7
 668 040b C201     		.2byte	0x1c2
 669 040d 5F040000 		.4byte	0x45f
 670 0411 08       		.uleb128 0x8
 671 0412 07060000 		.4byte	.LASF77
 672 0416 07       		.byte	0x7
 673 0417 C601     		.2byte	0x1c6
 674 0419 A6020000 		.4byte	0x2a6
 675 041d 00       		.byte	0
 676 041e 08       		.uleb128 0x8
 677 041f EA000000 		.4byte	.LASF78
 678 0423 07       		.byte	0x7
 679 0424 CA01     		.2byte	0x1ca
 680 0426 85030000 		.4byte	0x385
 681 042a 1C       		.byte	0x1c
 682 042b 07       		.uleb128 0x7
 683 042c 64626700 		.ascii	"dbg\000"
 684 0430 07       		.byte	0x7
ARM GAS  /var/folders/m4/4md61f0s1_g0rzfghffqnxvr0000gn/T//ccnva95y.s 			page 13


 685 0431 CE01     		.2byte	0x1ce
 686 0433 D2030000 		.4byte	0x3d2
 687 0437 2C       		.byte	0x2c
 688 0438 08       		.uleb128 0x8
 689 0439 6D000000 		.4byte	.LASF79
 690 043d 07       		.byte	0x7
 691 043e D201     		.2byte	0x1d2
 692 0440 31010000 		.4byte	0x131
 693 0444 30       		.byte	0x30
 694 0445 07       		.uleb128 0x7
 695 0446 746D00   		.ascii	"tm\000"
 696 0449 07       		.byte	0x7
 697 044a D701     		.2byte	0x1d7
 698 044c 1F060000 		.4byte	0x61f
 699 0450 78       		.byte	0x78
 700 0451 08       		.uleb128 0x8
 701 0452 69010000 		.4byte	.LASF80
 702 0456 07       		.byte	0x7
 703 0457 E301     		.2byte	0x1e3
 704 0459 11070000 		.4byte	0x711
 705 045d 80       		.byte	0x80
 706 045e 00       		.byte	0
 707 045f 03       		.uleb128 0x3
 708 0460 04       		.byte	0x4
 709 0461 07       		.byte	0x7
 710 0462 89020000 		.4byte	.LASF81
 711 0466 0F       		.uleb128 0xf
 712 0467 AD000000 		.4byte	0xad
 713 046b 10       		.uleb128 0x10
 714 046c AD000000 		.4byte	0xad
 715 0470 7B040000 		.4byte	0x47b
 716 0474 11       		.uleb128 0x11
 717 0475 5F040000 		.4byte	0x45f
 718 0479 01       		.byte	0x1
 719 047a 00       		.byte	0
 720 047b 10       		.uleb128 0x10
 721 047c AD000000 		.4byte	0xad
 722 0480 8B040000 		.4byte	0x48b
 723 0484 11       		.uleb128 0x11
 724 0485 5F040000 		.4byte	0x45f
 725 0489 03       		.byte	0x3
 726 048a 00       		.byte	0
 727 048b 04       		.uleb128 0x4
 728 048c 4A010000 		.4byte	.LASF82
 729 0490 08       		.byte	0x8
 730 0491 65       		.byte	0x65
 731 0492 29030000 		.4byte	0x329
 732 0496 04       		.uleb128 0x4
 733 0497 65020000 		.4byte	.LASF83
 734 049b 08       		.byte	0x8
 735 049c 6D       		.byte	0x6d
 736 049d B8000000 		.4byte	0xb8
 737 04a1 05       		.uleb128 0x5
 738 04a2 B8050000 		.4byte	.LASF84
 739 04a6 04       		.byte	0x4
 740 04a7 08       		.byte	0x8
 741 04a8 89       		.byte	0x89
ARM GAS  /var/folders/m4/4md61f0s1_g0rzfghffqnxvr0000gn/T//ccnva95y.s 			page 14


 742 04a9 BA040000 		.4byte	0x4ba
 743 04ad 12       		.uleb128 0x12
 744 04ae 72313300 		.ascii	"r13\000"
 745 04b2 08       		.byte	0x8
 746 04b3 8A       		.byte	0x8a
 747 04b4 04060000 		.4byte	0x604
 748 04b8 00       		.byte	0
 749 04b9 00       		.byte	0
 750 04ba 05       		.uleb128 0x5
 751 04bb 32000000 		.4byte	.LASF85
 752 04bf 64       		.byte	0x64
 753 04c0 09       		.byte	0x9
 754 04c1 FD       		.byte	0xfd
 755 04c2 04060000 		.4byte	0x604
 756 04c6 12       		.uleb128 0x12
 757 04c7 73313600 		.ascii	"s16\000"
 758 04cb 09       		.byte	0x9
 759 04cc FF       		.byte	0xff
 760 04cd 8B040000 		.4byte	0x48b
 761 04d1 00       		.byte	0
 762 04d2 07       		.uleb128 0x7
 763 04d3 73313700 		.ascii	"s17\000"
 764 04d7 09       		.byte	0x9
 765 04d8 0001     		.2byte	0x100
 766 04da 8B040000 		.4byte	0x48b
 767 04de 04       		.byte	0x4
 768 04df 07       		.uleb128 0x7
 769 04e0 73313800 		.ascii	"s18\000"
 770 04e4 09       		.byte	0x9
 771 04e5 0101     		.2byte	0x101
 772 04e7 8B040000 		.4byte	0x48b
 773 04eb 08       		.byte	0x8
 774 04ec 07       		.uleb128 0x7
 775 04ed 73313900 		.ascii	"s19\000"
 776 04f1 09       		.byte	0x9
 777 04f2 0201     		.2byte	0x102
 778 04f4 8B040000 		.4byte	0x48b
 779 04f8 0C       		.byte	0xc
 780 04f9 07       		.uleb128 0x7
 781 04fa 73323000 		.ascii	"s20\000"
 782 04fe 09       		.byte	0x9
 783 04ff 0301     		.2byte	0x103
 784 0501 8B040000 		.4byte	0x48b
 785 0505 10       		.byte	0x10
 786 0506 07       		.uleb128 0x7
 787 0507 73323100 		.ascii	"s21\000"
 788 050b 09       		.byte	0x9
 789 050c 0401     		.2byte	0x104
 790 050e 8B040000 		.4byte	0x48b
 791 0512 14       		.byte	0x14
 792 0513 07       		.uleb128 0x7
 793 0514 73323200 		.ascii	"s22\000"
 794 0518 09       		.byte	0x9
 795 0519 0501     		.2byte	0x105
 796 051b 8B040000 		.4byte	0x48b
 797 051f 18       		.byte	0x18
 798 0520 07       		.uleb128 0x7
ARM GAS  /var/folders/m4/4md61f0s1_g0rzfghffqnxvr0000gn/T//ccnva95y.s 			page 15


 799 0521 73323300 		.ascii	"s23\000"
 800 0525 09       		.byte	0x9
 801 0526 0601     		.2byte	0x106
 802 0528 8B040000 		.4byte	0x48b
 803 052c 1C       		.byte	0x1c
 804 052d 07       		.uleb128 0x7
 805 052e 73323400 		.ascii	"s24\000"
 806 0532 09       		.byte	0x9
 807 0533 0701     		.2byte	0x107
 808 0535 8B040000 		.4byte	0x48b
 809 0539 20       		.byte	0x20
 810 053a 07       		.uleb128 0x7
 811 053b 73323500 		.ascii	"s25\000"
 812 053f 09       		.byte	0x9
 813 0540 0801     		.2byte	0x108
 814 0542 8B040000 		.4byte	0x48b
 815 0546 24       		.byte	0x24
 816 0547 07       		.uleb128 0x7
 817 0548 73323600 		.ascii	"s26\000"
 818 054c 09       		.byte	0x9
 819 054d 0901     		.2byte	0x109
 820 054f 8B040000 		.4byte	0x48b
 821 0553 28       		.byte	0x28
 822 0554 07       		.uleb128 0x7
 823 0555 73323700 		.ascii	"s27\000"
 824 0559 09       		.byte	0x9
 825 055a 0A01     		.2byte	0x10a
 826 055c 8B040000 		.4byte	0x48b
 827 0560 2C       		.byte	0x2c
 828 0561 07       		.uleb128 0x7
 829 0562 73323800 		.ascii	"s28\000"
 830 0566 09       		.byte	0x9
 831 0567 0B01     		.2byte	0x10b
 832 0569 8B040000 		.4byte	0x48b
 833 056d 30       		.byte	0x30
 834 056e 07       		.uleb128 0x7
 835 056f 73323900 		.ascii	"s29\000"
 836 0573 09       		.byte	0x9
 837 0574 0C01     		.2byte	0x10c
 838 0576 8B040000 		.4byte	0x48b
 839 057a 34       		.byte	0x34
 840 057b 07       		.uleb128 0x7
 841 057c 73333000 		.ascii	"s30\000"
 842 0580 09       		.byte	0x9
 843 0581 0D01     		.2byte	0x10d
 844 0583 8B040000 		.4byte	0x48b
 845 0587 38       		.byte	0x38
 846 0588 07       		.uleb128 0x7
 847 0589 73333100 		.ascii	"s31\000"
 848 058d 09       		.byte	0x9
 849 058e 0E01     		.2byte	0x10e
 850 0590 8B040000 		.4byte	0x48b
 851 0594 3C       		.byte	0x3c
 852 0595 07       		.uleb128 0x7
 853 0596 723400   		.ascii	"r4\000"
 854 0599 09       		.byte	0x9
 855 059a 1001     		.2byte	0x110
ARM GAS  /var/folders/m4/4md61f0s1_g0rzfghffqnxvr0000gn/T//ccnva95y.s 			page 16


 856 059c 8B040000 		.4byte	0x48b
 857 05a0 40       		.byte	0x40
 858 05a1 07       		.uleb128 0x7
 859 05a2 723500   		.ascii	"r5\000"
 860 05a5 09       		.byte	0x9
 861 05a6 1101     		.2byte	0x111
 862 05a8 8B040000 		.4byte	0x48b
 863 05ac 44       		.byte	0x44
 864 05ad 07       		.uleb128 0x7
 865 05ae 723600   		.ascii	"r6\000"
 866 05b1 09       		.byte	0x9
 867 05b2 1201     		.2byte	0x112
 868 05b4 8B040000 		.4byte	0x48b
 869 05b8 48       		.byte	0x48
 870 05b9 07       		.uleb128 0x7
 871 05ba 723700   		.ascii	"r7\000"
 872 05bd 09       		.byte	0x9
 873 05be 1301     		.2byte	0x113
 874 05c0 8B040000 		.4byte	0x48b
 875 05c4 4C       		.byte	0x4c
 876 05c5 07       		.uleb128 0x7
 877 05c6 723800   		.ascii	"r8\000"
 878 05c9 09       		.byte	0x9
 879 05ca 1401     		.2byte	0x114
 880 05cc 8B040000 		.4byte	0x48b
 881 05d0 50       		.byte	0x50
 882 05d1 07       		.uleb128 0x7
 883 05d2 723900   		.ascii	"r9\000"
 884 05d5 09       		.byte	0x9
 885 05d6 1501     		.2byte	0x115
 886 05d8 8B040000 		.4byte	0x48b
 887 05dc 54       		.byte	0x54
 888 05dd 07       		.uleb128 0x7
 889 05de 72313000 		.ascii	"r10\000"
 890 05e2 09       		.byte	0x9
 891 05e3 1601     		.2byte	0x116
 892 05e5 8B040000 		.4byte	0x48b
 893 05e9 58       		.byte	0x58
 894 05ea 07       		.uleb128 0x7
 895 05eb 72313100 		.ascii	"r11\000"
 896 05ef 09       		.byte	0x9
 897 05f0 1701     		.2byte	0x117
 898 05f2 8B040000 		.4byte	0x48b
 899 05f6 5C       		.byte	0x5c
 900 05f7 07       		.uleb128 0x7
 901 05f8 6C7200   		.ascii	"lr\000"
 902 05fb 09       		.byte	0x9
 903 05fc 1801     		.2byte	0x118
 904 05fe 8B040000 		.4byte	0x48b
 905 0602 60       		.byte	0x60
 906 0603 00       		.byte	0
 907 0604 09       		.uleb128 0x9
 908 0605 04       		.byte	0x4
 909 0606 BA040000 		.4byte	0x4ba
 910 060a 13       		.uleb128 0x13
 911 060b 04       		.byte	0x4
 912 060c 0A       		.byte	0xa
ARM GAS  /var/folders/m4/4md61f0s1_g0rzfghffqnxvr0000gn/T//ccnva95y.s 			page 17


 913 060d 38       		.byte	0x38
 914 060e 1F060000 		.4byte	0x61f
 915 0612 06       		.uleb128 0x6
 916 0613 A4050000 		.4byte	.LASF86
 917 0617 0A       		.byte	0xa
 918 0618 3C       		.byte	0x3c
 919 0619 C3000000 		.4byte	0xc3
 920 061d 00       		.byte	0
 921 061e 00       		.byte	0
 922 061f 04       		.uleb128 0x4
 923 0620 F3030000 		.4byte	.LASF87
 924 0624 0A       		.byte	0xa
 925 0625 3D       		.byte	0x3d
 926 0626 0A060000 		.4byte	0x60a
 927 062a 14       		.uleb128 0x14
 928 062b 04       		.byte	0x4
 929 062c 07       		.byte	0x7
 930 062d FA       		.byte	0xfa
 931 062e 87060000 		.4byte	0x687
 932 0632 15       		.uleb128 0x15
 933 0633 18000000 		.4byte	.LASF88
 934 0637 07       		.byte	0x7
 935 0638 0101     		.2byte	0x101
 936 063a 05010000 		.4byte	0x105
 937 063e 15       		.uleb128 0x15
 938 063f 64000000 		.4byte	.LASF89
 939 0643 07       		.byte	0x7
 940 0644 0801     		.2byte	0x108
 941 0646 05010000 		.4byte	0x105
 942 064a 15       		.uleb128 0x15
 943 064b 23060000 		.4byte	.LASF90
 944 064f 07       		.byte	0x7
 945 0650 0F01     		.2byte	0x10f
 946 0652 29030000 		.4byte	0x329
 947 0656 15       		.uleb128 0x15
 948 0657 12000000 		.4byte	.LASF91
 949 065b 07       		.byte	0x7
 950 065c 1601     		.2byte	0x116
 951 065e 87060000 		.4byte	0x687
 952 0662 15       		.uleb128 0x15
 953 0663 9A010000 		.4byte	.LASF92
 954 0667 07       		.byte	0x7
 955 0668 1E01     		.2byte	0x11e
 956 066a B2060000 		.4byte	0x6b2
 957 066e 15       		.uleb128 0x15
 958 066f 15050000 		.4byte	.LASF93
 959 0673 07       		.byte	0x7
 960 0674 2701     		.2byte	0x127
 961 0676 E9060000 		.4byte	0x6e9
 962 067a 15       		.uleb128 0x15
 963 067b A6040000 		.4byte	.LASF94
 964 067f 07       		.byte	0x7
 965 0680 2F01     		.2byte	0x12f
 966 0682 10010000 		.4byte	0x110
 967 0686 00       		.byte	0
 968 0687 09       		.uleb128 0x9
 969 0688 04       		.byte	0x4
ARM GAS  /var/folders/m4/4md61f0s1_g0rzfghffqnxvr0000gn/T//ccnva95y.s 			page 18


 970 0689 41020000 		.4byte	0x241
 971 068d 05       		.uleb128 0x5
 972 068e EF040000 		.4byte	.LASF95
 973 0692 0C       		.byte	0xc
 974 0693 0B       		.byte	0xb
 975 0694 34       		.byte	0x34
 976 0695 B2060000 		.4byte	0x6b2
 977 0699 06       		.uleb128 0x6
 978 069a 1F010000 		.4byte	.LASF96
 979 069e 0B       		.byte	0xb
 980 069f 35       		.byte	0x35
 981 06a0 76020000 		.4byte	0x276
 982 06a4 00       		.byte	0
 983 06a5 06       		.uleb128 0x6
 984 06a6 B5010000 		.4byte	.LASF97
 985 06aa 0B       		.byte	0xb
 986 06ab 37       		.byte	0x37
 987 06ac 1B010000 		.4byte	0x11b
 988 06b0 08       		.byte	0x8
 989 06b1 00       		.byte	0
 990 06b2 09       		.uleb128 0x9
 991 06b3 04       		.byte	0x4
 992 06b4 8D060000 		.4byte	0x68d
 993 06b8 05       		.uleb128 0x5
 994 06b9 F7050000 		.4byte	.LASF98
 995 06bd 10       		.byte	0x10
 996 06be 0C       		.byte	0xc
 997 06bf 39       		.byte	0x39
 998 06c0 E9060000 		.4byte	0x6e9
 999 06c4 06       		.uleb128 0x6
 1000 06c5 E2000000 		.4byte	.LASF99
 1001 06c9 0C       		.byte	0xc
 1002 06ca 3A       		.byte	0x3a
 1003 06cb 76020000 		.4byte	0x276
 1004 06cf 00       		.byte	0
 1005 06d0 06       		.uleb128 0x6
 1006 06d1 73060000 		.4byte	.LASF100
 1007 06d5 0C       		.byte	0xc
 1008 06d6 3C       		.byte	0x3c
 1009 06d7 4C020000 		.4byte	0x24c
 1010 06db 08       		.byte	0x8
 1011 06dc 06       		.uleb128 0x6
 1012 06dd 6A050000 		.4byte	.LASF101
 1013 06e1 0C       		.byte	0xc
 1014 06e2 3E       		.byte	0x3e
 1015 06e3 2C070000 		.4byte	0x72c
 1016 06e7 0C       		.byte	0xc
 1017 06e8 00       		.byte	0
 1018 06e9 09       		.uleb128 0x9
 1019 06ea 04       		.byte	0x4
 1020 06eb B8060000 		.4byte	0x6b8
 1021 06ef 09       		.uleb128 0x9
 1022 06f0 04       		.byte	0x4
 1023 06f1 FC060000 		.4byte	0x6fc
 1024 06f5 03       		.uleb128 0x3
 1025 06f6 01       		.byte	0x1
 1026 06f7 08       		.byte	0x8
ARM GAS  /var/folders/m4/4md61f0s1_g0rzfghffqnxvr0000gn/T//ccnva95y.s 			page 19


 1027 06f8 52050000 		.4byte	.LASF102
 1028 06fc 16       		.uleb128 0x16
 1029 06fd F5060000 		.4byte	0x6f5
 1030 0701 0F       		.uleb128 0xf
 1031 0702 26010000 		.4byte	0x126
 1032 0706 09       		.uleb128 0x9
 1033 0707 04       		.byte	0x4
 1034 0708 2B030000 		.4byte	0x32b
 1035 070c 0F       		.uleb128 0xf
 1036 070d EF060000 		.4byte	0x6ef
 1037 0711 10       		.uleb128 0x10
 1038 0712 96040000 		.4byte	0x496
 1039 0716 21070000 		.4byte	0x721
 1040 071a 11       		.uleb128 0x11
 1041 071b 5F040000 		.4byte	0x45f
 1042 071f 3A       		.byte	0x3a
 1043 0720 00       		.byte	0
 1044 0721 04       		.uleb128 0x4
 1045 0722 6B060000 		.4byte	.LASF103
 1046 0726 0C       		.byte	0xc
 1047 0727 34       		.byte	0x34
 1048 0728 B8060000 		.4byte	0x6b8
 1049 072c 09       		.uleb128 0x9
 1050 072d 04       		.byte	0x4
 1051 072e 21070000 		.4byte	0x721
 1052 0732 03       		.uleb128 0x3
 1053 0733 01       		.byte	0x1
 1054 0734 02       		.byte	0x2
 1055 0735 5D040000 		.4byte	.LASF104
 1056 0739 17       		.uleb128 0x17
 1057 073a 60       		.byte	0x60
 1058 073b 0D       		.byte	0xd
 1059 073c A101     		.2byte	0x1a1
 1060 073e 45080000 		.4byte	0x845
 1061 0742 07       		.uleb128 0x7
 1062 0743 43523100 		.ascii	"CR1\000"
 1063 0747 0D       		.byte	0xd
 1064 0748 A201     		.2byte	0x1a2
 1065 074a 66040000 		.4byte	0x466
 1066 074e 00       		.byte	0
 1067 074f 07       		.uleb128 0x7
 1068 0750 43523200 		.ascii	"CR2\000"
 1069 0754 0D       		.byte	0xd
 1070 0755 A301     		.2byte	0x1a3
 1071 0757 66040000 		.4byte	0x466
 1072 075b 04       		.byte	0x4
 1073 075c 08       		.uleb128 0x8
 1074 075d BB010000 		.4byte	.LASF105
 1075 0761 0D       		.byte	0xd
 1076 0762 A401     		.2byte	0x1a4
 1077 0764 66040000 		.4byte	0x466
 1078 0768 08       		.byte	0x8
 1079 0769 08       		.uleb128 0x8
 1080 076a 0D000000 		.4byte	.LASF106
 1081 076e 0D       		.byte	0xd
 1082 076f A501     		.2byte	0x1a5
 1083 0771 66040000 		.4byte	0x466
ARM GAS  /var/folders/m4/4md61f0s1_g0rzfghffqnxvr0000gn/T//ccnva95y.s 			page 20


 1084 0775 0C       		.byte	0xc
 1085 0776 07       		.uleb128 0x7
 1086 0777 535200   		.ascii	"SR\000"
 1087 077a 0D       		.byte	0xd
 1088 077b A601     		.2byte	0x1a6
 1089 077d 66040000 		.4byte	0x466
 1090 0781 10       		.byte	0x10
 1091 0782 07       		.uleb128 0x7
 1092 0783 45475200 		.ascii	"EGR\000"
 1093 0787 0D       		.byte	0xd
 1094 0788 A701     		.2byte	0x1a7
 1095 078a 66040000 		.4byte	0x466
 1096 078e 14       		.byte	0x14
 1097 078f 08       		.uleb128 0x8
 1098 0790 C4000000 		.4byte	.LASF107
 1099 0794 0D       		.byte	0xd
 1100 0795 A801     		.2byte	0x1a8
 1101 0797 66040000 		.4byte	0x466
 1102 079b 18       		.byte	0x18
 1103 079c 08       		.uleb128 0x8
 1104 079d CA000000 		.4byte	.LASF108
 1105 07a1 0D       		.byte	0xd
 1106 07a2 A901     		.2byte	0x1a9
 1107 07a4 66040000 		.4byte	0x466
 1108 07a8 1C       		.byte	0x1c
 1109 07a9 08       		.uleb128 0x8
 1110 07aa 65050000 		.4byte	.LASF109
 1111 07ae 0D       		.byte	0xd
 1112 07af AA01     		.2byte	0x1aa
 1113 07b1 66040000 		.4byte	0x466
 1114 07b5 20       		.byte	0x20
 1115 07b6 07       		.uleb128 0x7
 1116 07b7 434E5400 		.ascii	"CNT\000"
 1117 07bb 0D       		.byte	0xd
 1118 07bc AB01     		.2byte	0x1ab
 1119 07be 66040000 		.4byte	0x466
 1120 07c2 24       		.byte	0x24
 1121 07c3 07       		.uleb128 0x7
 1122 07c4 50534300 		.ascii	"PSC\000"
 1123 07c8 0D       		.byte	0xd
 1124 07c9 AC01     		.2byte	0x1ac
 1125 07cb 66040000 		.4byte	0x466
 1126 07cf 28       		.byte	0x28
 1127 07d0 07       		.uleb128 0x7
 1128 07d1 41525200 		.ascii	"ARR\000"
 1129 07d5 0D       		.byte	0xd
 1130 07d6 AD01     		.2byte	0x1ad
 1131 07d8 66040000 		.4byte	0x466
 1132 07dc 2C       		.byte	0x2c
 1133 07dd 07       		.uleb128 0x7
 1134 07de 52435200 		.ascii	"RCR\000"
 1135 07e2 0D       		.byte	0xd
 1136 07e3 AE01     		.2byte	0x1ae
 1137 07e5 66040000 		.4byte	0x466
 1138 07e9 30       		.byte	0x30
 1139 07ea 07       		.uleb128 0x7
 1140 07eb 43435200 		.ascii	"CCR\000"
ARM GAS  /var/folders/m4/4md61f0s1_g0rzfghffqnxvr0000gn/T//ccnva95y.s 			page 21


 1141 07ef 0D       		.byte	0xd
 1142 07f0 AF01     		.2byte	0x1af
 1143 07f2 45080000 		.4byte	0x845
 1144 07f6 34       		.byte	0x34
 1145 07f7 08       		.uleb128 0x8
 1146 07f8 A7000000 		.4byte	.LASF110
 1147 07fc 0D       		.byte	0xd
 1148 07fd B001     		.2byte	0x1b0
 1149 07ff 66040000 		.4byte	0x466
 1150 0803 44       		.byte	0x44
 1151 0804 07       		.uleb128 0x7
 1152 0805 44435200 		.ascii	"DCR\000"
 1153 0809 0D       		.byte	0xd
 1154 080a B101     		.2byte	0x1b1
 1155 080c 66040000 		.4byte	0x466
 1156 0810 48       		.byte	0x48
 1157 0811 08       		.uleb128 0x8
 1158 0812 57050000 		.4byte	.LASF111
 1159 0816 0D       		.byte	0xd
 1160 0817 B201     		.2byte	0x1b2
 1161 0819 66040000 		.4byte	0x466
 1162 081d 4C       		.byte	0x4c
 1163 081e 07       		.uleb128 0x7
 1164 081f 4F5200   		.ascii	"OR\000"
 1165 0822 0D       		.byte	0xd
 1166 0823 B301     		.2byte	0x1b3
 1167 0825 66040000 		.4byte	0x466
 1168 0829 50       		.byte	0x50
 1169 082a 08       		.uleb128 0x8
 1170 082b D0000000 		.4byte	.LASF112
 1171 082f 0D       		.byte	0xd
 1172 0830 B401     		.2byte	0x1b4
 1173 0832 66040000 		.4byte	0x466
 1174 0836 54       		.byte	0x54
 1175 0837 08       		.uleb128 0x8
 1176 0838 FC040000 		.4byte	.LASF113
 1177 083c 0D       		.byte	0xd
 1178 083d B501     		.2byte	0x1b5
 1179 083f 4A080000 		.4byte	0x84a
 1180 0843 58       		.byte	0x58
 1181 0844 00       		.byte	0
 1182 0845 0F       		.uleb128 0xf
 1183 0846 7B040000 		.4byte	0x47b
 1184 084a 0F       		.uleb128 0xf
 1185 084b 6B040000 		.4byte	0x46b
 1186 084f 18       		.uleb128 0x18
 1187 0850 22020000 		.4byte	.LASF114
 1188 0854 0D       		.byte	0xd
 1189 0855 B601     		.2byte	0x1b6
 1190 0857 39070000 		.4byte	0x739
 1191 085b 19       		.uleb128 0x19
 1192 085c 52020000 		.4byte	.LASF115
 1193 0860 02       		.byte	0x2
 1194 0861 99       		.byte	0x99
 1195 0862 03       		.byte	0x3
 1196 0863 73080000 		.4byte	0x873
 1197 0867 1A       		.uleb128 0x1a
ARM GAS  /var/folders/m4/4md61f0s1_g0rzfghffqnxvr0000gn/T//ccnva95y.s 			page 22


 1198 0868 04040000 		.4byte	.LASF117
 1199 086c 02       		.byte	0x2
 1200 086d 99       		.byte	0x99
 1201 086e 26010000 		.4byte	0x126
 1202 0872 00       		.byte	0
 1203 0873 1B       		.uleb128 0x1b
 1204 0874 CE050000 		.4byte	.LASF128
 1205 0878 02       		.byte	0x2
 1206 0879 A5       		.byte	0xa5
 1207 087a 03       		.byte	0x3
 1208 087b 19       		.uleb128 0x19
 1209 087c CA010000 		.4byte	.LASF116
 1210 0880 02       		.byte	0x2
 1211 0881 B1       		.byte	0xb1
 1212 0882 03       		.byte	0x3
 1213 0883 93080000 		.4byte	0x893
 1214 0887 1A       		.uleb128 0x1a
 1215 0888 04040000 		.4byte	.LASF117
 1216 088c 02       		.byte	0x2
 1217 088d B1       		.byte	0xb1
 1218 088e 26010000 		.4byte	0x126
 1219 0892 00       		.byte	0
 1220 0893 1C       		.uleb128 0x1c
 1221 0894 DE040000 		.4byte	.LASF129
 1222 0898 02       		.byte	0x2
 1223 0899 BD       		.byte	0xbd
 1224 089a 26010000 		.4byte	0x126
 1225 089e 03       		.byte	0x3
 1226 089f 1D       		.uleb128 0x1d
 1227 08a0 C4020000 		.4byte	.LASF118
 1228 08a4 01       		.byte	0x1
 1229 08a5 3C       		.byte	0x3c
 1230 08a6 00000000 		.4byte	.LFB268
 1231 08aa 04000000 		.4byte	.LFE268-.LFB268
 1232 08ae 01       		.uleb128 0x1
 1233 08af 9C       		.byte	0x9c
 1234 08b0 BE080000 		.4byte	0x8be
 1235 08b4 1E       		.uleb128 0x1e
 1236 08b5 04000000 		.4byte	.LVL0
 1237 08b9 EA090000 		.4byte	0x9ea
 1238 08bd 00       		.byte	0
 1239 08be 1D       		.uleb128 0x1d
 1240 08bf AB050000 		.4byte	.LASF119
 1241 08c3 01       		.byte	0x1
 1242 08c4 4D       		.byte	0x4d
 1243 08c5 00000000 		.4byte	.LFB269
 1244 08c9 10000000 		.4byte	.LFE269-.LFB269
 1245 08cd 01       		.uleb128 0x1
 1246 08ce 9C       		.byte	0x9c
 1247 08cf 03090000 		.4byte	0x903
 1248 08d3 1F       		.uleb128 0x1f
 1249 08d4 3C060000 		.4byte	.LASF122
 1250 08d8 01       		.byte	0x1
 1251 08d9 4D       		.byte	0x4d
 1252 08da 26010000 		.4byte	0x126
 1253 08de 01       		.uleb128 0x1
 1254 08df 50       		.byte	0x50
ARM GAS  /var/folders/m4/4md61f0s1_g0rzfghffqnxvr0000gn/T//ccnva95y.s 			page 23


 1255 08e0 20       		.uleb128 0x20
 1256 08e1 C4040000 		.4byte	.LASF123
 1257 08e5 13090000 		.4byte	0x913
 1258 08e9 21       		.uleb128 0x21
 1259 08ea 5B080000 		.4byte	0x85b
 1260 08ee 00000000 		.4byte	.LBB10
 1261 08f2 10000000 		.4byte	.LBE10-.LBB10
 1262 08f6 01       		.byte	0x1
 1263 08f7 51       		.byte	0x51
 1264 08f8 22       		.uleb128 0x22
 1265 08f9 67080000 		.4byte	0x867
 1266 08fd 00000000 		.4byte	.LLST0
 1267 0901 00       		.byte	0
 1268 0902 00       		.byte	0
 1269 0903 10       		.uleb128 0x10
 1270 0904 F5060000 		.4byte	0x6f5
 1271 0908 13090000 		.4byte	0x913
 1272 090c 11       		.uleb128 0x11
 1273 090d 5F040000 		.4byte	0x45f
 1274 0911 0C       		.byte	0xc
 1275 0912 00       		.byte	0
 1276 0913 16       		.uleb128 0x16
 1277 0914 03090000 		.4byte	0x903
 1278 0918 1D       		.uleb128 0x1d
 1279 0919 46050000 		.4byte	.LASF120
 1280 091d 01       		.byte	0x1
 1281 091e 5B       		.byte	0x5b
 1282 091f 00000000 		.4byte	.LFB270
 1283 0923 0A000000 		.4byte	.LFE270-.LFB270
 1284 0927 01       		.uleb128 0x1
 1285 0928 9C       		.byte	0x9c
 1286 0929 3D090000 		.4byte	0x93d
 1287 092d 23       		.uleb128 0x23
 1288 092e 73080000 		.4byte	0x873
 1289 0932 00000000 		.4byte	.LBB12
 1290 0936 0A000000 		.4byte	.LBE12-.LBB12
 1291 093a 01       		.byte	0x1
 1292 093b 5D       		.byte	0x5d
 1293 093c 00       		.byte	0
 1294 093d 1D       		.uleb128 0x1d
 1295 093e 0D060000 		.4byte	.LASF121
 1296 0942 01       		.byte	0x1
 1297 0943 69       		.byte	0x69
 1298 0944 00000000 		.4byte	.LFB271
 1299 0948 08000000 		.4byte	.LFE271-.LFB271
 1300 094c 01       		.uleb128 0x1
 1301 094d 9C       		.byte	0x9c
 1302 094e 82090000 		.4byte	0x982
 1303 0952 1F       		.uleb128 0x1f
 1304 0953 3C060000 		.4byte	.LASF122
 1305 0957 01       		.byte	0x1
 1306 0958 69       		.byte	0x69
 1307 0959 26010000 		.4byte	0x126
 1308 095d 01       		.uleb128 0x1
 1309 095e 50       		.byte	0x50
 1310 095f 20       		.uleb128 0x20
 1311 0960 C4040000 		.4byte	.LASF123
ARM GAS  /var/folders/m4/4md61f0s1_g0rzfghffqnxvr0000gn/T//ccnva95y.s 			page 24


 1312 0964 92090000 		.4byte	0x992
 1313 0968 21       		.uleb128 0x21
 1314 0969 7B080000 		.4byte	0x87b
 1315 096d 00000000 		.4byte	.LBB14
 1316 0971 08000000 		.4byte	.LBE14-.LBB14
 1317 0975 01       		.byte	0x1
 1318 0976 6D       		.byte	0x6d
 1319 0977 22       		.uleb128 0x22
 1320 0978 87080000 		.4byte	0x887
 1321 097c 13000000 		.4byte	.LLST1
 1322 0980 00       		.byte	0
 1323 0981 00       		.byte	0
 1324 0982 10       		.uleb128 0x10
 1325 0983 F5060000 		.4byte	0x6f5
 1326 0987 92090000 		.4byte	0x992
 1327 098b 11       		.uleb128 0x11
 1328 098c 5F040000 		.4byte	0x45f
 1329 0990 0A       		.byte	0xa
 1330 0991 00       		.byte	0
 1331 0992 16       		.uleb128 0x16
 1332 0993 82090000 		.4byte	0x982
 1333 0997 24       		.uleb128 0x24
 1334 0998 18060000 		.4byte	.LASF130
 1335 099c 01       		.byte	0x1
 1336 099d 79       		.byte	0x79
 1337 099e 26010000 		.4byte	0x126
 1338 09a2 00000000 		.4byte	.LFB272
 1339 09a6 08000000 		.4byte	.LFE272-.LFB272
 1340 09aa 01       		.uleb128 0x1
 1341 09ab 9C       		.byte	0x9c
 1342 09ac C9090000 		.4byte	0x9c9
 1343 09b0 20       		.uleb128 0x20
 1344 09b1 C4040000 		.4byte	.LASF123
 1345 09b5 C9090000 		.4byte	0x9c9
 1346 09b9 23       		.uleb128 0x23
 1347 09ba 93080000 		.4byte	0x893
 1348 09be 00000000 		.4byte	.LBB16
 1349 09c2 06000000 		.4byte	.LBE16-.LBB16
 1350 09c6 01       		.byte	0x1
 1351 09c7 7D       		.byte	0x7d
 1352 09c8 00       		.byte	0
 1353 09c9 16       		.uleb128 0x16
 1354 09ca 82090000 		.4byte	0x982
 1355 09ce 25       		.uleb128 0x25
 1356 09cf 8E000000 		.4byte	.LASF124
 1357 09d3 0E       		.byte	0xe
 1358 09d4 FA06     		.2byte	0x6fa
 1359 09d6 DA090000 		.4byte	0x9da
 1360 09da 0F       		.uleb128 0xf
 1361 09db A2000000 		.4byte	0xa2
 1362 09df 26       		.uleb128 0x26
 1363 09e0 636800   		.ascii	"ch\000"
 1364 09e3 07       		.byte	0x7
 1365 09e4 0902     		.2byte	0x209
 1366 09e6 F8030000 		.4byte	0x3f8
 1367 09ea 27       		.uleb128 0x27
 1368 09eb 9B000000 		.4byte	.LASF131
ARM GAS  /var/folders/m4/4md61f0s1_g0rzfghffqnxvr0000gn/T//ccnva95y.s 			page 25


 1369 09ef 9B000000 		.4byte	.LASF131
 1370 09f3 02       		.byte	0x2
 1371 09f4 7B       		.byte	0x7b
 1372 09f5 00       		.byte	0
 1373              		.section	.debug_abbrev,"",%progbits
 1374              	.Ldebug_abbrev0:
 1375 0000 01       		.uleb128 0x1
 1376 0001 11       		.uleb128 0x11
 1377 0002 01       		.byte	0x1
 1378 0003 25       		.uleb128 0x25
 1379 0004 0E       		.uleb128 0xe
 1380 0005 13       		.uleb128 0x13
 1381 0006 0B       		.uleb128 0xb
 1382 0007 03       		.uleb128 0x3
 1383 0008 0E       		.uleb128 0xe
 1384 0009 1B       		.uleb128 0x1b
 1385 000a 0E       		.uleb128 0xe
 1386 000b 55       		.uleb128 0x55
 1387 000c 17       		.uleb128 0x17
 1388 000d 11       		.uleb128 0x11
 1389 000e 01       		.uleb128 0x1
 1390 000f 10       		.uleb128 0x10
 1391 0010 17       		.uleb128 0x17
 1392 0011 00       		.byte	0
 1393 0012 00       		.byte	0
 1394 0013 02       		.uleb128 0x2
 1395 0014 24       		.uleb128 0x24
 1396 0015 00       		.byte	0
 1397 0016 0B       		.uleb128 0xb
 1398 0017 0B       		.uleb128 0xb
 1399 0018 3E       		.uleb128 0x3e
 1400 0019 0B       		.uleb128 0xb
 1401 001a 03       		.uleb128 0x3
 1402 001b 08       		.uleb128 0x8
 1403 001c 00       		.byte	0
 1404 001d 00       		.byte	0
 1405 001e 03       		.uleb128 0x3
 1406 001f 24       		.uleb128 0x24
 1407 0020 00       		.byte	0
 1408 0021 0B       		.uleb128 0xb
 1409 0022 0B       		.uleb128 0xb
 1410 0023 3E       		.uleb128 0x3e
 1411 0024 0B       		.uleb128 0xb
 1412 0025 03       		.uleb128 0x3
 1413 0026 0E       		.uleb128 0xe
 1414 0027 00       		.byte	0
 1415 0028 00       		.byte	0
 1416 0029 04       		.uleb128 0x4
 1417 002a 16       		.uleb128 0x16
 1418 002b 00       		.byte	0
 1419 002c 03       		.uleb128 0x3
 1420 002d 0E       		.uleb128 0xe
 1421 002e 3A       		.uleb128 0x3a
 1422 002f 0B       		.uleb128 0xb
 1423 0030 3B       		.uleb128 0x3b
 1424 0031 0B       		.uleb128 0xb
 1425 0032 49       		.uleb128 0x49
ARM GAS  /var/folders/m4/4md61f0s1_g0rzfghffqnxvr0000gn/T//ccnva95y.s 			page 26


 1426 0033 13       		.uleb128 0x13
 1427 0034 00       		.byte	0
 1428 0035 00       		.byte	0
 1429 0036 05       		.uleb128 0x5
 1430 0037 13       		.uleb128 0x13
 1431 0038 01       		.byte	0x1
 1432 0039 03       		.uleb128 0x3
 1433 003a 0E       		.uleb128 0xe
 1434 003b 0B       		.uleb128 0xb
 1435 003c 0B       		.uleb128 0xb
 1436 003d 3A       		.uleb128 0x3a
 1437 003e 0B       		.uleb128 0xb
 1438 003f 3B       		.uleb128 0x3b
 1439 0040 0B       		.uleb128 0xb
 1440 0041 01       		.uleb128 0x1
 1441 0042 13       		.uleb128 0x13
 1442 0043 00       		.byte	0
 1443 0044 00       		.byte	0
 1444 0045 06       		.uleb128 0x6
 1445 0046 0D       		.uleb128 0xd
 1446 0047 00       		.byte	0
 1447 0048 03       		.uleb128 0x3
 1448 0049 0E       		.uleb128 0xe
 1449 004a 3A       		.uleb128 0x3a
 1450 004b 0B       		.uleb128 0xb
 1451 004c 3B       		.uleb128 0x3b
 1452 004d 0B       		.uleb128 0xb
 1453 004e 49       		.uleb128 0x49
 1454 004f 13       		.uleb128 0x13
 1455 0050 38       		.uleb128 0x38
 1456 0051 0B       		.uleb128 0xb
 1457 0052 00       		.byte	0
 1458 0053 00       		.byte	0
 1459 0054 07       		.uleb128 0x7
 1460 0055 0D       		.uleb128 0xd
 1461 0056 00       		.byte	0
 1462 0057 03       		.uleb128 0x3
 1463 0058 08       		.uleb128 0x8
 1464 0059 3A       		.uleb128 0x3a
 1465 005a 0B       		.uleb128 0xb
 1466 005b 3B       		.uleb128 0x3b
 1467 005c 05       		.uleb128 0x5
 1468 005d 49       		.uleb128 0x49
 1469 005e 13       		.uleb128 0x13
 1470 005f 38       		.uleb128 0x38
 1471 0060 0B       		.uleb128 0xb
 1472 0061 00       		.byte	0
 1473 0062 00       		.byte	0
 1474 0063 08       		.uleb128 0x8
 1475 0064 0D       		.uleb128 0xd
 1476 0065 00       		.byte	0
 1477 0066 03       		.uleb128 0x3
 1478 0067 0E       		.uleb128 0xe
 1479 0068 3A       		.uleb128 0x3a
 1480 0069 0B       		.uleb128 0xb
 1481 006a 3B       		.uleb128 0x3b
 1482 006b 05       		.uleb128 0x5
ARM GAS  /var/folders/m4/4md61f0s1_g0rzfghffqnxvr0000gn/T//ccnva95y.s 			page 27


 1483 006c 49       		.uleb128 0x49
 1484 006d 13       		.uleb128 0x13
 1485 006e 38       		.uleb128 0x38
 1486 006f 0B       		.uleb128 0xb
 1487 0070 00       		.byte	0
 1488 0071 00       		.byte	0
 1489 0072 09       		.uleb128 0x9
 1490 0073 0F       		.uleb128 0xf
 1491 0074 00       		.byte	0
 1492 0075 0B       		.uleb128 0xb
 1493 0076 0B       		.uleb128 0xb
 1494 0077 49       		.uleb128 0x49
 1495 0078 13       		.uleb128 0x13
 1496 0079 00       		.byte	0
 1497 007a 00       		.byte	0
 1498 007b 0A       		.uleb128 0xa
 1499 007c 13       		.uleb128 0x13
 1500 007d 01       		.byte	0x1
 1501 007e 03       		.uleb128 0x3
 1502 007f 0E       		.uleb128 0xe
 1503 0080 0B       		.uleb128 0xb
 1504 0081 0B       		.uleb128 0xb
 1505 0082 3A       		.uleb128 0x3a
 1506 0083 0B       		.uleb128 0xb
 1507 0084 3B       		.uleb128 0x3b
 1508 0085 05       		.uleb128 0x5
 1509 0086 01       		.uleb128 0x1
 1510 0087 13       		.uleb128 0x13
 1511 0088 00       		.byte	0
 1512 0089 00       		.byte	0
 1513 008a 0B       		.uleb128 0xb
 1514 008b 15       		.uleb128 0x15
 1515 008c 01       		.byte	0x1
 1516 008d 27       		.uleb128 0x27
 1517 008e 19       		.uleb128 0x19
 1518 008f 01       		.uleb128 0x1
 1519 0090 13       		.uleb128 0x13
 1520 0091 00       		.byte	0
 1521 0092 00       		.byte	0
 1522 0093 0C       		.uleb128 0xc
 1523 0094 05       		.uleb128 0x5
 1524 0095 00       		.byte	0
 1525 0096 49       		.uleb128 0x49
 1526 0097 13       		.uleb128 0x13
 1527 0098 00       		.byte	0
 1528 0099 00       		.byte	0
 1529 009a 0D       		.uleb128 0xd
 1530 009b 0F       		.uleb128 0xf
 1531 009c 00       		.byte	0
 1532 009d 0B       		.uleb128 0xb
 1533 009e 0B       		.uleb128 0xb
 1534 009f 00       		.byte	0
 1535 00a0 00       		.byte	0
 1536 00a1 0E       		.uleb128 0xe
 1537 00a2 13       		.uleb128 0x13
 1538 00a3 01       		.byte	0x1
 1539 00a4 03       		.uleb128 0x3
ARM GAS  /var/folders/m4/4md61f0s1_g0rzfghffqnxvr0000gn/T//ccnva95y.s 			page 28


 1540 00a5 0E       		.uleb128 0xe
 1541 00a6 0B       		.uleb128 0xb
 1542 00a7 05       		.uleb128 0x5
 1543 00a8 3A       		.uleb128 0x3a
 1544 00a9 0B       		.uleb128 0xb
 1545 00aa 3B       		.uleb128 0x3b
 1546 00ab 05       		.uleb128 0x5
 1547 00ac 01       		.uleb128 0x1
 1548 00ad 13       		.uleb128 0x13
 1549 00ae 00       		.byte	0
 1550 00af 00       		.byte	0
 1551 00b0 0F       		.uleb128 0xf
 1552 00b1 35       		.uleb128 0x35
 1553 00b2 00       		.byte	0
 1554 00b3 49       		.uleb128 0x49
 1555 00b4 13       		.uleb128 0x13
 1556 00b5 00       		.byte	0
 1557 00b6 00       		.byte	0
 1558 00b7 10       		.uleb128 0x10
 1559 00b8 01       		.uleb128 0x1
 1560 00b9 01       		.byte	0x1
 1561 00ba 49       		.uleb128 0x49
 1562 00bb 13       		.uleb128 0x13
 1563 00bc 01       		.uleb128 0x1
 1564 00bd 13       		.uleb128 0x13
 1565 00be 00       		.byte	0
 1566 00bf 00       		.byte	0
 1567 00c0 11       		.uleb128 0x11
 1568 00c1 21       		.uleb128 0x21
 1569 00c2 00       		.byte	0
 1570 00c3 49       		.uleb128 0x49
 1571 00c4 13       		.uleb128 0x13
 1572 00c5 2F       		.uleb128 0x2f
 1573 00c6 0B       		.uleb128 0xb
 1574 00c7 00       		.byte	0
 1575 00c8 00       		.byte	0
 1576 00c9 12       		.uleb128 0x12
 1577 00ca 0D       		.uleb128 0xd
 1578 00cb 00       		.byte	0
 1579 00cc 03       		.uleb128 0x3
 1580 00cd 08       		.uleb128 0x8
 1581 00ce 3A       		.uleb128 0x3a
 1582 00cf 0B       		.uleb128 0xb
 1583 00d0 3B       		.uleb128 0x3b
 1584 00d1 0B       		.uleb128 0xb
 1585 00d2 49       		.uleb128 0x49
 1586 00d3 13       		.uleb128 0x13
 1587 00d4 38       		.uleb128 0x38
 1588 00d5 0B       		.uleb128 0xb
 1589 00d6 00       		.byte	0
 1590 00d7 00       		.byte	0
 1591 00d8 13       		.uleb128 0x13
 1592 00d9 13       		.uleb128 0x13
 1593 00da 01       		.byte	0x1
 1594 00db 0B       		.uleb128 0xb
 1595 00dc 0B       		.uleb128 0xb
 1596 00dd 3A       		.uleb128 0x3a
ARM GAS  /var/folders/m4/4md61f0s1_g0rzfghffqnxvr0000gn/T//ccnva95y.s 			page 29


 1597 00de 0B       		.uleb128 0xb
 1598 00df 3B       		.uleb128 0x3b
 1599 00e0 0B       		.uleb128 0xb
 1600 00e1 01       		.uleb128 0x1
 1601 00e2 13       		.uleb128 0x13
 1602 00e3 00       		.byte	0
 1603 00e4 00       		.byte	0
 1604 00e5 14       		.uleb128 0x14
 1605 00e6 17       		.uleb128 0x17
 1606 00e7 01       		.byte	0x1
 1607 00e8 0B       		.uleb128 0xb
 1608 00e9 0B       		.uleb128 0xb
 1609 00ea 3A       		.uleb128 0x3a
 1610 00eb 0B       		.uleb128 0xb
 1611 00ec 3B       		.uleb128 0x3b
 1612 00ed 0B       		.uleb128 0xb
 1613 00ee 01       		.uleb128 0x1
 1614 00ef 13       		.uleb128 0x13
 1615 00f0 00       		.byte	0
 1616 00f1 00       		.byte	0
 1617 00f2 15       		.uleb128 0x15
 1618 00f3 0D       		.uleb128 0xd
 1619 00f4 00       		.byte	0
 1620 00f5 03       		.uleb128 0x3
 1621 00f6 0E       		.uleb128 0xe
 1622 00f7 3A       		.uleb128 0x3a
 1623 00f8 0B       		.uleb128 0xb
 1624 00f9 3B       		.uleb128 0x3b
 1625 00fa 05       		.uleb128 0x5
 1626 00fb 49       		.uleb128 0x49
 1627 00fc 13       		.uleb128 0x13
 1628 00fd 00       		.byte	0
 1629 00fe 00       		.byte	0
 1630 00ff 16       		.uleb128 0x16
 1631 0100 26       		.uleb128 0x26
 1632 0101 00       		.byte	0
 1633 0102 49       		.uleb128 0x49
 1634 0103 13       		.uleb128 0x13
 1635 0104 00       		.byte	0
 1636 0105 00       		.byte	0
 1637 0106 17       		.uleb128 0x17
 1638 0107 13       		.uleb128 0x13
 1639 0108 01       		.byte	0x1
 1640 0109 0B       		.uleb128 0xb
 1641 010a 0B       		.uleb128 0xb
 1642 010b 3A       		.uleb128 0x3a
 1643 010c 0B       		.uleb128 0xb
 1644 010d 3B       		.uleb128 0x3b
 1645 010e 05       		.uleb128 0x5
 1646 010f 01       		.uleb128 0x1
 1647 0110 13       		.uleb128 0x13
 1648 0111 00       		.byte	0
 1649 0112 00       		.byte	0
 1650 0113 18       		.uleb128 0x18
 1651 0114 16       		.uleb128 0x16
 1652 0115 00       		.byte	0
 1653 0116 03       		.uleb128 0x3
ARM GAS  /var/folders/m4/4md61f0s1_g0rzfghffqnxvr0000gn/T//ccnva95y.s 			page 30


 1654 0117 0E       		.uleb128 0xe
 1655 0118 3A       		.uleb128 0x3a
 1656 0119 0B       		.uleb128 0xb
 1657 011a 3B       		.uleb128 0x3b
 1658 011b 05       		.uleb128 0x5
 1659 011c 49       		.uleb128 0x49
 1660 011d 13       		.uleb128 0x13
 1661 011e 00       		.byte	0
 1662 011f 00       		.byte	0
 1663 0120 19       		.uleb128 0x19
 1664 0121 2E       		.uleb128 0x2e
 1665 0122 01       		.byte	0x1
 1666 0123 03       		.uleb128 0x3
 1667 0124 0E       		.uleb128 0xe
 1668 0125 3A       		.uleb128 0x3a
 1669 0126 0B       		.uleb128 0xb
 1670 0127 3B       		.uleb128 0x3b
 1671 0128 0B       		.uleb128 0xb
 1672 0129 27       		.uleb128 0x27
 1673 012a 19       		.uleb128 0x19
 1674 012b 20       		.uleb128 0x20
 1675 012c 0B       		.uleb128 0xb
 1676 012d 01       		.uleb128 0x1
 1677 012e 13       		.uleb128 0x13
 1678 012f 00       		.byte	0
 1679 0130 00       		.byte	0
 1680 0131 1A       		.uleb128 0x1a
 1681 0132 05       		.uleb128 0x5
 1682 0133 00       		.byte	0
 1683 0134 03       		.uleb128 0x3
 1684 0135 0E       		.uleb128 0xe
 1685 0136 3A       		.uleb128 0x3a
 1686 0137 0B       		.uleb128 0xb
 1687 0138 3B       		.uleb128 0x3b
 1688 0139 0B       		.uleb128 0xb
 1689 013a 49       		.uleb128 0x49
 1690 013b 13       		.uleb128 0x13
 1691 013c 00       		.byte	0
 1692 013d 00       		.byte	0
 1693 013e 1B       		.uleb128 0x1b
 1694 013f 2E       		.uleb128 0x2e
 1695 0140 00       		.byte	0
 1696 0141 03       		.uleb128 0x3
 1697 0142 0E       		.uleb128 0xe
 1698 0143 3A       		.uleb128 0x3a
 1699 0144 0B       		.uleb128 0xb
 1700 0145 3B       		.uleb128 0x3b
 1701 0146 0B       		.uleb128 0xb
 1702 0147 27       		.uleb128 0x27
 1703 0148 19       		.uleb128 0x19
 1704 0149 20       		.uleb128 0x20
 1705 014a 0B       		.uleb128 0xb
 1706 014b 00       		.byte	0
 1707 014c 00       		.byte	0
 1708 014d 1C       		.uleb128 0x1c
 1709 014e 2E       		.uleb128 0x2e
 1710 014f 00       		.byte	0
ARM GAS  /var/folders/m4/4md61f0s1_g0rzfghffqnxvr0000gn/T//ccnva95y.s 			page 31


 1711 0150 03       		.uleb128 0x3
 1712 0151 0E       		.uleb128 0xe
 1713 0152 3A       		.uleb128 0x3a
 1714 0153 0B       		.uleb128 0xb
 1715 0154 3B       		.uleb128 0x3b
 1716 0155 0B       		.uleb128 0xb
 1717 0156 27       		.uleb128 0x27
 1718 0157 19       		.uleb128 0x19
 1719 0158 49       		.uleb128 0x49
 1720 0159 13       		.uleb128 0x13
 1721 015a 20       		.uleb128 0x20
 1722 015b 0B       		.uleb128 0xb
 1723 015c 00       		.byte	0
 1724 015d 00       		.byte	0
 1725 015e 1D       		.uleb128 0x1d
 1726 015f 2E       		.uleb128 0x2e
 1727 0160 01       		.byte	0x1
 1728 0161 3F       		.uleb128 0x3f
 1729 0162 19       		.uleb128 0x19
 1730 0163 03       		.uleb128 0x3
 1731 0164 0E       		.uleb128 0xe
 1732 0165 3A       		.uleb128 0x3a
 1733 0166 0B       		.uleb128 0xb
 1734 0167 3B       		.uleb128 0x3b
 1735 0168 0B       		.uleb128 0xb
 1736 0169 27       		.uleb128 0x27
 1737 016a 19       		.uleb128 0x19
 1738 016b 11       		.uleb128 0x11
 1739 016c 01       		.uleb128 0x1
 1740 016d 12       		.uleb128 0x12
 1741 016e 06       		.uleb128 0x6
 1742 016f 40       		.uleb128 0x40
 1743 0170 18       		.uleb128 0x18
 1744 0171 9742     		.uleb128 0x2117
 1745 0173 19       		.uleb128 0x19
 1746 0174 01       		.uleb128 0x1
 1747 0175 13       		.uleb128 0x13
 1748 0176 00       		.byte	0
 1749 0177 00       		.byte	0
 1750 0178 1E       		.uleb128 0x1e
 1751 0179 898201   		.uleb128 0x4109
 1752 017c 00       		.byte	0
 1753 017d 11       		.uleb128 0x11
 1754 017e 01       		.uleb128 0x1
 1755 017f 9542     		.uleb128 0x2115
 1756 0181 19       		.uleb128 0x19
 1757 0182 31       		.uleb128 0x31
 1758 0183 13       		.uleb128 0x13
 1759 0184 00       		.byte	0
 1760 0185 00       		.byte	0
 1761 0186 1F       		.uleb128 0x1f
 1762 0187 05       		.uleb128 0x5
 1763 0188 00       		.byte	0
 1764 0189 03       		.uleb128 0x3
 1765 018a 0E       		.uleb128 0xe
 1766 018b 3A       		.uleb128 0x3a
 1767 018c 0B       		.uleb128 0xb
ARM GAS  /var/folders/m4/4md61f0s1_g0rzfghffqnxvr0000gn/T//ccnva95y.s 			page 32


 1768 018d 3B       		.uleb128 0x3b
 1769 018e 0B       		.uleb128 0xb
 1770 018f 49       		.uleb128 0x49
 1771 0190 13       		.uleb128 0x13
 1772 0191 02       		.uleb128 0x2
 1773 0192 18       		.uleb128 0x18
 1774 0193 00       		.byte	0
 1775 0194 00       		.byte	0
 1776 0195 20       		.uleb128 0x20
 1777 0196 34       		.uleb128 0x34
 1778 0197 00       		.byte	0
 1779 0198 03       		.uleb128 0x3
 1780 0199 0E       		.uleb128 0xe
 1781 019a 49       		.uleb128 0x49
 1782 019b 13       		.uleb128 0x13
 1783 019c 34       		.uleb128 0x34
 1784 019d 19       		.uleb128 0x19
 1785 019e 00       		.byte	0
 1786 019f 00       		.byte	0
 1787 01a0 21       		.uleb128 0x21
 1788 01a1 1D       		.uleb128 0x1d
 1789 01a2 01       		.byte	0x1
 1790 01a3 31       		.uleb128 0x31
 1791 01a4 13       		.uleb128 0x13
 1792 01a5 11       		.uleb128 0x11
 1793 01a6 01       		.uleb128 0x1
 1794 01a7 12       		.uleb128 0x12
 1795 01a8 06       		.uleb128 0x6
 1796 01a9 58       		.uleb128 0x58
 1797 01aa 0B       		.uleb128 0xb
 1798 01ab 59       		.uleb128 0x59
 1799 01ac 0B       		.uleb128 0xb
 1800 01ad 00       		.byte	0
 1801 01ae 00       		.byte	0
 1802 01af 22       		.uleb128 0x22
 1803 01b0 05       		.uleb128 0x5
 1804 01b1 00       		.byte	0
 1805 01b2 31       		.uleb128 0x31
 1806 01b3 13       		.uleb128 0x13
 1807 01b4 02       		.uleb128 0x2
 1808 01b5 17       		.uleb128 0x17
 1809 01b6 00       		.byte	0
 1810 01b7 00       		.byte	0
 1811 01b8 23       		.uleb128 0x23
 1812 01b9 1D       		.uleb128 0x1d
 1813 01ba 00       		.byte	0
 1814 01bb 31       		.uleb128 0x31
 1815 01bc 13       		.uleb128 0x13
 1816 01bd 11       		.uleb128 0x11
 1817 01be 01       		.uleb128 0x1
 1818 01bf 12       		.uleb128 0x12
 1819 01c0 06       		.uleb128 0x6
 1820 01c1 58       		.uleb128 0x58
 1821 01c2 0B       		.uleb128 0xb
 1822 01c3 59       		.uleb128 0x59
 1823 01c4 0B       		.uleb128 0xb
 1824 01c5 00       		.byte	0
ARM GAS  /var/folders/m4/4md61f0s1_g0rzfghffqnxvr0000gn/T//ccnva95y.s 			page 33


 1825 01c6 00       		.byte	0
 1826 01c7 24       		.uleb128 0x24
 1827 01c8 2E       		.uleb128 0x2e
 1828 01c9 01       		.byte	0x1
 1829 01ca 3F       		.uleb128 0x3f
 1830 01cb 19       		.uleb128 0x19
 1831 01cc 03       		.uleb128 0x3
 1832 01cd 0E       		.uleb128 0xe
 1833 01ce 3A       		.uleb128 0x3a
 1834 01cf 0B       		.uleb128 0xb
 1835 01d0 3B       		.uleb128 0x3b
 1836 01d1 0B       		.uleb128 0xb
 1837 01d2 27       		.uleb128 0x27
 1838 01d3 19       		.uleb128 0x19
 1839 01d4 49       		.uleb128 0x49
 1840 01d5 13       		.uleb128 0x13
 1841 01d6 11       		.uleb128 0x11
 1842 01d7 01       		.uleb128 0x1
 1843 01d8 12       		.uleb128 0x12
 1844 01d9 06       		.uleb128 0x6
 1845 01da 40       		.uleb128 0x40
 1846 01db 18       		.uleb128 0x18
 1847 01dc 9742     		.uleb128 0x2117
 1848 01de 19       		.uleb128 0x19
 1849 01df 01       		.uleb128 0x1
 1850 01e0 13       		.uleb128 0x13
 1851 01e1 00       		.byte	0
 1852 01e2 00       		.byte	0
 1853 01e3 25       		.uleb128 0x25
 1854 01e4 34       		.uleb128 0x34
 1855 01e5 00       		.byte	0
 1856 01e6 03       		.uleb128 0x3
 1857 01e7 0E       		.uleb128 0xe
 1858 01e8 3A       		.uleb128 0x3a
 1859 01e9 0B       		.uleb128 0xb
 1860 01ea 3B       		.uleb128 0x3b
 1861 01eb 05       		.uleb128 0x5
 1862 01ec 49       		.uleb128 0x49
 1863 01ed 13       		.uleb128 0x13
 1864 01ee 3F       		.uleb128 0x3f
 1865 01ef 19       		.uleb128 0x19
 1866 01f0 3C       		.uleb128 0x3c
 1867 01f1 19       		.uleb128 0x19
 1868 01f2 00       		.byte	0
 1869 01f3 00       		.byte	0
 1870 01f4 26       		.uleb128 0x26
 1871 01f5 34       		.uleb128 0x34
 1872 01f6 00       		.byte	0
 1873 01f7 03       		.uleb128 0x3
 1874 01f8 08       		.uleb128 0x8
 1875 01f9 3A       		.uleb128 0x3a
 1876 01fa 0B       		.uleb128 0xb
 1877 01fb 3B       		.uleb128 0x3b
 1878 01fc 05       		.uleb128 0x5
 1879 01fd 49       		.uleb128 0x49
 1880 01fe 13       		.uleb128 0x13
 1881 01ff 3F       		.uleb128 0x3f
ARM GAS  /var/folders/m4/4md61f0s1_g0rzfghffqnxvr0000gn/T//ccnva95y.s 			page 34


 1882 0200 19       		.uleb128 0x19
 1883 0201 3C       		.uleb128 0x3c
 1884 0202 19       		.uleb128 0x19
 1885 0203 00       		.byte	0
 1886 0204 00       		.byte	0
 1887 0205 27       		.uleb128 0x27
 1888 0206 2E       		.uleb128 0x2e
 1889 0207 00       		.byte	0
 1890 0208 3F       		.uleb128 0x3f
 1891 0209 19       		.uleb128 0x19
 1892 020a 3C       		.uleb128 0x3c
 1893 020b 19       		.uleb128 0x19
 1894 020c 6E       		.uleb128 0x6e
 1895 020d 0E       		.uleb128 0xe
 1896 020e 03       		.uleb128 0x3
 1897 020f 0E       		.uleb128 0xe
 1898 0210 3A       		.uleb128 0x3a
 1899 0211 0B       		.uleb128 0xb
 1900 0212 3B       		.uleb128 0x3b
 1901 0213 0B       		.uleb128 0xb
 1902 0214 00       		.byte	0
 1903 0215 00       		.byte	0
 1904 0216 00       		.byte	0
 1905              		.section	.debug_loc,"",%progbits
 1906              	.Ldebug_loc0:
 1907              	.LLST0:
 1908 0000 04000000 		.4byte	.LVL2
 1909 0004 0E000000 		.4byte	.LVL3
 1910 0008 0100     		.2byte	0x1
 1911 000a 50       		.byte	0x50
 1912 000b 00000000 		.4byte	0
 1913 000f 00000000 		.4byte	0
 1914              	.LLST1:
 1915 0013 04000000 		.4byte	.LVL5
 1916 0017 06000000 		.4byte	.LVL6
 1917 001b 0100     		.2byte	0x1
 1918 001d 50       		.byte	0x50
 1919 001e 00000000 		.4byte	0
 1920 0022 00000000 		.4byte	0
 1921              		.section	.debug_aranges,"",%progbits
 1922 0000 3C000000 		.4byte	0x3c
 1923 0004 0200     		.2byte	0x2
 1924 0006 00000000 		.4byte	.Ldebug_info0
 1925 000a 04       		.byte	0x4
 1926 000b 00       		.byte	0
 1927 000c 0000     		.2byte	0
 1928 000e 0000     		.2byte	0
 1929 0010 00000000 		.4byte	.LFB268
 1930 0014 04000000 		.4byte	.LFE268-.LFB268
 1931 0018 00000000 		.4byte	.LFB269
 1932 001c 10000000 		.4byte	.LFE269-.LFB269
 1933 0020 00000000 		.4byte	.LFB270
 1934 0024 0A000000 		.4byte	.LFE270-.LFB270
 1935 0028 00000000 		.4byte	.LFB271
 1936 002c 08000000 		.4byte	.LFE271-.LFB271
 1937 0030 00000000 		.4byte	.LFB272
 1938 0034 08000000 		.4byte	.LFE272-.LFB272
ARM GAS  /var/folders/m4/4md61f0s1_g0rzfghffqnxvr0000gn/T//ccnva95y.s 			page 35


 1939 0038 00000000 		.4byte	0
 1940 003c 00000000 		.4byte	0
 1941              		.section	.debug_ranges,"",%progbits
 1942              	.Ldebug_ranges0:
 1943 0000 00000000 		.4byte	.LFB268
 1944 0004 04000000 		.4byte	.LFE268
 1945 0008 00000000 		.4byte	.LFB269
 1946 000c 10000000 		.4byte	.LFE269
 1947 0010 00000000 		.4byte	.LFB270
 1948 0014 0A000000 		.4byte	.LFE270
 1949 0018 00000000 		.4byte	.LFB271
 1950 001c 08000000 		.4byte	.LFE271
 1951 0020 00000000 		.4byte	.LFB272
 1952 0024 08000000 		.4byte	.LFE272
 1953 0028 00000000 		.4byte	0
 1954 002c 00000000 		.4byte	0
 1955              		.section	.debug_line,"",%progbits
 1956              	.Ldebug_line0:
 1957 0000 10030000 		.section	.debug_str,"MS",%progbits,1
 1957      02009702 
 1957      00000201 
 1957      FB0E0D00 
 1957      01010101 
 1958              	.LASF53:
 1959 0000 72656164 		.ascii	"ready_list_t\000"
 1959      795F6C69 
 1959      73745F74 
 1959      00
 1960              	.LASF106:
 1961 000d 44494552 		.ascii	"DIER\000"
 1961      00
 1962              	.LASF91:
 1963 0012 77747472 		.ascii	"wttrp\000"
 1963      7000
 1964              	.LASF88:
 1965 0018 7264796D 		.ascii	"rdymsg\000"
 1965      736700
 1966              	.LASF16:
 1967 001f 75696E74 		.ascii	"uint64_t\000"
 1967      36345F74 
 1967      00
 1968              	.LASF5:
 1969 0028 5F5F7569 		.ascii	"__uint8_t\000"
 1969      6E74385F 
 1969      7400
 1970              	.LASF85:
 1971 0032 706F7274 		.ascii	"port_intctx\000"
 1971      5F696E74 
 1971      63747800 
 1972              	.LASF72:
 1973 003e 73797374 		.ascii	"system_debug_t\000"
 1973      656D5F64 
 1973      65627567 
 1973      5F7400
 1974              	.LASF12:
 1975 004d 6C6F6E67 		.ascii	"long long unsigned int\000"
 1975      206C6F6E 
ARM GAS  /var/folders/m4/4md61f0s1_g0rzfghffqnxvr0000gn/T//ccnva95y.s 			page 36


 1975      6720756E 
 1975      7369676E 
 1975      65642069 
 1976              	.LASF89:
 1977 0064 65786974 		.ascii	"exitcode\000"
 1977      636F6465 
 1977      00
 1978              	.LASF79:
 1979 006d 6D61696E 		.ascii	"mainthread\000"
 1979      74687265 
 1979      616400
 1980              	.LASF69:
 1981 0078 76697274 		.ascii	"virtual_timers_list_t\000"
 1981      75616C5F 
 1981      74696D65 
 1981      72735F6C 
 1981      6973745F 
 1982              	.LASF124:
 1983 008e 49544D5F 		.ascii	"ITM_RxBuffer\000"
 1983      52784275 
 1983      66666572 
 1983      00
 1984              	.LASF131:
 1985 009b 73745F6C 		.ascii	"st_lld_init\000"
 1985      6C645F69 
 1985      6E697400 
 1986              	.LASF110:
 1987 00a7 42445452 		.ascii	"BDTR\000"
 1987      00
 1988              	.LASF52:
 1989 00ac 63685F74 		.ascii	"ch_threads_queue\000"
 1989      68726561 
 1989      64735F71 
 1989      75657565 
 1989      00
 1990              	.LASF30:
 1991 00bd 705F7072 		.ascii	"p_prio\000"
 1991      696F00
 1992              	.LASF107:
 1993 00c4 43434D52 		.ascii	"CCMR1\000"
 1993      3100
 1994              	.LASF108:
 1995 00ca 43434D52 		.ascii	"CCMR2\000"
 1995      3200
 1996              	.LASF112:
 1997 00d0 43434D52 		.ascii	"CCMR3\000"
 1997      3300
 1998              	.LASF1:
 1999 00d6 7369676E 		.ascii	"signed char\000"
 1999      65642063 
 1999      68617200 
 2000              	.LASF99:
 2001 00e2 6D5F7175 		.ascii	"m_queue\000"
 2001      65756500 
 2002              	.LASF78:
 2003 00ea 76746C69 		.ascii	"vtlist\000"
 2003      737400
ARM GAS  /var/folders/m4/4md61f0s1_g0rzfghffqnxvr0000gn/T//ccnva95y.s 			page 37


 2004              	.LASF21:
 2005 00f1 74736C69 		.ascii	"tslices_t\000"
 2005      6365735F 
 2005      7400
 2006              	.LASF76:
 2007 00fb 63685F73 		.ascii	"ch_system\000"
 2007      79737465 
 2007      6D00
 2008              	.LASF7:
 2009 0105 6C6F6E67 		.ascii	"long int\000"
 2009      20696E74 
 2009      00
 2010              	.LASF19:
 2011 010e 74737461 		.ascii	"tstate_t\000"
 2011      74655F74 
 2011      00
 2012              	.LASF32:
 2013 0117 705F6E65 		.ascii	"p_newer\000"
 2013      77657200 
 2014              	.LASF96:
 2015 011f 735F7175 		.ascii	"s_queue\000"
 2015      65756500 
 2016              	.LASF4:
 2017 0127 73686F72 		.ascii	"short unsigned int\000"
 2017      7420756E 
 2017      7369676E 
 2017      65642069 
 2017      6E7400
 2018              	.LASF58:
 2019 013a 725F6E65 		.ascii	"r_newer\000"
 2019      77657200 
 2020              	.LASF46:
 2021 0142 705F6D70 		.ascii	"p_mpool\000"
 2021      6F6F6C00 
 2022              	.LASF82:
 2023 014a 72656761 		.ascii	"regarm_t\000"
 2023      726D5F74 
 2023      00
 2024              	.LASF65:
 2025 0153 76745F70 		.ascii	"vt_prev\000"
 2025      72657600 
 2026              	.LASF10:
 2027 015b 6C6F6E67 		.ascii	"long long int\000"
 2027      206C6F6E 
 2027      6720696E 
 2027      7400
 2028              	.LASF80:
 2029 0169 69646C65 		.ascii	"idle_thread_wa\000"
 2029      5F746872 
 2029      6561645F 
 2029      776100
 2030              	.LASF25:
 2031 0178 636E745F 		.ascii	"cnt_t\000"
 2031      7400
 2032              	.LASF0:
 2033 017e 756E7369 		.ascii	"unsigned int\000"
 2033      676E6564 
ARM GAS  /var/folders/m4/4md61f0s1_g0rzfghffqnxvr0000gn/T//ccnva95y.s 			page 38


 2033      20696E74 
 2033      00
 2034              	.LASF64:
 2035 018b 76745F6E 		.ascii	"vt_next\000"
 2035      65787400 
 2036              	.LASF39:
 2037 0193 705F7469 		.ascii	"p_time\000"
 2037      6D6500
 2038              	.LASF92:
 2039 019a 77747365 		.ascii	"wtsemp\000"
 2039      6D7000
 2040              	.LASF66:
 2041 01a1 76745F64 		.ascii	"vt_delta\000"
 2041      656C7461 
 2041      00
 2042              	.LASF41:
 2043 01aa 705F6D73 		.ascii	"p_msgqueue\000"
 2043      67717565 
 2043      756500
 2044              	.LASF97:
 2045 01b5 735F636E 		.ascii	"s_cnt\000"
 2045      7400
 2046              	.LASF105:
 2047 01bb 534D4352 		.ascii	"SMCR\000"
 2047      00
 2048              	.LASF49:
 2049 01c0 63685F74 		.ascii	"ch_thread\000"
 2049      68726561 
 2049      6400
 2050              	.LASF116:
 2051 01ca 73745F6C 		.ascii	"st_lld_set_alarm\000"
 2051      6C645F73 
 2051      65745F61 
 2051      6C61726D 
 2051      00
 2052              	.LASF23:
 2053 01db 6D73675F 		.ascii	"msg_t\000"
 2053      7400
 2054              	.LASF127:
 2055 01e1 2F557365 		.ascii	"/Users/raphael/Documents/Projects/rESC/resc-firmwar"
 2055      72732F72 
 2055      61706861 
 2055      656C2F44 
 2055      6F63756D 
 2056 0214 6500     		.ascii	"e\000"
 2057              	.LASF75:
 2058 0216 63685F73 		.ascii	"ch_system_t\000"
 2058      79737465 
 2058      6D5F7400 
 2059              	.LASF114:
 2060 0222 73746D33 		.ascii	"stm32_tim_t\000"
 2060      325F7469 
 2060      6D5F7400 
 2061              	.LASF54:
 2062 022e 63685F72 		.ascii	"ch_ready_list\000"
 2062      65616479 
 2062      5F6C6973 
ARM GAS  /var/folders/m4/4md61f0s1_g0rzfghffqnxvr0000gn/T//ccnva95y.s 			page 39


 2062      7400
 2063              	.LASF24:
 2064 023c 6576656E 		.ascii	"eventmask_t\000"
 2064      746D6173 
 2064      6B5F7400 
 2065              	.LASF6:
 2066 0248 5F5F696E 		.ascii	"__int32_t\000"
 2066      7433325F 
 2066      7400
 2067              	.LASF115:
 2068 0252 73745F6C 		.ascii	"st_lld_start_alarm\000"
 2068      6C645F73 
 2068      74617274 
 2068      5F616C61 
 2068      726D00
 2069              	.LASF83:
 2070 0265 73746B61 		.ascii	"stkalign_t\000"
 2070      6C69676E 
 2070      5F7400
 2071              	.LASF48:
 2072 0270 74687265 		.ascii	"threads_list_t\000"
 2072      6164735F 
 2072      6C697374 
 2072      5F7400
 2073              	.LASF40:
 2074 027f 705F7761 		.ascii	"p_waiting\000"
 2074      6974696E 
 2074      6700
 2075              	.LASF81:
 2076 0289 73697A65 		.ascii	"sizetype\000"
 2076      74797065 
 2076      00
 2077              	.LASF47:
 2078 0292 74687265 		.ascii	"thread_reference_t\000"
 2078      61645F72 
 2078      65666572 
 2078      656E6365 
 2078      5F7400
 2079              	.LASF70:
 2080 02a5 63685F76 		.ascii	"ch_virtual_timers_list\000"
 2080      69727475 
 2080      616C5F74 
 2080      696D6572 
 2080      735F6C69 
 2081              	.LASF33:
 2082 02bc 705F6F6C 		.ascii	"p_older\000"
 2082      64657200 
 2083              	.LASF118:
 2084 02c4 7374496E 		.ascii	"stInit\000"
 2084      697400
 2085              	.LASF125:
 2086 02cb 474E5520 		.ascii	"GNU C99 5.2.1 20151202 (release) [ARM/embedded-5-br"
 2086      43393920 
 2086      352E322E 
 2086      31203230 
 2086      31353132 
 2087 02fe 616E6368 		.ascii	"anch revision 231848] -mcpu=cortex-m4 -mfloat-abi=h"
ARM GAS  /var/folders/m4/4md61f0s1_g0rzfghffqnxvr0000gn/T//ccnva95y.s 			page 40


 2087      20726576 
 2087      6973696F 
 2087      6E203233 
 2087      31383438 
 2088 0331 61726420 		.ascii	"ard -mfpu=fpv4-sp-d16 -mno-thumb-interwork -mthumb "
 2088      2D6D6670 
 2088      753D6670 
 2088      76342D73 
 2088      702D6431 
 2089 0364 2D676764 		.ascii	"-ggdb -O2 -std=c99 -fomit-frame-pointer -falign-fun"
 2089      62202D4F 
 2089      32202D73 
 2089      74643D63 
 2089      3939202D 
 2090 0397 6374696F 		.ascii	"ctions=16 -fsingle-precision-constant -ffunction-se"
 2090      6E733D31 
 2090      36202D66 
 2090      73696E67 
 2090      6C652D70 
 2091 03ca 6374696F 		.ascii	"ctions -fdata-sections -fno-common\000"
 2091      6E73202D 
 2091      66646174 
 2091      612D7365 
 2091      6374696F 
 2092              	.LASF57:
 2093 03ed 725F6374 		.ascii	"r_ctx\000"
 2093      7800
 2094              	.LASF87:
 2095 03f3 746D5F63 		.ascii	"tm_calibration_t\000"
 2095      616C6962 
 2095      72617469 
 2095      6F6E5F74 
 2095      00
 2096              	.LASF117:
 2097 0404 74696D65 		.ascii	"time\000"
 2097      00
 2098              	.LASF60:
 2099 0409 725F6375 		.ascii	"r_current\000"
 2099      7272656E 
 2099      7400
 2100              	.LASF59:
 2101 0413 725F6F6C 		.ascii	"r_older\000"
 2101      64657200 
 2102              	.LASF11:
 2103 041b 5F5F7569 		.ascii	"__uint64_t\000"
 2103      6E743634 
 2103      5F7400
 2104              	.LASF20:
 2105 0426 74726566 		.ascii	"trefs_t\000"
 2105      735F7400 
 2106              	.LASF62:
 2107 042e 76697274 		.ascii	"virtual_timer_t\000"
 2107      75616C5F 
 2107      74696D65 
 2107      725F7400 
 2108              	.LASF29:
 2109 043e 705F7072 		.ascii	"p_prev\000"
ARM GAS  /var/folders/m4/4md61f0s1_g0rzfghffqnxvr0000gn/T//ccnva95y.s 			page 41


 2109      657600
 2110              	.LASF22:
 2111 0445 74707269 		.ascii	"tprio_t\000"
 2111      6F5F7400 
 2112              	.LASF73:
 2113 044d 63685F73 		.ascii	"ch_system_debug\000"
 2113      79737465 
 2113      6D5F6465 
 2113      62756700 
 2114              	.LASF104:
 2115 045d 5F426F6F 		.ascii	"_Bool\000"
 2115      6C00
 2116              	.LASF14:
 2117 0463 696E7433 		.ascii	"int32_t\000"
 2117      325F7400 
 2118              	.LASF2:
 2119 046b 756E7369 		.ascii	"unsigned char\000"
 2119      676E6564 
 2119      20636861 
 2119      7200
 2120              	.LASF44:
 2121 0479 705F6D74 		.ascii	"p_mtxlist\000"
 2121      786C6973 
 2121      7400
 2122              	.LASF3:
 2123 0483 73686F72 		.ascii	"short int\000"
 2123      7420696E 
 2123      7400
 2124              	.LASF35:
 2125 048d 705F7374 		.ascii	"p_state\000"
 2125      61746500 
 2126              	.LASF38:
 2127 0495 705F7072 		.ascii	"p_preempt\000"
 2127      65656D70 
 2127      7400
 2128              	.LASF56:
 2129 049f 725F7072 		.ascii	"r_prio\000"
 2129      696F00
 2130              	.LASF94:
 2131 04a6 65776D61 		.ascii	"ewmask\000"
 2131      736B00
 2132              	.LASF28:
 2133 04ad 705F6E65 		.ascii	"p_next\000"
 2133      787400
 2134              	.LASF18:
 2135 04b4 746D6F64 		.ascii	"tmode_t\000"
 2135      655F7400 
 2136              	.LASF13:
 2137 04bc 75696E74 		.ascii	"uint8_t\000"
 2137      385F7400 
 2138              	.LASF123:
 2139 04c4 5F5F6675 		.ascii	"__func__\000"
 2139      6E635F5F 
 2139      00
 2140              	.LASF63:
 2141 04cd 63685F76 		.ascii	"ch_virtual_timer\000"
 2141      69727475 
ARM GAS  /var/folders/m4/4md61f0s1_g0rzfghffqnxvr0000gn/T//ccnva95y.s 			page 42


 2141      616C5F74 
 2141      696D6572 
 2141      00
 2142              	.LASF129:
 2143 04de 73745F6C 		.ascii	"st_lld_get_alarm\000"
 2143      6C645F67 
 2143      65745F61 
 2143      6C61726D 
 2143      00
 2144              	.LASF95:
 2145 04ef 63685F73 		.ascii	"ch_semaphore\000"
 2145      656D6170 
 2145      686F7265 
 2145      00
 2146              	.LASF113:
 2147 04fc 43435852 		.ascii	"CCXR\000"
 2147      00
 2148              	.LASF43:
 2149 0501 705F6570 		.ascii	"p_epending\000"
 2149      656E6469 
 2149      6E6700
 2150              	.LASF15:
 2151 050c 75696E74 		.ascii	"uint32_t\000"
 2151      33325F74 
 2151      00
 2152              	.LASF93:
 2153 0515 77746D74 		.ascii	"wtmtxp\000"
 2153      787000
 2154              	.LASF55:
 2155 051c 725F7175 		.ascii	"r_queue\000"
 2155      65756500 
 2156              	.LASF50:
 2157 0524 63685F74 		.ascii	"ch_threads_list\000"
 2157      68726561 
 2157      64735F6C 
 2157      69737400 
 2158              	.LASF9:
 2159 0534 6C6F6E67 		.ascii	"long unsigned int\000"
 2159      20756E73 
 2159      69676E65 
 2159      6420696E 
 2159      7400
 2160              	.LASF120:
 2161 0546 73745374 		.ascii	"stStopAlarm\000"
 2161      6F70416C 
 2161      61726D00 
 2162              	.LASF102:
 2163 0552 63686172 		.ascii	"char\000"
 2163      00
 2164              	.LASF111:
 2165 0557 444D4152 		.ascii	"DMAR\000"
 2165      00
 2166              	.LASF27:
 2167 055c 74687265 		.ascii	"thread_t\000"
 2167      61645F74 
 2167      00
 2168              	.LASF109:
ARM GAS  /var/folders/m4/4md61f0s1_g0rzfghffqnxvr0000gn/T//ccnva95y.s 			page 43


 2169 0565 43434552 		.ascii	"CCER\000"
 2169      00
 2170              	.LASF101:
 2171 056a 6D5F6E65 		.ascii	"m_next\000"
 2171      787400
 2172              	.LASF26:
 2173 0571 73797374 		.ascii	"systime_t\000"
 2173      696D655F 
 2173      7400
 2174              	.LASF45:
 2175 057b 705F7265 		.ascii	"p_realprio\000"
 2175      616C7072 
 2175      696F00
 2176              	.LASF61:
 2177 0586 76746675 		.ascii	"vtfunc_t\000"
 2177      6E635F74 
 2177      00
 2178              	.LASF8:
 2179 058f 5F5F7569 		.ascii	"__uint32_t\000"
 2179      6E743332 
 2179      5F7400
 2180              	.LASF74:
 2181 059a 70616E69 		.ascii	"panic_msg\000"
 2181      635F6D73 
 2181      6700
 2182              	.LASF86:
 2183 05a4 6F666673 		.ascii	"offset\000"
 2183      657400
 2184              	.LASF119:
 2185 05ab 73745374 		.ascii	"stStartAlarm\000"
 2185      61727441 
 2185      6C61726D 
 2185      00
 2186              	.LASF84:
 2187 05b8 636F6E74 		.ascii	"context\000"
 2187      65787400 
 2188              	.LASF42:
 2189 05c0 705F6D73 		.ascii	"p_msg\000"
 2189      6700
 2190              	.LASF17:
 2191 05c6 7274636E 		.ascii	"rtcnt_t\000"
 2191      745F7400 
 2192              	.LASF128:
 2193 05ce 73745F6C 		.ascii	"st_lld_stop_alarm\000"
 2193      6C645F73 
 2193      746F705F 
 2193      616C6172 
 2193      6D00
 2194              	.LASF68:
 2195 05e0 76745F70 		.ascii	"vt_par\000"
 2195      617200
 2196              	.LASF51:
 2197 05e7 74687265 		.ascii	"threads_queue_t\000"
 2197      6164735F 
 2197      71756575 
 2197      655F7400 
 2198              	.LASF98:
ARM GAS  /var/folders/m4/4md61f0s1_g0rzfghffqnxvr0000gn/T//ccnva95y.s 			page 44


 2199 05f7 63685F6D 		.ascii	"ch_mutex\000"
 2199      75746578 
 2199      00
 2200              	.LASF37:
 2201 0600 705F7265 		.ascii	"p_refs\000"
 2201      667300
 2202              	.LASF77:
 2203 0607 726C6973 		.ascii	"rlist\000"
 2203      7400
 2204              	.LASF121:
 2205 060d 73745365 		.ascii	"stSetAlarm\000"
 2205      74416C61 
 2205      726D00
 2206              	.LASF130:
 2207 0618 73744765 		.ascii	"stGetAlarm\000"
 2207      74416C61 
 2207      726D00
 2208              	.LASF90:
 2209 0623 77746F62 		.ascii	"wtobjp\000"
 2209      6A7000
 2210              	.LASF34:
 2211 062a 705F6E61 		.ascii	"p_name\000"
 2211      6D6500
 2212              	.LASF71:
 2213 0631 76745F73 		.ascii	"vt_systime\000"
 2213      79737469 
 2213      6D6500
 2214              	.LASF122:
 2215 063c 61627374 		.ascii	"abstime\000"
 2215      696D6500 
 2216              	.LASF36:
 2217 0644 705F666C 		.ascii	"p_flags\000"
 2217      61677300 
 2218              	.LASF126:
 2219 064c 43686962 		.ascii	"ChibiOS_16.1.4/os/hal/src/st.c\000"
 2219      694F535F 
 2219      31362E31 
 2219      2E342F6F 
 2219      732F6861 
 2220              	.LASF103:
 2221 066b 6D757465 		.ascii	"mutex_t\000"
 2221      785F7400 
 2222              	.LASF100:
 2223 0673 6D5F6F77 		.ascii	"m_owner\000"
 2223      6E657200 
 2224              	.LASF31:
 2225 067b 705F6374 		.ascii	"p_ctx\000"
 2225      7800
 2226              	.LASF67:
 2227 0681 76745F66 		.ascii	"vt_func\000"
 2227      756E6300 
 2228              		.ident	"GCC: (GNU Tools for ARM Embedded Processors) 5.2.1 20151202 (release) [ARM/embedded-5-bran
ARM GAS  /var/folders/m4/4md61f0s1_g0rzfghffqnxvr0000gn/T//ccnva95y.s 			page 45


DEFINED SYMBOLS
                            *ABS*:0000000000000000 st.c
/var/folders/m4/4md61f0s1_g0rzfghffqnxvr0000gn/T//ccnva95y.s:22     .text.stInit:0000000000000000 $t
/var/folders/m4/4md61f0s1_g0rzfghffqnxvr0000gn/T//ccnva95y.s:28     .text.stInit:0000000000000000 stInit
/var/folders/m4/4md61f0s1_g0rzfghffqnxvr0000gn/T//ccnva95y.s:43     .text.stStartAlarm:0000000000000000 $t
/var/folders/m4/4md61f0s1_g0rzfghffqnxvr0000gn/T//ccnva95y.s:49     .text.stStartAlarm:0000000000000000 stStartAlarm
/var/folders/m4/4md61f0s1_g0rzfghffqnxvr0000gn/T//ccnva95y.s:81     .text.stStopAlarm:0000000000000000 $t
/var/folders/m4/4md61f0s1_g0rzfghffqnxvr0000gn/T//ccnva95y.s:87     .text.stStopAlarm:0000000000000000 stStopAlarm
/var/folders/m4/4md61f0s1_g0rzfghffqnxvr0000gn/T//ccnva95y.s:107    .text.stSetAlarm:0000000000000000 $t
/var/folders/m4/4md61f0s1_g0rzfghffqnxvr0000gn/T//ccnva95y.s:113    .text.stSetAlarm:0000000000000000 stSetAlarm
/var/folders/m4/4md61f0s1_g0rzfghffqnxvr0000gn/T//ccnva95y.s:135    .text.stGetAlarm:0000000000000000 $t
/var/folders/m4/4md61f0s1_g0rzfghffqnxvr0000gn/T//ccnva95y.s:141    .text.stGetAlarm:0000000000000000 stGetAlarm
                     .debug_frame:0000000000000010 $d

UNDEFINED SYMBOLS
st_lld_init
