ARM GAS  /var/folders/m4/4md61f0s1_g0rzfghffqnxvr0000gn/T//ccnva95y.s 			page 1


   1              		.syntax unified
   2              		.cpu cortex-m4
   3              		.eabi_attribute 27, 1
   4              		.eabi_attribute 28, 1
   5              		.fpu fpv4-sp-d16
   6              		.eabi_attribute 20, 1
   7              		.eabi_attribute 21, 1
   8              		.eabi_attribute 23, 3
   9              		.eabi_attribute 24, 1
  10              		.eabi_attribute 25, 1
  11              		.eabi_attribute 26, 1
  12              		.eabi_attribute 30, 2
  13              		.eabi_attribute 34, 1
  14              		.eabi_attribute 18, 4
  15              		.thumb
  16              		.syntax unified
  17              		.file	"st.c"
  18              		.text
  19              	.Ltext0:
  20              		.cfi_sections	.debug_frame
  21              		.section	.text.stInit,"ax",%progbits
  22              		.align	2
  23              		.p2align 4,,15
  24              		.global	stInit
  25              		.thumb
  26              		.thumb_func
  27              		.type	stInit, %function
  28              	stInit:
  29              	.LFB268:
  30              		.file 1 "ChibiOS_16.1.4/os/hal/src/st.c"
  31              		.loc 1 60 0
  32              		.cfi_startproc
  33              		@ args = 0, pretend = 0, frame = 0
  34              		@ frame_needed = 0, uses_anonymous_args = 0
  35              		@ link register save eliminated.
  36              		.loc 1 62 0
  37 0000 FFF7FEBF 		b	st_lld_init
  38              	.LVL0:
  39              		.cfi_endproc
  40              	.LFE268:
  41              		.size	stInit, .-stInit
  42              		.section	.text.stStartAlarm,"ax",%progbits
  43              		.align	2
  44              		.p2align 4,,15
  45              		.global	stStartAlarm
  46              		.thumb
  47              		.thumb_func
  48              		.type	stStartAlarm, %function
  49              	stStartAlarm:
  50              	.LFB269:
  51              		.loc 1 77 0
  52              		.cfi_startproc
  53              		@ args = 0, pretend = 0, frame = 0
  54              		@ frame_needed = 0, uses_anonymous_args = 0
  55              		@ link register save eliminated.
  56              	.LVL1:
  57              	.LBB10:
ARM GAS  /var/folders/m4/4md61f0s1_g0rzfghffqnxvr0000gn/T//ccnva95y.s 			page 2


  58              	.LBB11:
  59              		.file 2 "ChibiOS_16.1.4/os/hal/ports/STM32/LLD/TIMv1/st_lld.h"
  60              		.loc 2 155 0
  61 0000 4FF08043 		mov	r3, #1073741824
  62              	.LVL2:
  63              		.loc 2 156 0
  64 0004 0021     		movs	r1, #0
  65              		.loc 2 157 0
  66 0006 0222     		movs	r2, #2
  67              		.loc 2 155 0
  68 0008 5863     		str	r0, [r3, #52]
  69              		.loc 2 156 0
  70 000a 1961     		str	r1, [r3, #16]
  71              		.loc 2 157 0
  72 000c DA60     		str	r2, [r3, #12]
  73              	.LVL3:
  74 000e 7047     		bx	lr
  75              	.LBE11:
  76              	.LBE10:
  77              		.cfi_endproc
  78              	.LFE269:
  79              		.size	stStartAlarm, .-stStartAlarm
  80              		.section	.text.stStopAlarm,"ax",%progbits
  81              		.align	2
  82              		.p2align 4,,15
  83              		.global	stStopAlarm
  84              		.thumb
  85              		.thumb_func
  86              		.type	stStopAlarm, %function
  87              	stStopAlarm:
  88              	.LFB270:
  89              		.loc 1 91 0
  90              		.cfi_startproc
  91              		@ args = 0, pretend = 0, frame = 0
  92              		@ frame_needed = 0, uses_anonymous_args = 0
  93              		@ link register save eliminated.
  94              	.LBB12:
  95              	.LBB13:
  96              		.loc 2 167 0
  97 0000 4FF08043 		mov	r3, #1073741824
  98 0004 0022     		movs	r2, #0
  99 0006 DA60     		str	r2, [r3, #12]
 100 0008 7047     		bx	lr
 101              	.LBE13:
 102              	.LBE12:
 103              		.cfi_endproc
 104              	.LFE270:
 105              		.size	stStopAlarm, .-stStopAlarm
 106              		.section	.text.stSetAlarm,"ax",%progbits
 107              		.align	2
 108              		.p2align 4,,15
 109              		.global	stSetAlarm
 110              		.thumb
 111              		.thumb_func
 112              		.type	stSetAlarm, %function
 113              	stSetAlarm:
 114              	.LFB271:
ARM GAS  /var/folders/m4/4md61f0s1_g0rzfghffqnxvr0000gn/T//ccnva95y.s 			page 3


 115              		.loc 1 105 0
 116              		.cfi_startproc
 117              		@ args = 0, pretend = 0, frame = 0
 118              		@ frame_needed = 0, uses_anonymous_args = 0
 119              		@ link register save eliminated.
 120              	.LVL4:
 121              	.LBB14:
 122              	.LBB15:
 123              		.loc 2 179 0
 124 0000 4FF08043 		mov	r3, #1073741824
 125              	.LVL5:
 126 0004 5863     		str	r0, [r3, #52]
 127              	.LVL6:
 128 0006 7047     		bx	lr
 129              	.LBE15:
 130              	.LBE14:
 131              		.cfi_endproc
 132              	.LFE271:
 133              		.size	stSetAlarm, .-stSetAlarm
 134              		.section	.text.stGetAlarm,"ax",%progbits
 135              		.align	2
 136              		.p2align 4,,15
 137              		.global	stGetAlarm
 138              		.thumb
 139              		.thumb_func
 140              		.type	stGetAlarm, %function
 141              	stGetAlarm:
 142              	.LFB272:
 143              		.loc 1 121 0
 144              		.cfi_startproc
 145              		@ args = 0, pretend = 0, frame = 0
 146              		@ frame_needed = 0, uses_anonymous_args = 0
 147              		@ link register save eliminated.
 148              	.LBB16:
 149              	.LBB17:
 150              		.loc 2 191 0
 151 0000 4FF08043 		mov	r3, #1073741824
 152 0004 586B     		ldr	r0, [r3, #52]
 153              	.LBE17:
 154              	.LBE16:
 155              		.loc 1 126 0
 156 0006 7047     		bx	lr
 157              		.cfi_endproc
 158              	.LFE272:
 159              		.size	stGetAlarm, .-stGetAlarm
 160              		.text
 161              	.Letext0:
 162              		.file 3 "/opt/homebrew-cask/Caskroom/gcc-arm-embedded/5_2-2015q4,20151219/gcc-arm-none-eabi-5_2-20
 163              		.file 4 "/opt/homebrew-cask/Caskroom/gcc-arm-embedded/5_2-2015q4,20151219/gcc-arm-none-eabi-5_2-20
 164              		.file 5 "ChibiOS_16.1.4/os/rt/ports/ARMCMx/compilers/GCC/chtypes.h"
 165              		.file 6 "ChibiOS_16.1.4/os/rt/include/chsystypes.h"
 166              		.file 7 "ChibiOS_16.1.4/os/rt/include/chschd.h"
 167              		.file 8 "ChibiOS_16.1.4/os/rt/ports/ARMCMx/chcore.h"
 168              		.file 9 "ChibiOS_16.1.4/os/rt/ports/ARMCMx/chcore_v7m.h"
 169              		.file 10 "ChibiOS_16.1.4/os/rt/include/chtm.h"
 170              		.file 11 "ChibiOS_16.1.4/os/rt/include/chsem.h"
 171              		.file 12 "ChibiOS_16.1.4/os/rt/include/chmtx.h"
ARM GAS  /var/folders/m4/4md61f0s1_g0rzfghffqnxvr0000gn/T//ccnva95y.s 			page 4


 172              		.file 13 "ChibiOS_16.1.4/os/hal/ports/STM32/LLD/TIMv1/stm32_tim.h"
 173              		.file 14 "ChibiOS_16.1.4/os/ext/CMSIS/include/core_cm4.h"