ARM GAS  /var/folders/m4/4md61f0s1_g0rzfghffqnxvr0000gn/T//ccorkuzE.s 			page 1


   1              		.syntax unified
   2              		.cpu cortex-m4
   3              		.eabi_attribute 27, 1
   4              		.eabi_attribute 28, 1
   5              		.fpu fpv4-sp-d16
   6              		.eabi_attribute 20, 1
   7              		.eabi_attribute 21, 1
   8              		.eabi_attribute 23, 3
   9              		.eabi_attribute 24, 1
  10              		.eabi_attribute 25, 1
  11              		.eabi_attribute 26, 1
  12              		.eabi_attribute 30, 2
  13              		.eabi_attribute 34, 1
  14              		.eabi_attribute 18, 4
  15              		.thumb
  16              		.syntax unified
  17              		.file	"st_lld.c"
  18              		.text
  19              	.Ltext0:
  20              		.cfi_sections	.debug_frame
  21              		.section	.text.SysTick_Handler,"ax",%progbits
  22              		.align	2
  23              		.p2align 4,,15
  24              		.global	SysTick_Handler
  25              		.thumb
  26              		.thumb_func
  27              		.type	SysTick_Handler, %function
  28              	SysTick_Handler:
  29              	.LFB268:
  30              		.file 1 "ChibiOS_16.1.4/os/hal/ports/STM32/LLD/TIMv1/st_lld.c"
  31              		.loc 1 220 0
  32              		.cfi_startproc
  33              		@ args = 0, pretend = 0, frame = 0
  34              		@ frame_needed = 0, uses_anonymous_args = 0
  35              	.LVL0:
  36 0000 08B5     		push	{r3, lr}
  37              		.cfi_def_cfa_offset 8
  38              		.cfi_offset 3, -8
  39              		.cfi_offset 14, -4
  40              	.LBB52:
  41              	.LBB53:
  42              	.LBB54:
  43              	.LBB55:
  44              	.LBB56:
  45              	.LBB57:
  46              		.file 2 "ChibiOS_16.1.4/os/ext/CMSIS/include/core_cmFunc.h"
  47              		.loc 2 548 0
  48 0002 2023     		movs	r3, #32
  49              		.syntax unified
  50              	@ 548 "ChibiOS_16.1.4/os/ext/CMSIS/include/core_cmFunc.h" 1
  51 0004 83F31188 		MSR basepri, r3
  52              	@ 0 "" 2
  53              	.LVL1:
  54              		.thumb
  55              		.syntax unified
  56              	.LBE57:
  57              	.LBE56:
ARM GAS  /var/folders/m4/4md61f0s1_g0rzfghffqnxvr0000gn/T//ccorkuzE.s 			page 2


  58              	.LBE55:
  59              	.LBE54:
  60              	.LBE53:
  61              	.LBE52:
  62              	.LBB58:
  63              	.LBB59:
  64              		.file 3 "ChibiOS_16.1.4/os/hal/osal/rt/osal.h"
  65              		.loc 3 585 0
  66 0008 FFF7FEFF 		bl	chSysTimerHandlerI
  67              	.LVL2:
  68              	.LBE59:
  69              	.LBE58:
  70              	.LBB60:
  71              	.LBB61:
  72              	.LBB62:
  73              	.LBB63:
  74              	.LBB64:
  75              	.LBB65:
  76              		.loc 2 548 0
  77 000c 0023     		movs	r3, #0
  78              		.syntax unified
  79              	@ 548 "ChibiOS_16.1.4/os/ext/CMSIS/include/core_cmFunc.h" 1
  80 000e 83F31188 		MSR basepri, r3
  81              	@ 0 "" 2
  82              	.LVL3:
  83              		.thumb
  84              		.syntax unified
  85              	.LBE65:
  86              	.LBE64:
  87              	.LBE63:
  88              	.LBE62:
  89              	.LBE61:
  90              	.LBE60:
  91              		.loc 1 229 0
  92 0012 BDE80840 		pop	{r3, lr}
  93              		.cfi_restore 14
  94              		.cfi_restore 3
  95              		.cfi_def_cfa_offset 0
  96              		.loc 1 228 0
  97 0016 FFF7FEBF 		b	_port_irq_epilogue
  98              	.LVL4:
  99              		.cfi_endproc
 100              	.LFE268:
 101              		.size	SysTick_Handler, .-SysTick_Handler
 102 001a 00BF     		.section	.text.st_lld_init,"ax",%progbits
 103              		.align	2
 104              		.p2align 4,,15
 105              		.global	st_lld_init
 106              		.thumb
 107              		.thumb_func
 108              		.type	st_lld_init, %function
 109              	st_lld_init:
 110              	.LFB269:
 111              		.loc 1 267 0
 112              		.cfi_startproc
 113              		@ args = 0, pretend = 0, frame = 0
 114              		@ frame_needed = 0, uses_anonymous_args = 0
ARM GAS  /var/folders/m4/4md61f0s1_g0rzfghffqnxvr0000gn/T//ccorkuzE.s 			page 3


 115              		@ link register save eliminated.
 116              		.loc 1 295 0
 117 0000 054B     		ldr	r3, .L4
 118 0002 44F29F11 		movw	r1, #16799
 119              		.loc 1 296 0
 120 0006 0020     		movs	r0, #0
 121              		.loc 1 297 0
 122 0008 0722     		movs	r2, #7
 123              		.loc 1 295 0
 124 000a 5960     		str	r1, [r3, #4]
 125              		.loc 1 296 0
 126 000c 9860     		str	r0, [r3, #8]
 127              		.loc 1 302 0
 128 000e 0821     		movs	r1, #8
 129 0010 0B20     		movs	r0, #11
 130              		.loc 1 297 0
 131 0012 1A60     		str	r2, [r3]
 132              		.loc 1 302 0
 133 0014 FFF7FEBF 		b	nvicSetSystemHandlerPriority
 134              	.LVL5:
 135              	.L5:
 136              		.align	2
 137              	.L4:
 138 0018 10E000E0 		.word	-536813552
 139              		.cfi_endproc
 140              	.LFE269:
 141              		.size	st_lld_init, .-st_lld_init
 142              		.text
 143              	.Letext0:
 144              		.file 4 "/opt/homebrew-cask/Caskroom/gcc-arm-embedded/5_2-2015q4,20151219/gcc-arm-none-eabi-5_2-20
 145              		.file 5 "/opt/homebrew-cask/Caskroom/gcc-arm-embedded/5_2-2015q4,20151219/gcc-arm-none-eabi-5_2-20
 146              		.file 6 "ChibiOS_16.1.4/os/rt/ports/ARMCMx/compilers/GCC/chtypes.h"
 147              		.file 7 "ChibiOS_16.1.4/os/rt/include/chsystypes.h"
 148              		.file 8 "ChibiOS_16.1.4/os/rt/include/chschd.h"
 149              		.file 9 "ChibiOS_16.1.4/os/ext/CMSIS/include/core_cm4.h"
 150              		.file 10 "ChibiOS_16.1.4/os/rt/ports/ARMCMx/chcore.h"
 151              		.file 11 "ChibiOS_16.1.4/os/rt/ports/ARMCMx/chcore_v7m.h"
 152              		.file 12 "ChibiOS_16.1.4/os/rt/include/chtm.h"
 153              		.file 13 "ChibiOS_16.1.4/os/rt/include/chsem.h"
 154              		.file 14 "ChibiOS_16.1.4/os/rt/include/chmtx.h"
 155              		.file 15 "ChibiOS_16.1.4/os/rt/include/chsys.h"
 156              		.file 16 "ChibiOS_16.1.4/os/hal/ports/common/ARMCMx/nvic.h"