ARM GAS  /var/folders/m4/4md61f0s1_g0rzfghffqnxvr0000gn/T//ccIWSo2P.s 			page 1


   1              		.syntax unified
   2              		.cpu cortex-m4
   3              		.eabi_attribute 27, 1
   4              		.eabi_attribute 28, 1
   5              		.fpu fpv4-sp-d16
   6              		.eabi_attribute 20, 1
   7              		.eabi_attribute 21, 1
   8              		.eabi_attribute 23, 3
   9              		.eabi_attribute 24, 1
  10              		.eabi_attribute 25, 1
  11              		.eabi_attribute 26, 1
  12              		.eabi_attribute 30, 2
  13              		.eabi_attribute 34, 1
  14              		.eabi_attribute 18, 4
  15              		.thumb
  16              		.syntax unified
  17              		.file	"stm32f4xx_adc.c"
  18              		.text
  19              	.Ltext0:
  20              		.cfi_sections	.debug_frame
  21              		.section	.text.ADC_DeInit,"ax",%progbits
  22              		.align	2
  23              		.p2align 4,,15
  24              		.global	ADC_DeInit
  25              		.thumb
  26              		.thumb_func
  27              		.type	ADC_DeInit, %function
  28              	ADC_DeInit:
  29              	.LFB123:
  30              		.file 1 "ChibiOS_16.1.4/ext/stdperiph_stm32f4/src/stm32f4xx_adc.c"
  31              		.loc 1 218 0
  32              		.cfi_startproc
  33              		@ args = 0, pretend = 0, frame = 0
  34              		@ frame_needed = 0, uses_anonymous_args = 0
  35 0000 08B5     		push	{r3, lr}
  36              		.cfi_def_cfa_offset 8
  37              		.cfi_offset 3, -8
  38              		.cfi_offset 14, -4
  39              		.loc 1 220 0
  40 0002 0121     		movs	r1, #1
  41 0004 4FF48070 		mov	r0, #256
  42 0008 FFF7FEFF 		bl	RCC_APB2PeriphResetCmd
  43              	.LVL0:
  44              		.loc 1 223 0
  45 000c 0021     		movs	r1, #0
  46 000e 4FF48070 		mov	r0, #256
  47              		.loc 1 224 0
  48 0012 BDE80840 		pop	{r3, lr}
  49              		.cfi_restore 14
  50              		.cfi_restore 3
  51              		.cfi_def_cfa_offset 0
  52              		.loc 1 223 0
  53 0016 FFF7FEBF 		b	RCC_APB2PeriphResetCmd
  54              	.LVL1:
  55              		.cfi_endproc
  56              	.LFE123:
  57              		.size	ADC_DeInit, .-ADC_DeInit
ARM GAS  /var/folders/m4/4md61f0s1_g0rzfghffqnxvr0000gn/T//ccIWSo2P.s 			page 2


  58 001a 00BF     		.section	.text.ADC_Init,"ax",%progbits
  59              		.align	2
  60              		.p2align 4,,15
  61              		.global	ADC_Init
  62              		.thumb
  63              		.thumb_func
  64              		.type	ADC_Init, %function
  65              	ADC_Init:
  66              	.LFB124:
  67              		.loc 1 240 0
  68              		.cfi_startproc
  69              		@ args = 0, pretend = 0, frame = 0
  70              		@ frame_needed = 0, uses_anonymous_args = 0
  71              	.LVL2:
  72 0000 F0B5     		push	{r4, r5, r6, r7, lr}
  73              		.cfi_def_cfa_offset 20
  74              		.cfi_offset 4, -20
  75              		.cfi_offset 5, -16
  76              		.cfi_offset 6, -12
  77              		.cfi_offset 7, -8
  78              		.cfi_offset 14, -4
  79              		.loc 1 255 0
  80 0002 4468     		ldr	r4, [r0, #4]
  81              	.LVL3:
  82 0004 0A68     		ldr	r2, [r1]
  83              		.loc 1 263 0
  84 0006 0E79     		ldrb	r6, [r1, #4]	@ zero_extendqisi2
  85 0008 D1F810E0 		ldr	lr, [r1, #16]
  86 000c CD68     		ldr	r5, [r1, #12]
  87 000e 0F4B     		ldr	r3, .L5
  88 0010 24F04074 		bic	r4, r4, #50331648
  89              	.LVL4:
  90 0014 24F48074 		bic	r4, r4, #256
  91 0018 2243     		orrs	r2, r2, r4
  92 001a 42EA0622 		orr	r2, r2, r6, lsl #8
  93              	.LVL5:
  94              		.loc 1 266 0
  95 001e 4260     		str	r2, [r0, #4]
  96              		.loc 1 269 0
  97 0020 8768     		ldr	r7, [r0, #8]
  98              	.LVL6:
  99 0022 8A68     		ldr	r2, [r1, #8]
 100              		.loc 1 280 0
 101 0024 4E79     		ldrb	r6, [r1, #5]	@ zero_extendqisi2
 102 0026 4EEA0504 		orr	r4, lr, r5
 103 002a 2243     		orrs	r2, r2, r4
 104 002c 3B40     		ands	r3, r3, r7
 105              	.LVL7:
 106 002e 1343     		orrs	r3, r3, r2
 107              	.LVL8:
 108 0030 43EA4603 		orr	r3, r3, r6, lsl #1
 109              	.LVL9:
 110              		.loc 1 286 0
 111 0034 8360     		str	r3, [r0, #8]
 112              		.loc 1 297 0
 113 0036 0A7D     		ldrb	r2, [r1, #20]	@ zero_extendqisi2
 114              		.loc 1 289 0
ARM GAS  /var/folders/m4/4md61f0s1_g0rzfghffqnxvr0000gn/T//ccIWSo2P.s 			page 3


 115 0038 C36A     		ldr	r3, [r0, #44]
 116              	.LVL10:
 117              		.loc 1 297 0
 118 003a 013A     		subs	r2, r2, #1
 119 003c D2B2     		uxtb	r2, r2
 120              		.loc 1 292 0
 121 003e 23F47003 		bic	r3, r3, #15728640
 122              	.LVL11:
 123              		.loc 1 297 0
 124 0042 43EA0253 		orr	r3, r3, r2, lsl #20
 125              	.LVL12:
 126              		.loc 1 300 0
 127 0046 C362     		str	r3, [r0, #44]
 128              	.LVL13:
 129 0048 F0BD     		pop	{r4, r5, r6, r7, pc}
 130              	.L6:
 131 004a 00BF     		.align	2
 132              	.L5:
 133 004c FDF7FFC0 		.word	-1056966659
 134              		.cfi_endproc
 135              	.LFE124:
 136              		.size	ADC_Init, .-ADC_Init
 137              		.section	.text.ADC_StructInit,"ax",%progbits
 138              		.align	2
 139              		.p2align 4,,15
 140              		.global	ADC_StructInit
 141              		.thumb
 142              		.thumb_func
 143              		.type	ADC_StructInit, %function
 144              	ADC_StructInit:
 145              	.LFB125:
 146              		.loc 1 315 0
 147              		.cfi_startproc
 148              		@ args = 0, pretend = 0, frame = 0
 149              		@ frame_needed = 0, uses_anonymous_args = 0
 150              		@ link register save eliminated.
 151              	.LVL14:
 152              		.loc 1 317 0
 153 0000 0023     		movs	r3, #0
 154              		.loc 1 335 0
 155 0002 0122     		movs	r2, #1
 156 0004 0275     		strb	r2, [r0, #20]
 157              		.loc 1 317 0
 158 0006 0360     		str	r3, [r0]
 159              		.loc 1 320 0
 160 0008 0371     		strb	r3, [r0, #4]
 161              		.loc 1 323 0
 162 000a 4371     		strb	r3, [r0, #5]
 163              		.loc 1 326 0
 164 000c 8360     		str	r3, [r0, #8]
 165              		.loc 1 329 0
 166 000e C360     		str	r3, [r0, #12]
 167              		.loc 1 332 0
 168 0010 0361     		str	r3, [r0, #16]
 169 0012 7047     		bx	lr
 170              		.cfi_endproc
 171              	.LFE125:
ARM GAS  /var/folders/m4/4md61f0s1_g0rzfghffqnxvr0000gn/T//ccIWSo2P.s 			page 4


 172              		.size	ADC_StructInit, .-ADC_StructInit
 173              		.section	.text.ADC_CommonInit,"ax",%progbits
 174              		.align	2
 175              		.p2align 4,,15
 176              		.global	ADC_CommonInit
 177              		.thumb
 178              		.thumb_func
 179              		.type	ADC_CommonInit, %function
 180              	ADC_CommonInit:
 181              	.LFB126:
 182              		.loc 1 346 0
 183              		.cfi_startproc
 184              		@ args = 0, pretend = 0, frame = 0
 185              		@ frame_needed = 0, uses_anonymous_args = 0
 186              		@ link register save eliminated.
 187              	.LVL15:
 188 0000 70B4     		push	{r4, r5, r6}
 189              		.cfi_def_cfa_offset 12
 190              		.cfi_offset 4, -12
 191              		.cfi_offset 5, -8
 192              		.cfi_offset 6, -4
 193              		.loc 1 366 0
 194 0002 4268     		ldr	r2, [r0, #4]
 195 0004 0668     		ldr	r6, [r0]
 196              		.loc 1 355 0
 197 0006 064D     		ldr	r5, .L10
 198              		.loc 1 366 0
 199 0008 8468     		ldr	r4, [r0, #8]
 200 000a C168     		ldr	r1, [r0, #12]
 201              		.loc 1 358 0
 202 000c 054B     		ldr	r3, .L10+4
 203              		.loc 1 355 0
 204 000e 6868     		ldr	r0, [r5, #4]
 205              	.LVL16:
 206              		.loc 1 366 0
 207 0010 3243     		orrs	r2, r2, r6
 208 0012 2243     		orrs	r2, r2, r4
 209 0014 0A43     		orrs	r2, r2, r1
 210              		.loc 1 358 0
 211 0016 0340     		ands	r3, r3, r0
 212              	.LVL17:
 213              		.loc 1 366 0
 214 0018 1343     		orrs	r3, r3, r2
 215              	.LVL18:
 216              		.loc 1 372 0
 217 001a 6B60     		str	r3, [r5, #4]
 218              		.loc 1 373 0
 219 001c 70BC     		pop	{r4, r5, r6}
 220              		.cfi_restore 6
 221              		.cfi_restore 5
 222              		.cfi_restore 4
 223              		.cfi_def_cfa_offset 0
 224 001e 7047     		bx	lr
 225              	.L11:
 226              		.align	2
 227              	.L10:
 228 0020 00230140 		.word	1073816320
ARM GAS  /var/folders/m4/4md61f0s1_g0rzfghffqnxvr0000gn/T//ccIWSo2P.s 			page 5


 229 0024 E030FCFF 		.word	-249632
 230              		.cfi_endproc
 231              	.LFE126:
 232              		.size	ADC_CommonInit, .-ADC_CommonInit
 233              		.section	.text.ADC_CommonStructInit,"ax",%progbits
 234              		.align	2
 235              		.p2align 4,,15
 236              		.global	ADC_CommonStructInit
 237              		.thumb
 238              		.thumb_func
 239              		.type	ADC_CommonStructInit, %function
 240              	ADC_CommonStructInit:
 241              	.LFB127:
 242              		.loc 1 382 0
 243              		.cfi_startproc
 244              		@ args = 0, pretend = 0, frame = 0
 245              		@ frame_needed = 0, uses_anonymous_args = 0
 246              		@ link register save eliminated.
 247              	.LVL19:
 248              		.loc 1 384 0
 249 0000 0023     		movs	r3, #0
 250 0002 0360     		str	r3, [r0]
 251              		.loc 1 387 0
 252 0004 4360     		str	r3, [r0, #4]
 253              		.loc 1 390 0
 254 0006 8360     		str	r3, [r0, #8]
 255              		.loc 1 393 0
 256 0008 C360     		str	r3, [r0, #12]
 257 000a 7047     		bx	lr
 258              		.cfi_endproc
 259              	.LFE127:
 260              		.size	ADC_CommonStructInit, .-ADC_CommonStructInit
 261              		.section	.text.ADC_Cmd,"ax",%progbits
 262              		.align	2
 263              		.p2align 4,,15
 264              		.global	ADC_Cmd
 265              		.thumb
 266              		.thumb_func
 267              		.type	ADC_Cmd, %function
 268              	ADC_Cmd:
 269              	.LFB128:
 270              		.loc 1 404 0
 271              		.cfi_startproc
 272              		@ args = 0, pretend = 0, frame = 0
 273              		@ frame_needed = 0, uses_anonymous_args = 0
 274              		@ link register save eliminated.
 275              	.LVL20:
 276              		.loc 1 411 0
 277 0000 8368     		ldr	r3, [r0, #8]
 278              		.loc 1 408 0
 279 0002 19B9     		cbnz	r1, .L17
 280              		.loc 1 416 0
 281 0004 23F00103 		bic	r3, r3, #1
 282 0008 8360     		str	r3, [r0, #8]
 283 000a 7047     		bx	lr
 284              	.L17:
 285              		.loc 1 411 0
ARM GAS  /var/folders/m4/4md61f0s1_g0rzfghffqnxvr0000gn/T//ccIWSo2P.s 			page 6


 286 000c 43F00103 		orr	r3, r3, #1
 287 0010 8360     		str	r3, [r0, #8]
 288 0012 7047     		bx	lr
 289              		.cfi_endproc
 290              	.LFE128:
 291              		.size	ADC_Cmd, .-ADC_Cmd
 292              		.section	.text.ADC_AnalogWatchdogCmd,"ax",%progbits
 293              		.align	2
 294              		.p2align 4,,15
 295              		.global	ADC_AnalogWatchdogCmd
 296              		.thumb
 297              		.thumb_func
 298              		.type	ADC_AnalogWatchdogCmd, %function
 299              	ADC_AnalogWatchdogCmd:
 300              	.LFB129:
 301              		.loc 1 460 0
 302              		.cfi_startproc
 303              		@ args = 0, pretend = 0, frame = 0
 304              		@ frame_needed = 0, uses_anonymous_args = 0
 305              		@ link register save eliminated.
 306              	.LVL21:
 307              		.loc 1 467 0
 308 0000 4368     		ldr	r3, [r0, #4]
 309              	.LVL22:
 310              		.loc 1 470 0
 311 0002 23F44003 		bic	r3, r3, #12582912
 312              	.LVL23:
 313 0006 23F40073 		bic	r3, r3, #512
 314              	.LVL24:
 315              		.loc 1 473 0
 316 000a 1943     		orrs	r1, r1, r3
 317              	.LVL25:
 318              		.loc 1 476 0
 319 000c 4160     		str	r1, [r0, #4]
 320 000e 7047     		bx	lr
 321              		.cfi_endproc
 322              	.LFE129:
 323              		.size	ADC_AnalogWatchdogCmd, .-ADC_AnalogWatchdogCmd
 324              		.section	.text.ADC_AnalogWatchdogThresholdsConfig,"ax",%progbits
 325              		.align	2
 326              		.p2align 4,,15
 327              		.global	ADC_AnalogWatchdogThresholdsConfig
 328              		.thumb
 329              		.thumb_func
 330              		.type	ADC_AnalogWatchdogThresholdsConfig, %function
 331              	ADC_AnalogWatchdogThresholdsConfig:
 332              	.LFB130:
 333              		.loc 1 490 0
 334              		.cfi_startproc
 335              		@ args = 0, pretend = 0, frame = 0
 336              		@ frame_needed = 0, uses_anonymous_args = 0
 337              		@ link register save eliminated.
 338              	.LVL26:
 339              		.loc 1 497 0
 340 0000 4162     		str	r1, [r0, #36]
 341              		.loc 1 500 0
 342 0002 8262     		str	r2, [r0, #40]
ARM GAS  /var/folders/m4/4md61f0s1_g0rzfghffqnxvr0000gn/T//ccIWSo2P.s 			page 7


 343 0004 7047     		bx	lr
 344              		.cfi_endproc
 345              	.LFE130:
 346              		.size	ADC_AnalogWatchdogThresholdsConfig, .-ADC_AnalogWatchdogThresholdsConfig
 347 0006 00BF     		.section	.text.ADC_AnalogWatchdogSingleChannelConfig,"ax",%progbits
 348              		.align	2
 349              		.p2align 4,,15
 350              		.global	ADC_AnalogWatchdogSingleChannelConfig
 351              		.thumb
 352              		.thumb_func
 353              		.type	ADC_AnalogWatchdogSingleChannelConfig, %function
 354              	ADC_AnalogWatchdogSingleChannelConfig:
 355              	.LFB131:
 356              		.loc 1 530 0
 357              		.cfi_startproc
 358              		@ args = 0, pretend = 0, frame = 0
 359              		@ frame_needed = 0, uses_anonymous_args = 0
 360              		@ link register save eliminated.
 361              	.LVL27:
 362              		.loc 1 537 0
 363 0000 4368     		ldr	r3, [r0, #4]
 364              	.LVL28:
 365              		.loc 1 540 0
 366 0002 23F01F03 		bic	r3, r3, #31
 367              	.LVL29:
 368              		.loc 1 543 0
 369 0006 1943     		orrs	r1, r1, r3
 370              	.LVL30:
 371              		.loc 1 546 0
 372 0008 4160     		str	r1, [r0, #4]
 373 000a 7047     		bx	lr
 374              		.cfi_endproc
 375              	.LFE131:
 376              		.size	ADC_AnalogWatchdogSingleChannelConfig, .-ADC_AnalogWatchdogSingleChannelConfig
 377              		.section	.text.ADC_TempSensorVrefintCmd,"ax",%progbits
 378              		.align	2
 379              		.p2align 4,,15
 380              		.global	ADC_TempSensorVrefintCmd
 381              		.thumb
 382              		.thumb_func
 383              		.type	ADC_TempSensorVrefintCmd, %function
 384              	ADC_TempSensorVrefintCmd:
 385              	.LFB132:
 386              		.loc 1 594 0
 387              		.cfi_startproc
 388              		@ args = 0, pretend = 0, frame = 0
 389              		@ frame_needed = 0, uses_anonymous_args = 0
 390              		@ link register save eliminated.
 391              	.LVL31:
 392              		.loc 1 600 0
 393 0000 054A     		ldr	r2, .L25
 394 0002 5368     		ldr	r3, [r2, #4]
 395              		.loc 1 597 0
 396 0004 18B9     		cbnz	r0, .L24
 397              		.loc 1 605 0
 398 0006 23F40003 		bic	r3, r3, #8388608
 399 000a 5360     		str	r3, [r2, #4]
ARM GAS  /var/folders/m4/4md61f0s1_g0rzfghffqnxvr0000gn/T//ccIWSo2P.s 			page 8


 400 000c 7047     		bx	lr
 401              	.L24:
 402              		.loc 1 600 0
 403 000e 43F40003 		orr	r3, r3, #8388608
 404 0012 5360     		str	r3, [r2, #4]
 405 0014 7047     		bx	lr
 406              	.L26:
 407 0016 00BF     		.align	2
 408              	.L25:
 409 0018 00230140 		.word	1073816320
 410              		.cfi_endproc
 411              	.LFE132:
 412              		.size	ADC_TempSensorVrefintCmd, .-ADC_TempSensorVrefintCmd
 413              		.section	.text.ADC_VBATCmd,"ax",%progbits
 414              		.align	2
 415              		.p2align 4,,15
 416              		.global	ADC_VBATCmd
 417              		.thumb
 418              		.thumb_func
 419              		.type	ADC_VBATCmd, %function
 420              	ADC_VBATCmd:
 421              	.LFB133:
 422              		.loc 1 620 0
 423              		.cfi_startproc
 424              		@ args = 0, pretend = 0, frame = 0
 425              		@ frame_needed = 0, uses_anonymous_args = 0
 426              		@ link register save eliminated.
 427              	.LVL32:
 428              		.loc 1 626 0
 429 0000 054A     		ldr	r2, .L31
 430 0002 5368     		ldr	r3, [r2, #4]
 431              		.loc 1 623 0
 432 0004 18B9     		cbnz	r0, .L30
 433              		.loc 1 631 0
 434 0006 23F48003 		bic	r3, r3, #4194304
 435 000a 5360     		str	r3, [r2, #4]
 436 000c 7047     		bx	lr
 437              	.L30:
 438              		.loc 1 626 0
 439 000e 43F48003 		orr	r3, r3, #4194304
 440 0012 5360     		str	r3, [r2, #4]
 441 0014 7047     		bx	lr
 442              	.L32:
 443 0016 00BF     		.align	2
 444              	.L31:
 445 0018 00230140 		.word	1073816320
 446              		.cfi_endproc
 447              	.LFE133:
 448              		.size	ADC_VBATCmd, .-ADC_VBATCmd
 449              		.section	.text.ADC_RegularChannelConfig,"ax",%progbits
 450              		.align	2
 451              		.p2align 4,,15
 452              		.global	ADC_RegularChannelConfig
 453              		.thumb
 454              		.thumb_func
 455              		.type	ADC_RegularChannelConfig, %function
 456              	ADC_RegularChannelConfig:
ARM GAS  /var/folders/m4/4md61f0s1_g0rzfghffqnxvr0000gn/T//ccIWSo2P.s 			page 9


 457              	.LFB134:
 458              		.loc 1 720 0
 459              		.cfi_startproc
 460              		@ args = 0, pretend = 0, frame = 0
 461              		@ frame_needed = 0, uses_anonymous_args = 0
 462              		@ link register save eliminated.
 463              	.LVL33:
 464              		.loc 1 729 0
 465 0000 0929     		cmp	r1, #9
 466              		.loc 1 720 0
 467 0002 70B4     		push	{r4, r5, r6}
 468              		.cfi_def_cfa_offset 12
 469              		.cfi_offset 4, -12
 470              		.cfi_offset 5, -8
 471              		.cfi_offset 6, -4
 472              		.loc 1 729 0
 473 0004 1DD9     		bls	.L34
 474              		.loc 1 735 0
 475 0006 A1F10A06 		sub	r6, r1, #10
 476 000a 06EB4606 		add	r6, r6, r6, lsl #1
 477              		.loc 1 732 0
 478 000e C568     		ldr	r5, [r0, #12]
 479              	.LVL34:
 480              		.loc 1 738 0
 481 0010 0724     		movs	r4, #7
 482 0012 B440     		lsls	r4, r4, r6
 483              	.LVL35:
 484              		.loc 1 744 0
 485 0014 B340     		lsls	r3, r3, r6
 486              	.LVL36:
 487              		.loc 1 738 0
 488 0016 25EA0404 		bic	r4, r5, r4
 489              	.LVL37:
 490              		.loc 1 744 0
 491 001a 2343     		orrs	r3, r3, r4
 492              	.LVL38:
 493              		.loc 1 770 0
 494 001c 062A     		cmp	r2, #6
 495              		.loc 1 747 0
 496 001e C360     		str	r3, [r0, #12]
 497              		.loc 1 770 0
 498 0020 1BD9     		bls	.L40
 499              	.L36:
 500              		.loc 1 791 0
 501 0022 0C2A     		cmp	r2, #12
 502 0024 27D9     		bls	.L41
 503              		.loc 1 818 0
 504 0026 0D3A     		subs	r2, r2, #13
 505              	.LVL39:
 506 0028 02EB8202 		add	r2, r2, r2, lsl #2
 507              		.loc 1 815 0
 508 002c C36A     		ldr	r3, [r0, #44]
 509              	.LVL40:
 510              		.loc 1 821 0
 511 002e 1F24     		movs	r4, #31
 512 0030 9440     		lsls	r4, r4, r2
 513              	.LVL41:
ARM GAS  /var/folders/m4/4md61f0s1_g0rzfghffqnxvr0000gn/T//ccIWSo2P.s 			page 10


 514              		.loc 1 827 0
 515 0032 01FA02F2 		lsl	r2, r1, r2
 516              		.loc 1 821 0
 517 0036 23EA0401 		bic	r1, r3, r4
 518              	.LVL42:
 519              		.loc 1 827 0
 520 003a 0A43     		orrs	r2, r2, r1
 521              	.LVL43:
 522              		.loc 1 830 0
 523 003c C262     		str	r2, [r0, #44]
 524              		.loc 1 832 0
 525 003e 70BC     		pop	{r4, r5, r6}
 526              		.cfi_remember_state
 527              		.cfi_restore 6
 528              		.cfi_restore 5
 529              		.cfi_restore 4
 530              		.cfi_def_cfa_offset 0
 531 0040 7047     		bx	lr
 532              	.LVL44:
 533              	.L34:
 534              		.cfi_restore_state
 535              		.loc 1 755 0
 536 0042 01EB4106 		add	r6, r1, r1, lsl #1
 537              		.loc 1 752 0
 538 0046 0569     		ldr	r5, [r0, #16]
 539              	.LVL45:
 540              		.loc 1 758 0
 541 0048 0724     		movs	r4, #7
 542 004a B440     		lsls	r4, r4, r6
 543              	.LVL46:
 544              		.loc 1 764 0
 545 004c B340     		lsls	r3, r3, r6
 546              	.LVL47:
 547              		.loc 1 758 0
 548 004e 25EA0404 		bic	r4, r5, r4
 549              	.LVL48:
 550              		.loc 1 764 0
 551 0052 2343     		orrs	r3, r3, r4
 552              	.LVL49:
 553              		.loc 1 770 0
 554 0054 062A     		cmp	r2, #6
 555              		.loc 1 767 0
 556 0056 0361     		str	r3, [r0, #16]
 557              		.loc 1 770 0
 558 0058 E3D8     		bhi	.L36
 559              	.L40:
 560              		.loc 1 776 0
 561 005a 013A     		subs	r2, r2, #1
 562              	.LVL50:
 563 005c 02EB8202 		add	r2, r2, r2, lsl #2
 564              		.loc 1 773 0
 565 0060 436B     		ldr	r3, [r0, #52]
 566              	.LVL51:
 567              		.loc 1 779 0
 568 0062 1F24     		movs	r4, #31
 569 0064 9440     		lsls	r4, r4, r2
 570              	.LVL52:
ARM GAS  /var/folders/m4/4md61f0s1_g0rzfghffqnxvr0000gn/T//ccIWSo2P.s 			page 11


 571              		.loc 1 785 0
 572 0066 01FA02F2 		lsl	r2, r1, r2
 573              		.loc 1 779 0
 574 006a 23EA0401 		bic	r1, r3, r4
 575              	.LVL53:
 576              		.loc 1 785 0
 577 006e 0A43     		orrs	r2, r2, r1
 578              	.LVL54:
 579              		.loc 1 788 0
 580 0070 4263     		str	r2, [r0, #52]
 581              		.loc 1 832 0
 582 0072 70BC     		pop	{r4, r5, r6}
 583              		.cfi_remember_state
 584              		.cfi_restore 4
 585              		.cfi_restore 5
 586              		.cfi_restore 6
 587              		.cfi_def_cfa_offset 0
 588 0074 7047     		bx	lr
 589              	.LVL55:
 590              	.L41:
 591              		.cfi_restore_state
 592              		.loc 1 797 0
 593 0076 073A     		subs	r2, r2, #7
 594              	.LVL56:
 595 0078 02EB8202 		add	r2, r2, r2, lsl #2
 596              		.loc 1 794 0
 597 007c 036B     		ldr	r3, [r0, #48]
 598              	.LVL57:
 599              		.loc 1 800 0
 600 007e 1F24     		movs	r4, #31
 601 0080 9440     		lsls	r4, r4, r2
 602              	.LVL58:
 603              		.loc 1 806 0
 604 0082 01FA02F2 		lsl	r2, r1, r2
 605              		.loc 1 800 0
 606 0086 23EA0401 		bic	r1, r3, r4
 607              	.LVL59:
 608              		.loc 1 806 0
 609 008a 0A43     		orrs	r2, r2, r1
 610              	.LVL60:
 611              		.loc 1 809 0
 612 008c 0263     		str	r2, [r0, #48]
 613              		.loc 1 832 0
 614 008e 70BC     		pop	{r4, r5, r6}
 615              		.cfi_restore 4
 616              		.cfi_restore 5
 617              		.cfi_restore 6
 618              		.cfi_def_cfa_offset 0
 619 0090 7047     		bx	lr
 620              		.cfi_endproc
 621              	.LFE134:
 622              		.size	ADC_RegularChannelConfig, .-ADC_RegularChannelConfig
 623 0092 00BF     		.section	.text.ADC_SoftwareStartConv,"ax",%progbits
 624              		.align	2
 625              		.p2align 4,,15
 626              		.global	ADC_SoftwareStartConv
 627              		.thumb
ARM GAS  /var/folders/m4/4md61f0s1_g0rzfghffqnxvr0000gn/T//ccIWSo2P.s 			page 12


 628              		.thumb_func
 629              		.type	ADC_SoftwareStartConv, %function
 630              	ADC_SoftwareStartConv:
 631              	.LFB135:
 632              		.loc 1 840 0
 633              		.cfi_startproc
 634              		@ args = 0, pretend = 0, frame = 0
 635              		@ frame_needed = 0, uses_anonymous_args = 0
 636              		@ link register save eliminated.
 637              	.LVL61:
 638              		.loc 1 845 0
 639 0000 8368     		ldr	r3, [r0, #8]
 640 0002 43F08043 		orr	r3, r3, #1073741824
 641 0006 8360     		str	r3, [r0, #8]
 642 0008 7047     		bx	lr
 643              		.cfi_endproc
 644              	.LFE135:
 645              		.size	ADC_SoftwareStartConv, .-ADC_SoftwareStartConv
 646 000a 00BF     		.section	.text.ADC_GetSoftwareStartConvStatus,"ax",%progbits
 647              		.align	2
 648              		.p2align 4,,15
 649              		.global	ADC_GetSoftwareStartConvStatus
 650              		.thumb
 651              		.thumb_func
 652              		.type	ADC_GetSoftwareStartConvStatus, %function
 653              	ADC_GetSoftwareStartConvStatus:
 654              	.LFB136:
 655              		.loc 1 854 0
 656              		.cfi_startproc
 657              		@ args = 0, pretend = 0, frame = 0
 658              		@ frame_needed = 0, uses_anonymous_args = 0
 659              		@ link register save eliminated.
 660              	.LVL62:
 661              		.loc 1 860 0
 662 0000 8068     		ldr	r0, [r0, #8]
 663              	.LVL63:
 664              		.loc 1 873 0
 665 0002 C0F38070 		ubfx	r0, r0, #30, #1
 666              	.LVL64:
 667 0006 7047     		bx	lr
 668              		.cfi_endproc
 669              	.LFE136:
 670              		.size	ADC_GetSoftwareStartConvStatus, .-ADC_GetSoftwareStartConvStatus
 671              		.section	.text.ADC_EOCOnEachRegularChannelCmd,"ax",%progbits
 672              		.align	2
 673              		.p2align 4,,15
 674              		.global	ADC_EOCOnEachRegularChannelCmd
 675              		.thumb
 676              		.thumb_func
 677              		.type	ADC_EOCOnEachRegularChannelCmd, %function
 678              	ADC_EOCOnEachRegularChannelCmd:
 679              	.LFB137:
 680              		.loc 1 884 0
 681              		.cfi_startproc
 682              		@ args = 0, pretend = 0, frame = 0
 683              		@ frame_needed = 0, uses_anonymous_args = 0
 684              		@ link register save eliminated.
ARM GAS  /var/folders/m4/4md61f0s1_g0rzfghffqnxvr0000gn/T//ccIWSo2P.s 			page 13


 685              	.LVL65:
 686              		.loc 1 892 0
 687 0000 8368     		ldr	r3, [r0, #8]
 688              		.loc 1 889 0
 689 0002 19B9     		cbnz	r1, .L47
 690              		.loc 1 897 0
 691 0004 23F48063 		bic	r3, r3, #1024
 692 0008 8360     		str	r3, [r0, #8]
 693 000a 7047     		bx	lr
 694              	.L47:
 695              		.loc 1 892 0
 696 000c 43F48063 		orr	r3, r3, #1024
 697 0010 8360     		str	r3, [r0, #8]
 698 0012 7047     		bx	lr
 699              		.cfi_endproc
 700              	.LFE137:
 701              		.size	ADC_EOCOnEachRegularChannelCmd, .-ADC_EOCOnEachRegularChannelCmd
 702              		.section	.text.ADC_ContinuousModeCmd,"ax",%progbits
 703              		.align	2
 704              		.p2align 4,,15
 705              		.global	ADC_ContinuousModeCmd
 706              		.thumb
 707              		.thumb_func
 708              		.type	ADC_ContinuousModeCmd, %function
 709              	ADC_ContinuousModeCmd:
 710              	.LFB138:
 711              		.loc 1 909 0
 712              		.cfi_startproc
 713              		@ args = 0, pretend = 0, frame = 0
 714              		@ frame_needed = 0, uses_anonymous_args = 0
 715              		@ link register save eliminated.
 716              	.LVL66:
 717              		.loc 1 917 0
 718 0000 8368     		ldr	r3, [r0, #8]
 719              		.loc 1 914 0
 720 0002 19B9     		cbnz	r1, .L51
 721              		.loc 1 922 0
 722 0004 23F00203 		bic	r3, r3, #2
 723 0008 8360     		str	r3, [r0, #8]
 724 000a 7047     		bx	lr
 725              	.L51:
 726              		.loc 1 917 0
 727 000c 43F00203 		orr	r3, r3, #2
 728 0010 8360     		str	r3, [r0, #8]
 729 0012 7047     		bx	lr
 730              		.cfi_endproc
 731              	.LFE138:
 732              		.size	ADC_ContinuousModeCmd, .-ADC_ContinuousModeCmd
 733              		.section	.text.ADC_DiscModeChannelCountConfig,"ax",%progbits
 734              		.align	2
 735              		.p2align 4,,15
 736              		.global	ADC_DiscModeChannelCountConfig
 737              		.thumb
 738              		.thumb_func
 739              		.type	ADC_DiscModeChannelCountConfig, %function
 740              	ADC_DiscModeChannelCountConfig:
 741              	.LFB139:
ARM GAS  /var/folders/m4/4md61f0s1_g0rzfghffqnxvr0000gn/T//ccIWSo2P.s 			page 14


 742              		.loc 1 935 0
 743              		.cfi_startproc
 744              		@ args = 0, pretend = 0, frame = 0
 745              		@ frame_needed = 0, uses_anonymous_args = 0
 746              		@ link register save eliminated.
 747              	.LVL67:
 748              		.loc 1 944 0
 749 0000 4368     		ldr	r3, [r0, #4]
 750              	.LVL68:
 751              		.loc 1 951 0
 752 0002 0139     		subs	r1, r1, #1
 753              	.LVL69:
 754              		.loc 1 947 0
 755 0004 23F46043 		bic	r3, r3, #57344
 756              	.LVL70:
 757              		.loc 1 951 0
 758 0008 43EA4131 		orr	r1, r3, r1, lsl #13
 759              	.LVL71:
 760              		.loc 1 954 0
 761 000c 4160     		str	r1, [r0, #4]
 762 000e 7047     		bx	lr
 763              		.cfi_endproc
 764              	.LFE139:
 765              		.size	ADC_DiscModeChannelCountConfig, .-ADC_DiscModeChannelCountConfig
 766              		.section	.text.ADC_DiscModeCmd,"ax",%progbits
 767              		.align	2
 768              		.p2align 4,,15
 769              		.global	ADC_DiscModeCmd
 770              		.thumb
 771              		.thumb_func
 772              		.type	ADC_DiscModeCmd, %function
 773              	ADC_DiscModeCmd:
 774              	.LFB140:
 775              		.loc 1 967 0
 776              		.cfi_startproc
 777              		@ args = 0, pretend = 0, frame = 0
 778              		@ frame_needed = 0, uses_anonymous_args = 0
 779              		@ link register save eliminated.
 780              	.LVL72:
 781              		.loc 1 975 0
 782 0000 4368     		ldr	r3, [r0, #4]
 783              		.loc 1 972 0
 784 0002 19B9     		cbnz	r1, .L56
 785              		.loc 1 980 0
 786 0004 23F40063 		bic	r3, r3, #2048
 787 0008 4360     		str	r3, [r0, #4]
 788 000a 7047     		bx	lr
 789              	.L56:
 790              		.loc 1 975 0
 791 000c 43F40063 		orr	r3, r3, #2048
 792 0010 4360     		str	r3, [r0, #4]
 793 0012 7047     		bx	lr
 794              		.cfi_endproc
 795              	.LFE140:
 796              		.size	ADC_DiscModeCmd, .-ADC_DiscModeCmd
 797              		.section	.text.ADC_GetConversionValue,"ax",%progbits
 798              		.align	2
ARM GAS  /var/folders/m4/4md61f0s1_g0rzfghffqnxvr0000gn/T//ccIWSo2P.s 			page 15


 799              		.p2align 4,,15
 800              		.global	ADC_GetConversionValue
 801              		.thumb
 802              		.thumb_func
 803              		.type	ADC_GetConversionValue, %function
 804              	ADC_GetConversionValue:
 805              	.LFB141:
 806              		.loc 1 990 0
 807              		.cfi_startproc
 808              		@ args = 0, pretend = 0, frame = 0
 809              		@ frame_needed = 0, uses_anonymous_args = 0
 810              		@ link register save eliminated.
 811              	.LVL73:
 812              		.loc 1 995 0
 813 0000 C06C     		ldr	r0, [r0, #76]
 814              	.LVL74:
 815              		.loc 1 996 0
 816 0002 80B2     		uxth	r0, r0
 817 0004 7047     		bx	lr
 818              		.cfi_endproc
 819              	.LFE141:
 820              		.size	ADC_GetConversionValue, .-ADC_GetConversionValue
 821 0006 00BF     		.section	.text.ADC_GetMultiModeConversionValue,"ax",%progbits
 822              		.align	2
 823              		.p2align 4,,15
 824              		.global	ADC_GetMultiModeConversionValue
 825              		.thumb
 826              		.thumb_func
 827              		.type	ADC_GetMultiModeConversionValue, %function
 828              	ADC_GetMultiModeConversionValue:
 829              	.LFB142:
 830              		.loc 1 1011 0
 831              		.cfi_startproc
 832              		@ args = 0, pretend = 0, frame = 0
 833              		@ frame_needed = 0, uses_anonymous_args = 0
 834              		@ link register save eliminated.
 835              		.loc 1 1013 0
 836 0000 014B     		ldr	r3, .L59
 837 0002 1868     		ldr	r0, [r3]
 838              		.loc 1 1014 0
 839 0004 7047     		bx	lr
 840              	.L60:
 841 0006 00BF     		.align	2
 842              	.L59:
 843 0008 08230140 		.word	1073816328
 844              		.cfi_endproc
 845              	.LFE142:
 846              		.size	ADC_GetMultiModeConversionValue, .-ADC_GetMultiModeConversionValue
 847              		.section	.text.ADC_DMACmd,"ax",%progbits
 848              		.align	2
 849              		.p2align 4,,15
 850              		.global	ADC_DMACmd
 851              		.thumb
 852              		.thumb_func
 853              		.type	ADC_DMACmd, %function
 854              	ADC_DMACmd:
 855              	.LFB143:
ARM GAS  /var/folders/m4/4md61f0s1_g0rzfghffqnxvr0000gn/T//ccIWSo2P.s 			page 16


 856              		.loc 1 1057 0
 857              		.cfi_startproc
 858              		@ args = 0, pretend = 0, frame = 0
 859              		@ frame_needed = 0, uses_anonymous_args = 0
 860              		@ link register save eliminated.
 861              	.LVL75:
 862              		.loc 1 1064 0
 863 0000 8368     		ldr	r3, [r0, #8]
 864              		.loc 1 1061 0
 865 0002 19B9     		cbnz	r1, .L64
 866              		.loc 1 1069 0
 867 0004 23F48073 		bic	r3, r3, #256
 868 0008 8360     		str	r3, [r0, #8]
 869 000a 7047     		bx	lr
 870              	.L64:
 871              		.loc 1 1064 0
 872 000c 43F48073 		orr	r3, r3, #256
 873 0010 8360     		str	r3, [r0, #8]
 874 0012 7047     		bx	lr
 875              		.cfi_endproc
 876              	.LFE143:
 877              		.size	ADC_DMACmd, .-ADC_DMACmd
 878              		.section	.text.ADC_DMARequestAfterLastTransferCmd,"ax",%progbits
 879              		.align	2
 880              		.p2align 4,,15
 881              		.global	ADC_DMARequestAfterLastTransferCmd
 882              		.thumb
 883              		.thumb_func
 884              		.type	ADC_DMARequestAfterLastTransferCmd, %function
 885              	ADC_DMARequestAfterLastTransferCmd:
 886              	.LFB144:
 887              		.loc 1 1081 0
 888              		.cfi_startproc
 889              		@ args = 0, pretend = 0, frame = 0
 890              		@ frame_needed = 0, uses_anonymous_args = 0
 891              		@ link register save eliminated.
 892              	.LVL76:
 893              		.loc 1 1088 0
 894 0000 8368     		ldr	r3, [r0, #8]
 895              		.loc 1 1085 0
 896 0002 19B9     		cbnz	r1, .L68
 897              		.loc 1 1093 0
 898 0004 23F40073 		bic	r3, r3, #512
 899 0008 8360     		str	r3, [r0, #8]
 900 000a 7047     		bx	lr
 901              	.L68:
 902              		.loc 1 1088 0
 903 000c 43F40073 		orr	r3, r3, #512
 904 0010 8360     		str	r3, [r0, #8]
 905 0012 7047     		bx	lr
 906              		.cfi_endproc
 907              	.LFE144:
 908              		.size	ADC_DMARequestAfterLastTransferCmd, .-ADC_DMARequestAfterLastTransferCmd
 909              		.section	.text.ADC_MultiModeDMARequestAfterLastTransferCmd,"ax",%progbits
 910              		.align	2
 911              		.p2align 4,,15
 912              		.global	ADC_MultiModeDMARequestAfterLastTransferCmd
ARM GAS  /var/folders/m4/4md61f0s1_g0rzfghffqnxvr0000gn/T//ccIWSo2P.s 			page 17


 913              		.thumb
 914              		.thumb_func
 915              		.type	ADC_MultiModeDMARequestAfterLastTransferCmd, %function
 916              	ADC_MultiModeDMARequestAfterLastTransferCmd:
 917              	.LFB145:
 918              		.loc 1 1108 0
 919              		.cfi_startproc
 920              		@ args = 0, pretend = 0, frame = 0
 921              		@ frame_needed = 0, uses_anonymous_args = 0
 922              		@ link register save eliminated.
 923              	.LVL77:
 924              		.loc 1 1114 0
 925 0000 054A     		ldr	r2, .L73
 926 0002 5368     		ldr	r3, [r2, #4]
 927              		.loc 1 1111 0
 928 0004 18B9     		cbnz	r0, .L72
 929              		.loc 1 1119 0
 930 0006 23F40053 		bic	r3, r3, #8192
 931 000a 5360     		str	r3, [r2, #4]
 932 000c 7047     		bx	lr
 933              	.L72:
 934              		.loc 1 1114 0
 935 000e 43F40053 		orr	r3, r3, #8192
 936 0012 5360     		str	r3, [r2, #4]
 937 0014 7047     		bx	lr
 938              	.L74:
 939 0016 00BF     		.align	2
 940              	.L73:
 941 0018 00230140 		.word	1073816320
 942              		.cfi_endproc
 943              	.LFE145:
 944              		.size	ADC_MultiModeDMARequestAfterLastTransferCmd, .-ADC_MultiModeDMARequestAfterLastTransferCmd
 945              		.section	.text.ADC_InjectedChannelConfig,"ax",%progbits
 946              		.align	2
 947              		.p2align 4,,15
 948              		.global	ADC_InjectedChannelConfig
 949              		.thumb
 950              		.thumb_func
 951              		.type	ADC_InjectedChannelConfig, %function
 952              	ADC_InjectedChannelConfig:
 953              	.LFB146:
 954              		.loc 1 1195 0
 955              		.cfi_startproc
 956              		@ args = 0, pretend = 0, frame = 0
 957              		@ frame_needed = 0, uses_anonymous_args = 0
 958              		@ link register save eliminated.
 959              	.LVL78:
 960              		.loc 1 1203 0
 961 0000 0929     		cmp	r1, #9
 962              		.loc 1 1195 0
 963 0002 70B4     		push	{r4, r5, r6}
 964              		.cfi_def_cfa_offset 12
 965              		.cfi_offset 4, -12
 966              		.cfi_offset 5, -8
 967              		.cfi_offset 6, -4
 968              		.loc 1 1203 0
 969 0004 1BD8     		bhi	.L79
ARM GAS  /var/folders/m4/4md61f0s1_g0rzfghffqnxvr0000gn/T//ccIWSo2P.s 			page 18


 970              		.loc 1 1223 0
 971 0006 01EB4106 		add	r6, r1, r1, lsl #1
 972              		.loc 1 1221 0
 973 000a 0569     		ldr	r5, [r0, #16]
 974              	.LVL79:
 975              		.loc 1 1225 0
 976 000c 0724     		movs	r4, #7
 977 000e B440     		lsls	r4, r4, r6
 978              	.LVL80:
 979              		.loc 1 1229 0
 980 0010 B340     		lsls	r3, r3, r6
 981              	.LVL81:
 982              		.loc 1 1225 0
 983 0012 25EA0404 		bic	r4, r5, r4
 984              	.LVL82:
 985              		.loc 1 1229 0
 986 0016 2343     		orrs	r3, r3, r4
 987              	.LVL83:
 988              		.loc 1 1231 0
 989 0018 0361     		str	r3, [r0, #16]
 990              	.L77:
 991              		.loc 1 1235 0
 992 001a 836B     		ldr	r3, [r0, #56]
 993              	.LVL84:
 994              		.loc 1 1239 0
 995 001c 0232     		adds	r2, r2, #2
 996              	.LVL85:
 997 001e C3F30154 		ubfx	r4, r3, #20, #2
 998 0022 121B     		subs	r2, r2, r4
 999 0024 D2B2     		uxtb	r2, r2
 1000 0026 02EB8202 		add	r2, r2, r2, lsl #2
 1001              	.LVL86:
 1002              		.loc 1 1241 0
 1003 002a 1F24     		movs	r4, #31
 1004 002c 9440     		lsls	r4, r4, r2
 1005              	.LVL87:
 1006 002e 23EA0403 		bic	r3, r3, r4
 1007              	.LVL88:
 1008              		.loc 1 1245 0
 1009 0032 01FA02F2 		lsl	r2, r1, r2
 1010              	.LVL89:
 1011 0036 1343     		orrs	r3, r3, r2
 1012              	.LVL90:
 1013              		.loc 1 1247 0
 1014 0038 8363     		str	r3, [r0, #56]
 1015              		.loc 1 1248 0
 1016 003a 70BC     		pop	{r4, r5, r6}
 1017              		.cfi_remember_state
 1018              		.cfi_restore 6
 1019              		.cfi_restore 5
 1020              		.cfi_restore 4
 1021              		.cfi_def_cfa_offset 0
 1022 003c 7047     		bx	lr
 1023              	.LVL91:
 1024              	.L79:
 1025              		.cfi_restore_state
 1026              		.loc 1 1208 0
ARM GAS  /var/folders/m4/4md61f0s1_g0rzfghffqnxvr0000gn/T//ccIWSo2P.s 			page 19


 1027 003e A1F10A06 		sub	r6, r1, #10
 1028 0042 06EB4606 		add	r6, r6, r6, lsl #1
 1029              		.loc 1 1206 0
 1030 0046 C568     		ldr	r5, [r0, #12]
 1031              	.LVL92:
 1032              		.loc 1 1210 0
 1033 0048 0724     		movs	r4, #7
 1034 004a B440     		lsls	r4, r4, r6
 1035              	.LVL93:
 1036              		.loc 1 1214 0
 1037 004c B340     		lsls	r3, r3, r6
 1038              	.LVL94:
 1039              		.loc 1 1210 0
 1040 004e 25EA0404 		bic	r4, r5, r4
 1041              	.LVL95:
 1042              		.loc 1 1214 0
 1043 0052 2343     		orrs	r3, r3, r4
 1044              	.LVL96:
 1045              		.loc 1 1216 0
 1046 0054 C360     		str	r3, [r0, #12]
 1047 0056 E0E7     		b	.L77
 1048              		.cfi_endproc
 1049              	.LFE146:
 1050              		.size	ADC_InjectedChannelConfig, .-ADC_InjectedChannelConfig
 1051              		.section	.text.ADC_InjectedSequencerLengthConfig,"ax",%progbits
 1052              		.align	2
 1053              		.p2align 4,,15
 1054              		.global	ADC_InjectedSequencerLengthConfig
 1055              		.thumb
 1056              		.thumb_func
 1057              		.type	ADC_InjectedSequencerLengthConfig, %function
 1058              	ADC_InjectedSequencerLengthConfig:
 1059              	.LFB147:
 1060              		.loc 1 1258 0
 1061              		.cfi_startproc
 1062              		@ args = 0, pretend = 0, frame = 0
 1063              		@ frame_needed = 0, uses_anonymous_args = 0
 1064              		@ link register save eliminated.
 1065              	.LVL97:
 1066              		.loc 1 1266 0
 1067 0000 836B     		ldr	r3, [r0, #56]
 1068              	.LVL98:
 1069              		.loc 1 1273 0
 1070 0002 0139     		subs	r1, r1, #1
 1071              	.LVL99:
 1072              		.loc 1 1269 0
 1073 0004 23F44013 		bic	r3, r3, #3145728
 1074              	.LVL100:
 1075              		.loc 1 1273 0
 1076 0008 43EA0151 		orr	r1, r3, r1, lsl #20
 1077              	.LVL101:
 1078              		.loc 1 1276 0
 1079 000c 8163     		str	r1, [r0, #56]
 1080 000e 7047     		bx	lr
 1081              		.cfi_endproc
 1082              	.LFE147:
 1083              		.size	ADC_InjectedSequencerLengthConfig, .-ADC_InjectedSequencerLengthConfig
ARM GAS  /var/folders/m4/4md61f0s1_g0rzfghffqnxvr0000gn/T//ccIWSo2P.s 			page 20


 1084              		.section	.text.ADC_SetInjectedOffset,"ax",%progbits
 1085              		.align	2
 1086              		.p2align 4,,15
 1087              		.global	ADC_SetInjectedOffset
 1088              		.thumb
 1089              		.thumb_func
 1090              		.type	ADC_SetInjectedOffset, %function
 1091              	ADC_SetInjectedOffset:
 1092              	.LFB148:
 1093              		.loc 1 1293 0
 1094              		.cfi_startproc
 1095              		@ args = 0, pretend = 0, frame = 8
 1096              		@ frame_needed = 0, uses_anonymous_args = 0
 1097              		@ link register save eliminated.
 1098              	.LVL102:
 1099 0000 82B0     		sub	sp, sp, #8
 1100              		.cfi_def_cfa_offset 8
 1101              		.loc 1 1294 0
 1102 0002 0023     		movs	r3, #0
 1103 0004 0193     		str	r3, [sp, #4]
 1104              		.loc 1 1300 0
 1105 0006 0190     		str	r0, [sp, #4]
 1106              		.loc 1 1301 0
 1107 0008 019B     		ldr	r3, [sp, #4]
 1108 000a 1944     		add	r1, r1, r3
 1109              	.LVL103:
 1110 000c 0191     		str	r1, [sp, #4]
 1111              		.loc 1 1304 0
 1112 000e 019B     		ldr	r3, [sp, #4]
 1113 0010 1A60     		str	r2, [r3]
 1114              		.loc 1 1305 0
 1115 0012 02B0     		add	sp, sp, #8
 1116              		.cfi_def_cfa_offset 0
 1117              		@ sp needed
 1118 0014 7047     		bx	lr
 1119              		.cfi_endproc
 1120              	.LFE148:
 1121              		.size	ADC_SetInjectedOffset, .-ADC_SetInjectedOffset
 1122 0016 00BF     		.section	.text.ADC_ExternalTrigInjectedConvConfig,"ax",%progbits
 1123              		.align	2
 1124              		.p2align 4,,15
 1125              		.global	ADC_ExternalTrigInjectedConvConfig
 1126              		.thumb
 1127              		.thumb_func
 1128              		.type	ADC_ExternalTrigInjectedConvConfig, %function
 1129              	ADC_ExternalTrigInjectedConvConfig:
 1130              	.LFB149:
 1131              		.loc 1 1331 0
 1132              		.cfi_startproc
 1133              		@ args = 0, pretend = 0, frame = 0
 1134              		@ frame_needed = 0, uses_anonymous_args = 0
 1135              		@ link register save eliminated.
 1136              	.LVL104:
 1137              		.loc 1 1338 0
 1138 0000 8368     		ldr	r3, [r0, #8]
 1139              	.LVL105:
 1140              		.loc 1 1341 0
ARM GAS  /var/folders/m4/4md61f0s1_g0rzfghffqnxvr0000gn/T//ccIWSo2P.s 			page 21


 1141 0002 23F47023 		bic	r3, r3, #983040
 1142              	.LVL106:
 1143              		.loc 1 1344 0
 1144 0006 1943     		orrs	r1, r1, r3
 1145              	.LVL107:
 1146              		.loc 1 1347 0
 1147 0008 8160     		str	r1, [r0, #8]
 1148 000a 7047     		bx	lr
 1149              		.cfi_endproc
 1150              	.LFE149:
 1151              		.size	ADC_ExternalTrigInjectedConvConfig, .-ADC_ExternalTrigInjectedConvConfig
 1152              		.section	.text.ADC_ExternalTrigInjectedConvEdgeConfig,"ax",%progbits
 1153              		.align	2
 1154              		.p2align 4,,15
 1155              		.global	ADC_ExternalTrigInjectedConvEdgeConfig
 1156              		.thumb
 1157              		.thumb_func
 1158              		.type	ADC_ExternalTrigInjectedConvEdgeConfig, %function
 1159              	ADC_ExternalTrigInjectedConvEdgeConfig:
 1160              	.LFB150:
 1161              		.loc 1 1365 0
 1162              		.cfi_startproc
 1163              		@ args = 0, pretend = 0, frame = 0
 1164              		@ frame_needed = 0, uses_anonymous_args = 0
 1165              		@ link register save eliminated.
 1166              	.LVL108:
 1167              		.loc 1 1371 0
 1168 0000 8368     		ldr	r3, [r0, #8]
 1169              	.LVL109:
 1170              		.loc 1 1373 0
 1171 0002 23F44013 		bic	r3, r3, #3145728
 1172              	.LVL110:
 1173              		.loc 1 1375 0
 1174 0006 1943     		orrs	r1, r1, r3
 1175              	.LVL111:
 1176              		.loc 1 1377 0
 1177 0008 8160     		str	r1, [r0, #8]
 1178 000a 7047     		bx	lr
 1179              		.cfi_endproc
 1180              	.LFE150:
 1181              		.size	ADC_ExternalTrigInjectedConvEdgeConfig, .-ADC_ExternalTrigInjectedConvEdgeConfig
 1182              		.section	.text.ADC_SoftwareStartInjectedConv,"ax",%progbits
 1183              		.align	2
 1184              		.p2align 4,,15
 1185              		.global	ADC_SoftwareStartInjectedConv
 1186              		.thumb
 1187              		.thumb_func
 1188              		.type	ADC_SoftwareStartInjectedConv, %function
 1189              	ADC_SoftwareStartInjectedConv:
 1190              	.LFB151:
 1191              		.loc 1 1386 0
 1192              		.cfi_startproc
 1193              		@ args = 0, pretend = 0, frame = 0
 1194              		@ frame_needed = 0, uses_anonymous_args = 0
 1195              		@ link register save eliminated.
 1196              	.LVL112:
 1197              		.loc 1 1390 0
ARM GAS  /var/folders/m4/4md61f0s1_g0rzfghffqnxvr0000gn/T//ccIWSo2P.s 			page 22


 1198 0000 8368     		ldr	r3, [r0, #8]
 1199 0002 43F48003 		orr	r3, r3, #4194304
 1200 0006 8360     		str	r3, [r0, #8]
 1201 0008 7047     		bx	lr
 1202              		.cfi_endproc
 1203              	.LFE151:
 1204              		.size	ADC_SoftwareStartInjectedConv, .-ADC_SoftwareStartInjectedConv
 1205 000a 00BF     		.section	.text.ADC_GetSoftwareStartInjectedConvCmdStatus,"ax",%progbits
 1206              		.align	2
 1207              		.p2align 4,,15
 1208              		.global	ADC_GetSoftwareStartInjectedConvCmdStatus
 1209              		.thumb
 1210              		.thumb_func
 1211              		.type	ADC_GetSoftwareStartInjectedConvCmdStatus, %function
 1212              	ADC_GetSoftwareStartInjectedConvCmdStatus:
 1213              	.LFB152:
 1214              		.loc 1 1399 0
 1215              		.cfi_startproc
 1216              		@ args = 0, pretend = 0, frame = 0
 1217              		@ frame_needed = 0, uses_anonymous_args = 0
 1218              		@ link register save eliminated.
 1219              	.LVL113:
 1220              		.loc 1 1405 0
 1221 0000 8068     		ldr	r0, [r0, #8]
 1222              	.LVL114:
 1223              		.loc 1 1417 0
 1224 0002 C0F38050 		ubfx	r0, r0, #22, #1
 1225              	.LVL115:
 1226 0006 7047     		bx	lr
 1227              		.cfi_endproc
 1228              	.LFE152:
 1229              		.size	ADC_GetSoftwareStartInjectedConvCmdStatus, .-ADC_GetSoftwareStartInjectedConvCmdStatus
 1230              		.section	.text.ADC_AutoInjectedConvCmd,"ax",%progbits
 1231              		.align	2
 1232              		.p2align 4,,15
 1233              		.global	ADC_AutoInjectedConvCmd
 1234              		.thumb
 1235              		.thumb_func
 1236              		.type	ADC_AutoInjectedConvCmd, %function
 1237              	ADC_AutoInjectedConvCmd:
 1238              	.LFB153:
 1239              		.loc 1 1428 0
 1240              		.cfi_startproc
 1241              		@ args = 0, pretend = 0, frame = 0
 1242              		@ frame_needed = 0, uses_anonymous_args = 0
 1243              		@ link register save eliminated.
 1244              	.LVL116:
 1245              		.loc 1 1435 0
 1246 0000 4368     		ldr	r3, [r0, #4]
 1247              		.loc 1 1432 0
 1248 0002 19B9     		cbnz	r1, .L90
 1249              		.loc 1 1440 0
 1250 0004 23F48063 		bic	r3, r3, #1024
 1251 0008 4360     		str	r3, [r0, #4]
 1252 000a 7047     		bx	lr
 1253              	.L90:
 1254              		.loc 1 1435 0
ARM GAS  /var/folders/m4/4md61f0s1_g0rzfghffqnxvr0000gn/T//ccIWSo2P.s 			page 23


 1255 000c 43F48063 		orr	r3, r3, #1024
 1256 0010 4360     		str	r3, [r0, #4]
 1257 0012 7047     		bx	lr
 1258              		.cfi_endproc
 1259              	.LFE153:
 1260              		.size	ADC_AutoInjectedConvCmd, .-ADC_AutoInjectedConvCmd
 1261              		.section	.text.ADC_InjectedDiscModeCmd,"ax",%progbits
 1262              		.align	2
 1263              		.p2align 4,,15
 1264              		.global	ADC_InjectedDiscModeCmd
 1265              		.thumb
 1266              		.thumb_func
 1267              		.type	ADC_InjectedDiscModeCmd, %function
 1268              	ADC_InjectedDiscModeCmd:
 1269              	.LFB154:
 1270              		.loc 1 1454 0
 1271              		.cfi_startproc
 1272              		@ args = 0, pretend = 0, frame = 0
 1273              		@ frame_needed = 0, uses_anonymous_args = 0
 1274              		@ link register save eliminated.
 1275              	.LVL117:
 1276              		.loc 1 1461 0
 1277 0000 4368     		ldr	r3, [r0, #4]
 1278              		.loc 1 1458 0
 1279 0002 19B9     		cbnz	r1, .L94
 1280              		.loc 1 1466 0
 1281 0004 23F48053 		bic	r3, r3, #4096
 1282 0008 4360     		str	r3, [r0, #4]
 1283 000a 7047     		bx	lr
 1284              	.L94:
 1285              		.loc 1 1461 0
 1286 000c 43F48053 		orr	r3, r3, #4096
 1287 0010 4360     		str	r3, [r0, #4]
 1288 0012 7047     		bx	lr
 1289              		.cfi_endproc
 1290              	.LFE154:
 1291              		.size	ADC_InjectedDiscModeCmd, .-ADC_InjectedDiscModeCmd
 1292              		.section	.text.ADC_GetInjectedConversionValue,"ax",%progbits
 1293              		.align	2
 1294              		.p2align 4,,15
 1295              		.global	ADC_GetInjectedConversionValue
 1296              		.thumb
 1297              		.thumb_func
 1298              		.type	ADC_GetInjectedConversionValue, %function
 1299              	ADC_GetInjectedConversionValue:
 1300              	.LFB155:
 1301              		.loc 1 1482 0
 1302              		.cfi_startproc
 1303              		@ args = 0, pretend = 0, frame = 8
 1304              		@ frame_needed = 0, uses_anonymous_args = 0
 1305              		@ link register save eliminated.
 1306              	.LVL118:
 1307 0000 82B0     		sub	sp, sp, #8
 1308              		.cfi_def_cfa_offset 8
 1309              		.loc 1 1483 0
 1310 0002 0023     		movs	r3, #0
 1311 0004 0193     		str	r3, [sp, #4]
ARM GAS  /var/folders/m4/4md61f0s1_g0rzfghffqnxvr0000gn/T//ccIWSo2P.s 			page 24


 1312              		.loc 1 1489 0
 1313 0006 0190     		str	r0, [sp, #4]
 1314              		.loc 1 1490 0
 1315 0008 019B     		ldr	r3, [sp, #4]
 1316 000a 2833     		adds	r3, r3, #40
 1317 000c 1944     		add	r1, r1, r3
 1318              	.LVL119:
 1319 000e 0191     		str	r1, [sp, #4]
 1320              		.loc 1 1493 0
 1321 0010 019B     		ldr	r3, [sp, #4]
 1322 0012 1868     		ldr	r0, [r3]
 1323              	.LVL120:
 1324              		.loc 1 1494 0
 1325 0014 80B2     		uxth	r0, r0
 1326 0016 02B0     		add	sp, sp, #8
 1327              		.cfi_def_cfa_offset 0
 1328              		@ sp needed
 1329 0018 7047     		bx	lr
 1330              		.cfi_endproc
 1331              	.LFE155:
 1332              		.size	ADC_GetInjectedConversionValue, .-ADC_GetInjectedConversionValue
 1333 001a 00BF     		.section	.text.ADC_ITConfig,"ax",%progbits
 1334              		.align	2
 1335              		.p2align 4,,15
 1336              		.global	ADC_ITConfig
 1337              		.thumb
 1338              		.thumb_func
 1339              		.type	ADC_ITConfig, %function
 1340              	ADC_ITConfig:
 1341              	.LFB156:
 1342              		.loc 1 1589 0
 1343              		.cfi_startproc
 1344              		@ args = 0, pretend = 0, frame = 0
 1345              		@ frame_needed = 0, uses_anonymous_args = 0
 1346              		@ link register save eliminated.
 1347              	.LVL121:
 1348              		.loc 1 1597 0
 1349 0000 C9B2     		uxtb	r1, r1
 1350              	.LVL122:
 1351              		.loc 1 1598 0
 1352 0002 0123     		movs	r3, #1
 1353 0004 8B40     		lsls	r3, r3, r1
 1354              	.LVL123:
 1355              		.loc 1 1603 0
 1356 0006 4168     		ldr	r1, [r0, #4]
 1357              		.loc 1 1600 0
 1358 0008 1AB9     		cbnz	r2, .L100
 1359              		.loc 1 1608 0
 1360 000a 21EA0303 		bic	r3, r1, r3
 1361              	.LVL124:
 1362 000e 4360     		str	r3, [r0, #4]
 1363 0010 7047     		bx	lr
 1364              	.LVL125:
 1365              	.L100:
 1366              		.loc 1 1603 0
 1367 0012 0B43     		orrs	r3, r3, r1
 1368              	.LVL126:
ARM GAS  /var/folders/m4/4md61f0s1_g0rzfghffqnxvr0000gn/T//ccIWSo2P.s 			page 25


 1369 0014 4360     		str	r3, [r0, #4]
 1370 0016 7047     		bx	lr
 1371              		.cfi_endproc
 1372              	.LFE156:
 1373              		.size	ADC_ITConfig, .-ADC_ITConfig
 1374              		.section	.text.ADC_GetFlagStatus,"ax",%progbits
 1375              		.align	2
 1376              		.p2align 4,,15
 1377              		.global	ADC_GetFlagStatus
 1378              		.thumb
 1379              		.thumb_func
 1380              		.type	ADC_GetFlagStatus, %function
 1381              	ADC_GetFlagStatus:
 1382              	.LFB157:
 1383              		.loc 1 1626 0
 1384              		.cfi_startproc
 1385              		@ args = 0, pretend = 0, frame = 0
 1386              		@ frame_needed = 0, uses_anonymous_args = 0
 1387              		@ link register save eliminated.
 1388              	.LVL127:
 1389              		.loc 1 1633 0
 1390 0000 0368     		ldr	r3, [r0]
 1391              	.LVL128:
 1392              		.loc 1 1644 0
 1393 0002 1942     		tst	r1, r3
 1394              		.loc 1 1645 0
 1395 0004 14BF     		ite	ne
 1396 0006 0120     		movne	r0, #1
 1397              	.LVL129:
 1398 0008 0020     		moveq	r0, #0
 1399 000a 7047     		bx	lr
 1400              		.cfi_endproc
 1401              	.LFE157:
 1402              		.size	ADC_GetFlagStatus, .-ADC_GetFlagStatus
 1403              		.section	.text.ADC_ClearFlag,"ax",%progbits
 1404              		.align	2
 1405              		.p2align 4,,15
 1406              		.global	ADC_ClearFlag
 1407              		.thumb
 1408              		.thumb_func
 1409              		.type	ADC_ClearFlag, %function
 1410              	ADC_ClearFlag:
 1411              	.LFB158:
 1412              		.loc 1 1661 0
 1413              		.cfi_startproc
 1414              		@ args = 0, pretend = 0, frame = 0
 1415              		@ frame_needed = 0, uses_anonymous_args = 0
 1416              		@ link register save eliminated.
 1417              	.LVL130:
 1418              		.loc 1 1667 0
 1419 0000 C943     		mvns	r1, r1
 1420              	.LVL131:
 1421 0002 0160     		str	r1, [r0]
 1422 0004 7047     		bx	lr
 1423              		.cfi_endproc
 1424              	.LFE158:
 1425              		.size	ADC_ClearFlag, .-ADC_ClearFlag
ARM GAS  /var/folders/m4/4md61f0s1_g0rzfghffqnxvr0000gn/T//ccIWSo2P.s 			page 26


 1426 0006 00BF     		.section	.text.ADC_GetITStatus,"ax",%progbits
 1427              		.align	2
 1428              		.p2align 4,,15
 1429              		.global	ADC_GetITStatus
 1430              		.thumb
 1431              		.thumb_func
 1432              		.type	ADC_GetITStatus, %function
 1433              	ADC_GetITStatus:
 1434              	.LFB159:
 1435              		.loc 1 1682 0
 1436              		.cfi_startproc
 1437              		@ args = 0, pretend = 0, frame = 0
 1438              		@ frame_needed = 0, uses_anonymous_args = 0
 1439              		@ link register save eliminated.
 1440              	.LVL132:
 1441              		.loc 1 1694 0
 1442 0000 4268     		ldr	r2, [r0, #4]
 1443              	.LVL133:
 1444              		.loc 1 1697 0
 1445 0002 0068     		ldr	r0, [r0]
 1446              	.LVL134:
 1447 0004 10EA1120 		ands	r0, r0, r1, lsr #8
 1448 0008 07D0     		beq	.L104
 1449              		.loc 1 1700 0 discriminator 1
 1450 000a 0123     		movs	r3, #1
 1451 000c C9B2     		uxtb	r1, r1
 1452              	.LVL135:
 1453 000e 03FA01F1 		lsl	r1, r3, r1
 1454              	.LVL136:
 1455 0012 1142     		tst	r1, r2
 1456 0014 14BF     		ite	ne
 1457 0016 1846     		movne	r0, r3
 1458 0018 0020     		moveq	r0, #0
 1459              	.L104:
 1460              	.LVL137:
 1461              		.loc 1 1709 0
 1462 001a 7047     		bx	lr
 1463              		.cfi_endproc
 1464              	.LFE159:
 1465              		.size	ADC_GetITStatus, .-ADC_GetITStatus
 1466              		.section	.text.ADC_ClearITPendingBit,"ax",%progbits
 1467              		.align	2
 1468              		.p2align 4,,15
 1469              		.global	ADC_ClearITPendingBit
 1470              		.thumb
 1471              		.thumb_func
 1472              		.type	ADC_ClearITPendingBit, %function
 1473              	ADC_ClearITPendingBit:
 1474              	.LFB160:
 1475              		.loc 1 1723 0
 1476              		.cfi_startproc
 1477              		@ args = 0, pretend = 0, frame = 0
 1478              		@ frame_needed = 0, uses_anonymous_args = 0
 1479              		@ link register save eliminated.
 1480              	.LVL138:
 1481              		.loc 1 1731 0
 1482 0000 6FEA1121 		mvn	r1, r1, lsr #8
ARM GAS  /var/folders/m4/4md61f0s1_g0rzfghffqnxvr0000gn/T//ccIWSo2P.s 			page 27


 1483              	.LVL139:
 1484 0004 0160     		str	r1, [r0]
 1485 0006 7047     		bx	lr
 1486              		.cfi_endproc
 1487              	.LFE160:
 1488              		.size	ADC_ClearITPendingBit, .-ADC_ClearITPendingBit
 1489              		.text
 1490              	.Letext0:
 1491              		.file 2 "/opt/homebrew-cask/Caskroom/gcc-arm-embedded/5_2-2015q4,20151219/gcc-arm-none-eabi-5_2-20
 1492              		.file 3 "/opt/homebrew-cask/Caskroom/gcc-arm-embedded/5_2-2015q4,20151219/gcc-arm-none-eabi-5_2-20
 1493              		.file 4 "ChibiOS_16.1.4/os/ext/CMSIS/ST/STM32F4xx/stm32f405xx.h"
 1494              		.file 5 "ChibiOS_16.1.4/os/ext/CMSIS/ST/STM32F4xx/stm32f4xx.h"
 1495              		.file 6 "ChibiOS_16.1.4/ext/stdperiph_stm32f4/inc/stm32f4xx_adc.h"
 1496              		.file 7 "ChibiOS_16.1.4/os/ext/CMSIS/include/core_cm4.h"
 1497              		.file 8 "ChibiOS_16.1.4/ext/stdperiph_stm32f4/inc/stm32f4xx_rcc.h"
 1498              		.section	.debug_info,"",%progbits
 1499              	.Ldebug_info0:
 1500 0000 650C0000 		.4byte	0xc65
 1501 0004 0400     		.2byte	0x4
 1502 0006 00000000 		.4byte	.Ldebug_abbrev0
 1503 000a 04       		.byte	0x4
 1504 000b 01       		.uleb128 0x1
 1505 000c EA000000 		.4byte	.LASF115
 1506 0010 0C       		.byte	0xc
 1507 0011 8D070000 		.4byte	.LASF116
 1508 0015 9D000000 		.4byte	.LASF117
 1509 0019 00000000 		.4byte	.Ldebug_ranges0+0
 1510 001d 00000000 		.4byte	0
 1511 0021 00000000 		.4byte	.Ldebug_line0
 1512 0025 02       		.uleb128 0x2
 1513 0026 01       		.byte	0x1
 1514 0027 06       		.byte	0x6
 1515 0028 6E080000 		.4byte	.LASF0
 1516 002c 03       		.uleb128 0x3
 1517 002d BB060000 		.4byte	.LASF3
 1518 0031 02       		.byte	0x2
 1519 0032 1D       		.byte	0x1d
 1520 0033 37000000 		.4byte	0x37
 1521 0037 02       		.uleb128 0x2
 1522 0038 01       		.byte	0x1
 1523 0039 08       		.byte	0x8
 1524 003a 5E070000 		.4byte	.LASF1
 1525 003e 02       		.uleb128 0x2
 1526 003f 02       		.byte	0x2
 1527 0040 05       		.byte	0x5
 1528 0041 05060000 		.4byte	.LASF2
 1529 0045 03       		.uleb128 0x3
 1530 0046 00030000 		.4byte	.LASF4
 1531 004a 02       		.byte	0x2
 1532 004b 2B       		.byte	0x2b
 1533 004c 50000000 		.4byte	0x50
 1534 0050 02       		.uleb128 0x2
 1535 0051 02       		.byte	0x2
 1536 0052 07       		.byte	0x7
 1537 0053 7A080000 		.4byte	.LASF5
 1538 0057 03       		.uleb128 0x3
 1539 0058 93000000 		.4byte	.LASF6
ARM GAS  /var/folders/m4/4md61f0s1_g0rzfghffqnxvr0000gn/T//ccIWSo2P.s 			page 28


 1540 005c 02       		.byte	0x2
 1541 005d 3F       		.byte	0x3f
 1542 005e 62000000 		.4byte	0x62
 1543 0062 02       		.uleb128 0x2
 1544 0063 04       		.byte	0x4
 1545 0064 05       		.byte	0x5
 1546 0065 22060000 		.4byte	.LASF7
 1547 0069 03       		.uleb128 0x3
 1548 006a 82070000 		.4byte	.LASF8
 1549 006e 02       		.byte	0x2
 1550 006f 41       		.byte	0x41
 1551 0070 74000000 		.4byte	0x74
 1552 0074 02       		.uleb128 0x2
 1553 0075 04       		.byte	0x4
 1554 0076 07       		.byte	0x7
 1555 0077 0E070000 		.4byte	.LASF9
 1556 007b 02       		.uleb128 0x2
 1557 007c 08       		.byte	0x8
 1558 007d 05       		.byte	0x5
 1559 007e 65040000 		.4byte	.LASF10
 1560 0082 02       		.uleb128 0x2
 1561 0083 08       		.byte	0x8
 1562 0084 07       		.byte	0x7
 1563 0085 B9020000 		.4byte	.LASF11
 1564 0089 04       		.uleb128 0x4
 1565 008a 04       		.byte	0x4
 1566 008b 05       		.byte	0x5
 1567 008c 696E7400 		.ascii	"int\000"
 1568 0090 02       		.uleb128 0x2
 1569 0091 04       		.byte	0x4
 1570 0092 07       		.byte	0x7
 1571 0093 76000000 		.4byte	.LASF12
 1572 0097 03       		.uleb128 0x3
 1573 0098 2A040000 		.4byte	.LASF13
 1574 009c 03       		.byte	0x3
 1575 009d 14       		.byte	0x14
 1576 009e 2C000000 		.4byte	0x2c
 1577 00a2 03       		.uleb128 0x3
 1578 00a3 A9050000 		.4byte	.LASF14
 1579 00a7 03       		.byte	0x3
 1580 00a8 1A       		.byte	0x1a
 1581 00a9 45000000 		.4byte	0x45
 1582 00ad 03       		.uleb128 0x3
 1583 00ae 38070000 		.4byte	.LASF15
 1584 00b2 03       		.byte	0x3
 1585 00b3 1F       		.byte	0x1f
 1586 00b4 57000000 		.4byte	0x57
 1587 00b8 03       		.uleb128 0x3
 1588 00b9 4D020000 		.4byte	.LASF16
 1589 00bd 03       		.byte	0x3
 1590 00be 20       		.byte	0x20
 1591 00bf 69000000 		.4byte	0x69
 1592 00c3 02       		.uleb128 0x2
 1593 00c4 04       		.byte	0x4
 1594 00c5 07       		.byte	0x7
 1595 00c6 05070000 		.4byte	.LASF17
 1596 00ca 05       		.uleb128 0x5
ARM GAS  /var/folders/m4/4md61f0s1_g0rzfghffqnxvr0000gn/T//ccIWSo2P.s 			page 29


 1597 00cb B8000000 		.4byte	0xb8
 1598 00cf 06       		.uleb128 0x6
 1599 00d0 50       		.byte	0x50
 1600 00d1 04       		.byte	0x4
 1601 00d2 C1       		.byte	0xc1
 1602 00d3 C6010000 		.4byte	0x1c6
 1603 00d7 07       		.uleb128 0x7
 1604 00d8 535200   		.ascii	"SR\000"
 1605 00db 04       		.byte	0x4
 1606 00dc C3       		.byte	0xc3
 1607 00dd CA000000 		.4byte	0xca
 1608 00e1 00       		.byte	0
 1609 00e2 07       		.uleb128 0x7
 1610 00e3 43523100 		.ascii	"CR1\000"
 1611 00e7 04       		.byte	0x4
 1612 00e8 C4       		.byte	0xc4
 1613 00e9 CA000000 		.4byte	0xca
 1614 00ed 04       		.byte	0x4
 1615 00ee 07       		.uleb128 0x7
 1616 00ef 43523200 		.ascii	"CR2\000"
 1617 00f3 04       		.byte	0x4
 1618 00f4 C5       		.byte	0xc5
 1619 00f5 CA000000 		.4byte	0xca
 1620 00f9 08       		.byte	0x8
 1621 00fa 08       		.uleb128 0x8
 1622 00fb 4C050000 		.4byte	.LASF18
 1623 00ff 04       		.byte	0x4
 1624 0100 C6       		.byte	0xc6
 1625 0101 CA000000 		.4byte	0xca
 1626 0105 0C       		.byte	0xc
 1627 0106 08       		.uleb128 0x8
 1628 0107 52050000 		.4byte	.LASF19
 1629 010b 04       		.byte	0x4
 1630 010c C7       		.byte	0xc7
 1631 010d CA000000 		.4byte	0xca
 1632 0111 10       		.byte	0x10
 1633 0112 08       		.uleb128 0x8
 1634 0113 8D080000 		.4byte	.LASF20
 1635 0117 04       		.byte	0x4
 1636 0118 C8       		.byte	0xc8
 1637 0119 CA000000 		.4byte	0xca
 1638 011d 14       		.byte	0x14
 1639 011e 08       		.uleb128 0x8
 1640 011f 93080000 		.4byte	.LASF21
 1641 0123 04       		.byte	0x4
 1642 0124 C9       		.byte	0xc9
 1643 0125 CA000000 		.4byte	0xca
 1644 0129 18       		.byte	0x18
 1645 012a 08       		.uleb128 0x8
 1646 012b 99080000 		.4byte	.LASF22
 1647 012f 04       		.byte	0x4
 1648 0130 CA       		.byte	0xca
 1649 0131 CA000000 		.4byte	0xca
 1650 0135 1C       		.byte	0x1c
 1651 0136 08       		.uleb128 0x8
 1652 0137 9F080000 		.4byte	.LASF23
 1653 013b 04       		.byte	0x4
ARM GAS  /var/folders/m4/4md61f0s1_g0rzfghffqnxvr0000gn/T//ccIWSo2P.s 			page 30


 1654 013c CB       		.byte	0xcb
 1655 013d CA000000 		.4byte	0xca
 1656 0141 20       		.byte	0x20
 1657 0142 07       		.uleb128 0x7
 1658 0143 48545200 		.ascii	"HTR\000"
 1659 0147 04       		.byte	0x4
 1660 0148 CC       		.byte	0xcc
 1661 0149 CA000000 		.4byte	0xca
 1662 014d 24       		.byte	0x24
 1663 014e 07       		.uleb128 0x7
 1664 014f 4C545200 		.ascii	"LTR\000"
 1665 0153 04       		.byte	0x4
 1666 0154 CD       		.byte	0xcd
 1667 0155 CA000000 		.4byte	0xca
 1668 0159 28       		.byte	0x28
 1669 015a 08       		.uleb128 0x8
 1670 015b 2B000000 		.4byte	.LASF24
 1671 015f 04       		.byte	0x4
 1672 0160 CE       		.byte	0xce
 1673 0161 CA000000 		.4byte	0xca
 1674 0165 2C       		.byte	0x2c
 1675 0166 08       		.uleb128 0x8
 1676 0167 30000000 		.4byte	.LASF25
 1677 016b 04       		.byte	0x4
 1678 016c CF       		.byte	0xcf
 1679 016d CA000000 		.4byte	0xca
 1680 0171 30       		.byte	0x30
 1681 0172 08       		.uleb128 0x8
 1682 0173 35000000 		.4byte	.LASF26
 1683 0177 04       		.byte	0x4
 1684 0178 D0       		.byte	0xd0
 1685 0179 CA000000 		.4byte	0xca
 1686 017d 34       		.byte	0x34
 1687 017e 08       		.uleb128 0x8
 1688 017f 24050000 		.4byte	.LASF27
 1689 0183 04       		.byte	0x4
 1690 0184 D1       		.byte	0xd1
 1691 0185 CA000000 		.4byte	0xca
 1692 0189 38       		.byte	0x38
 1693 018a 08       		.uleb128 0x8
 1694 018b D4050000 		.4byte	.LASF28
 1695 018f 04       		.byte	0x4
 1696 0190 D2       		.byte	0xd2
 1697 0191 CA000000 		.4byte	0xca
 1698 0195 3C       		.byte	0x3c
 1699 0196 08       		.uleb128 0x8
 1700 0197 D9050000 		.4byte	.LASF29
 1701 019b 04       		.byte	0x4
 1702 019c D3       		.byte	0xd3
 1703 019d CA000000 		.4byte	0xca
 1704 01a1 40       		.byte	0x40
 1705 01a2 08       		.uleb128 0x8
 1706 01a3 DE050000 		.4byte	.LASF30
 1707 01a7 04       		.byte	0x4
 1708 01a8 D4       		.byte	0xd4
 1709 01a9 CA000000 		.4byte	0xca
 1710 01ad 44       		.byte	0x44
ARM GAS  /var/folders/m4/4md61f0s1_g0rzfghffqnxvr0000gn/T//ccIWSo2P.s 			page 31


 1711 01ae 08       		.uleb128 0x8
 1712 01af E3050000 		.4byte	.LASF31
 1713 01b3 04       		.byte	0x4
 1714 01b4 D5       		.byte	0xd5
 1715 01b5 CA000000 		.4byte	0xca
 1716 01b9 48       		.byte	0x48
 1717 01ba 07       		.uleb128 0x7
 1718 01bb 445200   		.ascii	"DR\000"
 1719 01be 04       		.byte	0x4
 1720 01bf D6       		.byte	0xd6
 1721 01c0 CA000000 		.4byte	0xca
 1722 01c4 4C       		.byte	0x4c
 1723 01c5 00       		.byte	0
 1724 01c6 03       		.uleb128 0x3
 1725 01c7 59040000 		.4byte	.LASF32
 1726 01cb 04       		.byte	0x4
 1727 01cc D7       		.byte	0xd7
 1728 01cd CF000000 		.4byte	0xcf
 1729 01d1 06       		.uleb128 0x6
 1730 01d2 0C       		.byte	0xc
 1731 01d3 04       		.byte	0x4
 1732 01d4 D9       		.byte	0xd9
 1733 01d5 FE010000 		.4byte	0x1fe
 1734 01d9 07       		.uleb128 0x7
 1735 01da 43535200 		.ascii	"CSR\000"
 1736 01de 04       		.byte	0x4
 1737 01df DB       		.byte	0xdb
 1738 01e0 CA000000 		.4byte	0xca
 1739 01e4 00       		.byte	0
 1740 01e5 07       		.uleb128 0x7
 1741 01e6 43435200 		.ascii	"CCR\000"
 1742 01ea 04       		.byte	0x4
 1743 01eb DC       		.byte	0xdc
 1744 01ec CA000000 		.4byte	0xca
 1745 01f0 04       		.byte	0x4
 1746 01f1 07       		.uleb128 0x7
 1747 01f2 43445200 		.ascii	"CDR\000"
 1748 01f6 04       		.byte	0x4
 1749 01f7 DD       		.byte	0xdd
 1750 01f8 CA000000 		.4byte	0xca
 1751 01fc 08       		.byte	0x8
 1752 01fd 00       		.byte	0
 1753 01fe 03       		.uleb128 0x3
 1754 01ff 0F060000 		.4byte	.LASF33
 1755 0203 04       		.byte	0x4
 1756 0204 DF       		.byte	0xdf
 1757 0205 D1010000 		.4byte	0x1d1
 1758 0209 09       		.uleb128 0x9
 1759 020a 01       		.byte	0x1
 1760 020b 37000000 		.4byte	0x37
 1761 020f 05       		.byte	0x5
 1762 0210 B8       		.byte	0xb8
 1763 0211 22020000 		.4byte	0x222
 1764 0215 0A       		.uleb128 0xa
 1765 0216 46060000 		.4byte	.LASF34
 1766 021a 00       		.byte	0
 1767 021b 0B       		.uleb128 0xb
ARM GAS  /var/folders/m4/4md61f0s1_g0rzfghffqnxvr0000gn/T//ccIWSo2P.s 			page 32


 1768 021c 53455400 		.ascii	"SET\000"
 1769 0220 01       		.byte	0x1
 1770 0221 00       		.byte	0
 1771 0222 03       		.uleb128 0x3
 1772 0223 D2000000 		.4byte	.LASF35
 1773 0227 05       		.byte	0x5
 1774 0228 BB       		.byte	0xbb
 1775 0229 09020000 		.4byte	0x209
 1776 022d 03       		.uleb128 0x3
 1777 022e 68030000 		.4byte	.LASF36
 1778 0232 05       		.byte	0x5
 1779 0233 BB       		.byte	0xbb
 1780 0234 09020000 		.4byte	0x209
 1781 0238 09       		.uleb128 0x9
 1782 0239 01       		.byte	0x1
 1783 023a 37000000 		.4byte	0x37
 1784 023e 05       		.byte	0x5
 1785 023f BE       		.byte	0xbe
 1786 0240 51020000 		.4byte	0x251
 1787 0244 0A       		.uleb128 0xa
 1788 0245 FC030000 		.4byte	.LASF37
 1789 0249 00       		.byte	0
 1790 024a 0A       		.uleb128 0xa
 1791 024b FE060000 		.4byte	.LASF38
 1792 024f 01       		.byte	0x1
 1793 0250 00       		.byte	0
 1794 0251 03       		.uleb128 0x3
 1795 0252 83000000 		.4byte	.LASF39
 1796 0256 05       		.byte	0x5
 1797 0257 C1       		.byte	0xc1
 1798 0258 38020000 		.4byte	0x238
 1799 025c 06       		.uleb128 0x6
 1800 025d 18       		.byte	0x18
 1801 025e 06       		.byte	0x6
 1802 025f 35       		.byte	0x35
 1803 0260 B9020000 		.4byte	0x2b9
 1804 0264 08       		.uleb128 0x8
 1805 0265 8C040000 		.4byte	.LASF40
 1806 0269 06       		.byte	0x6
 1807 026a 37       		.byte	0x37
 1808 026b B8000000 		.4byte	0xb8
 1809 026f 00       		.byte	0
 1810 0270 08       		.uleb128 0x8
 1811 0271 E6020000 		.4byte	.LASF41
 1812 0275 06       		.byte	0x6
 1813 0276 39       		.byte	0x39
 1814 0277 51020000 		.4byte	0x251
 1815 027b 04       		.byte	0x4
 1816 027c 08       		.uleb128 0x8
 1817 027d E5030000 		.4byte	.LASF42
 1818 0281 06       		.byte	0x6
 1819 0282 3D       		.byte	0x3d
 1820 0283 51020000 		.4byte	0x251
 1821 0287 05       		.byte	0x5
 1822 0288 08       		.uleb128 0x8
 1823 0289 73040000 		.4byte	.LASF43
 1824 028d 06       		.byte	0x6
ARM GAS  /var/folders/m4/4md61f0s1_g0rzfghffqnxvr0000gn/T//ccIWSo2P.s 			page 33


 1825 028e 40       		.byte	0x40
 1826 028f B8000000 		.4byte	0xb8
 1827 0293 08       		.byte	0x8
 1828 0294 08       		.uleb128 0x8
 1829 0295 59080000 		.4byte	.LASF44
 1830 0299 06       		.byte	0x6
 1831 029a 44       		.byte	0x44
 1832 029b B8000000 		.4byte	0xb8
 1833 029f 0C       		.byte	0xc
 1834 02a0 08       		.uleb128 0x8
 1835 02a1 38060000 		.4byte	.LASF45
 1836 02a5 06       		.byte	0x6
 1837 02a6 48       		.byte	0x48
 1838 02a7 B8000000 		.4byte	0xb8
 1839 02ab 10       		.byte	0x10
 1840 02ac 08       		.uleb128 0x8
 1841 02ad 3A000000 		.4byte	.LASF46
 1842 02b1 06       		.byte	0x6
 1843 02b2 4B       		.byte	0x4b
 1844 02b3 97000000 		.4byte	0x97
 1845 02b7 14       		.byte	0x14
 1846 02b8 00       		.byte	0
 1847 02b9 03       		.uleb128 0x3
 1848 02ba 1B000000 		.4byte	.LASF47
 1849 02be 06       		.byte	0x6
 1850 02bf 4F       		.byte	0x4f
 1851 02c0 5C020000 		.4byte	0x25c
 1852 02c4 06       		.uleb128 0x6
 1853 02c5 10       		.byte	0x10
 1854 02c6 06       		.byte	0x6
 1855 02c7 54       		.byte	0x54
 1856 02c8 FD020000 		.4byte	0x2fd
 1857 02cc 08       		.uleb128 0x8
 1858 02cd 6F050000 		.4byte	.LASF48
 1859 02d1 06       		.byte	0x6
 1860 02d2 56       		.byte	0x56
 1861 02d3 B8000000 		.4byte	0xb8
 1862 02d7 00       		.byte	0
 1863 02d8 08       		.uleb128 0x8
 1864 02d9 F7050000 		.4byte	.LASF49
 1865 02dd 06       		.byte	0x6
 1866 02de 59       		.byte	0x59
 1867 02df B8000000 		.4byte	0xb8
 1868 02e3 04       		.byte	0x4
 1869 02e4 08       		.uleb128 0x8
 1870 02e5 47040000 		.4byte	.LASF50
 1871 02e9 06       		.byte	0x6
 1872 02ea 5C       		.byte	0x5c
 1873 02eb B8000000 		.4byte	0xb8
 1874 02ef 08       		.byte	0x8
 1875 02f0 08       		.uleb128 0x8
 1876 02f1 0F050000 		.4byte	.LASF51
 1877 02f5 06       		.byte	0x6
 1878 02f6 60       		.byte	0x60
 1879 02f7 B8000000 		.4byte	0xb8
 1880 02fb 0C       		.byte	0xc
 1881 02fc 00       		.byte	0
ARM GAS  /var/folders/m4/4md61f0s1_g0rzfghffqnxvr0000gn/T//ccIWSo2P.s 			page 34


 1882 02fd 03       		.uleb128 0x3
 1883 02fe E5070000 		.4byte	.LASF52
 1884 0302 06       		.byte	0x6
 1885 0303 64       		.byte	0x64
 1886 0304 C4020000 		.4byte	0x2c4
 1887 0308 0C       		.uleb128 0xc
 1888 0309 84020000 		.4byte	.LASF53
 1889 030d 01       		.byte	0x1
 1890 030e D9       		.byte	0xd9
 1891 030f 00000000 		.4byte	.LFB123
 1892 0313 1A000000 		.4byte	.LFE123-.LFB123
 1893 0317 01       		.uleb128 0x1
 1894 0318 9C       		.byte	0x9c
 1895 0319 4E030000 		.4byte	0x34e
 1896 031d 0D       		.uleb128 0xd
 1897 031e 0C000000 		.4byte	.LVL0
 1898 0322 5C0C0000 		.4byte	0xc5c
 1899 0326 37030000 		.4byte	0x337
 1900 032a 0E       		.uleb128 0xe
 1901 032b 01       		.uleb128 0x1
 1902 032c 50       		.byte	0x50
 1903 032d 03       		.uleb128 0x3
 1904 032e 0A       		.byte	0xa
 1905 032f 0001     		.2byte	0x100
 1906 0331 0E       		.uleb128 0xe
 1907 0332 01       		.uleb128 0x1
 1908 0333 51       		.byte	0x51
 1909 0334 01       		.uleb128 0x1
 1910 0335 31       		.byte	0x31
 1911 0336 00       		.byte	0
 1912 0337 0F       		.uleb128 0xf
 1913 0338 1A000000 		.4byte	.LVL1
 1914 033c 5C0C0000 		.4byte	0xc5c
 1915 0340 0E       		.uleb128 0xe
 1916 0341 01       		.uleb128 0x1
 1917 0342 50       		.byte	0x50
 1918 0343 03       		.uleb128 0x3
 1919 0344 0A       		.byte	0xa
 1920 0345 0001     		.2byte	0x100
 1921 0347 0E       		.uleb128 0xe
 1922 0348 01       		.uleb128 0x1
 1923 0349 51       		.byte	0x51
 1924 034a 01       		.uleb128 0x1
 1925 034b 30       		.byte	0x30
 1926 034c 00       		.byte	0
 1927 034d 00       		.byte	0
 1928 034e 0C       		.uleb128 0xc
 1929 034f F7020000 		.4byte	.LASF54
 1930 0353 01       		.byte	0x1
 1931 0354 EF       		.byte	0xef
 1932 0355 00000000 		.4byte	.LFB124
 1933 0359 50000000 		.4byte	.LFE124-.LFB124
 1934 035d 01       		.uleb128 0x1
 1935 035e 9C       		.byte	0x9c
 1936 035f 9C030000 		.4byte	0x39c
 1937 0363 10       		.uleb128 0x10
 1938 0364 B7040000 		.4byte	.LASF55
ARM GAS  /var/folders/m4/4md61f0s1_g0rzfghffqnxvr0000gn/T//ccIWSo2P.s 			page 35


 1939 0368 01       		.byte	0x1
 1940 0369 EF       		.byte	0xef
 1941 036a 9C030000 		.4byte	0x39c
 1942 036e 01       		.uleb128 0x1
 1943 036f 50       		.byte	0x50
 1944 0370 10       		.uleb128 0x10
 1945 0371 17020000 		.4byte	.LASF56
 1946 0375 01       		.byte	0x1
 1947 0376 EF       		.byte	0xef
 1948 0377 A2030000 		.4byte	0x3a2
 1949 037b 01       		.uleb128 0x1
 1950 037c 51       		.byte	0x51
 1951 037d 11       		.uleb128 0x11
 1952 037e 20070000 		.4byte	.LASF57
 1953 0382 01       		.byte	0x1
 1954 0383 F1       		.byte	0xf1
 1955 0384 B8000000 		.4byte	0xb8
 1956 0388 00000000 		.4byte	.LLST0
 1957 038c 11       		.uleb128 0x11
 1958 038d 28070000 		.4byte	.LASF58
 1959 0391 01       		.byte	0x1
 1960 0392 F2       		.byte	0xf2
 1961 0393 97000000 		.4byte	0x97
 1962 0397 70000000 		.4byte	.LLST1
 1963 039b 00       		.byte	0
 1964 039c 12       		.uleb128 0x12
 1965 039d 04       		.byte	0x4
 1966 039e C6010000 		.4byte	0x1c6
 1967 03a2 12       		.uleb128 0x12
 1968 03a3 04       		.byte	0x4
 1969 03a4 B9020000 		.4byte	0x2b9
 1970 03a8 13       		.uleb128 0x13
 1971 03a9 E8050000 		.4byte	.LASF59
 1972 03ad 01       		.byte	0x1
 1973 03ae 3A01     		.2byte	0x13a
 1974 03b0 00000000 		.4byte	.LFB125
 1975 03b4 14000000 		.4byte	.LFE125-.LFB125
 1976 03b8 01       		.uleb128 0x1
 1977 03b9 9C       		.byte	0x9c
 1978 03ba CD030000 		.4byte	0x3cd
 1979 03be 14       		.uleb128 0x14
 1980 03bf 17020000 		.4byte	.LASF56
 1981 03c3 01       		.byte	0x1
 1982 03c4 3A01     		.2byte	0x13a
 1983 03c6 A2030000 		.4byte	0x3a2
 1984 03ca 01       		.uleb128 0x1
 1985 03cb 50       		.byte	0x50
 1986 03cc 00       		.byte	0
 1987 03cd 13       		.uleb128 0x13
 1988 03ce 9B040000 		.4byte	.LASF60
 1989 03d2 01       		.byte	0x1
 1990 03d3 5901     		.2byte	0x159
 1991 03d5 00000000 		.4byte	.LFB126
 1992 03d9 28000000 		.4byte	.LFE126-.LFB126
 1993 03dd 01       		.uleb128 0x1
 1994 03de 9C       		.byte	0x9c
 1995 03df 04040000 		.4byte	0x404
ARM GAS  /var/folders/m4/4md61f0s1_g0rzfghffqnxvr0000gn/T//ccIWSo2P.s 			page 36


 1996 03e3 15       		.uleb128 0x15
 1997 03e4 32040000 		.4byte	.LASF61
 1998 03e8 01       		.byte	0x1
 1999 03e9 5901     		.2byte	0x159
 2000 03eb 04040000 		.4byte	0x404
 2001 03ef 95000000 		.4byte	.LLST2
 2002 03f3 16       		.uleb128 0x16
 2003 03f4 20070000 		.4byte	.LASF57
 2004 03f8 01       		.byte	0x1
 2005 03f9 5B01     		.2byte	0x15b
 2006 03fb B8000000 		.4byte	0xb8
 2007 03ff B6000000 		.4byte	.LLST3
 2008 0403 00       		.byte	0
 2009 0404 12       		.uleb128 0x12
 2010 0405 04       		.byte	0x4
 2011 0406 FD020000 		.4byte	0x2fd
 2012 040a 13       		.uleb128 0x13
 2013 040b 4E000000 		.4byte	.LASF62
 2014 040f 01       		.byte	0x1
 2015 0410 7D01     		.2byte	0x17d
 2016 0412 00000000 		.4byte	.LFB127
 2017 0416 0C000000 		.4byte	.LFE127-.LFB127
 2018 041a 01       		.uleb128 0x1
 2019 041b 9C       		.byte	0x9c
 2020 041c 2F040000 		.4byte	0x42f
 2021 0420 14       		.uleb128 0x14
 2022 0421 32040000 		.4byte	.LASF61
 2023 0425 01       		.byte	0x1
 2024 0426 7D01     		.2byte	0x17d
 2025 0428 04040000 		.4byte	0x404
 2026 042c 01       		.uleb128 0x1
 2027 042d 50       		.byte	0x50
 2028 042e 00       		.byte	0
 2029 042f 13       		.uleb128 0x13
 2030 0430 66020000 		.4byte	.LASF63
 2031 0434 01       		.byte	0x1
 2032 0435 9301     		.2byte	0x193
 2033 0437 00000000 		.4byte	.LFB128
 2034 043b 14000000 		.4byte	.LFE128-.LFB128
 2035 043f 01       		.uleb128 0x1
 2036 0440 9C       		.byte	0x9c
 2037 0441 62040000 		.4byte	0x462
 2038 0445 14       		.uleb128 0x14
 2039 0446 B7040000 		.4byte	.LASF55
 2040 044a 01       		.byte	0x1
 2041 044b 9301     		.2byte	0x193
 2042 044d 9C030000 		.4byte	0x39c
 2043 0451 01       		.uleb128 0x1
 2044 0452 50       		.byte	0x50
 2045 0453 14       		.uleb128 0x14
 2046 0454 81030000 		.4byte	.LASF64
 2047 0458 01       		.byte	0x1
 2048 0459 9301     		.2byte	0x193
 2049 045b 51020000 		.4byte	0x251
 2050 045f 01       		.uleb128 0x1
 2051 0460 51       		.byte	0x51
 2052 0461 00       		.byte	0
ARM GAS  /var/folders/m4/4md61f0s1_g0rzfghffqnxvr0000gn/T//ccIWSo2P.s 			page 37


 2053 0462 13       		.uleb128 0x13
 2054 0463 6E020000 		.4byte	.LASF65
 2055 0467 01       		.byte	0x1
 2056 0468 CB01     		.2byte	0x1cb
 2057 046a 00000000 		.4byte	.LFB129
 2058 046e 10000000 		.4byte	.LFE129-.LFB129
 2059 0472 01       		.uleb128 0x1
 2060 0473 9C       		.byte	0x9c
 2061 0474 A7040000 		.4byte	0x4a7
 2062 0478 14       		.uleb128 0x14
 2063 0479 B7040000 		.4byte	.LASF55
 2064 047d 01       		.byte	0x1
 2065 047e CB01     		.2byte	0x1cb
 2066 0480 9C030000 		.4byte	0x39c
 2067 0484 01       		.uleb128 0x1
 2068 0485 50       		.byte	0x50
 2069 0486 15       		.uleb128 0x15
 2070 0487 63000000 		.4byte	.LASF66
 2071 048b 01       		.byte	0x1
 2072 048c CB01     		.2byte	0x1cb
 2073 048e B8000000 		.4byte	0xb8
 2074 0492 E0000000 		.4byte	.LLST4
 2075 0496 16       		.uleb128 0x16
 2076 0497 49030000 		.4byte	.LASF67
 2077 049b 01       		.byte	0x1
 2078 049c CD01     		.2byte	0x1cd
 2079 049e B8000000 		.4byte	0xb8
 2080 04a2 01010000 		.4byte	.LLST5
 2081 04a6 00       		.byte	0
 2082 04a7 13       		.uleb128 0x13
 2083 04a8 AD030000 		.4byte	.LASF68
 2084 04ac 01       		.byte	0x1
 2085 04ad E801     		.2byte	0x1e8
 2086 04af 00000000 		.4byte	.LFB130
 2087 04b3 06000000 		.4byte	.LFE130-.LFB130
 2088 04b7 01       		.uleb128 0x1
 2089 04b8 9C       		.byte	0x9c
 2090 04b9 E8040000 		.4byte	0x4e8
 2091 04bd 14       		.uleb128 0x14
 2092 04be B7040000 		.4byte	.LASF55
 2093 04c2 01       		.byte	0x1
 2094 04c3 E801     		.2byte	0x1e8
 2095 04c5 9C030000 		.4byte	0x39c
 2096 04c9 01       		.uleb128 0x1
 2097 04ca 50       		.byte	0x50
 2098 04cb 14       		.uleb128 0x14
 2099 04cc D7030000 		.4byte	.LASF69
 2100 04d0 01       		.byte	0x1
 2101 04d1 E801     		.2byte	0x1e8
 2102 04d3 A2000000 		.4byte	0xa2
 2103 04d7 01       		.uleb128 0x1
 2104 04d8 51       		.byte	0x51
 2105 04d9 14       		.uleb128 0x14
 2106 04da AA040000 		.4byte	.LASF70
 2107 04de 01       		.byte	0x1
 2108 04df E901     		.2byte	0x1e9
 2109 04e1 A2000000 		.4byte	0xa2
ARM GAS  /var/folders/m4/4md61f0s1_g0rzfghffqnxvr0000gn/T//ccIWSo2P.s 			page 38


 2110 04e5 01       		.uleb128 0x1
 2111 04e6 52       		.byte	0x52
 2112 04e7 00       		.byte	0
 2113 04e8 13       		.uleb128 0x13
 2114 04e9 04040000 		.4byte	.LASF71
 2115 04ed 01       		.byte	0x1
 2116 04ee 1102     		.2byte	0x211
 2117 04f0 00000000 		.4byte	.LFB131
 2118 04f4 0C000000 		.4byte	.LFE131-.LFB131
 2119 04f8 01       		.uleb128 0x1
 2120 04f9 9C       		.byte	0x9c
 2121 04fa 2D050000 		.4byte	0x52d
 2122 04fe 14       		.uleb128 0x14
 2123 04ff B7040000 		.4byte	.LASF55
 2124 0503 01       		.byte	0x1
 2125 0504 1102     		.2byte	0x211
 2126 0506 9C030000 		.4byte	0x39c
 2127 050a 01       		.uleb128 0x1
 2128 050b 50       		.byte	0x50
 2129 050c 15       		.uleb128 0x15
 2130 050d F2060000 		.4byte	.LASF72
 2131 0511 01       		.byte	0x1
 2132 0512 1102     		.2byte	0x211
 2133 0514 97000000 		.4byte	0x97
 2134 0518 36010000 		.4byte	.LLST6
 2135 051c 16       		.uleb128 0x16
 2136 051d 49030000 		.4byte	.LASF67
 2137 0521 01       		.byte	0x1
 2138 0522 1302     		.2byte	0x213
 2139 0524 B8000000 		.4byte	0xb8
 2140 0528 57010000 		.4byte	.LLST7
 2141 052c 00       		.byte	0
 2142 052d 13       		.uleb128 0x13
 2143 052e BC040000 		.4byte	.LASF73
 2144 0532 01       		.byte	0x1
 2145 0533 5102     		.2byte	0x251
 2146 0535 00000000 		.4byte	.LFB132
 2147 0539 1C000000 		.4byte	.LFE132-.LFB132
 2148 053d 01       		.uleb128 0x1
 2149 053e 9C       		.byte	0x9c
 2150 053f 52050000 		.4byte	0x552
 2151 0543 14       		.uleb128 0x14
 2152 0544 81030000 		.4byte	.LASF64
 2153 0548 01       		.byte	0x1
 2154 0549 5102     		.2byte	0x251
 2155 054b 51020000 		.4byte	0x251
 2156 054f 01       		.uleb128 0x1
 2157 0550 50       		.byte	0x50
 2158 0551 00       		.byte	0
 2159 0552 13       		.uleb128 0x13
 2160 0553 0F000000 		.4byte	.LASF74
 2161 0557 01       		.byte	0x1
 2162 0558 6B02     		.2byte	0x26b
 2163 055a 00000000 		.4byte	.LFB133
 2164 055e 1C000000 		.4byte	.LFE133-.LFB133
 2165 0562 01       		.uleb128 0x1
 2166 0563 9C       		.byte	0x9c
ARM GAS  /var/folders/m4/4md61f0s1_g0rzfghffqnxvr0000gn/T//ccIWSo2P.s 			page 39


 2167 0564 77050000 		.4byte	0x577
 2168 0568 14       		.uleb128 0x14
 2169 0569 81030000 		.4byte	.LASF64
 2170 056d 01       		.byte	0x1
 2171 056e 6B02     		.2byte	0x26b
 2172 0570 51020000 		.4byte	0x251
 2173 0574 01       		.uleb128 0x1
 2174 0575 50       		.byte	0x50
 2175 0576 00       		.byte	0
 2176 0577 13       		.uleb128 0x13
 2177 0578 B6080000 		.4byte	.LASF75
 2178 057c 01       		.byte	0x1
 2179 057d CF02     		.2byte	0x2cf
 2180 057f 00000000 		.4byte	.LFB134
 2181 0583 92000000 		.4byte	.LFE134-.LFB134
 2182 0587 01       		.uleb128 0x1
 2183 0588 9C       		.byte	0x9c
 2184 0589 EC050000 		.4byte	0x5ec
 2185 058d 14       		.uleb128 0x14
 2186 058e B7040000 		.4byte	.LASF55
 2187 0592 01       		.byte	0x1
 2188 0593 CF02     		.2byte	0x2cf
 2189 0595 9C030000 		.4byte	0x39c
 2190 0599 01       		.uleb128 0x1
 2191 059a 50       		.byte	0x50
 2192 059b 15       		.uleb128 0x15
 2193 059c F2060000 		.4byte	.LASF72
 2194 05a0 01       		.byte	0x1
 2195 05a1 CF02     		.2byte	0x2cf
 2196 05a3 97000000 		.4byte	0x97
 2197 05a7 81010000 		.4byte	.LLST8
 2198 05ab 15       		.uleb128 0x15
 2199 05ac CF050000 		.4byte	.LASF76
 2200 05b0 01       		.byte	0x1
 2201 05b1 CF02     		.2byte	0x2cf
 2202 05b3 97000000 		.4byte	0x97
 2203 05b7 D4010000 		.4byte	.LLST9
 2204 05bb 15       		.uleb128 0x15
 2205 05bc 00000000 		.4byte	.LASF77
 2206 05c0 01       		.byte	0x1
 2207 05c1 CF02     		.2byte	0x2cf
 2208 05c3 97000000 		.4byte	0x97
 2209 05c7 27020000 		.4byte	.LLST10
 2210 05cb 16       		.uleb128 0x16
 2211 05cc 20070000 		.4byte	.LASF57
 2212 05d0 01       		.byte	0x1
 2213 05d1 D102     		.2byte	0x2d1
 2214 05d3 B8000000 		.4byte	0xb8
 2215 05d7 61020000 		.4byte	.LLST11
 2216 05db 16       		.uleb128 0x16
 2217 05dc 28070000 		.4byte	.LASF58
 2218 05e0 01       		.byte	0x1
 2219 05e1 D102     		.2byte	0x2d1
 2220 05e3 B8000000 		.4byte	0xb8
 2221 05e7 10030000 		.4byte	.LLST12
 2222 05eb 00       		.byte	0
 2223 05ec 13       		.uleb128 0x13
ARM GAS  /var/folders/m4/4md61f0s1_g0rzfghffqnxvr0000gn/T//ccIWSo2P.s 			page 40


 2224 05ed B9050000 		.4byte	.LASF78
 2225 05f1 01       		.byte	0x1
 2226 05f2 4703     		.2byte	0x347
 2227 05f4 00000000 		.4byte	.LFB135
 2228 05f8 0A000000 		.4byte	.LFE135-.LFB135
 2229 05fc 01       		.uleb128 0x1
 2230 05fd 9C       		.byte	0x9c
 2231 05fe 11060000 		.4byte	0x611
 2232 0602 14       		.uleb128 0x14
 2233 0603 B7040000 		.4byte	.LASF55
 2234 0607 01       		.byte	0x1
 2235 0608 4703     		.2byte	0x347
 2236 060a 9C030000 		.4byte	0x39c
 2237 060e 01       		.uleb128 0x1
 2238 060f 50       		.byte	0x50
 2239 0610 00       		.byte	0
 2240 0611 17       		.uleb128 0x17
 2241 0612 8A050000 		.4byte	.LASF85
 2242 0616 01       		.byte	0x1
 2243 0617 5503     		.2byte	0x355
 2244 0619 22020000 		.4byte	0x222
 2245 061d 00000000 		.4byte	.LFB136
 2246 0621 08000000 		.4byte	.LFE136-.LFB136
 2247 0625 01       		.uleb128 0x1
 2248 0626 9C       		.byte	0x9c
 2249 0627 4C060000 		.4byte	0x64c
 2250 062b 15       		.uleb128 0x15
 2251 062c B7040000 		.4byte	.LASF55
 2252 0630 01       		.byte	0x1
 2253 0631 5503     		.2byte	0x355
 2254 0633 9C030000 		.4byte	0x39c
 2255 0637 B2030000 		.4byte	.LLST13
 2256 063b 16       		.uleb128 0x16
 2257 063c A5080000 		.4byte	.LASF79
 2258 0640 01       		.byte	0x1
 2259 0641 5703     		.2byte	0x357
 2260 0643 22020000 		.4byte	0x222
 2261 0647 D3030000 		.4byte	.LLST14
 2262 064b 00       		.byte	0
 2263 064c 13       		.uleb128 0x13
 2264 064d C6070000 		.4byte	.LASF80
 2265 0651 01       		.byte	0x1
 2266 0652 7303     		.2byte	0x373
 2267 0654 00000000 		.4byte	.LFB137
 2268 0658 14000000 		.4byte	.LFE137-.LFB137
 2269 065c 01       		.uleb128 0x1
 2270 065d 9C       		.byte	0x9c
 2271 065e 7F060000 		.4byte	0x67f
 2272 0662 14       		.uleb128 0x14
 2273 0663 B7040000 		.4byte	.LASF55
 2274 0667 01       		.byte	0x1
 2275 0668 7303     		.2byte	0x373
 2276 066a 9C030000 		.4byte	0x39c
 2277 066e 01       		.uleb128 0x1
 2278 066f 50       		.byte	0x50
 2279 0670 14       		.uleb128 0x14
 2280 0671 81030000 		.4byte	.LASF64
ARM GAS  /var/folders/m4/4md61f0s1_g0rzfghffqnxvr0000gn/T//ccIWSo2P.s 			page 41


 2281 0675 01       		.byte	0x1
 2282 0676 7303     		.2byte	0x373
 2283 0678 51020000 		.4byte	0x251
 2284 067c 01       		.uleb128 0x1
 2285 067d 51       		.byte	0x51
 2286 067e 00       		.byte	0
 2287 067f 13       		.uleb128 0x13
 2288 0680 6C070000 		.4byte	.LASF81
 2289 0684 01       		.byte	0x1
 2290 0685 8C03     		.2byte	0x38c
 2291 0687 00000000 		.4byte	.LFB138
 2292 068b 14000000 		.4byte	.LFE138-.LFB138
 2293 068f 01       		.uleb128 0x1
 2294 0690 9C       		.byte	0x9c
 2295 0691 B2060000 		.4byte	0x6b2
 2296 0695 14       		.uleb128 0x14
 2297 0696 B7040000 		.4byte	.LASF55
 2298 069a 01       		.byte	0x1
 2299 069b 8C03     		.2byte	0x38c
 2300 069d 9C030000 		.4byte	0x39c
 2301 06a1 01       		.uleb128 0x1
 2302 06a2 50       		.byte	0x50
 2303 06a3 14       		.uleb128 0x14
 2304 06a4 81030000 		.4byte	.LASF64
 2305 06a8 01       		.byte	0x1
 2306 06a9 8C03     		.2byte	0x38c
 2307 06ab 51020000 		.4byte	0x251
 2308 06af 01       		.uleb128 0x1
 2309 06b0 51       		.byte	0x51
 2310 06b1 00       		.byte	0
 2311 06b2 13       		.uleb128 0x13
 2312 06b3 84060000 		.4byte	.LASF82
 2313 06b7 01       		.byte	0x1
 2314 06b8 A603     		.2byte	0x3a6
 2315 06ba 00000000 		.4byte	.LFB139
 2316 06be 10000000 		.4byte	.LFE139-.LFB139
 2317 06c2 01       		.uleb128 0x1
 2318 06c3 9C       		.byte	0x9c
 2319 06c4 07070000 		.4byte	0x707
 2320 06c8 14       		.uleb128 0x14
 2321 06c9 B7040000 		.4byte	.LASF55
 2322 06cd 01       		.byte	0x1
 2323 06ce A603     		.2byte	0x3a6
 2324 06d0 9C030000 		.4byte	0x39c
 2325 06d4 01       		.uleb128 0x1
 2326 06d5 50       		.byte	0x50
 2327 06d6 15       		.uleb128 0x15
 2328 06d7 7A030000 		.4byte	.LASF83
 2329 06db 01       		.byte	0x1
 2330 06dc A603     		.2byte	0x3a6
 2331 06de 97000000 		.4byte	0x97
 2332 06e2 FA030000 		.4byte	.LLST15
 2333 06e6 16       		.uleb128 0x16
 2334 06e7 20070000 		.4byte	.LASF57
 2335 06eb 01       		.byte	0x1
 2336 06ec A803     		.2byte	0x3a8
 2337 06ee B8000000 		.4byte	0xb8
ARM GAS  /var/folders/m4/4md61f0s1_g0rzfghffqnxvr0000gn/T//ccIWSo2P.s 			page 42


 2338 06f2 1B040000 		.4byte	.LLST16
 2339 06f6 16       		.uleb128 0x16
 2340 06f7 28070000 		.4byte	.LASF58
 2341 06fb 01       		.byte	0x1
 2342 06fc A903     		.2byte	0x3a9
 2343 06fe B8000000 		.4byte	0xb8
 2344 0702 45040000 		.4byte	.LLST17
 2345 0706 00       		.byte	0
 2346 0707 13       		.uleb128 0x13
 2347 0708 49080000 		.4byte	.LASF84
 2348 070c 01       		.byte	0x1
 2349 070d C603     		.2byte	0x3c6
 2350 070f 00000000 		.4byte	.LFB140
 2351 0713 14000000 		.4byte	.LFE140-.LFB140
 2352 0717 01       		.uleb128 0x1
 2353 0718 9C       		.byte	0x9c
 2354 0719 3A070000 		.4byte	0x73a
 2355 071d 14       		.uleb128 0x14
 2356 071e B7040000 		.4byte	.LASF55
 2357 0722 01       		.byte	0x1
 2358 0723 C603     		.2byte	0x3c6
 2359 0725 9C030000 		.4byte	0x39c
 2360 0729 01       		.uleb128 0x1
 2361 072a 50       		.byte	0x50
 2362 072b 14       		.uleb128 0x14
 2363 072c 81030000 		.4byte	.LASF64
 2364 0730 01       		.byte	0x1
 2365 0731 C603     		.2byte	0x3c6
 2366 0733 51020000 		.4byte	0x251
 2367 0737 01       		.uleb128 0x1
 2368 0738 51       		.byte	0x51
 2369 0739 00       		.byte	0
 2370 073a 17       		.uleb128 0x17
 2371 073b CF080000 		.4byte	.LASF86
 2372 073f 01       		.byte	0x1
 2373 0740 DD03     		.2byte	0x3dd
 2374 0742 A2000000 		.4byte	0xa2
 2375 0746 00000000 		.4byte	.LFB141
 2376 074a 06000000 		.4byte	.LFE141-.LFB141
 2377 074e 01       		.uleb128 0x1
 2378 074f 9C       		.byte	0x9c
 2379 0750 65070000 		.4byte	0x765
 2380 0754 15       		.uleb128 0x15
 2381 0755 B7040000 		.4byte	.LASF55
 2382 0759 01       		.byte	0x1
 2383 075a DD03     		.2byte	0x3dd
 2384 075c 9C030000 		.4byte	0x39c
 2385 0760 6C040000 		.4byte	.LLST18
 2386 0764 00       		.byte	0
 2387 0765 18       		.uleb128 0x18
 2388 0766 D5040000 		.4byte	.LASF118
 2389 076a 01       		.byte	0x1
 2390 076b F203     		.2byte	0x3f2
 2391 076d B8000000 		.4byte	0xb8
 2392 0771 00000000 		.4byte	.LFB142
 2393 0775 0C000000 		.4byte	.LFE142-.LFB142
 2394 0779 01       		.uleb128 0x1
ARM GAS  /var/folders/m4/4md61f0s1_g0rzfghffqnxvr0000gn/T//ccIWSo2P.s 			page 43


 2395 077a 9C       		.byte	0x9c
 2396 077b 13       		.uleb128 0x13
 2397 077c 0C020000 		.4byte	.LASF87
 2398 0780 01       		.byte	0x1
 2399 0781 2004     		.2byte	0x420
 2400 0783 00000000 		.4byte	.LFB143
 2401 0787 14000000 		.4byte	.LFE143-.LFB143
 2402 078b 01       		.uleb128 0x1
 2403 078c 9C       		.byte	0x9c
 2404 078d AE070000 		.4byte	0x7ae
 2405 0791 14       		.uleb128 0x14
 2406 0792 B7040000 		.4byte	.LASF55
 2407 0796 01       		.byte	0x1
 2408 0797 2004     		.2byte	0x420
 2409 0799 9C030000 		.4byte	0x39c
 2410 079d 01       		.uleb128 0x1
 2411 079e 50       		.byte	0x50
 2412 079f 14       		.uleb128 0x14
 2413 07a0 81030000 		.4byte	.LASF64
 2414 07a4 01       		.byte	0x1
 2415 07a5 2004     		.2byte	0x420
 2416 07a7 51020000 		.4byte	0x251
 2417 07ab 01       		.uleb128 0x1
 2418 07ac 51       		.byte	0x51
 2419 07ad 00       		.byte	0
 2420 07ae 13       		.uleb128 0x13
 2421 07af 26030000 		.4byte	.LASF88
 2422 07b3 01       		.byte	0x1
 2423 07b4 3804     		.2byte	0x438
 2424 07b6 00000000 		.4byte	.LFB144
 2425 07ba 14000000 		.4byte	.LFE144-.LFB144
 2426 07be 01       		.uleb128 0x1
 2427 07bf 9C       		.byte	0x9c
 2428 07c0 E1070000 		.4byte	0x7e1
 2429 07c4 14       		.uleb128 0x14
 2430 07c5 B7040000 		.4byte	.LASF55
 2431 07c9 01       		.byte	0x1
 2432 07ca 3804     		.2byte	0x438
 2433 07cc 9C030000 		.4byte	0x39c
 2434 07d0 01       		.uleb128 0x1
 2435 07d1 50       		.byte	0x50
 2436 07d2 14       		.uleb128 0x14
 2437 07d3 81030000 		.4byte	.LASF64
 2438 07d7 01       		.byte	0x1
 2439 07d8 3804     		.2byte	0x438
 2440 07da 51020000 		.4byte	0x251
 2441 07de 01       		.uleb128 0x1
 2442 07df 51       		.byte	0x51
 2443 07e0 00       		.byte	0
 2444 07e1 13       		.uleb128 0x13
 2445 07e2 1D080000 		.4byte	.LASF89
 2446 07e6 01       		.byte	0x1
 2447 07e7 5304     		.2byte	0x453
 2448 07e9 00000000 		.4byte	.LFB145
 2449 07ed 1C000000 		.4byte	.LFE145-.LFB145
 2450 07f1 01       		.uleb128 0x1
 2451 07f2 9C       		.byte	0x9c
ARM GAS  /var/folders/m4/4md61f0s1_g0rzfghffqnxvr0000gn/T//ccIWSo2P.s 			page 44


 2452 07f3 06080000 		.4byte	0x806
 2453 07f7 14       		.uleb128 0x14
 2454 07f8 81030000 		.4byte	.LASF64
 2455 07fc 01       		.byte	0x1
 2456 07fd 5304     		.2byte	0x453
 2457 07ff 51020000 		.4byte	0x251
 2458 0803 01       		.uleb128 0x1
 2459 0804 50       		.byte	0x50
 2460 0805 00       		.byte	0
 2461 0806 13       		.uleb128 0x13
 2462 0807 F5040000 		.4byte	.LASF90
 2463 080b 01       		.byte	0x1
 2464 080c AA04     		.2byte	0x4aa
 2465 080e 00000000 		.4byte	.LFB146
 2466 0812 58000000 		.4byte	.LFE146-.LFB146
 2467 0816 01       		.uleb128 0x1
 2468 0817 9C       		.byte	0x9c
 2469 0818 89080000 		.4byte	0x889
 2470 081c 14       		.uleb128 0x14
 2471 081d B7040000 		.4byte	.LASF55
 2472 0821 01       		.byte	0x1
 2473 0822 AA04     		.2byte	0x4aa
 2474 0824 9C030000 		.4byte	0x39c
 2475 0828 01       		.uleb128 0x1
 2476 0829 50       		.byte	0x50
 2477 082a 14       		.uleb128 0x14
 2478 082b F2060000 		.4byte	.LASF72
 2479 082f 01       		.byte	0x1
 2480 0830 AA04     		.2byte	0x4aa
 2481 0832 97000000 		.4byte	0x97
 2482 0836 01       		.uleb128 0x1
 2483 0837 51       		.byte	0x51
 2484 0838 15       		.uleb128 0x15
 2485 0839 CF050000 		.4byte	.LASF76
 2486 083d 01       		.byte	0x1
 2487 083e AA04     		.2byte	0x4aa
 2488 0840 97000000 		.4byte	0x97
 2489 0844 8D040000 		.4byte	.LLST19
 2490 0848 15       		.uleb128 0x15
 2491 0849 00000000 		.4byte	.LASF77
 2492 084d 01       		.byte	0x1
 2493 084e AA04     		.2byte	0x4aa
 2494 0850 97000000 		.4byte	0x97
 2495 0854 B9040000 		.4byte	.LLST20
 2496 0858 16       		.uleb128 0x16
 2497 0859 20070000 		.4byte	.LASF57
 2498 085d 01       		.byte	0x1
 2499 085e AC04     		.2byte	0x4ac
 2500 0860 B8000000 		.4byte	0xb8
 2501 0864 F3040000 		.4byte	.LLST21
 2502 0868 16       		.uleb128 0x16
 2503 0869 28070000 		.4byte	.LASF58
 2504 086d 01       		.byte	0x1
 2505 086e AC04     		.2byte	0x4ac
 2506 0870 B8000000 		.4byte	0xb8
 2507 0874 55050000 		.4byte	.LLST22
 2508 0878 16       		.uleb128 0x16
ARM GAS  /var/folders/m4/4md61f0s1_g0rzfghffqnxvr0000gn/T//ccIWSo2P.s 			page 45


 2509 0879 30070000 		.4byte	.LASF91
 2510 087d 01       		.byte	0x1
 2511 087e AC04     		.2byte	0x4ac
 2512 0880 B8000000 		.4byte	0xb8
 2513 0884 D6050000 		.4byte	.LLST23
 2514 0888 00       		.byte	0
 2515 0889 13       		.uleb128 0x13
 2516 088a FB070000 		.4byte	.LASF92
 2517 088e 01       		.byte	0x1
 2518 088f E904     		.2byte	0x4e9
 2519 0891 00000000 		.4byte	.LFB147
 2520 0895 10000000 		.4byte	.LFE147-.LFB147
 2521 0899 01       		.uleb128 0x1
 2522 089a 9C       		.byte	0x9c
 2523 089b DE080000 		.4byte	0x8de
 2524 089f 14       		.uleb128 0x14
 2525 08a0 B7040000 		.4byte	.LASF55
 2526 08a4 01       		.byte	0x1
 2527 08a5 E904     		.2byte	0x4e9
 2528 08a7 9C030000 		.4byte	0x39c
 2529 08ab 01       		.uleb128 0x1
 2530 08ac 50       		.byte	0x50
 2531 08ad 15       		.uleb128 0x15
 2532 08ae 1F030000 		.4byte	.LASF93
 2533 08b2 01       		.byte	0x1
 2534 08b3 E904     		.2byte	0x4e9
 2535 08b5 97000000 		.4byte	0x97
 2536 08b9 07060000 		.4byte	.LLST24
 2537 08bd 16       		.uleb128 0x16
 2538 08be 20070000 		.4byte	.LASF57
 2539 08c2 01       		.byte	0x1
 2540 08c3 EB04     		.2byte	0x4eb
 2541 08c5 B8000000 		.4byte	0xb8
 2542 08c9 28060000 		.4byte	.LLST25
 2543 08cd 16       		.uleb128 0x16
 2544 08ce 28070000 		.4byte	.LASF58
 2545 08d2 01       		.byte	0x1
 2546 08d3 EC04     		.2byte	0x4ec
 2547 08d5 B8000000 		.4byte	0xb8
 2548 08d9 52060000 		.4byte	.LLST26
 2549 08dd 00       		.byte	0
 2550 08de 13       		.uleb128 0x13
 2551 08df D0020000 		.4byte	.LASF94
 2552 08e3 01       		.byte	0x1
 2553 08e4 0C05     		.2byte	0x50c
 2554 08e6 00000000 		.4byte	.LFB148
 2555 08ea 16000000 		.4byte	.LFE148-.LFB148
 2556 08ee 01       		.uleb128 0x1
 2557 08ef 9C       		.byte	0x9c
 2558 08f0 30090000 		.4byte	0x930
 2559 08f4 14       		.uleb128 0x14
 2560 08f5 B7040000 		.4byte	.LASF55
 2561 08f9 01       		.byte	0x1
 2562 08fa 0C05     		.2byte	0x50c
 2563 08fc 9C030000 		.4byte	0x39c
 2564 0900 01       		.uleb128 0x1
 2565 0901 50       		.byte	0x50
ARM GAS  /var/folders/m4/4md61f0s1_g0rzfghffqnxvr0000gn/T//ccIWSo2P.s 			page 46


 2566 0902 15       		.uleb128 0x15
 2567 0903 0B030000 		.4byte	.LASF95
 2568 0907 01       		.byte	0x1
 2569 0908 0C05     		.2byte	0x50c
 2570 090a 97000000 		.4byte	0x97
 2571 090e 79060000 		.4byte	.LLST27
 2572 0912 14       		.uleb128 0x14
 2573 0913 AF080000 		.4byte	.LASF96
 2574 0917 01       		.byte	0x1
 2575 0918 0C05     		.2byte	0x50c
 2576 091a A2000000 		.4byte	0xa2
 2577 091e 01       		.uleb128 0x1
 2578 091f 52       		.byte	0x52
 2579 0920 19       		.uleb128 0x19
 2580 0921 746D7000 		.ascii	"tmp\000"
 2581 0925 01       		.byte	0x1
 2582 0926 0E05     		.2byte	0x50e
 2583 0928 CA000000 		.4byte	0xca
 2584 092c 02       		.uleb128 0x2
 2585 092d 91       		.byte	0x91
 2586 092e 7C       		.sleb128 -4
 2587 092f 00       		.byte	0
 2588 0930 13       		.uleb128 0x13
 2589 0931 8A030000 		.4byte	.LASF97
 2590 0935 01       		.byte	0x1
 2591 0936 3205     		.2byte	0x532
 2592 0938 00000000 		.4byte	.LFB149
 2593 093c 0C000000 		.4byte	.LFE149-.LFB149
 2594 0940 01       		.uleb128 0x1
 2595 0941 9C       		.byte	0x9c
 2596 0942 75090000 		.4byte	0x975
 2597 0946 14       		.uleb128 0x14
 2598 0947 B7040000 		.4byte	.LASF55
 2599 094b 01       		.byte	0x1
 2600 094c 3205     		.2byte	0x532
 2601 094e 9C030000 		.4byte	0x39c
 2602 0952 01       		.uleb128 0x1
 2603 0953 50       		.byte	0x50
 2604 0954 15       		.uleb128 0x15
 2605 0955 4C060000 		.4byte	.LASF98
 2606 0959 01       		.byte	0x1
 2607 095a 3205     		.2byte	0x532
 2608 095c B8000000 		.4byte	0xb8
 2609 0960 9A060000 		.4byte	.LLST28
 2610 0964 16       		.uleb128 0x16
 2611 0965 49030000 		.4byte	.LASF67
 2612 0969 01       		.byte	0x1
 2613 096a 3405     		.2byte	0x534
 2614 096c B8000000 		.4byte	0xb8
 2615 0970 BB060000 		.4byte	.LLST29
 2616 0974 00       		.byte	0
 2617 0975 13       		.uleb128 0x13
 2618 0976 26020000 		.4byte	.LASF99
 2619 097a 01       		.byte	0x1
 2620 097b 5405     		.2byte	0x554
 2621 097d 00000000 		.4byte	.LFB150
 2622 0981 0C000000 		.4byte	.LFE150-.LFB150
ARM GAS  /var/folders/m4/4md61f0s1_g0rzfghffqnxvr0000gn/T//ccIWSo2P.s 			page 47


 2623 0985 01       		.uleb128 0x1
 2624 0986 9C       		.byte	0x9c
 2625 0987 BA090000 		.4byte	0x9ba
 2626 098b 14       		.uleb128 0x14
 2627 098c B7040000 		.4byte	.LASF55
 2628 0990 01       		.byte	0x1
 2629 0991 5405     		.2byte	0x554
 2630 0993 9C030000 		.4byte	0x39c
 2631 0997 01       		.uleb128 0x1
 2632 0998 50       		.byte	0x50
 2633 0999 15       		.uleb128 0x15
 2634 099a 40070000 		.4byte	.LASF100
 2635 099e 01       		.byte	0x1
 2636 099f 5405     		.2byte	0x554
 2637 09a1 B8000000 		.4byte	0xb8
 2638 09a5 E5060000 		.4byte	.LLST30
 2639 09a9 16       		.uleb128 0x16
 2640 09aa 49030000 		.4byte	.LASF67
 2641 09ae 01       		.byte	0x1
 2642 09af 5605     		.2byte	0x556
 2643 09b1 B8000000 		.4byte	0xb8
 2644 09b5 06070000 		.4byte	.LLST31
 2645 09b9 00       		.byte	0
 2646 09ba 13       		.uleb128 0x13
 2647 09bb 66060000 		.4byte	.LASF101
 2648 09bf 01       		.byte	0x1
 2649 09c0 6905     		.2byte	0x569
 2650 09c2 00000000 		.4byte	.LFB151
 2651 09c6 0A000000 		.4byte	.LFE151-.LFB151
 2652 09ca 01       		.uleb128 0x1
 2653 09cb 9C       		.byte	0x9c
 2654 09cc DF090000 		.4byte	0x9df
 2655 09d0 14       		.uleb128 0x14
 2656 09d1 B7040000 		.4byte	.LASF55
 2657 09d5 01       		.byte	0x1
 2658 09d6 6905     		.2byte	0x569
 2659 09d8 9C030000 		.4byte	0x39c
 2660 09dc 01       		.uleb128 0x1
 2661 09dd 50       		.byte	0x50
 2662 09de 00       		.byte	0
 2663 09df 17       		.uleb128 0x17
 2664 09e0 8F020000 		.4byte	.LASF102
 2665 09e4 01       		.byte	0x1
 2666 09e5 7605     		.2byte	0x576
 2667 09e7 22020000 		.4byte	0x222
 2668 09eb 00000000 		.4byte	.LFB152
 2669 09ef 08000000 		.4byte	.LFE152-.LFB152
 2670 09f3 01       		.uleb128 0x1
 2671 09f4 9C       		.byte	0x9c
 2672 09f5 1A0A0000 		.4byte	0xa1a
 2673 09f9 15       		.uleb128 0x15
 2674 09fa B7040000 		.4byte	.LASF55
 2675 09fe 01       		.byte	0x1
 2676 09ff 7605     		.2byte	0x576
 2677 0a01 9C030000 		.4byte	0x39c
 2678 0a05 30070000 		.4byte	.LLST32
 2679 0a09 16       		.uleb128 0x16
ARM GAS  /var/folders/m4/4md61f0s1_g0rzfghffqnxvr0000gn/T//ccIWSo2P.s 			page 48


 2680 0a0a A5080000 		.4byte	.LASF79
 2681 0a0e 01       		.byte	0x1
 2682 0a0f 7805     		.2byte	0x578
 2683 0a11 22020000 		.4byte	0x222
 2684 0a15 51070000 		.4byte	.LLST33
 2685 0a19 00       		.byte	0
 2686 0a1a 13       		.uleb128 0x13
 2687 0a1b A3060000 		.4byte	.LASF103
 2688 0a1f 01       		.byte	0x1
 2689 0a20 9305     		.2byte	0x593
 2690 0a22 00000000 		.4byte	.LFB153
 2691 0a26 14000000 		.4byte	.LFE153-.LFB153
 2692 0a2a 01       		.uleb128 0x1
 2693 0a2b 9C       		.byte	0x9c
 2694 0a2c 4D0A0000 		.4byte	0xa4d
 2695 0a30 14       		.uleb128 0x14
 2696 0a31 B7040000 		.4byte	.LASF55
 2697 0a35 01       		.byte	0x1
 2698 0a36 9305     		.2byte	0x593
 2699 0a38 9C030000 		.4byte	0x39c
 2700 0a3c 01       		.uleb128 0x1
 2701 0a3d 50       		.byte	0x50
 2702 0a3e 14       		.uleb128 0x14
 2703 0a3f 81030000 		.4byte	.LASF64
 2704 0a43 01       		.byte	0x1
 2705 0a44 9305     		.2byte	0x593
 2706 0a46 51020000 		.4byte	0x251
 2707 0a4a 01       		.uleb128 0x1
 2708 0a4b 51       		.byte	0x51
 2709 0a4c 00       		.byte	0
 2710 0a4d 13       		.uleb128 0x13
 2711 0a4e 50030000 		.4byte	.LASF104
 2712 0a52 01       		.byte	0x1
 2713 0a53 AD05     		.2byte	0x5ad
 2714 0a55 00000000 		.4byte	.LFB154
 2715 0a59 14000000 		.4byte	.LFE154-.LFB154
 2716 0a5d 01       		.uleb128 0x1
 2717 0a5e 9C       		.byte	0x9c
 2718 0a5f 800A0000 		.4byte	0xa80
 2719 0a63 14       		.uleb128 0x14
 2720 0a64 B7040000 		.4byte	.LASF55
 2721 0a68 01       		.byte	0x1
 2722 0a69 AD05     		.2byte	0x5ad
 2723 0a6b 9C030000 		.4byte	0x39c
 2724 0a6f 01       		.uleb128 0x1
 2725 0a70 50       		.byte	0x50
 2726 0a71 14       		.uleb128 0x14
 2727 0a72 81030000 		.4byte	.LASF64
 2728 0a76 01       		.byte	0x1
 2729 0a77 AD05     		.2byte	0x5ad
 2730 0a79 51020000 		.4byte	0x251
 2731 0a7d 01       		.uleb128 0x1
 2732 0a7e 51       		.byte	0x51
 2733 0a7f 00       		.byte	0
 2734 0a80 17       		.uleb128 0x17
 2735 0a81 D3060000 		.4byte	.LASF105
 2736 0a85 01       		.byte	0x1
ARM GAS  /var/folders/m4/4md61f0s1_g0rzfghffqnxvr0000gn/T//ccIWSo2P.s 			page 49


 2737 0a86 C905     		.2byte	0x5c9
 2738 0a88 A2000000 		.4byte	0xa2
 2739 0a8c 00000000 		.4byte	.LFB155
 2740 0a90 1A000000 		.4byte	.LFE155-.LFB155
 2741 0a94 01       		.uleb128 0x1
 2742 0a95 9C       		.byte	0x9c
 2743 0a96 CA0A0000 		.4byte	0xaca
 2744 0a9a 15       		.uleb128 0x15
 2745 0a9b B7040000 		.4byte	.LASF55
 2746 0a9f 01       		.byte	0x1
 2747 0aa0 C905     		.2byte	0x5c9
 2748 0aa2 9C030000 		.4byte	0x39c
 2749 0aa6 78070000 		.4byte	.LLST34
 2750 0aaa 15       		.uleb128 0x15
 2751 0aab 0B030000 		.4byte	.LASF95
 2752 0aaf 01       		.byte	0x1
 2753 0ab0 C905     		.2byte	0x5c9
 2754 0ab2 97000000 		.4byte	0x97
 2755 0ab6 99070000 		.4byte	.LLST35
 2756 0aba 19       		.uleb128 0x19
 2757 0abb 746D7000 		.ascii	"tmp\000"
 2758 0abf 01       		.byte	0x1
 2759 0ac0 CB05     		.2byte	0x5cb
 2760 0ac2 CA000000 		.4byte	0xca
 2761 0ac6 02       		.uleb128 0x2
 2762 0ac7 91       		.byte	0x91
 2763 0ac8 7C       		.sleb128 -4
 2764 0ac9 00       		.byte	0
 2765 0aca 13       		.uleb128 0x13
 2766 0acb 3F050000 		.4byte	.LASF106
 2767 0acf 01       		.byte	0x1
 2768 0ad0 3406     		.2byte	0x634
 2769 0ad2 00000000 		.4byte	.LFB156
 2770 0ad6 18000000 		.4byte	.LFE156-.LFB156
 2771 0ada 01       		.uleb128 0x1
 2772 0adb 9C       		.byte	0x9c
 2773 0adc 1D0B0000 		.4byte	0xb1d
 2774 0ae0 14       		.uleb128 0x14
 2775 0ae1 B7040000 		.4byte	.LASF55
 2776 0ae5 01       		.byte	0x1
 2777 0ae6 3406     		.2byte	0x634
 2778 0ae8 9C030000 		.4byte	0x39c
 2779 0aec 01       		.uleb128 0x1
 2780 0aed 50       		.byte	0x50
 2781 0aee 15       		.uleb128 0x15
 2782 0aef D0030000 		.4byte	.LASF107
 2783 0af3 01       		.byte	0x1
 2784 0af4 3406     		.2byte	0x634
 2785 0af6 A2000000 		.4byte	0xa2
 2786 0afa BA070000 		.4byte	.LLST36
 2787 0afe 14       		.uleb128 0x14
 2788 0aff 81030000 		.4byte	.LASF64
 2789 0b03 01       		.byte	0x1
 2790 0b04 3406     		.2byte	0x634
 2791 0b06 51020000 		.4byte	0x251
 2792 0b0a 01       		.uleb128 0x1
 2793 0b0b 52       		.byte	0x52
ARM GAS  /var/folders/m4/4md61f0s1_g0rzfghffqnxvr0000gn/T//ccIWSo2P.s 			page 50


 2794 0b0c 16       		.uleb128 0x16
 2795 0b0d B2050000 		.4byte	.LASF108
 2796 0b11 01       		.byte	0x1
 2797 0b12 3606     		.2byte	0x636
 2798 0b14 B8000000 		.4byte	0xb8
 2799 0b18 DB070000 		.4byte	.LLST37
 2800 0b1c 00       		.byte	0
 2801 0b1d 17       		.uleb128 0x17
 2802 0b1e 78050000 		.4byte	.LASF109
 2803 0b22 01       		.byte	0x1
 2804 0b23 5906     		.2byte	0x659
 2805 0b25 22020000 		.4byte	0x222
 2806 0b29 00000000 		.4byte	.LFB157
 2807 0b2d 0C000000 		.4byte	.LFE157-.LFB157
 2808 0b31 01       		.uleb128 0x1
 2809 0b32 9C       		.byte	0x9c
 2810 0b33 660B0000 		.4byte	0xb66
 2811 0b37 15       		.uleb128 0x15
 2812 0b38 B7040000 		.4byte	.LASF55
 2813 0b3c 01       		.byte	0x1
 2814 0b3d 5906     		.2byte	0x659
 2815 0b3f 9C030000 		.4byte	0x39c
 2816 0b43 36080000 		.4byte	.LLST38
 2817 0b47 14       		.uleb128 0x14
 2818 0b48 71030000 		.4byte	.LASF110
 2819 0b4c 01       		.byte	0x1
 2820 0b4d 5906     		.2byte	0x659
 2821 0b4f 97000000 		.4byte	0x97
 2822 0b53 01       		.uleb128 0x1
 2823 0b54 51       		.byte	0x51
 2824 0b55 16       		.uleb128 0x16
 2825 0b56 A5080000 		.4byte	.LASF79
 2826 0b5a 01       		.byte	0x1
 2827 0b5b 5B06     		.2byte	0x65b
 2828 0b5d 22020000 		.4byte	0x222
 2829 0b61 57080000 		.4byte	.LLST39
 2830 0b65 00       		.byte	0
 2831 0b66 13       		.uleb128 0x13
 2832 0b67 C5060000 		.4byte	.LASF111
 2833 0b6b 01       		.byte	0x1
 2834 0b6c 7C06     		.2byte	0x67c
 2835 0b6e 00000000 		.4byte	.LFB158
 2836 0b72 06000000 		.4byte	.LFE158-.LFB158
 2837 0b76 01       		.uleb128 0x1
 2838 0b77 9C       		.byte	0x9c
 2839 0b78 9B0B0000 		.4byte	0xb9b
 2840 0b7c 14       		.uleb128 0x14
 2841 0b7d B7040000 		.4byte	.LASF55
 2842 0b81 01       		.byte	0x1
 2843 0b82 7C06     		.2byte	0x67c
 2844 0b84 9C030000 		.4byte	0x39c
 2845 0b88 01       		.uleb128 0x1
 2846 0b89 50       		.byte	0x50
 2847 0b8a 15       		.uleb128 0x15
 2848 0b8b 71030000 		.4byte	.LASF110
 2849 0b8f 01       		.byte	0x1
 2850 0b90 7C06     		.2byte	0x67c
ARM GAS  /var/folders/m4/4md61f0s1_g0rzfghffqnxvr0000gn/T//ccIWSo2P.s 			page 51


 2851 0b92 97000000 		.4byte	0x97
 2852 0b96 80080000 		.4byte	.LLST40
 2853 0b9a 00       		.byte	0
 2854 0b9b 17       		.uleb128 0x17
 2855 0b9c 56020000 		.4byte	.LASF112
 2856 0ba0 01       		.byte	0x1
 2857 0ba1 9106     		.2byte	0x691
 2858 0ba3 2D020000 		.4byte	0x22d
 2859 0ba7 00000000 		.4byte	.LFB159
 2860 0bab 1C000000 		.4byte	.LFE159-.LFB159
 2861 0baf 01       		.uleb128 0x1
 2862 0bb0 9C       		.byte	0x9c
 2863 0bb1 060C0000 		.4byte	0xc06
 2864 0bb5 15       		.uleb128 0x15
 2865 0bb6 B7040000 		.4byte	.LASF55
 2866 0bba 01       		.byte	0x1
 2867 0bbb 9106     		.2byte	0x691
 2868 0bbd 9C030000 		.4byte	0x39c
 2869 0bc1 A1080000 		.4byte	.LLST41
 2870 0bc5 15       		.uleb128 0x15
 2871 0bc6 D0030000 		.4byte	.LASF107
 2872 0bca 01       		.byte	0x1
 2873 0bcb 9106     		.2byte	0x691
 2874 0bcd A2000000 		.4byte	0xa2
 2875 0bd1 C2080000 		.4byte	.LLST42
 2876 0bd5 16       		.uleb128 0x16
 2877 0bd6 A5080000 		.4byte	.LASF79
 2878 0bda 01       		.byte	0x1
 2879 0bdb 9306     		.2byte	0x693
 2880 0bdd 2D020000 		.4byte	0x22d
 2881 0be1 E3080000 		.4byte	.LLST43
 2882 0be5 16       		.uleb128 0x16
 2883 0be6 B2050000 		.4byte	.LASF108
 2884 0bea 01       		.byte	0x1
 2885 0beb 9406     		.2byte	0x694
 2886 0bed B8000000 		.4byte	0xb8
 2887 0bf1 02090000 		.4byte	.LLST44
 2888 0bf5 16       		.uleb128 0x16
 2889 0bf6 DD000000 		.4byte	.LASF113
 2890 0bfa 01       		.byte	0x1
 2891 0bfb 9406     		.2byte	0x694
 2892 0bfd B8000000 		.4byte	0xb8
 2893 0c01 31090000 		.4byte	.LLST45
 2894 0c05 00       		.byte	0
 2895 0c06 13       		.uleb128 0x13
 2896 0c07 29050000 		.4byte	.LASF114
 2897 0c0b 01       		.byte	0x1
 2898 0c0c BA06     		.2byte	0x6ba
 2899 0c0e 00000000 		.4byte	.LFB160
 2900 0c12 08000000 		.4byte	.LFE160-.LFB160
 2901 0c16 01       		.uleb128 0x1
 2902 0c17 9C       		.byte	0x9c
 2903 0c18 4B0C0000 		.4byte	0xc4b
 2904 0c1c 14       		.uleb128 0x14
 2905 0c1d B7040000 		.4byte	.LASF55
 2906 0c21 01       		.byte	0x1
 2907 0c22 BA06     		.2byte	0x6ba
ARM GAS  /var/folders/m4/4md61f0s1_g0rzfghffqnxvr0000gn/T//ccIWSo2P.s 			page 52


 2908 0c24 9C030000 		.4byte	0x39c
 2909 0c28 01       		.uleb128 0x1
 2910 0c29 50       		.byte	0x50
 2911 0c2a 15       		.uleb128 0x15
 2912 0c2b D0030000 		.4byte	.LASF107
 2913 0c2f 01       		.byte	0x1
 2914 0c30 BA06     		.2byte	0x6ba
 2915 0c32 A2000000 		.4byte	0xa2
 2916 0c36 70090000 		.4byte	.LLST46
 2917 0c3a 16       		.uleb128 0x16
 2918 0c3b B2050000 		.4byte	.LASF108
 2919 0c3f 01       		.byte	0x1
 2920 0c40 BC06     		.2byte	0x6bc
 2921 0c42 97000000 		.4byte	0x97
 2922 0c46 91090000 		.4byte	.LLST47
 2923 0c4a 00       		.byte	0
 2924 0c4b 1A       		.uleb128 0x1a
 2925 0c4c 2B060000 		.4byte	.LASF119
 2926 0c50 07       		.byte	0x7
 2927 0c51 FA06     		.2byte	0x6fa
 2928 0c53 570C0000 		.4byte	0xc57
 2929 0c57 05       		.uleb128 0x5
 2930 0c58 AD000000 		.4byte	0xad
 2931 0c5c 1B       		.uleb128 0x1b
 2932 0c5d 58050000 		.4byte	.LASF120
 2933 0c61 58050000 		.4byte	.LASF120
 2934 0c65 08       		.byte	0x8
 2935 0c66 6203     		.2byte	0x362
 2936 0c68 00       		.byte	0
 2937              		.section	.debug_abbrev,"",%progbits
 2938              	.Ldebug_abbrev0:
 2939 0000 01       		.uleb128 0x1
 2940 0001 11       		.uleb128 0x11
 2941 0002 01       		.byte	0x1
 2942 0003 25       		.uleb128 0x25
 2943 0004 0E       		.uleb128 0xe
 2944 0005 13       		.uleb128 0x13
 2945 0006 0B       		.uleb128 0xb
 2946 0007 03       		.uleb128 0x3
 2947 0008 0E       		.uleb128 0xe
 2948 0009 1B       		.uleb128 0x1b
 2949 000a 0E       		.uleb128 0xe
 2950 000b 55       		.uleb128 0x55
 2951 000c 17       		.uleb128 0x17
 2952 000d 11       		.uleb128 0x11
 2953 000e 01       		.uleb128 0x1
 2954 000f 10       		.uleb128 0x10
 2955 0010 17       		.uleb128 0x17
 2956 0011 00       		.byte	0
 2957 0012 00       		.byte	0
 2958 0013 02       		.uleb128 0x2
 2959 0014 24       		.uleb128 0x24
 2960 0015 00       		.byte	0
 2961 0016 0B       		.uleb128 0xb
 2962 0017 0B       		.uleb128 0xb
 2963 0018 3E       		.uleb128 0x3e
 2964 0019 0B       		.uleb128 0xb
ARM GAS  /var/folders/m4/4md61f0s1_g0rzfghffqnxvr0000gn/T//ccIWSo2P.s 			page 53


 2965 001a 03       		.uleb128 0x3
 2966 001b 0E       		.uleb128 0xe
 2967 001c 00       		.byte	0
 2968 001d 00       		.byte	0
 2969 001e 03       		.uleb128 0x3
 2970 001f 16       		.uleb128 0x16
 2971 0020 00       		.byte	0
 2972 0021 03       		.uleb128 0x3
 2973 0022 0E       		.uleb128 0xe
 2974 0023 3A       		.uleb128 0x3a
 2975 0024 0B       		.uleb128 0xb
 2976 0025 3B       		.uleb128 0x3b
 2977 0026 0B       		.uleb128 0xb
 2978 0027 49       		.uleb128 0x49
 2979 0028 13       		.uleb128 0x13
 2980 0029 00       		.byte	0
 2981 002a 00       		.byte	0
 2982 002b 04       		.uleb128 0x4
 2983 002c 24       		.uleb128 0x24
 2984 002d 00       		.byte	0
 2985 002e 0B       		.uleb128 0xb
 2986 002f 0B       		.uleb128 0xb
 2987 0030 3E       		.uleb128 0x3e
 2988 0031 0B       		.uleb128 0xb
 2989 0032 03       		.uleb128 0x3
 2990 0033 08       		.uleb128 0x8
 2991 0034 00       		.byte	0
 2992 0035 00       		.byte	0
 2993 0036 05       		.uleb128 0x5
 2994 0037 35       		.uleb128 0x35
 2995 0038 00       		.byte	0
 2996 0039 49       		.uleb128 0x49
 2997 003a 13       		.uleb128 0x13
 2998 003b 00       		.byte	0
 2999 003c 00       		.byte	0
 3000 003d 06       		.uleb128 0x6
 3001 003e 13       		.uleb128 0x13
 3002 003f 01       		.byte	0x1
 3003 0040 0B       		.uleb128 0xb
 3004 0041 0B       		.uleb128 0xb
 3005 0042 3A       		.uleb128 0x3a
 3006 0043 0B       		.uleb128 0xb
 3007 0044 3B       		.uleb128 0x3b
 3008 0045 0B       		.uleb128 0xb
 3009 0046 01       		.uleb128 0x1
 3010 0047 13       		.uleb128 0x13
 3011 0048 00       		.byte	0
 3012 0049 00       		.byte	0
 3013 004a 07       		.uleb128 0x7
 3014 004b 0D       		.uleb128 0xd
 3015 004c 00       		.byte	0
 3016 004d 03       		.uleb128 0x3
 3017 004e 08       		.uleb128 0x8
 3018 004f 3A       		.uleb128 0x3a
 3019 0050 0B       		.uleb128 0xb
 3020 0051 3B       		.uleb128 0x3b
 3021 0052 0B       		.uleb128 0xb
ARM GAS  /var/folders/m4/4md61f0s1_g0rzfghffqnxvr0000gn/T//ccIWSo2P.s 			page 54


 3022 0053 49       		.uleb128 0x49
 3023 0054 13       		.uleb128 0x13
 3024 0055 38       		.uleb128 0x38
 3025 0056 0B       		.uleb128 0xb
 3026 0057 00       		.byte	0
 3027 0058 00       		.byte	0
 3028 0059 08       		.uleb128 0x8
 3029 005a 0D       		.uleb128 0xd
 3030 005b 00       		.byte	0
 3031 005c 03       		.uleb128 0x3
 3032 005d 0E       		.uleb128 0xe
 3033 005e 3A       		.uleb128 0x3a
 3034 005f 0B       		.uleb128 0xb
 3035 0060 3B       		.uleb128 0x3b
 3036 0061 0B       		.uleb128 0xb
 3037 0062 49       		.uleb128 0x49
 3038 0063 13       		.uleb128 0x13
 3039 0064 38       		.uleb128 0x38
 3040 0065 0B       		.uleb128 0xb
 3041 0066 00       		.byte	0
 3042 0067 00       		.byte	0
 3043 0068 09       		.uleb128 0x9
 3044 0069 04       		.uleb128 0x4
 3045 006a 01       		.byte	0x1
 3046 006b 0B       		.uleb128 0xb
 3047 006c 0B       		.uleb128 0xb
 3048 006d 49       		.uleb128 0x49
 3049 006e 13       		.uleb128 0x13
 3050 006f 3A       		.uleb128 0x3a
 3051 0070 0B       		.uleb128 0xb
 3052 0071 3B       		.uleb128 0x3b
 3053 0072 0B       		.uleb128 0xb
 3054 0073 01       		.uleb128 0x1
 3055 0074 13       		.uleb128 0x13
 3056 0075 00       		.byte	0
 3057 0076 00       		.byte	0
 3058 0077 0A       		.uleb128 0xa
 3059 0078 28       		.uleb128 0x28
 3060 0079 00       		.byte	0
 3061 007a 03       		.uleb128 0x3
 3062 007b 0E       		.uleb128 0xe
 3063 007c 1C       		.uleb128 0x1c
 3064 007d 0B       		.uleb128 0xb
 3065 007e 00       		.byte	0
 3066 007f 00       		.byte	0
 3067 0080 0B       		.uleb128 0xb
 3068 0081 28       		.uleb128 0x28
 3069 0082 00       		.byte	0
 3070 0083 03       		.uleb128 0x3
 3071 0084 08       		.uleb128 0x8
 3072 0085 1C       		.uleb128 0x1c
 3073 0086 0B       		.uleb128 0xb
 3074 0087 00       		.byte	0
 3075 0088 00       		.byte	0
 3076 0089 0C       		.uleb128 0xc
 3077 008a 2E       		.uleb128 0x2e
 3078 008b 01       		.byte	0x1
ARM GAS  /var/folders/m4/4md61f0s1_g0rzfghffqnxvr0000gn/T//ccIWSo2P.s 			page 55


 3079 008c 3F       		.uleb128 0x3f
 3080 008d 19       		.uleb128 0x19
 3081 008e 03       		.uleb128 0x3
 3082 008f 0E       		.uleb128 0xe
 3083 0090 3A       		.uleb128 0x3a
 3084 0091 0B       		.uleb128 0xb
 3085 0092 3B       		.uleb128 0x3b
 3086 0093 0B       		.uleb128 0xb
 3087 0094 27       		.uleb128 0x27
 3088 0095 19       		.uleb128 0x19
 3089 0096 11       		.uleb128 0x11
 3090 0097 01       		.uleb128 0x1
 3091 0098 12       		.uleb128 0x12
 3092 0099 06       		.uleb128 0x6
 3093 009a 40       		.uleb128 0x40
 3094 009b 18       		.uleb128 0x18
 3095 009c 9742     		.uleb128 0x2117
 3096 009e 19       		.uleb128 0x19
 3097 009f 01       		.uleb128 0x1
 3098 00a0 13       		.uleb128 0x13
 3099 00a1 00       		.byte	0
 3100 00a2 00       		.byte	0
 3101 00a3 0D       		.uleb128 0xd
 3102 00a4 898201   		.uleb128 0x4109
 3103 00a7 01       		.byte	0x1
 3104 00a8 11       		.uleb128 0x11
 3105 00a9 01       		.uleb128 0x1
 3106 00aa 31       		.uleb128 0x31
 3107 00ab 13       		.uleb128 0x13
 3108 00ac 01       		.uleb128 0x1
 3109 00ad 13       		.uleb128 0x13
 3110 00ae 00       		.byte	0
 3111 00af 00       		.byte	0
 3112 00b0 0E       		.uleb128 0xe
 3113 00b1 8A8201   		.uleb128 0x410a
 3114 00b4 00       		.byte	0
 3115 00b5 02       		.uleb128 0x2
 3116 00b6 18       		.uleb128 0x18
 3117 00b7 9142     		.uleb128 0x2111
 3118 00b9 18       		.uleb128 0x18
 3119 00ba 00       		.byte	0
 3120 00bb 00       		.byte	0
 3121 00bc 0F       		.uleb128 0xf
 3122 00bd 898201   		.uleb128 0x4109
 3123 00c0 01       		.byte	0x1
 3124 00c1 11       		.uleb128 0x11
 3125 00c2 01       		.uleb128 0x1
 3126 00c3 9542     		.uleb128 0x2115
 3127 00c5 19       		.uleb128 0x19
 3128 00c6 31       		.uleb128 0x31
 3129 00c7 13       		.uleb128 0x13
 3130 00c8 00       		.byte	0
 3131 00c9 00       		.byte	0
 3132 00ca 10       		.uleb128 0x10
 3133 00cb 05       		.uleb128 0x5
 3134 00cc 00       		.byte	0
 3135 00cd 03       		.uleb128 0x3
ARM GAS  /var/folders/m4/4md61f0s1_g0rzfghffqnxvr0000gn/T//ccIWSo2P.s 			page 56


 3136 00ce 0E       		.uleb128 0xe
 3137 00cf 3A       		.uleb128 0x3a
 3138 00d0 0B       		.uleb128 0xb
 3139 00d1 3B       		.uleb128 0x3b
 3140 00d2 0B       		.uleb128 0xb
 3141 00d3 49       		.uleb128 0x49
 3142 00d4 13       		.uleb128 0x13
 3143 00d5 02       		.uleb128 0x2
 3144 00d6 18       		.uleb128 0x18
 3145 00d7 00       		.byte	0
 3146 00d8 00       		.byte	0
 3147 00d9 11       		.uleb128 0x11
 3148 00da 34       		.uleb128 0x34
 3149 00db 00       		.byte	0
 3150 00dc 03       		.uleb128 0x3
 3151 00dd 0E       		.uleb128 0xe
 3152 00de 3A       		.uleb128 0x3a
 3153 00df 0B       		.uleb128 0xb
 3154 00e0 3B       		.uleb128 0x3b
 3155 00e1 0B       		.uleb128 0xb
 3156 00e2 49       		.uleb128 0x49
 3157 00e3 13       		.uleb128 0x13
 3158 00e4 02       		.uleb128 0x2
 3159 00e5 17       		.uleb128 0x17
 3160 00e6 00       		.byte	0
 3161 00e7 00       		.byte	0
 3162 00e8 12       		.uleb128 0x12
 3163 00e9 0F       		.uleb128 0xf
 3164 00ea 00       		.byte	0
 3165 00eb 0B       		.uleb128 0xb
 3166 00ec 0B       		.uleb128 0xb
 3167 00ed 49       		.uleb128 0x49
 3168 00ee 13       		.uleb128 0x13
 3169 00ef 00       		.byte	0
 3170 00f0 00       		.byte	0
 3171 00f1 13       		.uleb128 0x13
 3172 00f2 2E       		.uleb128 0x2e
 3173 00f3 01       		.byte	0x1
 3174 00f4 3F       		.uleb128 0x3f
 3175 00f5 19       		.uleb128 0x19
 3176 00f6 03       		.uleb128 0x3
 3177 00f7 0E       		.uleb128 0xe
 3178 00f8 3A       		.uleb128 0x3a
 3179 00f9 0B       		.uleb128 0xb
 3180 00fa 3B       		.uleb128 0x3b
 3181 00fb 05       		.uleb128 0x5
 3182 00fc 27       		.uleb128 0x27
 3183 00fd 19       		.uleb128 0x19
 3184 00fe 11       		.uleb128 0x11
 3185 00ff 01       		.uleb128 0x1
 3186 0100 12       		.uleb128 0x12
 3187 0101 06       		.uleb128 0x6
 3188 0102 40       		.uleb128 0x40
 3189 0103 18       		.uleb128 0x18
 3190 0104 9742     		.uleb128 0x2117
 3191 0106 19       		.uleb128 0x19
 3192 0107 01       		.uleb128 0x1
ARM GAS  /var/folders/m4/4md61f0s1_g0rzfghffqnxvr0000gn/T//ccIWSo2P.s 			page 57


 3193 0108 13       		.uleb128 0x13
 3194 0109 00       		.byte	0
 3195 010a 00       		.byte	0
 3196 010b 14       		.uleb128 0x14
 3197 010c 05       		.uleb128 0x5
 3198 010d 00       		.byte	0
 3199 010e 03       		.uleb128 0x3
 3200 010f 0E       		.uleb128 0xe
 3201 0110 3A       		.uleb128 0x3a
 3202 0111 0B       		.uleb128 0xb
 3203 0112 3B       		.uleb128 0x3b
 3204 0113 05       		.uleb128 0x5
 3205 0114 49       		.uleb128 0x49
 3206 0115 13       		.uleb128 0x13
 3207 0116 02       		.uleb128 0x2
 3208 0117 18       		.uleb128 0x18
 3209 0118 00       		.byte	0
 3210 0119 00       		.byte	0
 3211 011a 15       		.uleb128 0x15
 3212 011b 05       		.uleb128 0x5
 3213 011c 00       		.byte	0
 3214 011d 03       		.uleb128 0x3
 3215 011e 0E       		.uleb128 0xe
 3216 011f 3A       		.uleb128 0x3a
 3217 0120 0B       		.uleb128 0xb
 3218 0121 3B       		.uleb128 0x3b
 3219 0122 05       		.uleb128 0x5
 3220 0123 49       		.uleb128 0x49
 3221 0124 13       		.uleb128 0x13
 3222 0125 02       		.uleb128 0x2
 3223 0126 17       		.uleb128 0x17
 3224 0127 00       		.byte	0
 3225 0128 00       		.byte	0
 3226 0129 16       		.uleb128 0x16
 3227 012a 34       		.uleb128 0x34
 3228 012b 00       		.byte	0
 3229 012c 03       		.uleb128 0x3
 3230 012d 0E       		.uleb128 0xe
 3231 012e 3A       		.uleb128 0x3a
 3232 012f 0B       		.uleb128 0xb
 3233 0130 3B       		.uleb128 0x3b
 3234 0131 05       		.uleb128 0x5
 3235 0132 49       		.uleb128 0x49
 3236 0133 13       		.uleb128 0x13
 3237 0134 02       		.uleb128 0x2
 3238 0135 17       		.uleb128 0x17
 3239 0136 00       		.byte	0
 3240 0137 00       		.byte	0
 3241 0138 17       		.uleb128 0x17
 3242 0139 2E       		.uleb128 0x2e
 3243 013a 01       		.byte	0x1
 3244 013b 3F       		.uleb128 0x3f
 3245 013c 19       		.uleb128 0x19
 3246 013d 03       		.uleb128 0x3
 3247 013e 0E       		.uleb128 0xe
 3248 013f 3A       		.uleb128 0x3a
 3249 0140 0B       		.uleb128 0xb
ARM GAS  /var/folders/m4/4md61f0s1_g0rzfghffqnxvr0000gn/T//ccIWSo2P.s 			page 58


 3250 0141 3B       		.uleb128 0x3b
 3251 0142 05       		.uleb128 0x5
 3252 0143 27       		.uleb128 0x27
 3253 0144 19       		.uleb128 0x19
 3254 0145 49       		.uleb128 0x49
 3255 0146 13       		.uleb128 0x13
 3256 0147 11       		.uleb128 0x11
 3257 0148 01       		.uleb128 0x1
 3258 0149 12       		.uleb128 0x12
 3259 014a 06       		.uleb128 0x6
 3260 014b 40       		.uleb128 0x40
 3261 014c 18       		.uleb128 0x18
 3262 014d 9742     		.uleb128 0x2117
 3263 014f 19       		.uleb128 0x19
 3264 0150 01       		.uleb128 0x1
 3265 0151 13       		.uleb128 0x13
 3266 0152 00       		.byte	0
 3267 0153 00       		.byte	0
 3268 0154 18       		.uleb128 0x18
 3269 0155 2E       		.uleb128 0x2e
 3270 0156 00       		.byte	0
 3271 0157 3F       		.uleb128 0x3f
 3272 0158 19       		.uleb128 0x19
 3273 0159 03       		.uleb128 0x3
 3274 015a 0E       		.uleb128 0xe
 3275 015b 3A       		.uleb128 0x3a
 3276 015c 0B       		.uleb128 0xb
 3277 015d 3B       		.uleb128 0x3b
 3278 015e 05       		.uleb128 0x5
 3279 015f 27       		.uleb128 0x27
 3280 0160 19       		.uleb128 0x19
 3281 0161 49       		.uleb128 0x49
 3282 0162 13       		.uleb128 0x13
 3283 0163 11       		.uleb128 0x11
 3284 0164 01       		.uleb128 0x1
 3285 0165 12       		.uleb128 0x12
 3286 0166 06       		.uleb128 0x6
 3287 0167 40       		.uleb128 0x40
 3288 0168 18       		.uleb128 0x18
 3289 0169 9742     		.uleb128 0x2117
 3290 016b 19       		.uleb128 0x19
 3291 016c 00       		.byte	0
 3292 016d 00       		.byte	0
 3293 016e 19       		.uleb128 0x19
 3294 016f 34       		.uleb128 0x34
 3295 0170 00       		.byte	0
 3296 0171 03       		.uleb128 0x3
 3297 0172 08       		.uleb128 0x8
 3298 0173 3A       		.uleb128 0x3a
 3299 0174 0B       		.uleb128 0xb
 3300 0175 3B       		.uleb128 0x3b
 3301 0176 05       		.uleb128 0x5
 3302 0177 49       		.uleb128 0x49
 3303 0178 13       		.uleb128 0x13
 3304 0179 02       		.uleb128 0x2
 3305 017a 18       		.uleb128 0x18
 3306 017b 00       		.byte	0
ARM GAS  /var/folders/m4/4md61f0s1_g0rzfghffqnxvr0000gn/T//ccIWSo2P.s 			page 59


 3307 017c 00       		.byte	0
 3308 017d 1A       		.uleb128 0x1a
 3309 017e 34       		.uleb128 0x34
 3310 017f 00       		.byte	0
 3311 0180 03       		.uleb128 0x3
 3312 0181 0E       		.uleb128 0xe
 3313 0182 3A       		.uleb128 0x3a
 3314 0183 0B       		.uleb128 0xb
 3315 0184 3B       		.uleb128 0x3b
 3316 0185 05       		.uleb128 0x5
 3317 0186 49       		.uleb128 0x49
 3318 0187 13       		.uleb128 0x13
 3319 0188 3F       		.uleb128 0x3f
 3320 0189 19       		.uleb128 0x19
 3321 018a 3C       		.uleb128 0x3c
 3322 018b 19       		.uleb128 0x19
 3323 018c 00       		.byte	0
 3324 018d 00       		.byte	0
 3325 018e 1B       		.uleb128 0x1b
 3326 018f 2E       		.uleb128 0x2e
 3327 0190 00       		.byte	0
 3328 0191 3F       		.uleb128 0x3f
 3329 0192 19       		.uleb128 0x19
 3330 0193 3C       		.uleb128 0x3c
 3331 0194 19       		.uleb128 0x19
 3332 0195 6E       		.uleb128 0x6e
 3333 0196 0E       		.uleb128 0xe
 3334 0197 03       		.uleb128 0x3
 3335 0198 0E       		.uleb128 0xe
 3336 0199 3A       		.uleb128 0x3a
 3337 019a 0B       		.uleb128 0xb
 3338 019b 3B       		.uleb128 0x3b
 3339 019c 05       		.uleb128 0x5
 3340 019d 00       		.byte	0
 3341 019e 00       		.byte	0
 3342 019f 00       		.byte	0
 3343              		.section	.debug_loc,"",%progbits
 3344              	.Ldebug_loc0:
 3345              	.LLST0:
 3346 0000 00000000 		.4byte	.LVL2
 3347 0004 04000000 		.4byte	.LVL3
 3348 0008 0200     		.2byte	0x2
 3349 000a 30       		.byte	0x30
 3350 000b 9F       		.byte	0x9f
 3351 000c 04000000 		.4byte	.LVL3
 3352 0010 14000000 		.4byte	.LVL4
 3353 0014 0900     		.2byte	0x9
 3354 0016 74       		.byte	0x74
 3355 0017 00       		.sleb128 0
 3356 0018 11       		.byte	0x11
 3357 0019 FFFDFF67 		.sleb128 -50331905
 3358 001d 1A       		.byte	0x1a
 3359 001e 9F       		.byte	0x9f
 3360 001f 1E000000 		.4byte	.LVL5
 3361 0023 22000000 		.4byte	.LVL6
 3362 0027 0100     		.2byte	0x1
 3363 0029 52       		.byte	0x52
ARM GAS  /var/folders/m4/4md61f0s1_g0rzfghffqnxvr0000gn/T//ccIWSo2P.s 			page 60


 3364 002a 22000000 		.4byte	.LVL6
 3365 002e 2E000000 		.4byte	.LVL7
 3366 0032 0A00     		.2byte	0xa
 3367 0034 77       		.byte	0x77
 3368 0035 00       		.sleb128 0
 3369 0036 11       		.byte	0x11
 3370 0037 FDEFFF87 		.sleb128 -1056966659
 3370      7C
 3371 003c 1A       		.byte	0x1a
 3372 003d 9F       		.byte	0x9f
 3373 003e 2E000000 		.4byte	.LVL7
 3374 0042 30000000 		.4byte	.LVL8
 3375 0046 0100     		.2byte	0x1
 3376 0048 53       		.byte	0x53
 3377 0049 30000000 		.4byte	.LVL8
 3378 004d 34000000 		.4byte	.LVL9
 3379 0051 0A00     		.2byte	0xa
 3380 0053 77       		.byte	0x77
 3381 0054 00       		.sleb128 0
 3382 0055 11       		.byte	0x11
 3383 0056 FDEFFF87 		.sleb128 -1056966659
 3383      7C
 3384 005b 1A       		.byte	0x1a
 3385 005c 9F       		.byte	0x9f
 3386 005d 34000000 		.4byte	.LVL9
 3387 0061 50000000 		.4byte	.LFE124
 3388 0065 0100     		.2byte	0x1
 3389 0067 53       		.byte	0x53
 3390 0068 00000000 		.4byte	0
 3391 006c 00000000 		.4byte	0
 3392              	.LLST1:
 3393 0070 00000000 		.4byte	.LVL2
 3394 0074 42000000 		.4byte	.LVL11
 3395 0078 0200     		.2byte	0x2
 3396 007a 30       		.byte	0x30
 3397 007b 9F       		.byte	0x9f
 3398 007c 42000000 		.4byte	.LVL11
 3399 0080 48000000 		.4byte	.LVL13
 3400 0084 0700     		.2byte	0x7
 3401 0086 71       		.byte	0x71
 3402 0087 14       		.sleb128 20
 3403 0088 94       		.byte	0x94
 3404 0089 01       		.byte	0x1
 3405 008a 31       		.byte	0x31
 3406 008b 1C       		.byte	0x1c
 3407 008c 9F       		.byte	0x9f
 3408 008d 00000000 		.4byte	0
 3409 0091 00000000 		.4byte	0
 3410              	.LLST2:
 3411 0095 00000000 		.4byte	.LVL15
 3412 0099 10000000 		.4byte	.LVL16
 3413 009d 0100     		.2byte	0x1
 3414 009f 50       		.byte	0x50
 3415 00a0 10000000 		.4byte	.LVL16
 3416 00a4 28000000 		.4byte	.LFE126
 3417 00a8 0400     		.2byte	0x4
 3418 00aa F3       		.byte	0xf3
ARM GAS  /var/folders/m4/4md61f0s1_g0rzfghffqnxvr0000gn/T//ccIWSo2P.s 			page 61


 3419 00ab 01       		.uleb128 0x1
 3420 00ac 50       		.byte	0x50
 3421 00ad 9F       		.byte	0x9f
 3422 00ae 00000000 		.4byte	0
 3423 00b2 00000000 		.4byte	0
 3424              	.LLST3:
 3425 00b6 00000000 		.4byte	.LVL15
 3426 00ba 10000000 		.4byte	.LVL16
 3427 00be 0200     		.2byte	0x2
 3428 00c0 30       		.byte	0x30
 3429 00c1 9F       		.byte	0x9f
 3430 00c2 10000000 		.4byte	.LVL16
 3431 00c6 18000000 		.4byte	.LVL17
 3432 00ca 0100     		.2byte	0x1
 3433 00cc 50       		.byte	0x50
 3434 00cd 18000000 		.4byte	.LVL17
 3435 00d1 28000000 		.4byte	.LFE126
 3436 00d5 0100     		.2byte	0x1
 3437 00d7 53       		.byte	0x53
 3438 00d8 00000000 		.4byte	0
 3439 00dc 00000000 		.4byte	0
 3440              	.LLST4:
 3441 00e0 00000000 		.4byte	.LVL21
 3442 00e4 0C000000 		.4byte	.LVL25
 3443 00e8 0100     		.2byte	0x1
 3444 00ea 51       		.byte	0x51
 3445 00eb 0C000000 		.4byte	.LVL25
 3446 00ef 10000000 		.4byte	.LFE129
 3447 00f3 0400     		.2byte	0x4
 3448 00f5 F3       		.byte	0xf3
 3449 00f6 01       		.uleb128 0x1
 3450 00f7 51       		.byte	0x51
 3451 00f8 9F       		.byte	0x9f
 3452 00f9 00000000 		.4byte	0
 3453 00fd 00000000 		.4byte	0
 3454              	.LLST5:
 3455 0101 00000000 		.4byte	.LVL21
 3456 0105 02000000 		.4byte	.LVL22
 3457 0109 0200     		.2byte	0x2
 3458 010b 30       		.byte	0x30
 3459 010c 9F       		.byte	0x9f
 3460 010d 02000000 		.4byte	.LVL22
 3461 0111 06000000 		.4byte	.LVL23
 3462 0115 0100     		.2byte	0x1
 3463 0117 53       		.byte	0x53
 3464 0118 0A000000 		.4byte	.LVL24
 3465 011c 0C000000 		.4byte	.LVL25
 3466 0120 0100     		.2byte	0x1
 3467 0122 53       		.byte	0x53
 3468 0123 0C000000 		.4byte	.LVL25
 3469 0127 10000000 		.4byte	.LFE129
 3470 012b 0100     		.2byte	0x1
 3471 012d 51       		.byte	0x51
 3472 012e 00000000 		.4byte	0
 3473 0132 00000000 		.4byte	0
 3474              	.LLST6:
 3475 0136 00000000 		.4byte	.LVL27
ARM GAS  /var/folders/m4/4md61f0s1_g0rzfghffqnxvr0000gn/T//ccIWSo2P.s 			page 62


 3476 013a 08000000 		.4byte	.LVL30
 3477 013e 0100     		.2byte	0x1
 3478 0140 51       		.byte	0x51
 3479 0141 08000000 		.4byte	.LVL30
 3480 0145 0C000000 		.4byte	.LFE131
 3481 0149 0400     		.2byte	0x4
 3482 014b F3       		.byte	0xf3
 3483 014c 01       		.uleb128 0x1
 3484 014d 51       		.byte	0x51
 3485 014e 9F       		.byte	0x9f
 3486 014f 00000000 		.4byte	0
 3487 0153 00000000 		.4byte	0
 3488              	.LLST7:
 3489 0157 00000000 		.4byte	.LVL27
 3490 015b 02000000 		.4byte	.LVL28
 3491 015f 0200     		.2byte	0x2
 3492 0161 30       		.byte	0x30
 3493 0162 9F       		.byte	0x9f
 3494 0163 02000000 		.4byte	.LVL28
 3495 0167 08000000 		.4byte	.LVL30
 3496 016b 0100     		.2byte	0x1
 3497 016d 53       		.byte	0x53
 3498 016e 08000000 		.4byte	.LVL30
 3499 0172 0C000000 		.4byte	.LFE131
 3500 0176 0100     		.2byte	0x1
 3501 0178 51       		.byte	0x51
 3502 0179 00000000 		.4byte	0
 3503 017d 00000000 		.4byte	0
 3504              	.LLST8:
 3505 0181 00000000 		.4byte	.LVL33
 3506 0185 3A000000 		.4byte	.LVL42
 3507 0189 0100     		.2byte	0x1
 3508 018b 51       		.byte	0x51
 3509 018c 3A000000 		.4byte	.LVL42
 3510 0190 42000000 		.4byte	.LVL44
 3511 0194 0400     		.2byte	0x4
 3512 0196 F3       		.byte	0xf3
 3513 0197 01       		.uleb128 0x1
 3514 0198 51       		.byte	0x51
 3515 0199 9F       		.byte	0x9f
 3516 019a 42000000 		.4byte	.LVL44
 3517 019e 6E000000 		.4byte	.LVL53
 3518 01a2 0100     		.2byte	0x1
 3519 01a4 51       		.byte	0x51
 3520 01a5 6E000000 		.4byte	.LVL53
 3521 01a9 76000000 		.4byte	.LVL55
 3522 01ad 0400     		.2byte	0x4
 3523 01af F3       		.byte	0xf3
 3524 01b0 01       		.uleb128 0x1
 3525 01b1 51       		.byte	0x51
 3526 01b2 9F       		.byte	0x9f
 3527 01b3 76000000 		.4byte	.LVL55
 3528 01b7 8A000000 		.4byte	.LVL59
 3529 01bb 0100     		.2byte	0x1
 3530 01bd 51       		.byte	0x51
 3531 01be 8A000000 		.4byte	.LVL59
 3532 01c2 92000000 		.4byte	.LFE134
ARM GAS  /var/folders/m4/4md61f0s1_g0rzfghffqnxvr0000gn/T//ccIWSo2P.s 			page 63


 3533 01c6 0400     		.2byte	0x4
 3534 01c8 F3       		.byte	0xf3
 3535 01c9 01       		.uleb128 0x1
 3536 01ca 51       		.byte	0x51
 3537 01cb 9F       		.byte	0x9f
 3538 01cc 00000000 		.4byte	0
 3539 01d0 00000000 		.4byte	0
 3540              	.LLST9:
 3541 01d4 00000000 		.4byte	.LVL33
 3542 01d8 28000000 		.4byte	.LVL39
 3543 01dc 0100     		.2byte	0x1
 3544 01de 52       		.byte	0x52
 3545 01df 28000000 		.4byte	.LVL39
 3546 01e3 42000000 		.4byte	.LVL44
 3547 01e7 0400     		.2byte	0x4
 3548 01e9 F3       		.byte	0xf3
 3549 01ea 01       		.uleb128 0x1
 3550 01eb 52       		.byte	0x52
 3551 01ec 9F       		.byte	0x9f
 3552 01ed 42000000 		.4byte	.LVL44
 3553 01f1 5C000000 		.4byte	.LVL50
 3554 01f5 0100     		.2byte	0x1
 3555 01f7 52       		.byte	0x52
 3556 01f8 5C000000 		.4byte	.LVL50
 3557 01fc 76000000 		.4byte	.LVL55
 3558 0200 0400     		.2byte	0x4
 3559 0202 F3       		.byte	0xf3
 3560 0203 01       		.uleb128 0x1
 3561 0204 52       		.byte	0x52
 3562 0205 9F       		.byte	0x9f
 3563 0206 76000000 		.4byte	.LVL55
 3564 020a 78000000 		.4byte	.LVL56
 3565 020e 0100     		.2byte	0x1
 3566 0210 52       		.byte	0x52
 3567 0211 78000000 		.4byte	.LVL56
 3568 0215 92000000 		.4byte	.LFE134
 3569 0219 0400     		.2byte	0x4
 3570 021b F3       		.byte	0xf3
 3571 021c 01       		.uleb128 0x1
 3572 021d 52       		.byte	0x52
 3573 021e 9F       		.byte	0x9f
 3574 021f 00000000 		.4byte	0
 3575 0223 00000000 		.4byte	0
 3576              	.LLST10:
 3577 0227 00000000 		.4byte	.LVL33
 3578 022b 16000000 		.4byte	.LVL36
 3579 022f 0100     		.2byte	0x1
 3580 0231 53       		.byte	0x53
 3581 0232 16000000 		.4byte	.LVL36
 3582 0236 42000000 		.4byte	.LVL44
 3583 023a 0400     		.2byte	0x4
 3584 023c F3       		.byte	0xf3
 3585 023d 01       		.uleb128 0x1
 3586 023e 53       		.byte	0x53
 3587 023f 9F       		.byte	0x9f
 3588 0240 42000000 		.4byte	.LVL44
 3589 0244 4E000000 		.4byte	.LVL47
ARM GAS  /var/folders/m4/4md61f0s1_g0rzfghffqnxvr0000gn/T//ccIWSo2P.s 			page 64


 3590 0248 0100     		.2byte	0x1
 3591 024a 53       		.byte	0x53
 3592 024b 4E000000 		.4byte	.LVL47
 3593 024f 92000000 		.4byte	.LFE134
 3594 0253 0400     		.2byte	0x4
 3595 0255 F3       		.byte	0xf3
 3596 0256 01       		.uleb128 0x1
 3597 0257 53       		.byte	0x53
 3598 0258 9F       		.byte	0x9f
 3599 0259 00000000 		.4byte	0
 3600 025d 00000000 		.4byte	0
 3601              	.LLST11:
 3602 0261 00000000 		.4byte	.LVL33
 3603 0265 10000000 		.4byte	.LVL34
 3604 0269 0200     		.2byte	0x2
 3605 026b 30       		.byte	0x30
 3606 026c 9F       		.byte	0x9f
 3607 026d 10000000 		.4byte	.LVL34
 3608 0271 1A000000 		.4byte	.LVL37
 3609 0275 0100     		.2byte	0x1
 3610 0277 55       		.byte	0x55
 3611 0278 1A000000 		.4byte	.LVL37
 3612 027c 1C000000 		.4byte	.LVL38
 3613 0280 0100     		.2byte	0x1
 3614 0282 54       		.byte	0x54
 3615 0283 1C000000 		.4byte	.LVL38
 3616 0287 3A000000 		.4byte	.LVL42
 3617 028b 0100     		.2byte	0x1
 3618 028d 53       		.byte	0x53
 3619 028e 3A000000 		.4byte	.LVL42
 3620 0292 3C000000 		.4byte	.LVL43
 3621 0296 0100     		.2byte	0x1
 3622 0298 51       		.byte	0x51
 3623 0299 3C000000 		.4byte	.LVL43
 3624 029d 42000000 		.4byte	.LVL44
 3625 02a1 0100     		.2byte	0x1
 3626 02a3 52       		.byte	0x52
 3627 02a4 42000000 		.4byte	.LVL44
 3628 02a8 48000000 		.4byte	.LVL45
 3629 02ac 0200     		.2byte	0x2
 3630 02ae 30       		.byte	0x30
 3631 02af 9F       		.byte	0x9f
 3632 02b0 48000000 		.4byte	.LVL45
 3633 02b4 52000000 		.4byte	.LVL48
 3634 02b8 0100     		.2byte	0x1
 3635 02ba 55       		.byte	0x55
 3636 02bb 52000000 		.4byte	.LVL48
 3637 02bf 54000000 		.4byte	.LVL49
 3638 02c3 0100     		.2byte	0x1
 3639 02c5 54       		.byte	0x54
 3640 02c6 54000000 		.4byte	.LVL49
 3641 02ca 6E000000 		.4byte	.LVL53
 3642 02ce 0100     		.2byte	0x1
 3643 02d0 53       		.byte	0x53
 3644 02d1 6E000000 		.4byte	.LVL53
 3645 02d5 70000000 		.4byte	.LVL54
 3646 02d9 0100     		.2byte	0x1
ARM GAS  /var/folders/m4/4md61f0s1_g0rzfghffqnxvr0000gn/T//ccIWSo2P.s 			page 65


 3647 02db 51       		.byte	0x51
 3648 02dc 70000000 		.4byte	.LVL54
 3649 02e0 76000000 		.4byte	.LVL55
 3650 02e4 0100     		.2byte	0x1
 3651 02e6 52       		.byte	0x52
 3652 02e7 76000000 		.4byte	.LVL55
 3653 02eb 8A000000 		.4byte	.LVL59
 3654 02ef 0100     		.2byte	0x1
 3655 02f1 53       		.byte	0x53
 3656 02f2 8A000000 		.4byte	.LVL59
 3657 02f6 8C000000 		.4byte	.LVL60
 3658 02fa 0100     		.2byte	0x1
 3659 02fc 51       		.byte	0x51
 3660 02fd 8C000000 		.4byte	.LVL60
 3661 0301 92000000 		.4byte	.LFE134
 3662 0305 0100     		.2byte	0x1
 3663 0307 52       		.byte	0x52
 3664 0308 00000000 		.4byte	0
 3665 030c 00000000 		.4byte	0
 3666              	.LLST12:
 3667 0310 00000000 		.4byte	.LVL33
 3668 0314 10000000 		.4byte	.LVL34
 3669 0318 0200     		.2byte	0x2
 3670 031a 30       		.byte	0x30
 3671 031b 9F       		.byte	0x9f
 3672 031c 10000000 		.4byte	.LVL34
 3673 0320 14000000 		.4byte	.LVL35
 3674 0324 0500     		.2byte	0x5
 3675 0326 37       		.byte	0x37
 3676 0327 76       		.byte	0x76
 3677 0328 00       		.sleb128 0
 3678 0329 24       		.byte	0x24
 3679 032a 9F       		.byte	0x9f
 3680 032b 14000000 		.4byte	.LVL35
 3681 032f 1A000000 		.4byte	.LVL37
 3682 0333 0100     		.2byte	0x1
 3683 0335 54       		.byte	0x54
 3684 0336 2E000000 		.4byte	.LVL40
 3685 033a 32000000 		.4byte	.LVL41
 3686 033e 0500     		.2byte	0x5
 3687 0340 4F       		.byte	0x4f
 3688 0341 72       		.byte	0x72
 3689 0342 00       		.sleb128 0
 3690 0343 24       		.byte	0x24
 3691 0344 9F       		.byte	0x9f
 3692 0345 32000000 		.4byte	.LVL41
 3693 0349 3A000000 		.4byte	.LVL42
 3694 034d 0100     		.2byte	0x1
 3695 034f 54       		.byte	0x54
 3696 0350 42000000 		.4byte	.LVL44
 3697 0354 48000000 		.4byte	.LVL45
 3698 0358 0200     		.2byte	0x2
 3699 035a 30       		.byte	0x30
 3700 035b 9F       		.byte	0x9f
 3701 035c 48000000 		.4byte	.LVL45
 3702 0360 4C000000 		.4byte	.LVL46
 3703 0364 0500     		.2byte	0x5
ARM GAS  /var/folders/m4/4md61f0s1_g0rzfghffqnxvr0000gn/T//ccIWSo2P.s 			page 66


 3704 0366 37       		.byte	0x37
 3705 0367 76       		.byte	0x76
 3706 0368 00       		.sleb128 0
 3707 0369 24       		.byte	0x24
 3708 036a 9F       		.byte	0x9f
 3709 036b 4C000000 		.4byte	.LVL46
 3710 036f 52000000 		.4byte	.LVL48
 3711 0373 0100     		.2byte	0x1
 3712 0375 54       		.byte	0x54
 3713 0376 62000000 		.4byte	.LVL51
 3714 037a 66000000 		.4byte	.LVL52
 3715 037e 0500     		.2byte	0x5
 3716 0380 4F       		.byte	0x4f
 3717 0381 72       		.byte	0x72
 3718 0382 00       		.sleb128 0
 3719 0383 24       		.byte	0x24
 3720 0384 9F       		.byte	0x9f
 3721 0385 66000000 		.4byte	.LVL52
 3722 0389 6E000000 		.4byte	.LVL53
 3723 038d 0100     		.2byte	0x1
 3724 038f 54       		.byte	0x54
 3725 0390 7E000000 		.4byte	.LVL57
 3726 0394 82000000 		.4byte	.LVL58
 3727 0398 0500     		.2byte	0x5
 3728 039a 4F       		.byte	0x4f
 3729 039b 72       		.byte	0x72
 3730 039c 00       		.sleb128 0
 3731 039d 24       		.byte	0x24
 3732 039e 9F       		.byte	0x9f
 3733 039f 82000000 		.4byte	.LVL58
 3734 03a3 8A000000 		.4byte	.LVL59
 3735 03a7 0100     		.2byte	0x1
 3736 03a9 54       		.byte	0x54
 3737 03aa 00000000 		.4byte	0
 3738 03ae 00000000 		.4byte	0
 3739              	.LLST13:
 3740 03b2 00000000 		.4byte	.LVL62
 3741 03b6 02000000 		.4byte	.LVL63
 3742 03ba 0100     		.2byte	0x1
 3743 03bc 50       		.byte	0x50
 3744 03bd 02000000 		.4byte	.LVL63
 3745 03c1 08000000 		.4byte	.LFE136
 3746 03c5 0400     		.2byte	0x4
 3747 03c7 F3       		.byte	0xf3
 3748 03c8 01       		.uleb128 0x1
 3749 03c9 50       		.byte	0x50
 3750 03ca 9F       		.byte	0x9f
 3751 03cb 00000000 		.4byte	0
 3752 03cf 00000000 		.4byte	0
 3753              	.LLST14:
 3754 03d3 00000000 		.4byte	.LVL62
 3755 03d7 02000000 		.4byte	.LVL63
 3756 03db 0200     		.2byte	0x2
 3757 03dd 30       		.byte	0x30
 3758 03de 9F       		.byte	0x9f
 3759 03df 02000000 		.4byte	.LVL63
 3760 03e3 06000000 		.4byte	.LVL64
ARM GAS  /var/folders/m4/4md61f0s1_g0rzfghffqnxvr0000gn/T//ccIWSo2P.s 			page 67


 3761 03e7 0900     		.2byte	0x9
 3762 03e9 70       		.byte	0x70
 3763 03ea 00       		.sleb128 0
 3764 03eb 40       		.byte	0x40
 3765 03ec 4A       		.byte	0x4a
 3766 03ed 24       		.byte	0x24
 3767 03ee 1A       		.byte	0x1a
 3768 03ef 30       		.byte	0x30
 3769 03f0 2E       		.byte	0x2e
 3770 03f1 9F       		.byte	0x9f
 3771 03f2 00000000 		.4byte	0
 3772 03f6 00000000 		.4byte	0
 3773              	.LLST15:
 3774 03fa 00000000 		.4byte	.LVL67
 3775 03fe 04000000 		.4byte	.LVL69
 3776 0402 0100     		.2byte	0x1
 3777 0404 51       		.byte	0x51
 3778 0405 04000000 		.4byte	.LVL69
 3779 0409 10000000 		.4byte	.LFE139
 3780 040d 0400     		.2byte	0x4
 3781 040f F3       		.byte	0xf3
 3782 0410 01       		.uleb128 0x1
 3783 0411 51       		.byte	0x51
 3784 0412 9F       		.byte	0x9f
 3785 0413 00000000 		.4byte	0
 3786 0417 00000000 		.4byte	0
 3787              	.LLST16:
 3788 041b 00000000 		.4byte	.LVL67
 3789 041f 02000000 		.4byte	.LVL68
 3790 0423 0200     		.2byte	0x2
 3791 0425 30       		.byte	0x30
 3792 0426 9F       		.byte	0x9f
 3793 0427 02000000 		.4byte	.LVL68
 3794 042b 0C000000 		.4byte	.LVL71
 3795 042f 0100     		.2byte	0x1
 3796 0431 53       		.byte	0x53
 3797 0432 0C000000 		.4byte	.LVL71
 3798 0436 10000000 		.4byte	.LFE139
 3799 043a 0100     		.2byte	0x1
 3800 043c 51       		.byte	0x51
 3801 043d 00000000 		.4byte	0
 3802 0441 00000000 		.4byte	0
 3803              	.LLST17:
 3804 0445 00000000 		.4byte	.LVL67
 3805 0449 08000000 		.4byte	.LVL70
 3806 044d 0200     		.2byte	0x2
 3807 044f 30       		.byte	0x30
 3808 0450 9F       		.byte	0x9f
 3809 0451 08000000 		.4byte	.LVL70
 3810 0455 10000000 		.4byte	.LFE139
 3811 0459 0900     		.2byte	0x9
 3812 045b F3       		.byte	0xf3
 3813 045c 01       		.uleb128 0x1
 3814 045d 51       		.byte	0x51
 3815 045e 08       		.byte	0x8
 3816 045f FF       		.byte	0xff
 3817 0460 1A       		.byte	0x1a
ARM GAS  /var/folders/m4/4md61f0s1_g0rzfghffqnxvr0000gn/T//ccIWSo2P.s 			page 68


 3818 0461 31       		.byte	0x31
 3819 0462 1C       		.byte	0x1c
 3820 0463 9F       		.byte	0x9f
 3821 0464 00000000 		.4byte	0
 3822 0468 00000000 		.4byte	0
 3823              	.LLST18:
 3824 046c 00000000 		.4byte	.LVL73
 3825 0470 02000000 		.4byte	.LVL74
 3826 0474 0100     		.2byte	0x1
 3827 0476 50       		.byte	0x50
 3828 0477 02000000 		.4byte	.LVL74
 3829 047b 06000000 		.4byte	.LFE141
 3830 047f 0400     		.2byte	0x4
 3831 0481 F3       		.byte	0xf3
 3832 0482 01       		.uleb128 0x1
 3833 0483 50       		.byte	0x50
 3834 0484 9F       		.byte	0x9f
 3835 0485 00000000 		.4byte	0
 3836 0489 00000000 		.4byte	0
 3837              	.LLST19:
 3838 048d 00000000 		.4byte	.LVL78
 3839 0491 1E000000 		.4byte	.LVL85
 3840 0495 0100     		.2byte	0x1
 3841 0497 52       		.byte	0x52
 3842 0498 1E000000 		.4byte	.LVL85
 3843 049c 3E000000 		.4byte	.LVL91
 3844 04a0 0400     		.2byte	0x4
 3845 04a2 F3       		.byte	0xf3
 3846 04a3 01       		.uleb128 0x1
 3847 04a4 52       		.byte	0x52
 3848 04a5 9F       		.byte	0x9f
 3849 04a6 3E000000 		.4byte	.LVL91
 3850 04aa 58000000 		.4byte	.LFE146
 3851 04ae 0100     		.2byte	0x1
 3852 04b0 52       		.byte	0x52
 3853 04b1 00000000 		.4byte	0
 3854 04b5 00000000 		.4byte	0
 3855              	.LLST20:
 3856 04b9 00000000 		.4byte	.LVL78
 3857 04bd 12000000 		.4byte	.LVL81
 3858 04c1 0100     		.2byte	0x1
 3859 04c3 53       		.byte	0x53
 3860 04c4 12000000 		.4byte	.LVL81
 3861 04c8 3E000000 		.4byte	.LVL91
 3862 04cc 0400     		.2byte	0x4
 3863 04ce F3       		.byte	0xf3
 3864 04cf 01       		.uleb128 0x1
 3865 04d0 53       		.byte	0x53
 3866 04d1 9F       		.byte	0x9f
 3867 04d2 3E000000 		.4byte	.LVL91
 3868 04d6 4E000000 		.4byte	.LVL94
 3869 04da 0100     		.2byte	0x1
 3870 04dc 53       		.byte	0x53
 3871 04dd 4E000000 		.4byte	.LVL94
 3872 04e1 58000000 		.4byte	.LFE146
 3873 04e5 0400     		.2byte	0x4
 3874 04e7 F3       		.byte	0xf3
ARM GAS  /var/folders/m4/4md61f0s1_g0rzfghffqnxvr0000gn/T//ccIWSo2P.s 			page 69


 3875 04e8 01       		.uleb128 0x1
 3876 04e9 53       		.byte	0x53
 3877 04ea 9F       		.byte	0x9f
 3878 04eb 00000000 		.4byte	0
 3879 04ef 00000000 		.4byte	0
 3880              	.LLST21:
 3881 04f3 00000000 		.4byte	.LVL78
 3882 04f7 0C000000 		.4byte	.LVL79
 3883 04fb 0200     		.2byte	0x2
 3884 04fd 30       		.byte	0x30
 3885 04fe 9F       		.byte	0x9f
 3886 04ff 0C000000 		.4byte	.LVL79
 3887 0503 16000000 		.4byte	.LVL82
 3888 0507 0100     		.2byte	0x1
 3889 0509 55       		.byte	0x55
 3890 050a 16000000 		.4byte	.LVL82
 3891 050e 18000000 		.4byte	.LVL83
 3892 0512 0100     		.2byte	0x1
 3893 0514 54       		.byte	0x54
 3894 0515 18000000 		.4byte	.LVL83
 3895 0519 3E000000 		.4byte	.LVL91
 3896 051d 0100     		.2byte	0x1
 3897 051f 53       		.byte	0x53
 3898 0520 3E000000 		.4byte	.LVL91
 3899 0524 48000000 		.4byte	.LVL92
 3900 0528 0200     		.2byte	0x2
 3901 052a 30       		.byte	0x30
 3902 052b 9F       		.byte	0x9f
 3903 052c 48000000 		.4byte	.LVL92
 3904 0530 52000000 		.4byte	.LVL95
 3905 0534 0100     		.2byte	0x1
 3906 0536 55       		.byte	0x55
 3907 0537 52000000 		.4byte	.LVL95
 3908 053b 54000000 		.4byte	.LVL96
 3909 053f 0100     		.2byte	0x1
 3910 0541 54       		.byte	0x54
 3911 0542 54000000 		.4byte	.LVL96
 3912 0546 58000000 		.4byte	.LFE146
 3913 054a 0100     		.2byte	0x1
 3914 054c 53       		.byte	0x53
 3915 054d 00000000 		.4byte	0
 3916 0551 00000000 		.4byte	0
 3917              	.LLST22:
 3918 0555 00000000 		.4byte	.LVL78
 3919 0559 0C000000 		.4byte	.LVL79
 3920 055d 0200     		.2byte	0x2
 3921 055f 30       		.byte	0x30
 3922 0560 9F       		.byte	0x9f
 3923 0561 0C000000 		.4byte	.LVL79
 3924 0565 10000000 		.4byte	.LVL80
 3925 0569 0500     		.2byte	0x5
 3926 056b 37       		.byte	0x37
 3927 056c 76       		.byte	0x76
 3928 056d 00       		.sleb128 0
 3929 056e 24       		.byte	0x24
 3930 056f 9F       		.byte	0x9f
 3931 0570 10000000 		.4byte	.LVL80
ARM GAS  /var/folders/m4/4md61f0s1_g0rzfghffqnxvr0000gn/T//ccIWSo2P.s 			page 70


 3932 0574 16000000 		.4byte	.LVL82
 3933 0578 0100     		.2byte	0x1
 3934 057a 54       		.byte	0x54
 3935 057b 2A000000 		.4byte	.LVL86
 3936 057f 2E000000 		.4byte	.LVL87
 3937 0583 0500     		.2byte	0x5
 3938 0585 4F       		.byte	0x4f
 3939 0586 72       		.byte	0x72
 3940 0587 00       		.sleb128 0
 3941 0588 24       		.byte	0x24
 3942 0589 9F       		.byte	0x9f
 3943 058a 2E000000 		.4byte	.LVL87
 3944 058e 32000000 		.4byte	.LVL88
 3945 0592 0100     		.2byte	0x1
 3946 0594 54       		.byte	0x54
 3947 0595 32000000 		.4byte	.LVL88
 3948 0599 36000000 		.4byte	.LVL89
 3949 059d 0900     		.2byte	0x9
 3950 059f 71       		.byte	0x71
 3951 05a0 00       		.sleb128 0
 3952 05a1 08       		.byte	0x8
 3953 05a2 FF       		.byte	0xff
 3954 05a3 1A       		.byte	0x1a
 3955 05a4 72       		.byte	0x72
 3956 05a5 00       		.sleb128 0
 3957 05a6 24       		.byte	0x24
 3958 05a7 9F       		.byte	0x9f
 3959 05a8 3E000000 		.4byte	.LVL91
 3960 05ac 48000000 		.4byte	.LVL92
 3961 05b0 0200     		.2byte	0x2
 3962 05b2 30       		.byte	0x30
 3963 05b3 9F       		.byte	0x9f
 3964 05b4 48000000 		.4byte	.LVL92
 3965 05b8 4C000000 		.4byte	.LVL93
 3966 05bc 0500     		.2byte	0x5
 3967 05be 37       		.byte	0x37
 3968 05bf 76       		.byte	0x76
 3969 05c0 00       		.sleb128 0
 3970 05c1 24       		.byte	0x24
 3971 05c2 9F       		.byte	0x9f
 3972 05c3 4C000000 		.4byte	.LVL93
 3973 05c7 52000000 		.4byte	.LVL95
 3974 05cb 0100     		.2byte	0x1
 3975 05cd 54       		.byte	0x54
 3976 05ce 00000000 		.4byte	0
 3977 05d2 00000000 		.4byte	0
 3978              	.LLST23:
 3979 05d6 00000000 		.4byte	.LVL78
 3980 05da 1C000000 		.4byte	.LVL84
 3981 05de 0200     		.2byte	0x2
 3982 05e0 30       		.byte	0x30
 3983 05e1 9F       		.byte	0x9f
 3984 05e2 1C000000 		.4byte	.LVL84
 3985 05e6 32000000 		.4byte	.LVL88
 3986 05ea 0700     		.2byte	0x7
 3987 05ec 73       		.byte	0x73
 3988 05ed 00       		.sleb128 0
ARM GAS  /var/folders/m4/4md61f0s1_g0rzfghffqnxvr0000gn/T//ccIWSo2P.s 			page 71


 3989 05ee 44       		.byte	0x44
 3990 05ef 25       		.byte	0x25
 3991 05f0 33       		.byte	0x33
 3992 05f1 1A       		.byte	0x1a
 3993 05f2 9F       		.byte	0x9f
 3994 05f3 3E000000 		.4byte	.LVL91
 3995 05f7 58000000 		.4byte	.LFE146
 3996 05fb 0200     		.2byte	0x2
 3997 05fd 30       		.byte	0x30
 3998 05fe 9F       		.byte	0x9f
 3999 05ff 00000000 		.4byte	0
 4000 0603 00000000 		.4byte	0
 4001              	.LLST24:
 4002 0607 00000000 		.4byte	.LVL97
 4003 060b 04000000 		.4byte	.LVL99
 4004 060f 0100     		.2byte	0x1
 4005 0611 51       		.byte	0x51
 4006 0612 04000000 		.4byte	.LVL99
 4007 0616 10000000 		.4byte	.LFE147
 4008 061a 0400     		.2byte	0x4
 4009 061c F3       		.byte	0xf3
 4010 061d 01       		.uleb128 0x1
 4011 061e 51       		.byte	0x51
 4012 061f 9F       		.byte	0x9f
 4013 0620 00000000 		.4byte	0
 4014 0624 00000000 		.4byte	0
 4015              	.LLST25:
 4016 0628 00000000 		.4byte	.LVL97
 4017 062c 02000000 		.4byte	.LVL98
 4018 0630 0200     		.2byte	0x2
 4019 0632 30       		.byte	0x30
 4020 0633 9F       		.byte	0x9f
 4021 0634 02000000 		.4byte	.LVL98
 4022 0638 0C000000 		.4byte	.LVL101
 4023 063c 0100     		.2byte	0x1
 4024 063e 53       		.byte	0x53
 4025 063f 0C000000 		.4byte	.LVL101
 4026 0643 10000000 		.4byte	.LFE147
 4027 0647 0100     		.2byte	0x1
 4028 0649 51       		.byte	0x51
 4029 064a 00000000 		.4byte	0
 4030 064e 00000000 		.4byte	0
 4031              	.LLST26:
 4032 0652 00000000 		.4byte	.LVL97
 4033 0656 08000000 		.4byte	.LVL100
 4034 065a 0200     		.2byte	0x2
 4035 065c 30       		.byte	0x30
 4036 065d 9F       		.byte	0x9f
 4037 065e 08000000 		.4byte	.LVL100
 4038 0662 10000000 		.4byte	.LFE147
 4039 0666 0900     		.2byte	0x9
 4040 0668 F3       		.byte	0xf3
 4041 0669 01       		.uleb128 0x1
 4042 066a 51       		.byte	0x51
 4043 066b 08       		.byte	0x8
 4044 066c FF       		.byte	0xff
 4045 066d 1A       		.byte	0x1a
ARM GAS  /var/folders/m4/4md61f0s1_g0rzfghffqnxvr0000gn/T//ccIWSo2P.s 			page 72


 4046 066e 31       		.byte	0x31
 4047 066f 1C       		.byte	0x1c
 4048 0670 9F       		.byte	0x9f
 4049 0671 00000000 		.4byte	0
 4050 0675 00000000 		.4byte	0
 4051              	.LLST27:
 4052 0679 00000000 		.4byte	.LVL102
 4053 067d 0C000000 		.4byte	.LVL103
 4054 0681 0100     		.2byte	0x1
 4055 0683 51       		.byte	0x51
 4056 0684 0C000000 		.4byte	.LVL103
 4057 0688 16000000 		.4byte	.LFE148
 4058 068c 0400     		.2byte	0x4
 4059 068e F3       		.byte	0xf3
 4060 068f 01       		.uleb128 0x1
 4061 0690 51       		.byte	0x51
 4062 0691 9F       		.byte	0x9f
 4063 0692 00000000 		.4byte	0
 4064 0696 00000000 		.4byte	0
 4065              	.LLST28:
 4066 069a 00000000 		.4byte	.LVL104
 4067 069e 08000000 		.4byte	.LVL107
 4068 06a2 0100     		.2byte	0x1
 4069 06a4 51       		.byte	0x51
 4070 06a5 08000000 		.4byte	.LVL107
 4071 06a9 0C000000 		.4byte	.LFE149
 4072 06ad 0400     		.2byte	0x4
 4073 06af F3       		.byte	0xf3
 4074 06b0 01       		.uleb128 0x1
 4075 06b1 51       		.byte	0x51
 4076 06b2 9F       		.byte	0x9f
 4077 06b3 00000000 		.4byte	0
 4078 06b7 00000000 		.4byte	0
 4079              	.LLST29:
 4080 06bb 00000000 		.4byte	.LVL104
 4081 06bf 02000000 		.4byte	.LVL105
 4082 06c3 0200     		.2byte	0x2
 4083 06c5 30       		.byte	0x30
 4084 06c6 9F       		.byte	0x9f
 4085 06c7 02000000 		.4byte	.LVL105
 4086 06cb 08000000 		.4byte	.LVL107
 4087 06cf 0100     		.2byte	0x1
 4088 06d1 53       		.byte	0x53
 4089 06d2 08000000 		.4byte	.LVL107
 4090 06d6 0C000000 		.4byte	.LFE149
 4091 06da 0100     		.2byte	0x1
 4092 06dc 51       		.byte	0x51
 4093 06dd 00000000 		.4byte	0
 4094 06e1 00000000 		.4byte	0
 4095              	.LLST30:
 4096 06e5 00000000 		.4byte	.LVL108
 4097 06e9 08000000 		.4byte	.LVL111
 4098 06ed 0100     		.2byte	0x1
 4099 06ef 51       		.byte	0x51
 4100 06f0 08000000 		.4byte	.LVL111
 4101 06f4 0C000000 		.4byte	.LFE150
 4102 06f8 0400     		.2byte	0x4
ARM GAS  /var/folders/m4/4md61f0s1_g0rzfghffqnxvr0000gn/T//ccIWSo2P.s 			page 73


 4103 06fa F3       		.byte	0xf3
 4104 06fb 01       		.uleb128 0x1
 4105 06fc 51       		.byte	0x51
 4106 06fd 9F       		.byte	0x9f
 4107 06fe 00000000 		.4byte	0
 4108 0702 00000000 		.4byte	0
 4109              	.LLST31:
 4110 0706 00000000 		.4byte	.LVL108
 4111 070a 02000000 		.4byte	.LVL109
 4112 070e 0200     		.2byte	0x2
 4113 0710 30       		.byte	0x30
 4114 0711 9F       		.byte	0x9f
 4115 0712 02000000 		.4byte	.LVL109
 4116 0716 08000000 		.4byte	.LVL111
 4117 071a 0100     		.2byte	0x1
 4118 071c 53       		.byte	0x53
 4119 071d 08000000 		.4byte	.LVL111
 4120 0721 0C000000 		.4byte	.LFE150
 4121 0725 0100     		.2byte	0x1
 4122 0727 51       		.byte	0x51
 4123 0728 00000000 		.4byte	0
 4124 072c 00000000 		.4byte	0
 4125              	.LLST32:
 4126 0730 00000000 		.4byte	.LVL113
 4127 0734 02000000 		.4byte	.LVL114
 4128 0738 0100     		.2byte	0x1
 4129 073a 50       		.byte	0x50
 4130 073b 02000000 		.4byte	.LVL114
 4131 073f 08000000 		.4byte	.LFE152
 4132 0743 0400     		.2byte	0x4
 4133 0745 F3       		.byte	0xf3
 4134 0746 01       		.uleb128 0x1
 4135 0747 50       		.byte	0x50
 4136 0748 9F       		.byte	0x9f
 4137 0749 00000000 		.4byte	0
 4138 074d 00000000 		.4byte	0
 4139              	.LLST33:
 4140 0751 00000000 		.4byte	.LVL113
 4141 0755 02000000 		.4byte	.LVL114
 4142 0759 0200     		.2byte	0x2
 4143 075b 30       		.byte	0x30
 4144 075c 9F       		.byte	0x9f
 4145 075d 02000000 		.4byte	.LVL114
 4146 0761 06000000 		.4byte	.LVL115
 4147 0765 0900     		.2byte	0x9
 4148 0767 70       		.byte	0x70
 4149 0768 00       		.sleb128 0
 4150 0769 40       		.byte	0x40
 4151 076a 42       		.byte	0x42
 4152 076b 24       		.byte	0x24
 4153 076c 1A       		.byte	0x1a
 4154 076d 30       		.byte	0x30
 4155 076e 2E       		.byte	0x2e
 4156 076f 9F       		.byte	0x9f
 4157 0770 00000000 		.4byte	0
 4158 0774 00000000 		.4byte	0
 4159              	.LLST34:
ARM GAS  /var/folders/m4/4md61f0s1_g0rzfghffqnxvr0000gn/T//ccIWSo2P.s 			page 74


 4160 0778 00000000 		.4byte	.LVL118
 4161 077c 14000000 		.4byte	.LVL120
 4162 0780 0100     		.2byte	0x1
 4163 0782 50       		.byte	0x50
 4164 0783 14000000 		.4byte	.LVL120
 4165 0787 1A000000 		.4byte	.LFE155
 4166 078b 0400     		.2byte	0x4
 4167 078d F3       		.byte	0xf3
 4168 078e 01       		.uleb128 0x1
 4169 078f 50       		.byte	0x50
 4170 0790 9F       		.byte	0x9f
 4171 0791 00000000 		.4byte	0
 4172 0795 00000000 		.4byte	0
 4173              	.LLST35:
 4174 0799 00000000 		.4byte	.LVL118
 4175 079d 0E000000 		.4byte	.LVL119
 4176 07a1 0100     		.2byte	0x1
 4177 07a3 51       		.byte	0x51
 4178 07a4 0E000000 		.4byte	.LVL119
 4179 07a8 1A000000 		.4byte	.LFE155
 4180 07ac 0400     		.2byte	0x4
 4181 07ae F3       		.byte	0xf3
 4182 07af 01       		.uleb128 0x1
 4183 07b0 51       		.byte	0x51
 4184 07b1 9F       		.byte	0x9f
 4185 07b2 00000000 		.4byte	0
 4186 07b6 00000000 		.4byte	0
 4187              	.LLST36:
 4188 07ba 00000000 		.4byte	.LVL121
 4189 07be 02000000 		.4byte	.LVL122
 4190 07c2 0100     		.2byte	0x1
 4191 07c4 51       		.byte	0x51
 4192 07c5 02000000 		.4byte	.LVL122
 4193 07c9 18000000 		.4byte	.LFE156
 4194 07cd 0400     		.2byte	0x4
 4195 07cf F3       		.byte	0xf3
 4196 07d0 01       		.uleb128 0x1
 4197 07d1 51       		.byte	0x51
 4198 07d2 9F       		.byte	0x9f
 4199 07d3 00000000 		.4byte	0
 4200 07d7 00000000 		.4byte	0
 4201              	.LLST37:
 4202 07db 00000000 		.4byte	.LVL121
 4203 07df 02000000 		.4byte	.LVL122
 4204 07e3 0200     		.2byte	0x2
 4205 07e5 30       		.byte	0x30
 4206 07e6 9F       		.byte	0x9f
 4207 07e7 02000000 		.4byte	.LVL122
 4208 07eb 06000000 		.4byte	.LVL123
 4209 07ef 0100     		.2byte	0x1
 4210 07f1 51       		.byte	0x51
 4211 07f2 06000000 		.4byte	.LVL123
 4212 07f6 0E000000 		.4byte	.LVL124
 4213 07fa 0100     		.2byte	0x1
 4214 07fc 53       		.byte	0x53
 4215 07fd 0E000000 		.4byte	.LVL124
 4216 0801 12000000 		.4byte	.LVL125
ARM GAS  /var/folders/m4/4md61f0s1_g0rzfghffqnxvr0000gn/T//ccIWSo2P.s 			page 75


 4217 0805 0900     		.2byte	0x9
 4218 0807 31       		.byte	0x31
 4219 0808 F3       		.byte	0xf3
 4220 0809 01       		.uleb128 0x1
 4221 080a 51       		.byte	0x51
 4222 080b 08       		.byte	0x8
 4223 080c FF       		.byte	0xff
 4224 080d 1A       		.byte	0x1a
 4225 080e 24       		.byte	0x24
 4226 080f 9F       		.byte	0x9f
 4227 0810 12000000 		.4byte	.LVL125
 4228 0814 14000000 		.4byte	.LVL126
 4229 0818 0100     		.2byte	0x1
 4230 081a 53       		.byte	0x53
 4231 081b 14000000 		.4byte	.LVL126
 4232 081f 18000000 		.4byte	.LFE156
 4233 0823 0900     		.2byte	0x9
 4234 0825 31       		.byte	0x31
 4235 0826 F3       		.byte	0xf3
 4236 0827 01       		.uleb128 0x1
 4237 0828 51       		.byte	0x51
 4238 0829 08       		.byte	0x8
 4239 082a FF       		.byte	0xff
 4240 082b 1A       		.byte	0x1a
 4241 082c 24       		.byte	0x24
 4242 082d 9F       		.byte	0x9f
 4243 082e 00000000 		.4byte	0
 4244 0832 00000000 		.4byte	0
 4245              	.LLST38:
 4246 0836 00000000 		.4byte	.LVL127
 4247 083a 08000000 		.4byte	.LVL129
 4248 083e 0100     		.2byte	0x1
 4249 0840 50       		.byte	0x50
 4250 0841 08000000 		.4byte	.LVL129
 4251 0845 0C000000 		.4byte	.LFE157
 4252 0849 0400     		.2byte	0x4
 4253 084b F3       		.byte	0xf3
 4254 084c 01       		.uleb128 0x1
 4255 084d 50       		.byte	0x50
 4256 084e 9F       		.byte	0x9f
 4257 084f 00000000 		.4byte	0
 4258 0853 00000000 		.4byte	0
 4259              	.LLST39:
 4260 0857 00000000 		.4byte	.LVL127
 4261 085b 02000000 		.4byte	.LVL128
 4262 085f 0200     		.2byte	0x2
 4263 0861 30       		.byte	0x30
 4264 0862 9F       		.byte	0x9f
 4265 0863 02000000 		.4byte	.LVL128
 4266 0867 0C000000 		.4byte	.LFE157
 4267 086b 0B00     		.2byte	0xb
 4268 086d 71       		.byte	0x71
 4269 086e 00       		.sleb128 0
 4270 086f 08       		.byte	0x8
 4271 0870 FF       		.byte	0xff
 4272 0871 1A       		.byte	0x1a
 4273 0872 73       		.byte	0x73
ARM GAS  /var/folders/m4/4md61f0s1_g0rzfghffqnxvr0000gn/T//ccIWSo2P.s 			page 76


 4274 0873 00       		.sleb128 0
 4275 0874 1A       		.byte	0x1a
 4276 0875 30       		.byte	0x30
 4277 0876 2E       		.byte	0x2e
 4278 0877 9F       		.byte	0x9f
 4279 0878 00000000 		.4byte	0
 4280 087c 00000000 		.4byte	0
 4281              	.LLST40:
 4282 0880 00000000 		.4byte	.LVL130
 4283 0884 02000000 		.4byte	.LVL131
 4284 0888 0100     		.2byte	0x1
 4285 088a 51       		.byte	0x51
 4286 088b 02000000 		.4byte	.LVL131
 4287 088f 06000000 		.4byte	.LFE158
 4288 0893 0400     		.2byte	0x4
 4289 0895 F3       		.byte	0xf3
 4290 0896 01       		.uleb128 0x1
 4291 0897 51       		.byte	0x51
 4292 0898 9F       		.byte	0x9f
 4293 0899 00000000 		.4byte	0
 4294 089d 00000000 		.4byte	0
 4295              	.LLST41:
 4296 08a1 00000000 		.4byte	.LVL132
 4297 08a5 04000000 		.4byte	.LVL134
 4298 08a9 0100     		.2byte	0x1
 4299 08ab 50       		.byte	0x50
 4300 08ac 04000000 		.4byte	.LVL134
 4301 08b0 1C000000 		.4byte	.LFE159
 4302 08b4 0400     		.2byte	0x4
 4303 08b6 F3       		.byte	0xf3
 4304 08b7 01       		.uleb128 0x1
 4305 08b8 50       		.byte	0x50
 4306 08b9 9F       		.byte	0x9f
 4307 08ba 00000000 		.4byte	0
 4308 08be 00000000 		.4byte	0
 4309              	.LLST42:
 4310 08c2 00000000 		.4byte	.LVL132
 4311 08c6 0E000000 		.4byte	.LVL135
 4312 08ca 0100     		.2byte	0x1
 4313 08cc 51       		.byte	0x51
 4314 08cd 0E000000 		.4byte	.LVL135
 4315 08d1 1C000000 		.4byte	.LFE159
 4316 08d5 0400     		.2byte	0x4
 4317 08d7 F3       		.byte	0xf3
 4318 08d8 01       		.uleb128 0x1
 4319 08d9 51       		.byte	0x51
 4320 08da 9F       		.byte	0x9f
 4321 08db 00000000 		.4byte	0
 4322 08df 00000000 		.4byte	0
 4323              	.LLST43:
 4324 08e3 00000000 		.4byte	.LVL132
 4325 08e7 1A000000 		.4byte	.LVL137
 4326 08eb 0200     		.2byte	0x2
 4327 08ed 30       		.byte	0x30
 4328 08ee 9F       		.byte	0x9f
 4329 08ef 1A000000 		.4byte	.LVL137
 4330 08f3 1C000000 		.4byte	.LFE159
ARM GAS  /var/folders/m4/4md61f0s1_g0rzfghffqnxvr0000gn/T//ccIWSo2P.s 			page 77


 4331 08f7 0100     		.2byte	0x1
 4332 08f9 50       		.byte	0x50
 4333 08fa 00000000 		.4byte	0
 4334 08fe 00000000 		.4byte	0
 4335              	.LLST44:
 4336 0902 00000000 		.4byte	.LVL132
 4337 0906 0E000000 		.4byte	.LVL135
 4338 090a 0900     		.2byte	0x9
 4339 090c 71       		.byte	0x71
 4340 090d 00       		.sleb128 0
 4341 090e 38       		.byte	0x38
 4342 090f 25       		.byte	0x25
 4343 0910 0A       		.byte	0xa
 4344 0911 FFFF     		.2byte	0xffff
 4345 0913 1A       		.byte	0x1a
 4346 0914 9F       		.byte	0x9f
 4347 0915 0E000000 		.4byte	.LVL135
 4348 0919 1C000000 		.4byte	.LFE159
 4349 091d 0A00     		.2byte	0xa
 4350 091f F3       		.byte	0xf3
 4351 0920 01       		.uleb128 0x1
 4352 0921 51       		.byte	0x51
 4353 0922 38       		.byte	0x38
 4354 0923 25       		.byte	0x25
 4355 0924 0A       		.byte	0xa
 4356 0925 FFFF     		.2byte	0xffff
 4357 0927 1A       		.byte	0x1a
 4358 0928 9F       		.byte	0x9f
 4359 0929 00000000 		.4byte	0
 4360 092d 00000000 		.4byte	0
 4361              	.LLST45:
 4362 0931 00000000 		.4byte	.LVL132
 4363 0935 02000000 		.4byte	.LVL133
 4364 0939 0200     		.2byte	0x2
 4365 093b 30       		.byte	0x30
 4366 093c 9F       		.byte	0x9f
 4367 093d 02000000 		.4byte	.LVL133
 4368 0941 12000000 		.4byte	.LVL136
 4369 0945 0B00     		.2byte	0xb
 4370 0947 31       		.byte	0x31
 4371 0948 71       		.byte	0x71
 4372 0949 00       		.sleb128 0
 4373 094a 08       		.byte	0x8
 4374 094b FF       		.byte	0xff
 4375 094c 1A       		.byte	0x1a
 4376 094d 24       		.byte	0x24
 4377 094e 72       		.byte	0x72
 4378 094f 00       		.sleb128 0
 4379 0950 1A       		.byte	0x1a
 4380 0951 9F       		.byte	0x9f
 4381 0952 12000000 		.4byte	.LVL136
 4382 0956 1C000000 		.4byte	.LFE159
 4383 095a 0C00     		.2byte	0xc
 4384 095c 31       		.byte	0x31
 4385 095d F3       		.byte	0xf3
 4386 095e 01       		.uleb128 0x1
 4387 095f 51       		.byte	0x51
ARM GAS  /var/folders/m4/4md61f0s1_g0rzfghffqnxvr0000gn/T//ccIWSo2P.s 			page 78


 4388 0960 08       		.byte	0x8
 4389 0961 FF       		.byte	0xff
 4390 0962 1A       		.byte	0x1a
 4391 0963 24       		.byte	0x24
 4392 0964 72       		.byte	0x72
 4393 0965 00       		.sleb128 0
 4394 0966 1A       		.byte	0x1a
 4395 0967 9F       		.byte	0x9f
 4396 0968 00000000 		.4byte	0
 4397 096c 00000000 		.4byte	0
 4398              	.LLST46:
 4399 0970 00000000 		.4byte	.LVL138
 4400 0974 04000000 		.4byte	.LVL139
 4401 0978 0100     		.2byte	0x1
 4402 097a 51       		.byte	0x51
 4403 097b 04000000 		.4byte	.LVL139
 4404 097f 08000000 		.4byte	.LFE160
 4405 0983 0400     		.2byte	0x4
 4406 0985 F3       		.byte	0xf3
 4407 0986 01       		.uleb128 0x1
 4408 0987 51       		.byte	0x51
 4409 0988 9F       		.byte	0x9f
 4410 0989 00000000 		.4byte	0
 4411 098d 00000000 		.4byte	0
 4412              	.LLST47:
 4413 0991 00000000 		.4byte	.LVL138
 4414 0995 04000000 		.4byte	.LVL139
 4415 0999 0500     		.2byte	0x5
 4416 099b 71       		.byte	0x71
 4417 099c 00       		.sleb128 0
 4418 099d 38       		.byte	0x38
 4419 099e 25       		.byte	0x25
 4420 099f 9F       		.byte	0x9f
 4421 09a0 04000000 		.4byte	.LVL139
 4422 09a4 08000000 		.4byte	.LFE160
 4423 09a8 0600     		.2byte	0x6
 4424 09aa F3       		.byte	0xf3
 4425 09ab 01       		.uleb128 0x1
 4426 09ac 51       		.byte	0x51
 4427 09ad 38       		.byte	0x38
 4428 09ae 25       		.byte	0x25
 4429 09af 9F       		.byte	0x9f
 4430 09b0 00000000 		.4byte	0
 4431 09b4 00000000 		.4byte	0
 4432              		.section	.debug_aranges,"",%progbits
 4433 0000 44010000 		.4byte	0x144
 4434 0004 0200     		.2byte	0x2
 4435 0006 00000000 		.4byte	.Ldebug_info0
 4436 000a 04       		.byte	0x4
 4437 000b 00       		.byte	0
 4438 000c 0000     		.2byte	0
 4439 000e 0000     		.2byte	0
 4440 0010 00000000 		.4byte	.LFB123
 4441 0014 1A000000 		.4byte	.LFE123-.LFB123
 4442 0018 00000000 		.4byte	.LFB124
 4443 001c 50000000 		.4byte	.LFE124-.LFB124
 4444 0020 00000000 		.4byte	.LFB125
ARM GAS  /var/folders/m4/4md61f0s1_g0rzfghffqnxvr0000gn/T//ccIWSo2P.s 			page 79


 4445 0024 14000000 		.4byte	.LFE125-.LFB125
 4446 0028 00000000 		.4byte	.LFB126
 4447 002c 28000000 		.4byte	.LFE126-.LFB126
 4448 0030 00000000 		.4byte	.LFB127
 4449 0034 0C000000 		.4byte	.LFE127-.LFB127
 4450 0038 00000000 		.4byte	.LFB128
 4451 003c 14000000 		.4byte	.LFE128-.LFB128
 4452 0040 00000000 		.4byte	.LFB129
 4453 0044 10000000 		.4byte	.LFE129-.LFB129
 4454 0048 00000000 		.4byte	.LFB130
 4455 004c 06000000 		.4byte	.LFE130-.LFB130
 4456 0050 00000000 		.4byte	.LFB131
 4457 0054 0C000000 		.4byte	.LFE131-.LFB131
 4458 0058 00000000 		.4byte	.LFB132
 4459 005c 1C000000 		.4byte	.LFE132-.LFB132
 4460 0060 00000000 		.4byte	.LFB133
 4461 0064 1C000000 		.4byte	.LFE133-.LFB133
 4462 0068 00000000 		.4byte	.LFB134
 4463 006c 92000000 		.4byte	.LFE134-.LFB134
 4464 0070 00000000 		.4byte	.LFB135
 4465 0074 0A000000 		.4byte	.LFE135-.LFB135
 4466 0078 00000000 		.4byte	.LFB136
 4467 007c 08000000 		.4byte	.LFE136-.LFB136
 4468 0080 00000000 		.4byte	.LFB137
 4469 0084 14000000 		.4byte	.LFE137-.LFB137
 4470 0088 00000000 		.4byte	.LFB138
 4471 008c 14000000 		.4byte	.LFE138-.LFB138
 4472 0090 00000000 		.4byte	.LFB139
 4473 0094 10000000 		.4byte	.LFE139-.LFB139
 4474 0098 00000000 		.4byte	.LFB140
 4475 009c 14000000 		.4byte	.LFE140-.LFB140
 4476 00a0 00000000 		.4byte	.LFB141
 4477 00a4 06000000 		.4byte	.LFE141-.LFB141
 4478 00a8 00000000 		.4byte	.LFB142
 4479 00ac 0C000000 		.4byte	.LFE142-.LFB142
 4480 00b0 00000000 		.4byte	.LFB143
 4481 00b4 14000000 		.4byte	.LFE143-.LFB143
 4482 00b8 00000000 		.4byte	.LFB144
 4483 00bc 14000000 		.4byte	.LFE144-.LFB144
 4484 00c0 00000000 		.4byte	.LFB145
 4485 00c4 1C000000 		.4byte	.LFE145-.LFB145
 4486 00c8 00000000 		.4byte	.LFB146
 4487 00cc 58000000 		.4byte	.LFE146-.LFB146
 4488 00d0 00000000 		.4byte	.LFB147
 4489 00d4 10000000 		.4byte	.LFE147-.LFB147
 4490 00d8 00000000 		.4byte	.LFB148
 4491 00dc 16000000 		.4byte	.LFE148-.LFB148
 4492 00e0 00000000 		.4byte	.LFB149
 4493 00e4 0C000000 		.4byte	.LFE149-.LFB149
 4494 00e8 00000000 		.4byte	.LFB150
 4495 00ec 0C000000 		.4byte	.LFE150-.LFB150
 4496 00f0 00000000 		.4byte	.LFB151
 4497 00f4 0A000000 		.4byte	.LFE151-.LFB151
 4498 00f8 00000000 		.4byte	.LFB152
 4499 00fc 08000000 		.4byte	.LFE152-.LFB152
 4500 0100 00000000 		.4byte	.LFB153
 4501 0104 14000000 		.4byte	.LFE153-.LFB153
ARM GAS  /var/folders/m4/4md61f0s1_g0rzfghffqnxvr0000gn/T//ccIWSo2P.s 			page 80


 4502 0108 00000000 		.4byte	.LFB154
 4503 010c 14000000 		.4byte	.LFE154-.LFB154
 4504 0110 00000000 		.4byte	.LFB155
 4505 0114 1A000000 		.4byte	.LFE155-.LFB155
 4506 0118 00000000 		.4byte	.LFB156
 4507 011c 18000000 		.4byte	.LFE156-.LFB156
 4508 0120 00000000 		.4byte	.LFB157
 4509 0124 0C000000 		.4byte	.LFE157-.LFB157
 4510 0128 00000000 		.4byte	.LFB158
 4511 012c 06000000 		.4byte	.LFE158-.LFB158
 4512 0130 00000000 		.4byte	.LFB159
 4513 0134 1C000000 		.4byte	.LFE159-.LFB159
 4514 0138 00000000 		.4byte	.LFB160
 4515 013c 08000000 		.4byte	.LFE160-.LFB160
 4516 0140 00000000 		.4byte	0
 4517 0144 00000000 		.4byte	0
 4518              		.section	.debug_ranges,"",%progbits
 4519              	.Ldebug_ranges0:
 4520 0000 00000000 		.4byte	.LFB123
 4521 0004 1A000000 		.4byte	.LFE123
 4522 0008 00000000 		.4byte	.LFB124
 4523 000c 50000000 		.4byte	.LFE124
 4524 0010 00000000 		.4byte	.LFB125
 4525 0014 14000000 		.4byte	.LFE125
 4526 0018 00000000 		.4byte	.LFB126
 4527 001c 28000000 		.4byte	.LFE126
 4528 0020 00000000 		.4byte	.LFB127
 4529 0024 0C000000 		.4byte	.LFE127
 4530 0028 00000000 		.4byte	.LFB128
 4531 002c 14000000 		.4byte	.LFE128
 4532 0030 00000000 		.4byte	.LFB129
 4533 0034 10000000 		.4byte	.LFE129
 4534 0038 00000000 		.4byte	.LFB130
 4535 003c 06000000 		.4byte	.LFE130
 4536 0040 00000000 		.4byte	.LFB131
 4537 0044 0C000000 		.4byte	.LFE131
 4538 0048 00000000 		.4byte	.LFB132
 4539 004c 1C000000 		.4byte	.LFE132
 4540 0050 00000000 		.4byte	.LFB133
 4541 0054 1C000000 		.4byte	.LFE133
 4542 0058 00000000 		.4byte	.LFB134
 4543 005c 92000000 		.4byte	.LFE134
 4544 0060 00000000 		.4byte	.LFB135
 4545 0064 0A000000 		.4byte	.LFE135
 4546 0068 00000000 		.4byte	.LFB136
 4547 006c 08000000 		.4byte	.LFE136
 4548 0070 00000000 		.4byte	.LFB137
 4549 0074 14000000 		.4byte	.LFE137
 4550 0078 00000000 		.4byte	.LFB138
 4551 007c 14000000 		.4byte	.LFE138
 4552 0080 00000000 		.4byte	.LFB139
 4553 0084 10000000 		.4byte	.LFE139
 4554 0088 00000000 		.4byte	.LFB140
 4555 008c 14000000 		.4byte	.LFE140
 4556 0090 00000000 		.4byte	.LFB141
 4557 0094 06000000 		.4byte	.LFE141
 4558 0098 00000000 		.4byte	.LFB142
ARM GAS  /var/folders/m4/4md61f0s1_g0rzfghffqnxvr0000gn/T//ccIWSo2P.s 			page 81


 4559 009c 0C000000 		.4byte	.LFE142
 4560 00a0 00000000 		.4byte	.LFB143
 4561 00a4 14000000 		.4byte	.LFE143
 4562 00a8 00000000 		.4byte	.LFB144
 4563 00ac 14000000 		.4byte	.LFE144
 4564 00b0 00000000 		.4byte	.LFB145
 4565 00b4 1C000000 		.4byte	.LFE145
 4566 00b8 00000000 		.4byte	.LFB146
 4567 00bc 58000000 		.4byte	.LFE146
 4568 00c0 00000000 		.4byte	.LFB147
 4569 00c4 10000000 		.4byte	.LFE147
 4570 00c8 00000000 		.4byte	.LFB148
 4571 00cc 16000000 		.4byte	.LFE148
 4572 00d0 00000000 		.4byte	.LFB149
 4573 00d4 0C000000 		.4byte	.LFE149
 4574 00d8 00000000 		.4byte	.LFB150
 4575 00dc 0C000000 		.4byte	.LFE150
 4576 00e0 00000000 		.4byte	.LFB151
 4577 00e4 0A000000 		.4byte	.LFE151
 4578 00e8 00000000 		.4byte	.LFB152
 4579 00ec 08000000 		.4byte	.LFE152
 4580 00f0 00000000 		.4byte	.LFB153
 4581 00f4 14000000 		.4byte	.LFE153
 4582 00f8 00000000 		.4byte	.LFB154
 4583 00fc 14000000 		.4byte	.LFE154
 4584 0100 00000000 		.4byte	.LFB155
 4585 0104 1A000000 		.4byte	.LFE155
 4586 0108 00000000 		.4byte	.LFB156
 4587 010c 18000000 		.4byte	.LFE156
 4588 0110 00000000 		.4byte	.LFB157
 4589 0114 0C000000 		.4byte	.LFE157
 4590 0118 00000000 		.4byte	.LFB158
 4591 011c 06000000 		.4byte	.LFE158
 4592 0120 00000000 		.4byte	.LFB159
 4593 0124 1C000000 		.4byte	.LFE159
 4594 0128 00000000 		.4byte	.LFB160
 4595 012c 08000000 		.4byte	.LFE160
 4596 0130 00000000 		.4byte	0
 4597 0134 00000000 		.4byte	0
 4598              		.section	.debug_line,"",%progbits
 4599              	.Ldebug_line0:
 4600 0000 BB050000 		.section	.debug_str,"MS",%progbits,1
 4600      02002E02 
 4600      00000201 
 4600      FB0E0D00 
 4600      01010101 
 4601              	.LASF77:
 4602 0000 4144435F 		.ascii	"ADC_SampleTime\000"
 4602      53616D70 
 4602      6C655469 
 4602      6D6500
 4603              	.LASF74:
 4604 000f 4144435F 		.ascii	"ADC_VBATCmd\000"
 4604      56424154 
 4604      436D6400 
 4605              	.LASF47:
 4606 001b 4144435F 		.ascii	"ADC_InitTypeDef\000"
ARM GAS  /var/folders/m4/4md61f0s1_g0rzfghffqnxvr0000gn/T//ccIWSo2P.s 			page 82


 4606      496E6974 
 4606      54797065 
 4606      44656600 
 4607              	.LASF24:
 4608 002b 53515231 		.ascii	"SQR1\000"
 4608      00
 4609              	.LASF25:
 4610 0030 53515232 		.ascii	"SQR2\000"
 4610      00
 4611              	.LASF26:
 4612 0035 53515233 		.ascii	"SQR3\000"
 4612      00
 4613              	.LASF46:
 4614 003a 4144435F 		.ascii	"ADC_NbrOfConversion\000"
 4614      4E62724F 
 4614      66436F6E 
 4614      76657273 
 4614      696F6E00 
 4615              	.LASF62:
 4616 004e 4144435F 		.ascii	"ADC_CommonStructInit\000"
 4616      436F6D6D 
 4616      6F6E5374 
 4616      72756374 
 4616      496E6974 
 4617              	.LASF66:
 4618 0063 4144435F 		.ascii	"ADC_AnalogWatchdog\000"
 4618      416E616C 
 4618      6F675761 
 4618      74636864 
 4618      6F6700
 4619              	.LASF12:
 4620 0076 756E7369 		.ascii	"unsigned int\000"
 4620      676E6564 
 4620      20696E74 
 4620      00
 4621              	.LASF39:
 4622 0083 46756E63 		.ascii	"FunctionalState\000"
 4622      74696F6E 
 4622      616C5374 
 4622      61746500 
 4623              	.LASF6:
 4624 0093 5F5F696E 		.ascii	"__int32_t\000"
 4624      7433325F 
 4624      7400
 4625              	.LASF117:
 4626 009d 2F557365 		.ascii	"/Users/raphael/Documents/Projects/rESC/resc-firmwar"
 4626      72732F72 
 4626      61706861 
 4626      656C2F44 
 4626      6F63756D 
 4627 00d0 6500     		.ascii	"e\000"
 4628              	.LASF35:
 4629 00d2 466C6167 		.ascii	"FlagStatus\000"
 4629      53746174 
 4629      757300
 4630              	.LASF113:
 4631 00dd 656E6162 		.ascii	"enablestatus\000"
ARM GAS  /var/folders/m4/4md61f0s1_g0rzfghffqnxvr0000gn/T//ccIWSo2P.s 			page 83


 4631      6C657374 
 4631      61747573 
 4631      00
 4632              	.LASF115:
 4633 00ea 474E5520 		.ascii	"GNU C99 5.2.1 20151202 (release) [ARM/embedded-5-br"
 4633      43393920 
 4633      352E322E 
 4633      31203230 
 4633      31353132 
 4634 011d 616E6368 		.ascii	"anch revision 231848] -mcpu=cortex-m4 -mfloat-abi=h"
 4634      20726576 
 4634      6973696F 
 4634      6E203233 
 4634      31383438 
 4635 0150 61726420 		.ascii	"ard -mfpu=fpv4-sp-d16 -mno-thumb-interwork -mthumb "
 4635      2D6D6670 
 4635      753D6670 
 4635      76342D73 
 4635      702D6431 
 4636 0183 2D676764 		.ascii	"-ggdb -O2 -std=c99 -fomit-frame-pointer -falign-fun"
 4636      62202D4F 
 4636      32202D73 
 4636      74643D63 
 4636      3939202D 
 4637 01b6 6374696F 		.ascii	"ctions=16 -fsingle-precision-constant -ffunction-se"
 4637      6E733D31 
 4637      36202D66 
 4637      73696E67 
 4637      6C652D70 
 4638 01e9 6374696F 		.ascii	"ctions -fdata-sections -fno-common\000"
 4638      6E73202D 
 4638      66646174 
 4638      612D7365 
 4638      6374696F 
 4639              	.LASF87:
 4640 020c 4144435F 		.ascii	"ADC_DMACmd\000"
 4640      444D4143 
 4640      6D6400
 4641              	.LASF56:
 4642 0217 4144435F 		.ascii	"ADC_InitStruct\000"
 4642      496E6974 
 4642      53747275 
 4642      637400
 4643              	.LASF99:
 4644 0226 4144435F 		.ascii	"ADC_ExternalTrigInjectedConvEdgeConfig\000"
 4644      45787465 
 4644      726E616C 
 4644      54726967 
 4644      496E6A65 
 4645              	.LASF16:
 4646 024d 75696E74 		.ascii	"uint32_t\000"
 4646      33325F74 
 4646      00
 4647              	.LASF112:
 4648 0256 4144435F 		.ascii	"ADC_GetITStatus\000"
 4648      47657449 
 4648      54537461 
ARM GAS  /var/folders/m4/4md61f0s1_g0rzfghffqnxvr0000gn/T//ccIWSo2P.s 			page 84


 4648      74757300 
 4649              	.LASF63:
 4650 0266 4144435F 		.ascii	"ADC_Cmd\000"
 4650      436D6400 
 4651              	.LASF65:
 4652 026e 4144435F 		.ascii	"ADC_AnalogWatchdogCmd\000"
 4652      416E616C 
 4652      6F675761 
 4652      74636864 
 4652      6F67436D 
 4653              	.LASF53:
 4654 0284 4144435F 		.ascii	"ADC_DeInit\000"
 4654      4465496E 
 4654      697400
 4655              	.LASF102:
 4656 028f 4144435F 		.ascii	"ADC_GetSoftwareStartInjectedConvCmdStatus\000"
 4656      47657453 
 4656      6F667477 
 4656      61726553 
 4656      74617274 
 4657              	.LASF11:
 4658 02b9 6C6F6E67 		.ascii	"long long unsigned int\000"
 4658      206C6F6E 
 4658      6720756E 
 4658      7369676E 
 4658      65642069 
 4659              	.LASF94:
 4660 02d0 4144435F 		.ascii	"ADC_SetInjectedOffset\000"
 4660      53657449 
 4660      6E6A6563 
 4660      7465644F 
 4660      66667365 
 4661              	.LASF41:
 4662 02e6 4144435F 		.ascii	"ADC_ScanConvMode\000"
 4662      5363616E 
 4662      436F6E76 
 4662      4D6F6465 
 4662      00
 4663              	.LASF54:
 4664 02f7 4144435F 		.ascii	"ADC_Init\000"
 4664      496E6974 
 4664      00
 4665              	.LASF4:
 4666 0300 5F5F7569 		.ascii	"__uint16_t\000"
 4666      6E743136 
 4666      5F7400
 4667              	.LASF95:
 4668 030b 4144435F 		.ascii	"ADC_InjectedChannel\000"
 4668      496E6A65 
 4668      63746564 
 4668      4368616E 
 4668      6E656C00 
 4669              	.LASF93:
 4670 031f 4C656E67 		.ascii	"Length\000"
 4670      746800
 4671              	.LASF88:
 4672 0326 4144435F 		.ascii	"ADC_DMARequestAfterLastTransferCmd\000"
ARM GAS  /var/folders/m4/4md61f0s1_g0rzfghffqnxvr0000gn/T//ccIWSo2P.s 			page 85


 4672      444D4152 
 4672      65717565 
 4672      73744166 
 4672      7465724C 
 4673              	.LASF67:
 4674 0349 746D7072 		.ascii	"tmpreg\000"
 4674      656700
 4675              	.LASF104:
 4676 0350 4144435F 		.ascii	"ADC_InjectedDiscModeCmd\000"
 4676      496E6A65 
 4676      63746564 
 4676      44697363 
 4676      4D6F6465 
 4677              	.LASF36:
 4678 0368 49545374 		.ascii	"ITStatus\000"
 4678      61747573 
 4678      00
 4679              	.LASF110:
 4680 0371 4144435F 		.ascii	"ADC_FLAG\000"
 4680      464C4147 
 4680      00
 4681              	.LASF83:
 4682 037a 4E756D62 		.ascii	"Number\000"
 4682      657200
 4683              	.LASF64:
 4684 0381 4E657753 		.ascii	"NewState\000"
 4684      74617465 
 4684      00
 4685              	.LASF97:
 4686 038a 4144435F 		.ascii	"ADC_ExternalTrigInjectedConvConfig\000"
 4686      45787465 
 4686      726E616C 
 4686      54726967 
 4686      496E6A65 
 4687              	.LASF68:
 4688 03ad 4144435F 		.ascii	"ADC_AnalogWatchdogThresholdsConfig\000"
 4688      416E616C 
 4688      6F675761 
 4688      74636864 
 4688      6F675468 
 4689              	.LASF107:
 4690 03d0 4144435F 		.ascii	"ADC_IT\000"
 4690      495400
 4691              	.LASF69:
 4692 03d7 48696768 		.ascii	"HighThreshold\000"
 4692      54687265 
 4692      73686F6C 
 4692      6400
 4693              	.LASF42:
 4694 03e5 4144435F 		.ascii	"ADC_ContinuousConvMode\000"
 4694      436F6E74 
 4694      696E756F 
 4694      7573436F 
 4694      6E764D6F 
 4695              	.LASF37:
 4696 03fc 44495341 		.ascii	"DISABLE\000"
 4696      424C4500 
ARM GAS  /var/folders/m4/4md61f0s1_g0rzfghffqnxvr0000gn/T//ccIWSo2P.s 			page 86


 4697              	.LASF71:
 4698 0404 4144435F 		.ascii	"ADC_AnalogWatchdogSingleChannelConfig\000"
 4698      416E616C 
 4698      6F675761 
 4698      74636864 
 4698      6F675369 
 4699              	.LASF13:
 4700 042a 75696E74 		.ascii	"uint8_t\000"
 4700      385F7400 
 4701              	.LASF61:
 4702 0432 4144435F 		.ascii	"ADC_CommonInitStruct\000"
 4702      436F6D6D 
 4702      6F6E496E 
 4702      69745374 
 4702      72756374 
 4703              	.LASF50:
 4704 0447 4144435F 		.ascii	"ADC_DMAAccessMode\000"
 4704      444D4141 
 4704      63636573 
 4704      734D6F64 
 4704      6500
 4705              	.LASF32:
 4706 0459 4144435F 		.ascii	"ADC_TypeDef\000"
 4706      54797065 
 4706      44656600 
 4707              	.LASF10:
 4708 0465 6C6F6E67 		.ascii	"long long int\000"
 4708      206C6F6E 
 4708      6720696E 
 4708      7400
 4709              	.LASF43:
 4710 0473 4144435F 		.ascii	"ADC_ExternalTrigConvEdge\000"
 4710      45787465 
 4710      726E616C 
 4710      54726967 
 4710      436F6E76 
 4711              	.LASF40:
 4712 048c 4144435F 		.ascii	"ADC_Resolution\000"
 4712      5265736F 
 4712      6C757469 
 4712      6F6E00
 4713              	.LASF60:
 4714 049b 4144435F 		.ascii	"ADC_CommonInit\000"
 4714      436F6D6D 
 4714      6F6E496E 
 4714      697400
 4715              	.LASF70:
 4716 04aa 4C6F7754 		.ascii	"LowThreshold\000"
 4716      68726573 
 4716      686F6C64 
 4716      00
 4717              	.LASF55:
 4718 04b7 41444378 		.ascii	"ADCx\000"
 4718      00
 4719              	.LASF73:
 4720 04bc 4144435F 		.ascii	"ADC_TempSensorVrefintCmd\000"
 4720      54656D70 
ARM GAS  /var/folders/m4/4md61f0s1_g0rzfghffqnxvr0000gn/T//ccIWSo2P.s 			page 87


 4720      53656E73 
 4720      6F725672 
 4720      6566696E 
 4721              	.LASF118:
 4722 04d5 4144435F 		.ascii	"ADC_GetMultiModeConversionValue\000"
 4722      4765744D 
 4722      756C7469 
 4722      4D6F6465 
 4722      436F6E76 
 4723              	.LASF90:
 4724 04f5 4144435F 		.ascii	"ADC_InjectedChannelConfig\000"
 4724      496E6A65 
 4724      63746564 
 4724      4368616E 
 4724      6E656C43 
 4725              	.LASF51:
 4726 050f 4144435F 		.ascii	"ADC_TwoSamplingDelay\000"
 4726      54776F53 
 4726      616D706C 
 4726      696E6744 
 4726      656C6179 
 4727              	.LASF27:
 4728 0524 4A535152 		.ascii	"JSQR\000"
 4728      00
 4729              	.LASF114:
 4730 0529 4144435F 		.ascii	"ADC_ClearITPendingBit\000"
 4730      436C6561 
 4730      72495450 
 4730      656E6469 
 4730      6E674269 
 4731              	.LASF106:
 4732 053f 4144435F 		.ascii	"ADC_ITConfig\000"
 4732      4954436F 
 4732      6E666967 
 4732      00
 4733              	.LASF18:
 4734 054c 534D5052 		.ascii	"SMPR1\000"
 4734      3100
 4735              	.LASF19:
 4736 0552 534D5052 		.ascii	"SMPR2\000"
 4736      3200
 4737              	.LASF120:
 4738 0558 5243435F 		.ascii	"RCC_APB2PeriphResetCmd\000"
 4738      41504232 
 4738      50657269 
 4738      70685265 
 4738      73657443 
 4739              	.LASF48:
 4740 056f 4144435F 		.ascii	"ADC_Mode\000"
 4740      4D6F6465 
 4740      00
 4741              	.LASF109:
 4742 0578 4144435F 		.ascii	"ADC_GetFlagStatus\000"
 4742      47657446 
 4742      6C616753 
 4742      74617475 
 4742      7300
ARM GAS  /var/folders/m4/4md61f0s1_g0rzfghffqnxvr0000gn/T//ccIWSo2P.s 			page 88


 4743              	.LASF85:
 4744 058a 4144435F 		.ascii	"ADC_GetSoftwareStartConvStatus\000"
 4744      47657453 
 4744      6F667477 
 4744      61726553 
 4744      74617274 
 4745              	.LASF14:
 4746 05a9 75696E74 		.ascii	"uint16_t\000"
 4746      31365F74 
 4746      00
 4747              	.LASF108:
 4748 05b2 69746D61 		.ascii	"itmask\000"
 4748      736B00
 4749              	.LASF78:
 4750 05b9 4144435F 		.ascii	"ADC_SoftwareStartConv\000"
 4750      536F6674 
 4750      77617265 
 4750      53746172 
 4750      74436F6E 
 4751              	.LASF76:
 4752 05cf 52616E6B 		.ascii	"Rank\000"
 4752      00
 4753              	.LASF28:
 4754 05d4 4A445231 		.ascii	"JDR1\000"
 4754      00
 4755              	.LASF29:
 4756 05d9 4A445232 		.ascii	"JDR2\000"
 4756      00
 4757              	.LASF30:
 4758 05de 4A445233 		.ascii	"JDR3\000"
 4758      00
 4759              	.LASF31:
 4760 05e3 4A445234 		.ascii	"JDR4\000"
 4760      00
 4761              	.LASF59:
 4762 05e8 4144435F 		.ascii	"ADC_StructInit\000"
 4762      53747275 
 4762      6374496E 
 4762      697400
 4763              	.LASF49:
 4764 05f7 4144435F 		.ascii	"ADC_Prescaler\000"
 4764      50726573 
 4764      63616C65 
 4764      7200
 4765              	.LASF2:
 4766 0605 73686F72 		.ascii	"short int\000"
 4766      7420696E 
 4766      7400
 4767              	.LASF33:
 4768 060f 4144435F 		.ascii	"ADC_Common_TypeDef\000"
 4768      436F6D6D 
 4768      6F6E5F54 
 4768      79706544 
 4768      656600
 4769              	.LASF7:
 4770 0622 6C6F6E67 		.ascii	"long int\000"
 4770      20696E74 
ARM GAS  /var/folders/m4/4md61f0s1_g0rzfghffqnxvr0000gn/T//ccIWSo2P.s 			page 89


 4770      00
 4771              	.LASF119:
 4772 062b 49544D5F 		.ascii	"ITM_RxBuffer\000"
 4772      52784275 
 4772      66666572 
 4772      00
 4773              	.LASF45:
 4774 0638 4144435F 		.ascii	"ADC_DataAlign\000"
 4774      44617461 
 4774      416C6967 
 4774      6E00
 4775              	.LASF34:
 4776 0646 52455345 		.ascii	"RESET\000"
 4776      5400
 4777              	.LASF98:
 4778 064c 4144435F 		.ascii	"ADC_ExternalTrigInjecConv\000"
 4778      45787465 
 4778      726E616C 
 4778      54726967 
 4778      496E6A65 
 4779              	.LASF101:
 4780 0666 4144435F 		.ascii	"ADC_SoftwareStartInjectedConv\000"
 4780      536F6674 
 4780      77617265 
 4780      53746172 
 4780      74496E6A 
 4781              	.LASF82:
 4782 0684 4144435F 		.ascii	"ADC_DiscModeChannelCountConfig\000"
 4782      44697363 
 4782      4D6F6465 
 4782      4368616E 
 4782      6E656C43 
 4783              	.LASF103:
 4784 06a3 4144435F 		.ascii	"ADC_AutoInjectedConvCmd\000"
 4784      4175746F 
 4784      496E6A65 
 4784      63746564 
 4784      436F6E76 
 4785              	.LASF3:
 4786 06bb 5F5F7569 		.ascii	"__uint8_t\000"
 4786      6E74385F 
 4786      7400
 4787              	.LASF111:
 4788 06c5 4144435F 		.ascii	"ADC_ClearFlag\000"
 4788      436C6561 
 4788      72466C61 
 4788      6700
 4789              	.LASF105:
 4790 06d3 4144435F 		.ascii	"ADC_GetInjectedConversionValue\000"
 4790      47657449 
 4790      6E6A6563 
 4790      74656443 
 4790      6F6E7665 
 4791              	.LASF72:
 4792 06f2 4144435F 		.ascii	"ADC_Channel\000"
 4792      4368616E 
 4792      6E656C00 
ARM GAS  /var/folders/m4/4md61f0s1_g0rzfghffqnxvr0000gn/T//ccIWSo2P.s 			page 90


 4793              	.LASF38:
 4794 06fe 454E4142 		.ascii	"ENABLE\000"
 4794      4C4500
 4795              	.LASF17:
 4796 0705 73697A65 		.ascii	"sizetype\000"
 4796      74797065 
 4796      00
 4797              	.LASF9:
 4798 070e 6C6F6E67 		.ascii	"long unsigned int\000"
 4798      20756E73 
 4798      69676E65 
 4798      6420696E 
 4798      7400
 4799              	.LASF57:
 4800 0720 746D7072 		.ascii	"tmpreg1\000"
 4800      65673100 
 4801              	.LASF58:
 4802 0728 746D7072 		.ascii	"tmpreg2\000"
 4802      65673200 
 4803              	.LASF91:
 4804 0730 746D7072 		.ascii	"tmpreg3\000"
 4804      65673300 
 4805              	.LASF15:
 4806 0738 696E7433 		.ascii	"int32_t\000"
 4806      325F7400 
 4807              	.LASF100:
 4808 0740 4144435F 		.ascii	"ADC_ExternalTrigInjecConvEdge\000"
 4808      45787465 
 4808      726E616C 
 4808      54726967 
 4808      496E6A65 
 4809              	.LASF1:
 4810 075e 756E7369 		.ascii	"unsigned char\000"
 4810      676E6564 
 4810      20636861 
 4810      7200
 4811              	.LASF81:
 4812 076c 4144435F 		.ascii	"ADC_ContinuousModeCmd\000"
 4812      436F6E74 
 4812      696E756F 
 4812      75734D6F 
 4812      6465436D 
 4813              	.LASF8:
 4814 0782 5F5F7569 		.ascii	"__uint32_t\000"
 4814      6E743332 
 4814      5F7400
 4815              	.LASF116:
 4816 078d 43686962 		.ascii	"ChibiOS_16.1.4/ext/stdperiph_stm32f4/src/stm32f4xx_"
 4816      694F535F 
 4816      31362E31 
 4816      2E342F65 
 4816      78742F73 
 4817 07c0 6164632E 		.ascii	"adc.c\000"
 4817      6300
 4818              	.LASF80:
 4819 07c6 4144435F 		.ascii	"ADC_EOCOnEachRegularChannelCmd\000"
 4819      454F434F 
ARM GAS  /var/folders/m4/4md61f0s1_g0rzfghffqnxvr0000gn/T//ccIWSo2P.s 			page 91


 4819      6E456163 
 4819      68526567 
 4819      756C6172 
 4820              	.LASF52:
 4821 07e5 4144435F 		.ascii	"ADC_CommonInitTypeDef\000"
 4821      436F6D6D 
 4821      6F6E496E 
 4821      69745479 
 4821      70654465 
 4822              	.LASF92:
 4823 07fb 4144435F 		.ascii	"ADC_InjectedSequencerLengthConfig\000"
 4823      496E6A65 
 4823      63746564 
 4823      53657175 
 4823      656E6365 
 4824              	.LASF89:
 4825 081d 4144435F 		.ascii	"ADC_MultiModeDMARequestAfterLastTransferCmd\000"
 4825      4D756C74 
 4825      694D6F64 
 4825      65444D41 
 4825      52657175 
 4826              	.LASF84:
 4827 0849 4144435F 		.ascii	"ADC_DiscModeCmd\000"
 4827      44697363 
 4827      4D6F6465 
 4827      436D6400 
 4828              	.LASF44:
 4829 0859 4144435F 		.ascii	"ADC_ExternalTrigConv\000"
 4829      45787465 
 4829      726E616C 
 4829      54726967 
 4829      436F6E76 
 4830              	.LASF0:
 4831 086e 7369676E 		.ascii	"signed char\000"
 4831      65642063 
 4831      68617200 
 4832              	.LASF5:
 4833 087a 73686F72 		.ascii	"short unsigned int\000"
 4833      7420756E 
 4833      7369676E 
 4833      65642069 
 4833      6E7400
 4834              	.LASF20:
 4835 088d 4A4F4652 		.ascii	"JOFR1\000"
 4835      3100
 4836              	.LASF21:
 4837 0893 4A4F4652 		.ascii	"JOFR2\000"
 4837      3200
 4838              	.LASF22:
 4839 0899 4A4F4652 		.ascii	"JOFR3\000"
 4839      3300
 4840              	.LASF23:
 4841 089f 4A4F4652 		.ascii	"JOFR4\000"
 4841      3400
 4842              	.LASF79:
 4843 08a5 62697473 		.ascii	"bitstatus\000"
 4843      74617475 
ARM GAS  /var/folders/m4/4md61f0s1_g0rzfghffqnxvr0000gn/T//ccIWSo2P.s 			page 92


 4843      7300
 4844              	.LASF96:
 4845 08af 4F666673 		.ascii	"Offset\000"
 4845      657400
 4846              	.LASF75:
 4847 08b6 4144435F 		.ascii	"ADC_RegularChannelConfig\000"
 4847      52656775 
 4847      6C617243 
 4847      68616E6E 
 4847      656C436F 
 4848              	.LASF86:
 4849 08cf 4144435F 		.ascii	"ADC_GetConversionValue\000"
 4849      47657443 
 4849      6F6E7665 
 4849      7273696F 
 4849      6E56616C 
 4850              		.ident	"GCC: (GNU Tools for ARM Embedded Processors) 5.2.1 20151202 (release) [ARM/embedded-5-bran
ARM GAS  /var/folders/m4/4md61f0s1_g0rzfghffqnxvr0000gn/T//ccIWSo2P.s 			page 93


DEFINED SYMBOLS
                            *ABS*:0000000000000000 stm32f4xx_adc.c
/var/folders/m4/4md61f0s1_g0rzfghffqnxvr0000gn/T//ccIWSo2P.s:22     .text.ADC_DeInit:0000000000000000 $t
/var/folders/m4/4md61f0s1_g0rzfghffqnxvr0000gn/T//ccIWSo2P.s:28     .text.ADC_DeInit:0000000000000000 ADC_DeInit
/var/folders/m4/4md61f0s1_g0rzfghffqnxvr0000gn/T//ccIWSo2P.s:59     .text.ADC_Init:0000000000000000 $t
/var/folders/m4/4md61f0s1_g0rzfghffqnxvr0000gn/T//ccIWSo2P.s:65     .text.ADC_Init:0000000000000000 ADC_Init
/var/folders/m4/4md61f0s1_g0rzfghffqnxvr0000gn/T//ccIWSo2P.s:133    .text.ADC_Init:000000000000004c $d
/var/folders/m4/4md61f0s1_g0rzfghffqnxvr0000gn/T//ccIWSo2P.s:138    .text.ADC_StructInit:0000000000000000 $t
/var/folders/m4/4md61f0s1_g0rzfghffqnxvr0000gn/T//ccIWSo2P.s:144    .text.ADC_StructInit:0000000000000000 ADC_StructInit
/var/folders/m4/4md61f0s1_g0rzfghffqnxvr0000gn/T//ccIWSo2P.s:174    .text.ADC_CommonInit:0000000000000000 $t
/var/folders/m4/4md61f0s1_g0rzfghffqnxvr0000gn/T//ccIWSo2P.s:180    .text.ADC_CommonInit:0000000000000000 ADC_CommonInit
/var/folders/m4/4md61f0s1_g0rzfghffqnxvr0000gn/T//ccIWSo2P.s:228    .text.ADC_CommonInit:0000000000000020 $d
/var/folders/m4/4md61f0s1_g0rzfghffqnxvr0000gn/T//ccIWSo2P.s:234    .text.ADC_CommonStructInit:0000000000000000 $t
/var/folders/m4/4md61f0s1_g0rzfghffqnxvr0000gn/T//ccIWSo2P.s:240    .text.ADC_CommonStructInit:0000000000000000 ADC_CommonStructInit
/var/folders/m4/4md61f0s1_g0rzfghffqnxvr0000gn/T//ccIWSo2P.s:262    .text.ADC_Cmd:0000000000000000 $t
/var/folders/m4/4md61f0s1_g0rzfghffqnxvr0000gn/T//ccIWSo2P.s:268    .text.ADC_Cmd:0000000000000000 ADC_Cmd
/var/folders/m4/4md61f0s1_g0rzfghffqnxvr0000gn/T//ccIWSo2P.s:293    .text.ADC_AnalogWatchdogCmd:0000000000000000 $t
/var/folders/m4/4md61f0s1_g0rzfghffqnxvr0000gn/T//ccIWSo2P.s:299    .text.ADC_AnalogWatchdogCmd:0000000000000000 ADC_AnalogWatchdogCmd
/var/folders/m4/4md61f0s1_g0rzfghffqnxvr0000gn/T//ccIWSo2P.s:325    .text.ADC_AnalogWatchdogThresholdsConfig:0000000000000000 $t
/var/folders/m4/4md61f0s1_g0rzfghffqnxvr0000gn/T//ccIWSo2P.s:331    .text.ADC_AnalogWatchdogThresholdsConfig:0000000000000000 ADC_AnalogWatchdogThresholdsConfig
/var/folders/m4/4md61f0s1_g0rzfghffqnxvr0000gn/T//ccIWSo2P.s:348    .text.ADC_AnalogWatchdogSingleChannelConfig:0000000000000000 $t
/var/folders/m4/4md61f0s1_g0rzfghffqnxvr0000gn/T//ccIWSo2P.s:354    .text.ADC_AnalogWatchdogSingleChannelConfig:0000000000000000 ADC_AnalogWatchdogSingleChannelConfig
/var/folders/m4/4md61f0s1_g0rzfghffqnxvr0000gn/T//ccIWSo2P.s:378    .text.ADC_TempSensorVrefintCmd:0000000000000000 $t
/var/folders/m4/4md61f0s1_g0rzfghffqnxvr0000gn/T//ccIWSo2P.s:384    .text.ADC_TempSensorVrefintCmd:0000000000000000 ADC_TempSensorVrefintCmd
/var/folders/m4/4md61f0s1_g0rzfghffqnxvr0000gn/T//ccIWSo2P.s:409    .text.ADC_TempSensorVrefintCmd:0000000000000018 $d
/var/folders/m4/4md61f0s1_g0rzfghffqnxvr0000gn/T//ccIWSo2P.s:414    .text.ADC_VBATCmd:0000000000000000 $t
/var/folders/m4/4md61f0s1_g0rzfghffqnxvr0000gn/T//ccIWSo2P.s:420    .text.ADC_VBATCmd:0000000000000000 ADC_VBATCmd
/var/folders/m4/4md61f0s1_g0rzfghffqnxvr0000gn/T//ccIWSo2P.s:445    .text.ADC_VBATCmd:0000000000000018 $d
/var/folders/m4/4md61f0s1_g0rzfghffqnxvr0000gn/T//ccIWSo2P.s:450    .text.ADC_RegularChannelConfig:0000000000000000 $t
/var/folders/m4/4md61f0s1_g0rzfghffqnxvr0000gn/T//ccIWSo2P.s:456    .text.ADC_RegularChannelConfig:0000000000000000 ADC_RegularChannelConfig
/var/folders/m4/4md61f0s1_g0rzfghffqnxvr0000gn/T//ccIWSo2P.s:624    .text.ADC_SoftwareStartConv:0000000000000000 $t
/var/folders/m4/4md61f0s1_g0rzfghffqnxvr0000gn/T//ccIWSo2P.s:630    .text.ADC_SoftwareStartConv:0000000000000000 ADC_SoftwareStartConv
/var/folders/m4/4md61f0s1_g0rzfghffqnxvr0000gn/T//ccIWSo2P.s:647    .text.ADC_GetSoftwareStartConvStatus:0000000000000000 $t
/var/folders/m4/4md61f0s1_g0rzfghffqnxvr0000gn/T//ccIWSo2P.s:653    .text.ADC_GetSoftwareStartConvStatus:0000000000000000 ADC_GetSoftwareStartConvStatus
/var/folders/m4/4md61f0s1_g0rzfghffqnxvr0000gn/T//ccIWSo2P.s:672    .text.ADC_EOCOnEachRegularChannelCmd:0000000000000000 $t
/var/folders/m4/4md61f0s1_g0rzfghffqnxvr0000gn/T//ccIWSo2P.s:678    .text.ADC_EOCOnEachRegularChannelCmd:0000000000000000 ADC_EOCOnEachRegularChannelCmd
/var/folders/m4/4md61f0s1_g0rzfghffqnxvr0000gn/T//ccIWSo2P.s:703    .text.ADC_ContinuousModeCmd:0000000000000000 $t
/var/folders/m4/4md61f0s1_g0rzfghffqnxvr0000gn/T//ccIWSo2P.s:709    .text.ADC_ContinuousModeCmd:0000000000000000 ADC_ContinuousModeCmd
/var/folders/m4/4md61f0s1_g0rzfghffqnxvr0000gn/T//ccIWSo2P.s:734    .text.ADC_DiscModeChannelCountConfig:0000000000000000 $t
/var/folders/m4/4md61f0s1_g0rzfghffqnxvr0000gn/T//ccIWSo2P.s:740    .text.ADC_DiscModeChannelCountConfig:0000000000000000 ADC_DiscModeChannelCountConfig
/var/folders/m4/4md61f0s1_g0rzfghffqnxvr0000gn/T//ccIWSo2P.s:767    .text.ADC_DiscModeCmd:0000000000000000 $t
/var/folders/m4/4md61f0s1_g0rzfghffqnxvr0000gn/T//ccIWSo2P.s:773    .text.ADC_DiscModeCmd:0000000000000000 ADC_DiscModeCmd
/var/folders/m4/4md61f0s1_g0rzfghffqnxvr0000gn/T//ccIWSo2P.s:798    .text.ADC_GetConversionValue:0000000000000000 $t
/var/folders/m4/4md61f0s1_g0rzfghffqnxvr0000gn/T//ccIWSo2P.s:804    .text.ADC_GetConversionValue:0000000000000000 ADC_GetConversionValue
/var/folders/m4/4md61f0s1_g0rzfghffqnxvr0000gn/T//ccIWSo2P.s:822    .text.ADC_GetMultiModeConversionValue:0000000000000000 $t
/var/folders/m4/4md61f0s1_g0rzfghffqnxvr0000gn/T//ccIWSo2P.s:828    .text.ADC_GetMultiModeConversionValue:0000000000000000 ADC_GetMultiModeConversionValue
/var/folders/m4/4md61f0s1_g0rzfghffqnxvr0000gn/T//ccIWSo2P.s:843    .text.ADC_GetMultiModeConversionValue:0000000000000008 $d
/var/folders/m4/4md61f0s1_g0rzfghffqnxvr0000gn/T//ccIWSo2P.s:848    .text.ADC_DMACmd:0000000000000000 $t
/var/folders/m4/4md61f0s1_g0rzfghffqnxvr0000gn/T//ccIWSo2P.s:854    .text.ADC_DMACmd:0000000000000000 ADC_DMACmd
/var/folders/m4/4md61f0s1_g0rzfghffqnxvr0000gn/T//ccIWSo2P.s:879    .text.ADC_DMARequestAfterLastTransferCmd:0000000000000000 $t
/var/folders/m4/4md61f0s1_g0rzfghffqnxvr0000gn/T//ccIWSo2P.s:885    .text.ADC_DMARequestAfterLastTransferCmd:0000000000000000 ADC_DMARequestAfterLastTransferCmd
/var/folders/m4/4md61f0s1_g0rzfghffqnxvr0000gn/T//ccIWSo2P.s:910    .text.ADC_MultiModeDMARequestAfterLastTransferCmd:0000000000000000 $t
/var/folders/m4/4md61f0s1_g0rzfghffqnxvr0000gn/T//ccIWSo2P.s:916    .text.ADC_MultiModeDMARequestAfterLastTransferCmd:0000000000000000 ADC_MultiModeDMARequestAfterLastTransferCmd
/var/folders/m4/4md61f0s1_g0rzfghffqnxvr0000gn/T//ccIWSo2P.s:941    .text.ADC_MultiModeDMARequestAfterLastTransferCmd:0000000000000018 $d
/var/folders/m4/4md61f0s1_g0rzfghffqnxvr0000gn/T//ccIWSo2P.s:946    .text.ADC_InjectedChannelConfig:0000000000000000 $t
/var/folders/m4/4md61f0s1_g0rzfghffqnxvr0000gn/T//ccIWSo2P.s:952    .text.ADC_InjectedChannelConfig:0000000000000000 ADC_InjectedChannelConfig
/var/folders/m4/4md61f0s1_g0rzfghffqnxvr0000gn/T//ccIWSo2P.s:1052   .text.ADC_InjectedSequencerLengthConfig:0000000000000000 $t
ARM GAS  /var/folders/m4/4md61f0s1_g0rzfghffqnxvr0000gn/T//ccIWSo2P.s 			page 94


/var/folders/m4/4md61f0s1_g0rzfghffqnxvr0000gn/T//ccIWSo2P.s:1058   .text.ADC_InjectedSequencerLengthConfig:0000000000000000 ADC_InjectedSequencerLengthConfig
/var/folders/m4/4md61f0s1_g0rzfghffqnxvr0000gn/T//ccIWSo2P.s:1085   .text.ADC_SetInjectedOffset:0000000000000000 $t
/var/folders/m4/4md61f0s1_g0rzfghffqnxvr0000gn/T//ccIWSo2P.s:1091   .text.ADC_SetInjectedOffset:0000000000000000 ADC_SetInjectedOffset
/var/folders/m4/4md61f0s1_g0rzfghffqnxvr0000gn/T//ccIWSo2P.s:1123   .text.ADC_ExternalTrigInjectedConvConfig:0000000000000000 $t
/var/folders/m4/4md61f0s1_g0rzfghffqnxvr0000gn/T//ccIWSo2P.s:1129   .text.ADC_ExternalTrigInjectedConvConfig:0000000000000000 ADC_ExternalTrigInjectedConvConfig
/var/folders/m4/4md61f0s1_g0rzfghffqnxvr0000gn/T//ccIWSo2P.s:1153   .text.ADC_ExternalTrigInjectedConvEdgeConfig:0000000000000000 $t
/var/folders/m4/4md61f0s1_g0rzfghffqnxvr0000gn/T//ccIWSo2P.s:1159   .text.ADC_ExternalTrigInjectedConvEdgeConfig:0000000000000000 ADC_ExternalTrigInjectedConvEdgeConfig
/var/folders/m4/4md61f0s1_g0rzfghffqnxvr0000gn/T//ccIWSo2P.s:1183   .text.ADC_SoftwareStartInjectedConv:0000000000000000 $t
/var/folders/m4/4md61f0s1_g0rzfghffqnxvr0000gn/T//ccIWSo2P.s:1189   .text.ADC_SoftwareStartInjectedConv:0000000000000000 ADC_SoftwareStartInjectedConv
/var/folders/m4/4md61f0s1_g0rzfghffqnxvr0000gn/T//ccIWSo2P.s:1206   .text.ADC_GetSoftwareStartInjectedConvCmdStatus:0000000000000000 $t
/var/folders/m4/4md61f0s1_g0rzfghffqnxvr0000gn/T//ccIWSo2P.s:1212   .text.ADC_GetSoftwareStartInjectedConvCmdStatus:0000000000000000 ADC_GetSoftwareStartInjectedConvCmdStatus
/var/folders/m4/4md61f0s1_g0rzfghffqnxvr0000gn/T//ccIWSo2P.s:1231   .text.ADC_AutoInjectedConvCmd:0000000000000000 $t
/var/folders/m4/4md61f0s1_g0rzfghffqnxvr0000gn/T//ccIWSo2P.s:1237   .text.ADC_AutoInjectedConvCmd:0000000000000000 ADC_AutoInjectedConvCmd
/var/folders/m4/4md61f0s1_g0rzfghffqnxvr0000gn/T//ccIWSo2P.s:1262   .text.ADC_InjectedDiscModeCmd:0000000000000000 $t
/var/folders/m4/4md61f0s1_g0rzfghffqnxvr0000gn/T//ccIWSo2P.s:1268   .text.ADC_InjectedDiscModeCmd:0000000000000000 ADC_InjectedDiscModeCmd
/var/folders/m4/4md61f0s1_g0rzfghffqnxvr0000gn/T//ccIWSo2P.s:1293   .text.ADC_GetInjectedConversionValue:0000000000000000 $t
/var/folders/m4/4md61f0s1_g0rzfghffqnxvr0000gn/T//ccIWSo2P.s:1299   .text.ADC_GetInjectedConversionValue:0000000000000000 ADC_GetInjectedConversionValue
/var/folders/m4/4md61f0s1_g0rzfghffqnxvr0000gn/T//ccIWSo2P.s:1334   .text.ADC_ITConfig:0000000000000000 $t
/var/folders/m4/4md61f0s1_g0rzfghffqnxvr0000gn/T//ccIWSo2P.s:1340   .text.ADC_ITConfig:0000000000000000 ADC_ITConfig
/var/folders/m4/4md61f0s1_g0rzfghffqnxvr0000gn/T//ccIWSo2P.s:1375   .text.ADC_GetFlagStatus:0000000000000000 $t
/var/folders/m4/4md61f0s1_g0rzfghffqnxvr0000gn/T//ccIWSo2P.s:1381   .text.ADC_GetFlagStatus:0000000000000000 ADC_GetFlagStatus
/var/folders/m4/4md61f0s1_g0rzfghffqnxvr0000gn/T//ccIWSo2P.s:1404   .text.ADC_ClearFlag:0000000000000000 $t
/var/folders/m4/4md61f0s1_g0rzfghffqnxvr0000gn/T//ccIWSo2P.s:1410   .text.ADC_ClearFlag:0000000000000000 ADC_ClearFlag
/var/folders/m4/4md61f0s1_g0rzfghffqnxvr0000gn/T//ccIWSo2P.s:1427   .text.ADC_GetITStatus:0000000000000000 $t
/var/folders/m4/4md61f0s1_g0rzfghffqnxvr0000gn/T//ccIWSo2P.s:1433   .text.ADC_GetITStatus:0000000000000000 ADC_GetITStatus
/var/folders/m4/4md61f0s1_g0rzfghffqnxvr0000gn/T//ccIWSo2P.s:1467   .text.ADC_ClearITPendingBit:0000000000000000 $t
/var/folders/m4/4md61f0s1_g0rzfghffqnxvr0000gn/T//ccIWSo2P.s:1473   .text.ADC_ClearITPendingBit:0000000000000000 ADC_ClearITPendingBit
                     .debug_frame:0000000000000010 $d

UNDEFINED SYMBOLS
RCC_APB2PeriphResetCmd
