ARM GAS  /var/folders/m4/4md61f0s1_g0rzfghffqnxvr0000gn/T//ccWNZ4sA.s 			page 1


   1              		.syntax unified
   2              		.cpu cortex-m4
   3              		.eabi_attribute 27, 1
   4              		.eabi_attribute 28, 1
   5              		.fpu fpv4-sp-d16
   6              		.eabi_attribute 20, 1
   7              		.eabi_attribute 21, 1
   8              		.eabi_attribute 23, 3
   9              		.eabi_attribute 24, 1
  10              		.eabi_attribute 25, 1
  11              		.eabi_attribute 26, 1
  12              		.eabi_attribute 30, 2
  13              		.eabi_attribute 34, 1
  14              		.eabi_attribute 18, 4
  15              		.thumb
  16              		.syntax unified
  17              		.file	"stm32f4xx_dma.c"
  18              		.text
  19              	.Ltext0:
  20              		.cfi_sections	.debug_frame
  21              		.section	.text.DMA_DeInit,"ax",%progbits
  22              		.align	2
  23              		.p2align 4,,15
  24              		.global	DMA_DeInit
  25              		.thumb
  26              		.thumb_func
  27              		.type	DMA_DeInit, %function
  28              	DMA_DeInit:
  29              	.LFB123:
  30              		.file 1 "ChibiOS_16.1.4/ext/stdperiph_stm32f4/src/stm32f4xx_dma.c"
  31              		.loc 1 202 0
  32              		.cfi_startproc
  33              		@ args = 0, pretend = 0, frame = 0
  34              		@ frame_needed = 0, uses_anonymous_args = 0
  35              		@ link register save eliminated.
  36              	.LVL0:
  37              		.loc 1 207 0
  38 0000 0268     		ldr	r2, [r0]
  39              		.loc 1 228 0
  40 0002 3749     		ldr	r1, .L29
  41              		.loc 1 210 0
  42 0004 0023     		movs	r3, #0
  43              		.loc 1 202 0
  44 0006 10B4     		push	{r4}
  45              		.cfi_def_cfa_offset 4
  46              		.cfi_offset 4, -4
  47              		.loc 1 207 0
  48 0008 22F00102 		bic	r2, r2, #1
  49              		.loc 1 225 0
  50 000c 2124     		movs	r4, #33
  51              		.loc 1 228 0
  52 000e 8842     		cmp	r0, r1
  53              		.loc 1 207 0
  54 0010 0260     		str	r2, [r0]
  55              		.loc 1 210 0
  56 0012 0360     		str	r3, [r0]
  57              		.loc 1 213 0
ARM GAS  /var/folders/m4/4md61f0s1_g0rzfghffqnxvr0000gn/T//ccWNZ4sA.s 			page 2


  58 0014 4360     		str	r3, [r0, #4]
  59              		.loc 1 216 0
  60 0016 8360     		str	r3, [r0, #8]
  61              		.loc 1 219 0
  62 0018 C360     		str	r3, [r0, #12]
  63              		.loc 1 222 0
  64 001a 0361     		str	r3, [r0, #16]
  65              		.loc 1 225 0
  66 001c 4461     		str	r4, [r0, #20]
  67              		.loc 1 228 0
  68 001e 4DD0     		beq	.L27
  69              		.loc 1 233 0
  70 0020 304B     		ldr	r3, .L29+4
  71 0022 9842     		cmp	r0, r3
  72 0024 35D0     		beq	.L19
  73              		.loc 1 238 0
  74 0026 304B     		ldr	r3, .L29+8
  75 0028 9842     		cmp	r0, r3
  76 002a 39D0     		beq	.L20
  77              		.loc 1 243 0
  78 002c 2F4B     		ldr	r3, .L29+12
  79 002e 9842     		cmp	r0, r3
  80 0030 3DD0     		beq	.L21
  81              		.loc 1 248 0
  82 0032 2F4B     		ldr	r3, .L29+16
  83 0034 9842     		cmp	r0, r3
  84 0036 47D0     		beq	.L22
  85              		.loc 1 253 0
  86 0038 2E4B     		ldr	r3, .L29+20
  87 003a 9842     		cmp	r0, r3
  88 003c 48D0     		beq	.L23
  89              		.loc 1 258 0
  90 003e 2E4B     		ldr	r3, .L29+24
  91 0040 9842     		cmp	r0, r3
  92 0042 1DD0     		beq	.L24
  93              		.loc 1 263 0
  94 0044 2D4B     		ldr	r3, .L29+28
  95 0046 9842     		cmp	r0, r3
  96 0048 1ED0     		beq	.L25
  97              		.loc 1 268 0
  98 004a 2D4B     		ldr	r3, .L29+32
  99 004c 9842     		cmp	r0, r3
 100 004e 43D0     		beq	.L28
 101              		.loc 1 273 0
 102 0050 2C4B     		ldr	r3, .L29+36
 103 0052 9842     		cmp	r0, r3
 104 0054 1DD0     		beq	.L19
 105              		.loc 1 278 0
 106 0056 2C4B     		ldr	r3, .L29+40
 107 0058 9842     		cmp	r0, r3
 108 005a 21D0     		beq	.L20
 109              		.loc 1 283 0
 110 005c 2B4B     		ldr	r3, .L29+44
 111 005e 9842     		cmp	r0, r3
 112 0060 25D0     		beq	.L21
 113              		.loc 1 288 0
 114 0062 2B4B     		ldr	r3, .L29+48
ARM GAS  /var/folders/m4/4md61f0s1_g0rzfghffqnxvr0000gn/T//ccWNZ4sA.s 			page 3


 115 0064 9842     		cmp	r0, r3
 116 0066 2FD0     		beq	.L22
 117              		.loc 1 293 0
 118 0068 2A4B     		ldr	r3, .L29+52
 119 006a 9842     		cmp	r0, r3
 120 006c 30D0     		beq	.L23
 121              		.loc 1 298 0
 122 006e 2A4B     		ldr	r3, .L29+56
 123 0070 9842     		cmp	r0, r3
 124 0072 05D0     		beq	.L24
 125              		.loc 1 305 0
 126 0074 294B     		ldr	r3, .L29+60
 127 0076 9842     		cmp	r0, r3
 128 0078 06D0     		beq	.L25
 129              	.L1:
 130              		.loc 1 311 0
 131 007a 5DF8044B 		ldr	r4, [sp], #4
 132              		.cfi_remember_state
 133              		.cfi_restore 4
 134              		.cfi_def_cfa_offset 0
 135 007e 7047     		bx	lr
 136              	.L24:
 137              		.cfi_restore_state
 138              		.loc 1 301 0
 139 0080 274A     		ldr	r2, .L29+64
 140 0082 43F8942C 		str	r2, [r3, #-148]
 141 0086 F8E7     		b	.L1
 142              	.L25:
 143              		.loc 1 308 0
 144 0088 4FF03D52 		mov	r2, #792723456
 145 008c 43F8AC2C 		str	r2, [r3, #-172]
 146              		.loc 1 311 0
 147 0090 F3E7     		b	.L1
 148              	.L19:
 149              		.loc 1 276 0
 150 0092 4FF47462 		mov	r2, #3904
 151 0096 43F8202C 		str	r2, [r3, #-32]
 152              		.loc 1 311 0
 153 009a 5DF8044B 		ldr	r4, [sp], #4
 154              		.cfi_remember_state
 155              		.cfi_restore 4
 156              		.cfi_def_cfa_offset 0
 157 009e 7047     		bx	lr
 158              	.L20:
 159              		.cfi_restore_state
 160              		.loc 1 281 0
 161 00a0 4FF47412 		mov	r2, #3997696
 162 00a4 43F8382C 		str	r2, [r3, #-56]
 163              		.loc 1 311 0
 164 00a8 5DF8044B 		ldr	r4, [sp], #4
 165              		.cfi_remember_state
 166              		.cfi_restore 4
 167              		.cfi_def_cfa_offset 0
 168 00ac 7047     		bx	lr
 169              	.L21:
 170              		.cfi_restore_state
 171              		.loc 1 286 0
ARM GAS  /var/folders/m4/4md61f0s1_g0rzfghffqnxvr0000gn/T//ccWNZ4sA.s 			page 4


 172 00ae 4FF07462 		mov	r2, #255852544
 173 00b2 43F8502C 		str	r2, [r3, #-80]
 174              		.loc 1 311 0
 175 00b6 5DF8044B 		ldr	r4, [sp], #4
 176              		.cfi_remember_state
 177              		.cfi_restore 4
 178              		.cfi_def_cfa_offset 0
 179 00ba 7047     		bx	lr
 180              	.L27:
 181              		.cfi_restore_state
 182              		.loc 1 231 0
 183 00bc 194B     		ldr	r3, .L29+68
 184              		.loc 1 311 0
 185 00be 5DF8044B 		ldr	r4, [sp], #4
 186              		.cfi_remember_state
 187              		.cfi_restore 4
 188              		.cfi_def_cfa_offset 0
 189              		.loc 1 231 0
 190 00c2 3D22     		movs	r2, #61
 191 00c4 9A60     		str	r2, [r3, #8]
 192              		.loc 1 311 0
 193 00c6 7047     		bx	lr
 194              	.L22:
 195              		.cfi_restore_state
 196              		.loc 1 291 0
 197 00c8 174A     		ldr	r2, .L29+72
 198 00ca 43F8642C 		str	r2, [r3, #-100]
 199 00ce D4E7     		b	.L1
 200              	.L23:
 201              		.loc 1 296 0
 202 00d0 164A     		ldr	r2, .L29+76
 203 00d2 43F87C2C 		str	r2, [r3, #-124]
 204 00d6 D0E7     		b	.L1
 205              	.L28:
 206              		.loc 1 271 0
 207 00d8 3D22     		movs	r2, #61
 208 00da 43F8082C 		str	r2, [r3, #-8]
 209 00de CCE7     		b	.L1
 210              	.L30:
 211              		.align	2
 212              	.L29:
 213 00e0 10600240 		.word	1073897488
 214 00e4 28600240 		.word	1073897512
 215 00e8 40600240 		.word	1073897536
 216 00ec 58600240 		.word	1073897560
 217 00f0 70600240 		.word	1073897584
 218 00f4 88600240 		.word	1073897608
 219 00f8 A0600240 		.word	1073897632
 220 00fc B8600240 		.word	1073897656
 221 0100 10640240 		.word	1073898512
 222 0104 28640240 		.word	1073898536
 223 0108 40640240 		.word	1073898560
 224 010c 58640240 		.word	1073898584
 225 0110 70640240 		.word	1073898608
 226 0114 88640240 		.word	1073898632
 227 0118 A0640240 		.word	1073898656
 228 011c B8640240 		.word	1073898680
ARM GAS  /var/folders/m4/4md61f0s1_g0rzfghffqnxvr0000gn/T//ccWNZ4sA.s 			page 5


 229 0120 00003D20 		.word	540868608
 230 0124 00600240 		.word	1073897472
 231 0128 3D000020 		.word	536870973
 232 012c 400F0020 		.word	536874816
 233              		.cfi_endproc
 234              	.LFE123:
 235              		.size	DMA_DeInit, .-DMA_DeInit
 236              		.section	.text.DMA_Init,"ax",%progbits
 237              		.align	2
 238              		.p2align 4,,15
 239              		.global	DMA_Init
 240              		.thumb
 241              		.thumb_func
 242              		.type	DMA_Init, %function
 243              	DMA_Init:
 244              	.LFB124:
 245              		.loc 1 325 0
 246              		.cfi_startproc
 247              		@ args = 0, pretend = 0, frame = 0
 248              		@ frame_needed = 0, uses_anonymous_args = 0
 249              		@ link register save eliminated.
 250              	.LVL1:
 251              		.loc 1 365 0
 252 0000 01F11802 		add	r2, r1, #24
 253              		.loc 1 325 0
 254 0004 F0B4     		push	{r4, r5, r6, r7}
 255              		.cfi_def_cfa_offset 16
 256              		.cfi_offset 4, -16
 257              		.cfi_offset 5, -12
 258              		.cfi_offset 6, -8
 259              		.cfi_offset 7, -4
 260              		.loc 1 365 0
 261 0006 8CCA     		ldmia	r2, {r2, r3, r7}
 262 0008 CD68     		ldr	r5, [r1, #12]
 263 000a 0E68     		ldr	r6, [r1]
 264 000c 4C69     		ldr	r4, [r1, #20]
 265 000e 2E43     		orrs	r6, r6, r5
 266 0010 2643     		orrs	r6, r6, r4
 267 0012 1643     		orrs	r6, r6, r2
 268 0014 1E43     		orrs	r6, r6, r3
 269 0016 4A6A     		ldr	r2, [r1, #36]
 270 0018 8B6A     		ldr	r3, [r1, #40]
 271 001a 4D6B     		ldr	r5, [r1, #52]
 272 001c 8C6B     		ldr	r4, [r1, #56]
 273 001e 3E43     		orrs	r6, r6, r7
 274 0020 1643     		orrs	r6, r6, r2
 275 0022 1E43     		orrs	r6, r6, r3
 276              		.loc 1 349 0
 277 0024 0B4A     		ldr	r2, .L33
 278              		.loc 1 346 0
 279 0026 0368     		ldr	r3, [r0]
 280              	.LVL2:
 281              		.loc 1 384 0
 282 0028 CF6A     		ldr	r7, [r1, #44]
 283              		.loc 1 365 0
 284 002a 3543     		orrs	r5, r5, r6
 285 002c 2C43     		orrs	r4, r4, r5
ARM GAS  /var/folders/m4/4md61f0s1_g0rzfghffqnxvr0000gn/T//ccWNZ4sA.s 			page 6


 286              		.loc 1 349 0
 287 002e 1A40     		ands	r2, r2, r3
 288              	.LVL3:
 289              		.loc 1 365 0
 290 0030 2243     		orrs	r2, r2, r4
 291              	.LVL4:
 292              		.loc 1 372 0
 293 0032 0260     		str	r2, [r0]
 294              		.loc 1 384 0
 295 0034 0B6B     		ldr	r3, [r1, #48]
 296              		.loc 1 376 0
 297 0036 4269     		ldr	r2, [r0, #20]
 298              	.LVL5:
 299              		.loc 1 391 0
 300 0038 0D69     		ldr	r5, [r1, #16]
 301              		.loc 1 395 0
 302 003a 4C68     		ldr	r4, [r1, #4]
 303              		.loc 1 399 0
 304 003c 8968     		ldr	r1, [r1, #8]
 305              	.LVL6:
 306              		.loc 1 384 0
 307 003e 3B43     		orrs	r3, r3, r7
 308              		.loc 1 379 0
 309 0040 22F00702 		bic	r2, r2, #7
 310              	.LVL7:
 311              		.loc 1 384 0
 312 0044 1343     		orrs	r3, r3, r2
 313              	.LVL8:
 314              		.loc 1 387 0
 315 0046 4361     		str	r3, [r0, #20]
 316              		.loc 1 391 0
 317 0048 4560     		str	r5, [r0, #4]
 318              		.loc 1 395 0
 319 004a 8460     		str	r4, [r0, #8]
 320              		.loc 1 399 0
 321 004c C160     		str	r1, [r0, #12]
 322              		.loc 1 400 0
 323 004e F0BC     		pop	{r4, r5, r6, r7}
 324              		.cfi_restore 7
 325              		.cfi_restore 6
 326              		.cfi_restore 5
 327              		.cfi_restore 4
 328              		.cfi_def_cfa_offset 0
 329 0050 7047     		bx	lr
 330              	.L34:
 331 0052 00BF     		.align	2
 332              	.L33:
 333 0054 3F801CF0 		.word	-266567617
 334              		.cfi_endproc
 335              	.LFE124:
 336              		.size	DMA_Init, .-DMA_Init
 337              		.section	.text.DMA_StructInit,"ax",%progbits
 338              		.align	2
 339              		.p2align 4,,15
 340              		.global	DMA_StructInit
 341              		.thumb
 342              		.thumb_func
ARM GAS  /var/folders/m4/4md61f0s1_g0rzfghffqnxvr0000gn/T//ccWNZ4sA.s 			page 7


 343              		.type	DMA_StructInit, %function
 344              	DMA_StructInit:
 345              	.LFB125:
 346              		.loc 1 409 0
 347              		.cfi_startproc
 348              		@ args = 0, pretend = 0, frame = 0
 349              		@ frame_needed = 0, uses_anonymous_args = 0
 350              		@ link register save eliminated.
 351              	.LVL9:
 352              		.loc 1 412 0
 353 0000 0023     		movs	r3, #0
 354 0002 0360     		str	r3, [r0]
 355              		.loc 1 415 0
 356 0004 4360     		str	r3, [r0, #4]
 357              		.loc 1 418 0
 358 0006 8360     		str	r3, [r0, #8]
 359              		.loc 1 421 0
 360 0008 C360     		str	r3, [r0, #12]
 361              		.loc 1 424 0
 362 000a 0361     		str	r3, [r0, #16]
 363              		.loc 1 427 0
 364 000c 4361     		str	r3, [r0, #20]
 365              		.loc 1 430 0
 366 000e 8361     		str	r3, [r0, #24]
 367              		.loc 1 433 0
 368 0010 C361     		str	r3, [r0, #28]
 369              		.loc 1 436 0
 370 0012 0362     		str	r3, [r0, #32]
 371              		.loc 1 439 0
 372 0014 4362     		str	r3, [r0, #36]
 373              		.loc 1 442 0
 374 0016 8362     		str	r3, [r0, #40]
 375              		.loc 1 445 0
 376 0018 C362     		str	r3, [r0, #44]
 377              		.loc 1 448 0
 378 001a 0363     		str	r3, [r0, #48]
 379              		.loc 1 451 0
 380 001c 4363     		str	r3, [r0, #52]
 381              		.loc 1 454 0
 382 001e 8363     		str	r3, [r0, #56]
 383 0020 7047     		bx	lr
 384              		.cfi_endproc
 385              	.LFE125:
 386              		.size	DMA_StructInit, .-DMA_StructInit
 387 0022 00BF     		.section	.text.DMA_Cmd,"ax",%progbits
 388              		.align	2
 389              		.p2align 4,,15
 390              		.global	DMA_Cmd
 391              		.thumb
 392              		.thumb_func
 393              		.type	DMA_Cmd, %function
 394              	DMA_Cmd:
 395              	.LFB126:
 396              		.loc 1 484 0
 397              		.cfi_startproc
 398              		@ args = 0, pretend = 0, frame = 0
 399              		@ frame_needed = 0, uses_anonymous_args = 0
ARM GAS  /var/folders/m4/4md61f0s1_g0rzfghffqnxvr0000gn/T//ccWNZ4sA.s 			page 8


 400              		@ link register save eliminated.
 401              	.LVL10:
 402              		.loc 1 492 0
 403 0000 0368     		ldr	r3, [r0]
 404              		.loc 1 489 0
 405 0002 19B9     		cbnz	r1, .L39
 406              		.loc 1 497 0
 407 0004 23F00103 		bic	r3, r3, #1
 408 0008 0360     		str	r3, [r0]
 409 000a 7047     		bx	lr
 410              	.L39:
 411              		.loc 1 492 0
 412 000c 43F00103 		orr	r3, r3, #1
 413 0010 0360     		str	r3, [r0]
 414 0012 7047     		bx	lr
 415              		.cfi_endproc
 416              	.LFE126:
 417              		.size	DMA_Cmd, .-DMA_Cmd
 418              		.section	.text.DMA_PeriphIncOffsetSizeConfig,"ax",%progbits
 419              		.align	2
 420              		.p2align 4,,15
 421              		.global	DMA_PeriphIncOffsetSizeConfig
 422              		.thumb
 423              		.thumb_func
 424              		.type	DMA_PeriphIncOffsetSizeConfig, %function
 425              	DMA_PeriphIncOffsetSizeConfig:
 426              	.LFB127:
 427              		.loc 1 520 0
 428              		.cfi_startproc
 429              		@ args = 0, pretend = 0, frame = 0
 430              		@ frame_needed = 0, uses_anonymous_args = 0
 431              		@ link register save eliminated.
 432              	.LVL11:
 433              		.loc 1 529 0
 434 0000 0368     		ldr	r3, [r0]
 435              		.loc 1 526 0
 436 0002 19B9     		cbnz	r1, .L43
 437              		.loc 1 534 0
 438 0004 23F40043 		bic	r3, r3, #32768
 439 0008 0360     		str	r3, [r0]
 440 000a 7047     		bx	lr
 441              	.L43:
 442              		.loc 1 529 0
 443 000c 43F40043 		orr	r3, r3, #32768
 444 0010 0360     		str	r3, [r0]
 445 0012 7047     		bx	lr
 446              		.cfi_endproc
 447              	.LFE127:
 448              		.size	DMA_PeriphIncOffsetSizeConfig, .-DMA_PeriphIncOffsetSizeConfig
 449              		.section	.text.DMA_FlowControllerConfig,"ax",%progbits
 450              		.align	2
 451              		.p2align 4,,15
 452              		.global	DMA_FlowControllerConfig
 453              		.thumb
 454              		.thumb_func
 455              		.type	DMA_FlowControllerConfig, %function
 456              	DMA_FlowControllerConfig:
ARM GAS  /var/folders/m4/4md61f0s1_g0rzfghffqnxvr0000gn/T//ccWNZ4sA.s 			page 9


 457              	.LFB128:
 458              		.loc 1 556 0
 459              		.cfi_startproc
 460              		@ args = 0, pretend = 0, frame = 0
 461              		@ frame_needed = 0, uses_anonymous_args = 0
 462              		@ link register save eliminated.
 463              	.LVL12:
 464              		.loc 1 565 0
 465 0000 0368     		ldr	r3, [r0]
 466              		.loc 1 562 0
 467 0002 19B9     		cbnz	r1, .L47
 468              		.loc 1 570 0
 469 0004 23F02003 		bic	r3, r3, #32
 470 0008 0360     		str	r3, [r0]
 471 000a 7047     		bx	lr
 472              	.L47:
 473              		.loc 1 565 0
 474 000c 43F02003 		orr	r3, r3, #32
 475 0010 0360     		str	r3, [r0]
 476 0012 7047     		bx	lr
 477              		.cfi_endproc
 478              	.LFE128:
 479              		.size	DMA_FlowControllerConfig, .-DMA_FlowControllerConfig
 480              		.section	.text.DMA_SetCurrDataCounter,"ax",%progbits
 481              		.align	2
 482              		.p2align 4,,15
 483              		.global	DMA_SetCurrDataCounter
 484              		.thumb
 485              		.thumb_func
 486              		.type	DMA_SetCurrDataCounter, %function
 487              	DMA_SetCurrDataCounter:
 488              	.LFB129:
 489              		.loc 1 638 0
 490              		.cfi_startproc
 491              		@ args = 0, pretend = 0, frame = 0
 492              		@ frame_needed = 0, uses_anonymous_args = 0
 493              		@ link register save eliminated.
 494              	.LVL13:
 495              		.loc 1 643 0
 496 0000 4160     		str	r1, [r0, #4]
 497 0002 7047     		bx	lr
 498              		.cfi_endproc
 499              	.LFE129:
 500              		.size	DMA_SetCurrDataCounter, .-DMA_SetCurrDataCounter
 501              		.section	.text.DMA_GetCurrDataCounter,"ax",%progbits
 502              		.align	2
 503              		.p2align 4,,15
 504              		.global	DMA_GetCurrDataCounter
 505              		.thumb
 506              		.thumb_func
 507              		.type	DMA_GetCurrDataCounter, %function
 508              	DMA_GetCurrDataCounter:
 509              	.LFB130:
 510              		.loc 1 653 0
 511              		.cfi_startproc
 512              		@ args = 0, pretend = 0, frame = 0
 513              		@ frame_needed = 0, uses_anonymous_args = 0
ARM GAS  /var/folders/m4/4md61f0s1_g0rzfghffqnxvr0000gn/T//ccWNZ4sA.s 			page 10


 514              		@ link register save eliminated.
 515              	.LVL14:
 516              		.loc 1 658 0
 517 0000 4068     		ldr	r0, [r0, #4]
 518              	.LVL15:
 519              		.loc 1 659 0
 520 0002 80B2     		uxth	r0, r0
 521 0004 7047     		bx	lr
 522              		.cfi_endproc
 523              	.LFE130:
 524              		.size	DMA_GetCurrDataCounter, .-DMA_GetCurrDataCounter
 525 0006 00BF     		.section	.text.DMA_DoubleBufferModeConfig,"ax",%progbits
 526              		.align	2
 527              		.p2align 4,,15
 528              		.global	DMA_DoubleBufferModeConfig
 529              		.thumb
 530              		.thumb_func
 531              		.type	DMA_DoubleBufferModeConfig, %function
 532              	DMA_DoubleBufferModeConfig:
 533              	.LFB131:
 534              		.loc 1 737 0
 535              		.cfi_startproc
 536              		@ args = 0, pretend = 0, frame = 0
 537              		@ frame_needed = 0, uses_anonymous_args = 0
 538              		@ link register save eliminated.
 539              	.LVL16:
 540              		.loc 1 745 0
 541 0000 0368     		ldr	r3, [r0]
 542              		.loc 1 742 0
 543 0002 22B9     		cbnz	r2, .L53
 544              		.loc 1 750 0
 545 0004 23F40023 		bic	r3, r3, #524288
 546 0008 0360     		str	r3, [r0]
 547              		.loc 1 754 0
 548 000a 0161     		str	r1, [r0, #16]
 549 000c 7047     		bx	lr
 550              	.L53:
 551              		.loc 1 745 0
 552 000e 43F40023 		orr	r3, r3, #524288
 553 0012 0360     		str	r3, [r0]
 554              		.loc 1 754 0
 555 0014 0161     		str	r1, [r0, #16]
 556 0016 7047     		bx	lr
 557              		.cfi_endproc
 558              	.LFE131:
 559              		.size	DMA_DoubleBufferModeConfig, .-DMA_DoubleBufferModeConfig
 560              		.section	.text.DMA_DoubleBufferModeCmd,"ax",%progbits
 561              		.align	2
 562              		.p2align 4,,15
 563              		.global	DMA_DoubleBufferModeCmd
 564              		.thumb
 565              		.thumb_func
 566              		.type	DMA_DoubleBufferModeCmd, %function
 567              	DMA_DoubleBufferModeCmd:
 568              	.LFB132:
 569              		.loc 1 767 0
 570              		.cfi_startproc
ARM GAS  /var/folders/m4/4md61f0s1_g0rzfghffqnxvr0000gn/T//ccWNZ4sA.s 			page 11


 571              		@ args = 0, pretend = 0, frame = 0
 572              		@ frame_needed = 0, uses_anonymous_args = 0
 573              		@ link register save eliminated.
 574              	.LVL17:
 575              		.loc 1 776 0
 576 0000 0368     		ldr	r3, [r0]
 577              		.loc 1 773 0
 578 0002 19B9     		cbnz	r1, .L57
 579              		.loc 1 781 0
 580 0004 23F48023 		bic	r3, r3, #262144
 581 0008 0360     		str	r3, [r0]
 582 000a 7047     		bx	lr
 583              	.L57:
 584              		.loc 1 776 0
 585 000c 43F48023 		orr	r3, r3, #262144
 586 0010 0360     		str	r3, [r0]
 587 0012 7047     		bx	lr
 588              		.cfi_endproc
 589              	.LFE132:
 590              		.size	DMA_DoubleBufferModeCmd, .-DMA_DoubleBufferModeCmd
 591              		.section	.text.DMA_MemoryTargetConfig,"ax",%progbits
 592              		.align	2
 593              		.p2align 4,,15
 594              		.global	DMA_MemoryTargetConfig
 595              		.thumb
 596              		.thumb_func
 597              		.type	DMA_MemoryTargetConfig, %function
 598              	DMA_MemoryTargetConfig:
 599              	.LFB133:
 600              		.loc 1 809 0
 601              		.cfi_startproc
 602              		@ args = 0, pretend = 0, frame = 0
 603              		@ frame_needed = 0, uses_anonymous_args = 0
 604              		@ link register save eliminated.
 605              	.LVL18:
 606              		.loc 1 815 0
 607 0000 0AB9     		cbnz	r2, .L61
 608              		.loc 1 823 0
 609 0002 C160     		str	r1, [r0, #12]
 610 0004 7047     		bx	lr
 611              	.L61:
 612              		.loc 1 818 0
 613 0006 0161     		str	r1, [r0, #16]
 614 0008 7047     		bx	lr
 615              		.cfi_endproc
 616              	.LFE133:
 617              		.size	DMA_MemoryTargetConfig, .-DMA_MemoryTargetConfig
 618 000a 00BF     		.section	.text.DMA_GetCurrentMemoryTarget,"ax",%progbits
 619              		.align	2
 620              		.p2align 4,,15
 621              		.global	DMA_GetCurrentMemoryTarget
 622              		.thumb
 623              		.thumb_func
 624              		.type	DMA_GetCurrentMemoryTarget, %function
 625              	DMA_GetCurrentMemoryTarget:
 626              	.LFB134:
 627              		.loc 1 834 0
ARM GAS  /var/folders/m4/4md61f0s1_g0rzfghffqnxvr0000gn/T//ccWNZ4sA.s 			page 12


 628              		.cfi_startproc
 629              		@ args = 0, pretend = 0, frame = 0
 630              		@ frame_needed = 0, uses_anonymous_args = 0
 631              		@ link register save eliminated.
 632              	.LVL19:
 633              		.loc 1 841 0
 634 0000 0068     		ldr	r0, [r0]
 635              	.LVL20:
 636              		.loc 1 852 0
 637 0002 C0F3C040 		ubfx	r0, r0, #19, #1
 638              	.LVL21:
 639 0006 7047     		bx	lr
 640              		.cfi_endproc
 641              	.LFE134:
 642              		.size	DMA_GetCurrentMemoryTarget, .-DMA_GetCurrentMemoryTarget
 643              		.section	.text.DMA_GetCmdStatus,"ax",%progbits
 644              		.align	2
 645              		.p2align 4,,15
 646              		.global	DMA_GetCmdStatus
 647              		.thumb
 648              		.thumb_func
 649              		.type	DMA_GetCmdStatus, %function
 650              	DMA_GetCmdStatus:
 651              	.LFB135:
 652              		.loc 1 949 0
 653              		.cfi_startproc
 654              		@ args = 0, pretend = 0, frame = 0
 655              		@ frame_needed = 0, uses_anonymous_args = 0
 656              		@ link register save eliminated.
 657              	.LVL22:
 658              		.loc 1 955 0
 659 0000 0068     		ldr	r0, [r0]
 660              	.LVL23:
 661              		.loc 1 967 0
 662 0002 00F00100 		and	r0, r0, #1
 663              	.LVL24:
 664 0006 7047     		bx	lr
 665              		.cfi_endproc
 666              	.LFE135:
 667              		.size	DMA_GetCmdStatus, .-DMA_GetCmdStatus
 668              		.section	.text.DMA_GetFIFOStatus,"ax",%progbits
 669              		.align	2
 670              		.p2align 4,,15
 671              		.global	DMA_GetFIFOStatus
 672              		.thumb
 673              		.thumb_func
 674              		.type	DMA_GetFIFOStatus, %function
 675              	DMA_GetFIFOStatus:
 676              	.LFB136:
 677              		.loc 1 983 0
 678              		.cfi_startproc
 679              		@ args = 0, pretend = 0, frame = 0
 680              		@ frame_needed = 0, uses_anonymous_args = 0
 681              		@ link register save eliminated.
 682              	.LVL25:
 683              		.loc 1 990 0
 684 0000 4069     		ldr	r0, [r0, #20]
ARM GAS  /var/folders/m4/4md61f0s1_g0rzfghffqnxvr0000gn/T//ccWNZ4sA.s 			page 13


 685              	.LVL26:
 686              		.loc 1 993 0
 687 0002 00F03800 		and	r0, r0, #56
 688              	.LVL27:
 689 0006 7047     		bx	lr
 690              		.cfi_endproc
 691              	.LFE136:
 692              		.size	DMA_GetFIFOStatus, .-DMA_GetFIFOStatus
 693              		.section	.text.DMA_GetFlagStatus,"ax",%progbits
 694              		.align	2
 695              		.p2align 4,,15
 696              		.global	DMA_GetFlagStatus
 697              		.thumb
 698              		.thumb_func
 699              		.type	DMA_GetFlagStatus, %function
 700              	DMA_GetFlagStatus:
 701              	.LFB137:
 702              		.loc 1 1010 0
 703              		.cfi_startproc
 704              		@ args = 0, pretend = 0, frame = 0
 705              		@ frame_needed = 0, uses_anonymous_args = 0
 706              		@ link register save eliminated.
 707              	.LVL28:
 708              		.loc 1 1028 0
 709 0000 0B4B     		ldr	r3, .L71
 710 0002 0C4A     		ldr	r2, .L71+4
 711              		.loc 1 1010 0
 712 0004 10B4     		push	{r4}
 713              		.cfi_def_cfa_offset 4
 714              		.cfi_offset 4, -4
 715              		.loc 1 1020 0
 716 0006 0C4C     		ldr	r4, .L71+8
 717              		.loc 1 1028 0
 718 0008 A042     		cmp	r0, r4
 719 000a 94BF     		ite	ls
 720 000c 1846     		movls	r0, r3
 721 000e 1046     		movhi	r0, r2
 722              	.LVL29:
 723              		.loc 1 1032 0
 724 0010 8B00     		lsls	r3, r1, #2
 725              		.loc 1 1035 0
 726 0012 4CBF     		ite	mi
 727 0014 4368     		ldrmi	r3, [r0, #4]
 728              	.LVL30:
 729              		.loc 1 1040 0
 730 0016 0368     		ldrpl	r3, [r0]
 731              	.LVL31:
 732              		.loc 1 1060 0
 733 0018 5DF8044B 		ldr	r4, [sp], #4
 734              		.cfi_restore 4
 735              		.cfi_def_cfa_offset 0
 736              		.loc 1 1059 0
 737 001c 21F0F021 		bic	r1, r1, #-268374016
 738              	.LVL32:
 739 0020 21F08211 		bic	r1, r1, #8519810
 740 0024 1942     		tst	r1, r3
 741              		.loc 1 1060 0
ARM GAS  /var/folders/m4/4md61f0s1_g0rzfghffqnxvr0000gn/T//ccWNZ4sA.s 			page 14


 742 0026 14BF     		ite	ne
 743 0028 0120     		movne	r0, #1
 744              	.LVL33:
 745 002a 0020     		moveq	r0, #0
 746 002c 7047     		bx	lr
 747              	.L72:
 748 002e 00BF     		.align	2
 749              	.L71:
 750 0030 00600240 		.word	1073897472
 751 0034 00640240 		.word	1073898496
 752 0038 0F640240 		.word	1073898511
 753              		.cfi_endproc
 754              	.LFE137:
 755              		.size	DMA_GetFlagStatus, .-DMA_GetFlagStatus
 756              		.section	.text.DMA_ITConfig,"ax",%progbits
 757              		.align	2
 758              		.p2align 4,,15
 759              		.global	DMA_ITConfig
 760              		.thumb
 761              		.thumb_func
 762              		.type	DMA_ITConfig, %function
 763              	DMA_ITConfig:
 764              	.LFB139:
 765              		.loc 1 1124 0
 766              		.cfi_startproc
 767              		@ args = 0, pretend = 0, frame = 0
 768              		@ frame_needed = 0, uses_anonymous_args = 0
 769              		@ link register save eliminated.
 770              	.LVL34:
 771              		.loc 1 1131 0
 772 0000 0B06     		lsls	r3, r1, #24
 773 0002 0CD5     		bpl	.L74
 774              		.loc 1 1136 0
 775 0004 4369     		ldr	r3, [r0, #20]
 776              		.loc 1 1133 0
 777 0006 AAB1     		cbz	r2, .L75
 778              		.loc 1 1136 0
 779 0008 43F08003 		orr	r3, r3, #128
 780              		.loc 1 1146 0
 781 000c 8029     		cmp	r1, #128
 782              		.loc 1 1136 0
 783 000e 4361     		str	r3, [r0, #20]
 784              		.loc 1 1146 0
 785 0010 0FD0     		beq	.L73
 786              	.L76:
 787              		.loc 1 1151 0
 788 0012 0368     		ldr	r3, [r0]
 789 0014 01F01E01 		and	r1, r1, #30
 790              	.LVL35:
 791 0018 1943     		orrs	r1, r1, r3
 792 001a 0160     		str	r1, [r0]
 793 001c 7047     		bx	lr
 794              	.LVL36:
 795              	.L74:
 796              		.loc 1 1146 0
 797 001e 8029     		cmp	r1, #128
 798 0020 07D0     		beq	.L73
ARM GAS  /var/folders/m4/4md61f0s1_g0rzfghffqnxvr0000gn/T//ccWNZ4sA.s 			page 15


 799              		.loc 1 1148 0
 800 0022 002A     		cmp	r2, #0
 801 0024 F5D1     		bne	.L76
 802              	.L78:
 803              		.loc 1 1156 0
 804 0026 0368     		ldr	r3, [r0]
 805 0028 01F01E01 		and	r1, r1, #30
 806              	.LVL37:
 807 002c 23EA0101 		bic	r1, r3, r1
 808 0030 0160     		str	r1, [r0]
 809              	.L73:
 810 0032 7047     		bx	lr
 811              	.LVL38:
 812              	.L75:
 813              		.loc 1 1141 0
 814 0034 23F08003 		bic	r3, r3, #128
 815              		.loc 1 1146 0
 816 0038 8029     		cmp	r1, #128
 817              		.loc 1 1141 0
 818 003a 4361     		str	r3, [r0, #20]
 819              		.loc 1 1146 0
 820 003c F3D1     		bne	.L78
 821 003e 7047     		bx	lr
 822              		.cfi_endproc
 823              	.LFE139:
 824              		.size	DMA_ITConfig, .-DMA_ITConfig
 825              		.section	.text.DMA_GetITStatus,"ax",%progbits
 826              		.align	2
 827              		.p2align 4,,15
 828              		.global	DMA_GetITStatus
 829              		.thumb
 830              		.thumb_func
 831              		.type	DMA_GetITStatus, %function
 832              	DMA_GetITStatus:
 833              	.LFB140:
 834              		.loc 1 1176 0
 835              		.cfi_startproc
 836              		@ args = 0, pretend = 0, frame = 0
 837              		@ frame_needed = 0, uses_anonymous_args = 0
 838              		@ link register save eliminated.
 839              	.LVL39:
 840 0000 70B4     		push	{r4, r5, r6}
 841              		.cfi_def_cfa_offset 12
 842              		.cfi_offset 4, -12
 843              		.cfi_offset 5, -8
 844              		.cfi_offset 6, -4
 845              		.loc 1 1194 0
 846 0002 104A     		ldr	r2, .L93
 847              		.loc 1 1186 0
 848 0004 104E     		ldr	r6, .L93+4
 849              		.loc 1 1194 0
 850 0006 114C     		ldr	r4, .L93+8
 851              		.loc 1 1198 0
 852 0008 21F0F023 		bic	r3, r1, #-268374016
 853 000c 23F0C315 		bic	r5, r3, #12779715
 854              		.loc 1 1194 0
 855 0010 B042     		cmp	r0, r6
ARM GAS  /var/folders/m4/4md61f0s1_g0rzfghffqnxvr0000gn/T//ccWNZ4sA.s 			page 16


 856 0012 98BF     		it	ls
 857 0014 1446     		movls	r4, r2
 858              	.LVL40:
 859              		.loc 1 1198 0
 860 0016 8DB1     		cbz	r5, .L85
 861              	.LVL41:
 862              		.loc 1 1204 0
 863 0018 0068     		ldr	r0, [r0]
 864              	.LVL42:
 865 001a 00F01E00 		and	r0, r0, #30
 866 001e 00EAD122 		and	r2, r0, r1, lsr #11
 867              	.LVL43:
 868              	.L86:
 869              		.loc 1 1213 0
 870 0022 8900     		lsls	r1, r1, #2
 871              	.LVL44:
 872              		.loc 1 1216 0
 873 0024 4CBF     		ite	mi
 874 0026 6068     		ldrmi	r0, [r4, #4]
 875              	.LVL45:
 876              		.loc 1 1221 0
 877 0028 2068     		ldrpl	r0, [r4]
 878              	.LVL46:
 879              		.loc 1 1228 0
 880 002a 23F08213 		bic	r3, r3, #8519810
 881 002e 1840     		ands	r0, r3, r0
 882              	.LVL47:
 883 0030 02D0     		beq	.L89
 884              		.loc 1 1231 0 discriminator 1
 885 0032 101C     		adds	r0, r2, #0
 886 0034 18BF     		it	ne
 887 0036 0120     		movne	r0, #1
 888              	.L89:
 889              	.LVL48:
 890              		.loc 1 1241 0
 891 0038 70BC     		pop	{r4, r5, r6}
 892              		.cfi_remember_state
 893              		.cfi_restore 6
 894              		.cfi_restore 5
 895              		.cfi_restore 4
 896              		.cfi_def_cfa_offset 0
 897              	.LVL49:
 898 003a 7047     		bx	lr
 899              	.LVL50:
 900              	.L85:
 901              		.cfi_restore_state
 902              		.loc 1 1209 0
 903 003c 4069     		ldr	r0, [r0, #20]
 904              	.LVL51:
 905 003e 00F08002 		and	r2, r0, #128
 906              	.LVL52:
 907 0042 EEE7     		b	.L86
 908              	.L94:
 909              		.align	2
 910              	.L93:
 911 0044 00600240 		.word	1073897472
 912 0048 0F640240 		.word	1073898511
ARM GAS  /var/folders/m4/4md61f0s1_g0rzfghffqnxvr0000gn/T//ccWNZ4sA.s 			page 17


 913 004c 00640240 		.word	1073898496
 914              		.cfi_endproc
 915              	.LFE140:
 916              		.size	DMA_GetITStatus, .-DMA_GetITStatus
 917              		.section	.text.DMA_ClearITPendingBit,"ax",%progbits
 918              		.align	2
 919              		.p2align 4,,15
 920              		.global	DMA_ClearITPendingBit
 921              		.thumb
 922              		.thumb_func
 923              		.type	DMA_ClearITPendingBit, %function
 924              	DMA_ClearITPendingBit:
 925              	.LFB141:
 926              		.loc 1 1258 0
 927              		.cfi_startproc
 928              		@ args = 0, pretend = 0, frame = 0
 929              		@ frame_needed = 0, uses_anonymous_args = 0
 930              		@ link register save eliminated.
 931              	.LVL53:
 932 0000 10B4     		push	{r4}
 933              		.cfi_def_cfa_offset 4
 934              		.cfi_offset 4, -4
 935              		.loc 1 1274 0
 936 0002 094B     		ldr	r3, .L101
 937              		.loc 1 1266 0
 938 0004 094C     		ldr	r4, .L101+4
 939              		.loc 1 1274 0
 940 0006 0A4A     		ldr	r2, .L101+8
 941 0008 A042     		cmp	r0, r4
 942 000a 94BF     		ite	ls
 943 000c 1846     		movls	r0, r3
 944 000e 1046     		movhi	r0, r2
 945              	.LVL54:
 946              		.loc 1 1278 0
 947 0010 11F0005F 		tst	r1, #536870912
 948              		.loc 1 1281 0
 949 0014 21F0F021 		bic	r1, r1, #-268374016
 950              	.LVL55:
 951 0018 21F08211 		bic	r1, r1, #8519810
 952 001c 14BF     		ite	ne
 953 001e C160     		strne	r1, [r0, #12]
 954              		.loc 1 1286 0
 955 0020 8160     		streq	r1, [r0, #8]
 956              		.loc 1 1288 0
 957 0022 5DF8044B 		ldr	r4, [sp], #4
 958              		.cfi_restore 4
 959              		.cfi_def_cfa_offset 0
 960 0026 7047     		bx	lr
 961              	.L102:
 962              		.align	2
 963              	.L101:
 964 0028 00600240 		.word	1073897472
 965 002c 0F640240 		.word	1073898511
 966 0030 00640240 		.word	1073898496
 967              		.cfi_endproc
 968              	.LFE141:
 969              		.size	DMA_ClearITPendingBit, .-DMA_ClearITPendingBit
ARM GAS  /var/folders/m4/4md61f0s1_g0rzfghffqnxvr0000gn/T//ccWNZ4sA.s 			page 18


 970              		.section	.text.DMA_ClearFlag,"ax",%progbits
 971              		.align	2
 972              		.p2align 4,,15
 973              		.global	DMA_ClearFlag
 974              		.thumb
 975              		.thumb_func
 976              		.type	DMA_ClearFlag, %function
 977              	DMA_ClearFlag:
 978              	.LFB143:
 979              		.cfi_startproc
 980              		@ args = 0, pretend = 0, frame = 0
 981              		@ frame_needed = 0, uses_anonymous_args = 0
 982              		@ link register save eliminated.
 983 0000 FFF7FEBF 		b	DMA_ClearITPendingBit
 984              		.cfi_endproc
 985              	.LFE143:
 986              		.size	DMA_ClearFlag, .-DMA_ClearFlag
 987              		.text
 988              	.Letext0:
 989              		.file 2 "/opt/homebrew-cask/Caskroom/gcc-arm-embedded/5_2-2015q4,20151219/gcc-arm-none-eabi-5_2-20
 990              		.file 3 "/opt/homebrew-cask/Caskroom/gcc-arm-embedded/5_2-2015q4,20151219/gcc-arm-none-eabi-5_2-20
 991              		.file 4 "ChibiOS_16.1.4/os/ext/CMSIS/ST/STM32F4xx/stm32f405xx.h"
 992              		.file 5 "ChibiOS_16.1.4/os/ext/CMSIS/ST/STM32F4xx/stm32f4xx.h"
 993              		.file 6 "ChibiOS_16.1.4/ext/stdperiph_stm32f4/inc/stm32f4xx_dma.h"
 994              		.file 7 "ChibiOS_16.1.4/os/ext/CMSIS/include/core_cm4.h"