ARM GAS  /var/folders/m4/4md61f0s1_g0rzfghffqnxvr0000gn/T//ccmqP2UT.s 			page 1


   1              		.syntax unified
   2              		.cpu cortex-m4
   3              		.eabi_attribute 27, 1
   4              		.eabi_attribute 28, 1
   5              		.fpu fpv4-sp-d16
   6              		.eabi_attribute 20, 1
   7              		.eabi_attribute 21, 1
   8              		.eabi_attribute 23, 3
   9              		.eabi_attribute 24, 1
  10              		.eabi_attribute 25, 1
  11              		.eabi_attribute 26, 1
  12              		.eabi_attribute 30, 2
  13              		.eabi_attribute 34, 1
  14              		.eabi_attribute 18, 4
  15              		.thumb
  16              		.syntax unified
  17              		.file	"stm32f4xx_adc.c"
  18              		.text
  19              	.Ltext0:
  20              		.cfi_sections	.debug_frame
  21              		.section	.text.ADC_DeInit,"ax",%progbits
  22              		.align	2
  23              		.p2align 4,,15
  24              		.global	ADC_DeInit
  25              		.thumb
  26              		.thumb_func
  27              		.type	ADC_DeInit, %function
  28              	ADC_DeInit:
  29              	.LFB123:
  30              		.file 1 "ChibiOS_16.1.4/ext/stdperiph_stm32f4/src/stm32f4xx_adc.c"
  31              		.loc 1 214 0
  32              		.cfi_startproc
  33              		@ args = 0, pretend = 0, frame = 0
  34              		@ frame_needed = 0, uses_anonymous_args = 0
  35 0000 08B5     		push	{r3, lr}
  36              		.cfi_def_cfa_offset 8
  37              		.cfi_offset 3, -8
  38              		.cfi_offset 14, -4
  39              		.loc 1 216 0
  40 0002 0121     		movs	r1, #1
  41 0004 4FF48070 		mov	r0, #256
  42 0008 FFF7FEFF 		bl	RCC_APB2PeriphResetCmd
  43              	.LVL0:
  44              		.loc 1 219 0
  45 000c 0021     		movs	r1, #0
  46 000e 4FF48070 		mov	r0, #256
  47              		.loc 1 220 0
  48 0012 BDE80840 		pop	{r3, lr}
  49              		.cfi_restore 14
  50              		.cfi_restore 3
  51              		.cfi_def_cfa_offset 0
  52              		.loc 1 219 0
  53 0016 FFF7FEBF 		b	RCC_APB2PeriphResetCmd
  54              	.LVL1:
  55              		.cfi_endproc
  56              	.LFE123:
  57              		.size	ADC_DeInit, .-ADC_DeInit
ARM GAS  /var/folders/m4/4md61f0s1_g0rzfghffqnxvr0000gn/T//ccmqP2UT.s 			page 2


  58 001a 00BF     		.section	.text.ADC_Init,"ax",%progbits
  59              		.align	2
  60              		.p2align 4,,15
  61              		.global	ADC_Init
  62              		.thumb
  63              		.thumb_func
  64              		.type	ADC_Init, %function
  65              	ADC_Init:
  66              	.LFB124:
  67              		.loc 1 236 0
  68              		.cfi_startproc
  69              		@ args = 0, pretend = 0, frame = 0
  70              		@ frame_needed = 0, uses_anonymous_args = 0
  71              	.LVL2:
  72 0000 F8B5     		push	{r3, r4, r5, r6, r7, lr}
  73              		.cfi_def_cfa_offset 24
  74              		.cfi_offset 3, -24
  75              		.cfi_offset 4, -20
  76              		.cfi_offset 5, -16
  77              		.cfi_offset 6, -12
  78              		.cfi_offset 7, -8
  79              		.cfi_offset 14, -4
  80              		.loc 1 240 0
  81 0002 3B4B     		ldr	r3, .L14
  82 0004 9842     		cmp	r0, r3
  83              		.loc 1 236 0
  84 0006 0546     		mov	r5, r0
  85 0008 0C46     		mov	r4, r1
  86              		.loc 1 240 0
  87 000a 63D0     		beq	.L7
  88              		.loc 1 240 0 is_stmt 0 discriminator 2
  89 000c 03F58073 		add	r3, r3, #256
  90 0010 9842     		cmp	r0, r3
  91 0012 5FD0     		beq	.L7
  92              		.loc 1 240 0 discriminator 4
  93 0014 3748     		ldr	r0, .L14+4
  94              	.LVL3:
  95 0016 281A     		subs	r0, r5, r0
  96 0018 B0FA80F0 		clz	r0, r0
  97 001c 4009     		lsrs	r0, r0, #5
  98              	.L4:
  99              		.loc 1 240 0 discriminator 8
 100 001e FFF7FEFF 		bl	assert_param
 101              	.LVL4:
 102              		.loc 1 241 0 is_stmt 1 discriminator 8
 103 0022 2368     		ldr	r3, [r4]
 104 0024 33F04073 		bics	r3, r3, #50331648
 105 0028 0CBF     		ite	eq
 106 002a 0120     		moveq	r0, #1
 107 002c 0020     		movne	r0, #0
 108 002e FFF7FEFF 		bl	assert_param
 109              	.LVL5:
 110              		.loc 1 242 0 discriminator 8
 111 0032 2079     		ldrb	r0, [r4, #4]	@ zero_extendqisi2
 112 0034 0128     		cmp	r0, #1
 113 0036 8CBF     		ite	hi
 114 0038 0020     		movhi	r0, #0
ARM GAS  /var/folders/m4/4md61f0s1_g0rzfghffqnxvr0000gn/T//ccmqP2UT.s 			page 3


 115 003a 0120     		movls	r0, #1
 116 003c FFF7FEFF 		bl	assert_param
 117              	.LVL6:
 118              		.loc 1 243 0 discriminator 8
 119 0040 6079     		ldrb	r0, [r4, #5]	@ zero_extendqisi2
 120 0042 0128     		cmp	r0, #1
 121 0044 8CBF     		ite	hi
 122 0046 0020     		movhi	r0, #0
 123 0048 0120     		movls	r0, #1
 124 004a FFF7FEFF 		bl	assert_param
 125              	.LVL7:
 126              		.loc 1 244 0 discriminator 8
 127 004e A368     		ldr	r3, [r4, #8]
 128 0050 33F04053 		bics	r3, r3, #805306368
 129 0054 0CBF     		ite	eq
 130 0056 0120     		moveq	r0, #1
 131 0058 0020     		movne	r0, #0
 132 005a FFF7FEFF 		bl	assert_param
 133              	.LVL8:
 134              		.loc 1 245 0 discriminator 8
 135 005e E368     		ldr	r3, [r4, #12]
 136 0060 33F04073 		bics	r3, r3, #50331648
 137 0064 38D1     		bne	.L13
 138              	.L10:
 139              		.loc 1 245 0 is_stmt 0
 140 0066 0120     		movs	r0, #1
 141              	.L5:
 142              		.loc 1 245 0 discriminator 34
 143 0068 FFF7FEFF 		bl	assert_param
 144              	.LVL9:
 145              		.loc 1 246 0 is_stmt 1 discriminator 34
 146 006c 2369     		ldr	r3, [r4, #16]
 147 006e 33F40063 		bics	r3, r3, #2048
 148 0072 0CBF     		ite	eq
 149 0074 0120     		moveq	r0, #1
 150 0076 0020     		movne	r0, #0
 151 0078 FFF7FEFF 		bl	assert_param
 152              	.LVL10:
 153              		.loc 1 247 0 discriminator 34
 154 007c 207D     		ldrb	r0, [r4, #20]	@ zero_extendqisi2
 155 007e 0138     		subs	r0, r0, #1
 156 0080 0F28     		cmp	r0, #15
 157 0082 8CBF     		ite	hi
 158 0084 0020     		movhi	r0, #0
 159 0086 0120     		movls	r0, #1
 160 0088 FFF7FEFF 		bl	assert_param
 161              	.LVL11:
 162              		.loc 1 251 0 discriminator 34
 163 008c 6968     		ldr	r1, [r5, #4]
 164              	.LVL12:
 165 008e 2268     		ldr	r2, [r4]
 166              		.loc 1 259 0 discriminator 34
 167 0090 2679     		ldrb	r6, [r4, #4]	@ zero_extendqisi2
 168 0092 D4F810E0 		ldr	lr, [r4, #16]
 169 0096 E068     		ldr	r0, [r4, #12]
 170 0098 174B     		ldr	r3, .L14+8
 171 009a 21F04071 		bic	r1, r1, #50331648
ARM GAS  /var/folders/m4/4md61f0s1_g0rzfghffqnxvr0000gn/T//ccmqP2UT.s 			page 4


 172              	.LVL13:
 173 009e 21F48071 		bic	r1, r1, #256
 174 00a2 0A43     		orrs	r2, r2, r1
 175 00a4 42EA0622 		orr	r2, r2, r6, lsl #8
 176              	.LVL14:
 177              		.loc 1 262 0 discriminator 34
 178 00a8 6A60     		str	r2, [r5, #4]
 179              		.loc 1 265 0 discriminator 34
 180 00aa AF68     		ldr	r7, [r5, #8]
 181              	.LVL15:
 182 00ac A268     		ldr	r2, [r4, #8]
 183              		.loc 1 276 0 discriminator 34
 184 00ae 6679     		ldrb	r6, [r4, #5]	@ zero_extendqisi2
 185 00b0 4EEA0001 		orr	r1, lr, r0
 186 00b4 0A43     		orrs	r2, r2, r1
 187 00b6 3B40     		ands	r3, r3, r7
 188              	.LVL16:
 189 00b8 1343     		orrs	r3, r3, r2
 190              	.LVL17:
 191 00ba 43EA4603 		orr	r3, r3, r6, lsl #1
 192              	.LVL18:
 193              		.loc 1 282 0 discriminator 34
 194 00be AB60     		str	r3, [r5, #8]
 195              		.loc 1 293 0 discriminator 34
 196 00c0 227D     		ldrb	r2, [r4, #20]	@ zero_extendqisi2
 197              		.loc 1 285 0 discriminator 34
 198 00c2 EB6A     		ldr	r3, [r5, #44]
 199              	.LVL19:
 200              		.loc 1 293 0 discriminator 34
 201 00c4 013A     		subs	r2, r2, #1
 202 00c6 D2B2     		uxtb	r2, r2
 203              		.loc 1 288 0 discriminator 34
 204 00c8 23F47003 		bic	r3, r3, #15728640
 205              	.LVL20:
 206              		.loc 1 293 0 discriminator 34
 207 00cc 43EA0253 		orr	r3, r3, r2, lsl #20
 208              	.LVL21:
 209              		.loc 1 296 0 discriminator 34
 210 00d0 EB62     		str	r3, [r5, #44]
 211              	.LVL22:
 212 00d2 F8BD     		pop	{r3, r4, r5, r6, r7, pc}
 213              	.LVL23:
 214              	.L7:
 215              		.loc 1 240 0
 216 00d4 0120     		movs	r0, #1
 217              	.LVL24:
 218 00d6 A2E7     		b	.L4
 219              	.LVL25:
 220              	.L13:
 221              		.loc 1 245 0 discriminator 8
 222 00d8 B3F1806F 		cmp	r3, #67108864
 223 00dc C3D0     		beq	.L10
 224              		.loc 1 245 0 is_stmt 0 discriminator 16
 225 00de B3F1006F 		cmp	r3, #134217728
 226 00e2 C0D0     		beq	.L10
 227              		.loc 1 245 0 discriminator 24
 228 00e4 A3F14060 		sub	r0, r3, #201326592
ARM GAS  /var/folders/m4/4md61f0s1_g0rzfghffqnxvr0000gn/T//ccmqP2UT.s 			page 5


 229 00e8 B0FA80F0 		clz	r0, r0
 230 00ec 4009     		lsrs	r0, r0, #5
 231 00ee BBE7     		b	.L5
 232              	.L15:
 233              		.align	2
 234              	.L14:
 235 00f0 00200140 		.word	1073815552
 236 00f4 00220140 		.word	1073816064
 237 00f8 FDF7FFC0 		.word	-1056966659
 238              		.cfi_endproc
 239              	.LFE124:
 240              		.size	ADC_Init, .-ADC_Init
 241              		.section	.text.ADC_StructInit,"ax",%progbits
 242              		.align	2
 243              		.p2align 4,,15
 244              		.global	ADC_StructInit
 245              		.thumb
 246              		.thumb_func
 247              		.type	ADC_StructInit, %function
 248              	ADC_StructInit:
 249              	.LFB125:
 250              		.loc 1 311 0 is_stmt 1
 251              		.cfi_startproc
 252              		@ args = 0, pretend = 0, frame = 0
 253              		@ frame_needed = 0, uses_anonymous_args = 0
 254              		@ link register save eliminated.
 255              	.LVL26:
 256              		.loc 1 313 0
 257 0000 0023     		movs	r3, #0
 258              		.loc 1 331 0
 259 0002 0122     		movs	r2, #1
 260 0004 0275     		strb	r2, [r0, #20]
 261              		.loc 1 313 0
 262 0006 0360     		str	r3, [r0]
 263              		.loc 1 316 0
 264 0008 0371     		strb	r3, [r0, #4]
 265              		.loc 1 319 0
 266 000a 4371     		strb	r3, [r0, #5]
 267              		.loc 1 322 0
 268 000c 8360     		str	r3, [r0, #8]
 269              		.loc 1 325 0
 270 000e C360     		str	r3, [r0, #12]
 271              		.loc 1 328 0
 272 0010 0361     		str	r3, [r0, #16]
 273 0012 7047     		bx	lr
 274              		.cfi_endproc
 275              	.LFE125:
 276              		.size	ADC_StructInit, .-ADC_StructInit
 277              		.section	.text.ADC_CommonInit,"ax",%progbits
 278              		.align	2
 279              		.p2align 4,,15
 280              		.global	ADC_CommonInit
 281              		.thumb
 282              		.thumb_func
 283              		.type	ADC_CommonInit, %function
 284              	ADC_CommonInit:
 285              	.LFB126:
ARM GAS  /var/folders/m4/4md61f0s1_g0rzfghffqnxvr0000gn/T//ccmqP2UT.s 			page 6


 286              		.loc 1 342 0
 287              		.cfi_startproc
 288              		@ args = 0, pretend = 0, frame = 0
 289              		@ frame_needed = 0, uses_anonymous_args = 0
 290              	.LVL27:
 291 0000 70B5     		push	{r4, r5, r6, lr}
 292              		.cfi_def_cfa_offset 16
 293              		.cfi_offset 4, -16
 294              		.cfi_offset 5, -12
 295              		.cfi_offset 6, -8
 296              		.cfi_offset 14, -4
 297              		.loc 1 342 0
 298 0002 0446     		mov	r4, r0
 299              		.loc 1 345 0
 300 0004 0068     		ldr	r0, [r0]
 301              	.LVL28:
 302 0006 1928     		cmp	r0, #25
 303 0008 9DBF     		ittte	ls
 304 000a 1C4B     		ldrls	r3, .L26
 305 000c 23FA00F0 		lsrls	r0, r3, r0
 306 0010 00F00100 		andls	r0, r0, #1
 307 0014 0020     		movhi	r0, #0
 308 0016 FFF7FEFF 		bl	assert_param
 309              	.LVL29:
 310              		.loc 1 346 0
 311 001a 6368     		ldr	r3, [r4, #4]
 312 001c 33F44033 		bics	r3, r3, #196608
 313 0020 0CBF     		ite	eq
 314 0022 0120     		moveq	r0, #1
 315 0024 0020     		movne	r0, #0
 316 0026 FFF7FEFF 		bl	assert_param
 317              	.LVL30:
 318              		.loc 1 347 0
 319 002a A368     		ldr	r3, [r4, #8]
 320 002c 33F44043 		bics	r3, r3, #49152
 321 0030 0CBF     		ite	eq
 322 0032 0120     		moveq	r0, #1
 323 0034 0020     		movne	r0, #0
 324 0036 FFF7FEFF 		bl	assert_param
 325              	.LVL31:
 326              		.loc 1 348 0
 327 003a E068     		ldr	r0, [r4, #12]
 328 003c 30F44070 		bics	r0, r0, #768
 329 0040 10D1     		bne	.L25
 330              	.L23:
 331 0042 0120     		movs	r0, #1
 332              	.L19:
 333              		.loc 1 348 0 is_stmt 0 discriminator 34
 334 0044 FFF7FEFF 		bl	assert_param
 335              	.LVL32:
 336              		.loc 1 351 0 is_stmt 1 discriminator 34
 337 0048 0D4D     		ldr	r5, .L26+4
 338              		.loc 1 362 0 discriminator 34
 339 004a 2668     		ldr	r6, [r4]
 340 004c 6268     		ldr	r2, [r4, #4]
 341 004e A068     		ldr	r0, [r4, #8]
 342 0050 E168     		ldr	r1, [r4, #12]
ARM GAS  /var/folders/m4/4md61f0s1_g0rzfghffqnxvr0000gn/T//ccmqP2UT.s 			page 7


 343              		.loc 1 354 0 discriminator 34
 344 0052 0C4B     		ldr	r3, .L26+8
 345              		.loc 1 351 0 discriminator 34
 346 0054 6C68     		ldr	r4, [r5, #4]
 347              	.LVL33:
 348              		.loc 1 362 0 discriminator 34
 349 0056 3243     		orrs	r2, r2, r6
 350 0058 0243     		orrs	r2, r2, r0
 351 005a 0A43     		orrs	r2, r2, r1
 352              		.loc 1 354 0 discriminator 34
 353 005c 2340     		ands	r3, r3, r4
 354              	.LVL34:
 355              		.loc 1 362 0 discriminator 34
 356 005e 1343     		orrs	r3, r3, r2
 357              	.LVL35:
 358              		.loc 1 368 0 discriminator 34
 359 0060 6B60     		str	r3, [r5, #4]
 360 0062 70BD     		pop	{r4, r5, r6, pc}
 361              	.LVL36:
 362              	.L25:
 363              		.loc 1 348 0 discriminator 8
 364 0064 B0F5806F 		cmp	r0, #1024
 365 0068 EBD0     		beq	.L23
 366              		.loc 1 348 0 is_stmt 0 discriminator 16
 367 006a B0F5006F 		cmp	r0, #2048
 368 006e E8D0     		beq	.L23
 369              		.loc 1 348 0 discriminator 24
 370 0070 A0F54060 		sub	r0, r0, #3072
 371 0074 B0FA80F0 		clz	r0, r0
 372 0078 4009     		lsrs	r0, r0, #5
 373 007a E3E7     		b	.L19
 374              	.L27:
 375              		.align	2
 376              	.L26:
 377 007c E702E602 		.word	48628455
 378 0080 00230140 		.word	1073816320
 379 0084 E030FCFF 		.word	-249632
 380              		.cfi_endproc
 381              	.LFE126:
 382              		.size	ADC_CommonInit, .-ADC_CommonInit
 383              		.section	.text.ADC_CommonStructInit,"ax",%progbits
 384              		.align	2
 385              		.p2align 4,,15
 386              		.global	ADC_CommonStructInit
 387              		.thumb
 388              		.thumb_func
 389              		.type	ADC_CommonStructInit, %function
 390              	ADC_CommonStructInit:
 391              	.LFB127:
 392              		.loc 1 378 0 is_stmt 1
 393              		.cfi_startproc
 394              		@ args = 0, pretend = 0, frame = 0
 395              		@ frame_needed = 0, uses_anonymous_args = 0
 396              		@ link register save eliminated.
 397              	.LVL37:
 398              		.loc 1 380 0
 399 0000 0023     		movs	r3, #0
ARM GAS  /var/folders/m4/4md61f0s1_g0rzfghffqnxvr0000gn/T//ccmqP2UT.s 			page 8


 400 0002 0360     		str	r3, [r0]
 401              		.loc 1 383 0
 402 0004 4360     		str	r3, [r0, #4]
 403              		.loc 1 386 0
 404 0006 8360     		str	r3, [r0, #8]
 405              		.loc 1 389 0
 406 0008 C360     		str	r3, [r0, #12]
 407 000a 7047     		bx	lr
 408              		.cfi_endproc
 409              	.LFE127:
 410              		.size	ADC_CommonStructInit, .-ADC_CommonStructInit
 411              		.section	.text.ADC_Cmd,"ax",%progbits
 412              		.align	2
 413              		.p2align 4,,15
 414              		.global	ADC_Cmd
 415              		.thumb
 416              		.thumb_func
 417              		.type	ADC_Cmd, %function
 418              	ADC_Cmd:
 419              	.LFB128:
 420              		.loc 1 400 0
 421              		.cfi_startproc
 422              		@ args = 0, pretend = 0, frame = 0
 423              		@ frame_needed = 0, uses_anonymous_args = 0
 424              	.LVL38:
 425 0000 38B5     		push	{r3, r4, r5, lr}
 426              		.cfi_def_cfa_offset 16
 427              		.cfi_offset 3, -16
 428              		.cfi_offset 4, -12
 429              		.cfi_offset 5, -8
 430              		.cfi_offset 14, -4
 431              		.loc 1 402 0
 432 0002 114B     		ldr	r3, .L37
 433 0004 9842     		cmp	r0, r3
 434              		.loc 1 400 0
 435 0006 0446     		mov	r4, r0
 436 0008 0D46     		mov	r5, r1
 437              		.loc 1 402 0
 438 000a 1AD0     		beq	.L34
 439              		.loc 1 402 0 is_stmt 0 discriminator 2
 440 000c 03F58073 		add	r3, r3, #256
 441 0010 9842     		cmp	r0, r3
 442 0012 16D0     		beq	.L34
 443              		.loc 1 402 0 discriminator 4
 444 0014 0D48     		ldr	r0, .L37+4
 445              	.LVL39:
 446 0016 201A     		subs	r0, r4, r0
 447 0018 B0FA80F0 		clz	r0, r0
 448 001c 4009     		lsrs	r0, r0, #5
 449              	.L30:
 450              		.loc 1 402 0 discriminator 8
 451 001e FFF7FEFF 		bl	assert_param
 452              	.LVL40:
 453              		.loc 1 403 0 is_stmt 1 discriminator 8
 454 0022 012D     		cmp	r5, #1
 455 0024 8CBF     		ite	hi
 456 0026 0020     		movhi	r0, #0
ARM GAS  /var/folders/m4/4md61f0s1_g0rzfghffqnxvr0000gn/T//ccmqP2UT.s 			page 9


 457 0028 0120     		movls	r0, #1
 458 002a FFF7FEFF 		bl	assert_param
 459              	.LVL41:
 460              		.loc 1 407 0 discriminator 8
 461 002e A368     		ldr	r3, [r4, #8]
 462              		.loc 1 404 0 discriminator 8
 463 0030 1DB9     		cbnz	r5, .L36
 464              		.loc 1 412 0
 465 0032 23F00103 		bic	r3, r3, #1
 466 0036 A360     		str	r3, [r4, #8]
 467 0038 38BD     		pop	{r3, r4, r5, pc}
 468              	.LVL42:
 469              	.L36:
 470              		.loc 1 407 0
 471 003a 43F00103 		orr	r3, r3, #1
 472 003e A360     		str	r3, [r4, #8]
 473 0040 38BD     		pop	{r3, r4, r5, pc}
 474              	.LVL43:
 475              	.L34:
 476              		.loc 1 402 0
 477 0042 0120     		movs	r0, #1
 478              	.LVL44:
 479 0044 EBE7     		b	.L30
 480              	.L38:
 481 0046 00BF     		.align	2
 482              	.L37:
 483 0048 00200140 		.word	1073815552
 484 004c 00220140 		.word	1073816064
 485              		.cfi_endproc
 486              	.LFE128:
 487              		.size	ADC_Cmd, .-ADC_Cmd
 488              		.section	.text.ADC_AnalogWatchdogCmd,"ax",%progbits
 489              		.align	2
 490              		.p2align 4,,15
 491              		.global	ADC_AnalogWatchdogCmd
 492              		.thumb
 493              		.thumb_func
 494              		.type	ADC_AnalogWatchdogCmd, %function
 495              	ADC_AnalogWatchdogCmd:
 496              	.LFB129:
 497              		.loc 1 456 0
 498              		.cfi_startproc
 499              		@ args = 0, pretend = 0, frame = 0
 500              		@ frame_needed = 0, uses_anonymous_args = 0
 501              	.LVL45:
 502 0000 38B5     		push	{r3, r4, r5, lr}
 503              		.cfi_def_cfa_offset 16
 504              		.cfi_offset 3, -16
 505              		.cfi_offset 4, -12
 506              		.cfi_offset 5, -8
 507              		.cfi_offset 14, -4
 508              		.loc 1 459 0
 509 0002 184B     		ldr	r3, .L48
 510 0004 9842     		cmp	r0, r3
 511              		.loc 1 456 0
 512 0006 0446     		mov	r4, r0
 513 0008 0D46     		mov	r5, r1
ARM GAS  /var/folders/m4/4md61f0s1_g0rzfghffqnxvr0000gn/T//ccmqP2UT.s 			page 10


 514              		.loc 1 459 0
 515 000a 28D0     		beq	.L43
 516              		.loc 1 459 0 is_stmt 0 discriminator 2
 517 000c 03F58073 		add	r3, r3, #256
 518 0010 9842     		cmp	r0, r3
 519 0012 24D0     		beq	.L43
 520              		.loc 1 459 0 discriminator 4
 521 0014 1448     		ldr	r0, .L48+4
 522              	.LVL46:
 523 0016 201A     		subs	r0, r4, r0
 524 0018 B0FA80F0 		clz	r0, r0
 525 001c 4009     		lsrs	r0, r0, #5
 526              	.L40:
 527              		.loc 1 459 0 discriminator 8
 528 001e FFF7FEFF 		bl	assert_param
 529              	.LVL47:
 530              		.loc 1 460 0 is_stmt 1 discriminator 8
 531 0022 124B     		ldr	r3, .L48+8
 532 0024 25F40002 		bic	r2, r5, #8388608
 533 0028 9A42     		cmp	r2, r3
 534 002a 16D0     		beq	.L46
 535              		.loc 1 460 0 is_stmt 0 discriminator 6
 536 002c 25F40073 		bic	r3, r5, #512
 537 0030 B3F5000F 		cmp	r3, #8388608
 538 0034 11D0     		beq	.L46
 539              		.loc 1 460 0 discriminator 10
 540 0036 B5F5400F 		cmp	r5, #12582912
 541 003a 0ED0     		beq	.L46
 542 003c 35F48003 		bics	r3, r5, #4194304
 543 0040 0CBF     		ite	eq
 544 0042 0120     		moveq	r0, #1
 545 0044 0020     		movne	r0, #0
 546              	.L41:
 547              		.loc 1 460 0 discriminator 16
 548 0046 FFF7FEFF 		bl	assert_param
 549              	.LVL48:
 550              		.loc 1 463 0 is_stmt 1 discriminator 16
 551 004a 6268     		ldr	r2, [r4, #4]
 552              	.LVL49:
 553              		.loc 1 466 0 discriminator 16
 554 004c 22F44003 		bic	r3, r2, #12582912
 555 0050 23F40073 		bic	r3, r3, #512
 556              	.LVL50:
 557              		.loc 1 469 0 discriminator 16
 558 0054 2B43     		orrs	r3, r3, r5
 559              	.LVL51:
 560              		.loc 1 472 0 discriminator 16
 561 0056 6360     		str	r3, [r4, #4]
 562 0058 38BD     		pop	{r3, r4, r5, pc}
 563              	.LVL52:
 564              	.L46:
 565              		.loc 1 460 0
 566 005a 0120     		movs	r0, #1
 567 005c F3E7     		b	.L41
 568              	.LVL53:
 569              	.L43:
 570              		.loc 1 459 0
ARM GAS  /var/folders/m4/4md61f0s1_g0rzfghffqnxvr0000gn/T//ccmqP2UT.s 			page 11


 571 005e 0120     		movs	r0, #1
 572              	.LVL54:
 573 0060 DDE7     		b	.L40
 574              	.L49:
 575 0062 00BF     		.align	2
 576              	.L48:
 577 0064 00200140 		.word	1073815552
 578 0068 00220140 		.word	1073816064
 579 006c 00024000 		.word	4194816
 580              		.cfi_endproc
 581              	.LFE129:
 582              		.size	ADC_AnalogWatchdogCmd, .-ADC_AnalogWatchdogCmd
 583              		.section	.text.ADC_AnalogWatchdogThresholdsConfig,"ax",%progbits
 584              		.align	2
 585              		.p2align 4,,15
 586              		.global	ADC_AnalogWatchdogThresholdsConfig
 587              		.thumb
 588              		.thumb_func
 589              		.type	ADC_AnalogWatchdogThresholdsConfig, %function
 590              	ADC_AnalogWatchdogThresholdsConfig:
 591              	.LFB130:
 592              		.loc 1 486 0
 593              		.cfi_startproc
 594              		@ args = 0, pretend = 0, frame = 0
 595              		@ frame_needed = 0, uses_anonymous_args = 0
 596              	.LVL55:
 597 0000 F8B5     		push	{r3, r4, r5, r6, r7, lr}
 598              		.cfi_def_cfa_offset 24
 599              		.cfi_offset 3, -24
 600              		.cfi_offset 4, -20
 601              		.cfi_offset 5, -16
 602              		.cfi_offset 6, -12
 603              		.cfi_offset 7, -8
 604              		.cfi_offset 14, -4
 605              		.loc 1 488 0
 606 0002 124B     		ldr	r3, .L55
 607 0004 9842     		cmp	r0, r3
 608              		.loc 1 486 0
 609 0006 0446     		mov	r4, r0
 610 0008 0E46     		mov	r6, r1
 611 000a 1546     		mov	r5, r2
 612              		.loc 1 488 0
 613 000c 1BD0     		beq	.L53
 614              		.loc 1 488 0 is_stmt 0 discriminator 2
 615 000e 03F58073 		add	r3, r3, #256
 616 0012 9842     		cmp	r0, r3
 617 0014 17D0     		beq	.L53
 618              		.loc 1 488 0 discriminator 4
 619 0016 0E48     		ldr	r0, .L55+4
 620              	.LVL56:
 621 0018 201A     		subs	r0, r4, r0
 622 001a B0FA80F0 		clz	r0, r0
 623 001e 4009     		lsrs	r0, r0, #5
 624              	.L51:
 625              		.loc 1 489 0 is_stmt 1 discriminator 8
 626 0020 40F6FF77 		movw	r7, #4095
 627              		.loc 1 488 0 discriminator 8
ARM GAS  /var/folders/m4/4md61f0s1_g0rzfghffqnxvr0000gn/T//ccmqP2UT.s 			page 12


 628 0024 FFF7FEFF 		bl	assert_param
 629              	.LVL57:
 630              		.loc 1 489 0 discriminator 8
 631 0028 BE42     		cmp	r6, r7
 632 002a 8CBF     		ite	hi
 633 002c 0020     		movhi	r0, #0
 634 002e 0120     		movls	r0, #1
 635 0030 FFF7FEFF 		bl	assert_param
 636              	.LVL58:
 637              		.loc 1 490 0 discriminator 8
 638 0034 BD42     		cmp	r5, r7
 639 0036 8CBF     		ite	hi
 640 0038 0020     		movhi	r0, #0
 641 003a 0120     		movls	r0, #1
 642 003c FFF7FEFF 		bl	assert_param
 643              	.LVL59:
 644              		.loc 1 493 0 discriminator 8
 645 0040 6662     		str	r6, [r4, #36]
 646              		.loc 1 496 0 discriminator 8
 647 0042 A562     		str	r5, [r4, #40]
 648 0044 F8BD     		pop	{r3, r4, r5, r6, r7, pc}
 649              	.LVL60:
 650              	.L53:
 651              		.loc 1 488 0
 652 0046 0120     		movs	r0, #1
 653              	.LVL61:
 654 0048 EAE7     		b	.L51
 655              	.L56:
 656 004a 00BF     		.align	2
 657              	.L55:
 658 004c 00200140 		.word	1073815552
 659 0050 00220140 		.word	1073816064
 660              		.cfi_endproc
 661              	.LFE130:
 662              		.size	ADC_AnalogWatchdogThresholdsConfig, .-ADC_AnalogWatchdogThresholdsConfig
 663              		.section	.text.ADC_AnalogWatchdogSingleChannelConfig,"ax",%progbits
 664              		.align	2
 665              		.p2align 4,,15
 666              		.global	ADC_AnalogWatchdogSingleChannelConfig
 667              		.thumb
 668              		.thumb_func
 669              		.type	ADC_AnalogWatchdogSingleChannelConfig, %function
 670              	ADC_AnalogWatchdogSingleChannelConfig:
 671              	.LFB131:
 672              		.loc 1 526 0
 673              		.cfi_startproc
 674              		@ args = 0, pretend = 0, frame = 0
 675              		@ frame_needed = 0, uses_anonymous_args = 0
 676              	.LVL62:
 677 0000 38B5     		push	{r3, r4, r5, lr}
 678              		.cfi_def_cfa_offset 16
 679              		.cfi_offset 3, -16
 680              		.cfi_offset 4, -12
 681              		.cfi_offset 5, -8
 682              		.cfi_offset 14, -4
 683              		.loc 1 529 0
 684 0002 0F4B     		ldr	r3, .L62
ARM GAS  /var/folders/m4/4md61f0s1_g0rzfghffqnxvr0000gn/T//ccmqP2UT.s 			page 13


 685 0004 9842     		cmp	r0, r3
 686              		.loc 1 526 0
 687 0006 0446     		mov	r4, r0
 688 0008 0D46     		mov	r5, r1
 689              		.loc 1 529 0
 690 000a 16D0     		beq	.L60
 691              		.loc 1 529 0 is_stmt 0 discriminator 2
 692 000c 03F58073 		add	r3, r3, #256
 693 0010 9842     		cmp	r0, r3
 694 0012 12D0     		beq	.L60
 695              		.loc 1 529 0 discriminator 4
 696 0014 0B48     		ldr	r0, .L62+4
 697              	.LVL63:
 698 0016 201A     		subs	r0, r4, r0
 699 0018 B0FA80F0 		clz	r0, r0
 700 001c 4009     		lsrs	r0, r0, #5
 701              	.L58:
 702              		.loc 1 529 0 discriminator 8
 703 001e FFF7FEFF 		bl	assert_param
 704              	.LVL64:
 705              		.loc 1 530 0 is_stmt 1 discriminator 8
 706 0022 122D     		cmp	r5, #18
 707 0024 8CBF     		ite	hi
 708 0026 0020     		movhi	r0, #0
 709 0028 0120     		movls	r0, #1
 710 002a FFF7FEFF 		bl	assert_param
 711              	.LVL65:
 712              		.loc 1 533 0 discriminator 8
 713 002e 6168     		ldr	r1, [r4, #4]
 714              	.LVL66:
 715              		.loc 1 536 0 discriminator 8
 716 0030 21F01F01 		bic	r1, r1, #31
 717              	.LVL67:
 718              		.loc 1 539 0 discriminator 8
 719 0034 2943     		orrs	r1, r1, r5
 720              	.LVL68:
 721              		.loc 1 542 0 discriminator 8
 722 0036 6160     		str	r1, [r4, #4]
 723 0038 38BD     		pop	{r3, r4, r5, pc}
 724              	.LVL69:
 725              	.L60:
 726              		.loc 1 529 0
 727 003a 0120     		movs	r0, #1
 728              	.LVL70:
 729 003c EFE7     		b	.L58
 730              	.L63:
 731 003e 00BF     		.align	2
 732              	.L62:
 733 0040 00200140 		.word	1073815552
 734 0044 00220140 		.word	1073816064
 735              		.cfi_endproc
 736              	.LFE131:
 737              		.size	ADC_AnalogWatchdogSingleChannelConfig, .-ADC_AnalogWatchdogSingleChannelConfig
 738              		.section	.text.ADC_TempSensorVrefintCmd,"ax",%progbits
 739              		.align	2
 740              		.p2align 4,,15
 741              		.global	ADC_TempSensorVrefintCmd
ARM GAS  /var/folders/m4/4md61f0s1_g0rzfghffqnxvr0000gn/T//ccmqP2UT.s 			page 14


 742              		.thumb
 743              		.thumb_func
 744              		.type	ADC_TempSensorVrefintCmd, %function
 745              	ADC_TempSensorVrefintCmd:
 746              	.LFB132:
 747              		.loc 1 590 0
 748              		.cfi_startproc
 749              		@ args = 0, pretend = 0, frame = 0
 750              		@ frame_needed = 0, uses_anonymous_args = 0
 751              	.LVL71:
 752              		.loc 1 592 0
 753 0000 0128     		cmp	r0, #1
 754              		.loc 1 590 0
 755 0002 10B5     		push	{r4, lr}
 756              		.cfi_def_cfa_offset 8
 757              		.cfi_offset 4, -8
 758              		.cfi_offset 14, -4
 759              		.loc 1 590 0
 760 0004 0446     		mov	r4, r0
 761              		.loc 1 592 0
 762 0006 8CBF     		ite	hi
 763 0008 0020     		movhi	r0, #0
 764              	.LVL72:
 765 000a 0120     		movls	r0, #1
 766 000c FFF7FEFF 		bl	assert_param
 767              	.LVL73:
 768              		.loc 1 596 0
 769 0010 054A     		ldr	r2, .L69
 770 0012 5368     		ldr	r3, [r2, #4]
 771              		.loc 1 593 0
 772 0014 1CB9     		cbnz	r4, .L68
 773              		.loc 1 601 0
 774 0016 23F40003 		bic	r3, r3, #8388608
 775 001a 5360     		str	r3, [r2, #4]
 776 001c 10BD     		pop	{r4, pc}
 777              	.L68:
 778              		.loc 1 596 0
 779 001e 43F40003 		orr	r3, r3, #8388608
 780 0022 5360     		str	r3, [r2, #4]
 781 0024 10BD     		pop	{r4, pc}
 782              	.L70:
 783 0026 00BF     		.align	2
 784              	.L69:
 785 0028 00230140 		.word	1073816320
 786              		.cfi_endproc
 787              	.LFE132:
 788              		.size	ADC_TempSensorVrefintCmd, .-ADC_TempSensorVrefintCmd
 789              		.section	.text.ADC_VBATCmd,"ax",%progbits
 790              		.align	2
 791              		.p2align 4,,15
 792              		.global	ADC_VBATCmd
 793              		.thumb
 794              		.thumb_func
 795              		.type	ADC_VBATCmd, %function
 796              	ADC_VBATCmd:
 797              	.LFB133:
 798              		.loc 1 616 0
ARM GAS  /var/folders/m4/4md61f0s1_g0rzfghffqnxvr0000gn/T//ccmqP2UT.s 			page 15


 799              		.cfi_startproc
 800              		@ args = 0, pretend = 0, frame = 0
 801              		@ frame_needed = 0, uses_anonymous_args = 0
 802              	.LVL74:
 803              		.loc 1 618 0
 804 0000 0128     		cmp	r0, #1
 805              		.loc 1 616 0
 806 0002 10B5     		push	{r4, lr}
 807              		.cfi_def_cfa_offset 8
 808              		.cfi_offset 4, -8
 809              		.cfi_offset 14, -4
 810              		.loc 1 616 0
 811 0004 0446     		mov	r4, r0
 812              		.loc 1 618 0
 813 0006 8CBF     		ite	hi
 814 0008 0020     		movhi	r0, #0
 815              	.LVL75:
 816 000a 0120     		movls	r0, #1
 817 000c FFF7FEFF 		bl	assert_param
 818              	.LVL76:
 819              		.loc 1 622 0
 820 0010 054A     		ldr	r2, .L76
 821 0012 5368     		ldr	r3, [r2, #4]
 822              		.loc 1 619 0
 823 0014 1CB9     		cbnz	r4, .L75
 824              		.loc 1 627 0
 825 0016 23F48003 		bic	r3, r3, #4194304
 826 001a 5360     		str	r3, [r2, #4]
 827 001c 10BD     		pop	{r4, pc}
 828              	.L75:
 829              		.loc 1 622 0
 830 001e 43F48003 		orr	r3, r3, #4194304
 831 0022 5360     		str	r3, [r2, #4]
 832 0024 10BD     		pop	{r4, pc}
 833              	.L77:
 834 0026 00BF     		.align	2
 835              	.L76:
 836 0028 00230140 		.word	1073816320
 837              		.cfi_endproc
 838              	.LFE133:
 839              		.size	ADC_VBATCmd, .-ADC_VBATCmd
 840              		.section	.text.ADC_RegularChannelConfig,"ax",%progbits
 841              		.align	2
 842              		.p2align 4,,15
 843              		.global	ADC_RegularChannelConfig
 844              		.thumb
 845              		.thumb_func
 846              		.type	ADC_RegularChannelConfig, %function
 847              	ADC_RegularChannelConfig:
 848              	.LFB134:
 849              		.loc 1 716 0
 850              		.cfi_startproc
 851              		@ args = 0, pretend = 0, frame = 0
 852              		@ frame_needed = 0, uses_anonymous_args = 0
 853              	.LVL77:
 854 0000 2DE9F041 		push	{r4, r5, r6, r7, r8, lr}
 855              		.cfi_def_cfa_offset 24
ARM GAS  /var/folders/m4/4md61f0s1_g0rzfghffqnxvr0000gn/T//ccmqP2UT.s 			page 16


 856              		.cfi_offset 4, -24
 857              		.cfi_offset 5, -20
 858              		.cfi_offset 6, -16
 859              		.cfi_offset 7, -12
 860              		.cfi_offset 8, -8
 861              		.cfi_offset 14, -4
 862              		.loc 1 719 0
 863 0004 394F     		ldr	r7, .L90
 864 0006 B842     		cmp	r0, r7
 865              		.loc 1 716 0
 866 0008 0546     		mov	r5, r0
 867 000a 0E46     		mov	r6, r1
 868 000c 1446     		mov	r4, r2
 869 000e 9846     		mov	r8, r3
 870              		.loc 1 719 0
 871 0010 69D0     		beq	.L86
 872              		.loc 1 719 0 is_stmt 0 discriminator 2
 873 0012 374B     		ldr	r3, .L90+4
 874              	.LVL78:
 875 0014 9842     		cmp	r0, r3
 876 0016 66D0     		beq	.L86
 877              		.loc 1 719 0 discriminator 4
 878 0018 3648     		ldr	r0, .L90+8
 879              	.LVL79:
 880 001a 281A     		subs	r0, r5, r0
 881 001c B0FA80F0 		clz	r0, r0
 882 0020 4009     		lsrs	r0, r0, #5
 883              	.L79:
 884              		.loc 1 719 0 discriminator 8
 885 0022 FFF7FEFF 		bl	assert_param
 886              	.LVL80:
 887              		.loc 1 720 0 is_stmt 1 discriminator 8
 888 0026 122E     		cmp	r6, #18
 889 0028 8CBF     		ite	hi
 890 002a 0020     		movhi	r0, #0
 891 002c 0120     		movls	r0, #1
 892              		.loc 1 721 0 discriminator 8
 893 002e 671E     		subs	r7, r4, #1
 894              		.loc 1 720 0 discriminator 8
 895 0030 FFF7FEFF 		bl	assert_param
 896              	.LVL81:
 897              		.loc 1 721 0 discriminator 8
 898 0034 F8B2     		uxtb	r0, r7
 899 0036 0F28     		cmp	r0, #15
 900 0038 8CBF     		ite	hi
 901 003a 0020     		movhi	r0, #0
 902 003c 0120     		movls	r0, #1
 903 003e FFF7FEFF 		bl	assert_param
 904              	.LVL82:
 905              		.loc 1 722 0 discriminator 8
 906 0042 B8F1070F 		cmp	r8, #7
 907 0046 8CBF     		ite	hi
 908 0048 0020     		movhi	r0, #0
 909 004a 0120     		movls	r0, #1
 910 004c FFF7FEFF 		bl	assert_param
 911              	.LVL83:
 912              		.loc 1 725 0 discriminator 8
ARM GAS  /var/folders/m4/4md61f0s1_g0rzfghffqnxvr0000gn/T//ccmqP2UT.s 			page 17


 913 0050 092E     		cmp	r6, #9
 914 0052 1FD9     		bls	.L80
 915              		.loc 1 731 0
 916 0054 A6F10A03 		sub	r3, r6, #10
 917 0058 03EB4303 		add	r3, r3, r3, lsl #1
 918              		.loc 1 728 0
 919 005c EA68     		ldr	r2, [r5, #12]
 920              	.LVL84:
 921              		.loc 1 734 0
 922 005e 0721     		movs	r1, #7
 923 0060 9940     		lsls	r1, r1, r3
 924              	.LVL85:
 925              		.loc 1 740 0
 926 0062 08FA03F8 		lsl	r8, r8, r3
 927              		.loc 1 734 0
 928 0066 22EA0103 		bic	r3, r2, r1
 929              	.LVL86:
 930              		.loc 1 740 0
 931 006a 48EA0303 		orr	r3, r8, r3
 932              	.LVL87:
 933              		.loc 1 766 0
 934 006e 062C     		cmp	r4, #6
 935              		.loc 1 743 0
 936 0070 EB60     		str	r3, [r5, #12]
 937              		.loc 1 766 0
 938 0072 1DD9     		bls	.L88
 939              	.L82:
 940              		.loc 1 787 0
 941 0074 0C2C     		cmp	r4, #12
 942 0076 28D9     		bls	.L89
 943              		.loc 1 814 0
 944 0078 0D3C     		subs	r4, r4, #13
 945 007a 04EB8404 		add	r4, r4, r4, lsl #2
 946              		.loc 1 811 0
 947 007e EB6A     		ldr	r3, [r5, #44]
 948              	.LVL88:
 949              		.loc 1 817 0
 950 0080 1F21     		movs	r1, #31
 951 0082 A140     		lsls	r1, r1, r4
 952              	.LVL89:
 953              		.loc 1 823 0
 954 0084 06FA04F4 		lsl	r4, r6, r4
 955              		.loc 1 817 0
 956 0088 23EA0106 		bic	r6, r3, r1
 957              	.LVL90:
 958              		.loc 1 823 0
 959 008c 3443     		orrs	r4, r4, r6
 960              	.LVL91:
 961              		.loc 1 826 0
 962 008e EC62     		str	r4, [r5, #44]
 963 0090 BDE8F081 		pop	{r4, r5, r6, r7, r8, pc}
 964              	.LVL92:
 965              	.L80:
 966              		.loc 1 751 0
 967 0094 06EB4601 		add	r1, r6, r6, lsl #1
 968              		.loc 1 748 0
 969 0098 2A69     		ldr	r2, [r5, #16]
ARM GAS  /var/folders/m4/4md61f0s1_g0rzfghffqnxvr0000gn/T//ccmqP2UT.s 			page 18


 970              	.LVL93:
 971              		.loc 1 754 0
 972 009a 0723     		movs	r3, #7
 973 009c 8B40     		lsls	r3, r3, r1
 974              	.LVL94:
 975              		.loc 1 760 0
 976 009e 08FA01F8 		lsl	r8, r8, r1
 977              		.loc 1 754 0
 978 00a2 22EA0303 		bic	r3, r2, r3
 979              	.LVL95:
 980              		.loc 1 760 0
 981 00a6 48EA0303 		orr	r3, r8, r3
 982              	.LVL96:
 983              		.loc 1 766 0
 984 00aa 062C     		cmp	r4, #6
 985              		.loc 1 763 0
 986 00ac 2B61     		str	r3, [r5, #16]
 987              		.loc 1 766 0
 988 00ae E1D8     		bhi	.L82
 989              	.L88:
 990              		.loc 1 772 0
 991 00b0 07EB8707 		add	r7, r7, r7, lsl #2
 992              		.loc 1 769 0
 993 00b4 6B6B     		ldr	r3, [r5, #52]
 994              	.LVL97:
 995              		.loc 1 775 0
 996 00b6 1F21     		movs	r1, #31
 997 00b8 B940     		lsls	r1, r1, r7
 998              	.LVL98:
 999              		.loc 1 781 0
 1000 00ba 06FA07F7 		lsl	r7, r6, r7
 1001              		.loc 1 775 0
 1002 00be 23EA0106 		bic	r6, r3, r1
 1003              	.LVL99:
 1004              		.loc 1 781 0
 1005 00c2 3743     		orrs	r7, r7, r6
 1006              	.LVL100:
 1007              		.loc 1 784 0
 1008 00c4 6F63     		str	r7, [r5, #52]
 1009 00c6 BDE8F081 		pop	{r4, r5, r6, r7, r8, pc}
 1010              	.LVL101:
 1011              	.L89:
 1012              		.loc 1 793 0
 1013 00ca 073C     		subs	r4, r4, #7
 1014 00cc 04EB8404 		add	r4, r4, r4, lsl #2
 1015              		.loc 1 790 0
 1016 00d0 2B6B     		ldr	r3, [r5, #48]
 1017              	.LVL102:
 1018              		.loc 1 796 0
 1019 00d2 1F22     		movs	r2, #31
 1020 00d4 A240     		lsls	r2, r2, r4
 1021              	.LVL103:
 1022              		.loc 1 802 0
 1023 00d6 06FA04F4 		lsl	r4, r6, r4
 1024              		.loc 1 796 0
 1025 00da 23EA0206 		bic	r6, r3, r2
 1026              	.LVL104:
ARM GAS  /var/folders/m4/4md61f0s1_g0rzfghffqnxvr0000gn/T//ccmqP2UT.s 			page 19


 1027              		.loc 1 802 0
 1028 00de 3443     		orrs	r4, r4, r6
 1029              	.LVL105:
 1030              		.loc 1 805 0
 1031 00e0 2C63     		str	r4, [r5, #48]
 1032 00e2 BDE8F081 		pop	{r4, r5, r6, r7, r8, pc}
 1033              	.LVL106:
 1034              	.L86:
 1035              		.loc 1 719 0
 1036 00e6 0120     		movs	r0, #1
 1037              	.LVL107:
 1038 00e8 9BE7     		b	.L79
 1039              	.L91:
 1040 00ea 00BF     		.align	2
 1041              	.L90:
 1042 00ec 00200140 		.word	1073815552
 1043 00f0 00210140 		.word	1073815808
 1044 00f4 00220140 		.word	1073816064
 1045              		.cfi_endproc
 1046              	.LFE134:
 1047              		.size	ADC_RegularChannelConfig, .-ADC_RegularChannelConfig
 1048              		.section	.text.ADC_SoftwareStartConv,"ax",%progbits
 1049              		.align	2
 1050              		.p2align 4,,15
 1051              		.global	ADC_SoftwareStartConv
 1052              		.thumb
 1053              		.thumb_func
 1054              		.type	ADC_SoftwareStartConv, %function
 1055              	ADC_SoftwareStartConv:
 1056              	.LFB135:
 1057              		.loc 1 836 0
 1058              		.cfi_startproc
 1059              		@ args = 0, pretend = 0, frame = 0
 1060              		@ frame_needed = 0, uses_anonymous_args = 0
 1061              	.LVL108:
 1062              		.loc 1 838 0
 1063 0000 0B4B     		ldr	r3, .L97
 1064 0002 9842     		cmp	r0, r3
 1065              		.loc 1 836 0
 1066 0004 10B5     		push	{r4, lr}
 1067              		.cfi_def_cfa_offset 8
 1068              		.cfi_offset 4, -8
 1069              		.cfi_offset 14, -4
 1070              		.loc 1 836 0
 1071 0006 0446     		mov	r4, r0
 1072              		.loc 1 838 0
 1073 0008 0FD0     		beq	.L95
 1074              		.loc 1 838 0 is_stmt 0 discriminator 2
 1075 000a 03F58073 		add	r3, r3, #256
 1076 000e 9842     		cmp	r0, r3
 1077 0010 0BD0     		beq	.L95
 1078              		.loc 1 838 0 discriminator 4
 1079 0012 0848     		ldr	r0, .L97+4
 1080              	.LVL109:
 1081 0014 201A     		subs	r0, r4, r0
 1082 0016 B0FA80F0 		clz	r0, r0
 1083 001a 4009     		lsrs	r0, r0, #5
ARM GAS  /var/folders/m4/4md61f0s1_g0rzfghffqnxvr0000gn/T//ccmqP2UT.s 			page 20


 1084              	.L93:
 1085              		.loc 1 838 0 discriminator 8
 1086 001c FFF7FEFF 		bl	assert_param
 1087              	.LVL110:
 1088              		.loc 1 841 0 is_stmt 1 discriminator 8
 1089 0020 A368     		ldr	r3, [r4, #8]
 1090 0022 43F08043 		orr	r3, r3, #1073741824
 1091 0026 A360     		str	r3, [r4, #8]
 1092 0028 10BD     		pop	{r4, pc}
 1093              	.LVL111:
 1094              	.L95:
 1095              		.loc 1 838 0
 1096 002a 0120     		movs	r0, #1
 1097              	.LVL112:
 1098 002c F6E7     		b	.L93
 1099              	.L98:
 1100 002e 00BF     		.align	2
 1101              	.L97:
 1102 0030 00200140 		.word	1073815552
 1103 0034 00220140 		.word	1073816064
 1104              		.cfi_endproc
 1105              	.LFE135:
 1106              		.size	ADC_SoftwareStartConv, .-ADC_SoftwareStartConv
 1107              		.section	.text.ADC_GetSoftwareStartConvStatus,"ax",%progbits
 1108              		.align	2
 1109              		.p2align 4,,15
 1110              		.global	ADC_GetSoftwareStartConvStatus
 1111              		.thumb
 1112              		.thumb_func
 1113              		.type	ADC_GetSoftwareStartConvStatus, %function
 1114              	ADC_GetSoftwareStartConvStatus:
 1115              	.LFB136:
 1116              		.loc 1 850 0
 1117              		.cfi_startproc
 1118              		@ args = 0, pretend = 0, frame = 0
 1119              		@ frame_needed = 0, uses_anonymous_args = 0
 1120              	.LVL113:
 1121              		.loc 1 853 0
 1122 0000 0D4B     		ldr	r3, .L104
 1123 0002 9842     		cmp	r0, r3
 1124              		.loc 1 850 0
 1125 0004 10B5     		push	{r4, lr}
 1126              		.cfi_def_cfa_offset 8
 1127              		.cfi_offset 4, -8
 1128              		.cfi_offset 14, -4
 1129              		.loc 1 850 0
 1130 0006 0446     		mov	r4, r0
 1131              		.loc 1 853 0
 1132 0008 0ED0     		beq	.L102
 1133              		.loc 1 853 0 is_stmt 0 discriminator 2
 1134 000a 03F58073 		add	r3, r3, #256
 1135 000e 9842     		cmp	r0, r3
 1136 0010 0AD0     		beq	.L102
 1137              		.loc 1 853 0 discriminator 4
 1138 0012 0A48     		ldr	r0, .L104+4
 1139              	.LVL114:
 1140 0014 201A     		subs	r0, r4, r0
ARM GAS  /var/folders/m4/4md61f0s1_g0rzfghffqnxvr0000gn/T//ccmqP2UT.s 			page 21


 1141 0016 B0FA80F0 		clz	r0, r0
 1142 001a 4009     		lsrs	r0, r0, #5
 1143 001c FFF7FEFF 		bl	assert_param
 1144              	.LVL115:
 1145              		.loc 1 856 0 is_stmt 1 discriminator 4
 1146 0020 A068     		ldr	r0, [r4, #8]
 1147              	.LVL116:
 1148              		.loc 1 869 0 discriminator 4
 1149 0022 C0F38070 		ubfx	r0, r0, #30, #1
 1150              	.LVL117:
 1151 0026 10BD     		pop	{r4, pc}
 1152              	.LVL118:
 1153              	.L102:
 1154              		.loc 1 853 0
 1155 0028 0120     		movs	r0, #1
 1156              	.LVL119:
 1157 002a FFF7FEFF 		bl	assert_param
 1158              	.LVL120:
 1159              		.loc 1 856 0
 1160 002e A068     		ldr	r0, [r4, #8]
 1161              	.LVL121:
 1162              		.loc 1 869 0
 1163 0030 C0F38070 		ubfx	r0, r0, #30, #1
 1164              	.LVL122:
 1165 0034 10BD     		pop	{r4, pc}
 1166              	.LVL123:
 1167              	.L105:
 1168 0036 00BF     		.align	2
 1169              	.L104:
 1170 0038 00200140 		.word	1073815552
 1171 003c 00220140 		.word	1073816064
 1172              		.cfi_endproc
 1173              	.LFE136:
 1174              		.size	ADC_GetSoftwareStartConvStatus, .-ADC_GetSoftwareStartConvStatus
 1175              		.section	.text.ADC_EOCOnEachRegularChannelCmd,"ax",%progbits
 1176              		.align	2
 1177              		.p2align 4,,15
 1178              		.global	ADC_EOCOnEachRegularChannelCmd
 1179              		.thumb
 1180              		.thumb_func
 1181              		.type	ADC_EOCOnEachRegularChannelCmd, %function
 1182              	ADC_EOCOnEachRegularChannelCmd:
 1183              	.LFB137:
 1184              		.loc 1 880 0
 1185              		.cfi_startproc
 1186              		@ args = 0, pretend = 0, frame = 0
 1187              		@ frame_needed = 0, uses_anonymous_args = 0
 1188              	.LVL124:
 1189 0000 38B5     		push	{r3, r4, r5, lr}
 1190              		.cfi_def_cfa_offset 16
 1191              		.cfi_offset 3, -16
 1192              		.cfi_offset 4, -12
 1193              		.cfi_offset 5, -8
 1194              		.cfi_offset 14, -4
 1195              		.loc 1 882 0
 1196 0002 114B     		ldr	r3, .L114
 1197 0004 9842     		cmp	r0, r3
ARM GAS  /var/folders/m4/4md61f0s1_g0rzfghffqnxvr0000gn/T//ccmqP2UT.s 			page 22


 1198              		.loc 1 880 0
 1199 0006 0446     		mov	r4, r0
 1200 0008 0D46     		mov	r5, r1
 1201              		.loc 1 882 0
 1202 000a 1AD0     		beq	.L111
 1203              		.loc 1 882 0 is_stmt 0 discriminator 2
 1204 000c 03F58073 		add	r3, r3, #256
 1205 0010 9842     		cmp	r0, r3
 1206 0012 16D0     		beq	.L111
 1207              		.loc 1 882 0 discriminator 4
 1208 0014 0D48     		ldr	r0, .L114+4
 1209              	.LVL125:
 1210 0016 201A     		subs	r0, r4, r0
 1211 0018 B0FA80F0 		clz	r0, r0
 1212 001c 4009     		lsrs	r0, r0, #5
 1213              	.L107:
 1214              		.loc 1 882 0 discriminator 8
 1215 001e FFF7FEFF 		bl	assert_param
 1216              	.LVL126:
 1217              		.loc 1 883 0 is_stmt 1 discriminator 8
 1218 0022 012D     		cmp	r5, #1
 1219 0024 8CBF     		ite	hi
 1220 0026 0020     		movhi	r0, #0
 1221 0028 0120     		movls	r0, #1
 1222 002a FFF7FEFF 		bl	assert_param
 1223              	.LVL127:
 1224              		.loc 1 888 0 discriminator 8
 1225 002e A368     		ldr	r3, [r4, #8]
 1226              		.loc 1 885 0 discriminator 8
 1227 0030 1DB9     		cbnz	r5, .L113
 1228              		.loc 1 893 0
 1229 0032 23F48063 		bic	r3, r3, #1024
 1230 0036 A360     		str	r3, [r4, #8]
 1231 0038 38BD     		pop	{r3, r4, r5, pc}
 1232              	.LVL128:
 1233              	.L113:
 1234              		.loc 1 888 0
 1235 003a 43F48063 		orr	r3, r3, #1024
 1236 003e A360     		str	r3, [r4, #8]
 1237 0040 38BD     		pop	{r3, r4, r5, pc}
 1238              	.LVL129:
 1239              	.L111:
 1240              		.loc 1 882 0
 1241 0042 0120     		movs	r0, #1
 1242              	.LVL130:
 1243 0044 EBE7     		b	.L107
 1244              	.L115:
 1245 0046 00BF     		.align	2
 1246              	.L114:
 1247 0048 00200140 		.word	1073815552
 1248 004c 00220140 		.word	1073816064
 1249              		.cfi_endproc
 1250              	.LFE137:
 1251              		.size	ADC_EOCOnEachRegularChannelCmd, .-ADC_EOCOnEachRegularChannelCmd
 1252              		.section	.text.ADC_ContinuousModeCmd,"ax",%progbits
 1253              		.align	2
 1254              		.p2align 4,,15
ARM GAS  /var/folders/m4/4md61f0s1_g0rzfghffqnxvr0000gn/T//ccmqP2UT.s 			page 23


 1255              		.global	ADC_ContinuousModeCmd
 1256              		.thumb
 1257              		.thumb_func
 1258              		.type	ADC_ContinuousModeCmd, %function
 1259              	ADC_ContinuousModeCmd:
 1260              	.LFB138:
 1261              		.loc 1 905 0
 1262              		.cfi_startproc
 1263              		@ args = 0, pretend = 0, frame = 0
 1264              		@ frame_needed = 0, uses_anonymous_args = 0
 1265              	.LVL131:
 1266 0000 38B5     		push	{r3, r4, r5, lr}
 1267              		.cfi_def_cfa_offset 16
 1268              		.cfi_offset 3, -16
 1269              		.cfi_offset 4, -12
 1270              		.cfi_offset 5, -8
 1271              		.cfi_offset 14, -4
 1272              		.loc 1 907 0
 1273 0002 114B     		ldr	r3, .L124
 1274 0004 9842     		cmp	r0, r3
 1275              		.loc 1 905 0
 1276 0006 0446     		mov	r4, r0
 1277 0008 0D46     		mov	r5, r1
 1278              		.loc 1 907 0
 1279 000a 1AD0     		beq	.L121
 1280              		.loc 1 907 0 is_stmt 0 discriminator 2
 1281 000c 03F58073 		add	r3, r3, #256
 1282 0010 9842     		cmp	r0, r3
 1283 0012 16D0     		beq	.L121
 1284              		.loc 1 907 0 discriminator 4
 1285 0014 0D48     		ldr	r0, .L124+4
 1286              	.LVL132:
 1287 0016 201A     		subs	r0, r4, r0
 1288 0018 B0FA80F0 		clz	r0, r0
 1289 001c 4009     		lsrs	r0, r0, #5
 1290              	.L117:
 1291              		.loc 1 907 0 discriminator 8
 1292 001e FFF7FEFF 		bl	assert_param
 1293              	.LVL133:
 1294              		.loc 1 908 0 is_stmt 1 discriminator 8
 1295 0022 012D     		cmp	r5, #1
 1296 0024 8CBF     		ite	hi
 1297 0026 0020     		movhi	r0, #0
 1298 0028 0120     		movls	r0, #1
 1299 002a FFF7FEFF 		bl	assert_param
 1300              	.LVL134:
 1301              		.loc 1 913 0 discriminator 8
 1302 002e A368     		ldr	r3, [r4, #8]
 1303              		.loc 1 910 0 discriminator 8
 1304 0030 1DB9     		cbnz	r5, .L123
 1305              		.loc 1 918 0
 1306 0032 23F00203 		bic	r3, r3, #2
 1307 0036 A360     		str	r3, [r4, #8]
 1308 0038 38BD     		pop	{r3, r4, r5, pc}
 1309              	.LVL135:
 1310              	.L123:
 1311              		.loc 1 913 0
ARM GAS  /var/folders/m4/4md61f0s1_g0rzfghffqnxvr0000gn/T//ccmqP2UT.s 			page 24


 1312 003a 43F00203 		orr	r3, r3, #2
 1313 003e A360     		str	r3, [r4, #8]
 1314 0040 38BD     		pop	{r3, r4, r5, pc}
 1315              	.LVL136:
 1316              	.L121:
 1317              		.loc 1 907 0
 1318 0042 0120     		movs	r0, #1
 1319              	.LVL137:
 1320 0044 EBE7     		b	.L117
 1321              	.L125:
 1322 0046 00BF     		.align	2
 1323              	.L124:
 1324 0048 00200140 		.word	1073815552
 1325 004c 00220140 		.word	1073816064
 1326              		.cfi_endproc
 1327              	.LFE138:
 1328              		.size	ADC_ContinuousModeCmd, .-ADC_ContinuousModeCmd
 1329              		.section	.text.ADC_DiscModeChannelCountConfig,"ax",%progbits
 1330              		.align	2
 1331              		.p2align 4,,15
 1332              		.global	ADC_DiscModeChannelCountConfig
 1333              		.thumb
 1334              		.thumb_func
 1335              		.type	ADC_DiscModeChannelCountConfig, %function
 1336              	ADC_DiscModeChannelCountConfig:
 1337              	.LFB139:
 1338              		.loc 1 931 0
 1339              		.cfi_startproc
 1340              		@ args = 0, pretend = 0, frame = 0
 1341              		@ frame_needed = 0, uses_anonymous_args = 0
 1342              	.LVL138:
 1343 0000 38B5     		push	{r3, r4, r5, lr}
 1344              		.cfi_def_cfa_offset 16
 1345              		.cfi_offset 3, -16
 1346              		.cfi_offset 4, -12
 1347              		.cfi_offset 5, -8
 1348              		.cfi_offset 14, -4
 1349              		.loc 1 936 0
 1350 0002 104B     		ldr	r3, .L131
 1351 0004 9842     		cmp	r0, r3
 1352              		.loc 1 931 0
 1353 0006 0446     		mov	r4, r0
 1354              		.loc 1 936 0
 1355 0008 19D0     		beq	.L129
 1356              		.loc 1 936 0 is_stmt 0 discriminator 2
 1357 000a 03F58073 		add	r3, r3, #256
 1358 000e 9842     		cmp	r0, r3
 1359 0010 15D0     		beq	.L129
 1360              		.loc 1 936 0 discriminator 4
 1361 0012 0D48     		ldr	r0, .L131+4
 1362              	.LVL139:
 1363 0014 201A     		subs	r0, r4, r0
 1364 0016 B0FA80F0 		clz	r0, r0
 1365 001a 4009     		lsrs	r0, r0, #5
 1366              	.L127:
 1367              		.loc 1 937 0 is_stmt 1 discriminator 8
 1368 001c 4D1E     		subs	r5, r1, #1
ARM GAS  /var/folders/m4/4md61f0s1_g0rzfghffqnxvr0000gn/T//ccmqP2UT.s 			page 25


 1369              		.loc 1 936 0 discriminator 8
 1370 001e FFF7FEFF 		bl	assert_param
 1371              	.LVL140:
 1372              		.loc 1 937 0 discriminator 8
 1373 0022 E8B2     		uxtb	r0, r5
 1374 0024 0728     		cmp	r0, #7
 1375 0026 8CBF     		ite	hi
 1376 0028 0020     		movhi	r0, #0
 1377 002a 0120     		movls	r0, #1
 1378 002c FFF7FEFF 		bl	assert_param
 1379              	.LVL141:
 1380              		.loc 1 940 0 discriminator 8
 1381 0030 6168     		ldr	r1, [r4, #4]
 1382              	.LVL142:
 1383              		.loc 1 943 0 discriminator 8
 1384 0032 21F46041 		bic	r1, r1, #57344
 1385              	.LVL143:
 1386              		.loc 1 947 0 discriminator 8
 1387 0036 41EA4531 		orr	r1, r1, r5, lsl #13
 1388              	.LVL144:
 1389              		.loc 1 950 0 discriminator 8
 1390 003a 6160     		str	r1, [r4, #4]
 1391 003c 38BD     		pop	{r3, r4, r5, pc}
 1392              	.LVL145:
 1393              	.L129:
 1394              		.loc 1 936 0
 1395 003e 0120     		movs	r0, #1
 1396              	.LVL146:
 1397 0040 ECE7     		b	.L127
 1398              	.L132:
 1399 0042 00BF     		.align	2
 1400              	.L131:
 1401 0044 00200140 		.word	1073815552
 1402 0048 00220140 		.word	1073816064
 1403              		.cfi_endproc
 1404              	.LFE139:
 1405              		.size	ADC_DiscModeChannelCountConfig, .-ADC_DiscModeChannelCountConfig
 1406              		.section	.text.ADC_DiscModeCmd,"ax",%progbits
 1407              		.align	2
 1408              		.p2align 4,,15
 1409              		.global	ADC_DiscModeCmd
 1410              		.thumb
 1411              		.thumb_func
 1412              		.type	ADC_DiscModeCmd, %function
 1413              	ADC_DiscModeCmd:
 1414              	.LFB140:
 1415              		.loc 1 963 0
 1416              		.cfi_startproc
 1417              		@ args = 0, pretend = 0, frame = 0
 1418              		@ frame_needed = 0, uses_anonymous_args = 0
 1419              	.LVL147:
 1420 0000 38B5     		push	{r3, r4, r5, lr}
 1421              		.cfi_def_cfa_offset 16
 1422              		.cfi_offset 3, -16
 1423              		.cfi_offset 4, -12
 1424              		.cfi_offset 5, -8
 1425              		.cfi_offset 14, -4
ARM GAS  /var/folders/m4/4md61f0s1_g0rzfghffqnxvr0000gn/T//ccmqP2UT.s 			page 26


 1426              		.loc 1 965 0
 1427 0002 114B     		ldr	r3, .L141
 1428 0004 9842     		cmp	r0, r3
 1429              		.loc 1 963 0
 1430 0006 0446     		mov	r4, r0
 1431 0008 0D46     		mov	r5, r1
 1432              		.loc 1 965 0
 1433 000a 1AD0     		beq	.L138
 1434              		.loc 1 965 0 is_stmt 0 discriminator 2
 1435 000c 03F58073 		add	r3, r3, #256
 1436 0010 9842     		cmp	r0, r3
 1437 0012 16D0     		beq	.L138
 1438              		.loc 1 965 0 discriminator 4
 1439 0014 0D48     		ldr	r0, .L141+4
 1440              	.LVL148:
 1441 0016 201A     		subs	r0, r4, r0
 1442 0018 B0FA80F0 		clz	r0, r0
 1443 001c 4009     		lsrs	r0, r0, #5
 1444              	.L134:
 1445              		.loc 1 965 0 discriminator 8
 1446 001e FFF7FEFF 		bl	assert_param
 1447              	.LVL149:
 1448              		.loc 1 966 0 is_stmt 1 discriminator 8
 1449 0022 012D     		cmp	r5, #1
 1450 0024 8CBF     		ite	hi
 1451 0026 0020     		movhi	r0, #0
 1452 0028 0120     		movls	r0, #1
 1453 002a FFF7FEFF 		bl	assert_param
 1454              	.LVL150:
 1455              		.loc 1 971 0 discriminator 8
 1456 002e 6368     		ldr	r3, [r4, #4]
 1457              		.loc 1 968 0 discriminator 8
 1458 0030 1DB9     		cbnz	r5, .L140
 1459              		.loc 1 976 0
 1460 0032 23F40063 		bic	r3, r3, #2048
 1461 0036 6360     		str	r3, [r4, #4]
 1462 0038 38BD     		pop	{r3, r4, r5, pc}
 1463              	.LVL151:
 1464              	.L140:
 1465              		.loc 1 971 0
 1466 003a 43F40063 		orr	r3, r3, #2048
 1467 003e 6360     		str	r3, [r4, #4]
 1468 0040 38BD     		pop	{r3, r4, r5, pc}
 1469              	.LVL152:
 1470              	.L138:
 1471              		.loc 1 965 0
 1472 0042 0120     		movs	r0, #1
 1473              	.LVL153:
 1474 0044 EBE7     		b	.L134
 1475              	.L142:
 1476 0046 00BF     		.align	2
 1477              	.L141:
 1478 0048 00200140 		.word	1073815552
 1479 004c 00220140 		.word	1073816064
 1480              		.cfi_endproc
 1481              	.LFE140:
 1482              		.size	ADC_DiscModeCmd, .-ADC_DiscModeCmd
ARM GAS  /var/folders/m4/4md61f0s1_g0rzfghffqnxvr0000gn/T//ccmqP2UT.s 			page 27


 1483              		.section	.text.ADC_GetConversionValue,"ax",%progbits
 1484              		.align	2
 1485              		.p2align 4,,15
 1486              		.global	ADC_GetConversionValue
 1487              		.thumb
 1488              		.thumb_func
 1489              		.type	ADC_GetConversionValue, %function
 1490              	ADC_GetConversionValue:
 1491              	.LFB141:
 1492              		.loc 1 986 0
 1493              		.cfi_startproc
 1494              		@ args = 0, pretend = 0, frame = 0
 1495              		@ frame_needed = 0, uses_anonymous_args = 0
 1496              	.LVL154:
 1497              		.loc 1 988 0
 1498 0000 0C4B     		ldr	r3, .L148
 1499 0002 9842     		cmp	r0, r3
 1500              		.loc 1 986 0
 1501 0004 10B5     		push	{r4, lr}
 1502              		.cfi_def_cfa_offset 8
 1503              		.cfi_offset 4, -8
 1504              		.cfi_offset 14, -4
 1505              		.loc 1 986 0
 1506 0006 0446     		mov	r4, r0
 1507              		.loc 1 988 0
 1508 0008 0DD0     		beq	.L146
 1509              		.loc 1 988 0 is_stmt 0 discriminator 2
 1510 000a 03F58073 		add	r3, r3, #256
 1511 000e 9842     		cmp	r0, r3
 1512 0010 09D0     		beq	.L146
 1513              		.loc 1 988 0 discriminator 4
 1514 0012 0948     		ldr	r0, .L148+4
 1515              	.LVL155:
 1516 0014 201A     		subs	r0, r4, r0
 1517 0016 B0FA80F0 		clz	r0, r0
 1518 001a 4009     		lsrs	r0, r0, #5
 1519 001c FFF7FEFF 		bl	assert_param
 1520              	.LVL156:
 1521              		.loc 1 991 0 is_stmt 1 discriminator 4
 1522 0020 E06C     		ldr	r0, [r4, #76]
 1523              		.loc 1 992 0 discriminator 4
 1524 0022 80B2     		uxth	r0, r0
 1525 0024 10BD     		pop	{r4, pc}
 1526              	.LVL157:
 1527              	.L146:
 1528              		.loc 1 988 0
 1529 0026 0120     		movs	r0, #1
 1530              	.LVL158:
 1531 0028 FFF7FEFF 		bl	assert_param
 1532              	.LVL159:
 1533              		.loc 1 991 0
 1534 002c E06C     		ldr	r0, [r4, #76]
 1535              		.loc 1 992 0
 1536 002e 80B2     		uxth	r0, r0
 1537 0030 10BD     		pop	{r4, pc}
 1538              	.LVL160:
 1539              	.L149:
ARM GAS  /var/folders/m4/4md61f0s1_g0rzfghffqnxvr0000gn/T//ccmqP2UT.s 			page 28


 1540 0032 00BF     		.align	2
 1541              	.L148:
 1542 0034 00200140 		.word	1073815552
 1543 0038 00220140 		.word	1073816064
 1544              		.cfi_endproc
 1545              	.LFE141:
 1546              		.size	ADC_GetConversionValue, .-ADC_GetConversionValue
 1547              		.section	.text.ADC_GetMultiModeConversionValue,"ax",%progbits
 1548              		.align	2
 1549              		.p2align 4,,15
 1550              		.global	ADC_GetMultiModeConversionValue
 1551              		.thumb
 1552              		.thumb_func
 1553              		.type	ADC_GetMultiModeConversionValue, %function
 1554              	ADC_GetMultiModeConversionValue:
 1555              	.LFB142:
 1556              		.loc 1 1007 0
 1557              		.cfi_startproc
 1558              		@ args = 0, pretend = 0, frame = 0
 1559              		@ frame_needed = 0, uses_anonymous_args = 0
 1560              		@ link register save eliminated.
 1561              		.loc 1 1009 0
 1562 0000 014B     		ldr	r3, .L151
 1563 0002 1868     		ldr	r0, [r3]
 1564              		.loc 1 1010 0
 1565 0004 7047     		bx	lr
 1566              	.L152:
 1567 0006 00BF     		.align	2
 1568              	.L151:
 1569 0008 08230140 		.word	1073816328
 1570              		.cfi_endproc
 1571              	.LFE142:
 1572              		.size	ADC_GetMultiModeConversionValue, .-ADC_GetMultiModeConversionValue
 1573              		.section	.text.ADC_DMACmd,"ax",%progbits
 1574              		.align	2
 1575              		.p2align 4,,15
 1576              		.global	ADC_DMACmd
 1577              		.thumb
 1578              		.thumb_func
 1579              		.type	ADC_DMACmd, %function
 1580              	ADC_DMACmd:
 1581              	.LFB143:
 1582              		.loc 1 1053 0
 1583              		.cfi_startproc
 1584              		@ args = 0, pretend = 0, frame = 0
 1585              		@ frame_needed = 0, uses_anonymous_args = 0
 1586              	.LVL161:
 1587 0000 38B5     		push	{r3, r4, r5, lr}
 1588              		.cfi_def_cfa_offset 16
 1589              		.cfi_offset 3, -16
 1590              		.cfi_offset 4, -12
 1591              		.cfi_offset 5, -8
 1592              		.cfi_offset 14, -4
 1593              		.loc 1 1055 0
 1594 0002 114B     		ldr	r3, .L161
 1595 0004 9842     		cmp	r0, r3
 1596              		.loc 1 1053 0
ARM GAS  /var/folders/m4/4md61f0s1_g0rzfghffqnxvr0000gn/T//ccmqP2UT.s 			page 29


 1597 0006 0446     		mov	r4, r0
 1598 0008 0D46     		mov	r5, r1
 1599              		.loc 1 1055 0
 1600 000a 1AD0     		beq	.L158
 1601              		.loc 1 1055 0 is_stmt 0 discriminator 2
 1602 000c 03F58073 		add	r3, r3, #256
 1603 0010 9842     		cmp	r0, r3
 1604 0012 16D0     		beq	.L158
 1605              		.loc 1 1055 0 discriminator 4
 1606 0014 0D48     		ldr	r0, .L161+4
 1607              	.LVL162:
 1608 0016 201A     		subs	r0, r4, r0
 1609 0018 B0FA80F0 		clz	r0, r0
 1610 001c 4009     		lsrs	r0, r0, #5
 1611              	.L154:
 1612              		.loc 1 1055 0 discriminator 8
 1613 001e FFF7FEFF 		bl	assert_param
 1614              	.LVL163:
 1615              		.loc 1 1056 0 is_stmt 1 discriminator 8
 1616 0022 012D     		cmp	r5, #1
 1617 0024 8CBF     		ite	hi
 1618 0026 0020     		movhi	r0, #0
 1619 0028 0120     		movls	r0, #1
 1620 002a FFF7FEFF 		bl	assert_param
 1621              	.LVL164:
 1622              		.loc 1 1060 0 discriminator 8
 1623 002e A368     		ldr	r3, [r4, #8]
 1624              		.loc 1 1057 0 discriminator 8
 1625 0030 1DB9     		cbnz	r5, .L160
 1626              		.loc 1 1065 0
 1627 0032 23F48073 		bic	r3, r3, #256
 1628 0036 A360     		str	r3, [r4, #8]
 1629 0038 38BD     		pop	{r3, r4, r5, pc}
 1630              	.LVL165:
 1631              	.L160:
 1632              		.loc 1 1060 0
 1633 003a 43F48073 		orr	r3, r3, #256
 1634 003e A360     		str	r3, [r4, #8]
 1635 0040 38BD     		pop	{r3, r4, r5, pc}
 1636              	.LVL166:
 1637              	.L158:
 1638              		.loc 1 1055 0
 1639 0042 0120     		movs	r0, #1
 1640              	.LVL167:
 1641 0044 EBE7     		b	.L154
 1642              	.L162:
 1643 0046 00BF     		.align	2
 1644              	.L161:
 1645 0048 00200140 		.word	1073815552
 1646 004c 00220140 		.word	1073816064
 1647              		.cfi_endproc
 1648              	.LFE143:
 1649              		.size	ADC_DMACmd, .-ADC_DMACmd
 1650              		.section	.text.ADC_DMARequestAfterLastTransferCmd,"ax",%progbits
 1651              		.align	2
 1652              		.p2align 4,,15
 1653              		.global	ADC_DMARequestAfterLastTransferCmd
ARM GAS  /var/folders/m4/4md61f0s1_g0rzfghffqnxvr0000gn/T//ccmqP2UT.s 			page 30


 1654              		.thumb
 1655              		.thumb_func
 1656              		.type	ADC_DMARequestAfterLastTransferCmd, %function
 1657              	ADC_DMARequestAfterLastTransferCmd:
 1658              	.LFB144:
 1659              		.loc 1 1077 0
 1660              		.cfi_startproc
 1661              		@ args = 0, pretend = 0, frame = 0
 1662              		@ frame_needed = 0, uses_anonymous_args = 0
 1663              	.LVL168:
 1664 0000 38B5     		push	{r3, r4, r5, lr}
 1665              		.cfi_def_cfa_offset 16
 1666              		.cfi_offset 3, -16
 1667              		.cfi_offset 4, -12
 1668              		.cfi_offset 5, -8
 1669              		.cfi_offset 14, -4
 1670              		.loc 1 1079 0
 1671 0002 114B     		ldr	r3, .L171
 1672 0004 9842     		cmp	r0, r3
 1673              		.loc 1 1077 0
 1674 0006 0446     		mov	r4, r0
 1675 0008 0D46     		mov	r5, r1
 1676              		.loc 1 1079 0
 1677 000a 1AD0     		beq	.L168
 1678              		.loc 1 1079 0 is_stmt 0 discriminator 2
 1679 000c 03F58073 		add	r3, r3, #256
 1680 0010 9842     		cmp	r0, r3
 1681 0012 16D0     		beq	.L168
 1682              		.loc 1 1079 0 discriminator 4
 1683 0014 0D48     		ldr	r0, .L171+4
 1684              	.LVL169:
 1685 0016 201A     		subs	r0, r4, r0
 1686 0018 B0FA80F0 		clz	r0, r0
 1687 001c 4009     		lsrs	r0, r0, #5
 1688              	.L164:
 1689              		.loc 1 1079 0 discriminator 8
 1690 001e FFF7FEFF 		bl	assert_param
 1691              	.LVL170:
 1692              		.loc 1 1080 0 is_stmt 1 discriminator 8
 1693 0022 012D     		cmp	r5, #1
 1694 0024 8CBF     		ite	hi
 1695 0026 0020     		movhi	r0, #0
 1696 0028 0120     		movls	r0, #1
 1697 002a FFF7FEFF 		bl	assert_param
 1698              	.LVL171:
 1699              		.loc 1 1084 0 discriminator 8
 1700 002e A368     		ldr	r3, [r4, #8]
 1701              		.loc 1 1081 0 discriminator 8
 1702 0030 1DB9     		cbnz	r5, .L170
 1703              		.loc 1 1089 0
 1704 0032 23F40073 		bic	r3, r3, #512
 1705 0036 A360     		str	r3, [r4, #8]
 1706 0038 38BD     		pop	{r3, r4, r5, pc}
 1707              	.LVL172:
 1708              	.L170:
 1709              		.loc 1 1084 0
 1710 003a 43F40073 		orr	r3, r3, #512
ARM GAS  /var/folders/m4/4md61f0s1_g0rzfghffqnxvr0000gn/T//ccmqP2UT.s 			page 31


 1711 003e A360     		str	r3, [r4, #8]
 1712 0040 38BD     		pop	{r3, r4, r5, pc}
 1713              	.LVL173:
 1714              	.L168:
 1715              		.loc 1 1079 0
 1716 0042 0120     		movs	r0, #1
 1717              	.LVL174:
 1718 0044 EBE7     		b	.L164
 1719              	.L172:
 1720 0046 00BF     		.align	2
 1721              	.L171:
 1722 0048 00200140 		.word	1073815552
 1723 004c 00220140 		.word	1073816064
 1724              		.cfi_endproc
 1725              	.LFE144:
 1726              		.size	ADC_DMARequestAfterLastTransferCmd, .-ADC_DMARequestAfterLastTransferCmd
 1727              		.section	.text.ADC_MultiModeDMARequestAfterLastTransferCmd,"ax",%progbits
 1728              		.align	2
 1729              		.p2align 4,,15
 1730              		.global	ADC_MultiModeDMARequestAfterLastTransferCmd
 1731              		.thumb
 1732              		.thumb_func
 1733              		.type	ADC_MultiModeDMARequestAfterLastTransferCmd, %function
 1734              	ADC_MultiModeDMARequestAfterLastTransferCmd:
 1735              	.LFB145:
 1736              		.loc 1 1104 0
 1737              		.cfi_startproc
 1738              		@ args = 0, pretend = 0, frame = 0
 1739              		@ frame_needed = 0, uses_anonymous_args = 0
 1740              	.LVL175:
 1741              		.loc 1 1106 0
 1742 0000 0128     		cmp	r0, #1
 1743              		.loc 1 1104 0
 1744 0002 10B5     		push	{r4, lr}
 1745              		.cfi_def_cfa_offset 8
 1746              		.cfi_offset 4, -8
 1747              		.cfi_offset 14, -4
 1748              		.loc 1 1104 0
 1749 0004 0446     		mov	r4, r0
 1750              		.loc 1 1106 0
 1751 0006 8CBF     		ite	hi
 1752 0008 0020     		movhi	r0, #0
 1753              	.LVL176:
 1754 000a 0120     		movls	r0, #1
 1755 000c FFF7FEFF 		bl	assert_param
 1756              	.LVL177:
 1757              		.loc 1 1110 0
 1758 0010 054A     		ldr	r2, .L178
 1759 0012 5368     		ldr	r3, [r2, #4]
 1760              		.loc 1 1107 0
 1761 0014 1CB9     		cbnz	r4, .L177
 1762              		.loc 1 1115 0
 1763 0016 23F40053 		bic	r3, r3, #8192
 1764 001a 5360     		str	r3, [r2, #4]
 1765 001c 10BD     		pop	{r4, pc}
 1766              	.L177:
 1767              		.loc 1 1110 0
ARM GAS  /var/folders/m4/4md61f0s1_g0rzfghffqnxvr0000gn/T//ccmqP2UT.s 			page 32


 1768 001e 43F40053 		orr	r3, r3, #8192
 1769 0022 5360     		str	r3, [r2, #4]
 1770 0024 10BD     		pop	{r4, pc}
 1771              	.L179:
 1772 0026 00BF     		.align	2
 1773              	.L178:
 1774 0028 00230140 		.word	1073816320
 1775              		.cfi_endproc
 1776              	.LFE145:
 1777              		.size	ADC_MultiModeDMARequestAfterLastTransferCmd, .-ADC_MultiModeDMARequestAfterLastTransferCmd
 1778              		.section	.text.ADC_InjectedChannelConfig,"ax",%progbits
 1779              		.align	2
 1780              		.p2align 4,,15
 1781              		.global	ADC_InjectedChannelConfig
 1782              		.thumb
 1783              		.thumb_func
 1784              		.type	ADC_InjectedChannelConfig, %function
 1785              	ADC_InjectedChannelConfig:
 1786              	.LFB146:
 1787              		.loc 1 1191 0
 1788              		.cfi_startproc
 1789              		@ args = 0, pretend = 0, frame = 0
 1790              		@ frame_needed = 0, uses_anonymous_args = 0
 1791              	.LVL178:
 1792 0000 F8B5     		push	{r3, r4, r5, r6, r7, lr}
 1793              		.cfi_def_cfa_offset 24
 1794              		.cfi_offset 3, -24
 1795              		.cfi_offset 4, -20
 1796              		.cfi_offset 5, -16
 1797              		.cfi_offset 6, -12
 1798              		.cfi_offset 7, -8
 1799              		.cfi_offset 14, -4
 1800              		.loc 1 1194 0
 1801 0002 DFF8A8E0 		ldr	lr, .L188+8
 1802 0006 7045     		cmp	r0, lr
 1803              		.loc 1 1191 0
 1804 0008 0646     		mov	r6, r0
 1805 000a 0D46     		mov	r5, r1
 1806 000c 1446     		mov	r4, r2
 1807 000e 1F46     		mov	r7, r3
 1808              		.loc 1 1194 0
 1809 0010 46D0     		beq	.L185
 1810              		.loc 1 1194 0 is_stmt 0 discriminator 2
 1811 0012 244B     		ldr	r3, .L188
 1812              	.LVL179:
 1813 0014 9842     		cmp	r0, r3
 1814 0016 43D0     		beq	.L185
 1815              		.loc 1 1194 0 discriminator 4
 1816 0018 2348     		ldr	r0, .L188+4
 1817              	.LVL180:
 1818 001a 301A     		subs	r0, r6, r0
 1819 001c B0FA80F0 		clz	r0, r0
 1820 0020 4009     		lsrs	r0, r0, #5
 1821              	.L181:
 1822              		.loc 1 1194 0 discriminator 8
 1823 0022 FFF7FEFF 		bl	assert_param
 1824              	.LVL181:
ARM GAS  /var/folders/m4/4md61f0s1_g0rzfghffqnxvr0000gn/T//ccmqP2UT.s 			page 33


 1825              		.loc 1 1195 0 is_stmt 1 discriminator 8
 1826 0026 122D     		cmp	r5, #18
 1827 0028 8CBF     		ite	hi
 1828 002a 0020     		movhi	r0, #0
 1829 002c 0120     		movls	r0, #1
 1830 002e FFF7FEFF 		bl	assert_param
 1831              	.LVL182:
 1832              		.loc 1 1196 0 discriminator 8
 1833 0032 601E     		subs	r0, r4, #1
 1834 0034 0328     		cmp	r0, #3
 1835 0036 8CBF     		ite	hi
 1836 0038 0020     		movhi	r0, #0
 1837 003a 0120     		movls	r0, #1
 1838 003c FFF7FEFF 		bl	assert_param
 1839              	.LVL183:
 1840              		.loc 1 1197 0 discriminator 8
 1841 0040 072F     		cmp	r7, #7
 1842 0042 8CBF     		ite	hi
 1843 0044 0020     		movhi	r0, #0
 1844 0046 0120     		movls	r0, #1
 1845 0048 FFF7FEFF 		bl	assert_param
 1846              	.LVL184:
 1847              		.loc 1 1199 0 discriminator 8
 1848 004c 092D     		cmp	r5, #9
 1849 004e 1AD8     		bhi	.L187
 1850              		.loc 1 1219 0
 1851 0050 05EB4501 		add	r1, r5, r5, lsl #1
 1852              		.loc 1 1217 0
 1853 0054 3269     		ldr	r2, [r6, #16]
 1854              	.LVL185:
 1855              		.loc 1 1221 0
 1856 0056 0723     		movs	r3, #7
 1857 0058 8B40     		lsls	r3, r3, r1
 1858              	.LVL186:
 1859              		.loc 1 1225 0
 1860 005a 8F40     		lsls	r7, r7, r1
 1861              		.loc 1 1221 0
 1862 005c 22EA0303 		bic	r3, r2, r3
 1863              	.LVL187:
 1864              		.loc 1 1225 0
 1865 0060 1F43     		orrs	r7, r7, r3
 1866              	.LVL188:
 1867              		.loc 1 1227 0
 1868 0062 3761     		str	r7, [r6, #16]
 1869              	.L183:
 1870              		.loc 1 1231 0
 1871 0064 B36B     		ldr	r3, [r6, #56]
 1872              	.LVL189:
 1873              		.loc 1 1235 0
 1874 0066 0234     		adds	r4, r4, #2
 1875 0068 C3F30152 		ubfx	r2, r3, #20, #2
 1876 006c A41A     		subs	r4, r4, r2
 1877 006e E4B2     		uxtb	r4, r4
 1878 0070 04EB8404 		add	r4, r4, r4, lsl #2
 1879              	.LVL190:
 1880              		.loc 1 1237 0
 1881 0074 1F21     		movs	r1, #31
ARM GAS  /var/folders/m4/4md61f0s1_g0rzfghffqnxvr0000gn/T//ccmqP2UT.s 			page 34


 1882 0076 A140     		lsls	r1, r1, r4
 1883              	.LVL191:
 1884 0078 23EA0103 		bic	r3, r3, r1
 1885              	.LVL192:
 1886              		.loc 1 1241 0
 1887 007c 05FA04F4 		lsl	r4, r5, r4
 1888              	.LVL193:
 1889 0080 1C43     		orrs	r4, r4, r3
 1890              	.LVL194:
 1891              		.loc 1 1243 0
 1892 0082 B463     		str	r4, [r6, #56]
 1893 0084 F8BD     		pop	{r3, r4, r5, r6, r7, pc}
 1894              	.LVL195:
 1895              	.L187:
 1896              		.loc 1 1204 0
 1897 0086 A5F10A03 		sub	r3, r5, #10
 1898 008a 03EB4303 		add	r3, r3, r3, lsl #1
 1899              		.loc 1 1202 0
 1900 008e F268     		ldr	r2, [r6, #12]
 1901              	.LVL196:
 1902              		.loc 1 1206 0
 1903 0090 0721     		movs	r1, #7
 1904 0092 9940     		lsls	r1, r1, r3
 1905              	.LVL197:
 1906              		.loc 1 1210 0
 1907 0094 9F40     		lsls	r7, r7, r3
 1908              		.loc 1 1206 0
 1909 0096 22EA0103 		bic	r3, r2, r1
 1910              	.LVL198:
 1911              		.loc 1 1210 0
 1912 009a 1F43     		orrs	r7, r7, r3
 1913              	.LVL199:
 1914              		.loc 1 1212 0
 1915 009c F760     		str	r7, [r6, #12]
 1916 009e E1E7     		b	.L183
 1917              	.LVL200:
 1918              	.L185:
 1919              		.loc 1 1194 0
 1920 00a0 0120     		movs	r0, #1
 1921              	.LVL201:
 1922 00a2 BEE7     		b	.L181
 1923              	.L189:
 1924              		.align	2
 1925              	.L188:
 1926 00a4 00210140 		.word	1073815808
 1927 00a8 00220140 		.word	1073816064
 1928 00ac 00200140 		.word	1073815552
 1929              		.cfi_endproc
 1930              	.LFE146:
 1931              		.size	ADC_InjectedChannelConfig, .-ADC_InjectedChannelConfig
 1932              		.section	.text.ADC_InjectedSequencerLengthConfig,"ax",%progbits
 1933              		.align	2
 1934              		.p2align 4,,15
 1935              		.global	ADC_InjectedSequencerLengthConfig
 1936              		.thumb
 1937              		.thumb_func
 1938              		.type	ADC_InjectedSequencerLengthConfig, %function
ARM GAS  /var/folders/m4/4md61f0s1_g0rzfghffqnxvr0000gn/T//ccmqP2UT.s 			page 35


 1939              	ADC_InjectedSequencerLengthConfig:
 1940              	.LFB147:
 1941              		.loc 1 1254 0
 1942              		.cfi_startproc
 1943              		@ args = 0, pretend = 0, frame = 0
 1944              		@ frame_needed = 0, uses_anonymous_args = 0
 1945              	.LVL202:
 1946 0000 38B5     		push	{r3, r4, r5, lr}
 1947              		.cfi_def_cfa_offset 16
 1948              		.cfi_offset 3, -16
 1949              		.cfi_offset 4, -12
 1950              		.cfi_offset 5, -8
 1951              		.cfi_offset 14, -4
 1952              		.loc 1 1258 0
 1953 0002 104B     		ldr	r3, .L195
 1954 0004 9842     		cmp	r0, r3
 1955              		.loc 1 1254 0
 1956 0006 0446     		mov	r4, r0
 1957              		.loc 1 1258 0
 1958 0008 19D0     		beq	.L193
 1959              		.loc 1 1258 0 is_stmt 0 discriminator 2
 1960 000a 03F58073 		add	r3, r3, #256
 1961 000e 9842     		cmp	r0, r3
 1962 0010 15D0     		beq	.L193
 1963              		.loc 1 1258 0 discriminator 4
 1964 0012 0D48     		ldr	r0, .L195+4
 1965              	.LVL203:
 1966 0014 201A     		subs	r0, r4, r0
 1967 0016 B0FA80F0 		clz	r0, r0
 1968 001a 4009     		lsrs	r0, r0, #5
 1969              	.L191:
 1970              		.loc 1 1259 0 is_stmt 1 discriminator 8
 1971 001c 4D1E     		subs	r5, r1, #1
 1972              		.loc 1 1258 0 discriminator 8
 1973 001e FFF7FEFF 		bl	assert_param
 1974              	.LVL204:
 1975              		.loc 1 1259 0 discriminator 8
 1976 0022 E8B2     		uxtb	r0, r5
 1977 0024 0328     		cmp	r0, #3
 1978 0026 8CBF     		ite	hi
 1979 0028 0020     		movhi	r0, #0
 1980 002a 0120     		movls	r0, #1
 1981 002c FFF7FEFF 		bl	assert_param
 1982              	.LVL205:
 1983              		.loc 1 1262 0 discriminator 8
 1984 0030 A16B     		ldr	r1, [r4, #56]
 1985              	.LVL206:
 1986              		.loc 1 1265 0 discriminator 8
 1987 0032 21F44011 		bic	r1, r1, #3145728
 1988              	.LVL207:
 1989              		.loc 1 1269 0 discriminator 8
 1990 0036 41EA0551 		orr	r1, r1, r5, lsl #20
 1991              	.LVL208:
 1992              		.loc 1 1272 0 discriminator 8
 1993 003a A163     		str	r1, [r4, #56]
 1994 003c 38BD     		pop	{r3, r4, r5, pc}
 1995              	.LVL209:
ARM GAS  /var/folders/m4/4md61f0s1_g0rzfghffqnxvr0000gn/T//ccmqP2UT.s 			page 36


 1996              	.L193:
 1997              		.loc 1 1258 0
 1998 003e 0120     		movs	r0, #1
 1999              	.LVL210:
 2000 0040 ECE7     		b	.L191
 2001              	.L196:
 2002 0042 00BF     		.align	2
 2003              	.L195:
 2004 0044 00200140 		.word	1073815552
 2005 0048 00220140 		.word	1073816064
 2006              		.cfi_endproc
 2007              	.LFE147:
 2008              		.size	ADC_InjectedSequencerLengthConfig, .-ADC_InjectedSequencerLengthConfig
 2009              		.section	.text.ADC_SetInjectedOffset,"ax",%progbits
 2010              		.align	2
 2011              		.p2align 4,,15
 2012              		.global	ADC_SetInjectedOffset
 2013              		.thumb
 2014              		.thumb_func
 2015              		.type	ADC_SetInjectedOffset, %function
 2016              	ADC_SetInjectedOffset:
 2017              	.LFB148:
 2018              		.loc 1 1289 0
 2019              		.cfi_startproc
 2020              		@ args = 0, pretend = 0, frame = 8
 2021              		@ frame_needed = 0, uses_anonymous_args = 0
 2022              	.LVL211:
 2023 0000 70B5     		push	{r4, r5, r6, lr}
 2024              		.cfi_def_cfa_offset 16
 2025              		.cfi_offset 4, -16
 2026              		.cfi_offset 5, -12
 2027              		.cfi_offset 6, -8
 2028              		.cfi_offset 14, -4
 2029              		.loc 1 1292 0
 2030 0002 194B     		ldr	r3, .L204
 2031              		.loc 1 1289 0
 2032 0004 0446     		mov	r4, r0
 2033 0006 82B0     		sub	sp, sp, #8
 2034              		.cfi_def_cfa_offset 24
 2035              		.loc 1 1290 0
 2036 0008 0020     		movs	r0, #0
 2037              	.LVL212:
 2038              		.loc 1 1292 0
 2039 000a 9C42     		cmp	r4, r3
 2040              		.loc 1 1289 0
 2041 000c 0E46     		mov	r6, r1
 2042 000e 1546     		mov	r5, r2
 2043              		.loc 1 1290 0
 2044 0010 0190     		str	r0, [sp, #4]
 2045              		.loc 1 1292 0
 2046 0012 27D0     		beq	.L201
 2047              		.loc 1 1292 0 is_stmt 0 discriminator 2
 2048 0014 03F58073 		add	r3, r3, #256
 2049 0018 9C42     		cmp	r4, r3
 2050 001a 23D0     		beq	.L201
 2051              		.loc 1 1292 0 discriminator 4
 2052 001c 1348     		ldr	r0, .L204+4
ARM GAS  /var/folders/m4/4md61f0s1_g0rzfghffqnxvr0000gn/T//ccmqP2UT.s 			page 37


 2053 001e 201A     		subs	r0, r4, r0
 2054 0020 B0FA80F0 		clz	r0, r0
 2055 0024 4009     		lsrs	r0, r0, #5
 2056              	.L198:
 2057              		.loc 1 1292 0 discriminator 8
 2058 0026 FFF7FEFF 		bl	assert_param
 2059              	.LVL213:
 2060              		.loc 1 1293 0 is_stmt 1 discriminator 8
 2061 002a A6F11400 		sub	r0, r6, #20
 2062 002e C0B2     		uxtb	r0, r0
 2063 0030 0C28     		cmp	r0, #12
 2064 0032 9DBF     		ittte	ls
 2065 0034 41F21113 		movwls	r3, #4369
 2066 0038 23FA00F0 		lsrls	r0, r3, r0
 2067 003c 00F00100 		andls	r0, r0, #1
 2068 0040 0020     		movhi	r0, #0
 2069 0042 FFF7FEFF 		bl	assert_param
 2070              	.LVL214:
 2071              		.loc 1 1294 0 discriminator 8
 2072 0046 B5F5805F 		cmp	r5, #4096
 2073 004a 2CBF     		ite	cs
 2074 004c 0020     		movcs	r0, #0
 2075 004e 0120     		movcc	r0, #1
 2076 0050 FFF7FEFF 		bl	assert_param
 2077              	.LVL215:
 2078              		.loc 1 1296 0 discriminator 8
 2079 0054 0194     		str	r4, [sp, #4]
 2080              		.loc 1 1297 0 discriminator 8
 2081 0056 0199     		ldr	r1, [sp, #4]
 2082 0058 3144     		add	r1, r1, r6
 2083 005a 0191     		str	r1, [sp, #4]
 2084              		.loc 1 1300 0 discriminator 8
 2085 005c 019B     		ldr	r3, [sp, #4]
 2086 005e 1D60     		str	r5, [r3]
 2087              		.loc 1 1301 0 discriminator 8
 2088 0060 02B0     		add	sp, sp, #8
 2089              		.cfi_remember_state
 2090              		.cfi_def_cfa_offset 16
 2091              		@ sp needed
 2092 0062 70BD     		pop	{r4, r5, r6, pc}
 2093              	.LVL216:
 2094              	.L201:
 2095              		.cfi_restore_state
 2096              		.loc 1 1292 0
 2097 0064 0120     		movs	r0, #1
 2098 0066 DEE7     		b	.L198
 2099              	.L205:
 2100              		.align	2
 2101              	.L204:
 2102 0068 00200140 		.word	1073815552
 2103 006c 00220140 		.word	1073816064
 2104              		.cfi_endproc
 2105              	.LFE148:
 2106              		.size	ADC_SetInjectedOffset, .-ADC_SetInjectedOffset
 2107              		.section	.text.ADC_ExternalTrigInjectedConvConfig,"ax",%progbits
 2108              		.align	2
 2109              		.p2align 4,,15
ARM GAS  /var/folders/m4/4md61f0s1_g0rzfghffqnxvr0000gn/T//ccmqP2UT.s 			page 38


 2110              		.global	ADC_ExternalTrigInjectedConvConfig
 2111              		.thumb
 2112              		.thumb_func
 2113              		.type	ADC_ExternalTrigInjectedConvConfig, %function
 2114              	ADC_ExternalTrigInjectedConvConfig:
 2115              	.LFB149:
 2116              		.loc 1 1327 0
 2117              		.cfi_startproc
 2118              		@ args = 0, pretend = 0, frame = 0
 2119              		@ frame_needed = 0, uses_anonymous_args = 0
 2120              	.LVL217:
 2121 0000 38B5     		push	{r3, r4, r5, lr}
 2122              		.cfi_def_cfa_offset 16
 2123              		.cfi_offset 3, -16
 2124              		.cfi_offset 4, -12
 2125              		.cfi_offset 5, -8
 2126              		.cfi_offset 14, -4
 2127              		.loc 1 1330 0
 2128 0002 154B     		ldr	r3, .L220
 2129 0004 9842     		cmp	r0, r3
 2130              		.loc 1 1327 0
 2131 0006 0446     		mov	r4, r0
 2132 0008 0D46     		mov	r5, r1
 2133              		.loc 1 1330 0
 2134 000a 22D0     		beq	.L211
 2135              		.loc 1 1330 0 is_stmt 0 discriminator 2
 2136 000c 03F58073 		add	r3, r3, #256
 2137 0010 9842     		cmp	r0, r3
 2138 0012 1ED0     		beq	.L211
 2139              		.loc 1 1330 0 discriminator 4
 2140 0014 1148     		ldr	r0, .L220+4
 2141              	.LVL218:
 2142 0016 201A     		subs	r0, r4, r0
 2143 0018 B0FA80F0 		clz	r0, r0
 2144 001c 4009     		lsrs	r0, r0, #5
 2145              	.L207:
 2146              		.loc 1 1330 0
 2147 001e FFF7FEFF 		bl	assert_param
 2148              	.LVL219:
 2149              		.loc 1 1331 0 is_stmt 1
 2150 0022 35F44030 		bics	r0, r5, #196608
 2151 0026 08D1     		bne	.L219
 2152              	.L214:
 2153 0028 0120     		movs	r0, #1
 2154              	.L208:
 2155              		.loc 1 1331 0 is_stmt 0 discriminator 34
 2156 002a FFF7FEFF 		bl	assert_param
 2157              	.LVL220:
 2158              		.loc 1 1334 0 is_stmt 1 discriminator 34
 2159 002e A168     		ldr	r1, [r4, #8]
 2160              	.LVL221:
 2161              		.loc 1 1337 0 discriminator 34
 2162 0030 21F47021 		bic	r1, r1, #983040
 2163              	.LVL222:
 2164              		.loc 1 1340 0 discriminator 34
 2165 0034 2943     		orrs	r1, r1, r5
 2166              	.LVL223:
ARM GAS  /var/folders/m4/4md61f0s1_g0rzfghffqnxvr0000gn/T//ccmqP2UT.s 			page 39


 2167              		.loc 1 1343 0 discriminator 34
 2168 0036 A160     		str	r1, [r4, #8]
 2169              		.loc 1 1344 0 discriminator 34
 2170 0038 38BD     		pop	{r3, r4, r5, pc}
 2171              	.LVL224:
 2172              	.L219:
 2173              		.loc 1 1331 0 discriminator 8
 2174 003a B0F5802F 		cmp	r0, #262144
 2175 003e F3D0     		beq	.L214
 2176              		.loc 1 1331 0 is_stmt 0 discriminator 16
 2177 0040 B0F5002F 		cmp	r0, #524288
 2178 0044 F0D0     		beq	.L214
 2179              		.loc 1 1331 0 discriminator 24
 2180 0046 A0F54020 		sub	r0, r0, #786432
 2181 004a B0FA80F0 		clz	r0, r0
 2182 004e 4009     		lsrs	r0, r0, #5
 2183 0050 EBE7     		b	.L208
 2184              	.LVL225:
 2185              	.L211:
 2186              		.loc 1 1330 0 is_stmt 1
 2187 0052 0120     		movs	r0, #1
 2188              	.LVL226:
 2189 0054 E3E7     		b	.L207
 2190              	.L221:
 2191 0056 00BF     		.align	2
 2192              	.L220:
 2193 0058 00200140 		.word	1073815552
 2194 005c 00220140 		.word	1073816064
 2195              		.cfi_endproc
 2196              	.LFE149:
 2197              		.size	ADC_ExternalTrigInjectedConvConfig, .-ADC_ExternalTrigInjectedConvConfig
 2198              		.section	.text.ADC_ExternalTrigInjectedConvEdgeConfig,"ax",%progbits
 2199              		.align	2
 2200              		.p2align 4,,15
 2201              		.global	ADC_ExternalTrigInjectedConvEdgeConfig
 2202              		.thumb
 2203              		.thumb_func
 2204              		.type	ADC_ExternalTrigInjectedConvEdgeConfig, %function
 2205              	ADC_ExternalTrigInjectedConvEdgeConfig:
 2206              	.LFB150:
 2207              		.loc 1 1361 0
 2208              		.cfi_startproc
 2209              		@ args = 0, pretend = 0, frame = 0
 2210              		@ frame_needed = 0, uses_anonymous_args = 0
 2211              	.LVL227:
 2212 0000 38B5     		push	{r3, r4, r5, lr}
 2213              		.cfi_def_cfa_offset 16
 2214              		.cfi_offset 3, -16
 2215              		.cfi_offset 4, -12
 2216              		.cfi_offset 5, -8
 2217              		.cfi_offset 14, -4
 2218              		.loc 1 1364 0
 2219 0002 0F4B     		ldr	r3, .L227
 2220 0004 9842     		cmp	r0, r3
 2221              		.loc 1 1361 0
 2222 0006 0446     		mov	r4, r0
 2223 0008 0D46     		mov	r5, r1
ARM GAS  /var/folders/m4/4md61f0s1_g0rzfghffqnxvr0000gn/T//ccmqP2UT.s 			page 40


 2224              		.loc 1 1364 0
 2225 000a 17D0     		beq	.L225
 2226              		.loc 1 1364 0 is_stmt 0 discriminator 2
 2227 000c 03F58073 		add	r3, r3, #256
 2228 0010 9842     		cmp	r0, r3
 2229 0012 13D0     		beq	.L225
 2230              		.loc 1 1364 0 discriminator 4
 2231 0014 0B48     		ldr	r0, .L227+4
 2232              	.LVL228:
 2233 0016 201A     		subs	r0, r4, r0
 2234 0018 B0FA80F0 		clz	r0, r0
 2235 001c 4009     		lsrs	r0, r0, #5
 2236              	.L223:
 2237              		.loc 1 1364 0 discriminator 8
 2238 001e FFF7FEFF 		bl	assert_param
 2239              	.LVL229:
 2240              		.loc 1 1365 0 is_stmt 1 discriminator 8
 2241 0022 35F44013 		bics	r3, r5, #3145728
 2242 0026 0CBF     		ite	eq
 2243 0028 0120     		moveq	r0, #1
 2244 002a 0020     		movne	r0, #0
 2245 002c FFF7FEFF 		bl	assert_param
 2246              	.LVL230:
 2247              		.loc 1 1367 0 discriminator 8
 2248 0030 A168     		ldr	r1, [r4, #8]
 2249              	.LVL231:
 2250              		.loc 1 1369 0 discriminator 8
 2251 0032 21F44011 		bic	r1, r1, #3145728
 2252              	.LVL232:
 2253              		.loc 1 1371 0 discriminator 8
 2254 0036 2943     		orrs	r1, r1, r5
 2255              	.LVL233:
 2256              		.loc 1 1373 0 discriminator 8
 2257 0038 A160     		str	r1, [r4, #8]
 2258 003a 38BD     		pop	{r3, r4, r5, pc}
 2259              	.LVL234:
 2260              	.L225:
 2261              		.loc 1 1364 0
 2262 003c 0120     		movs	r0, #1
 2263              	.LVL235:
 2264 003e EEE7     		b	.L223
 2265              	.L228:
 2266              		.align	2
 2267              	.L227:
 2268 0040 00200140 		.word	1073815552
 2269 0044 00220140 		.word	1073816064
 2270              		.cfi_endproc
 2271              	.LFE150:
 2272              		.size	ADC_ExternalTrigInjectedConvEdgeConfig, .-ADC_ExternalTrigInjectedConvEdgeConfig
 2273              		.section	.text.ADC_SoftwareStartInjectedConv,"ax",%progbits
 2274              		.align	2
 2275              		.p2align 4,,15
 2276              		.global	ADC_SoftwareStartInjectedConv
 2277              		.thumb
 2278              		.thumb_func
 2279              		.type	ADC_SoftwareStartInjectedConv, %function
 2280              	ADC_SoftwareStartInjectedConv:
ARM GAS  /var/folders/m4/4md61f0s1_g0rzfghffqnxvr0000gn/T//ccmqP2UT.s 			page 41


 2281              	.LFB151:
 2282              		.loc 1 1382 0
 2283              		.cfi_startproc
 2284              		@ args = 0, pretend = 0, frame = 0
 2285              		@ frame_needed = 0, uses_anonymous_args = 0
 2286              	.LVL236:
 2287              		.loc 1 1384 0
 2288 0000 0B4B     		ldr	r3, .L234
 2289 0002 9842     		cmp	r0, r3
 2290              		.loc 1 1382 0
 2291 0004 10B5     		push	{r4, lr}
 2292              		.cfi_def_cfa_offset 8
 2293              		.cfi_offset 4, -8
 2294              		.cfi_offset 14, -4
 2295              		.loc 1 1382 0
 2296 0006 0446     		mov	r4, r0
 2297              		.loc 1 1384 0
 2298 0008 0FD0     		beq	.L232
 2299              		.loc 1 1384 0 is_stmt 0 discriminator 2
 2300 000a 03F58073 		add	r3, r3, #256
 2301 000e 9842     		cmp	r0, r3
 2302 0010 0BD0     		beq	.L232
 2303              		.loc 1 1384 0 discriminator 4
 2304 0012 0848     		ldr	r0, .L234+4
 2305              	.LVL237:
 2306 0014 201A     		subs	r0, r4, r0
 2307 0016 B0FA80F0 		clz	r0, r0
 2308 001a 4009     		lsrs	r0, r0, #5
 2309              	.L230:
 2310              		.loc 1 1384 0 discriminator 8
 2311 001c FFF7FEFF 		bl	assert_param
 2312              	.LVL238:
 2313              		.loc 1 1386 0 is_stmt 1 discriminator 8
 2314 0020 A368     		ldr	r3, [r4, #8]
 2315 0022 43F48003 		orr	r3, r3, #4194304
 2316 0026 A360     		str	r3, [r4, #8]
 2317 0028 10BD     		pop	{r4, pc}
 2318              	.LVL239:
 2319              	.L232:
 2320              		.loc 1 1384 0
 2321 002a 0120     		movs	r0, #1
 2322              	.LVL240:
 2323 002c F6E7     		b	.L230
 2324              	.L235:
 2325 002e 00BF     		.align	2
 2326              	.L234:
 2327 0030 00200140 		.word	1073815552
 2328 0034 00220140 		.word	1073816064
 2329              		.cfi_endproc
 2330              	.LFE151:
 2331              		.size	ADC_SoftwareStartInjectedConv, .-ADC_SoftwareStartInjectedConv
 2332              		.section	.text.ADC_GetSoftwareStartInjectedConvCmdStatus,"ax",%progbits
 2333              		.align	2
 2334              		.p2align 4,,15
 2335              		.global	ADC_GetSoftwareStartInjectedConvCmdStatus
 2336              		.thumb
 2337              		.thumb_func
ARM GAS  /var/folders/m4/4md61f0s1_g0rzfghffqnxvr0000gn/T//ccmqP2UT.s 			page 42


 2338              		.type	ADC_GetSoftwareStartInjectedConvCmdStatus, %function
 2339              	ADC_GetSoftwareStartInjectedConvCmdStatus:
 2340              	.LFB152:
 2341              		.loc 1 1395 0
 2342              		.cfi_startproc
 2343              		@ args = 0, pretend = 0, frame = 0
 2344              		@ frame_needed = 0, uses_anonymous_args = 0
 2345              	.LVL241:
 2346              		.loc 1 1398 0
 2347 0000 0D4B     		ldr	r3, .L241
 2348 0002 9842     		cmp	r0, r3
 2349              		.loc 1 1395 0
 2350 0004 10B5     		push	{r4, lr}
 2351              		.cfi_def_cfa_offset 8
 2352              		.cfi_offset 4, -8
 2353              		.cfi_offset 14, -4
 2354              		.loc 1 1395 0
 2355 0006 0446     		mov	r4, r0
 2356              		.loc 1 1398 0
 2357 0008 0ED0     		beq	.L239
 2358              		.loc 1 1398 0 is_stmt 0 discriminator 2
 2359 000a 03F58073 		add	r3, r3, #256
 2360 000e 9842     		cmp	r0, r3
 2361 0010 0AD0     		beq	.L239
 2362              		.loc 1 1398 0 discriminator 4
 2363 0012 0A48     		ldr	r0, .L241+4
 2364              	.LVL242:
 2365 0014 201A     		subs	r0, r4, r0
 2366 0016 B0FA80F0 		clz	r0, r0
 2367 001a 4009     		lsrs	r0, r0, #5
 2368 001c FFF7FEFF 		bl	assert_param
 2369              	.LVL243:
 2370              		.loc 1 1401 0 is_stmt 1 discriminator 4
 2371 0020 A068     		ldr	r0, [r4, #8]
 2372              	.LVL244:
 2373              		.loc 1 1413 0 discriminator 4
 2374 0022 C0F38050 		ubfx	r0, r0, #22, #1
 2375              	.LVL245:
 2376 0026 10BD     		pop	{r4, pc}
 2377              	.LVL246:
 2378              	.L239:
 2379              		.loc 1 1398 0
 2380 0028 0120     		movs	r0, #1
 2381              	.LVL247:
 2382 002a FFF7FEFF 		bl	assert_param
 2383              	.LVL248:
 2384              		.loc 1 1401 0
 2385 002e A068     		ldr	r0, [r4, #8]
 2386              	.LVL249:
 2387              		.loc 1 1413 0
 2388 0030 C0F38050 		ubfx	r0, r0, #22, #1
 2389              	.LVL250:
 2390 0034 10BD     		pop	{r4, pc}
 2391              	.LVL251:
 2392              	.L242:
 2393 0036 00BF     		.align	2
 2394              	.L241:
ARM GAS  /var/folders/m4/4md61f0s1_g0rzfghffqnxvr0000gn/T//ccmqP2UT.s 			page 43


 2395 0038 00200140 		.word	1073815552
 2396 003c 00220140 		.word	1073816064
 2397              		.cfi_endproc
 2398              	.LFE152:
 2399              		.size	ADC_GetSoftwareStartInjectedConvCmdStatus, .-ADC_GetSoftwareStartInjectedConvCmdStatus
 2400              		.section	.text.ADC_AutoInjectedConvCmd,"ax",%progbits
 2401              		.align	2
 2402              		.p2align 4,,15
 2403              		.global	ADC_AutoInjectedConvCmd
 2404              		.thumb
 2405              		.thumb_func
 2406              		.type	ADC_AutoInjectedConvCmd, %function
 2407              	ADC_AutoInjectedConvCmd:
 2408              	.LFB153:
 2409              		.loc 1 1424 0
 2410              		.cfi_startproc
 2411              		@ args = 0, pretend = 0, frame = 0
 2412              		@ frame_needed = 0, uses_anonymous_args = 0
 2413              	.LVL252:
 2414 0000 38B5     		push	{r3, r4, r5, lr}
 2415              		.cfi_def_cfa_offset 16
 2416              		.cfi_offset 3, -16
 2417              		.cfi_offset 4, -12
 2418              		.cfi_offset 5, -8
 2419              		.cfi_offset 14, -4
 2420              		.loc 1 1426 0
 2421 0002 114B     		ldr	r3, .L251
 2422 0004 9842     		cmp	r0, r3
 2423              		.loc 1 1424 0
 2424 0006 0446     		mov	r4, r0
 2425 0008 0D46     		mov	r5, r1
 2426              		.loc 1 1426 0
 2427 000a 1AD0     		beq	.L248
 2428              		.loc 1 1426 0 is_stmt 0 discriminator 2
 2429 000c 03F58073 		add	r3, r3, #256
 2430 0010 9842     		cmp	r0, r3
 2431 0012 16D0     		beq	.L248
 2432              		.loc 1 1426 0 discriminator 4
 2433 0014 0D48     		ldr	r0, .L251+4
 2434              	.LVL253:
 2435 0016 201A     		subs	r0, r4, r0
 2436 0018 B0FA80F0 		clz	r0, r0
 2437 001c 4009     		lsrs	r0, r0, #5
 2438              	.L244:
 2439              		.loc 1 1426 0 discriminator 8
 2440 001e FFF7FEFF 		bl	assert_param
 2441              	.LVL254:
 2442              		.loc 1 1427 0 is_stmt 1 discriminator 8
 2443 0022 012D     		cmp	r5, #1
 2444 0024 8CBF     		ite	hi
 2445 0026 0020     		movhi	r0, #0
 2446 0028 0120     		movls	r0, #1
 2447 002a FFF7FEFF 		bl	assert_param
 2448              	.LVL255:
 2449              		.loc 1 1431 0 discriminator 8
 2450 002e 6368     		ldr	r3, [r4, #4]
 2451              		.loc 1 1428 0 discriminator 8
ARM GAS  /var/folders/m4/4md61f0s1_g0rzfghffqnxvr0000gn/T//ccmqP2UT.s 			page 44


 2452 0030 1DB9     		cbnz	r5, .L250
 2453              		.loc 1 1436 0
 2454 0032 23F48063 		bic	r3, r3, #1024
 2455 0036 6360     		str	r3, [r4, #4]
 2456 0038 38BD     		pop	{r3, r4, r5, pc}
 2457              	.LVL256:
 2458              	.L250:
 2459              		.loc 1 1431 0
 2460 003a 43F48063 		orr	r3, r3, #1024
 2461 003e 6360     		str	r3, [r4, #4]
 2462 0040 38BD     		pop	{r3, r4, r5, pc}
 2463              	.LVL257:
 2464              	.L248:
 2465              		.loc 1 1426 0
 2466 0042 0120     		movs	r0, #1
 2467              	.LVL258:
 2468 0044 EBE7     		b	.L244
 2469              	.L252:
 2470 0046 00BF     		.align	2
 2471              	.L251:
 2472 0048 00200140 		.word	1073815552
 2473 004c 00220140 		.word	1073816064
 2474              		.cfi_endproc
 2475              	.LFE153:
 2476              		.size	ADC_AutoInjectedConvCmd, .-ADC_AutoInjectedConvCmd
 2477              		.section	.text.ADC_InjectedDiscModeCmd,"ax",%progbits
 2478              		.align	2
 2479              		.p2align 4,,15
 2480              		.global	ADC_InjectedDiscModeCmd
 2481              		.thumb
 2482              		.thumb_func
 2483              		.type	ADC_InjectedDiscModeCmd, %function
 2484              	ADC_InjectedDiscModeCmd:
 2485              	.LFB154:
 2486              		.loc 1 1450 0
 2487              		.cfi_startproc
 2488              		@ args = 0, pretend = 0, frame = 0
 2489              		@ frame_needed = 0, uses_anonymous_args = 0
 2490              	.LVL259:
 2491 0000 38B5     		push	{r3, r4, r5, lr}
 2492              		.cfi_def_cfa_offset 16
 2493              		.cfi_offset 3, -16
 2494              		.cfi_offset 4, -12
 2495              		.cfi_offset 5, -8
 2496              		.cfi_offset 14, -4
 2497              		.loc 1 1452 0
 2498 0002 114B     		ldr	r3, .L261
 2499 0004 9842     		cmp	r0, r3
 2500              		.loc 1 1450 0
 2501 0006 0446     		mov	r4, r0
 2502 0008 0D46     		mov	r5, r1
 2503              		.loc 1 1452 0
 2504 000a 1AD0     		beq	.L258
 2505              		.loc 1 1452 0 is_stmt 0 discriminator 2
 2506 000c 03F58073 		add	r3, r3, #256
 2507 0010 9842     		cmp	r0, r3
 2508 0012 16D0     		beq	.L258
ARM GAS  /var/folders/m4/4md61f0s1_g0rzfghffqnxvr0000gn/T//ccmqP2UT.s 			page 45


 2509              		.loc 1 1452 0 discriminator 4
 2510 0014 0D48     		ldr	r0, .L261+4
 2511              	.LVL260:
 2512 0016 201A     		subs	r0, r4, r0
 2513 0018 B0FA80F0 		clz	r0, r0
 2514 001c 4009     		lsrs	r0, r0, #5
 2515              	.L254:
 2516              		.loc 1 1452 0 discriminator 8
 2517 001e FFF7FEFF 		bl	assert_param
 2518              	.LVL261:
 2519              		.loc 1 1453 0 is_stmt 1 discriminator 8
 2520 0022 012D     		cmp	r5, #1
 2521 0024 8CBF     		ite	hi
 2522 0026 0020     		movhi	r0, #0
 2523 0028 0120     		movls	r0, #1
 2524 002a FFF7FEFF 		bl	assert_param
 2525              	.LVL262:
 2526              		.loc 1 1457 0 discriminator 8
 2527 002e 6368     		ldr	r3, [r4, #4]
 2528              		.loc 1 1454 0 discriminator 8
 2529 0030 1DB9     		cbnz	r5, .L260
 2530              		.loc 1 1462 0
 2531 0032 23F48053 		bic	r3, r3, #4096
 2532 0036 6360     		str	r3, [r4, #4]
 2533 0038 38BD     		pop	{r3, r4, r5, pc}
 2534              	.LVL263:
 2535              	.L260:
 2536              		.loc 1 1457 0
 2537 003a 43F48053 		orr	r3, r3, #4096
 2538 003e 6360     		str	r3, [r4, #4]
 2539 0040 38BD     		pop	{r3, r4, r5, pc}
 2540              	.LVL264:
 2541              	.L258:
 2542              		.loc 1 1452 0
 2543 0042 0120     		movs	r0, #1
 2544              	.LVL265:
 2545 0044 EBE7     		b	.L254
 2546              	.L262:
 2547 0046 00BF     		.align	2
 2548              	.L261:
 2549 0048 00200140 		.word	1073815552
 2550 004c 00220140 		.word	1073816064
 2551              		.cfi_endproc
 2552              	.LFE154:
 2553              		.size	ADC_InjectedDiscModeCmd, .-ADC_InjectedDiscModeCmd
 2554              		.section	.text.ADC_GetInjectedConversionValue,"ax",%progbits
 2555              		.align	2
 2556              		.p2align 4,,15
 2557              		.global	ADC_GetInjectedConversionValue
 2558              		.thumb
 2559              		.thumb_func
 2560              		.type	ADC_GetInjectedConversionValue, %function
 2561              	ADC_GetInjectedConversionValue:
 2562              	.LFB155:
 2563              		.loc 1 1478 0
 2564              		.cfi_startproc
 2565              		@ args = 0, pretend = 0, frame = 8
ARM GAS  /var/folders/m4/4md61f0s1_g0rzfghffqnxvr0000gn/T//ccmqP2UT.s 			page 46


 2566              		@ frame_needed = 0, uses_anonymous_args = 0
 2567              	.LVL266:
 2568 0000 30B5     		push	{r4, r5, lr}
 2569              		.cfi_def_cfa_offset 12
 2570              		.cfi_offset 4, -12
 2571              		.cfi_offset 5, -8
 2572              		.cfi_offset 14, -4
 2573              		.loc 1 1482 0
 2574 0002 164B     		ldr	r3, .L270
 2575              		.loc 1 1478 0
 2576 0004 83B0     		sub	sp, sp, #12
 2577              		.cfi_def_cfa_offset 24
 2578              		.loc 1 1479 0
 2579 0006 0022     		movs	r2, #0
 2580              		.loc 1 1482 0
 2581 0008 9842     		cmp	r0, r3
 2582              		.loc 1 1478 0
 2583 000a 0546     		mov	r5, r0
 2584 000c 0C46     		mov	r4, r1
 2585              		.loc 1 1479 0
 2586 000e 0192     		str	r2, [sp, #4]
 2587              		.loc 1 1482 0
 2588 0010 22D0     		beq	.L267
 2589              		.loc 1 1482 0 is_stmt 0 discriminator 2
 2590 0012 03F58073 		add	r3, r3, #256
 2591 0016 9842     		cmp	r0, r3
 2592 0018 1ED0     		beq	.L267
 2593              		.loc 1 1482 0 discriminator 4
 2594 001a 1148     		ldr	r0, .L270+4
 2595              	.LVL267:
 2596 001c 281A     		subs	r0, r5, r0
 2597 001e B0FA80F0 		clz	r0, r0
 2598 0022 4009     		lsrs	r0, r0, #5
 2599              	.L264:
 2600              		.loc 1 1482 0 discriminator 8
 2601 0024 FFF7FEFF 		bl	assert_param
 2602              	.LVL268:
 2603              		.loc 1 1483 0 is_stmt 1 discriminator 8
 2604 0028 A4F11400 		sub	r0, r4, #20
 2605 002c C0B2     		uxtb	r0, r0
 2606 002e 0C28     		cmp	r0, #12
 2607 0030 9DBF     		ittte	ls
 2608 0032 41F21113 		movwls	r3, #4369
 2609 0036 23FA00F0 		lsrls	r0, r3, r0
 2610 003a 00F00100 		andls	r0, r0, #1
 2611 003e 0020     		movhi	r0, #0
 2612 0040 FFF7FEFF 		bl	assert_param
 2613              	.LVL269:
 2614              		.loc 1 1485 0 discriminator 8
 2615 0044 0195     		str	r5, [sp, #4]
 2616              		.loc 1 1486 0 discriminator 8
 2617 0046 019B     		ldr	r3, [sp, #4]
 2618 0048 2833     		adds	r3, r3, #40
 2619 004a 1C44     		add	r4, r4, r3
 2620 004c 0194     		str	r4, [sp, #4]
 2621              		.loc 1 1489 0 discriminator 8
 2622 004e 019B     		ldr	r3, [sp, #4]
ARM GAS  /var/folders/m4/4md61f0s1_g0rzfghffqnxvr0000gn/T//ccmqP2UT.s 			page 47


 2623 0050 1868     		ldr	r0, [r3]
 2624              		.loc 1 1490 0 discriminator 8
 2625 0052 80B2     		uxth	r0, r0
 2626 0054 03B0     		add	sp, sp, #12
 2627              		.cfi_remember_state
 2628              		.cfi_def_cfa_offset 12
 2629              		@ sp needed
 2630 0056 30BD     		pop	{r4, r5, pc}
 2631              	.LVL270:
 2632              	.L267:
 2633              		.cfi_restore_state
 2634              		.loc 1 1482 0
 2635 0058 0120     		movs	r0, #1
 2636              	.LVL271:
 2637 005a E3E7     		b	.L264
 2638              	.L271:
 2639              		.align	2
 2640              	.L270:
 2641 005c 00200140 		.word	1073815552
 2642 0060 00220140 		.word	1073816064
 2643              		.cfi_endproc
 2644              	.LFE155:
 2645              		.size	ADC_GetInjectedConversionValue, .-ADC_GetInjectedConversionValue
 2646              		.section	.text.ADC_ITConfig,"ax",%progbits
 2647              		.align	2
 2648              		.p2align 4,,15
 2649              		.global	ADC_ITConfig
 2650              		.thumb
 2651              		.thumb_func
 2652              		.type	ADC_ITConfig, %function
 2653              	ADC_ITConfig:
 2654              	.LFB156:
 2655              		.loc 1 1585 0
 2656              		.cfi_startproc
 2657              		@ args = 0, pretend = 0, frame = 0
 2658              		@ frame_needed = 0, uses_anonymous_args = 0
 2659              	.LVL272:
 2660              		.loc 1 1588 0
 2661 0000 1D4B     		ldr	r3, .L284
 2662 0002 9842     		cmp	r0, r3
 2663              		.loc 1 1585 0
 2664 0004 70B5     		push	{r4, r5, r6, lr}
 2665              		.cfi_def_cfa_offset 16
 2666              		.cfi_offset 4, -16
 2667              		.cfi_offset 5, -12
 2668              		.cfi_offset 6, -8
 2669              		.cfi_offset 14, -4
 2670              		.loc 1 1585 0
 2671 0006 0546     		mov	r5, r0
 2672 0008 0C46     		mov	r4, r1
 2673 000a 1646     		mov	r6, r2
 2674              		.loc 1 1588 0
 2675 000c 32D0     		beq	.L278
 2676              		.loc 1 1588 0 is_stmt 0 discriminator 2
 2677 000e 03F58073 		add	r3, r3, #256
 2678 0012 9842     		cmp	r0, r3
 2679 0014 2ED0     		beq	.L278
ARM GAS  /var/folders/m4/4md61f0s1_g0rzfghffqnxvr0000gn/T//ccmqP2UT.s 			page 48


 2680              		.loc 1 1588 0 discriminator 4
 2681 0016 1948     		ldr	r0, .L284+4
 2682              	.LVL273:
 2683 0018 281A     		subs	r0, r5, r0
 2684 001a B0FA80F0 		clz	r0, r0
 2685 001e 4009     		lsrs	r0, r0, #5
 2686              	.L273:
 2687              		.loc 1 1588 0 discriminator 8
 2688 0020 FFF7FEFF 		bl	assert_param
 2689              	.LVL274:
 2690              		.loc 1 1589 0 is_stmt 1 discriminator 8
 2691 0024 012E     		cmp	r6, #1
 2692 0026 8CBF     		ite	hi
 2693 0028 0020     		movhi	r0, #0
 2694 002a 0120     		movls	r0, #1
 2695 002c FFF7FEFF 		bl	assert_param
 2696              	.LVL275:
 2697              		.loc 1 1590 0 discriminator 8
 2698 0030 40F20523 		movw	r3, #517
 2699 0034 9C42     		cmp	r4, r3
 2700 0036 0DD0     		beq	.L281
 2701              		.loc 1 1590 0 is_stmt 0 discriminator 2
 2702 0038 B4F5837F 		cmp	r4, #262
 2703 003c 0AD0     		beq	.L281
 2704              		.loc 1 1590 0 discriminator 4
 2705 003e 40F20743 		movw	r3, #1031
 2706 0042 9C42     		cmp	r4, r3
 2707 0044 06D0     		beq	.L281
 2708              		.loc 1 1590 0 discriminator 6
 2709 0046 42F21A00 		movw	r0, #8218
 2710 004a 201A     		subs	r0, r4, r0
 2711 004c B0FA80F0 		clz	r0, r0
 2712 0050 4009     		lsrs	r0, r0, #5
 2713 0052 00E0     		b	.L274
 2714              	.L281:
 2715              		.loc 1 1590 0
 2716 0054 0120     		movs	r0, #1
 2717              	.L274:
 2718              		.loc 1 1590 0 discriminator 10
 2719 0056 FFF7FEFF 		bl	assert_param
 2720              	.LVL276:
 2721              		.loc 1 1593 0 is_stmt 1 discriminator 10
 2722 005a E4B2     		uxtb	r4, r4
 2723              	.LVL277:
 2724              		.loc 1 1594 0 discriminator 10
 2725 005c 0121     		movs	r1, #1
 2726 005e 01FA04F4 		lsl	r4, r1, r4
 2727              	.LVL278:
 2728              		.loc 1 1599 0 discriminator 10
 2729 0062 6968     		ldr	r1, [r5, #4]
 2730              		.loc 1 1596 0 discriminator 10
 2731 0064 1EB9     		cbnz	r6, .L283
 2732              		.loc 1 1604 0
 2733 0066 21EA0404 		bic	r4, r1, r4
 2734              	.LVL279:
 2735 006a 6C60     		str	r4, [r5, #4]
 2736 006c 70BD     		pop	{r4, r5, r6, pc}
ARM GAS  /var/folders/m4/4md61f0s1_g0rzfghffqnxvr0000gn/T//ccmqP2UT.s 			page 49


 2737              	.LVL280:
 2738              	.L283:
 2739              		.loc 1 1599 0
 2740 006e 0C43     		orrs	r4, r4, r1
 2741              	.LVL281:
 2742 0070 6C60     		str	r4, [r5, #4]
 2743 0072 70BD     		pop	{r4, r5, r6, pc}
 2744              	.LVL282:
 2745              	.L278:
 2746              		.loc 1 1588 0
 2747 0074 0120     		movs	r0, #1
 2748              	.LVL283:
 2749 0076 D3E7     		b	.L273
 2750              	.L285:
 2751              		.align	2
 2752              	.L284:
 2753 0078 00200140 		.word	1073815552
 2754 007c 00220140 		.word	1073816064
 2755              		.cfi_endproc
 2756              	.LFE156:
 2757              		.size	ADC_ITConfig, .-ADC_ITConfig
 2758              		.section	.text.ADC_GetFlagStatus,"ax",%progbits
 2759              		.align	2
 2760              		.p2align 4,,15
 2761              		.global	ADC_GetFlagStatus
 2762              		.thumb
 2763              		.thumb_func
 2764              		.type	ADC_GetFlagStatus, %function
 2765              	ADC_GetFlagStatus:
 2766              	.LFB157:
 2767              		.loc 1 1622 0
 2768              		.cfi_startproc
 2769              		@ args = 0, pretend = 0, frame = 0
 2770              		@ frame_needed = 0, uses_anonymous_args = 0
 2771              	.LVL284:
 2772 0000 38B5     		push	{r3, r4, r5, lr}
 2773              		.cfi_def_cfa_offset 16
 2774              		.cfi_offset 3, -16
 2775              		.cfi_offset 4, -12
 2776              		.cfi_offset 5, -8
 2777              		.cfi_offset 14, -4
 2778              		.loc 1 1625 0
 2779 0002 124B     		ldr	r3, .L293
 2780 0004 9842     		cmp	r0, r3
 2781              		.loc 1 1622 0
 2782 0006 0446     		mov	r4, r0
 2783 0008 0D46     		mov	r5, r1
 2784              		.loc 1 1625 0
 2785 000a 1CD0     		beq	.L290
 2786              		.loc 1 1625 0 is_stmt 0 discriminator 2
 2787 000c 03F58073 		add	r3, r3, #256
 2788 0010 9842     		cmp	r0, r3
 2789 0012 18D0     		beq	.L290
 2790              		.loc 1 1625 0 discriminator 4
 2791 0014 0E48     		ldr	r0, .L293+4
 2792              	.LVL285:
 2793 0016 201A     		subs	r0, r4, r0
ARM GAS  /var/folders/m4/4md61f0s1_g0rzfghffqnxvr0000gn/T//ccmqP2UT.s 			page 50


 2794 0018 B0FA80F0 		clz	r0, r0
 2795 001c 4009     		lsrs	r0, r0, #5
 2796              	.L287:
 2797              		.loc 1 1625 0 discriminator 8
 2798 001e FFF7FEFF 		bl	assert_param
 2799              	.LVL286:
 2800              		.loc 1 1626 0 is_stmt 1 discriminator 8
 2801 0022 681E     		subs	r0, r5, #1
 2802 0024 C0B2     		uxtb	r0, r0
 2803 0026 1F28     		cmp	r0, #31
 2804 0028 9DBF     		ittte	ls
 2805 002a 0A4B     		ldrls	r3, .L293+8
 2806 002c 23FA00F0 		lsrls	r0, r3, r0
 2807 0030 00F00100 		andls	r0, r0, #1
 2808 0034 0020     		movhi	r0, #0
 2809 0036 FFF7FEFF 		bl	assert_param
 2810              	.LVL287:
 2811              		.loc 1 1629 0 discriminator 8
 2812 003a 2368     		ldr	r3, [r4]
 2813              	.LVL288:
 2814              		.loc 1 1640 0 discriminator 8
 2815 003c 1D42     		tst	r5, r3
 2816              		.loc 1 1641 0 discriminator 8
 2817 003e 14BF     		ite	ne
 2818 0040 0120     		movne	r0, #1
 2819 0042 0020     		moveq	r0, #0
 2820 0044 38BD     		pop	{r3, r4, r5, pc}
 2821              	.LVL289:
 2822              	.L290:
 2823              		.loc 1 1625 0
 2824 0046 0120     		movs	r0, #1
 2825              	.LVL290:
 2826 0048 E9E7     		b	.L287
 2827              	.L294:
 2828 004a 00BF     		.align	2
 2829              	.L293:
 2830 004c 00200140 		.word	1073815552
 2831 0050 00220140 		.word	1073816064
 2832 0054 8B800080 		.word	-2147450741
 2833              		.cfi_endproc
 2834              	.LFE157:
 2835              		.size	ADC_GetFlagStatus, .-ADC_GetFlagStatus
 2836              		.section	.text.ADC_ClearFlag,"ax",%progbits
 2837              		.align	2
 2838              		.p2align 4,,15
 2839              		.global	ADC_ClearFlag
 2840              		.thumb
 2841              		.thumb_func
 2842              		.type	ADC_ClearFlag, %function
 2843              	ADC_ClearFlag:
 2844              	.LFB158:
 2845              		.loc 1 1657 0
 2846              		.cfi_startproc
 2847              		@ args = 0, pretend = 0, frame = 0
 2848              		@ frame_needed = 0, uses_anonymous_args = 0
 2849              	.LVL291:
 2850 0000 38B5     		push	{r3, r4, r5, lr}
ARM GAS  /var/folders/m4/4md61f0s1_g0rzfghffqnxvr0000gn/T//ccmqP2UT.s 			page 51


 2851              		.cfi_def_cfa_offset 16
 2852              		.cfi_offset 3, -16
 2853              		.cfi_offset 4, -12
 2854              		.cfi_offset 5, -8
 2855              		.cfi_offset 14, -4
 2856              		.loc 1 1659 0
 2857 0002 114B     		ldr	r3, .L302
 2858 0004 9842     		cmp	r0, r3
 2859              		.loc 1 1657 0
 2860 0006 0546     		mov	r5, r0
 2861 0008 0C46     		mov	r4, r1
 2862              		.loc 1 1659 0
 2863 000a 1BD0     		beq	.L299
 2864              		.loc 1 1659 0 is_stmt 0 discriminator 2
 2865 000c 03F58073 		add	r3, r3, #256
 2866 0010 9842     		cmp	r0, r3
 2867 0012 17D0     		beq	.L299
 2868              		.loc 1 1659 0 discriminator 4
 2869 0014 0D48     		ldr	r0, .L302+4
 2870              	.LVL292:
 2871 0016 281A     		subs	r0, r5, r0
 2872 0018 B0FA80F0 		clz	r0, r0
 2873 001c 4009     		lsrs	r0, r0, #5
 2874              	.L296:
 2875              		.loc 1 1659 0 discriminator 8
 2876 001e FFF7FEFF 		bl	assert_param
 2877              	.LVL293:
 2878              		.loc 1 1660 0 is_stmt 1 discriminator 8
 2879 0022 14F0C00F 		tst	r4, #192
 2880 0026 07D1     		bne	.L300
 2881              		.loc 1 1660 0 is_stmt 0 discriminator 1
 2882 0028 201C     		adds	r0, r4, #0
 2883 002a 18BF     		it	ne
 2884 002c 0120     		movne	r0, #1
 2885              		.loc 1 1663 0 is_stmt 1 discriminator 1
 2886 002e E443     		mvns	r4, r4
 2887              		.loc 1 1660 0 discriminator 1
 2888 0030 FFF7FEFF 		bl	assert_param
 2889              	.LVL294:
 2890              		.loc 1 1663 0 discriminator 1
 2891 0034 2C60     		str	r4, [r5]
 2892 0036 38BD     		pop	{r3, r4, r5, pc}
 2893              	.LVL295:
 2894              	.L300:
 2895              		.loc 1 1660 0
 2896 0038 0020     		movs	r0, #0
 2897              		.loc 1 1663 0
 2898 003a E443     		mvns	r4, r4
 2899              		.loc 1 1660 0
 2900 003c FFF7FEFF 		bl	assert_param
 2901              	.LVL296:
 2902              		.loc 1 1663 0
 2903 0040 2C60     		str	r4, [r5]
 2904 0042 38BD     		pop	{r3, r4, r5, pc}
 2905              	.LVL297:
 2906              	.L299:
 2907              		.loc 1 1659 0
ARM GAS  /var/folders/m4/4md61f0s1_g0rzfghffqnxvr0000gn/T//ccmqP2UT.s 			page 52


 2908 0044 0120     		movs	r0, #1
 2909              	.LVL298:
 2910 0046 EAE7     		b	.L296
 2911              	.L303:
 2912              		.align	2
 2913              	.L302:
 2914 0048 00200140 		.word	1073815552
 2915 004c 00220140 		.word	1073816064
 2916              		.cfi_endproc
 2917              	.LFE158:
 2918              		.size	ADC_ClearFlag, .-ADC_ClearFlag
 2919              		.section	.text.ADC_GetITStatus,"ax",%progbits
 2920              		.align	2
 2921              		.p2align 4,,15
 2922              		.global	ADC_GetITStatus
 2923              		.thumb
 2924              		.thumb_func
 2925              		.type	ADC_GetITStatus, %function
 2926              	ADC_GetITStatus:
 2927              	.LFB159:
 2928              		.loc 1 1678 0
 2929              		.cfi_startproc
 2930              		@ args = 0, pretend = 0, frame = 0
 2931              		@ frame_needed = 0, uses_anonymous_args = 0
 2932              	.LVL299:
 2933 0000 38B5     		push	{r3, r4, r5, lr}
 2934              		.cfi_def_cfa_offset 16
 2935              		.cfi_offset 3, -16
 2936              		.cfi_offset 4, -12
 2937              		.cfi_offset 5, -8
 2938              		.cfi_offset 14, -4
 2939              		.loc 1 1683 0
 2940 0002 1A4B     		ldr	r3, .L315
 2941 0004 9842     		cmp	r0, r3
 2942              		.loc 1 1678 0
 2943 0006 0546     		mov	r5, r0
 2944 0008 0C46     		mov	r4, r1
 2945              		.loc 1 1683 0
 2946 000a 2DD0     		beq	.L309
 2947              		.loc 1 1683 0 is_stmt 0 discriminator 2
 2948 000c 03F58073 		add	r3, r3, #256
 2949 0010 9842     		cmp	r0, r3
 2950 0012 29D0     		beq	.L309
 2951              		.loc 1 1683 0 discriminator 4
 2952 0014 1648     		ldr	r0, .L315+4
 2953              	.LVL300:
 2954 0016 281A     		subs	r0, r5, r0
 2955 0018 B0FA80F0 		clz	r0, r0
 2956 001c 4009     		lsrs	r0, r0, #5
 2957              	.L305:
 2958              		.loc 1 1683 0 discriminator 8
 2959 001e FFF7FEFF 		bl	assert_param
 2960              	.LVL301:
 2961              		.loc 1 1684 0 is_stmt 1 discriminator 8
 2962 0022 40F20523 		movw	r3, #517
 2963 0026 9C42     		cmp	r4, r3
 2964 0028 0DD0     		beq	.L312
ARM GAS  /var/folders/m4/4md61f0s1_g0rzfghffqnxvr0000gn/T//ccmqP2UT.s 			page 53


 2965              		.loc 1 1684 0 is_stmt 0 discriminator 2
 2966 002a B4F5837F 		cmp	r4, #262
 2967 002e 0AD0     		beq	.L312
 2968              		.loc 1 1684 0 discriminator 4
 2969 0030 40F20743 		movw	r3, #1031
 2970 0034 9C42     		cmp	r4, r3
 2971 0036 06D0     		beq	.L312
 2972              		.loc 1 1684 0 discriminator 6
 2973 0038 42F21A00 		movw	r0, #8218
 2974 003c 201A     		subs	r0, r4, r0
 2975 003e B0FA80F0 		clz	r0, r0
 2976 0042 4009     		lsrs	r0, r0, #5
 2977 0044 00E0     		b	.L306
 2978              	.L312:
 2979              		.loc 1 1684 0
 2980 0046 0120     		movs	r0, #1
 2981              	.L306:
 2982              		.loc 1 1684 0 discriminator 10
 2983 0048 FFF7FEFF 		bl	assert_param
 2984              	.LVL302:
 2985              		.loc 1 1690 0 is_stmt 1 discriminator 10
 2986 004c 6B68     		ldr	r3, [r5, #4]
 2987              	.LVL303:
 2988              		.loc 1 1693 0 discriminator 10
 2989 004e 2868     		ldr	r0, [r5]
 2990 0050 10EA1420 		ands	r0, r0, r4, lsr #8
 2991 0054 07D0     		beq	.L307
 2992              		.loc 1 1696 0 discriminator 1
 2993 0056 0121     		movs	r1, #1
 2994 0058 E4B2     		uxtb	r4, r4
 2995              	.LVL304:
 2996 005a 01FA04F4 		lsl	r4, r1, r4
 2997              	.LVL305:
 2998 005e 1C42     		tst	r4, r3
 2999 0060 14BF     		ite	ne
 3000 0062 0846     		movne	r0, r1
 3001 0064 0020     		moveq	r0, #0
 3002              	.L307:
 3003              	.LVL306:
 3004              		.loc 1 1705 0
 3005 0066 38BD     		pop	{r3, r4, r5, pc}
 3006              	.LVL307:
 3007              	.L309:
 3008              		.loc 1 1683 0
 3009 0068 0120     		movs	r0, #1
 3010              	.LVL308:
 3011 006a D8E7     		b	.L305
 3012              	.L316:
 3013              		.align	2
 3014              	.L315:
 3015 006c 00200140 		.word	1073815552
 3016 0070 00220140 		.word	1073816064
 3017              		.cfi_endproc
 3018              	.LFE159:
 3019              		.size	ADC_GetITStatus, .-ADC_GetITStatus
 3020              		.section	.text.ADC_ClearITPendingBit,"ax",%progbits
 3021              		.align	2
ARM GAS  /var/folders/m4/4md61f0s1_g0rzfghffqnxvr0000gn/T//ccmqP2UT.s 			page 54


 3022              		.p2align 4,,15
 3023              		.global	ADC_ClearITPendingBit
 3024              		.thumb
 3025              		.thumb_func
 3026              		.type	ADC_ClearITPendingBit, %function
 3027              	ADC_ClearITPendingBit:
 3028              	.LFB160:
 3029              		.loc 1 1719 0
 3030              		.cfi_startproc
 3031              		@ args = 0, pretend = 0, frame = 0
 3032              		@ frame_needed = 0, uses_anonymous_args = 0
 3033              	.LVL309:
 3034 0000 38B5     		push	{r3, r4, r5, lr}
 3035              		.cfi_def_cfa_offset 16
 3036              		.cfi_offset 3, -16
 3037              		.cfi_offset 4, -12
 3038              		.cfi_offset 5, -8
 3039              		.cfi_offset 14, -4
 3040              		.loc 1 1722 0
 3041 0002 184B     		ldr	r3, .L326
 3042 0004 9842     		cmp	r0, r3
 3043              		.loc 1 1719 0
 3044 0006 0546     		mov	r5, r0
 3045 0008 0C46     		mov	r4, r1
 3046              		.loc 1 1722 0
 3047 000a 28D0     		beq	.L321
 3048              		.loc 1 1722 0 is_stmt 0 discriminator 2
 3049 000c 03F58073 		add	r3, r3, #256
 3050 0010 9842     		cmp	r0, r3
 3051 0012 24D0     		beq	.L321
 3052              		.loc 1 1722 0 discriminator 4
 3053 0014 1448     		ldr	r0, .L326+4
 3054              	.LVL310:
 3055 0016 281A     		subs	r0, r5, r0
 3056 0018 B0FA80F0 		clz	r0, r0
 3057 001c 4009     		lsrs	r0, r0, #5
 3058              	.L318:
 3059              		.loc 1 1722 0 discriminator 8
 3060 001e FFF7FEFF 		bl	assert_param
 3061              	.LVL311:
 3062              		.loc 1 1723 0 is_stmt 1 discriminator 8
 3063 0022 40F20523 		movw	r3, #517
 3064 0026 9C42     		cmp	r4, r3
 3065 0028 12D0     		beq	.L324
 3066              		.loc 1 1723 0 is_stmt 0 discriminator 2
 3067 002a B4F5837F 		cmp	r4, #262
 3068 002e 0FD0     		beq	.L324
 3069              		.loc 1 1723 0 discriminator 4
 3070 0030 40F20743 		movw	r3, #1031
 3071 0034 9C42     		cmp	r4, r3
 3072 0036 0BD0     		beq	.L324
 3073              		.loc 1 1723 0 discriminator 6
 3074 0038 42F21A00 		movw	r0, #8218
 3075 003c 201A     		subs	r0, r4, r0
 3076 003e B0FA80F0 		clz	r0, r0
 3077 0042 4009     		lsrs	r0, r0, #5
 3078              		.loc 1 1727 0 is_stmt 1 discriminator 6
ARM GAS  /var/folders/m4/4md61f0s1_g0rzfghffqnxvr0000gn/T//ccmqP2UT.s 			page 55


 3079 0044 6FEA1424 		mvn	r4, r4, lsr #8
 3080              		.loc 1 1723 0 discriminator 6
 3081 0048 FFF7FEFF 		bl	assert_param
 3082              	.LVL312:
 3083              		.loc 1 1727 0 discriminator 6
 3084 004c 2C60     		str	r4, [r5]
 3085 004e 38BD     		pop	{r3, r4, r5, pc}
 3086              	.LVL313:
 3087              	.L324:
 3088              		.loc 1 1723 0
 3089 0050 0120     		movs	r0, #1
 3090              		.loc 1 1727 0
 3091 0052 6FEA1424 		mvn	r4, r4, lsr #8
 3092              		.loc 1 1723 0
 3093 0056 FFF7FEFF 		bl	assert_param
 3094              	.LVL314:
 3095              		.loc 1 1727 0
 3096 005a 2C60     		str	r4, [r5]
 3097 005c 38BD     		pop	{r3, r4, r5, pc}
 3098              	.LVL315:
 3099              	.L321:
 3100              		.loc 1 1722 0
 3101 005e 0120     		movs	r0, #1
 3102              	.LVL316:
 3103 0060 DDE7     		b	.L318
 3104              	.L327:
 3105 0062 00BF     		.align	2
 3106              	.L326:
 3107 0064 00200140 		.word	1073815552
 3108 0068 00220140 		.word	1073816064
 3109              		.cfi_endproc
 3110              	.LFE160:
 3111              		.size	ADC_ClearITPendingBit, .-ADC_ClearITPendingBit
 3112              		.text
 3113              	.Letext0:
 3114              		.file 2 "/opt/homebrew-cask/Caskroom/gcc-arm-embedded/5_2-2015q4,20151219/gcc-arm-none-eabi-5_2-20
 3115              		.file 3 "/opt/homebrew-cask/Caskroom/gcc-arm-embedded/5_2-2015q4,20151219/gcc-arm-none-eabi-5_2-20
 3116              		.file 4 "ChibiOS_16.1.4/os/ext/CMSIS/ST/STM32F4xx/stm32f405xx.h"
 3117              		.file 5 "ChibiOS_16.1.4/os/ext/CMSIS/ST/STM32F4xx/stm32f4xx.h"
 3118              		.file 6 "ChibiOS_16.1.4/ext/stdperiph_stm32f4/inc/stm32f4xx_adc.h"
 3119              		.file 7 "ChibiOS_16.1.4/ext/stdperiph_stm32f4/inc/stm32f4xx_rcc.h"
 3120              		.file 8 "ChibiOS_16.1.4/os/ext/CMSIS/include/core_cm4.h"
 3121              		.section	.debug_info,"",%progbits
 3122              	.Ldebug_info0:
 3123 0000 8E130000 		.4byte	0x138e
 3124 0004 0400     		.2byte	0x4
 3125 0006 00000000 		.4byte	.Ldebug_abbrev0
 3126 000a 04       		.byte	0x4
 3127 000b 01       		.uleb128 0x1
 3128 000c E9050000 		.4byte	.LASF117
 3129 0010 0C       		.byte	0xc
 3130 0011 7E070000 		.4byte	.LASF118
 3131 0015 9D000000 		.4byte	.LASF119
 3132 0019 00000000 		.4byte	.Ldebug_ranges0+0
 3133 001d 00000000 		.4byte	0
 3134 0021 00000000 		.4byte	.Ldebug_line0
 3135 0025 02       		.uleb128 0x2
ARM GAS  /var/folders/m4/4md61f0s1_g0rzfghffqnxvr0000gn/T//ccmqP2UT.s 			page 56


 3136 0026 01       		.byte	0x1
 3137 0027 06       		.byte	0x6
 3138 0028 5F080000 		.4byte	.LASF0
 3139 002c 03       		.uleb128 0x3
 3140 002d A6050000 		.4byte	.LASF3
 3141 0031 02       		.byte	0x2
 3142 0032 1D       		.byte	0x1d
 3143 0033 37000000 		.4byte	0x37
 3144 0037 02       		.uleb128 0x2
 3145 0038 01       		.byte	0x1
 3146 0039 08       		.byte	0x8
 3147 003a 4F070000 		.4byte	.LASF1
 3148 003e 02       		.uleb128 0x2
 3149 003f 02       		.byte	0x2
 3150 0040 05       		.byte	0x5
 3151 0041 E3040000 		.4byte	.LASF2
 3152 0045 03       		.uleb128 0x3
 3153 0046 DE010000 		.4byte	.LASF4
 3154 004a 02       		.byte	0x2
 3155 004b 2B       		.byte	0x2b
 3156 004c 50000000 		.4byte	0x50
 3157 0050 02       		.uleb128 0x2
 3158 0051 02       		.byte	0x2
 3159 0052 07       		.byte	0x7
 3160 0053 6B080000 		.4byte	.LASF5
 3161 0057 03       		.uleb128 0x3
 3162 0058 93000000 		.4byte	.LASF6
 3163 005c 02       		.byte	0x2
 3164 005d 3F       		.byte	0x3f
 3165 005e 62000000 		.4byte	0x62
 3166 0062 02       		.uleb128 0x2
 3167 0063 04       		.byte	0x4
 3168 0064 05       		.byte	0x5
 3169 0065 00050000 		.4byte	.LASF7
 3170 0069 03       		.uleb128 0x3
 3171 006a 73070000 		.4byte	.LASF8
 3172 006e 02       		.byte	0x2
 3173 006f 41       		.byte	0x41
 3174 0070 74000000 		.4byte	0x74
 3175 0074 02       		.uleb128 0x2
 3176 0075 04       		.byte	0x4
 3177 0076 07       		.byte	0x7
 3178 0077 FF060000 		.4byte	.LASF9
 3179 007b 02       		.uleb128 0x2
 3180 007c 08       		.byte	0x8
 3181 007d 05       		.byte	0x5
 3182 007e 43030000 		.4byte	.LASF10
 3183 0082 02       		.uleb128 0x2
 3184 0083 08       		.byte	0x8
 3185 0084 07       		.byte	0x7
 3186 0085 97010000 		.4byte	.LASF11
 3187 0089 04       		.uleb128 0x4
 3188 008a 04       		.byte	0x4
 3189 008b 05       		.byte	0x5
 3190 008c 696E7400 		.ascii	"int\000"
 3191 0090 02       		.uleb128 0x2
 3192 0091 04       		.byte	0x4
ARM GAS  /var/folders/m4/4md61f0s1_g0rzfghffqnxvr0000gn/T//ccmqP2UT.s 			page 57


 3193 0092 07       		.byte	0x7
 3194 0093 76000000 		.4byte	.LASF12
 3195 0097 03       		.uleb128 0x3
 3196 0098 08030000 		.4byte	.LASF13
 3197 009c 03       		.byte	0x3
 3198 009d 14       		.byte	0x14
 3199 009e 2C000000 		.4byte	0x2c
 3200 00a2 03       		.uleb128 0x3
 3201 00a3 87040000 		.4byte	.LASF14
 3202 00a7 03       		.byte	0x3
 3203 00a8 1A       		.byte	0x1a
 3204 00a9 45000000 		.4byte	0x45
 3205 00ad 03       		.uleb128 0x3
 3206 00ae 29070000 		.4byte	.LASF15
 3207 00b2 03       		.byte	0x3
 3208 00b3 1F       		.byte	0x1f
 3209 00b4 57000000 		.4byte	0x57
 3210 00b8 03       		.uleb128 0x3
 3211 00b9 2B010000 		.4byte	.LASF16
 3212 00bd 03       		.byte	0x3
 3213 00be 20       		.byte	0x20
 3214 00bf 69000000 		.4byte	0x69
 3215 00c3 02       		.uleb128 0x2
 3216 00c4 04       		.byte	0x4
 3217 00c5 07       		.byte	0x7
 3218 00c6 F6060000 		.4byte	.LASF17
 3219 00ca 05       		.uleb128 0x5
 3220 00cb B8000000 		.4byte	0xb8
 3221 00cf 06       		.uleb128 0x6
 3222 00d0 50       		.byte	0x50
 3223 00d1 04       		.byte	0x4
 3224 00d2 C1       		.byte	0xc1
 3225 00d3 C6010000 		.4byte	0x1c6
 3226 00d7 07       		.uleb128 0x7
 3227 00d8 535200   		.ascii	"SR\000"
 3228 00db 04       		.byte	0x4
 3229 00dc C3       		.byte	0xc3
 3230 00dd CA000000 		.4byte	0xca
 3231 00e1 00       		.byte	0
 3232 00e2 07       		.uleb128 0x7
 3233 00e3 43523100 		.ascii	"CR1\000"
 3234 00e7 04       		.byte	0x4
 3235 00e8 C4       		.byte	0xc4
 3236 00e9 CA000000 		.4byte	0xca
 3237 00ed 04       		.byte	0x4
 3238 00ee 07       		.uleb128 0x7
 3239 00ef 43523200 		.ascii	"CR2\000"
 3240 00f3 04       		.byte	0x4
 3241 00f4 C5       		.byte	0xc5
 3242 00f5 CA000000 		.4byte	0xca
 3243 00f9 08       		.byte	0x8
 3244 00fa 08       		.uleb128 0x8
 3245 00fb 2A040000 		.4byte	.LASF18
 3246 00ff 04       		.byte	0x4
 3247 0100 C6       		.byte	0xc6
 3248 0101 CA000000 		.4byte	0xca
 3249 0105 0C       		.byte	0xc
ARM GAS  /var/folders/m4/4md61f0s1_g0rzfghffqnxvr0000gn/T//ccmqP2UT.s 			page 58


 3250 0106 08       		.uleb128 0x8
 3251 0107 30040000 		.4byte	.LASF19
 3252 010b 04       		.byte	0x4
 3253 010c C7       		.byte	0xc7
 3254 010d CA000000 		.4byte	0xca
 3255 0111 10       		.byte	0x10
 3256 0112 08       		.uleb128 0x8
 3257 0113 7E080000 		.4byte	.LASF20
 3258 0117 04       		.byte	0x4
 3259 0118 C8       		.byte	0xc8
 3260 0119 CA000000 		.4byte	0xca
 3261 011d 14       		.byte	0x14
 3262 011e 08       		.uleb128 0x8
 3263 011f 84080000 		.4byte	.LASF21
 3264 0123 04       		.byte	0x4
 3265 0124 C9       		.byte	0xc9
 3266 0125 CA000000 		.4byte	0xca
 3267 0129 18       		.byte	0x18
 3268 012a 08       		.uleb128 0x8
 3269 012b 8A080000 		.4byte	.LASF22
 3270 012f 04       		.byte	0x4
 3271 0130 CA       		.byte	0xca
 3272 0131 CA000000 		.4byte	0xca
 3273 0135 1C       		.byte	0x1c
 3274 0136 08       		.uleb128 0x8
 3275 0137 90080000 		.4byte	.LASF23
 3276 013b 04       		.byte	0x4
 3277 013c CB       		.byte	0xcb
 3278 013d CA000000 		.4byte	0xca
 3279 0141 20       		.byte	0x20
 3280 0142 07       		.uleb128 0x7
 3281 0143 48545200 		.ascii	"HTR\000"
 3282 0147 04       		.byte	0x4
 3283 0148 CC       		.byte	0xcc
 3284 0149 CA000000 		.4byte	0xca
 3285 014d 24       		.byte	0x24
 3286 014e 07       		.uleb128 0x7
 3287 014f 4C545200 		.ascii	"LTR\000"
 3288 0153 04       		.byte	0x4
 3289 0154 CD       		.byte	0xcd
 3290 0155 CA000000 		.4byte	0xca
 3291 0159 28       		.byte	0x28
 3292 015a 08       		.uleb128 0x8
 3293 015b 2B000000 		.4byte	.LASF24
 3294 015f 04       		.byte	0x4
 3295 0160 CE       		.byte	0xce
 3296 0161 CA000000 		.4byte	0xca
 3297 0165 2C       		.byte	0x2c
 3298 0166 08       		.uleb128 0x8
 3299 0167 30000000 		.4byte	.LASF25
 3300 016b 04       		.byte	0x4
 3301 016c CF       		.byte	0xcf
 3302 016d CA000000 		.4byte	0xca
 3303 0171 30       		.byte	0x30
 3304 0172 08       		.uleb128 0x8
 3305 0173 35000000 		.4byte	.LASF26
 3306 0177 04       		.byte	0x4
ARM GAS  /var/folders/m4/4md61f0s1_g0rzfghffqnxvr0000gn/T//ccmqP2UT.s 			page 59


 3307 0178 D0       		.byte	0xd0
 3308 0179 CA000000 		.4byte	0xca
 3309 017d 34       		.byte	0x34
 3310 017e 08       		.uleb128 0x8
 3311 017f 02040000 		.4byte	.LASF27
 3312 0183 04       		.byte	0x4
 3313 0184 D1       		.byte	0xd1
 3314 0185 CA000000 		.4byte	0xca
 3315 0189 38       		.byte	0x38
 3316 018a 08       		.uleb128 0x8
 3317 018b B2040000 		.4byte	.LASF28
 3318 018f 04       		.byte	0x4
 3319 0190 D2       		.byte	0xd2
 3320 0191 CA000000 		.4byte	0xca
 3321 0195 3C       		.byte	0x3c
 3322 0196 08       		.uleb128 0x8
 3323 0197 B7040000 		.4byte	.LASF29
 3324 019b 04       		.byte	0x4
 3325 019c D3       		.byte	0xd3
 3326 019d CA000000 		.4byte	0xca
 3327 01a1 40       		.byte	0x40
 3328 01a2 08       		.uleb128 0x8
 3329 01a3 BC040000 		.4byte	.LASF30
 3330 01a7 04       		.byte	0x4
 3331 01a8 D4       		.byte	0xd4
 3332 01a9 CA000000 		.4byte	0xca
 3333 01ad 44       		.byte	0x44
 3334 01ae 08       		.uleb128 0x8
 3335 01af C1040000 		.4byte	.LASF31
 3336 01b3 04       		.byte	0x4
 3337 01b4 D5       		.byte	0xd5
 3338 01b5 CA000000 		.4byte	0xca
 3339 01b9 48       		.byte	0x48
 3340 01ba 07       		.uleb128 0x7
 3341 01bb 445200   		.ascii	"DR\000"
 3342 01be 04       		.byte	0x4
 3343 01bf D6       		.byte	0xd6
 3344 01c0 CA000000 		.4byte	0xca
 3345 01c4 4C       		.byte	0x4c
 3346 01c5 00       		.byte	0
 3347 01c6 03       		.uleb128 0x3
 3348 01c7 37030000 		.4byte	.LASF32
 3349 01cb 04       		.byte	0x4
 3350 01cc D7       		.byte	0xd7
 3351 01cd CF000000 		.4byte	0xcf
 3352 01d1 06       		.uleb128 0x6
 3353 01d2 0C       		.byte	0xc
 3354 01d3 04       		.byte	0x4
 3355 01d4 D9       		.byte	0xd9
 3356 01d5 FE010000 		.4byte	0x1fe
 3357 01d9 07       		.uleb128 0x7
 3358 01da 43535200 		.ascii	"CSR\000"
 3359 01de 04       		.byte	0x4
 3360 01df DB       		.byte	0xdb
 3361 01e0 CA000000 		.4byte	0xca
 3362 01e4 00       		.byte	0
 3363 01e5 07       		.uleb128 0x7
ARM GAS  /var/folders/m4/4md61f0s1_g0rzfghffqnxvr0000gn/T//ccmqP2UT.s 			page 60


 3364 01e6 43435200 		.ascii	"CCR\000"
 3365 01ea 04       		.byte	0x4
 3366 01eb DC       		.byte	0xdc
 3367 01ec CA000000 		.4byte	0xca
 3368 01f0 04       		.byte	0x4
 3369 01f1 07       		.uleb128 0x7
 3370 01f2 43445200 		.ascii	"CDR\000"
 3371 01f6 04       		.byte	0x4
 3372 01f7 DD       		.byte	0xdd
 3373 01f8 CA000000 		.4byte	0xca
 3374 01fc 08       		.byte	0x8
 3375 01fd 00       		.byte	0
 3376 01fe 03       		.uleb128 0x3
 3377 01ff ED040000 		.4byte	.LASF33
 3378 0203 04       		.byte	0x4
 3379 0204 DF       		.byte	0xdf
 3380 0205 D1010000 		.4byte	0x1d1
 3381 0209 09       		.uleb128 0x9
 3382 020a 01       		.byte	0x1
 3383 020b 37000000 		.4byte	0x37
 3384 020f 05       		.byte	0x5
 3385 0210 B8       		.byte	0xb8
 3386 0211 22020000 		.4byte	0x222
 3387 0215 0A       		.uleb128 0xa
 3388 0216 31050000 		.4byte	.LASF34
 3389 021a 00       		.byte	0
 3390 021b 0B       		.uleb128 0xb
 3391 021c 53455400 		.ascii	"SET\000"
 3392 0220 01       		.byte	0x1
 3393 0221 00       		.byte	0
 3394 0222 03       		.uleb128 0x3
 3395 0223 D2000000 		.4byte	.LASF35
 3396 0227 05       		.byte	0x5
 3397 0228 BB       		.byte	0xbb
 3398 0229 09020000 		.4byte	0x209
 3399 022d 03       		.uleb128 0x3
 3400 022e 46020000 		.4byte	.LASF36
 3401 0232 05       		.byte	0x5
 3402 0233 BB       		.byte	0xbb
 3403 0234 09020000 		.4byte	0x209
 3404 0238 09       		.uleb128 0x9
 3405 0239 01       		.byte	0x1
 3406 023a 37000000 		.4byte	0x37
 3407 023e 05       		.byte	0x5
 3408 023f BE       		.byte	0xbe
 3409 0240 51020000 		.4byte	0x251
 3410 0244 0A       		.uleb128 0xa
 3411 0245 DA020000 		.4byte	.LASF37
 3412 0249 00       		.byte	0
 3413 024a 0A       		.uleb128 0xa
 3414 024b EF060000 		.4byte	.LASF38
 3415 024f 01       		.byte	0x1
 3416 0250 00       		.byte	0
 3417 0251 03       		.uleb128 0x3
 3418 0252 83000000 		.4byte	.LASF39
 3419 0256 05       		.byte	0x5
 3420 0257 C1       		.byte	0xc1
ARM GAS  /var/folders/m4/4md61f0s1_g0rzfghffqnxvr0000gn/T//ccmqP2UT.s 			page 61


 3421 0258 38020000 		.4byte	0x238
 3422 025c 06       		.uleb128 0x6
 3423 025d 18       		.byte	0x18
 3424 025e 06       		.byte	0x6
 3425 025f 35       		.byte	0x35
 3426 0260 B9020000 		.4byte	0x2b9
 3427 0264 08       		.uleb128 0x8
 3428 0265 6A030000 		.4byte	.LASF40
 3429 0269 06       		.byte	0x6
 3430 026a 37       		.byte	0x37
 3431 026b B8000000 		.4byte	0xb8
 3432 026f 00       		.byte	0
 3433 0270 08       		.uleb128 0x8
 3434 0271 C4010000 		.4byte	.LASF41
 3435 0275 06       		.byte	0x6
 3436 0276 39       		.byte	0x39
 3437 0277 51020000 		.4byte	0x251
 3438 027b 04       		.byte	0x4
 3439 027c 08       		.uleb128 0x8
 3440 027d C3020000 		.4byte	.LASF42
 3441 0281 06       		.byte	0x6
 3442 0282 3D       		.byte	0x3d
 3443 0283 51020000 		.4byte	0x251
 3444 0287 05       		.byte	0x5
 3445 0288 08       		.uleb128 0x8
 3446 0289 51030000 		.4byte	.LASF43
 3447 028d 06       		.byte	0x6
 3448 028e 40       		.byte	0x40
 3449 028f B8000000 		.4byte	0xb8
 3450 0293 08       		.byte	0x8
 3451 0294 08       		.uleb128 0x8
 3452 0295 4A080000 		.4byte	.LASF44
 3453 0299 06       		.byte	0x6
 3454 029a 44       		.byte	0x44
 3455 029b B8000000 		.4byte	0xb8
 3456 029f 0C       		.byte	0xc
 3457 02a0 08       		.uleb128 0x8
 3458 02a1 16050000 		.4byte	.LASF45
 3459 02a5 06       		.byte	0x6
 3460 02a6 48       		.byte	0x48
 3461 02a7 B8000000 		.4byte	0xb8
 3462 02ab 10       		.byte	0x10
 3463 02ac 08       		.uleb128 0x8
 3464 02ad 3A000000 		.4byte	.LASF46
 3465 02b1 06       		.byte	0x6
 3466 02b2 4B       		.byte	0x4b
 3467 02b3 97000000 		.4byte	0x97
 3468 02b7 14       		.byte	0x14
 3469 02b8 00       		.byte	0
 3470 02b9 03       		.uleb128 0x3
 3471 02ba 1B000000 		.4byte	.LASF47
 3472 02be 06       		.byte	0x6
 3473 02bf 4F       		.byte	0x4f
 3474 02c0 5C020000 		.4byte	0x25c
 3475 02c4 06       		.uleb128 0x6
 3476 02c5 10       		.byte	0x10
 3477 02c6 06       		.byte	0x6
ARM GAS  /var/folders/m4/4md61f0s1_g0rzfghffqnxvr0000gn/T//ccmqP2UT.s 			page 62


 3478 02c7 54       		.byte	0x54
 3479 02c8 FD020000 		.4byte	0x2fd
 3480 02cc 08       		.uleb128 0x8
 3481 02cd 4D040000 		.4byte	.LASF48
 3482 02d1 06       		.byte	0x6
 3483 02d2 56       		.byte	0x56
 3484 02d3 B8000000 		.4byte	0xb8
 3485 02d7 00       		.byte	0
 3486 02d8 08       		.uleb128 0x8
 3487 02d9 D5040000 		.4byte	.LASF49
 3488 02dd 06       		.byte	0x6
 3489 02de 59       		.byte	0x59
 3490 02df B8000000 		.4byte	0xb8
 3491 02e3 04       		.byte	0x4
 3492 02e4 08       		.uleb128 0x8
 3493 02e5 25030000 		.4byte	.LASF50
 3494 02e9 06       		.byte	0x6
 3495 02ea 5C       		.byte	0x5c
 3496 02eb B8000000 		.4byte	0xb8
 3497 02ef 08       		.byte	0x8
 3498 02f0 08       		.uleb128 0x8
 3499 02f1 ED030000 		.4byte	.LASF51
 3500 02f5 06       		.byte	0x6
 3501 02f6 60       		.byte	0x60
 3502 02f7 B8000000 		.4byte	0xb8
 3503 02fb 0C       		.byte	0xc
 3504 02fc 00       		.byte	0
 3505 02fd 03       		.uleb128 0x3
 3506 02fe D6070000 		.4byte	.LASF52
 3507 0302 06       		.byte	0x6
 3508 0303 64       		.byte	0x64
 3509 0304 C4020000 		.4byte	0x2c4
 3510 0308 0C       		.uleb128 0xc
 3511 0309 62010000 		.4byte	.LASF53
 3512 030d 01       		.byte	0x1
 3513 030e D5       		.byte	0xd5
 3514 030f 00000000 		.4byte	.LFB123
 3515 0313 1A000000 		.4byte	.LFE123-.LFB123
 3516 0317 01       		.uleb128 0x1
 3517 0318 9C       		.byte	0x9c
 3518 0319 4E030000 		.4byte	0x34e
 3519 031d 0D       		.uleb128 0xd
 3520 031e 0C000000 		.4byte	.LVL0
 3521 0322 7A130000 		.4byte	0x137a
 3522 0326 37030000 		.4byte	0x337
 3523 032a 0E       		.uleb128 0xe
 3524 032b 01       		.uleb128 0x1
 3525 032c 50       		.byte	0x50
 3526 032d 03       		.uleb128 0x3
 3527 032e 0A       		.byte	0xa
 3528 032f 0001     		.2byte	0x100
 3529 0331 0E       		.uleb128 0xe
 3530 0332 01       		.uleb128 0x1
 3531 0333 51       		.byte	0x51
 3532 0334 01       		.uleb128 0x1
 3533 0335 31       		.byte	0x31
 3534 0336 00       		.byte	0
ARM GAS  /var/folders/m4/4md61f0s1_g0rzfghffqnxvr0000gn/T//ccmqP2UT.s 			page 63


 3535 0337 0F       		.uleb128 0xf
 3536 0338 1A000000 		.4byte	.LVL1
 3537 033c 7A130000 		.4byte	0x137a
 3538 0340 0E       		.uleb128 0xe
 3539 0341 01       		.uleb128 0x1
 3540 0342 50       		.byte	0x50
 3541 0343 03       		.uleb128 0x3
 3542 0344 0A       		.byte	0xa
 3543 0345 0001     		.2byte	0x100
 3544 0347 0E       		.uleb128 0xe
 3545 0348 01       		.uleb128 0x1
 3546 0349 51       		.byte	0x51
 3547 034a 01       		.uleb128 0x1
 3548 034b 30       		.byte	0x30
 3549 034c 00       		.byte	0
 3550 034d 00       		.byte	0
 3551 034e 0C       		.uleb128 0xc
 3552 034f D5010000 		.4byte	.LASF54
 3553 0353 01       		.byte	0x1
 3554 0354 EB       		.byte	0xeb
 3555 0355 00000000 		.4byte	.LFB124
 3556 0359 FC000000 		.4byte	.LFE124-.LFB124
 3557 035d 01       		.uleb128 0x1
 3558 035e 9C       		.byte	0x9c
 3559 035f F9030000 		.4byte	0x3f9
 3560 0363 10       		.uleb128 0x10
 3561 0364 95030000 		.4byte	.LASF55
 3562 0368 01       		.byte	0x1
 3563 0369 EB       		.byte	0xeb
 3564 036a F9030000 		.4byte	0x3f9
 3565 036e 00000000 		.4byte	.LLST0
 3566 0372 10       		.uleb128 0x10
 3567 0373 F5000000 		.4byte	.LASF56
 3568 0377 01       		.byte	0x1
 3569 0378 EB       		.byte	0xeb
 3570 0379 FF030000 		.4byte	0x3ff
 3571 037d 34000000 		.4byte	.LLST1
 3572 0381 11       		.uleb128 0x11
 3573 0382 11070000 		.4byte	.LASF57
 3574 0386 01       		.byte	0x1
 3575 0387 ED       		.byte	0xed
 3576 0388 B8000000 		.4byte	0xb8
 3577 038c 68000000 		.4byte	.LLST2
 3578 0390 11       		.uleb128 0x11
 3579 0391 19070000 		.4byte	.LASF58
 3580 0395 01       		.byte	0x1
 3581 0396 EE       		.byte	0xee
 3582 0397 97000000 		.4byte	0x97
 3583 039b E4000000 		.4byte	.LLST3
 3584 039f 12       		.uleb128 0x12
 3585 03a0 24050000 		.4byte	.LASF62
 3586 03a4 01       		.byte	0x1
 3587 03a5 F0       		.byte	0xf0
 3588 03a6 89000000 		.4byte	0x89
 3589 03aa B0030000 		.4byte	0x3b0
 3590 03ae 13       		.uleb128 0x13
 3591 03af 00       		.byte	0
ARM GAS  /var/folders/m4/4md61f0s1_g0rzfghffqnxvr0000gn/T//ccmqP2UT.s 			page 64


 3592 03b0 14       		.uleb128 0x14
 3593 03b1 22000000 		.4byte	.LVL4
 3594 03b5 86130000 		.4byte	0x1386
 3595 03b9 14       		.uleb128 0x14
 3596 03ba 32000000 		.4byte	.LVL5
 3597 03be 86130000 		.4byte	0x1386
 3598 03c2 14       		.uleb128 0x14
 3599 03c3 40000000 		.4byte	.LVL6
 3600 03c7 86130000 		.4byte	0x1386
 3601 03cb 14       		.uleb128 0x14
 3602 03cc 4E000000 		.4byte	.LVL7
 3603 03d0 86130000 		.4byte	0x1386
 3604 03d4 14       		.uleb128 0x14
 3605 03d5 5E000000 		.4byte	.LVL8
 3606 03d9 86130000 		.4byte	0x1386
 3607 03dd 14       		.uleb128 0x14
 3608 03de 6C000000 		.4byte	.LVL9
 3609 03e2 86130000 		.4byte	0x1386
 3610 03e6 14       		.uleb128 0x14
 3611 03e7 7C000000 		.4byte	.LVL10
 3612 03eb 86130000 		.4byte	0x1386
 3613 03ef 14       		.uleb128 0x14
 3614 03f0 8C000000 		.4byte	.LVL11
 3615 03f4 86130000 		.4byte	0x1386
 3616 03f8 00       		.byte	0
 3617 03f9 15       		.uleb128 0x15
 3618 03fa 04       		.byte	0x4
 3619 03fb C6010000 		.4byte	0x1c6
 3620 03ff 15       		.uleb128 0x15
 3621 0400 04       		.byte	0x4
 3622 0401 B9020000 		.4byte	0x2b9
 3623 0405 16       		.uleb128 0x16
 3624 0406 C6040000 		.4byte	.LASF59
 3625 040a 01       		.byte	0x1
 3626 040b 3601     		.2byte	0x136
 3627 040d 00000000 		.4byte	.LFB125
 3628 0411 14000000 		.4byte	.LFE125-.LFB125
 3629 0415 01       		.uleb128 0x1
 3630 0416 9C       		.byte	0x9c
 3631 0417 2A040000 		.4byte	0x42a
 3632 041b 17       		.uleb128 0x17
 3633 041c F5000000 		.4byte	.LASF56
 3634 0420 01       		.byte	0x1
 3635 0421 3601     		.2byte	0x136
 3636 0423 FF030000 		.4byte	0x3ff
 3637 0427 01       		.uleb128 0x1
 3638 0428 50       		.byte	0x50
 3639 0429 00       		.byte	0
 3640 042a 16       		.uleb128 0x16
 3641 042b 79030000 		.4byte	.LASF60
 3642 042f 01       		.byte	0x1
 3643 0430 5501     		.2byte	0x155
 3644 0432 00000000 		.4byte	.LFB126
 3645 0436 88000000 		.4byte	.LFE126-.LFB126
 3646 043a 01       		.uleb128 0x1
 3647 043b 9C       		.byte	0x9c
 3648 043c 96040000 		.4byte	0x496
ARM GAS  /var/folders/m4/4md61f0s1_g0rzfghffqnxvr0000gn/T//ccmqP2UT.s 			page 65


 3649 0440 18       		.uleb128 0x18
 3650 0441 10030000 		.4byte	.LASF61
 3651 0445 01       		.byte	0x1
 3652 0446 5501     		.2byte	0x155
 3653 0448 96040000 		.4byte	0x496
 3654 044c 15010000 		.4byte	.LLST4
 3655 0450 19       		.uleb128 0x19
 3656 0451 11070000 		.4byte	.LASF57
 3657 0455 01       		.byte	0x1
 3658 0456 5701     		.2byte	0x157
 3659 0458 B8000000 		.4byte	0xb8
 3660 045c 4C010000 		.4byte	.LLST5
 3661 0460 12       		.uleb128 0x12
 3662 0461 24050000 		.4byte	.LASF62
 3663 0465 01       		.byte	0x1
 3664 0466 F0       		.byte	0xf0
 3665 0467 89000000 		.4byte	0x89
 3666 046b 71040000 		.4byte	0x471
 3667 046f 13       		.uleb128 0x13
 3668 0470 00       		.byte	0
 3669 0471 14       		.uleb128 0x14
 3670 0472 1A000000 		.4byte	.LVL29
 3671 0476 86130000 		.4byte	0x1386
 3672 047a 14       		.uleb128 0x14
 3673 047b 2A000000 		.4byte	.LVL30
 3674 047f 86130000 		.4byte	0x1386
 3675 0483 14       		.uleb128 0x14
 3676 0484 3A000000 		.4byte	.LVL31
 3677 0488 86130000 		.4byte	0x1386
 3678 048c 14       		.uleb128 0x14
 3679 048d 48000000 		.4byte	.LVL32
 3680 0491 86130000 		.4byte	0x1386
 3681 0495 00       		.byte	0
 3682 0496 15       		.uleb128 0x15
 3683 0497 04       		.byte	0x4
 3684 0498 FD020000 		.4byte	0x2fd
 3685 049c 16       		.uleb128 0x16
 3686 049d 4E000000 		.4byte	.LASF63
 3687 04a1 01       		.byte	0x1
 3688 04a2 7901     		.2byte	0x179
 3689 04a4 00000000 		.4byte	.LFB127
 3690 04a8 0C000000 		.4byte	.LFE127-.LFB127
 3691 04ac 01       		.uleb128 0x1
 3692 04ad 9C       		.byte	0x9c
 3693 04ae C1040000 		.4byte	0x4c1
 3694 04b2 17       		.uleb128 0x17
 3695 04b3 10030000 		.4byte	.LASF61
 3696 04b7 01       		.byte	0x1
 3697 04b8 7901     		.2byte	0x179
 3698 04ba 96040000 		.4byte	0x496
 3699 04be 01       		.uleb128 0x1
 3700 04bf 50       		.byte	0x50
 3701 04c0 00       		.byte	0
 3702 04c1 16       		.uleb128 0x16
 3703 04c2 44010000 		.4byte	.LASF64
 3704 04c6 01       		.byte	0x1
 3705 04c7 8F01     		.2byte	0x18f
ARM GAS  /var/folders/m4/4md61f0s1_g0rzfghffqnxvr0000gn/T//ccmqP2UT.s 			page 66


 3706 04c9 00000000 		.4byte	.LFB128
 3707 04cd 50000000 		.4byte	.LFE128-.LFB128
 3708 04d1 01       		.uleb128 0x1
 3709 04d2 9C       		.byte	0x9c
 3710 04d3 1B050000 		.4byte	0x51b
 3711 04d7 18       		.uleb128 0x18
 3712 04d8 95030000 		.4byte	.LASF55
 3713 04dc 01       		.byte	0x1
 3714 04dd 8F01     		.2byte	0x18f
 3715 04df F9030000 		.4byte	0x3f9
 3716 04e3 82010000 		.4byte	.LLST6
 3717 04e7 18       		.uleb128 0x18
 3718 04e8 5F020000 		.4byte	.LASF65
 3719 04ec 01       		.byte	0x1
 3720 04ed 8F01     		.2byte	0x18f
 3721 04ef 51020000 		.4byte	0x251
 3722 04f3 B6010000 		.4byte	.LLST7
 3723 04f7 12       		.uleb128 0x12
 3724 04f8 24050000 		.4byte	.LASF62
 3725 04fc 01       		.byte	0x1
 3726 04fd F0       		.byte	0xf0
 3727 04fe 89000000 		.4byte	0x89
 3728 0502 08050000 		.4byte	0x508
 3729 0506 13       		.uleb128 0x13
 3730 0507 00       		.byte	0
 3731 0508 14       		.uleb128 0x14
 3732 0509 22000000 		.4byte	.LVL40
 3733 050d 86130000 		.4byte	0x1386
 3734 0511 14       		.uleb128 0x14
 3735 0512 2E000000 		.4byte	.LVL41
 3736 0516 86130000 		.4byte	0x1386
 3737 051a 00       		.byte	0
 3738 051b 16       		.uleb128 0x16
 3739 051c 4C010000 		.4byte	.LASF66
 3740 0520 01       		.byte	0x1
 3741 0521 C701     		.2byte	0x1c7
 3742 0523 00000000 		.4byte	.LFB129
 3743 0527 70000000 		.4byte	.LFE129-.LFB129
 3744 052b 01       		.uleb128 0x1
 3745 052c 9C       		.byte	0x9c
 3746 052d 85050000 		.4byte	0x585
 3747 0531 18       		.uleb128 0x18
 3748 0532 95030000 		.4byte	.LASF55
 3749 0536 01       		.byte	0x1
 3750 0537 C701     		.2byte	0x1c7
 3751 0539 F9030000 		.4byte	0x3f9
 3752 053d E2010000 		.4byte	.LLST8
 3753 0541 18       		.uleb128 0x18
 3754 0542 63000000 		.4byte	.LASF67
 3755 0546 01       		.byte	0x1
 3756 0547 C701     		.2byte	0x1c7
 3757 0549 B8000000 		.4byte	0xb8
 3758 054d 16020000 		.4byte	.LLST9
 3759 0551 19       		.uleb128 0x19
 3760 0552 27020000 		.4byte	.LASF68
 3761 0556 01       		.byte	0x1
 3762 0557 C901     		.2byte	0x1c9
ARM GAS  /var/folders/m4/4md61f0s1_g0rzfghffqnxvr0000gn/T//ccmqP2UT.s 			page 67


 3763 0559 B8000000 		.4byte	0xb8
 3764 055d 3F020000 		.4byte	.LLST10
 3765 0561 12       		.uleb128 0x12
 3766 0562 24050000 		.4byte	.LASF62
 3767 0566 01       		.byte	0x1
 3768 0567 F0       		.byte	0xf0
 3769 0568 89000000 		.4byte	0x89
 3770 056c 72050000 		.4byte	0x572
 3771 0570 13       		.uleb128 0x13
 3772 0571 00       		.byte	0
 3773 0572 14       		.uleb128 0x14
 3774 0573 22000000 		.4byte	.LVL47
 3775 0577 86130000 		.4byte	0x1386
 3776 057b 14       		.uleb128 0x14
 3777 057c 4A000000 		.4byte	.LVL48
 3778 0580 86130000 		.4byte	0x1386
 3779 0584 00       		.byte	0
 3780 0585 16       		.uleb128 0x16
 3781 0586 8B020000 		.4byte	.LASF69
 3782 058a 01       		.byte	0x1
 3783 058b E401     		.2byte	0x1e4
 3784 058d 00000000 		.4byte	.LFB130
 3785 0591 54000000 		.4byte	.LFE130-.LFB130
 3786 0595 01       		.uleb128 0x1
 3787 0596 9C       		.byte	0x9c
 3788 0597 F8050000 		.4byte	0x5f8
 3789 059b 18       		.uleb128 0x18
 3790 059c 95030000 		.4byte	.LASF55
 3791 05a0 01       		.byte	0x1
 3792 05a1 E401     		.2byte	0x1e4
 3793 05a3 F9030000 		.4byte	0x3f9
 3794 05a7 75020000 		.4byte	.LLST11
 3795 05ab 18       		.uleb128 0x18
 3796 05ac B5020000 		.4byte	.LASF70
 3797 05b0 01       		.byte	0x1
 3798 05b1 E401     		.2byte	0x1e4
 3799 05b3 A2000000 		.4byte	0xa2
 3800 05b7 A9020000 		.4byte	.LLST12
 3801 05bb 18       		.uleb128 0x18
 3802 05bc 88030000 		.4byte	.LASF71
 3803 05c0 01       		.byte	0x1
 3804 05c1 E501     		.2byte	0x1e5
 3805 05c3 A2000000 		.4byte	0xa2
 3806 05c7 D5020000 		.4byte	.LLST13
 3807 05cb 12       		.uleb128 0x12
 3808 05cc 24050000 		.4byte	.LASF62
 3809 05d0 01       		.byte	0x1
 3810 05d1 F0       		.byte	0xf0
 3811 05d2 89000000 		.4byte	0x89
 3812 05d6 DC050000 		.4byte	0x5dc
 3813 05da 13       		.uleb128 0x13
 3814 05db 00       		.byte	0
 3815 05dc 14       		.uleb128 0x14
 3816 05dd 28000000 		.4byte	.LVL57
 3817 05e1 86130000 		.4byte	0x1386
 3818 05e5 14       		.uleb128 0x14
 3819 05e6 34000000 		.4byte	.LVL58
ARM GAS  /var/folders/m4/4md61f0s1_g0rzfghffqnxvr0000gn/T//ccmqP2UT.s 			page 68


 3820 05ea 86130000 		.4byte	0x1386
 3821 05ee 14       		.uleb128 0x14
 3822 05ef 40000000 		.4byte	.LVL59
 3823 05f3 86130000 		.4byte	0x1386
 3824 05f7 00       		.byte	0
 3825 05f8 16       		.uleb128 0x16
 3826 05f9 E2020000 		.4byte	.LASF72
 3827 05fd 01       		.byte	0x1
 3828 05fe 0D02     		.2byte	0x20d
 3829 0600 00000000 		.4byte	.LFB131
 3830 0604 48000000 		.4byte	.LFE131-.LFB131
 3831 0608 01       		.uleb128 0x1
 3832 0609 9C       		.byte	0x9c
 3833 060a 62060000 		.4byte	0x662
 3834 060e 18       		.uleb128 0x18
 3835 060f 95030000 		.4byte	.LASF55
 3836 0613 01       		.byte	0x1
 3837 0614 0D02     		.2byte	0x20d
 3838 0616 F9030000 		.4byte	0x3f9
 3839 061a 01030000 		.4byte	.LLST14
 3840 061e 18       		.uleb128 0x18
 3841 061f DD050000 		.4byte	.LASF73
 3842 0623 01       		.byte	0x1
 3843 0624 0D02     		.2byte	0x20d
 3844 0626 97000000 		.4byte	0x97
 3845 062a 35030000 		.4byte	.LLST15
 3846 062e 19       		.uleb128 0x19
 3847 062f 27020000 		.4byte	.LASF68
 3848 0633 01       		.byte	0x1
 3849 0634 0F02     		.2byte	0x20f
 3850 0636 B8000000 		.4byte	0xb8
 3851 063a 61030000 		.4byte	.LLST16
 3852 063e 12       		.uleb128 0x12
 3853 063f 24050000 		.4byte	.LASF62
 3854 0643 01       		.byte	0x1
 3855 0644 F0       		.byte	0xf0
 3856 0645 89000000 		.4byte	0x89
 3857 0649 4F060000 		.4byte	0x64f
 3858 064d 13       		.uleb128 0x13
 3859 064e 00       		.byte	0
 3860 064f 14       		.uleb128 0x14
 3861 0650 22000000 		.4byte	.LVL64
 3862 0654 86130000 		.4byte	0x1386
 3863 0658 14       		.uleb128 0x14
 3864 0659 2E000000 		.4byte	.LVL65
 3865 065d 86130000 		.4byte	0x1386
 3866 0661 00       		.byte	0
 3867 0662 16       		.uleb128 0x16
 3868 0663 9A030000 		.4byte	.LASF74
 3869 0667 01       		.byte	0x1
 3870 0668 4D02     		.2byte	0x24d
 3871 066a 00000000 		.4byte	.LFB132
 3872 066e 2C000000 		.4byte	.LFE132-.LFB132
 3873 0672 01       		.uleb128 0x1
 3874 0673 9C       		.byte	0x9c
 3875 0674 CE060000 		.4byte	0x6ce
 3876 0678 18       		.uleb128 0x18
ARM GAS  /var/folders/m4/4md61f0s1_g0rzfghffqnxvr0000gn/T//ccmqP2UT.s 			page 69


 3877 0679 5F020000 		.4byte	.LASF65
 3878 067d 01       		.byte	0x1
 3879 067e 4D02     		.2byte	0x24d
 3880 0680 51020000 		.4byte	0x251
 3881 0684 8C030000 		.4byte	.LLST17
 3882 0688 12       		.uleb128 0x12
 3883 0689 24050000 		.4byte	.LASF62
 3884 068d 01       		.byte	0x1
 3885 068e F0       		.byte	0xf0
 3886 068f 89000000 		.4byte	0x89
 3887 0693 99060000 		.4byte	0x699
 3888 0697 13       		.uleb128 0x13
 3889 0698 00       		.byte	0
 3890 0699 1A       		.uleb128 0x1a
 3891 069a 10000000 		.4byte	.LVL73
 3892 069e 86130000 		.4byte	0x1386
 3893 06a2 0E       		.uleb128 0xe
 3894 06a3 01       		.uleb128 0x1
 3895 06a4 50       		.byte	0x50
 3896 06a5 26       		.uleb128 0x26
 3897 06a6 31       		.byte	0x31
 3898 06a7 30       		.byte	0x30
 3899 06a8 74       		.byte	0x74
 3900 06a9 00       		.sleb128 0
 3901 06aa 74       		.byte	0x74
 3902 06ab 00       		.sleb128 0
 3903 06ac 40       		.byte	0x40
 3904 06ad 4B       		.byte	0x4b
 3905 06ae 24       		.byte	0x24
 3906 06af 22       		.byte	0x22
 3907 06b0 0C       		.byte	0xc
 3908 06b1 01000080 		.4byte	0x80000001
 3909 06b5 2B       		.byte	0x2b
 3910 06b6 28       		.byte	0x28
 3911 06b7 0100     		.2byte	0x1
 3912 06b9 16       		.byte	0x16
 3913 06ba 13       		.byte	0x13
 3914 06bb 74       		.byte	0x74
 3915 06bc 00       		.sleb128 0
 3916 06bd 40       		.byte	0x40
 3917 06be 4B       		.byte	0x4b
 3918 06bf 24       		.byte	0x24
 3919 06c0 22       		.byte	0x22
 3920 06c1 0C       		.byte	0xc
 3921 06c2 01000080 		.4byte	0x80000001
 3922 06c6 2C       		.byte	0x2c
 3923 06c7 28       		.byte	0x28
 3924 06c8 0100     		.2byte	0x1
 3925 06ca 16       		.byte	0x16
 3926 06cb 13       		.byte	0x13
 3927 06cc 00       		.byte	0
 3928 06cd 00       		.byte	0
 3929 06ce 16       		.uleb128 0x16
 3930 06cf 0F000000 		.4byte	.LASF75
 3931 06d3 01       		.byte	0x1
 3932 06d4 6702     		.2byte	0x267
 3933 06d6 00000000 		.4byte	.LFB133
ARM GAS  /var/folders/m4/4md61f0s1_g0rzfghffqnxvr0000gn/T//ccmqP2UT.s 			page 70


 3934 06da 2C000000 		.4byte	.LFE133-.LFB133
 3935 06de 01       		.uleb128 0x1
 3936 06df 9C       		.byte	0x9c
 3937 06e0 3A070000 		.4byte	0x73a
 3938 06e4 18       		.uleb128 0x18
 3939 06e5 5F020000 		.4byte	.LASF65
 3940 06e9 01       		.byte	0x1
 3941 06ea 6702     		.2byte	0x267
 3942 06ec 51020000 		.4byte	0x251
 3943 06f0 AD030000 		.4byte	.LLST18
 3944 06f4 12       		.uleb128 0x12
 3945 06f5 24050000 		.4byte	.LASF62
 3946 06f9 01       		.byte	0x1
 3947 06fa F0       		.byte	0xf0
 3948 06fb 89000000 		.4byte	0x89
 3949 06ff 05070000 		.4byte	0x705
 3950 0703 13       		.uleb128 0x13
 3951 0704 00       		.byte	0
 3952 0705 1A       		.uleb128 0x1a
 3953 0706 10000000 		.4byte	.LVL76
 3954 070a 86130000 		.4byte	0x1386
 3955 070e 0E       		.uleb128 0xe
 3956 070f 01       		.uleb128 0x1
 3957 0710 50       		.byte	0x50
 3958 0711 26       		.uleb128 0x26
 3959 0712 31       		.byte	0x31
 3960 0713 30       		.byte	0x30
 3961 0714 74       		.byte	0x74
 3962 0715 00       		.sleb128 0
 3963 0716 74       		.byte	0x74
 3964 0717 00       		.sleb128 0
 3965 0718 40       		.byte	0x40
 3966 0719 4B       		.byte	0x4b
 3967 071a 24       		.byte	0x24
 3968 071b 22       		.byte	0x22
 3969 071c 0C       		.byte	0xc
 3970 071d 01000080 		.4byte	0x80000001
 3971 0721 2B       		.byte	0x2b
 3972 0722 28       		.byte	0x28
 3973 0723 0100     		.2byte	0x1
 3974 0725 16       		.byte	0x16
 3975 0726 13       		.byte	0x13
 3976 0727 74       		.byte	0x74
 3977 0728 00       		.sleb128 0
 3978 0729 40       		.byte	0x40
 3979 072a 4B       		.byte	0x4b
 3980 072b 24       		.byte	0x24
 3981 072c 22       		.byte	0x22
 3982 072d 0C       		.byte	0xc
 3983 072e 01000080 		.4byte	0x80000001
 3984 0732 2C       		.byte	0x2c
 3985 0733 28       		.byte	0x28
 3986 0734 0100     		.2byte	0x1
 3987 0736 16       		.byte	0x16
 3988 0737 13       		.byte	0x13
 3989 0738 00       		.byte	0
 3990 0739 00       		.byte	0
ARM GAS  /var/folders/m4/4md61f0s1_g0rzfghffqnxvr0000gn/T//ccmqP2UT.s 			page 71


 3991 073a 16       		.uleb128 0x16
 3992 073b A7080000 		.4byte	.LASF76
 3993 073f 01       		.byte	0x1
 3994 0740 CB02     		.2byte	0x2cb
 3995 0742 00000000 		.4byte	.LFB134
 3996 0746 F8000000 		.4byte	.LFE134-.LFB134
 3997 074a 01       		.uleb128 0x1
 3998 074b 9C       		.byte	0x9c
 3999 074c 1E080000 		.4byte	0x81e
 4000 0750 18       		.uleb128 0x18
 4001 0751 95030000 		.4byte	.LASF55
 4002 0755 01       		.byte	0x1
 4003 0756 CB02     		.2byte	0x2cb
 4004 0758 F9030000 		.4byte	0x3f9
 4005 075c CE030000 		.4byte	.LLST19
 4006 0760 18       		.uleb128 0x18
 4007 0761 DD050000 		.4byte	.LASF73
 4008 0765 01       		.byte	0x1
 4009 0766 CB02     		.2byte	0x2cb
 4010 0768 97000000 		.4byte	0x97
 4011 076c 02040000 		.4byte	.LLST20
 4012 0770 18       		.uleb128 0x18
 4013 0771 AD040000 		.4byte	.LASF77
 4014 0775 01       		.byte	0x1
 4015 0776 CB02     		.2byte	0x2cb
 4016 0778 97000000 		.4byte	0x97
 4017 077c 2E040000 		.4byte	.LLST21
 4018 0780 18       		.uleb128 0x18
 4019 0781 00000000 		.4byte	.LASF78
 4020 0785 01       		.byte	0x1
 4021 0786 CB02     		.2byte	0x2cb
 4022 0788 97000000 		.4byte	0x97
 4023 078c 5A040000 		.4byte	.LLST22
 4024 0790 19       		.uleb128 0x19
 4025 0791 11070000 		.4byte	.LASF57
 4026 0795 01       		.byte	0x1
 4027 0796 CD02     		.2byte	0x2cd
 4028 0798 B8000000 		.4byte	0xb8
 4029 079c 7B040000 		.4byte	.LLST23
 4030 07a0 19       		.uleb128 0x19
 4031 07a1 19070000 		.4byte	.LASF58
 4032 07a5 01       		.byte	0x1
 4033 07a6 CD02     		.2byte	0x2cd
 4034 07a8 B8000000 		.4byte	0xb8
 4035 07ac 20050000 		.4byte	.LLST24
 4036 07b0 12       		.uleb128 0x12
 4037 07b1 24050000 		.4byte	.LASF62
 4038 07b5 01       		.byte	0x1
 4039 07b6 F0       		.byte	0xf0
 4040 07b7 89000000 		.4byte	0x89
 4041 07bb C1070000 		.4byte	0x7c1
 4042 07bf 13       		.uleb128 0x13
 4043 07c0 00       		.byte	0
 4044 07c1 14       		.uleb128 0x14
 4045 07c2 26000000 		.4byte	.LVL80
 4046 07c6 86130000 		.4byte	0x1386
 4047 07ca 14       		.uleb128 0x14
ARM GAS  /var/folders/m4/4md61f0s1_g0rzfghffqnxvr0000gn/T//ccmqP2UT.s 			page 72


 4048 07cb 34000000 		.4byte	.LVL81
 4049 07cf 86130000 		.4byte	0x1386
 4050 07d3 0D       		.uleb128 0xd
 4051 07d4 42000000 		.4byte	.LVL82
 4052 07d8 86130000 		.4byte	0x1386
 4053 07dc 14080000 		.4byte	0x814
 4054 07e0 0E       		.uleb128 0xe
 4055 07e1 01       		.uleb128 0x1
 4056 07e2 50       		.byte	0x50
 4057 07e3 2F       		.uleb128 0x2f
 4058 07e4 31       		.byte	0x31
 4059 07e5 30       		.byte	0x30
 4060 07e6 77       		.byte	0x77
 4061 07e7 00       		.sleb128 0
 4062 07e8 08       		.byte	0x8
 4063 07e9 FF       		.byte	0xff
 4064 07ea 1A       		.byte	0x1a
 4065 07eb 77       		.byte	0x77
 4066 07ec 00       		.sleb128 0
 4067 07ed 08       		.byte	0x8
 4068 07ee FF       		.byte	0xff
 4069 07ef 1A       		.byte	0x1a
 4070 07f0 40       		.byte	0x40
 4071 07f1 4B       		.byte	0x4b
 4072 07f2 24       		.byte	0x24
 4073 07f3 22       		.byte	0x22
 4074 07f4 0C       		.byte	0xc
 4075 07f5 0F000080 		.4byte	0x8000000f
 4076 07f9 2B       		.byte	0x2b
 4077 07fa 28       		.byte	0x28
 4078 07fb 0100     		.2byte	0x1
 4079 07fd 16       		.byte	0x16
 4080 07fe 13       		.byte	0x13
 4081 07ff 77       		.byte	0x77
 4082 0800 00       		.sleb128 0
 4083 0801 08       		.byte	0x8
 4084 0802 FF       		.byte	0xff
 4085 0803 1A       		.byte	0x1a
 4086 0804 40       		.byte	0x40
 4087 0805 4B       		.byte	0x4b
 4088 0806 24       		.byte	0x24
 4089 0807 22       		.byte	0x22
 4090 0808 0C       		.byte	0xc
 4091 0809 0F000080 		.4byte	0x8000000f
 4092 080d 2C       		.byte	0x2c
 4093 080e 28       		.byte	0x28
 4094 080f 0100     		.2byte	0x1
 4095 0811 16       		.byte	0x16
 4096 0812 13       		.byte	0x13
 4097 0813 00       		.byte	0
 4098 0814 14       		.uleb128 0x14
 4099 0815 50000000 		.4byte	.LVL83
 4100 0819 86130000 		.4byte	0x1386
 4101 081d 00       		.byte	0
 4102 081e 16       		.uleb128 0x16
 4103 081f 97040000 		.4byte	.LASF79
 4104 0823 01       		.byte	0x1
ARM GAS  /var/folders/m4/4md61f0s1_g0rzfghffqnxvr0000gn/T//ccmqP2UT.s 			page 73


 4105 0824 4303     		.2byte	0x343
 4106 0826 00000000 		.4byte	.LFB135
 4107 082a 38000000 		.4byte	.LFE135-.LFB135
 4108 082e 01       		.uleb128 0x1
 4109 082f 9C       		.byte	0x9c
 4110 0830 5F080000 		.4byte	0x85f
 4111 0834 18       		.uleb128 0x18
 4112 0835 95030000 		.4byte	.LASF55
 4113 0839 01       		.byte	0x1
 4114 083a 4303     		.2byte	0x343
 4115 083c F9030000 		.4byte	0x3f9
 4116 0840 CE050000 		.4byte	.LLST25
 4117 0844 12       		.uleb128 0x12
 4118 0845 24050000 		.4byte	.LASF62
 4119 0849 01       		.byte	0x1
 4120 084a F0       		.byte	0xf0
 4121 084b 89000000 		.4byte	0x89
 4122 084f 55080000 		.4byte	0x855
 4123 0853 13       		.uleb128 0x13
 4124 0854 00       		.byte	0
 4125 0855 14       		.uleb128 0x14
 4126 0856 20000000 		.4byte	.LVL110
 4127 085a 86130000 		.4byte	0x1386
 4128 085e 00       		.byte	0
 4129 085f 1B       		.uleb128 0x1b
 4130 0860 68040000 		.4byte	.LASF86
 4131 0864 01       		.byte	0x1
 4132 0865 5103     		.2byte	0x351
 4133 0867 22020000 		.4byte	0x222
 4134 086b 00000000 		.4byte	.LFB136
 4135 086f 40000000 		.4byte	.LFE136-.LFB136
 4136 0873 01       		.uleb128 0x1
 4137 0874 9C       		.byte	0x9c
 4138 0875 D4080000 		.4byte	0x8d4
 4139 0879 18       		.uleb128 0x18
 4140 087a 95030000 		.4byte	.LASF55
 4141 087e 01       		.byte	0x1
 4142 087f 5103     		.2byte	0x351
 4143 0881 F9030000 		.4byte	0x3f9
 4144 0885 02060000 		.4byte	.LLST26
 4145 0889 19       		.uleb128 0x19
 4146 088a 96080000 		.4byte	.LASF80
 4147 088e 01       		.byte	0x1
 4148 088f 5303     		.2byte	0x353
 4149 0891 22020000 		.4byte	0x222
 4150 0895 44060000 		.4byte	.LLST27
 4151 0899 12       		.uleb128 0x12
 4152 089a 24050000 		.4byte	.LASF62
 4153 089e 01       		.byte	0x1
 4154 089f F0       		.byte	0xf0
 4155 08a0 89000000 		.4byte	0x89
 4156 08a4 AA080000 		.4byte	0x8aa
 4157 08a8 13       		.uleb128 0x13
 4158 08a9 00       		.byte	0
 4159 08aa 0D       		.uleb128 0xd
 4160 08ab 20000000 		.4byte	.LVL115
 4161 08af 86130000 		.4byte	0x1386
ARM GAS  /var/folders/m4/4md61f0s1_g0rzfghffqnxvr0000gn/T//ccmqP2UT.s 			page 74


 4162 08b3 C4080000 		.4byte	0x8c4
 4163 08b7 0E       		.uleb128 0xe
 4164 08b8 01       		.uleb128 0x1
 4165 08b9 50       		.byte	0x50
 4166 08ba 08       		.uleb128 0x8
 4167 08bb 74       		.byte	0x74
 4168 08bc 00       		.sleb128 0
 4169 08bd 0C       		.byte	0xc
 4170 08be 00220140 		.4byte	0x40012200
 4171 08c2 29       		.byte	0x29
 4172 08c3 00       		.byte	0
 4173 08c4 1A       		.uleb128 0x1a
 4174 08c5 2E000000 		.4byte	.LVL120
 4175 08c9 86130000 		.4byte	0x1386
 4176 08cd 0E       		.uleb128 0xe
 4177 08ce 01       		.uleb128 0x1
 4178 08cf 50       		.byte	0x50
 4179 08d0 01       		.uleb128 0x1
 4180 08d1 31       		.byte	0x31
 4181 08d2 00       		.byte	0
 4182 08d3 00       		.byte	0
 4183 08d4 16       		.uleb128 0x16
 4184 08d5 B7070000 		.4byte	.LASF81
 4185 08d9 01       		.byte	0x1
 4186 08da 6F03     		.2byte	0x36f
 4187 08dc 00000000 		.4byte	.LFB137
 4188 08e0 50000000 		.4byte	.LFE137-.LFB137
 4189 08e4 01       		.uleb128 0x1
 4190 08e5 9C       		.byte	0x9c
 4191 08e6 2E090000 		.4byte	0x92e
 4192 08ea 18       		.uleb128 0x18
 4193 08eb 95030000 		.4byte	.LASF55
 4194 08ef 01       		.byte	0x1
 4195 08f0 6F03     		.2byte	0x36f
 4196 08f2 F9030000 		.4byte	0x3f9
 4197 08f6 8A060000 		.4byte	.LLST28
 4198 08fa 18       		.uleb128 0x18
 4199 08fb 5F020000 		.4byte	.LASF65
 4200 08ff 01       		.byte	0x1
 4201 0900 6F03     		.2byte	0x36f
 4202 0902 51020000 		.4byte	0x251
 4203 0906 BE060000 		.4byte	.LLST29
 4204 090a 12       		.uleb128 0x12
 4205 090b 24050000 		.4byte	.LASF62
 4206 090f 01       		.byte	0x1
 4207 0910 F0       		.byte	0xf0
 4208 0911 89000000 		.4byte	0x89
 4209 0915 1B090000 		.4byte	0x91b
 4210 0919 13       		.uleb128 0x13
 4211 091a 00       		.byte	0
 4212 091b 14       		.uleb128 0x14
 4213 091c 22000000 		.4byte	.LVL126
 4214 0920 86130000 		.4byte	0x1386
 4215 0924 14       		.uleb128 0x14
 4216 0925 2E000000 		.4byte	.LVL127
 4217 0929 86130000 		.4byte	0x1386
 4218 092d 00       		.byte	0
ARM GAS  /var/folders/m4/4md61f0s1_g0rzfghffqnxvr0000gn/T//ccmqP2UT.s 			page 75


 4219 092e 16       		.uleb128 0x16
 4220 092f 5D070000 		.4byte	.LASF82
 4221 0933 01       		.byte	0x1
 4222 0934 8803     		.2byte	0x388
 4223 0936 00000000 		.4byte	.LFB138
 4224 093a 50000000 		.4byte	.LFE138-.LFB138
 4225 093e 01       		.uleb128 0x1
 4226 093f 9C       		.byte	0x9c
 4227 0940 88090000 		.4byte	0x988
 4228 0944 18       		.uleb128 0x18
 4229 0945 95030000 		.4byte	.LASF55
 4230 0949 01       		.byte	0x1
 4231 094a 8803     		.2byte	0x388
 4232 094c F9030000 		.4byte	0x3f9
 4233 0950 EA060000 		.4byte	.LLST30
 4234 0954 18       		.uleb128 0x18
 4235 0955 5F020000 		.4byte	.LASF65
 4236 0959 01       		.byte	0x1
 4237 095a 8803     		.2byte	0x388
 4238 095c 51020000 		.4byte	0x251
 4239 0960 1E070000 		.4byte	.LLST31
 4240 0964 12       		.uleb128 0x12
 4241 0965 24050000 		.4byte	.LASF62
 4242 0969 01       		.byte	0x1
 4243 096a F0       		.byte	0xf0
 4244 096b 89000000 		.4byte	0x89
 4245 096f 75090000 		.4byte	0x975
 4246 0973 13       		.uleb128 0x13
 4247 0974 00       		.byte	0
 4248 0975 14       		.uleb128 0x14
 4249 0976 22000000 		.4byte	.LVL133
 4250 097a 86130000 		.4byte	0x1386
 4251 097e 14       		.uleb128 0x14
 4252 097f 2E000000 		.4byte	.LVL134
 4253 0983 86130000 		.4byte	0x1386
 4254 0987 00       		.byte	0
 4255 0988 16       		.uleb128 0x16
 4256 0989 6F050000 		.4byte	.LASF83
 4257 098d 01       		.byte	0x1
 4258 098e A203     		.2byte	0x3a2
 4259 0990 00000000 		.4byte	.LFB139
 4260 0994 4C000000 		.4byte	.LFE139-.LFB139
 4261 0998 01       		.uleb128 0x1
 4262 0999 9C       		.byte	0x9c
 4263 099a 360A0000 		.4byte	0xa36
 4264 099e 18       		.uleb128 0x18
 4265 099f 95030000 		.4byte	.LASF55
 4266 09a3 01       		.byte	0x1
 4267 09a4 A203     		.2byte	0x3a2
 4268 09a6 F9030000 		.4byte	0x3f9
 4269 09aa 4A070000 		.4byte	.LLST32
 4270 09ae 18       		.uleb128 0x18
 4271 09af 58020000 		.4byte	.LASF84
 4272 09b3 01       		.byte	0x1
 4273 09b4 A203     		.2byte	0x3a2
 4274 09b6 97000000 		.4byte	0x97
 4275 09ba 7E070000 		.4byte	.LLST33
ARM GAS  /var/folders/m4/4md61f0s1_g0rzfghffqnxvr0000gn/T//ccmqP2UT.s 			page 76


 4276 09be 19       		.uleb128 0x19
 4277 09bf 11070000 		.4byte	.LASF57
 4278 09c3 01       		.byte	0x1
 4279 09c4 A403     		.2byte	0x3a4
 4280 09c6 B8000000 		.4byte	0xb8
 4281 09ca AA070000 		.4byte	.LLST34
 4282 09ce 19       		.uleb128 0x19
 4283 09cf 19070000 		.4byte	.LASF58
 4284 09d3 01       		.byte	0x1
 4285 09d4 A503     		.2byte	0x3a5
 4286 09d6 B8000000 		.4byte	0xb8
 4287 09da D5070000 		.4byte	.LLST35
 4288 09de 12       		.uleb128 0x12
 4289 09df 24050000 		.4byte	.LASF62
 4290 09e3 01       		.byte	0x1
 4291 09e4 F0       		.byte	0xf0
 4292 09e5 89000000 		.4byte	0x89
 4293 09e9 EF090000 		.4byte	0x9ef
 4294 09ed 13       		.uleb128 0x13
 4295 09ee 00       		.byte	0
 4296 09ef 14       		.uleb128 0x14
 4297 09f0 22000000 		.4byte	.LVL140
 4298 09f4 86130000 		.4byte	0x1386
 4299 09f8 1A       		.uleb128 0x1a
 4300 09f9 30000000 		.4byte	.LVL141
 4301 09fd 86130000 		.4byte	0x1386
 4302 0a01 0E       		.uleb128 0xe
 4303 0a02 01       		.uleb128 0x1
 4304 0a03 50       		.byte	0x50
 4305 0a04 2F       		.uleb128 0x2f
 4306 0a05 31       		.byte	0x31
 4307 0a06 30       		.byte	0x30
 4308 0a07 75       		.byte	0x75
 4309 0a08 00       		.sleb128 0
 4310 0a09 08       		.byte	0x8
 4311 0a0a FF       		.byte	0xff
 4312 0a0b 1A       		.byte	0x1a
 4313 0a0c 75       		.byte	0x75
 4314 0a0d 00       		.sleb128 0
 4315 0a0e 08       		.byte	0x8
 4316 0a0f FF       		.byte	0xff
 4317 0a10 1A       		.byte	0x1a
 4318 0a11 40       		.byte	0x40
 4319 0a12 4B       		.byte	0x4b
 4320 0a13 24       		.byte	0x24
 4321 0a14 22       		.byte	0x22
 4322 0a15 0C       		.byte	0xc
 4323 0a16 07000080 		.4byte	0x80000007
 4324 0a1a 2B       		.byte	0x2b
 4325 0a1b 28       		.byte	0x28
 4326 0a1c 0100     		.2byte	0x1
 4327 0a1e 16       		.byte	0x16
 4328 0a1f 13       		.byte	0x13
 4329 0a20 75       		.byte	0x75
 4330 0a21 00       		.sleb128 0
 4331 0a22 08       		.byte	0x8
 4332 0a23 FF       		.byte	0xff
ARM GAS  /var/folders/m4/4md61f0s1_g0rzfghffqnxvr0000gn/T//ccmqP2UT.s 			page 77


 4333 0a24 1A       		.byte	0x1a
 4334 0a25 40       		.byte	0x40
 4335 0a26 4B       		.byte	0x4b
 4336 0a27 24       		.byte	0x24
 4337 0a28 22       		.byte	0x22
 4338 0a29 0C       		.byte	0xc
 4339 0a2a 07000080 		.4byte	0x80000007
 4340 0a2e 2C       		.byte	0x2c
 4341 0a2f 28       		.byte	0x28
 4342 0a30 0100     		.2byte	0x1
 4343 0a32 16       		.byte	0x16
 4344 0a33 13       		.byte	0x13
 4345 0a34 00       		.byte	0
 4346 0a35 00       		.byte	0
 4347 0a36 16       		.uleb128 0x16
 4348 0a37 3A080000 		.4byte	.LASF85
 4349 0a3b 01       		.byte	0x1
 4350 0a3c C203     		.2byte	0x3c2
 4351 0a3e 00000000 		.4byte	.LFB140
 4352 0a42 50000000 		.4byte	.LFE140-.LFB140
 4353 0a46 01       		.uleb128 0x1
 4354 0a47 9C       		.byte	0x9c
 4355 0a48 900A0000 		.4byte	0xa90
 4356 0a4c 18       		.uleb128 0x18
 4357 0a4d 95030000 		.4byte	.LASF55
 4358 0a51 01       		.byte	0x1
 4359 0a52 C203     		.2byte	0x3c2
 4360 0a54 F9030000 		.4byte	0x3f9
 4361 0a58 07080000 		.4byte	.LLST36
 4362 0a5c 18       		.uleb128 0x18
 4363 0a5d 5F020000 		.4byte	.LASF65
 4364 0a61 01       		.byte	0x1
 4365 0a62 C203     		.2byte	0x3c2
 4366 0a64 51020000 		.4byte	0x251
 4367 0a68 3B080000 		.4byte	.LLST37
 4368 0a6c 12       		.uleb128 0x12
 4369 0a6d 24050000 		.4byte	.LASF62
 4370 0a71 01       		.byte	0x1
 4371 0a72 F0       		.byte	0xf0
 4372 0a73 89000000 		.4byte	0x89
 4373 0a77 7D0A0000 		.4byte	0xa7d
 4374 0a7b 13       		.uleb128 0x13
 4375 0a7c 00       		.byte	0
 4376 0a7d 14       		.uleb128 0x14
 4377 0a7e 22000000 		.4byte	.LVL149
 4378 0a82 86130000 		.4byte	0x1386
 4379 0a86 14       		.uleb128 0x14
 4380 0a87 2E000000 		.4byte	.LVL150
 4381 0a8b 86130000 		.4byte	0x1386
 4382 0a8f 00       		.byte	0
 4383 0a90 1B       		.uleb128 0x1b
 4384 0a91 C0080000 		.4byte	.LASF87
 4385 0a95 01       		.byte	0x1
 4386 0a96 D903     		.2byte	0x3d9
 4387 0a98 A2000000 		.4byte	0xa2
 4388 0a9c 00000000 		.4byte	.LFB141
 4389 0aa0 3C000000 		.4byte	.LFE141-.LFB141
ARM GAS  /var/folders/m4/4md61f0s1_g0rzfghffqnxvr0000gn/T//ccmqP2UT.s 			page 78


 4390 0aa4 01       		.uleb128 0x1
 4391 0aa5 9C       		.byte	0x9c
 4392 0aa6 F50A0000 		.4byte	0xaf5
 4393 0aaa 18       		.uleb128 0x18
 4394 0aab 95030000 		.4byte	.LASF55
 4395 0aaf 01       		.byte	0x1
 4396 0ab0 D903     		.2byte	0x3d9
 4397 0ab2 F9030000 		.4byte	0x3f9
 4398 0ab6 67080000 		.4byte	.LLST38
 4399 0aba 12       		.uleb128 0x12
 4400 0abb 24050000 		.4byte	.LASF62
 4401 0abf 01       		.byte	0x1
 4402 0ac0 F0       		.byte	0xf0
 4403 0ac1 89000000 		.4byte	0x89
 4404 0ac5 CB0A0000 		.4byte	0xacb
 4405 0ac9 13       		.uleb128 0x13
 4406 0aca 00       		.byte	0
 4407 0acb 0D       		.uleb128 0xd
 4408 0acc 20000000 		.4byte	.LVL156
 4409 0ad0 86130000 		.4byte	0x1386
 4410 0ad4 E50A0000 		.4byte	0xae5
 4411 0ad8 0E       		.uleb128 0xe
 4412 0ad9 01       		.uleb128 0x1
 4413 0ada 50       		.byte	0x50
 4414 0adb 08       		.uleb128 0x8
 4415 0adc 74       		.byte	0x74
 4416 0add 00       		.sleb128 0
 4417 0ade 0C       		.byte	0xc
 4418 0adf 00220140 		.4byte	0x40012200
 4419 0ae3 29       		.byte	0x29
 4420 0ae4 00       		.byte	0
 4421 0ae5 1A       		.uleb128 0x1a
 4422 0ae6 2C000000 		.4byte	.LVL159
 4423 0aea 86130000 		.4byte	0x1386
 4424 0aee 0E       		.uleb128 0xe
 4425 0aef 01       		.uleb128 0x1
 4426 0af0 50       		.byte	0x50
 4427 0af1 01       		.uleb128 0x1
 4428 0af2 31       		.byte	0x31
 4429 0af3 00       		.byte	0
 4430 0af4 00       		.byte	0
 4431 0af5 1C       		.uleb128 0x1c
 4432 0af6 B3030000 		.4byte	.LASF120
 4433 0afa 01       		.byte	0x1
 4434 0afb EE03     		.2byte	0x3ee
 4435 0afd B8000000 		.4byte	0xb8
 4436 0b01 00000000 		.4byte	.LFB142
 4437 0b05 0C000000 		.4byte	.LFE142-.LFB142
 4438 0b09 01       		.uleb128 0x1
 4439 0b0a 9C       		.byte	0x9c
 4440 0b0b 16       		.uleb128 0x16
 4441 0b0c EA000000 		.4byte	.LASF88
 4442 0b10 01       		.byte	0x1
 4443 0b11 1C04     		.2byte	0x41c
 4444 0b13 00000000 		.4byte	.LFB143
 4445 0b17 50000000 		.4byte	.LFE143-.LFB143
 4446 0b1b 01       		.uleb128 0x1
ARM GAS  /var/folders/m4/4md61f0s1_g0rzfghffqnxvr0000gn/T//ccmqP2UT.s 			page 79


 4447 0b1c 9C       		.byte	0x9c
 4448 0b1d 650B0000 		.4byte	0xb65
 4449 0b21 18       		.uleb128 0x18
 4450 0b22 95030000 		.4byte	.LASF55
 4451 0b26 01       		.byte	0x1
 4452 0b27 1C04     		.2byte	0x41c
 4453 0b29 F9030000 		.4byte	0x3f9
 4454 0b2d A9080000 		.4byte	.LLST39
 4455 0b31 18       		.uleb128 0x18
 4456 0b32 5F020000 		.4byte	.LASF65
 4457 0b36 01       		.byte	0x1
 4458 0b37 1C04     		.2byte	0x41c
 4459 0b39 51020000 		.4byte	0x251
 4460 0b3d DD080000 		.4byte	.LLST40
 4461 0b41 12       		.uleb128 0x12
 4462 0b42 24050000 		.4byte	.LASF62
 4463 0b46 01       		.byte	0x1
 4464 0b47 F0       		.byte	0xf0
 4465 0b48 89000000 		.4byte	0x89
 4466 0b4c 520B0000 		.4byte	0xb52
 4467 0b50 13       		.uleb128 0x13
 4468 0b51 00       		.byte	0
 4469 0b52 14       		.uleb128 0x14
 4470 0b53 22000000 		.4byte	.LVL163
 4471 0b57 86130000 		.4byte	0x1386
 4472 0b5b 14       		.uleb128 0x14
 4473 0b5c 2E000000 		.4byte	.LVL164
 4474 0b60 86130000 		.4byte	0x1386
 4475 0b64 00       		.byte	0
 4476 0b65 16       		.uleb128 0x16
 4477 0b66 04020000 		.4byte	.LASF89
 4478 0b6a 01       		.byte	0x1
 4479 0b6b 3404     		.2byte	0x434
 4480 0b6d 00000000 		.4byte	.LFB144
 4481 0b71 50000000 		.4byte	.LFE144-.LFB144
 4482 0b75 01       		.uleb128 0x1
 4483 0b76 9C       		.byte	0x9c
 4484 0b77 BF0B0000 		.4byte	0xbbf
 4485 0b7b 18       		.uleb128 0x18
 4486 0b7c 95030000 		.4byte	.LASF55
 4487 0b80 01       		.byte	0x1
 4488 0b81 3404     		.2byte	0x434
 4489 0b83 F9030000 		.4byte	0x3f9
 4490 0b87 09090000 		.4byte	.LLST41
 4491 0b8b 18       		.uleb128 0x18
 4492 0b8c 5F020000 		.4byte	.LASF65
 4493 0b90 01       		.byte	0x1
 4494 0b91 3404     		.2byte	0x434
 4495 0b93 51020000 		.4byte	0x251
 4496 0b97 3D090000 		.4byte	.LLST42
 4497 0b9b 12       		.uleb128 0x12
 4498 0b9c 24050000 		.4byte	.LASF62
 4499 0ba0 01       		.byte	0x1
 4500 0ba1 F0       		.byte	0xf0
 4501 0ba2 89000000 		.4byte	0x89
 4502 0ba6 AC0B0000 		.4byte	0xbac
 4503 0baa 13       		.uleb128 0x13
ARM GAS  /var/folders/m4/4md61f0s1_g0rzfghffqnxvr0000gn/T//ccmqP2UT.s 			page 80


 4504 0bab 00       		.byte	0
 4505 0bac 14       		.uleb128 0x14
 4506 0bad 22000000 		.4byte	.LVL170
 4507 0bb1 86130000 		.4byte	0x1386
 4508 0bb5 14       		.uleb128 0x14
 4509 0bb6 2E000000 		.4byte	.LVL171
 4510 0bba 86130000 		.4byte	0x1386
 4511 0bbe 00       		.byte	0
 4512 0bbf 16       		.uleb128 0x16
 4513 0bc0 0E080000 		.4byte	.LASF90
 4514 0bc4 01       		.byte	0x1
 4515 0bc5 4F04     		.2byte	0x44f
 4516 0bc7 00000000 		.4byte	.LFB145
 4517 0bcb 2C000000 		.4byte	.LFE145-.LFB145
 4518 0bcf 01       		.uleb128 0x1
 4519 0bd0 9C       		.byte	0x9c
 4520 0bd1 2B0C0000 		.4byte	0xc2b
 4521 0bd5 18       		.uleb128 0x18
 4522 0bd6 5F020000 		.4byte	.LASF65
 4523 0bda 01       		.byte	0x1
 4524 0bdb 4F04     		.2byte	0x44f
 4525 0bdd 51020000 		.4byte	0x251
 4526 0be1 69090000 		.4byte	.LLST43
 4527 0be5 12       		.uleb128 0x12
 4528 0be6 24050000 		.4byte	.LASF62
 4529 0bea 01       		.byte	0x1
 4530 0beb F0       		.byte	0xf0
 4531 0bec 89000000 		.4byte	0x89
 4532 0bf0 F60B0000 		.4byte	0xbf6
 4533 0bf4 13       		.uleb128 0x13
 4534 0bf5 00       		.byte	0
 4535 0bf6 1A       		.uleb128 0x1a
 4536 0bf7 10000000 		.4byte	.LVL177
 4537 0bfb 86130000 		.4byte	0x1386
 4538 0bff 0E       		.uleb128 0xe
 4539 0c00 01       		.uleb128 0x1
 4540 0c01 50       		.byte	0x50
 4541 0c02 26       		.uleb128 0x26
 4542 0c03 31       		.byte	0x31
 4543 0c04 30       		.byte	0x30
 4544 0c05 74       		.byte	0x74
 4545 0c06 00       		.sleb128 0
 4546 0c07 74       		.byte	0x74
 4547 0c08 00       		.sleb128 0
 4548 0c09 40       		.byte	0x40
 4549 0c0a 4B       		.byte	0x4b
 4550 0c0b 24       		.byte	0x24
 4551 0c0c 22       		.byte	0x22
 4552 0c0d 0C       		.byte	0xc
 4553 0c0e 01000080 		.4byte	0x80000001
 4554 0c12 2B       		.byte	0x2b
 4555 0c13 28       		.byte	0x28
 4556 0c14 0100     		.2byte	0x1
 4557 0c16 16       		.byte	0x16
 4558 0c17 13       		.byte	0x13
 4559 0c18 74       		.byte	0x74
 4560 0c19 00       		.sleb128 0
ARM GAS  /var/folders/m4/4md61f0s1_g0rzfghffqnxvr0000gn/T//ccmqP2UT.s 			page 81


 4561 0c1a 40       		.byte	0x40
 4562 0c1b 4B       		.byte	0x4b
 4563 0c1c 24       		.byte	0x24
 4564 0c1d 22       		.byte	0x22
 4565 0c1e 0C       		.byte	0xc
 4566 0c1f 01000080 		.4byte	0x80000001
 4567 0c23 2C       		.byte	0x2c
 4568 0c24 28       		.byte	0x28
 4569 0c25 0100     		.2byte	0x1
 4570 0c27 16       		.byte	0x16
 4571 0c28 13       		.byte	0x13
 4572 0c29 00       		.byte	0
 4573 0c2a 00       		.byte	0
 4574 0c2b 16       		.uleb128 0x16
 4575 0c2c D3030000 		.4byte	.LASF91
 4576 0c30 01       		.byte	0x1
 4577 0c31 A604     		.2byte	0x4a6
 4578 0c33 00000000 		.4byte	.LFB146
 4579 0c37 B0000000 		.4byte	.LFE146-.LFB146
 4580 0c3b 01       		.uleb128 0x1
 4581 0c3c 9C       		.byte	0x9c
 4582 0c3d 160D0000 		.4byte	0xd16
 4583 0c41 18       		.uleb128 0x18
 4584 0c42 95030000 		.4byte	.LASF55
 4585 0c46 01       		.byte	0x1
 4586 0c47 A604     		.2byte	0x4a6
 4587 0c49 F9030000 		.4byte	0x3f9
 4588 0c4d 8A090000 		.4byte	.LLST44
 4589 0c51 18       		.uleb128 0x18
 4590 0c52 DD050000 		.4byte	.LASF73
 4591 0c56 01       		.byte	0x1
 4592 0c57 A604     		.2byte	0x4a6
 4593 0c59 97000000 		.4byte	0x97
 4594 0c5d BE090000 		.4byte	.LLST45
 4595 0c61 18       		.uleb128 0x18
 4596 0c62 AD040000 		.4byte	.LASF77
 4597 0c66 01       		.byte	0x1
 4598 0c67 A604     		.2byte	0x4a6
 4599 0c69 97000000 		.4byte	0x97
 4600 0c6d EA090000 		.4byte	.LLST46
 4601 0c71 18       		.uleb128 0x18
 4602 0c72 00000000 		.4byte	.LASF78
 4603 0c76 01       		.byte	0x1
 4604 0c77 A604     		.2byte	0x4a6
 4605 0c79 97000000 		.4byte	0x97
 4606 0c7d 160A0000 		.4byte	.LLST47
 4607 0c81 19       		.uleb128 0x19
 4608 0c82 11070000 		.4byte	.LASF57
 4609 0c86 01       		.byte	0x1
 4610 0c87 A804     		.2byte	0x4a8
 4611 0c89 B8000000 		.4byte	0xb8
 4612 0c8d 370A0000 		.4byte	.LLST48
 4613 0c91 19       		.uleb128 0x19
 4614 0c92 19070000 		.4byte	.LASF58
 4615 0c96 01       		.byte	0x1
 4616 0c97 A804     		.2byte	0x4a8
 4617 0c99 B8000000 		.4byte	0xb8
ARM GAS  /var/folders/m4/4md61f0s1_g0rzfghffqnxvr0000gn/T//ccmqP2UT.s 			page 82


 4618 0c9d BB0A0000 		.4byte	.LLST49
 4619 0ca1 19       		.uleb128 0x19
 4620 0ca2 21070000 		.4byte	.LASF92
 4621 0ca6 01       		.byte	0x1
 4622 0ca7 A804     		.2byte	0x4a8
 4623 0ca9 B8000000 		.4byte	0xb8
 4624 0cad 480B0000 		.4byte	.LLST50
 4625 0cb1 12       		.uleb128 0x12
 4626 0cb2 24050000 		.4byte	.LASF62
 4627 0cb6 01       		.byte	0x1
 4628 0cb7 F0       		.byte	0xf0
 4629 0cb8 89000000 		.4byte	0x89
 4630 0cbc C20C0000 		.4byte	0xcc2
 4631 0cc0 13       		.uleb128 0x13
 4632 0cc1 00       		.byte	0
 4633 0cc2 14       		.uleb128 0x14
 4634 0cc3 26000000 		.4byte	.LVL181
 4635 0cc7 86130000 		.4byte	0x1386
 4636 0ccb 14       		.uleb128 0x14
 4637 0ccc 32000000 		.4byte	.LVL182
 4638 0cd0 86130000 		.4byte	0x1386
 4639 0cd4 0D       		.uleb128 0xd
 4640 0cd5 40000000 		.4byte	.LVL183
 4641 0cd9 86130000 		.4byte	0x1386
 4642 0cdd 0C0D0000 		.4byte	0xd0c
 4643 0ce1 0E       		.uleb128 0xe
 4644 0ce2 01       		.uleb128 0x1
 4645 0ce3 50       		.byte	0x50
 4646 0ce4 26       		.uleb128 0x26
 4647 0ce5 31       		.byte	0x31
 4648 0ce6 30       		.byte	0x30
 4649 0ce7 74       		.byte	0x74
 4650 0ce8 7F       		.sleb128 -1
 4651 0ce9 74       		.byte	0x74
 4652 0cea 7F       		.sleb128 -1
 4653 0ceb 40       		.byte	0x40
 4654 0cec 4B       		.byte	0x4b
 4655 0ced 24       		.byte	0x24
 4656 0cee 22       		.byte	0x22
 4657 0cef 0C       		.byte	0xc
 4658 0cf0 03000080 		.4byte	0x80000003
 4659 0cf4 2B       		.byte	0x2b
 4660 0cf5 28       		.byte	0x28
 4661 0cf6 0100     		.2byte	0x1
 4662 0cf8 16       		.byte	0x16
 4663 0cf9 13       		.byte	0x13
 4664 0cfa 74       		.byte	0x74
 4665 0cfb 7F       		.sleb128 -1
 4666 0cfc 40       		.byte	0x40
 4667 0cfd 4B       		.byte	0x4b
 4668 0cfe 24       		.byte	0x24
 4669 0cff 22       		.byte	0x22
 4670 0d00 0C       		.byte	0xc
 4671 0d01 03000080 		.4byte	0x80000003
 4672 0d05 2C       		.byte	0x2c
 4673 0d06 28       		.byte	0x28
 4674 0d07 0100     		.2byte	0x1
ARM GAS  /var/folders/m4/4md61f0s1_g0rzfghffqnxvr0000gn/T//ccmqP2UT.s 			page 83


 4675 0d09 16       		.byte	0x16
 4676 0d0a 13       		.byte	0x13
 4677 0d0b 00       		.byte	0
 4678 0d0c 14       		.uleb128 0x14
 4679 0d0d 4C000000 		.4byte	.LVL184
 4680 0d11 86130000 		.4byte	0x1386
 4681 0d15 00       		.byte	0
 4682 0d16 16       		.uleb128 0x16
 4683 0d17 EC070000 		.4byte	.LASF93
 4684 0d1b 01       		.byte	0x1
 4685 0d1c E504     		.2byte	0x4e5
 4686 0d1e 00000000 		.4byte	.LFB147
 4687 0d22 4C000000 		.4byte	.LFE147-.LFB147
 4688 0d26 01       		.uleb128 0x1
 4689 0d27 9C       		.byte	0x9c
 4690 0d28 C40D0000 		.4byte	0xdc4
 4691 0d2c 18       		.uleb128 0x18
 4692 0d2d 95030000 		.4byte	.LASF55
 4693 0d31 01       		.byte	0x1
 4694 0d32 E504     		.2byte	0x4e5
 4695 0d34 F9030000 		.4byte	0x3f9
 4696 0d38 790B0000 		.4byte	.LLST51
 4697 0d3c 18       		.uleb128 0x18
 4698 0d3d FD010000 		.4byte	.LASF94
 4699 0d41 01       		.byte	0x1
 4700 0d42 E504     		.2byte	0x4e5
 4701 0d44 97000000 		.4byte	0x97
 4702 0d48 AD0B0000 		.4byte	.LLST52
 4703 0d4c 19       		.uleb128 0x19
 4704 0d4d 11070000 		.4byte	.LASF57
 4705 0d51 01       		.byte	0x1
 4706 0d52 E704     		.2byte	0x4e7
 4707 0d54 B8000000 		.4byte	0xb8
 4708 0d58 D90B0000 		.4byte	.LLST53
 4709 0d5c 19       		.uleb128 0x19
 4710 0d5d 19070000 		.4byte	.LASF58
 4711 0d61 01       		.byte	0x1
 4712 0d62 E804     		.2byte	0x4e8
 4713 0d64 B8000000 		.4byte	0xb8
 4714 0d68 040C0000 		.4byte	.LLST54
 4715 0d6c 12       		.uleb128 0x12
 4716 0d6d 24050000 		.4byte	.LASF62
 4717 0d71 01       		.byte	0x1
 4718 0d72 F0       		.byte	0xf0
 4719 0d73 89000000 		.4byte	0x89
 4720 0d77 7D0D0000 		.4byte	0xd7d
 4721 0d7b 13       		.uleb128 0x13
 4722 0d7c 00       		.byte	0
 4723 0d7d 14       		.uleb128 0x14
 4724 0d7e 22000000 		.4byte	.LVL204
 4725 0d82 86130000 		.4byte	0x1386
 4726 0d86 1A       		.uleb128 0x1a
 4727 0d87 30000000 		.4byte	.LVL205
 4728 0d8b 86130000 		.4byte	0x1386
 4729 0d8f 0E       		.uleb128 0xe
 4730 0d90 01       		.uleb128 0x1
 4731 0d91 50       		.byte	0x50
ARM GAS  /var/folders/m4/4md61f0s1_g0rzfghffqnxvr0000gn/T//ccmqP2UT.s 			page 84


 4732 0d92 2F       		.uleb128 0x2f
 4733 0d93 31       		.byte	0x31
 4734 0d94 30       		.byte	0x30
 4735 0d95 75       		.byte	0x75
 4736 0d96 00       		.sleb128 0
 4737 0d97 08       		.byte	0x8
 4738 0d98 FF       		.byte	0xff
 4739 0d99 1A       		.byte	0x1a
 4740 0d9a 75       		.byte	0x75
 4741 0d9b 00       		.sleb128 0
 4742 0d9c 08       		.byte	0x8
 4743 0d9d FF       		.byte	0xff
 4744 0d9e 1A       		.byte	0x1a
 4745 0d9f 40       		.byte	0x40
 4746 0da0 4B       		.byte	0x4b
 4747 0da1 24       		.byte	0x24
 4748 0da2 22       		.byte	0x22
 4749 0da3 0C       		.byte	0xc
 4750 0da4 03000080 		.4byte	0x80000003
 4751 0da8 2B       		.byte	0x2b
 4752 0da9 28       		.byte	0x28
 4753 0daa 0100     		.2byte	0x1
 4754 0dac 16       		.byte	0x16
 4755 0dad 13       		.byte	0x13
 4756 0dae 75       		.byte	0x75
 4757 0daf 00       		.sleb128 0
 4758 0db0 08       		.byte	0x8
 4759 0db1 FF       		.byte	0xff
 4760 0db2 1A       		.byte	0x1a
 4761 0db3 40       		.byte	0x40
 4762 0db4 4B       		.byte	0x4b
 4763 0db5 24       		.byte	0x24
 4764 0db6 22       		.byte	0x22
 4765 0db7 0C       		.byte	0xc
 4766 0db8 03000080 		.4byte	0x80000003
 4767 0dbc 2C       		.byte	0x2c
 4768 0dbd 28       		.byte	0x28
 4769 0dbe 0100     		.2byte	0x1
 4770 0dc0 16       		.byte	0x16
 4771 0dc1 13       		.byte	0x13
 4772 0dc2 00       		.byte	0
 4773 0dc3 00       		.byte	0
 4774 0dc4 16       		.uleb128 0x16
 4775 0dc5 AE010000 		.4byte	.LASF95
 4776 0dc9 01       		.byte	0x1
 4777 0dca 0805     		.2byte	0x508
 4778 0dcc 00000000 		.4byte	.LFB148
 4779 0dd0 70000000 		.4byte	.LFE148-.LFB148
 4780 0dd4 01       		.uleb128 0x1
 4781 0dd5 9C       		.byte	0x9c
 4782 0dd6 460E0000 		.4byte	0xe46
 4783 0dda 18       		.uleb128 0x18
 4784 0ddb 95030000 		.4byte	.LASF55
 4785 0ddf 01       		.byte	0x1
 4786 0de0 0805     		.2byte	0x508
 4787 0de2 F9030000 		.4byte	0x3f9
 4788 0de6 360C0000 		.4byte	.LLST55
ARM GAS  /var/folders/m4/4md61f0s1_g0rzfghffqnxvr0000gn/T//ccmqP2UT.s 			page 85


 4789 0dea 18       		.uleb128 0x18
 4790 0deb E9010000 		.4byte	.LASF96
 4791 0def 01       		.byte	0x1
 4792 0df0 0805     		.2byte	0x508
 4793 0df2 97000000 		.4byte	0x97
 4794 0df6 540C0000 		.4byte	.LLST56
 4795 0dfa 18       		.uleb128 0x18
 4796 0dfb A0080000 		.4byte	.LASF97
 4797 0dff 01       		.byte	0x1
 4798 0e00 0805     		.2byte	0x508
 4799 0e02 A2000000 		.4byte	0xa2
 4800 0e06 800C0000 		.4byte	.LLST57
 4801 0e0a 1D       		.uleb128 0x1d
 4802 0e0b 746D7000 		.ascii	"tmp\000"
 4803 0e0f 01       		.byte	0x1
 4804 0e10 0A05     		.2byte	0x50a
 4805 0e12 CA000000 		.4byte	0xca
 4806 0e16 02       		.uleb128 0x2
 4807 0e17 91       		.byte	0x91
 4808 0e18 6C       		.sleb128 -20
 4809 0e19 12       		.uleb128 0x12
 4810 0e1a 24050000 		.4byte	.LASF62
 4811 0e1e 01       		.byte	0x1
 4812 0e1f F0       		.byte	0xf0
 4813 0e20 89000000 		.4byte	0x89
 4814 0e24 2A0E0000 		.4byte	0xe2a
 4815 0e28 13       		.uleb128 0x13
 4816 0e29 00       		.byte	0
 4817 0e2a 14       		.uleb128 0x14
 4818 0e2b 2A000000 		.4byte	.LVL213
 4819 0e2f 86130000 		.4byte	0x1386
 4820 0e33 14       		.uleb128 0x14
 4821 0e34 46000000 		.4byte	.LVL214
 4822 0e38 86130000 		.4byte	0x1386
 4823 0e3c 14       		.uleb128 0x14
 4824 0e3d 54000000 		.4byte	.LVL215
 4825 0e41 86130000 		.4byte	0x1386
 4826 0e45 00       		.byte	0
 4827 0e46 16       		.uleb128 0x16
 4828 0e47 68020000 		.4byte	.LASF98
 4829 0e4b 01       		.byte	0x1
 4830 0e4c 2E05     		.2byte	0x52e
 4831 0e4e 00000000 		.4byte	.LFB149
 4832 0e52 60000000 		.4byte	.LFE149-.LFB149
 4833 0e56 01       		.uleb128 0x1
 4834 0e57 9C       		.byte	0x9c
 4835 0e58 B00E0000 		.4byte	0xeb0
 4836 0e5c 18       		.uleb128 0x18
 4837 0e5d 95030000 		.4byte	.LASF55
 4838 0e61 01       		.byte	0x1
 4839 0e62 2E05     		.2byte	0x52e
 4840 0e64 F9030000 		.4byte	0x3f9
 4841 0e68 AC0C0000 		.4byte	.LLST58
 4842 0e6c 18       		.uleb128 0x18
 4843 0e6d 37050000 		.4byte	.LASF99
 4844 0e71 01       		.byte	0x1
 4845 0e72 2E05     		.2byte	0x52e
ARM GAS  /var/folders/m4/4md61f0s1_g0rzfghffqnxvr0000gn/T//ccmqP2UT.s 			page 86


 4846 0e74 B8000000 		.4byte	0xb8
 4847 0e78 E00C0000 		.4byte	.LLST59
 4848 0e7c 19       		.uleb128 0x19
 4849 0e7d 27020000 		.4byte	.LASF68
 4850 0e81 01       		.byte	0x1
 4851 0e82 3005     		.2byte	0x530
 4852 0e84 B8000000 		.4byte	0xb8
 4853 0e88 090D0000 		.4byte	.LLST60
 4854 0e8c 12       		.uleb128 0x12
 4855 0e8d 24050000 		.4byte	.LASF62
 4856 0e91 01       		.byte	0x1
 4857 0e92 F0       		.byte	0xf0
 4858 0e93 89000000 		.4byte	0x89
 4859 0e97 9D0E0000 		.4byte	0xe9d
 4860 0e9b 13       		.uleb128 0x13
 4861 0e9c 00       		.byte	0
 4862 0e9d 14       		.uleb128 0x14
 4863 0e9e 22000000 		.4byte	.LVL219
 4864 0ea2 86130000 		.4byte	0x1386
 4865 0ea6 14       		.uleb128 0x14
 4866 0ea7 2E000000 		.4byte	.LVL220
 4867 0eab 86130000 		.4byte	0x1386
 4868 0eaf 00       		.byte	0
 4869 0eb0 16       		.uleb128 0x16
 4870 0eb1 04010000 		.4byte	.LASF100
 4871 0eb5 01       		.byte	0x1
 4872 0eb6 5005     		.2byte	0x550
 4873 0eb8 00000000 		.4byte	.LFB150
 4874 0ebc 48000000 		.4byte	.LFE150-.LFB150
 4875 0ec0 01       		.uleb128 0x1
 4876 0ec1 9C       		.byte	0x9c
 4877 0ec2 1A0F0000 		.4byte	0xf1a
 4878 0ec6 18       		.uleb128 0x18
 4879 0ec7 95030000 		.4byte	.LASF55
 4880 0ecb 01       		.byte	0x1
 4881 0ecc 5005     		.2byte	0x550
 4882 0ece F9030000 		.4byte	0x3f9
 4883 0ed2 340D0000 		.4byte	.LLST61
 4884 0ed6 18       		.uleb128 0x18
 4885 0ed7 31070000 		.4byte	.LASF101
 4886 0edb 01       		.byte	0x1
 4887 0edc 5005     		.2byte	0x550
 4888 0ede B8000000 		.4byte	0xb8
 4889 0ee2 680D0000 		.4byte	.LLST62
 4890 0ee6 19       		.uleb128 0x19
 4891 0ee7 27020000 		.4byte	.LASF68
 4892 0eeb 01       		.byte	0x1
 4893 0eec 5205     		.2byte	0x552
 4894 0eee B8000000 		.4byte	0xb8
 4895 0ef2 910D0000 		.4byte	.LLST63
 4896 0ef6 12       		.uleb128 0x12
 4897 0ef7 24050000 		.4byte	.LASF62
 4898 0efb 01       		.byte	0x1
 4899 0efc F0       		.byte	0xf0
 4900 0efd 89000000 		.4byte	0x89
 4901 0f01 070F0000 		.4byte	0xf07
 4902 0f05 13       		.uleb128 0x13
ARM GAS  /var/folders/m4/4md61f0s1_g0rzfghffqnxvr0000gn/T//ccmqP2UT.s 			page 87


 4903 0f06 00       		.byte	0
 4904 0f07 14       		.uleb128 0x14
 4905 0f08 22000000 		.4byte	.LVL229
 4906 0f0c 86130000 		.4byte	0x1386
 4907 0f10 14       		.uleb128 0x14
 4908 0f11 30000000 		.4byte	.LVL230
 4909 0f15 86130000 		.4byte	0x1386
 4910 0f19 00       		.byte	0
 4911 0f1a 16       		.uleb128 0x16
 4912 0f1b 51050000 		.4byte	.LASF102
 4913 0f1f 01       		.byte	0x1
 4914 0f20 6505     		.2byte	0x565
 4915 0f22 00000000 		.4byte	.LFB151
 4916 0f26 38000000 		.4byte	.LFE151-.LFB151
 4917 0f2a 01       		.uleb128 0x1
 4918 0f2b 9C       		.byte	0x9c
 4919 0f2c 5B0F0000 		.4byte	0xf5b
 4920 0f30 18       		.uleb128 0x18
 4921 0f31 95030000 		.4byte	.LASF55
 4922 0f35 01       		.byte	0x1
 4923 0f36 6505     		.2byte	0x565
 4924 0f38 F9030000 		.4byte	0x3f9
 4925 0f3c BC0D0000 		.4byte	.LLST64
 4926 0f40 12       		.uleb128 0x12
 4927 0f41 24050000 		.4byte	.LASF62
 4928 0f45 01       		.byte	0x1
 4929 0f46 F0       		.byte	0xf0
 4930 0f47 89000000 		.4byte	0x89
 4931 0f4b 510F0000 		.4byte	0xf51
 4932 0f4f 13       		.uleb128 0x13
 4933 0f50 00       		.byte	0
 4934 0f51 14       		.uleb128 0x14
 4935 0f52 20000000 		.4byte	.LVL238
 4936 0f56 86130000 		.4byte	0x1386
 4937 0f5a 00       		.byte	0
 4938 0f5b 1B       		.uleb128 0x1b
 4939 0f5c 6D010000 		.4byte	.LASF103
 4940 0f60 01       		.byte	0x1
 4941 0f61 7205     		.2byte	0x572
 4942 0f63 22020000 		.4byte	0x222
 4943 0f67 00000000 		.4byte	.LFB152
 4944 0f6b 40000000 		.4byte	.LFE152-.LFB152
 4945 0f6f 01       		.uleb128 0x1
 4946 0f70 9C       		.byte	0x9c
 4947 0f71 D00F0000 		.4byte	0xfd0
 4948 0f75 18       		.uleb128 0x18
 4949 0f76 95030000 		.4byte	.LASF55
 4950 0f7a 01       		.byte	0x1
 4951 0f7b 7205     		.2byte	0x572
 4952 0f7d F9030000 		.4byte	0x3f9
 4953 0f81 F00D0000 		.4byte	.LLST65
 4954 0f85 19       		.uleb128 0x19
 4955 0f86 96080000 		.4byte	.LASF80
 4956 0f8a 01       		.byte	0x1
 4957 0f8b 7405     		.2byte	0x574
 4958 0f8d 22020000 		.4byte	0x222
 4959 0f91 320E0000 		.4byte	.LLST66
ARM GAS  /var/folders/m4/4md61f0s1_g0rzfghffqnxvr0000gn/T//ccmqP2UT.s 			page 88


 4960 0f95 12       		.uleb128 0x12
 4961 0f96 24050000 		.4byte	.LASF62
 4962 0f9a 01       		.byte	0x1
 4963 0f9b F0       		.byte	0xf0
 4964 0f9c 89000000 		.4byte	0x89
 4965 0fa0 A60F0000 		.4byte	0xfa6
 4966 0fa4 13       		.uleb128 0x13
 4967 0fa5 00       		.byte	0
 4968 0fa6 0D       		.uleb128 0xd
 4969 0fa7 20000000 		.4byte	.LVL243
 4970 0fab 86130000 		.4byte	0x1386
 4971 0faf C00F0000 		.4byte	0xfc0
 4972 0fb3 0E       		.uleb128 0xe
 4973 0fb4 01       		.uleb128 0x1
 4974 0fb5 50       		.byte	0x50
 4975 0fb6 08       		.uleb128 0x8
 4976 0fb7 74       		.byte	0x74
 4977 0fb8 00       		.sleb128 0
 4978 0fb9 0C       		.byte	0xc
 4979 0fba 00220140 		.4byte	0x40012200
 4980 0fbe 29       		.byte	0x29
 4981 0fbf 00       		.byte	0
 4982 0fc0 1A       		.uleb128 0x1a
 4983 0fc1 2E000000 		.4byte	.LVL248
 4984 0fc5 86130000 		.4byte	0x1386
 4985 0fc9 0E       		.uleb128 0xe
 4986 0fca 01       		.uleb128 0x1
 4987 0fcb 50       		.byte	0x50
 4988 0fcc 01       		.uleb128 0x1
 4989 0fcd 31       		.byte	0x31
 4990 0fce 00       		.byte	0
 4991 0fcf 00       		.byte	0
 4992 0fd0 16       		.uleb128 0x16
 4993 0fd1 8E050000 		.4byte	.LASF104
 4994 0fd5 01       		.byte	0x1
 4995 0fd6 8F05     		.2byte	0x58f
 4996 0fd8 00000000 		.4byte	.LFB153
 4997 0fdc 50000000 		.4byte	.LFE153-.LFB153
 4998 0fe0 01       		.uleb128 0x1
 4999 0fe1 9C       		.byte	0x9c
 5000 0fe2 2A100000 		.4byte	0x102a
 5001 0fe6 18       		.uleb128 0x18
 5002 0fe7 95030000 		.4byte	.LASF55
 5003 0feb 01       		.byte	0x1
 5004 0fec 8F05     		.2byte	0x58f
 5005 0fee F9030000 		.4byte	0x3f9
 5006 0ff2 780E0000 		.4byte	.LLST67
 5007 0ff6 18       		.uleb128 0x18
 5008 0ff7 5F020000 		.4byte	.LASF65
 5009 0ffb 01       		.byte	0x1
 5010 0ffc 8F05     		.2byte	0x58f
 5011 0ffe 51020000 		.4byte	0x251
 5012 1002 AC0E0000 		.4byte	.LLST68
 5013 1006 12       		.uleb128 0x12
 5014 1007 24050000 		.4byte	.LASF62
 5015 100b 01       		.byte	0x1
 5016 100c F0       		.byte	0xf0
ARM GAS  /var/folders/m4/4md61f0s1_g0rzfghffqnxvr0000gn/T//ccmqP2UT.s 			page 89


 5017 100d 89000000 		.4byte	0x89
 5018 1011 17100000 		.4byte	0x1017
 5019 1015 13       		.uleb128 0x13
 5020 1016 00       		.byte	0
 5021 1017 14       		.uleb128 0x14
 5022 1018 22000000 		.4byte	.LVL254
 5023 101c 86130000 		.4byte	0x1386
 5024 1020 14       		.uleb128 0x14
 5025 1021 2E000000 		.4byte	.LVL255
 5026 1025 86130000 		.4byte	0x1386
 5027 1029 00       		.byte	0
 5028 102a 16       		.uleb128 0x16
 5029 102b 2E020000 		.4byte	.LASF105
 5030 102f 01       		.byte	0x1
 5031 1030 A905     		.2byte	0x5a9
 5032 1032 00000000 		.4byte	.LFB154
 5033 1036 50000000 		.4byte	.LFE154-.LFB154
 5034 103a 01       		.uleb128 0x1
 5035 103b 9C       		.byte	0x9c
 5036 103c 84100000 		.4byte	0x1084
 5037 1040 18       		.uleb128 0x18
 5038 1041 95030000 		.4byte	.LASF55
 5039 1045 01       		.byte	0x1
 5040 1046 A905     		.2byte	0x5a9
 5041 1048 F9030000 		.4byte	0x3f9
 5042 104c D80E0000 		.4byte	.LLST69
 5043 1050 18       		.uleb128 0x18
 5044 1051 5F020000 		.4byte	.LASF65
 5045 1055 01       		.byte	0x1
 5046 1056 A905     		.2byte	0x5a9
 5047 1058 51020000 		.4byte	0x251
 5048 105c 0C0F0000 		.4byte	.LLST70
 5049 1060 12       		.uleb128 0x12
 5050 1061 24050000 		.4byte	.LASF62
 5051 1065 01       		.byte	0x1
 5052 1066 F0       		.byte	0xf0
 5053 1067 89000000 		.4byte	0x89
 5054 106b 71100000 		.4byte	0x1071
 5055 106f 13       		.uleb128 0x13
 5056 1070 00       		.byte	0
 5057 1071 14       		.uleb128 0x14
 5058 1072 22000000 		.4byte	.LVL261
 5059 1076 86130000 		.4byte	0x1386
 5060 107a 14       		.uleb128 0x14
 5061 107b 2E000000 		.4byte	.LVL262
 5062 107f 86130000 		.4byte	0x1386
 5063 1083 00       		.byte	0
 5064 1084 1B       		.uleb128 0x1b
 5065 1085 BE050000 		.4byte	.LASF106
 5066 1089 01       		.byte	0x1
 5067 108a C505     		.2byte	0x5c5
 5068 108c A2000000 		.4byte	0xa2
 5069 1090 00000000 		.4byte	.LFB155
 5070 1094 64000000 		.4byte	.LFE155-.LFB155
 5071 1098 01       		.uleb128 0x1
 5072 1099 9C       		.byte	0x9c
 5073 109a F1100000 		.4byte	0x10f1
ARM GAS  /var/folders/m4/4md61f0s1_g0rzfghffqnxvr0000gn/T//ccmqP2UT.s 			page 90


 5074 109e 18       		.uleb128 0x18
 5075 109f 95030000 		.4byte	.LASF55
 5076 10a3 01       		.byte	0x1
 5077 10a4 C505     		.2byte	0x5c5
 5078 10a6 F9030000 		.4byte	0x3f9
 5079 10aa 380F0000 		.4byte	.LLST71
 5080 10ae 18       		.uleb128 0x18
 5081 10af E9010000 		.4byte	.LASF96
 5082 10b3 01       		.byte	0x1
 5083 10b4 C505     		.2byte	0x5c5
 5084 10b6 97000000 		.4byte	0x97
 5085 10ba 6C0F0000 		.4byte	.LLST72
 5086 10be 1D       		.uleb128 0x1d
 5087 10bf 746D7000 		.ascii	"tmp\000"
 5088 10c3 01       		.byte	0x1
 5089 10c4 C705     		.2byte	0x5c7
 5090 10c6 CA000000 		.4byte	0xca
 5091 10ca 02       		.uleb128 0x2
 5092 10cb 91       		.byte	0x91
 5093 10cc 6C       		.sleb128 -20
 5094 10cd 12       		.uleb128 0x12
 5095 10ce 24050000 		.4byte	.LASF62
 5096 10d2 01       		.byte	0x1
 5097 10d3 F0       		.byte	0xf0
 5098 10d4 89000000 		.4byte	0x89
 5099 10d8 DE100000 		.4byte	0x10de
 5100 10dc 13       		.uleb128 0x13
 5101 10dd 00       		.byte	0
 5102 10de 14       		.uleb128 0x14
 5103 10df 28000000 		.4byte	.LVL268
 5104 10e3 86130000 		.4byte	0x1386
 5105 10e7 14       		.uleb128 0x14
 5106 10e8 44000000 		.4byte	.LVL269
 5107 10ec 86130000 		.4byte	0x1386
 5108 10f0 00       		.byte	0
 5109 10f1 16       		.uleb128 0x16
 5110 10f2 1D040000 		.4byte	.LASF107
 5111 10f6 01       		.byte	0x1
 5112 10f7 3006     		.2byte	0x630
 5113 10f9 00000000 		.4byte	.LFB156
 5114 10fd 80000000 		.4byte	.LFE156-.LFB156
 5115 1101 01       		.uleb128 0x1
 5116 1102 9C       		.byte	0x9c
 5117 1103 74110000 		.4byte	0x1174
 5118 1107 18       		.uleb128 0x18
 5119 1108 95030000 		.4byte	.LASF55
 5120 110c 01       		.byte	0x1
 5121 110d 3006     		.2byte	0x630
 5122 110f F9030000 		.4byte	0x3f9
 5123 1113 980F0000 		.4byte	.LLST73
 5124 1117 18       		.uleb128 0x18
 5125 1118 AE020000 		.4byte	.LASF108
 5126 111c 01       		.byte	0x1
 5127 111d 3006     		.2byte	0x630
 5128 111f A2000000 		.4byte	0xa2
 5129 1123 CC0F0000 		.4byte	.LLST74
 5130 1127 18       		.uleb128 0x18
ARM GAS  /var/folders/m4/4md61f0s1_g0rzfghffqnxvr0000gn/T//ccmqP2UT.s 			page 91


 5131 1128 5F020000 		.4byte	.LASF65
 5132 112c 01       		.byte	0x1
 5133 112d 3006     		.2byte	0x630
 5134 112f 51020000 		.4byte	0x251
 5135 1133 F80F0000 		.4byte	.LLST75
 5136 1137 19       		.uleb128 0x19
 5137 1138 90040000 		.4byte	.LASF109
 5138 113c 01       		.byte	0x1
 5139 113d 3206     		.2byte	0x632
 5140 113f B8000000 		.4byte	0xb8
 5141 1143 24100000 		.4byte	.LLST76
 5142 1147 12       		.uleb128 0x12
 5143 1148 24050000 		.4byte	.LASF62
 5144 114c 01       		.byte	0x1
 5145 114d F0       		.byte	0xf0
 5146 114e 89000000 		.4byte	0x89
 5147 1152 58110000 		.4byte	0x1158
 5148 1156 13       		.uleb128 0x13
 5149 1157 00       		.byte	0
 5150 1158 14       		.uleb128 0x14
 5151 1159 24000000 		.4byte	.LVL274
 5152 115d 86130000 		.4byte	0x1386
 5153 1161 14       		.uleb128 0x14
 5154 1162 30000000 		.4byte	.LVL275
 5155 1166 86130000 		.4byte	0x1386
 5156 116a 14       		.uleb128 0x14
 5157 116b 5A000000 		.4byte	.LVL276
 5158 116f 86130000 		.4byte	0x1386
 5159 1173 00       		.byte	0
 5160 1174 1B       		.uleb128 0x1b
 5161 1175 56040000 		.4byte	.LASF110
 5162 1179 01       		.byte	0x1
 5163 117a 5506     		.2byte	0x655
 5164 117c 22020000 		.4byte	0x222
 5165 1180 00000000 		.4byte	.LFB157
 5166 1184 58000000 		.4byte	.LFE157-.LFB157
 5167 1188 01       		.uleb128 0x1
 5168 1189 9C       		.byte	0x9c
 5169 118a E2110000 		.4byte	0x11e2
 5170 118e 18       		.uleb128 0x18
 5171 118f 95030000 		.4byte	.LASF55
 5172 1193 01       		.byte	0x1
 5173 1194 5506     		.2byte	0x655
 5174 1196 F9030000 		.4byte	0x3f9
 5175 119a 5A100000 		.4byte	.LLST77
 5176 119e 18       		.uleb128 0x18
 5177 119f 4F020000 		.4byte	.LASF111
 5178 11a3 01       		.byte	0x1
 5179 11a4 5506     		.2byte	0x655
 5180 11a6 97000000 		.4byte	0x97
 5181 11aa 8E100000 		.4byte	.LLST78
 5182 11ae 19       		.uleb128 0x19
 5183 11af 96080000 		.4byte	.LASF80
 5184 11b3 01       		.byte	0x1
 5185 11b4 5706     		.2byte	0x657
 5186 11b6 22020000 		.4byte	0x222
 5187 11ba BA100000 		.4byte	.LLST79
ARM GAS  /var/folders/m4/4md61f0s1_g0rzfghffqnxvr0000gn/T//ccmqP2UT.s 			page 92


 5188 11be 12       		.uleb128 0x12
 5189 11bf 24050000 		.4byte	.LASF62
 5190 11c3 01       		.byte	0x1
 5191 11c4 F0       		.byte	0xf0
 5192 11c5 89000000 		.4byte	0x89
 5193 11c9 CF110000 		.4byte	0x11cf
 5194 11cd 13       		.uleb128 0x13
 5195 11ce 00       		.byte	0
 5196 11cf 14       		.uleb128 0x14
 5197 11d0 22000000 		.4byte	.LVL286
 5198 11d4 86130000 		.4byte	0x1386
 5199 11d8 14       		.uleb128 0x14
 5200 11d9 3A000000 		.4byte	.LVL287
 5201 11dd 86130000 		.4byte	0x1386
 5202 11e1 00       		.byte	0
 5203 11e2 16       		.uleb128 0x16
 5204 11e3 B0050000 		.4byte	.LASF112
 5205 11e7 01       		.byte	0x1
 5206 11e8 7806     		.2byte	0x678
 5207 11ea 00000000 		.4byte	.LFB158
 5208 11ee 50000000 		.4byte	.LFE158-.LFB158
 5209 11f2 01       		.uleb128 0x1
 5210 11f3 9C       		.byte	0x9c
 5211 11f4 62120000 		.4byte	0x1262
 5212 11f8 18       		.uleb128 0x18
 5213 11f9 95030000 		.4byte	.LASF55
 5214 11fd 01       		.byte	0x1
 5215 11fe 7806     		.2byte	0x678
 5216 1200 F9030000 		.4byte	0x3f9
 5217 1204 EF100000 		.4byte	.LLST80
 5218 1208 18       		.uleb128 0x18
 5219 1209 4F020000 		.4byte	.LASF111
 5220 120d 01       		.byte	0x1
 5221 120e 7806     		.2byte	0x678
 5222 1210 97000000 		.4byte	0x97
 5223 1214 23110000 		.4byte	.LLST81
 5224 1218 12       		.uleb128 0x12
 5225 1219 24050000 		.4byte	.LASF62
 5226 121d 01       		.byte	0x1
 5227 121e F0       		.byte	0xf0
 5228 121f 89000000 		.4byte	0x89
 5229 1223 29120000 		.4byte	0x1229
 5230 1227 13       		.uleb128 0x13
 5231 1228 00       		.byte	0
 5232 1229 14       		.uleb128 0x14
 5233 122a 22000000 		.4byte	.LVL293
 5234 122e 86130000 		.4byte	0x1386
 5235 1232 0D       		.uleb128 0xd
 5236 1233 34000000 		.4byte	.LVL294
 5237 1237 86130000 		.4byte	0x1386
 5238 123b 52120000 		.4byte	0x1252
 5239 123f 0E       		.uleb128 0xe
 5240 1240 01       		.uleb128 0x1
 5241 1241 50       		.byte	0x50
 5242 1242 0E       		.uleb128 0xe
 5243 1243 31       		.byte	0x31
 5244 1244 74       		.byte	0x74
ARM GAS  /var/folders/m4/4md61f0s1_g0rzfghffqnxvr0000gn/T//ccmqP2UT.s 			page 93


 5245 1245 00       		.sleb128 0
 5246 1246 20       		.byte	0x20
 5247 1247 74       		.byte	0x74
 5248 1248 00       		.sleb128 0
 5249 1249 20       		.byte	0x20
 5250 124a 30       		.byte	0x30
 5251 124b 2E       		.byte	0x2e
 5252 124c 28       		.byte	0x28
 5253 124d 0100     		.2byte	0x1
 5254 124f 16       		.byte	0x16
 5255 1250 13       		.byte	0x13
 5256 1251 00       		.byte	0
 5257 1252 1A       		.uleb128 0x1a
 5258 1253 40000000 		.4byte	.LVL296
 5259 1257 86130000 		.4byte	0x1386
 5260 125b 0E       		.uleb128 0xe
 5261 125c 01       		.uleb128 0x1
 5262 125d 50       		.byte	0x50
 5263 125e 01       		.uleb128 0x1
 5264 125f 30       		.byte	0x30
 5265 1260 00       		.byte	0
 5266 1261 00       		.byte	0
 5267 1262 1B       		.uleb128 0x1b
 5268 1263 34010000 		.4byte	.LASF113
 5269 1267 01       		.byte	0x1
 5270 1268 8D06     		.2byte	0x68d
 5271 126a 2D020000 		.4byte	0x22d
 5272 126e 00000000 		.4byte	.LFB159
 5273 1272 74000000 		.4byte	.LFE159-.LFB159
 5274 1276 01       		.uleb128 0x1
 5275 1277 9C       		.byte	0x9c
 5276 1278 F0120000 		.4byte	0x12f0
 5277 127c 18       		.uleb128 0x18
 5278 127d 95030000 		.4byte	.LASF55
 5279 1281 01       		.byte	0x1
 5280 1282 8D06     		.2byte	0x68d
 5281 1284 F9030000 		.4byte	0x3f9
 5282 1288 4F110000 		.4byte	.LLST82
 5283 128c 18       		.uleb128 0x18
 5284 128d AE020000 		.4byte	.LASF108
 5285 1291 01       		.byte	0x1
 5286 1292 8D06     		.2byte	0x68d
 5287 1294 A2000000 		.4byte	0xa2
 5288 1298 83110000 		.4byte	.LLST83
 5289 129c 19       		.uleb128 0x19
 5290 129d 96080000 		.4byte	.LASF80
 5291 12a1 01       		.byte	0x1
 5292 12a2 8F06     		.2byte	0x68f
 5293 12a4 2D020000 		.4byte	0x22d
 5294 12a8 AF110000 		.4byte	.LLST84
 5295 12ac 19       		.uleb128 0x19
 5296 12ad 90040000 		.4byte	.LASF109
 5297 12b1 01       		.byte	0x1
 5298 12b2 9006     		.2byte	0x690
 5299 12b4 B8000000 		.4byte	0xb8
 5300 12b8 DA110000 		.4byte	.LLST85
 5301 12bc 19       		.uleb128 0x19
ARM GAS  /var/folders/m4/4md61f0s1_g0rzfghffqnxvr0000gn/T//ccmqP2UT.s 			page 94


 5302 12bd DD000000 		.4byte	.LASF114
 5303 12c1 01       		.byte	0x1
 5304 12c2 9006     		.2byte	0x690
 5305 12c4 B8000000 		.4byte	0xb8
 5306 12c8 0D120000 		.4byte	.LLST86
 5307 12cc 12       		.uleb128 0x12
 5308 12cd 24050000 		.4byte	.LASF62
 5309 12d1 01       		.byte	0x1
 5310 12d2 F0       		.byte	0xf0
 5311 12d3 89000000 		.4byte	0x89
 5312 12d7 DD120000 		.4byte	0x12dd
 5313 12db 13       		.uleb128 0x13
 5314 12dc 00       		.byte	0
 5315 12dd 14       		.uleb128 0x14
 5316 12de 22000000 		.4byte	.LVL301
 5317 12e2 86130000 		.4byte	0x1386
 5318 12e6 14       		.uleb128 0x14
 5319 12e7 4C000000 		.4byte	.LVL302
 5320 12eb 86130000 		.4byte	0x1386
 5321 12ef 00       		.byte	0
 5322 12f0 16       		.uleb128 0x16
 5323 12f1 07040000 		.4byte	.LASF115
 5324 12f5 01       		.byte	0x1
 5325 12f6 B606     		.2byte	0x6b6
 5326 12f8 00000000 		.4byte	.LFB160
 5327 12fc 6C000000 		.4byte	.LFE160-.LFB160
 5328 1300 01       		.uleb128 0x1
 5329 1301 9C       		.byte	0x9c
 5330 1302 69130000 		.4byte	0x1369
 5331 1306 18       		.uleb128 0x18
 5332 1307 95030000 		.4byte	.LASF55
 5333 130b 01       		.byte	0x1
 5334 130c B606     		.2byte	0x6b6
 5335 130e F9030000 		.4byte	0x3f9
 5336 1312 42120000 		.4byte	.LLST87
 5337 1316 18       		.uleb128 0x18
 5338 1317 AE020000 		.4byte	.LASF108
 5339 131b 01       		.byte	0x1
 5340 131c B606     		.2byte	0x6b6
 5341 131e A2000000 		.4byte	0xa2
 5342 1322 76120000 		.4byte	.LLST88
 5343 1326 19       		.uleb128 0x19
 5344 1327 90040000 		.4byte	.LASF109
 5345 132b 01       		.byte	0x1
 5346 132c B806     		.2byte	0x6b8
 5347 132e 97000000 		.4byte	0x97
 5348 1332 A2120000 		.4byte	.LLST89
 5349 1336 12       		.uleb128 0x12
 5350 1337 24050000 		.4byte	.LASF62
 5351 133b 01       		.byte	0x1
 5352 133c F0       		.byte	0xf0
 5353 133d 89000000 		.4byte	0x89
 5354 1341 47130000 		.4byte	0x1347
 5355 1345 13       		.uleb128 0x13
 5356 1346 00       		.byte	0
 5357 1347 14       		.uleb128 0x14
 5358 1348 22000000 		.4byte	.LVL311
ARM GAS  /var/folders/m4/4md61f0s1_g0rzfghffqnxvr0000gn/T//ccmqP2UT.s 			page 95


 5359 134c 86130000 		.4byte	0x1386
 5360 1350 14       		.uleb128 0x14
 5361 1351 4C000000 		.4byte	.LVL312
 5362 1355 86130000 		.4byte	0x1386
 5363 1359 1A       		.uleb128 0x1a
 5364 135a 5A000000 		.4byte	.LVL314
 5365 135e 86130000 		.4byte	0x1386
 5366 1362 0E       		.uleb128 0xe
 5367 1363 01       		.uleb128 0x1
 5368 1364 50       		.byte	0x50
 5369 1365 01       		.uleb128 0x1
 5370 1366 31       		.byte	0x31
 5371 1367 00       		.byte	0
 5372 1368 00       		.byte	0
 5373 1369 1E       		.uleb128 0x1e
 5374 136a 09050000 		.4byte	.LASF121
 5375 136e 08       		.byte	0x8
 5376 136f FA06     		.2byte	0x6fa
 5377 1371 75130000 		.4byte	0x1375
 5378 1375 05       		.uleb128 0x5
 5379 1376 AD000000 		.4byte	0xad
 5380 137a 1F       		.uleb128 0x1f
 5381 137b 36040000 		.4byte	.LASF116
 5382 137f 36040000 		.4byte	.LASF116
 5383 1383 07       		.byte	0x7
 5384 1384 6203     		.2byte	0x362
 5385 1386 20       		.uleb128 0x20
 5386 1387 24050000 		.4byte	.LASF62
 5387 138b 24050000 		.4byte	.LASF62
 5388 138f 01       		.byte	0x1
 5389 1390 F0       		.byte	0xf0
 5390 1391 00       		.byte	0
 5391              		.section	.debug_abbrev,"",%progbits
 5392              	.Ldebug_abbrev0:
 5393 0000 01       		.uleb128 0x1
 5394 0001 11       		.uleb128 0x11
 5395 0002 01       		.byte	0x1
 5396 0003 25       		.uleb128 0x25
 5397 0004 0E       		.uleb128 0xe
 5398 0005 13       		.uleb128 0x13
 5399 0006 0B       		.uleb128 0xb
 5400 0007 03       		.uleb128 0x3
 5401 0008 0E       		.uleb128 0xe
 5402 0009 1B       		.uleb128 0x1b
 5403 000a 0E       		.uleb128 0xe
 5404 000b 55       		.uleb128 0x55
 5405 000c 17       		.uleb128 0x17
 5406 000d 11       		.uleb128 0x11
 5407 000e 01       		.uleb128 0x1
 5408 000f 10       		.uleb128 0x10
 5409 0010 17       		.uleb128 0x17
 5410 0011 00       		.byte	0
 5411 0012 00       		.byte	0
 5412 0013 02       		.uleb128 0x2
 5413 0014 24       		.uleb128 0x24
 5414 0015 00       		.byte	0
 5415 0016 0B       		.uleb128 0xb
ARM GAS  /var/folders/m4/4md61f0s1_g0rzfghffqnxvr0000gn/T//ccmqP2UT.s 			page 96


 5416 0017 0B       		.uleb128 0xb
 5417 0018 3E       		.uleb128 0x3e
 5418 0019 0B       		.uleb128 0xb
 5419 001a 03       		.uleb128 0x3
 5420 001b 0E       		.uleb128 0xe
 5421 001c 00       		.byte	0
 5422 001d 00       		.byte	0
 5423 001e 03       		.uleb128 0x3
 5424 001f 16       		.uleb128 0x16
 5425 0020 00       		.byte	0
 5426 0021 03       		.uleb128 0x3
 5427 0022 0E       		.uleb128 0xe
 5428 0023 3A       		.uleb128 0x3a
 5429 0024 0B       		.uleb128 0xb
 5430 0025 3B       		.uleb128 0x3b
 5431 0026 0B       		.uleb128 0xb
 5432 0027 49       		.uleb128 0x49
 5433 0028 13       		.uleb128 0x13
 5434 0029 00       		.byte	0
 5435 002a 00       		.byte	0
 5436 002b 04       		.uleb128 0x4
 5437 002c 24       		.uleb128 0x24
 5438 002d 00       		.byte	0
 5439 002e 0B       		.uleb128 0xb
 5440 002f 0B       		.uleb128 0xb
 5441 0030 3E       		.uleb128 0x3e
 5442 0031 0B       		.uleb128 0xb
 5443 0032 03       		.uleb128 0x3
 5444 0033 08       		.uleb128 0x8
 5445 0034 00       		.byte	0
 5446 0035 00       		.byte	0
 5447 0036 05       		.uleb128 0x5
 5448 0037 35       		.uleb128 0x35
 5449 0038 00       		.byte	0
 5450 0039 49       		.uleb128 0x49
 5451 003a 13       		.uleb128 0x13
 5452 003b 00       		.byte	0
 5453 003c 00       		.byte	0
 5454 003d 06       		.uleb128 0x6
 5455 003e 13       		.uleb128 0x13
 5456 003f 01       		.byte	0x1
 5457 0040 0B       		.uleb128 0xb
 5458 0041 0B       		.uleb128 0xb
 5459 0042 3A       		.uleb128 0x3a
 5460 0043 0B       		.uleb128 0xb
 5461 0044 3B       		.uleb128 0x3b
 5462 0045 0B       		.uleb128 0xb
 5463 0046 01       		.uleb128 0x1
 5464 0047 13       		.uleb128 0x13
 5465 0048 00       		.byte	0
 5466 0049 00       		.byte	0
 5467 004a 07       		.uleb128 0x7
 5468 004b 0D       		.uleb128 0xd
 5469 004c 00       		.byte	0
 5470 004d 03       		.uleb128 0x3
 5471 004e 08       		.uleb128 0x8
 5472 004f 3A       		.uleb128 0x3a
ARM GAS  /var/folders/m4/4md61f0s1_g0rzfghffqnxvr0000gn/T//ccmqP2UT.s 			page 97


 5473 0050 0B       		.uleb128 0xb
 5474 0051 3B       		.uleb128 0x3b
 5475 0052 0B       		.uleb128 0xb
 5476 0053 49       		.uleb128 0x49
 5477 0054 13       		.uleb128 0x13
 5478 0055 38       		.uleb128 0x38
 5479 0056 0B       		.uleb128 0xb
 5480 0057 00       		.byte	0
 5481 0058 00       		.byte	0
 5482 0059 08       		.uleb128 0x8
 5483 005a 0D       		.uleb128 0xd
 5484 005b 00       		.byte	0
 5485 005c 03       		.uleb128 0x3
 5486 005d 0E       		.uleb128 0xe
 5487 005e 3A       		.uleb128 0x3a
 5488 005f 0B       		.uleb128 0xb
 5489 0060 3B       		.uleb128 0x3b
 5490 0061 0B       		.uleb128 0xb
 5491 0062 49       		.uleb128 0x49
 5492 0063 13       		.uleb128 0x13
 5493 0064 38       		.uleb128 0x38
 5494 0065 0B       		.uleb128 0xb
 5495 0066 00       		.byte	0
 5496 0067 00       		.byte	0
 5497 0068 09       		.uleb128 0x9
 5498 0069 04       		.uleb128 0x4
 5499 006a 01       		.byte	0x1
 5500 006b 0B       		.uleb128 0xb
 5501 006c 0B       		.uleb128 0xb
 5502 006d 49       		.uleb128 0x49
 5503 006e 13       		.uleb128 0x13
 5504 006f 3A       		.uleb128 0x3a
 5505 0070 0B       		.uleb128 0xb
 5506 0071 3B       		.uleb128 0x3b
 5507 0072 0B       		.uleb128 0xb
 5508 0073 01       		.uleb128 0x1
 5509 0074 13       		.uleb128 0x13
 5510 0075 00       		.byte	0
 5511 0076 00       		.byte	0
 5512 0077 0A       		.uleb128 0xa
 5513 0078 28       		.uleb128 0x28
 5514 0079 00       		.byte	0
 5515 007a 03       		.uleb128 0x3
 5516 007b 0E       		.uleb128 0xe
 5517 007c 1C       		.uleb128 0x1c
 5518 007d 0B       		.uleb128 0xb
 5519 007e 00       		.byte	0
 5520 007f 00       		.byte	0
 5521 0080 0B       		.uleb128 0xb
 5522 0081 28       		.uleb128 0x28
 5523 0082 00       		.byte	0
 5524 0083 03       		.uleb128 0x3
 5525 0084 08       		.uleb128 0x8
 5526 0085 1C       		.uleb128 0x1c
 5527 0086 0B       		.uleb128 0xb
 5528 0087 00       		.byte	0
 5529 0088 00       		.byte	0
ARM GAS  /var/folders/m4/4md61f0s1_g0rzfghffqnxvr0000gn/T//ccmqP2UT.s 			page 98


 5530 0089 0C       		.uleb128 0xc
 5531 008a 2E       		.uleb128 0x2e
 5532 008b 01       		.byte	0x1
 5533 008c 3F       		.uleb128 0x3f
 5534 008d 19       		.uleb128 0x19
 5535 008e 03       		.uleb128 0x3
 5536 008f 0E       		.uleb128 0xe
 5537 0090 3A       		.uleb128 0x3a
 5538 0091 0B       		.uleb128 0xb
 5539 0092 3B       		.uleb128 0x3b
 5540 0093 0B       		.uleb128 0xb
 5541 0094 27       		.uleb128 0x27
 5542 0095 19       		.uleb128 0x19
 5543 0096 11       		.uleb128 0x11
 5544 0097 01       		.uleb128 0x1
 5545 0098 12       		.uleb128 0x12
 5546 0099 06       		.uleb128 0x6
 5547 009a 40       		.uleb128 0x40
 5548 009b 18       		.uleb128 0x18
 5549 009c 9742     		.uleb128 0x2117
 5550 009e 19       		.uleb128 0x19
 5551 009f 01       		.uleb128 0x1
 5552 00a0 13       		.uleb128 0x13
 5553 00a1 00       		.byte	0
 5554 00a2 00       		.byte	0
 5555 00a3 0D       		.uleb128 0xd
 5556 00a4 898201   		.uleb128 0x4109
 5557 00a7 01       		.byte	0x1
 5558 00a8 11       		.uleb128 0x11
 5559 00a9 01       		.uleb128 0x1
 5560 00aa 31       		.uleb128 0x31
 5561 00ab 13       		.uleb128 0x13
 5562 00ac 01       		.uleb128 0x1
 5563 00ad 13       		.uleb128 0x13
 5564 00ae 00       		.byte	0
 5565 00af 00       		.byte	0
 5566 00b0 0E       		.uleb128 0xe
 5567 00b1 8A8201   		.uleb128 0x410a
 5568 00b4 00       		.byte	0
 5569 00b5 02       		.uleb128 0x2
 5570 00b6 18       		.uleb128 0x18
 5571 00b7 9142     		.uleb128 0x2111
 5572 00b9 18       		.uleb128 0x18
 5573 00ba 00       		.byte	0
 5574 00bb 00       		.byte	0
 5575 00bc 0F       		.uleb128 0xf
 5576 00bd 898201   		.uleb128 0x4109
 5577 00c0 01       		.byte	0x1
 5578 00c1 11       		.uleb128 0x11
 5579 00c2 01       		.uleb128 0x1
 5580 00c3 9542     		.uleb128 0x2115
 5581 00c5 19       		.uleb128 0x19
 5582 00c6 31       		.uleb128 0x31
 5583 00c7 13       		.uleb128 0x13
 5584 00c8 00       		.byte	0
 5585 00c9 00       		.byte	0
 5586 00ca 10       		.uleb128 0x10
ARM GAS  /var/folders/m4/4md61f0s1_g0rzfghffqnxvr0000gn/T//ccmqP2UT.s 			page 99


 5587 00cb 05       		.uleb128 0x5
 5588 00cc 00       		.byte	0
 5589 00cd 03       		.uleb128 0x3
 5590 00ce 0E       		.uleb128 0xe
 5591 00cf 3A       		.uleb128 0x3a
 5592 00d0 0B       		.uleb128 0xb
 5593 00d1 3B       		.uleb128 0x3b
 5594 00d2 0B       		.uleb128 0xb
 5595 00d3 49       		.uleb128 0x49
 5596 00d4 13       		.uleb128 0x13
 5597 00d5 02       		.uleb128 0x2
 5598 00d6 17       		.uleb128 0x17
 5599 00d7 00       		.byte	0
 5600 00d8 00       		.byte	0
 5601 00d9 11       		.uleb128 0x11
 5602 00da 34       		.uleb128 0x34
 5603 00db 00       		.byte	0
 5604 00dc 03       		.uleb128 0x3
 5605 00dd 0E       		.uleb128 0xe
 5606 00de 3A       		.uleb128 0x3a
 5607 00df 0B       		.uleb128 0xb
 5608 00e0 3B       		.uleb128 0x3b
 5609 00e1 0B       		.uleb128 0xb
 5610 00e2 49       		.uleb128 0x49
 5611 00e3 13       		.uleb128 0x13
 5612 00e4 02       		.uleb128 0x2
 5613 00e5 17       		.uleb128 0x17
 5614 00e6 00       		.byte	0
 5615 00e7 00       		.byte	0
 5616 00e8 12       		.uleb128 0x12
 5617 00e9 2E       		.uleb128 0x2e
 5618 00ea 01       		.byte	0x1
 5619 00eb 3F       		.uleb128 0x3f
 5620 00ec 19       		.uleb128 0x19
 5621 00ed 03       		.uleb128 0x3
 5622 00ee 0E       		.uleb128 0xe
 5623 00ef 3A       		.uleb128 0x3a
 5624 00f0 0B       		.uleb128 0xb
 5625 00f1 3B       		.uleb128 0x3b
 5626 00f2 0B       		.uleb128 0xb
 5627 00f3 49       		.uleb128 0x49
 5628 00f4 13       		.uleb128 0x13
 5629 00f5 3C       		.uleb128 0x3c
 5630 00f6 19       		.uleb128 0x19
 5631 00f7 01       		.uleb128 0x1
 5632 00f8 13       		.uleb128 0x13
 5633 00f9 00       		.byte	0
 5634 00fa 00       		.byte	0
 5635 00fb 13       		.uleb128 0x13
 5636 00fc 18       		.uleb128 0x18
 5637 00fd 00       		.byte	0
 5638 00fe 00       		.byte	0
 5639 00ff 00       		.byte	0
 5640 0100 14       		.uleb128 0x14
 5641 0101 898201   		.uleb128 0x4109
 5642 0104 00       		.byte	0
 5643 0105 11       		.uleb128 0x11
ARM GAS  /var/folders/m4/4md61f0s1_g0rzfghffqnxvr0000gn/T//ccmqP2UT.s 			page 100


 5644 0106 01       		.uleb128 0x1
 5645 0107 31       		.uleb128 0x31
 5646 0108 13       		.uleb128 0x13
 5647 0109 00       		.byte	0
 5648 010a 00       		.byte	0
 5649 010b 15       		.uleb128 0x15
 5650 010c 0F       		.uleb128 0xf
 5651 010d 00       		.byte	0
 5652 010e 0B       		.uleb128 0xb
 5653 010f 0B       		.uleb128 0xb
 5654 0110 49       		.uleb128 0x49
 5655 0111 13       		.uleb128 0x13
 5656 0112 00       		.byte	0
 5657 0113 00       		.byte	0
 5658 0114 16       		.uleb128 0x16
 5659 0115 2E       		.uleb128 0x2e
 5660 0116 01       		.byte	0x1
 5661 0117 3F       		.uleb128 0x3f
 5662 0118 19       		.uleb128 0x19
 5663 0119 03       		.uleb128 0x3
 5664 011a 0E       		.uleb128 0xe
 5665 011b 3A       		.uleb128 0x3a
 5666 011c 0B       		.uleb128 0xb
 5667 011d 3B       		.uleb128 0x3b
 5668 011e 05       		.uleb128 0x5
 5669 011f 27       		.uleb128 0x27
 5670 0120 19       		.uleb128 0x19
 5671 0121 11       		.uleb128 0x11
 5672 0122 01       		.uleb128 0x1
 5673 0123 12       		.uleb128 0x12
 5674 0124 06       		.uleb128 0x6
 5675 0125 40       		.uleb128 0x40
 5676 0126 18       		.uleb128 0x18
 5677 0127 9742     		.uleb128 0x2117
 5678 0129 19       		.uleb128 0x19
 5679 012a 01       		.uleb128 0x1
 5680 012b 13       		.uleb128 0x13
 5681 012c 00       		.byte	0
 5682 012d 00       		.byte	0
 5683 012e 17       		.uleb128 0x17
 5684 012f 05       		.uleb128 0x5
 5685 0130 00       		.byte	0
 5686 0131 03       		.uleb128 0x3
 5687 0132 0E       		.uleb128 0xe
 5688 0133 3A       		.uleb128 0x3a
 5689 0134 0B       		.uleb128 0xb
 5690 0135 3B       		.uleb128 0x3b
 5691 0136 05       		.uleb128 0x5
 5692 0137 49       		.uleb128 0x49
 5693 0138 13       		.uleb128 0x13
 5694 0139 02       		.uleb128 0x2
 5695 013a 18       		.uleb128 0x18
 5696 013b 00       		.byte	0
 5697 013c 00       		.byte	0
 5698 013d 18       		.uleb128 0x18
 5699 013e 05       		.uleb128 0x5
 5700 013f 00       		.byte	0
ARM GAS  /var/folders/m4/4md61f0s1_g0rzfghffqnxvr0000gn/T//ccmqP2UT.s 			page 101


 5701 0140 03       		.uleb128 0x3
 5702 0141 0E       		.uleb128 0xe
 5703 0142 3A       		.uleb128 0x3a
 5704 0143 0B       		.uleb128 0xb
 5705 0144 3B       		.uleb128 0x3b
 5706 0145 05       		.uleb128 0x5
 5707 0146 49       		.uleb128 0x49
 5708 0147 13       		.uleb128 0x13
 5709 0148 02       		.uleb128 0x2
 5710 0149 17       		.uleb128 0x17
 5711 014a 00       		.byte	0
 5712 014b 00       		.byte	0
 5713 014c 19       		.uleb128 0x19
 5714 014d 34       		.uleb128 0x34
 5715 014e 00       		.byte	0
 5716 014f 03       		.uleb128 0x3
 5717 0150 0E       		.uleb128 0xe
 5718 0151 3A       		.uleb128 0x3a
 5719 0152 0B       		.uleb128 0xb
 5720 0153 3B       		.uleb128 0x3b
 5721 0154 05       		.uleb128 0x5
 5722 0155 49       		.uleb128 0x49
 5723 0156 13       		.uleb128 0x13
 5724 0157 02       		.uleb128 0x2
 5725 0158 17       		.uleb128 0x17
 5726 0159 00       		.byte	0
 5727 015a 00       		.byte	0
 5728 015b 1A       		.uleb128 0x1a
 5729 015c 898201   		.uleb128 0x4109
 5730 015f 01       		.byte	0x1
 5731 0160 11       		.uleb128 0x11
 5732 0161 01       		.uleb128 0x1
 5733 0162 31       		.uleb128 0x31
 5734 0163 13       		.uleb128 0x13
 5735 0164 00       		.byte	0
 5736 0165 00       		.byte	0
 5737 0166 1B       		.uleb128 0x1b
 5738 0167 2E       		.uleb128 0x2e
 5739 0168 01       		.byte	0x1
 5740 0169 3F       		.uleb128 0x3f
 5741 016a 19       		.uleb128 0x19
 5742 016b 03       		.uleb128 0x3
 5743 016c 0E       		.uleb128 0xe
 5744 016d 3A       		.uleb128 0x3a
 5745 016e 0B       		.uleb128 0xb
 5746 016f 3B       		.uleb128 0x3b
 5747 0170 05       		.uleb128 0x5
 5748 0171 27       		.uleb128 0x27
 5749 0172 19       		.uleb128 0x19
 5750 0173 49       		.uleb128 0x49
 5751 0174 13       		.uleb128 0x13
 5752 0175 11       		.uleb128 0x11
 5753 0176 01       		.uleb128 0x1
 5754 0177 12       		.uleb128 0x12
 5755 0178 06       		.uleb128 0x6
 5756 0179 40       		.uleb128 0x40
 5757 017a 18       		.uleb128 0x18
ARM GAS  /var/folders/m4/4md61f0s1_g0rzfghffqnxvr0000gn/T//ccmqP2UT.s 			page 102


 5758 017b 9742     		.uleb128 0x2117
 5759 017d 19       		.uleb128 0x19
 5760 017e 01       		.uleb128 0x1
 5761 017f 13       		.uleb128 0x13
 5762 0180 00       		.byte	0
 5763 0181 00       		.byte	0
 5764 0182 1C       		.uleb128 0x1c
 5765 0183 2E       		.uleb128 0x2e
 5766 0184 00       		.byte	0
 5767 0185 3F       		.uleb128 0x3f
 5768 0186 19       		.uleb128 0x19
 5769 0187 03       		.uleb128 0x3
 5770 0188 0E       		.uleb128 0xe
 5771 0189 3A       		.uleb128 0x3a
 5772 018a 0B       		.uleb128 0xb
 5773 018b 3B       		.uleb128 0x3b
 5774 018c 05       		.uleb128 0x5
 5775 018d 27       		.uleb128 0x27
 5776 018e 19       		.uleb128 0x19
 5777 018f 49       		.uleb128 0x49
 5778 0190 13       		.uleb128 0x13
 5779 0191 11       		.uleb128 0x11
 5780 0192 01       		.uleb128 0x1
 5781 0193 12       		.uleb128 0x12
 5782 0194 06       		.uleb128 0x6
 5783 0195 40       		.uleb128 0x40
 5784 0196 18       		.uleb128 0x18
 5785 0197 9742     		.uleb128 0x2117
 5786 0199 19       		.uleb128 0x19
 5787 019a 00       		.byte	0
 5788 019b 00       		.byte	0
 5789 019c 1D       		.uleb128 0x1d
 5790 019d 34       		.uleb128 0x34
 5791 019e 00       		.byte	0
 5792 019f 03       		.uleb128 0x3
 5793 01a0 08       		.uleb128 0x8
 5794 01a1 3A       		.uleb128 0x3a
 5795 01a2 0B       		.uleb128 0xb
 5796 01a3 3B       		.uleb128 0x3b
 5797 01a4 05       		.uleb128 0x5
 5798 01a5 49       		.uleb128 0x49
 5799 01a6 13       		.uleb128 0x13
 5800 01a7 02       		.uleb128 0x2
 5801 01a8 18       		.uleb128 0x18
 5802 01a9 00       		.byte	0
 5803 01aa 00       		.byte	0
 5804 01ab 1E       		.uleb128 0x1e
 5805 01ac 34       		.uleb128 0x34
 5806 01ad 00       		.byte	0
 5807 01ae 03       		.uleb128 0x3
 5808 01af 0E       		.uleb128 0xe
 5809 01b0 3A       		.uleb128 0x3a
 5810 01b1 0B       		.uleb128 0xb
 5811 01b2 3B       		.uleb128 0x3b
 5812 01b3 05       		.uleb128 0x5
 5813 01b4 49       		.uleb128 0x49
 5814 01b5 13       		.uleb128 0x13
ARM GAS  /var/folders/m4/4md61f0s1_g0rzfghffqnxvr0000gn/T//ccmqP2UT.s 			page 103


 5815 01b6 3F       		.uleb128 0x3f
 5816 01b7 19       		.uleb128 0x19
 5817 01b8 3C       		.uleb128 0x3c
 5818 01b9 19       		.uleb128 0x19
 5819 01ba 00       		.byte	0
 5820 01bb 00       		.byte	0
 5821 01bc 1F       		.uleb128 0x1f
 5822 01bd 2E       		.uleb128 0x2e
 5823 01be 00       		.byte	0
 5824 01bf 3F       		.uleb128 0x3f
 5825 01c0 19       		.uleb128 0x19
 5826 01c1 3C       		.uleb128 0x3c
 5827 01c2 19       		.uleb128 0x19
 5828 01c3 6E       		.uleb128 0x6e
 5829 01c4 0E       		.uleb128 0xe
 5830 01c5 03       		.uleb128 0x3
 5831 01c6 0E       		.uleb128 0xe
 5832 01c7 3A       		.uleb128 0x3a
 5833 01c8 0B       		.uleb128 0xb
 5834 01c9 3B       		.uleb128 0x3b
 5835 01ca 05       		.uleb128 0x5
 5836 01cb 00       		.byte	0
 5837 01cc 00       		.byte	0
 5838 01cd 20       		.uleb128 0x20
 5839 01ce 2E       		.uleb128 0x2e
 5840 01cf 00       		.byte	0
 5841 01d0 3F       		.uleb128 0x3f
 5842 01d1 19       		.uleb128 0x19
 5843 01d2 3C       		.uleb128 0x3c
 5844 01d3 19       		.uleb128 0x19
 5845 01d4 6E       		.uleb128 0x6e
 5846 01d5 0E       		.uleb128 0xe
 5847 01d6 03       		.uleb128 0x3
 5848 01d7 0E       		.uleb128 0xe
 5849 01d8 3A       		.uleb128 0x3a
 5850 01d9 0B       		.uleb128 0xb
 5851 01da 3B       		.uleb128 0x3b
 5852 01db 0B       		.uleb128 0xb
 5853 01dc 00       		.byte	0
 5854 01dd 00       		.byte	0
 5855 01de 00       		.byte	0
 5856              		.section	.debug_loc,"",%progbits
 5857              	.Ldebug_loc0:
 5858              	.LLST0:
 5859 0000 00000000 		.4byte	.LVL2
 5860 0004 16000000 		.4byte	.LVL3
 5861 0008 0100     		.2byte	0x1
 5862 000a 50       		.byte	0x50
 5863 000b 16000000 		.4byte	.LVL3
 5864 000f D4000000 		.4byte	.LVL23
 5865 0013 0100     		.2byte	0x1
 5866 0015 55       		.byte	0x55
 5867 0016 D4000000 		.4byte	.LVL23
 5868 001a D6000000 		.4byte	.LVL24
 5869 001e 0100     		.2byte	0x1
 5870 0020 50       		.byte	0x50
 5871 0021 D6000000 		.4byte	.LVL24
ARM GAS  /var/folders/m4/4md61f0s1_g0rzfghffqnxvr0000gn/T//ccmqP2UT.s 			page 104


 5872 0025 FC000000 		.4byte	.LFE124
 5873 0029 0100     		.2byte	0x1
 5874 002b 55       		.byte	0x55
 5875 002c 00000000 		.4byte	0
 5876 0030 00000000 		.4byte	0
 5877              	.LLST1:
 5878 0034 00000000 		.4byte	.LVL2
 5879 0038 21000000 		.4byte	.LVL4-1
 5880 003c 0100     		.2byte	0x1
 5881 003e 51       		.byte	0x51
 5882 003f 21000000 		.4byte	.LVL4-1
 5883 0043 D4000000 		.4byte	.LVL23
 5884 0047 0100     		.2byte	0x1
 5885 0049 54       		.byte	0x54
 5886 004a D4000000 		.4byte	.LVL23
 5887 004e D8000000 		.4byte	.LVL25
 5888 0052 0100     		.2byte	0x1
 5889 0054 51       		.byte	0x51
 5890 0055 D8000000 		.4byte	.LVL25
 5891 0059 FC000000 		.4byte	.LFE124
 5892 005d 0100     		.2byte	0x1
 5893 005f 54       		.byte	0x54
 5894 0060 00000000 		.4byte	0
 5895 0064 00000000 		.4byte	0
 5896              	.LLST2:
 5897 0068 00000000 		.4byte	.LVL2
 5898 006c 8E000000 		.4byte	.LVL12
 5899 0070 0200     		.2byte	0x2
 5900 0072 30       		.byte	0x30
 5901 0073 9F       		.byte	0x9f
 5902 0074 8E000000 		.4byte	.LVL12
 5903 0078 9E000000 		.4byte	.LVL13
 5904 007c 0900     		.2byte	0x9
 5905 007e 71       		.byte	0x71
 5906 007f 00       		.sleb128 0
 5907 0080 11       		.byte	0x11
 5908 0081 FFFDFF67 		.sleb128 -50331905
 5909 0085 1A       		.byte	0x1a
 5910 0086 9F       		.byte	0x9f
 5911 0087 A8000000 		.4byte	.LVL14
 5912 008b AC000000 		.4byte	.LVL15
 5913 008f 0100     		.2byte	0x1
 5914 0091 52       		.byte	0x52
 5915 0092 AC000000 		.4byte	.LVL15
 5916 0096 B8000000 		.4byte	.LVL16
 5917 009a 0A00     		.2byte	0xa
 5918 009c 77       		.byte	0x77
 5919 009d 00       		.sleb128 0
 5920 009e 11       		.byte	0x11
 5921 009f FDEFFF87 		.sleb128 -1056966659
 5921      7C
 5922 00a4 1A       		.byte	0x1a
 5923 00a5 9F       		.byte	0x9f
 5924 00a6 B8000000 		.4byte	.LVL16
 5925 00aa BA000000 		.4byte	.LVL17
 5926 00ae 0100     		.2byte	0x1
 5927 00b0 53       		.byte	0x53
ARM GAS  /var/folders/m4/4md61f0s1_g0rzfghffqnxvr0000gn/T//ccmqP2UT.s 			page 105


 5928 00b1 BA000000 		.4byte	.LVL17
 5929 00b5 BE000000 		.4byte	.LVL18
 5930 00b9 0A00     		.2byte	0xa
 5931 00bb 77       		.byte	0x77
 5932 00bc 00       		.sleb128 0
 5933 00bd 11       		.byte	0x11
 5934 00be FDEFFF87 		.sleb128 -1056966659
 5934      7C
 5935 00c3 1A       		.byte	0x1a
 5936 00c4 9F       		.byte	0x9f
 5937 00c5 BE000000 		.4byte	.LVL18
 5938 00c9 D4000000 		.4byte	.LVL23
 5939 00cd 0100     		.2byte	0x1
 5940 00cf 53       		.byte	0x53
 5941 00d0 D4000000 		.4byte	.LVL23
 5942 00d4 FC000000 		.4byte	.LFE124
 5943 00d8 0200     		.2byte	0x2
 5944 00da 30       		.byte	0x30
 5945 00db 9F       		.byte	0x9f
 5946 00dc 00000000 		.4byte	0
 5947 00e0 00000000 		.4byte	0
 5948              	.LLST3:
 5949 00e4 00000000 		.4byte	.LVL2
 5950 00e8 CC000000 		.4byte	.LVL20
 5951 00ec 0200     		.2byte	0x2
 5952 00ee 30       		.byte	0x30
 5953 00ef 9F       		.byte	0x9f
 5954 00f0 CC000000 		.4byte	.LVL20
 5955 00f4 D2000000 		.4byte	.LVL22
 5956 00f8 0700     		.2byte	0x7
 5957 00fa 74       		.byte	0x74
 5958 00fb 14       		.sleb128 20
 5959 00fc 94       		.byte	0x94
 5960 00fd 01       		.byte	0x1
 5961 00fe 31       		.byte	0x31
 5962 00ff 1C       		.byte	0x1c
 5963 0100 9F       		.byte	0x9f
 5964 0101 D4000000 		.4byte	.LVL23
 5965 0105 FC000000 		.4byte	.LFE124
 5966 0109 0200     		.2byte	0x2
 5967 010b 30       		.byte	0x30
 5968 010c 9F       		.byte	0x9f
 5969 010d 00000000 		.4byte	0
 5970 0111 00000000 		.4byte	0
 5971              	.LLST4:
 5972 0115 00000000 		.4byte	.LVL27
 5973 0119 06000000 		.4byte	.LVL28
 5974 011d 0100     		.2byte	0x1
 5975 011f 50       		.byte	0x50
 5976 0120 06000000 		.4byte	.LVL28
 5977 0124 56000000 		.4byte	.LVL33
 5978 0128 0100     		.2byte	0x1
 5979 012a 54       		.byte	0x54
 5980 012b 56000000 		.4byte	.LVL33
 5981 012f 64000000 		.4byte	.LVL36
 5982 0133 0400     		.2byte	0x4
 5983 0135 F3       		.byte	0xf3
ARM GAS  /var/folders/m4/4md61f0s1_g0rzfghffqnxvr0000gn/T//ccmqP2UT.s 			page 106


 5984 0136 01       		.uleb128 0x1
 5985 0137 50       		.byte	0x50
 5986 0138 9F       		.byte	0x9f
 5987 0139 64000000 		.4byte	.LVL36
 5988 013d 88000000 		.4byte	.LFE126
 5989 0141 0100     		.2byte	0x1
 5990 0143 54       		.byte	0x54
 5991 0144 00000000 		.4byte	0
 5992 0148 00000000 		.4byte	0
 5993              	.LLST5:
 5994 014c 00000000 		.4byte	.LVL27
 5995 0150 56000000 		.4byte	.LVL33
 5996 0154 0200     		.2byte	0x2
 5997 0156 30       		.byte	0x30
 5998 0157 9F       		.byte	0x9f
 5999 0158 56000000 		.4byte	.LVL33
 6000 015c 5E000000 		.4byte	.LVL34
 6001 0160 0100     		.2byte	0x1
 6002 0162 54       		.byte	0x54
 6003 0163 5E000000 		.4byte	.LVL34
 6004 0167 64000000 		.4byte	.LVL36
 6005 016b 0100     		.2byte	0x1
 6006 016d 53       		.byte	0x53
 6007 016e 64000000 		.4byte	.LVL36
 6008 0172 88000000 		.4byte	.LFE126
 6009 0176 0200     		.2byte	0x2
 6010 0178 30       		.byte	0x30
 6011 0179 9F       		.byte	0x9f
 6012 017a 00000000 		.4byte	0
 6013 017e 00000000 		.4byte	0
 6014              	.LLST6:
 6015 0182 00000000 		.4byte	.LVL38
 6016 0186 16000000 		.4byte	.LVL39
 6017 018a 0100     		.2byte	0x1
 6018 018c 50       		.byte	0x50
 6019 018d 16000000 		.4byte	.LVL39
 6020 0191 42000000 		.4byte	.LVL43
 6021 0195 0100     		.2byte	0x1
 6022 0197 54       		.byte	0x54
 6023 0198 42000000 		.4byte	.LVL43
 6024 019c 44000000 		.4byte	.LVL44
 6025 01a0 0100     		.2byte	0x1
 6026 01a2 50       		.byte	0x50
 6027 01a3 44000000 		.4byte	.LVL44
 6028 01a7 50000000 		.4byte	.LFE128
 6029 01ab 0100     		.2byte	0x1
 6030 01ad 54       		.byte	0x54
 6031 01ae 00000000 		.4byte	0
 6032 01b2 00000000 		.4byte	0
 6033              	.LLST7:
 6034 01b6 00000000 		.4byte	.LVL38
 6035 01ba 21000000 		.4byte	.LVL40-1
 6036 01be 0100     		.2byte	0x1
 6037 01c0 51       		.byte	0x51
 6038 01c1 21000000 		.4byte	.LVL40-1
 6039 01c5 42000000 		.4byte	.LVL43
 6040 01c9 0400     		.2byte	0x4
ARM GAS  /var/folders/m4/4md61f0s1_g0rzfghffqnxvr0000gn/T//ccmqP2UT.s 			page 107


 6041 01cb F3       		.byte	0xf3
 6042 01cc 01       		.uleb128 0x1
 6043 01cd 51       		.byte	0x51
 6044 01ce 9F       		.byte	0x9f
 6045 01cf 42000000 		.4byte	.LVL43
 6046 01d3 50000000 		.4byte	.LFE128
 6047 01d7 0100     		.2byte	0x1
 6048 01d9 51       		.byte	0x51
 6049 01da 00000000 		.4byte	0
 6050 01de 00000000 		.4byte	0
 6051              	.LLST8:
 6052 01e2 00000000 		.4byte	.LVL45
 6053 01e6 16000000 		.4byte	.LVL46
 6054 01ea 0100     		.2byte	0x1
 6055 01ec 50       		.byte	0x50
 6056 01ed 16000000 		.4byte	.LVL46
 6057 01f1 5E000000 		.4byte	.LVL53
 6058 01f5 0100     		.2byte	0x1
 6059 01f7 54       		.byte	0x54
 6060 01f8 5E000000 		.4byte	.LVL53
 6061 01fc 60000000 		.4byte	.LVL54
 6062 0200 0100     		.2byte	0x1
 6063 0202 50       		.byte	0x50
 6064 0203 60000000 		.4byte	.LVL54
 6065 0207 70000000 		.4byte	.LFE129
 6066 020b 0100     		.2byte	0x1
 6067 020d 54       		.byte	0x54
 6068 020e 00000000 		.4byte	0
 6069 0212 00000000 		.4byte	0
 6070              	.LLST9:
 6071 0216 00000000 		.4byte	.LVL45
 6072 021a 21000000 		.4byte	.LVL47-1
 6073 021e 0100     		.2byte	0x1
 6074 0220 51       		.byte	0x51
 6075 0221 21000000 		.4byte	.LVL47-1
 6076 0225 5E000000 		.4byte	.LVL53
 6077 0229 0100     		.2byte	0x1
 6078 022b 55       		.byte	0x55
 6079 022c 5E000000 		.4byte	.LVL53
 6080 0230 70000000 		.4byte	.LFE129
 6081 0234 0100     		.2byte	0x1
 6082 0236 51       		.byte	0x51
 6083 0237 00000000 		.4byte	0
 6084 023b 00000000 		.4byte	0
 6085              	.LLST10:
 6086 023f 00000000 		.4byte	.LVL45
 6087 0243 4C000000 		.4byte	.LVL49
 6088 0247 0200     		.2byte	0x2
 6089 0249 30       		.byte	0x30
 6090 024a 9F       		.byte	0x9f
 6091 024b 4C000000 		.4byte	.LVL49
 6092 024f 54000000 		.4byte	.LVL50
 6093 0253 0100     		.2byte	0x1
 6094 0255 52       		.byte	0x52
 6095 0256 54000000 		.4byte	.LVL50
 6096 025a 5A000000 		.4byte	.LVL52
 6097 025e 0100     		.2byte	0x1
ARM GAS  /var/folders/m4/4md61f0s1_g0rzfghffqnxvr0000gn/T//ccmqP2UT.s 			page 108


 6098 0260 53       		.byte	0x53
 6099 0261 5A000000 		.4byte	.LVL52
 6100 0265 70000000 		.4byte	.LFE129
 6101 0269 0200     		.2byte	0x2
 6102 026b 30       		.byte	0x30
 6103 026c 9F       		.byte	0x9f
 6104 026d 00000000 		.4byte	0
 6105 0271 00000000 		.4byte	0
 6106              	.LLST11:
 6107 0275 00000000 		.4byte	.LVL55
 6108 0279 18000000 		.4byte	.LVL56
 6109 027d 0100     		.2byte	0x1
 6110 027f 50       		.byte	0x50
 6111 0280 18000000 		.4byte	.LVL56
 6112 0284 46000000 		.4byte	.LVL60
 6113 0288 0100     		.2byte	0x1
 6114 028a 54       		.byte	0x54
 6115 028b 46000000 		.4byte	.LVL60
 6116 028f 48000000 		.4byte	.LVL61
 6117 0293 0100     		.2byte	0x1
 6118 0295 50       		.byte	0x50
 6119 0296 48000000 		.4byte	.LVL61
 6120 029a 54000000 		.4byte	.LFE130
 6121 029e 0100     		.2byte	0x1
 6122 02a0 54       		.byte	0x54
 6123 02a1 00000000 		.4byte	0
 6124 02a5 00000000 		.4byte	0
 6125              	.LLST12:
 6126 02a9 00000000 		.4byte	.LVL55
 6127 02ad 27000000 		.4byte	.LVL57-1
 6128 02b1 0100     		.2byte	0x1
 6129 02b3 51       		.byte	0x51
 6130 02b4 27000000 		.4byte	.LVL57-1
 6131 02b8 46000000 		.4byte	.LVL60
 6132 02bc 0400     		.2byte	0x4
 6133 02be F3       		.byte	0xf3
 6134 02bf 01       		.uleb128 0x1
 6135 02c0 51       		.byte	0x51
 6136 02c1 9F       		.byte	0x9f
 6137 02c2 46000000 		.4byte	.LVL60
 6138 02c6 54000000 		.4byte	.LFE130
 6139 02ca 0100     		.2byte	0x1
 6140 02cc 51       		.byte	0x51
 6141 02cd 00000000 		.4byte	0
 6142 02d1 00000000 		.4byte	0
 6143              	.LLST13:
 6144 02d5 00000000 		.4byte	.LVL55
 6145 02d9 27000000 		.4byte	.LVL57-1
 6146 02dd 0100     		.2byte	0x1
 6147 02df 52       		.byte	0x52
 6148 02e0 27000000 		.4byte	.LVL57-1
 6149 02e4 46000000 		.4byte	.LVL60
 6150 02e8 0400     		.2byte	0x4
 6151 02ea F3       		.byte	0xf3
 6152 02eb 01       		.uleb128 0x1
 6153 02ec 52       		.byte	0x52
 6154 02ed 9F       		.byte	0x9f
ARM GAS  /var/folders/m4/4md61f0s1_g0rzfghffqnxvr0000gn/T//ccmqP2UT.s 			page 109


 6155 02ee 46000000 		.4byte	.LVL60
 6156 02f2 54000000 		.4byte	.LFE130
 6157 02f6 0100     		.2byte	0x1
 6158 02f8 52       		.byte	0x52
 6159 02f9 00000000 		.4byte	0
 6160 02fd 00000000 		.4byte	0
 6161              	.LLST14:
 6162 0301 00000000 		.4byte	.LVL62
 6163 0305 16000000 		.4byte	.LVL63
 6164 0309 0100     		.2byte	0x1
 6165 030b 50       		.byte	0x50
 6166 030c 16000000 		.4byte	.LVL63
 6167 0310 3A000000 		.4byte	.LVL69
 6168 0314 0100     		.2byte	0x1
 6169 0316 54       		.byte	0x54
 6170 0317 3A000000 		.4byte	.LVL69
 6171 031b 3C000000 		.4byte	.LVL70
 6172 031f 0100     		.2byte	0x1
 6173 0321 50       		.byte	0x50
 6174 0322 3C000000 		.4byte	.LVL70
 6175 0326 48000000 		.4byte	.LFE131
 6176 032a 0100     		.2byte	0x1
 6177 032c 54       		.byte	0x54
 6178 032d 00000000 		.4byte	0
 6179 0331 00000000 		.4byte	0
 6180              	.LLST15:
 6181 0335 00000000 		.4byte	.LVL62
 6182 0339 21000000 		.4byte	.LVL64-1
 6183 033d 0100     		.2byte	0x1
 6184 033f 51       		.byte	0x51
 6185 0340 21000000 		.4byte	.LVL64-1
 6186 0344 3A000000 		.4byte	.LVL69
 6187 0348 0400     		.2byte	0x4
 6188 034a F3       		.byte	0xf3
 6189 034b 01       		.uleb128 0x1
 6190 034c 51       		.byte	0x51
 6191 034d 9F       		.byte	0x9f
 6192 034e 3A000000 		.4byte	.LVL69
 6193 0352 48000000 		.4byte	.LFE131
 6194 0356 0100     		.2byte	0x1
 6195 0358 51       		.byte	0x51
 6196 0359 00000000 		.4byte	0
 6197 035d 00000000 		.4byte	0
 6198              	.LLST16:
 6199 0361 00000000 		.4byte	.LVL62
 6200 0365 30000000 		.4byte	.LVL66
 6201 0369 0200     		.2byte	0x2
 6202 036b 30       		.byte	0x30
 6203 036c 9F       		.byte	0x9f
 6204 036d 30000000 		.4byte	.LVL66
 6205 0371 3A000000 		.4byte	.LVL69
 6206 0375 0100     		.2byte	0x1
 6207 0377 51       		.byte	0x51
 6208 0378 3A000000 		.4byte	.LVL69
 6209 037c 48000000 		.4byte	.LFE131
 6210 0380 0200     		.2byte	0x2
 6211 0382 30       		.byte	0x30
ARM GAS  /var/folders/m4/4md61f0s1_g0rzfghffqnxvr0000gn/T//ccmqP2UT.s 			page 110


 6212 0383 9F       		.byte	0x9f
 6213 0384 00000000 		.4byte	0
 6214 0388 00000000 		.4byte	0
 6215              	.LLST17:
 6216 038c 00000000 		.4byte	.LVL71
 6217 0390 0A000000 		.4byte	.LVL72
 6218 0394 0100     		.2byte	0x1
 6219 0396 50       		.byte	0x50
 6220 0397 0A000000 		.4byte	.LVL72
 6221 039b 2C000000 		.4byte	.LFE132
 6222 039f 0400     		.2byte	0x4
 6223 03a1 F3       		.byte	0xf3
 6224 03a2 01       		.uleb128 0x1
 6225 03a3 50       		.byte	0x50
 6226 03a4 9F       		.byte	0x9f
 6227 03a5 00000000 		.4byte	0
 6228 03a9 00000000 		.4byte	0
 6229              	.LLST18:
 6230 03ad 00000000 		.4byte	.LVL74
 6231 03b1 0A000000 		.4byte	.LVL75
 6232 03b5 0100     		.2byte	0x1
 6233 03b7 50       		.byte	0x50
 6234 03b8 0A000000 		.4byte	.LVL75
 6235 03bc 2C000000 		.4byte	.LFE133
 6236 03c0 0400     		.2byte	0x4
 6237 03c2 F3       		.byte	0xf3
 6238 03c3 01       		.uleb128 0x1
 6239 03c4 50       		.byte	0x50
 6240 03c5 9F       		.byte	0x9f
 6241 03c6 00000000 		.4byte	0
 6242 03ca 00000000 		.4byte	0
 6243              	.LLST19:
 6244 03ce 00000000 		.4byte	.LVL77
 6245 03d2 1A000000 		.4byte	.LVL79
 6246 03d6 0100     		.2byte	0x1
 6247 03d8 50       		.byte	0x50
 6248 03d9 1A000000 		.4byte	.LVL79
 6249 03dd E6000000 		.4byte	.LVL106
 6250 03e1 0100     		.2byte	0x1
 6251 03e3 55       		.byte	0x55
 6252 03e4 E6000000 		.4byte	.LVL106
 6253 03e8 E8000000 		.4byte	.LVL107
 6254 03ec 0100     		.2byte	0x1
 6255 03ee 50       		.byte	0x50
 6256 03ef E8000000 		.4byte	.LVL107
 6257 03f3 F8000000 		.4byte	.LFE134
 6258 03f7 0100     		.2byte	0x1
 6259 03f9 55       		.byte	0x55
 6260 03fa 00000000 		.4byte	0
 6261 03fe 00000000 		.4byte	0
 6262              	.LLST20:
 6263 0402 00000000 		.4byte	.LVL77
 6264 0406 25000000 		.4byte	.LVL80-1
 6265 040a 0100     		.2byte	0x1
 6266 040c 51       		.byte	0x51
 6267 040d 25000000 		.4byte	.LVL80-1
 6268 0411 E6000000 		.4byte	.LVL106
ARM GAS  /var/folders/m4/4md61f0s1_g0rzfghffqnxvr0000gn/T//ccmqP2UT.s 			page 111


 6269 0415 0400     		.2byte	0x4
 6270 0417 F3       		.byte	0xf3
 6271 0418 01       		.uleb128 0x1
 6272 0419 51       		.byte	0x51
 6273 041a 9F       		.byte	0x9f
 6274 041b E6000000 		.4byte	.LVL106
 6275 041f F8000000 		.4byte	.LFE134
 6276 0423 0100     		.2byte	0x1
 6277 0425 51       		.byte	0x51
 6278 0426 00000000 		.4byte	0
 6279 042a 00000000 		.4byte	0
 6280              	.LLST21:
 6281 042e 00000000 		.4byte	.LVL77
 6282 0432 25000000 		.4byte	.LVL80-1
 6283 0436 0100     		.2byte	0x1
 6284 0438 52       		.byte	0x52
 6285 0439 25000000 		.4byte	.LVL80-1
 6286 043d E6000000 		.4byte	.LVL106
 6287 0441 0400     		.2byte	0x4
 6288 0443 F3       		.byte	0xf3
 6289 0444 01       		.uleb128 0x1
 6290 0445 52       		.byte	0x52
 6291 0446 9F       		.byte	0x9f
 6292 0447 E6000000 		.4byte	.LVL106
 6293 044b F8000000 		.4byte	.LFE134
 6294 044f 0100     		.2byte	0x1
 6295 0451 52       		.byte	0x52
 6296 0452 00000000 		.4byte	0
 6297 0456 00000000 		.4byte	0
 6298              	.LLST22:
 6299 045a 00000000 		.4byte	.LVL77
 6300 045e 14000000 		.4byte	.LVL78
 6301 0462 0100     		.2byte	0x1
 6302 0464 53       		.byte	0x53
 6303 0465 14000000 		.4byte	.LVL78
 6304 0469 F8000000 		.4byte	.LFE134
 6305 046d 0400     		.2byte	0x4
 6306 046f F3       		.byte	0xf3
 6307 0470 01       		.uleb128 0x1
 6308 0471 53       		.byte	0x53
 6309 0472 9F       		.byte	0x9f
 6310 0473 00000000 		.4byte	0
 6311 0477 00000000 		.4byte	0
 6312              	.LLST23:
 6313 047b 00000000 		.4byte	.LVL77
 6314 047f 5E000000 		.4byte	.LVL84
 6315 0483 0200     		.2byte	0x2
 6316 0485 30       		.byte	0x30
 6317 0486 9F       		.byte	0x9f
 6318 0487 5E000000 		.4byte	.LVL84
 6319 048b 6A000000 		.4byte	.LVL86
 6320 048f 0100     		.2byte	0x1
 6321 0491 52       		.byte	0x52
 6322 0492 6A000000 		.4byte	.LVL86
 6323 0496 8C000000 		.4byte	.LVL90
 6324 049a 0100     		.2byte	0x1
 6325 049c 53       		.byte	0x53
ARM GAS  /var/folders/m4/4md61f0s1_g0rzfghffqnxvr0000gn/T//ccmqP2UT.s 			page 112


 6326 049d 8C000000 		.4byte	.LVL90
 6327 04a1 8E000000 		.4byte	.LVL91
 6328 04a5 0100     		.2byte	0x1
 6329 04a7 56       		.byte	0x56
 6330 04a8 8E000000 		.4byte	.LVL91
 6331 04ac 94000000 		.4byte	.LVL92
 6332 04b0 0100     		.2byte	0x1
 6333 04b2 54       		.byte	0x54
 6334 04b3 94000000 		.4byte	.LVL92
 6335 04b7 9A000000 		.4byte	.LVL93
 6336 04bb 0200     		.2byte	0x2
 6337 04bd 30       		.byte	0x30
 6338 04be 9F       		.byte	0x9f
 6339 04bf 9A000000 		.4byte	.LVL93
 6340 04c3 A6000000 		.4byte	.LVL95
 6341 04c7 0100     		.2byte	0x1
 6342 04c9 52       		.byte	0x52
 6343 04ca A6000000 		.4byte	.LVL95
 6344 04ce C2000000 		.4byte	.LVL99
 6345 04d2 0100     		.2byte	0x1
 6346 04d4 53       		.byte	0x53
 6347 04d5 C2000000 		.4byte	.LVL99
 6348 04d9 C4000000 		.4byte	.LVL100
 6349 04dd 0100     		.2byte	0x1
 6350 04df 56       		.byte	0x56
 6351 04e0 C4000000 		.4byte	.LVL100
 6352 04e4 CA000000 		.4byte	.LVL101
 6353 04e8 0100     		.2byte	0x1
 6354 04ea 57       		.byte	0x57
 6355 04eb CA000000 		.4byte	.LVL101
 6356 04ef DE000000 		.4byte	.LVL104
 6357 04f3 0100     		.2byte	0x1
 6358 04f5 53       		.byte	0x53
 6359 04f6 DE000000 		.4byte	.LVL104
 6360 04fa E0000000 		.4byte	.LVL105
 6361 04fe 0100     		.2byte	0x1
 6362 0500 56       		.byte	0x56
 6363 0501 E0000000 		.4byte	.LVL105
 6364 0505 E6000000 		.4byte	.LVL106
 6365 0509 0100     		.2byte	0x1
 6366 050b 54       		.byte	0x54
 6367 050c E6000000 		.4byte	.LVL106
 6368 0510 F8000000 		.4byte	.LFE134
 6369 0514 0200     		.2byte	0x2
 6370 0516 30       		.byte	0x30
 6371 0517 9F       		.byte	0x9f
 6372 0518 00000000 		.4byte	0
 6373 051c 00000000 		.4byte	0
 6374              	.LLST24:
 6375 0520 00000000 		.4byte	.LVL77
 6376 0524 5E000000 		.4byte	.LVL84
 6377 0528 0200     		.2byte	0x2
 6378 052a 30       		.byte	0x30
 6379 052b 9F       		.byte	0x9f
 6380 052c 5E000000 		.4byte	.LVL84
 6381 0530 62000000 		.4byte	.LVL85
 6382 0534 0500     		.2byte	0x5
ARM GAS  /var/folders/m4/4md61f0s1_g0rzfghffqnxvr0000gn/T//ccmqP2UT.s 			page 113


 6383 0536 37       		.byte	0x37
 6384 0537 73       		.byte	0x73
 6385 0538 00       		.sleb128 0
 6386 0539 24       		.byte	0x24
 6387 053a 9F       		.byte	0x9f
 6388 053b 62000000 		.4byte	.LVL85
 6389 053f 6A000000 		.4byte	.LVL86
 6390 0543 0100     		.2byte	0x1
 6391 0545 51       		.byte	0x51
 6392 0546 80000000 		.4byte	.LVL88
 6393 054a 84000000 		.4byte	.LVL89
 6394 054e 0500     		.2byte	0x5
 6395 0550 4F       		.byte	0x4f
 6396 0551 74       		.byte	0x74
 6397 0552 00       		.sleb128 0
 6398 0553 24       		.byte	0x24
 6399 0554 9F       		.byte	0x9f
 6400 0555 84000000 		.4byte	.LVL89
 6401 0559 8C000000 		.4byte	.LVL90
 6402 055d 0100     		.2byte	0x1
 6403 055f 51       		.byte	0x51
 6404 0560 94000000 		.4byte	.LVL92
 6405 0564 9A000000 		.4byte	.LVL93
 6406 0568 0200     		.2byte	0x2
 6407 056a 30       		.byte	0x30
 6408 056b 9F       		.byte	0x9f
 6409 056c 9A000000 		.4byte	.LVL93
 6410 0570 9E000000 		.4byte	.LVL94
 6411 0574 0500     		.2byte	0x5
 6412 0576 37       		.byte	0x37
 6413 0577 71       		.byte	0x71
 6414 0578 00       		.sleb128 0
 6415 0579 24       		.byte	0x24
 6416 057a 9F       		.byte	0x9f
 6417 057b 9E000000 		.4byte	.LVL94
 6418 057f A6000000 		.4byte	.LVL95
 6419 0583 0100     		.2byte	0x1
 6420 0585 53       		.byte	0x53
 6421 0586 B6000000 		.4byte	.LVL97
 6422 058a BA000000 		.4byte	.LVL98
 6423 058e 0500     		.2byte	0x5
 6424 0590 4F       		.byte	0x4f
 6425 0591 77       		.byte	0x77
 6426 0592 00       		.sleb128 0
 6427 0593 24       		.byte	0x24
 6428 0594 9F       		.byte	0x9f
 6429 0595 BA000000 		.4byte	.LVL98
 6430 0599 C2000000 		.4byte	.LVL99
 6431 059d 0100     		.2byte	0x1
 6432 059f 51       		.byte	0x51
 6433 05a0 D2000000 		.4byte	.LVL102
 6434 05a4 D6000000 		.4byte	.LVL103
 6435 05a8 0500     		.2byte	0x5
 6436 05aa 4F       		.byte	0x4f
 6437 05ab 74       		.byte	0x74
 6438 05ac 00       		.sleb128 0
 6439 05ad 24       		.byte	0x24
ARM GAS  /var/folders/m4/4md61f0s1_g0rzfghffqnxvr0000gn/T//ccmqP2UT.s 			page 114


 6440 05ae 9F       		.byte	0x9f
 6441 05af D6000000 		.4byte	.LVL103
 6442 05b3 DE000000 		.4byte	.LVL104
 6443 05b7 0100     		.2byte	0x1
 6444 05b9 52       		.byte	0x52
 6445 05ba E6000000 		.4byte	.LVL106
 6446 05be F8000000 		.4byte	.LFE134
 6447 05c2 0200     		.2byte	0x2
 6448 05c4 30       		.byte	0x30
 6449 05c5 9F       		.byte	0x9f
 6450 05c6 00000000 		.4byte	0
 6451 05ca 00000000 		.4byte	0
 6452              	.LLST25:
 6453 05ce 00000000 		.4byte	.LVL108
 6454 05d2 14000000 		.4byte	.LVL109
 6455 05d6 0100     		.2byte	0x1
 6456 05d8 50       		.byte	0x50
 6457 05d9 14000000 		.4byte	.LVL109
 6458 05dd 2A000000 		.4byte	.LVL111
 6459 05e1 0100     		.2byte	0x1
 6460 05e3 54       		.byte	0x54
 6461 05e4 2A000000 		.4byte	.LVL111
 6462 05e8 2C000000 		.4byte	.LVL112
 6463 05ec 0100     		.2byte	0x1
 6464 05ee 50       		.byte	0x50
 6465 05ef 2C000000 		.4byte	.LVL112
 6466 05f3 38000000 		.4byte	.LFE135
 6467 05f7 0100     		.2byte	0x1
 6468 05f9 54       		.byte	0x54
 6469 05fa 00000000 		.4byte	0
 6470 05fe 00000000 		.4byte	0
 6471              	.LLST26:
 6472 0602 00000000 		.4byte	.LVL113
 6473 0606 14000000 		.4byte	.LVL114
 6474 060a 0100     		.2byte	0x1
 6475 060c 50       		.byte	0x50
 6476 060d 14000000 		.4byte	.LVL114
 6477 0611 28000000 		.4byte	.LVL118
 6478 0615 0100     		.2byte	0x1
 6479 0617 54       		.byte	0x54
 6480 0618 28000000 		.4byte	.LVL118
 6481 061c 2A000000 		.4byte	.LVL119
 6482 0620 0100     		.2byte	0x1
 6483 0622 50       		.byte	0x50
 6484 0623 2A000000 		.4byte	.LVL119
 6485 0627 36000000 		.4byte	.LVL123
 6486 062b 0100     		.2byte	0x1
 6487 062d 54       		.byte	0x54
 6488 062e 36000000 		.4byte	.LVL123
 6489 0632 40000000 		.4byte	.LFE136
 6490 0636 0400     		.2byte	0x4
 6491 0638 F3       		.byte	0xf3
 6492 0639 01       		.uleb128 0x1
 6493 063a 50       		.byte	0x50
 6494 063b 9F       		.byte	0x9f
 6495 063c 00000000 		.4byte	0
 6496 0640 00000000 		.4byte	0
ARM GAS  /var/folders/m4/4md61f0s1_g0rzfghffqnxvr0000gn/T//ccmqP2UT.s 			page 115


 6497              	.LLST27:
 6498 0644 00000000 		.4byte	.LVL113
 6499 0648 22000000 		.4byte	.LVL116
 6500 064c 0200     		.2byte	0x2
 6501 064e 30       		.byte	0x30
 6502 064f 9F       		.byte	0x9f
 6503 0650 22000000 		.4byte	.LVL116
 6504 0654 26000000 		.4byte	.LVL117
 6505 0658 0900     		.2byte	0x9
 6506 065a 70       		.byte	0x70
 6507 065b 00       		.sleb128 0
 6508 065c 40       		.byte	0x40
 6509 065d 4A       		.byte	0x4a
 6510 065e 24       		.byte	0x24
 6511 065f 1A       		.byte	0x1a
 6512 0660 30       		.byte	0x30
 6513 0661 2E       		.byte	0x2e
 6514 0662 9F       		.byte	0x9f
 6515 0663 28000000 		.4byte	.LVL118
 6516 0667 30000000 		.4byte	.LVL121
 6517 066b 0200     		.2byte	0x2
 6518 066d 30       		.byte	0x30
 6519 066e 9F       		.byte	0x9f
 6520 066f 30000000 		.4byte	.LVL121
 6521 0673 34000000 		.4byte	.LVL122
 6522 0677 0900     		.2byte	0x9
 6523 0679 70       		.byte	0x70
 6524 067a 00       		.sleb128 0
 6525 067b 40       		.byte	0x40
 6526 067c 4A       		.byte	0x4a
 6527 067d 24       		.byte	0x24
 6528 067e 1A       		.byte	0x1a
 6529 067f 30       		.byte	0x30
 6530 0680 2E       		.byte	0x2e
 6531 0681 9F       		.byte	0x9f
 6532 0682 00000000 		.4byte	0
 6533 0686 00000000 		.4byte	0
 6534              	.LLST28:
 6535 068a 00000000 		.4byte	.LVL124
 6536 068e 16000000 		.4byte	.LVL125
 6537 0692 0100     		.2byte	0x1
 6538 0694 50       		.byte	0x50
 6539 0695 16000000 		.4byte	.LVL125
 6540 0699 42000000 		.4byte	.LVL129
 6541 069d 0100     		.2byte	0x1
 6542 069f 54       		.byte	0x54
 6543 06a0 42000000 		.4byte	.LVL129
 6544 06a4 44000000 		.4byte	.LVL130
 6545 06a8 0100     		.2byte	0x1
 6546 06aa 50       		.byte	0x50
 6547 06ab 44000000 		.4byte	.LVL130
 6548 06af 50000000 		.4byte	.LFE137
 6549 06b3 0100     		.2byte	0x1
 6550 06b5 54       		.byte	0x54
 6551 06b6 00000000 		.4byte	0
 6552 06ba 00000000 		.4byte	0
 6553              	.LLST29:
ARM GAS  /var/folders/m4/4md61f0s1_g0rzfghffqnxvr0000gn/T//ccmqP2UT.s 			page 116


 6554 06be 00000000 		.4byte	.LVL124
 6555 06c2 21000000 		.4byte	.LVL126-1
 6556 06c6 0100     		.2byte	0x1
 6557 06c8 51       		.byte	0x51
 6558 06c9 21000000 		.4byte	.LVL126-1
 6559 06cd 42000000 		.4byte	.LVL129
 6560 06d1 0400     		.2byte	0x4
 6561 06d3 F3       		.byte	0xf3
 6562 06d4 01       		.uleb128 0x1
 6563 06d5 51       		.byte	0x51
 6564 06d6 9F       		.byte	0x9f
 6565 06d7 42000000 		.4byte	.LVL129
 6566 06db 50000000 		.4byte	.LFE137
 6567 06df 0100     		.2byte	0x1
 6568 06e1 51       		.byte	0x51
 6569 06e2 00000000 		.4byte	0
 6570 06e6 00000000 		.4byte	0
 6571              	.LLST30:
 6572 06ea 00000000 		.4byte	.LVL131
 6573 06ee 16000000 		.4byte	.LVL132
 6574 06f2 0100     		.2byte	0x1
 6575 06f4 50       		.byte	0x50
 6576 06f5 16000000 		.4byte	.LVL132
 6577 06f9 42000000 		.4byte	.LVL136
 6578 06fd 0100     		.2byte	0x1
 6579 06ff 54       		.byte	0x54
 6580 0700 42000000 		.4byte	.LVL136
 6581 0704 44000000 		.4byte	.LVL137
 6582 0708 0100     		.2byte	0x1
 6583 070a 50       		.byte	0x50
 6584 070b 44000000 		.4byte	.LVL137
 6585 070f 50000000 		.4byte	.LFE138
 6586 0713 0100     		.2byte	0x1
 6587 0715 54       		.byte	0x54
 6588 0716 00000000 		.4byte	0
 6589 071a 00000000 		.4byte	0
 6590              	.LLST31:
 6591 071e 00000000 		.4byte	.LVL131
 6592 0722 21000000 		.4byte	.LVL133-1
 6593 0726 0100     		.2byte	0x1
 6594 0728 51       		.byte	0x51
 6595 0729 21000000 		.4byte	.LVL133-1
 6596 072d 42000000 		.4byte	.LVL136
 6597 0731 0400     		.2byte	0x4
 6598 0733 F3       		.byte	0xf3
 6599 0734 01       		.uleb128 0x1
 6600 0735 51       		.byte	0x51
 6601 0736 9F       		.byte	0x9f
 6602 0737 42000000 		.4byte	.LVL136
 6603 073b 50000000 		.4byte	.LFE138
 6604 073f 0100     		.2byte	0x1
 6605 0741 51       		.byte	0x51
 6606 0742 00000000 		.4byte	0
 6607 0746 00000000 		.4byte	0
 6608              	.LLST32:
 6609 074a 00000000 		.4byte	.LVL138
 6610 074e 14000000 		.4byte	.LVL139
ARM GAS  /var/folders/m4/4md61f0s1_g0rzfghffqnxvr0000gn/T//ccmqP2UT.s 			page 117


 6611 0752 0100     		.2byte	0x1
 6612 0754 50       		.byte	0x50
 6613 0755 14000000 		.4byte	.LVL139
 6614 0759 3E000000 		.4byte	.LVL145
 6615 075d 0100     		.2byte	0x1
 6616 075f 54       		.byte	0x54
 6617 0760 3E000000 		.4byte	.LVL145
 6618 0764 40000000 		.4byte	.LVL146
 6619 0768 0100     		.2byte	0x1
 6620 076a 50       		.byte	0x50
 6621 076b 40000000 		.4byte	.LVL146
 6622 076f 4C000000 		.4byte	.LFE139
 6623 0773 0100     		.2byte	0x1
 6624 0775 54       		.byte	0x54
 6625 0776 00000000 		.4byte	0
 6626 077a 00000000 		.4byte	0
 6627              	.LLST33:
 6628 077e 00000000 		.4byte	.LVL138
 6629 0782 21000000 		.4byte	.LVL140-1
 6630 0786 0100     		.2byte	0x1
 6631 0788 51       		.byte	0x51
 6632 0789 21000000 		.4byte	.LVL140-1
 6633 078d 3E000000 		.4byte	.LVL145
 6634 0791 0400     		.2byte	0x4
 6635 0793 F3       		.byte	0xf3
 6636 0794 01       		.uleb128 0x1
 6637 0795 51       		.byte	0x51
 6638 0796 9F       		.byte	0x9f
 6639 0797 3E000000 		.4byte	.LVL145
 6640 079b 4C000000 		.4byte	.LFE139
 6641 079f 0100     		.2byte	0x1
 6642 07a1 51       		.byte	0x51
 6643 07a2 00000000 		.4byte	0
 6644 07a6 00000000 		.4byte	0
 6645              	.LLST34:
 6646 07aa 00000000 		.4byte	.LVL138
 6647 07ae 32000000 		.4byte	.LVL142
 6648 07b2 0200     		.2byte	0x2
 6649 07b4 30       		.byte	0x30
 6650 07b5 9F       		.byte	0x9f
 6651 07b6 32000000 		.4byte	.LVL142
 6652 07ba 3E000000 		.4byte	.LVL145
 6653 07be 0100     		.2byte	0x1
 6654 07c0 51       		.byte	0x51
 6655 07c1 3E000000 		.4byte	.LVL145
 6656 07c5 4C000000 		.4byte	.LFE139
 6657 07c9 0200     		.2byte	0x2
 6658 07cb 30       		.byte	0x30
 6659 07cc 9F       		.byte	0x9f
 6660 07cd 00000000 		.4byte	0
 6661 07d1 00000000 		.4byte	0
 6662              	.LLST35:
 6663 07d5 00000000 		.4byte	.LVL138
 6664 07d9 36000000 		.4byte	.LVL143
 6665 07dd 0200     		.2byte	0x2
 6666 07df 30       		.byte	0x30
 6667 07e0 9F       		.byte	0x9f
ARM GAS  /var/folders/m4/4md61f0s1_g0rzfghffqnxvr0000gn/T//ccmqP2UT.s 			page 118


 6668 07e1 36000000 		.4byte	.LVL143
 6669 07e5 3E000000 		.4byte	.LVL145
 6670 07e9 0800     		.2byte	0x8
 6671 07eb 75       		.byte	0x75
 6672 07ec 01       		.sleb128 1
 6673 07ed 08       		.byte	0x8
 6674 07ee FF       		.byte	0xff
 6675 07ef 1A       		.byte	0x1a
 6676 07f0 31       		.byte	0x31
 6677 07f1 1C       		.byte	0x1c
 6678 07f2 9F       		.byte	0x9f
 6679 07f3 3E000000 		.4byte	.LVL145
 6680 07f7 4C000000 		.4byte	.LFE139
 6681 07fb 0200     		.2byte	0x2
 6682 07fd 30       		.byte	0x30
 6683 07fe 9F       		.byte	0x9f
 6684 07ff 00000000 		.4byte	0
 6685 0803 00000000 		.4byte	0
 6686              	.LLST36:
 6687 0807 00000000 		.4byte	.LVL147
 6688 080b 16000000 		.4byte	.LVL148
 6689 080f 0100     		.2byte	0x1
 6690 0811 50       		.byte	0x50
 6691 0812 16000000 		.4byte	.LVL148
 6692 0816 42000000 		.4byte	.LVL152
 6693 081a 0100     		.2byte	0x1
 6694 081c 54       		.byte	0x54
 6695 081d 42000000 		.4byte	.LVL152
 6696 0821 44000000 		.4byte	.LVL153
 6697 0825 0100     		.2byte	0x1
 6698 0827 50       		.byte	0x50
 6699 0828 44000000 		.4byte	.LVL153
 6700 082c 50000000 		.4byte	.LFE140
 6701 0830 0100     		.2byte	0x1
 6702 0832 54       		.byte	0x54
 6703 0833 00000000 		.4byte	0
 6704 0837 00000000 		.4byte	0
 6705              	.LLST37:
 6706 083b 00000000 		.4byte	.LVL147
 6707 083f 21000000 		.4byte	.LVL149-1
 6708 0843 0100     		.2byte	0x1
 6709 0845 51       		.byte	0x51
 6710 0846 21000000 		.4byte	.LVL149-1
 6711 084a 42000000 		.4byte	.LVL152
 6712 084e 0400     		.2byte	0x4
 6713 0850 F3       		.byte	0xf3
 6714 0851 01       		.uleb128 0x1
 6715 0852 51       		.byte	0x51
 6716 0853 9F       		.byte	0x9f
 6717 0854 42000000 		.4byte	.LVL152
 6718 0858 50000000 		.4byte	.LFE140
 6719 085c 0100     		.2byte	0x1
 6720 085e 51       		.byte	0x51
 6721 085f 00000000 		.4byte	0
 6722 0863 00000000 		.4byte	0
 6723              	.LLST38:
 6724 0867 00000000 		.4byte	.LVL154
ARM GAS  /var/folders/m4/4md61f0s1_g0rzfghffqnxvr0000gn/T//ccmqP2UT.s 			page 119


 6725 086b 14000000 		.4byte	.LVL155
 6726 086f 0100     		.2byte	0x1
 6727 0871 50       		.byte	0x50
 6728 0872 14000000 		.4byte	.LVL155
 6729 0876 26000000 		.4byte	.LVL157
 6730 087a 0100     		.2byte	0x1
 6731 087c 54       		.byte	0x54
 6732 087d 26000000 		.4byte	.LVL157
 6733 0881 28000000 		.4byte	.LVL158
 6734 0885 0100     		.2byte	0x1
 6735 0887 50       		.byte	0x50
 6736 0888 28000000 		.4byte	.LVL158
 6737 088c 32000000 		.4byte	.LVL160
 6738 0890 0100     		.2byte	0x1
 6739 0892 54       		.byte	0x54
 6740 0893 32000000 		.4byte	.LVL160
 6741 0897 3C000000 		.4byte	.LFE141
 6742 089b 0400     		.2byte	0x4
 6743 089d F3       		.byte	0xf3
 6744 089e 01       		.uleb128 0x1
 6745 089f 50       		.byte	0x50
 6746 08a0 9F       		.byte	0x9f
 6747 08a1 00000000 		.4byte	0
 6748 08a5 00000000 		.4byte	0
 6749              	.LLST39:
 6750 08a9 00000000 		.4byte	.LVL161
 6751 08ad 16000000 		.4byte	.LVL162
 6752 08b1 0100     		.2byte	0x1
 6753 08b3 50       		.byte	0x50
 6754 08b4 16000000 		.4byte	.LVL162
 6755 08b8 42000000 		.4byte	.LVL166
 6756 08bc 0100     		.2byte	0x1
 6757 08be 54       		.byte	0x54
 6758 08bf 42000000 		.4byte	.LVL166
 6759 08c3 44000000 		.4byte	.LVL167
 6760 08c7 0100     		.2byte	0x1
 6761 08c9 50       		.byte	0x50
 6762 08ca 44000000 		.4byte	.LVL167
 6763 08ce 50000000 		.4byte	.LFE143
 6764 08d2 0100     		.2byte	0x1
 6765 08d4 54       		.byte	0x54
 6766 08d5 00000000 		.4byte	0
 6767 08d9 00000000 		.4byte	0
 6768              	.LLST40:
 6769 08dd 00000000 		.4byte	.LVL161
 6770 08e1 21000000 		.4byte	.LVL163-1
 6771 08e5 0100     		.2byte	0x1
 6772 08e7 51       		.byte	0x51
 6773 08e8 21000000 		.4byte	.LVL163-1
 6774 08ec 42000000 		.4byte	.LVL166
 6775 08f0 0400     		.2byte	0x4
 6776 08f2 F3       		.byte	0xf3
 6777 08f3 01       		.uleb128 0x1
 6778 08f4 51       		.byte	0x51
 6779 08f5 9F       		.byte	0x9f
 6780 08f6 42000000 		.4byte	.LVL166
 6781 08fa 50000000 		.4byte	.LFE143
ARM GAS  /var/folders/m4/4md61f0s1_g0rzfghffqnxvr0000gn/T//ccmqP2UT.s 			page 120


 6782 08fe 0100     		.2byte	0x1
 6783 0900 51       		.byte	0x51
 6784 0901 00000000 		.4byte	0
 6785 0905 00000000 		.4byte	0
 6786              	.LLST41:
 6787 0909 00000000 		.4byte	.LVL168
 6788 090d 16000000 		.4byte	.LVL169
 6789 0911 0100     		.2byte	0x1
 6790 0913 50       		.byte	0x50
 6791 0914 16000000 		.4byte	.LVL169
 6792 0918 42000000 		.4byte	.LVL173
 6793 091c 0100     		.2byte	0x1
 6794 091e 54       		.byte	0x54
 6795 091f 42000000 		.4byte	.LVL173
 6796 0923 44000000 		.4byte	.LVL174
 6797 0927 0100     		.2byte	0x1
 6798 0929 50       		.byte	0x50
 6799 092a 44000000 		.4byte	.LVL174
 6800 092e 50000000 		.4byte	.LFE144
 6801 0932 0100     		.2byte	0x1
 6802 0934 54       		.byte	0x54
 6803 0935 00000000 		.4byte	0
 6804 0939 00000000 		.4byte	0
 6805              	.LLST42:
 6806 093d 00000000 		.4byte	.LVL168
 6807 0941 21000000 		.4byte	.LVL170-1
 6808 0945 0100     		.2byte	0x1
 6809 0947 51       		.byte	0x51
 6810 0948 21000000 		.4byte	.LVL170-1
 6811 094c 42000000 		.4byte	.LVL173
 6812 0950 0400     		.2byte	0x4
 6813 0952 F3       		.byte	0xf3
 6814 0953 01       		.uleb128 0x1
 6815 0954 51       		.byte	0x51
 6816 0955 9F       		.byte	0x9f
 6817 0956 42000000 		.4byte	.LVL173
 6818 095a 50000000 		.4byte	.LFE144
 6819 095e 0100     		.2byte	0x1
 6820 0960 51       		.byte	0x51
 6821 0961 00000000 		.4byte	0
 6822 0965 00000000 		.4byte	0
 6823              	.LLST43:
 6824 0969 00000000 		.4byte	.LVL175
 6825 096d 0A000000 		.4byte	.LVL176
 6826 0971 0100     		.2byte	0x1
 6827 0973 50       		.byte	0x50
 6828 0974 0A000000 		.4byte	.LVL176
 6829 0978 2C000000 		.4byte	.LFE145
 6830 097c 0400     		.2byte	0x4
 6831 097e F3       		.byte	0xf3
 6832 097f 01       		.uleb128 0x1
 6833 0980 50       		.byte	0x50
 6834 0981 9F       		.byte	0x9f
 6835 0982 00000000 		.4byte	0
 6836 0986 00000000 		.4byte	0
 6837              	.LLST44:
 6838 098a 00000000 		.4byte	.LVL178
ARM GAS  /var/folders/m4/4md61f0s1_g0rzfghffqnxvr0000gn/T//ccmqP2UT.s 			page 121


 6839 098e 1A000000 		.4byte	.LVL180
 6840 0992 0100     		.2byte	0x1
 6841 0994 50       		.byte	0x50
 6842 0995 1A000000 		.4byte	.LVL180
 6843 0999 A0000000 		.4byte	.LVL200
 6844 099d 0100     		.2byte	0x1
 6845 099f 56       		.byte	0x56
 6846 09a0 A0000000 		.4byte	.LVL200
 6847 09a4 A2000000 		.4byte	.LVL201
 6848 09a8 0100     		.2byte	0x1
 6849 09aa 50       		.byte	0x50
 6850 09ab A2000000 		.4byte	.LVL201
 6851 09af B0000000 		.4byte	.LFE146
 6852 09b3 0100     		.2byte	0x1
 6853 09b5 56       		.byte	0x56
 6854 09b6 00000000 		.4byte	0
 6855 09ba 00000000 		.4byte	0
 6856              	.LLST45:
 6857 09be 00000000 		.4byte	.LVL178
 6858 09c2 25000000 		.4byte	.LVL181-1
 6859 09c6 0100     		.2byte	0x1
 6860 09c8 51       		.byte	0x51
 6861 09c9 25000000 		.4byte	.LVL181-1
 6862 09cd A0000000 		.4byte	.LVL200
 6863 09d1 0400     		.2byte	0x4
 6864 09d3 F3       		.byte	0xf3
 6865 09d4 01       		.uleb128 0x1
 6866 09d5 51       		.byte	0x51
 6867 09d6 9F       		.byte	0x9f
 6868 09d7 A0000000 		.4byte	.LVL200
 6869 09db B0000000 		.4byte	.LFE146
 6870 09df 0100     		.2byte	0x1
 6871 09e1 51       		.byte	0x51
 6872 09e2 00000000 		.4byte	0
 6873 09e6 00000000 		.4byte	0
 6874              	.LLST46:
 6875 09ea 00000000 		.4byte	.LVL178
 6876 09ee 25000000 		.4byte	.LVL181-1
 6877 09f2 0100     		.2byte	0x1
 6878 09f4 52       		.byte	0x52
 6879 09f5 25000000 		.4byte	.LVL181-1
 6880 09f9 A0000000 		.4byte	.LVL200
 6881 09fd 0400     		.2byte	0x4
 6882 09ff F3       		.byte	0xf3
 6883 0a00 01       		.uleb128 0x1
 6884 0a01 52       		.byte	0x52
 6885 0a02 9F       		.byte	0x9f
 6886 0a03 A0000000 		.4byte	.LVL200
 6887 0a07 B0000000 		.4byte	.LFE146
 6888 0a0b 0100     		.2byte	0x1
 6889 0a0d 52       		.byte	0x52
 6890 0a0e 00000000 		.4byte	0
 6891 0a12 00000000 		.4byte	0
 6892              	.LLST47:
 6893 0a16 00000000 		.4byte	.LVL178
 6894 0a1a 14000000 		.4byte	.LVL179
 6895 0a1e 0100     		.2byte	0x1
ARM GAS  /var/folders/m4/4md61f0s1_g0rzfghffqnxvr0000gn/T//ccmqP2UT.s 			page 122


 6896 0a20 53       		.byte	0x53
 6897 0a21 14000000 		.4byte	.LVL179
 6898 0a25 B0000000 		.4byte	.LFE146
 6899 0a29 0400     		.2byte	0x4
 6900 0a2b F3       		.byte	0xf3
 6901 0a2c 01       		.uleb128 0x1
 6902 0a2d 53       		.byte	0x53
 6903 0a2e 9F       		.byte	0x9f
 6904 0a2f 00000000 		.4byte	0
 6905 0a33 00000000 		.4byte	0
 6906              	.LLST48:
 6907 0a37 00000000 		.4byte	.LVL178
 6908 0a3b 56000000 		.4byte	.LVL185
 6909 0a3f 0200     		.2byte	0x2
 6910 0a41 30       		.byte	0x30
 6911 0a42 9F       		.byte	0x9f
 6912 0a43 56000000 		.4byte	.LVL185
 6913 0a47 60000000 		.4byte	.LVL187
 6914 0a4b 0100     		.2byte	0x1
 6915 0a4d 52       		.byte	0x52
 6916 0a4e 60000000 		.4byte	.LVL187
 6917 0a52 62000000 		.4byte	.LVL188
 6918 0a56 0100     		.2byte	0x1
 6919 0a58 53       		.byte	0x53
 6920 0a59 62000000 		.4byte	.LVL188
 6921 0a5d 66000000 		.4byte	.LVL189
 6922 0a61 0100     		.2byte	0x1
 6923 0a63 57       		.byte	0x57
 6924 0a64 66000000 		.4byte	.LVL189
 6925 0a68 82000000 		.4byte	.LVL194
 6926 0a6c 0100     		.2byte	0x1
 6927 0a6e 53       		.byte	0x53
 6928 0a6f 82000000 		.4byte	.LVL194
 6929 0a73 86000000 		.4byte	.LVL195
 6930 0a77 0100     		.2byte	0x1
 6931 0a79 54       		.byte	0x54
 6932 0a7a 86000000 		.4byte	.LVL195
 6933 0a7e 90000000 		.4byte	.LVL196
 6934 0a82 0200     		.2byte	0x2
 6935 0a84 30       		.byte	0x30
 6936 0a85 9F       		.byte	0x9f
 6937 0a86 90000000 		.4byte	.LVL196
 6938 0a8a 9A000000 		.4byte	.LVL198
 6939 0a8e 0100     		.2byte	0x1
 6940 0a90 52       		.byte	0x52
 6941 0a91 9A000000 		.4byte	.LVL198
 6942 0a95 9C000000 		.4byte	.LVL199
 6943 0a99 0100     		.2byte	0x1
 6944 0a9b 53       		.byte	0x53
 6945 0a9c 9C000000 		.4byte	.LVL199
 6946 0aa0 A0000000 		.4byte	.LVL200
 6947 0aa4 0100     		.2byte	0x1
 6948 0aa6 57       		.byte	0x57
 6949 0aa7 A0000000 		.4byte	.LVL200
 6950 0aab B0000000 		.4byte	.LFE146
 6951 0aaf 0200     		.2byte	0x2
 6952 0ab1 30       		.byte	0x30
ARM GAS  /var/folders/m4/4md61f0s1_g0rzfghffqnxvr0000gn/T//ccmqP2UT.s 			page 123


 6953 0ab2 9F       		.byte	0x9f
 6954 0ab3 00000000 		.4byte	0
 6955 0ab7 00000000 		.4byte	0
 6956              	.LLST49:
 6957 0abb 00000000 		.4byte	.LVL178
 6958 0abf 56000000 		.4byte	.LVL185
 6959 0ac3 0200     		.2byte	0x2
 6960 0ac5 30       		.byte	0x30
 6961 0ac6 9F       		.byte	0x9f
 6962 0ac7 56000000 		.4byte	.LVL185
 6963 0acb 5A000000 		.4byte	.LVL186
 6964 0acf 0500     		.2byte	0x5
 6965 0ad1 37       		.byte	0x37
 6966 0ad2 71       		.byte	0x71
 6967 0ad3 00       		.sleb128 0
 6968 0ad4 24       		.byte	0x24
 6969 0ad5 9F       		.byte	0x9f
 6970 0ad6 5A000000 		.4byte	.LVL186
 6971 0ada 60000000 		.4byte	.LVL187
 6972 0ade 0100     		.2byte	0x1
 6973 0ae0 53       		.byte	0x53
 6974 0ae1 74000000 		.4byte	.LVL190
 6975 0ae5 78000000 		.4byte	.LVL191
 6976 0ae9 0500     		.2byte	0x5
 6977 0aeb 4F       		.byte	0x4f
 6978 0aec 74       		.byte	0x74
 6979 0aed 00       		.sleb128 0
 6980 0aee 24       		.byte	0x24
 6981 0aef 9F       		.byte	0x9f
 6982 0af0 78000000 		.4byte	.LVL191
 6983 0af4 7C000000 		.4byte	.LVL192
 6984 0af8 0100     		.2byte	0x1
 6985 0afa 51       		.byte	0x51
 6986 0afb 7C000000 		.4byte	.LVL192
 6987 0aff 80000000 		.4byte	.LVL193
 6988 0b03 0900     		.2byte	0x9
 6989 0b05 75       		.byte	0x75
 6990 0b06 00       		.sleb128 0
 6991 0b07 08       		.byte	0x8
 6992 0b08 FF       		.byte	0xff
 6993 0b09 1A       		.byte	0x1a
 6994 0b0a 74       		.byte	0x74
 6995 0b0b 00       		.sleb128 0
 6996 0b0c 24       		.byte	0x24
 6997 0b0d 9F       		.byte	0x9f
 6998 0b0e 86000000 		.4byte	.LVL195
 6999 0b12 90000000 		.4byte	.LVL196
 7000 0b16 0200     		.2byte	0x2
 7001 0b18 30       		.byte	0x30
 7002 0b19 9F       		.byte	0x9f
 7003 0b1a 90000000 		.4byte	.LVL196
 7004 0b1e 94000000 		.4byte	.LVL197
 7005 0b22 0500     		.2byte	0x5
 7006 0b24 37       		.byte	0x37
 7007 0b25 73       		.byte	0x73
 7008 0b26 00       		.sleb128 0
 7009 0b27 24       		.byte	0x24
ARM GAS  /var/folders/m4/4md61f0s1_g0rzfghffqnxvr0000gn/T//ccmqP2UT.s 			page 124


 7010 0b28 9F       		.byte	0x9f
 7011 0b29 94000000 		.4byte	.LVL197
 7012 0b2d 9A000000 		.4byte	.LVL198
 7013 0b31 0100     		.2byte	0x1
 7014 0b33 51       		.byte	0x51
 7015 0b34 A0000000 		.4byte	.LVL200
 7016 0b38 B0000000 		.4byte	.LFE146
 7017 0b3c 0200     		.2byte	0x2
 7018 0b3e 30       		.byte	0x30
 7019 0b3f 9F       		.byte	0x9f
 7020 0b40 00000000 		.4byte	0
 7021 0b44 00000000 		.4byte	0
 7022              	.LLST50:
 7023 0b48 00000000 		.4byte	.LVL178
 7024 0b4c 66000000 		.4byte	.LVL189
 7025 0b50 0200     		.2byte	0x2
 7026 0b52 30       		.byte	0x30
 7027 0b53 9F       		.byte	0x9f
 7028 0b54 66000000 		.4byte	.LVL189
 7029 0b58 7C000000 		.4byte	.LVL192
 7030 0b5c 0700     		.2byte	0x7
 7031 0b5e 73       		.byte	0x73
 7032 0b5f 00       		.sleb128 0
 7033 0b60 44       		.byte	0x44
 7034 0b61 25       		.byte	0x25
 7035 0b62 33       		.byte	0x33
 7036 0b63 1A       		.byte	0x1a
 7037 0b64 9F       		.byte	0x9f
 7038 0b65 86000000 		.4byte	.LVL195
 7039 0b69 B0000000 		.4byte	.LFE146
 7040 0b6d 0200     		.2byte	0x2
 7041 0b6f 30       		.byte	0x30
 7042 0b70 9F       		.byte	0x9f
 7043 0b71 00000000 		.4byte	0
 7044 0b75 00000000 		.4byte	0
 7045              	.LLST51:
 7046 0b79 00000000 		.4byte	.LVL202
 7047 0b7d 14000000 		.4byte	.LVL203
 7048 0b81 0100     		.2byte	0x1
 7049 0b83 50       		.byte	0x50
 7050 0b84 14000000 		.4byte	.LVL203
 7051 0b88 3E000000 		.4byte	.LVL209
 7052 0b8c 0100     		.2byte	0x1
 7053 0b8e 54       		.byte	0x54
 7054 0b8f 3E000000 		.4byte	.LVL209
 7055 0b93 40000000 		.4byte	.LVL210
 7056 0b97 0100     		.2byte	0x1
 7057 0b99 50       		.byte	0x50
 7058 0b9a 40000000 		.4byte	.LVL210
 7059 0b9e 4C000000 		.4byte	.LFE147
 7060 0ba2 0100     		.2byte	0x1
 7061 0ba4 54       		.byte	0x54
 7062 0ba5 00000000 		.4byte	0
 7063 0ba9 00000000 		.4byte	0
 7064              	.LLST52:
 7065 0bad 00000000 		.4byte	.LVL202
 7066 0bb1 21000000 		.4byte	.LVL204-1
ARM GAS  /var/folders/m4/4md61f0s1_g0rzfghffqnxvr0000gn/T//ccmqP2UT.s 			page 125


 7067 0bb5 0100     		.2byte	0x1
 7068 0bb7 51       		.byte	0x51
 7069 0bb8 21000000 		.4byte	.LVL204-1
 7070 0bbc 3E000000 		.4byte	.LVL209
 7071 0bc0 0400     		.2byte	0x4
 7072 0bc2 F3       		.byte	0xf3
 7073 0bc3 01       		.uleb128 0x1
 7074 0bc4 51       		.byte	0x51
 7075 0bc5 9F       		.byte	0x9f
 7076 0bc6 3E000000 		.4byte	.LVL209
 7077 0bca 4C000000 		.4byte	.LFE147
 7078 0bce 0100     		.2byte	0x1
 7079 0bd0 51       		.byte	0x51
 7080 0bd1 00000000 		.4byte	0
 7081 0bd5 00000000 		.4byte	0
 7082              	.LLST53:
 7083 0bd9 00000000 		.4byte	.LVL202
 7084 0bdd 32000000 		.4byte	.LVL206
 7085 0be1 0200     		.2byte	0x2
 7086 0be3 30       		.byte	0x30
 7087 0be4 9F       		.byte	0x9f
 7088 0be5 32000000 		.4byte	.LVL206
 7089 0be9 3E000000 		.4byte	.LVL209
 7090 0bed 0100     		.2byte	0x1
 7091 0bef 51       		.byte	0x51
 7092 0bf0 3E000000 		.4byte	.LVL209
 7093 0bf4 4C000000 		.4byte	.LFE147
 7094 0bf8 0200     		.2byte	0x2
 7095 0bfa 30       		.byte	0x30
 7096 0bfb 9F       		.byte	0x9f
 7097 0bfc 00000000 		.4byte	0
 7098 0c00 00000000 		.4byte	0
 7099              	.LLST54:
 7100 0c04 00000000 		.4byte	.LVL202
 7101 0c08 36000000 		.4byte	.LVL207
 7102 0c0c 0200     		.2byte	0x2
 7103 0c0e 30       		.byte	0x30
 7104 0c0f 9F       		.byte	0x9f
 7105 0c10 36000000 		.4byte	.LVL207
 7106 0c14 3E000000 		.4byte	.LVL209
 7107 0c18 0800     		.2byte	0x8
 7108 0c1a 75       		.byte	0x75
 7109 0c1b 01       		.sleb128 1
 7110 0c1c 08       		.byte	0x8
 7111 0c1d FF       		.byte	0xff
 7112 0c1e 1A       		.byte	0x1a
 7113 0c1f 31       		.byte	0x31
 7114 0c20 1C       		.byte	0x1c
 7115 0c21 9F       		.byte	0x9f
 7116 0c22 3E000000 		.4byte	.LVL209
 7117 0c26 4C000000 		.4byte	.LFE147
 7118 0c2a 0200     		.2byte	0x2
 7119 0c2c 30       		.byte	0x30
 7120 0c2d 9F       		.byte	0x9f
 7121 0c2e 00000000 		.4byte	0
 7122 0c32 00000000 		.4byte	0
 7123              	.LLST55:
ARM GAS  /var/folders/m4/4md61f0s1_g0rzfghffqnxvr0000gn/T//ccmqP2UT.s 			page 126


 7124 0c36 00000000 		.4byte	.LVL211
 7125 0c3a 0A000000 		.4byte	.LVL212
 7126 0c3e 0100     		.2byte	0x1
 7127 0c40 50       		.byte	0x50
 7128 0c41 0A000000 		.4byte	.LVL212
 7129 0c45 70000000 		.4byte	.LFE148
 7130 0c49 0100     		.2byte	0x1
 7131 0c4b 54       		.byte	0x54
 7132 0c4c 00000000 		.4byte	0
 7133 0c50 00000000 		.4byte	0
 7134              	.LLST56:
 7135 0c54 00000000 		.4byte	.LVL211
 7136 0c58 29000000 		.4byte	.LVL213-1
 7137 0c5c 0100     		.2byte	0x1
 7138 0c5e 51       		.byte	0x51
 7139 0c5f 29000000 		.4byte	.LVL213-1
 7140 0c63 64000000 		.4byte	.LVL216
 7141 0c67 0400     		.2byte	0x4
 7142 0c69 F3       		.byte	0xf3
 7143 0c6a 01       		.uleb128 0x1
 7144 0c6b 51       		.byte	0x51
 7145 0c6c 9F       		.byte	0x9f
 7146 0c6d 64000000 		.4byte	.LVL216
 7147 0c71 70000000 		.4byte	.LFE148
 7148 0c75 0100     		.2byte	0x1
 7149 0c77 51       		.byte	0x51
 7150 0c78 00000000 		.4byte	0
 7151 0c7c 00000000 		.4byte	0
 7152              	.LLST57:
 7153 0c80 00000000 		.4byte	.LVL211
 7154 0c84 29000000 		.4byte	.LVL213-1
 7155 0c88 0100     		.2byte	0x1
 7156 0c8a 52       		.byte	0x52
 7157 0c8b 29000000 		.4byte	.LVL213-1
 7158 0c8f 64000000 		.4byte	.LVL216
 7159 0c93 0400     		.2byte	0x4
 7160 0c95 F3       		.byte	0xf3
 7161 0c96 01       		.uleb128 0x1
 7162 0c97 52       		.byte	0x52
 7163 0c98 9F       		.byte	0x9f
 7164 0c99 64000000 		.4byte	.LVL216
 7165 0c9d 70000000 		.4byte	.LFE148
 7166 0ca1 0100     		.2byte	0x1
 7167 0ca3 52       		.byte	0x52
 7168 0ca4 00000000 		.4byte	0
 7169 0ca8 00000000 		.4byte	0
 7170              	.LLST58:
 7171 0cac 00000000 		.4byte	.LVL217
 7172 0cb0 16000000 		.4byte	.LVL218
 7173 0cb4 0100     		.2byte	0x1
 7174 0cb6 50       		.byte	0x50
 7175 0cb7 16000000 		.4byte	.LVL218
 7176 0cbb 52000000 		.4byte	.LVL225
 7177 0cbf 0100     		.2byte	0x1
 7178 0cc1 54       		.byte	0x54
 7179 0cc2 52000000 		.4byte	.LVL225
 7180 0cc6 54000000 		.4byte	.LVL226
ARM GAS  /var/folders/m4/4md61f0s1_g0rzfghffqnxvr0000gn/T//ccmqP2UT.s 			page 127


 7181 0cca 0100     		.2byte	0x1
 7182 0ccc 50       		.byte	0x50
 7183 0ccd 54000000 		.4byte	.LVL226
 7184 0cd1 60000000 		.4byte	.LFE149
 7185 0cd5 0100     		.2byte	0x1
 7186 0cd7 54       		.byte	0x54
 7187 0cd8 00000000 		.4byte	0
 7188 0cdc 00000000 		.4byte	0
 7189              	.LLST59:
 7190 0ce0 00000000 		.4byte	.LVL217
 7191 0ce4 21000000 		.4byte	.LVL219-1
 7192 0ce8 0100     		.2byte	0x1
 7193 0cea 51       		.byte	0x51
 7194 0ceb 21000000 		.4byte	.LVL219-1
 7195 0cef 52000000 		.4byte	.LVL225
 7196 0cf3 0100     		.2byte	0x1
 7197 0cf5 55       		.byte	0x55
 7198 0cf6 52000000 		.4byte	.LVL225
 7199 0cfa 60000000 		.4byte	.LFE149
 7200 0cfe 0100     		.2byte	0x1
 7201 0d00 51       		.byte	0x51
 7202 0d01 00000000 		.4byte	0
 7203 0d05 00000000 		.4byte	0
 7204              	.LLST60:
 7205 0d09 00000000 		.4byte	.LVL217
 7206 0d0d 30000000 		.4byte	.LVL221
 7207 0d11 0200     		.2byte	0x2
 7208 0d13 30       		.byte	0x30
 7209 0d14 9F       		.byte	0x9f
 7210 0d15 30000000 		.4byte	.LVL221
 7211 0d19 3A000000 		.4byte	.LVL224
 7212 0d1d 0100     		.2byte	0x1
 7213 0d1f 51       		.byte	0x51
 7214 0d20 3A000000 		.4byte	.LVL224
 7215 0d24 60000000 		.4byte	.LFE149
 7216 0d28 0200     		.2byte	0x2
 7217 0d2a 30       		.byte	0x30
 7218 0d2b 9F       		.byte	0x9f
 7219 0d2c 00000000 		.4byte	0
 7220 0d30 00000000 		.4byte	0
 7221              	.LLST61:
 7222 0d34 00000000 		.4byte	.LVL227
 7223 0d38 16000000 		.4byte	.LVL228
 7224 0d3c 0100     		.2byte	0x1
 7225 0d3e 50       		.byte	0x50
 7226 0d3f 16000000 		.4byte	.LVL228
 7227 0d43 3C000000 		.4byte	.LVL234
 7228 0d47 0100     		.2byte	0x1
 7229 0d49 54       		.byte	0x54
 7230 0d4a 3C000000 		.4byte	.LVL234
 7231 0d4e 3E000000 		.4byte	.LVL235
 7232 0d52 0100     		.2byte	0x1
 7233 0d54 50       		.byte	0x50
 7234 0d55 3E000000 		.4byte	.LVL235
 7235 0d59 48000000 		.4byte	.LFE150
 7236 0d5d 0100     		.2byte	0x1
 7237 0d5f 54       		.byte	0x54
ARM GAS  /var/folders/m4/4md61f0s1_g0rzfghffqnxvr0000gn/T//ccmqP2UT.s 			page 128


 7238 0d60 00000000 		.4byte	0
 7239 0d64 00000000 		.4byte	0
 7240              	.LLST62:
 7241 0d68 00000000 		.4byte	.LVL227
 7242 0d6c 21000000 		.4byte	.LVL229-1
 7243 0d70 0100     		.2byte	0x1
 7244 0d72 51       		.byte	0x51
 7245 0d73 21000000 		.4byte	.LVL229-1
 7246 0d77 3C000000 		.4byte	.LVL234
 7247 0d7b 0100     		.2byte	0x1
 7248 0d7d 55       		.byte	0x55
 7249 0d7e 3C000000 		.4byte	.LVL234
 7250 0d82 48000000 		.4byte	.LFE150
 7251 0d86 0100     		.2byte	0x1
 7252 0d88 51       		.byte	0x51
 7253 0d89 00000000 		.4byte	0
 7254 0d8d 00000000 		.4byte	0
 7255              	.LLST63:
 7256 0d91 00000000 		.4byte	.LVL227
 7257 0d95 32000000 		.4byte	.LVL231
 7258 0d99 0200     		.2byte	0x2
 7259 0d9b 30       		.byte	0x30
 7260 0d9c 9F       		.byte	0x9f
 7261 0d9d 32000000 		.4byte	.LVL231
 7262 0da1 3C000000 		.4byte	.LVL234
 7263 0da5 0100     		.2byte	0x1
 7264 0da7 51       		.byte	0x51
 7265 0da8 3C000000 		.4byte	.LVL234
 7266 0dac 48000000 		.4byte	.LFE150
 7267 0db0 0200     		.2byte	0x2
 7268 0db2 30       		.byte	0x30
 7269 0db3 9F       		.byte	0x9f
 7270 0db4 00000000 		.4byte	0
 7271 0db8 00000000 		.4byte	0
 7272              	.LLST64:
 7273 0dbc 00000000 		.4byte	.LVL236
 7274 0dc0 14000000 		.4byte	.LVL237
 7275 0dc4 0100     		.2byte	0x1
 7276 0dc6 50       		.byte	0x50
 7277 0dc7 14000000 		.4byte	.LVL237
 7278 0dcb 2A000000 		.4byte	.LVL239
 7279 0dcf 0100     		.2byte	0x1
 7280 0dd1 54       		.byte	0x54
 7281 0dd2 2A000000 		.4byte	.LVL239
 7282 0dd6 2C000000 		.4byte	.LVL240
 7283 0dda 0100     		.2byte	0x1
 7284 0ddc 50       		.byte	0x50
 7285 0ddd 2C000000 		.4byte	.LVL240
 7286 0de1 38000000 		.4byte	.LFE151
 7287 0de5 0100     		.2byte	0x1
 7288 0de7 54       		.byte	0x54
 7289 0de8 00000000 		.4byte	0
 7290 0dec 00000000 		.4byte	0
 7291              	.LLST65:
 7292 0df0 00000000 		.4byte	.LVL241
 7293 0df4 14000000 		.4byte	.LVL242
 7294 0df8 0100     		.2byte	0x1
ARM GAS  /var/folders/m4/4md61f0s1_g0rzfghffqnxvr0000gn/T//ccmqP2UT.s 			page 129


 7295 0dfa 50       		.byte	0x50
 7296 0dfb 14000000 		.4byte	.LVL242
 7297 0dff 28000000 		.4byte	.LVL246
 7298 0e03 0100     		.2byte	0x1
 7299 0e05 54       		.byte	0x54
 7300 0e06 28000000 		.4byte	.LVL246
 7301 0e0a 2A000000 		.4byte	.LVL247
 7302 0e0e 0100     		.2byte	0x1
 7303 0e10 50       		.byte	0x50
 7304 0e11 2A000000 		.4byte	.LVL247
 7305 0e15 36000000 		.4byte	.LVL251
 7306 0e19 0100     		.2byte	0x1
 7307 0e1b 54       		.byte	0x54
 7308 0e1c 36000000 		.4byte	.LVL251
 7309 0e20 40000000 		.4byte	.LFE152
 7310 0e24 0400     		.2byte	0x4
 7311 0e26 F3       		.byte	0xf3
 7312 0e27 01       		.uleb128 0x1
 7313 0e28 50       		.byte	0x50
 7314 0e29 9F       		.byte	0x9f
 7315 0e2a 00000000 		.4byte	0
 7316 0e2e 00000000 		.4byte	0
 7317              	.LLST66:
 7318 0e32 00000000 		.4byte	.LVL241
 7319 0e36 22000000 		.4byte	.LVL244
 7320 0e3a 0200     		.2byte	0x2
 7321 0e3c 30       		.byte	0x30
 7322 0e3d 9F       		.byte	0x9f
 7323 0e3e 22000000 		.4byte	.LVL244
 7324 0e42 26000000 		.4byte	.LVL245
 7325 0e46 0900     		.2byte	0x9
 7326 0e48 70       		.byte	0x70
 7327 0e49 00       		.sleb128 0
 7328 0e4a 40       		.byte	0x40
 7329 0e4b 42       		.byte	0x42
 7330 0e4c 24       		.byte	0x24
 7331 0e4d 1A       		.byte	0x1a
 7332 0e4e 30       		.byte	0x30
 7333 0e4f 2E       		.byte	0x2e
 7334 0e50 9F       		.byte	0x9f
 7335 0e51 28000000 		.4byte	.LVL246
 7336 0e55 30000000 		.4byte	.LVL249
 7337 0e59 0200     		.2byte	0x2
 7338 0e5b 30       		.byte	0x30
 7339 0e5c 9F       		.byte	0x9f
 7340 0e5d 30000000 		.4byte	.LVL249
 7341 0e61 34000000 		.4byte	.LVL250
 7342 0e65 0900     		.2byte	0x9
 7343 0e67 70       		.byte	0x70
 7344 0e68 00       		.sleb128 0
 7345 0e69 40       		.byte	0x40
 7346 0e6a 42       		.byte	0x42
 7347 0e6b 24       		.byte	0x24
 7348 0e6c 1A       		.byte	0x1a
 7349 0e6d 30       		.byte	0x30
 7350 0e6e 2E       		.byte	0x2e
 7351 0e6f 9F       		.byte	0x9f
ARM GAS  /var/folders/m4/4md61f0s1_g0rzfghffqnxvr0000gn/T//ccmqP2UT.s 			page 130


 7352 0e70 00000000 		.4byte	0
 7353 0e74 00000000 		.4byte	0
 7354              	.LLST67:
 7355 0e78 00000000 		.4byte	.LVL252
 7356 0e7c 16000000 		.4byte	.LVL253
 7357 0e80 0100     		.2byte	0x1
 7358 0e82 50       		.byte	0x50
 7359 0e83 16000000 		.4byte	.LVL253
 7360 0e87 42000000 		.4byte	.LVL257
 7361 0e8b 0100     		.2byte	0x1
 7362 0e8d 54       		.byte	0x54
 7363 0e8e 42000000 		.4byte	.LVL257
 7364 0e92 44000000 		.4byte	.LVL258
 7365 0e96 0100     		.2byte	0x1
 7366 0e98 50       		.byte	0x50
 7367 0e99 44000000 		.4byte	.LVL258
 7368 0e9d 50000000 		.4byte	.LFE153
 7369 0ea1 0100     		.2byte	0x1
 7370 0ea3 54       		.byte	0x54
 7371 0ea4 00000000 		.4byte	0
 7372 0ea8 00000000 		.4byte	0
 7373              	.LLST68:
 7374 0eac 00000000 		.4byte	.LVL252
 7375 0eb0 21000000 		.4byte	.LVL254-1
 7376 0eb4 0100     		.2byte	0x1
 7377 0eb6 51       		.byte	0x51
 7378 0eb7 21000000 		.4byte	.LVL254-1
 7379 0ebb 42000000 		.4byte	.LVL257
 7380 0ebf 0400     		.2byte	0x4
 7381 0ec1 F3       		.byte	0xf3
 7382 0ec2 01       		.uleb128 0x1
 7383 0ec3 51       		.byte	0x51
 7384 0ec4 9F       		.byte	0x9f
 7385 0ec5 42000000 		.4byte	.LVL257
 7386 0ec9 50000000 		.4byte	.LFE153
 7387 0ecd 0100     		.2byte	0x1
 7388 0ecf 51       		.byte	0x51
 7389 0ed0 00000000 		.4byte	0
 7390 0ed4 00000000 		.4byte	0
 7391              	.LLST69:
 7392 0ed8 00000000 		.4byte	.LVL259
 7393 0edc 16000000 		.4byte	.LVL260
 7394 0ee0 0100     		.2byte	0x1
 7395 0ee2 50       		.byte	0x50
 7396 0ee3 16000000 		.4byte	.LVL260
 7397 0ee7 42000000 		.4byte	.LVL264
 7398 0eeb 0100     		.2byte	0x1
 7399 0eed 54       		.byte	0x54
 7400 0eee 42000000 		.4byte	.LVL264
 7401 0ef2 44000000 		.4byte	.LVL265
 7402 0ef6 0100     		.2byte	0x1
 7403 0ef8 50       		.byte	0x50
 7404 0ef9 44000000 		.4byte	.LVL265
 7405 0efd 50000000 		.4byte	.LFE154
 7406 0f01 0100     		.2byte	0x1
 7407 0f03 54       		.byte	0x54
 7408 0f04 00000000 		.4byte	0
ARM GAS  /var/folders/m4/4md61f0s1_g0rzfghffqnxvr0000gn/T//ccmqP2UT.s 			page 131


 7409 0f08 00000000 		.4byte	0
 7410              	.LLST70:
 7411 0f0c 00000000 		.4byte	.LVL259
 7412 0f10 21000000 		.4byte	.LVL261-1
 7413 0f14 0100     		.2byte	0x1
 7414 0f16 51       		.byte	0x51
 7415 0f17 21000000 		.4byte	.LVL261-1
 7416 0f1b 42000000 		.4byte	.LVL264
 7417 0f1f 0400     		.2byte	0x4
 7418 0f21 F3       		.byte	0xf3
 7419 0f22 01       		.uleb128 0x1
 7420 0f23 51       		.byte	0x51
 7421 0f24 9F       		.byte	0x9f
 7422 0f25 42000000 		.4byte	.LVL264
 7423 0f29 50000000 		.4byte	.LFE154
 7424 0f2d 0100     		.2byte	0x1
 7425 0f2f 51       		.byte	0x51
 7426 0f30 00000000 		.4byte	0
 7427 0f34 00000000 		.4byte	0
 7428              	.LLST71:
 7429 0f38 00000000 		.4byte	.LVL266
 7430 0f3c 1C000000 		.4byte	.LVL267
 7431 0f40 0100     		.2byte	0x1
 7432 0f42 50       		.byte	0x50
 7433 0f43 1C000000 		.4byte	.LVL267
 7434 0f47 58000000 		.4byte	.LVL270
 7435 0f4b 0100     		.2byte	0x1
 7436 0f4d 55       		.byte	0x55
 7437 0f4e 58000000 		.4byte	.LVL270
 7438 0f52 5A000000 		.4byte	.LVL271
 7439 0f56 0100     		.2byte	0x1
 7440 0f58 50       		.byte	0x50
 7441 0f59 5A000000 		.4byte	.LVL271
 7442 0f5d 64000000 		.4byte	.LFE155
 7443 0f61 0100     		.2byte	0x1
 7444 0f63 55       		.byte	0x55
 7445 0f64 00000000 		.4byte	0
 7446 0f68 00000000 		.4byte	0
 7447              	.LLST72:
 7448 0f6c 00000000 		.4byte	.LVL266
 7449 0f70 27000000 		.4byte	.LVL268-1
 7450 0f74 0100     		.2byte	0x1
 7451 0f76 51       		.byte	0x51
 7452 0f77 27000000 		.4byte	.LVL268-1
 7453 0f7b 58000000 		.4byte	.LVL270
 7454 0f7f 0400     		.2byte	0x4
 7455 0f81 F3       		.byte	0xf3
 7456 0f82 01       		.uleb128 0x1
 7457 0f83 51       		.byte	0x51
 7458 0f84 9F       		.byte	0x9f
 7459 0f85 58000000 		.4byte	.LVL270
 7460 0f89 64000000 		.4byte	.LFE155
 7461 0f8d 0100     		.2byte	0x1
 7462 0f8f 51       		.byte	0x51
 7463 0f90 00000000 		.4byte	0
 7464 0f94 00000000 		.4byte	0
 7465              	.LLST73:
ARM GAS  /var/folders/m4/4md61f0s1_g0rzfghffqnxvr0000gn/T//ccmqP2UT.s 			page 132


 7466 0f98 00000000 		.4byte	.LVL272
 7467 0f9c 18000000 		.4byte	.LVL273
 7468 0fa0 0100     		.2byte	0x1
 7469 0fa2 50       		.byte	0x50
 7470 0fa3 18000000 		.4byte	.LVL273
 7471 0fa7 74000000 		.4byte	.LVL282
 7472 0fab 0100     		.2byte	0x1
 7473 0fad 55       		.byte	0x55
 7474 0fae 74000000 		.4byte	.LVL282
 7475 0fb2 76000000 		.4byte	.LVL283
 7476 0fb6 0100     		.2byte	0x1
 7477 0fb8 50       		.byte	0x50
 7478 0fb9 76000000 		.4byte	.LVL283
 7479 0fbd 80000000 		.4byte	.LFE156
 7480 0fc1 0100     		.2byte	0x1
 7481 0fc3 55       		.byte	0x55
 7482 0fc4 00000000 		.4byte	0
 7483 0fc8 00000000 		.4byte	0
 7484              	.LLST74:
 7485 0fcc 00000000 		.4byte	.LVL272
 7486 0fd0 23000000 		.4byte	.LVL274-1
 7487 0fd4 0100     		.2byte	0x1
 7488 0fd6 51       		.byte	0x51
 7489 0fd7 23000000 		.4byte	.LVL274-1
 7490 0fdb 74000000 		.4byte	.LVL282
 7491 0fdf 0400     		.2byte	0x4
 7492 0fe1 F3       		.byte	0xf3
 7493 0fe2 01       		.uleb128 0x1
 7494 0fe3 51       		.byte	0x51
 7495 0fe4 9F       		.byte	0x9f
 7496 0fe5 74000000 		.4byte	.LVL282
 7497 0fe9 80000000 		.4byte	.LFE156
 7498 0fed 0100     		.2byte	0x1
 7499 0fef 51       		.byte	0x51
 7500 0ff0 00000000 		.4byte	0
 7501 0ff4 00000000 		.4byte	0
 7502              	.LLST75:
 7503 0ff8 00000000 		.4byte	.LVL272
 7504 0ffc 23000000 		.4byte	.LVL274-1
 7505 1000 0100     		.2byte	0x1
 7506 1002 52       		.byte	0x52
 7507 1003 23000000 		.4byte	.LVL274-1
 7508 1007 74000000 		.4byte	.LVL282
 7509 100b 0400     		.2byte	0x4
 7510 100d F3       		.byte	0xf3
 7511 100e 01       		.uleb128 0x1
 7512 100f 52       		.byte	0x52
 7513 1010 9F       		.byte	0x9f
 7514 1011 74000000 		.4byte	.LVL282
 7515 1015 80000000 		.4byte	.LFE156
 7516 1019 0100     		.2byte	0x1
 7517 101b 52       		.byte	0x52
 7518 101c 00000000 		.4byte	0
 7519 1020 00000000 		.4byte	0
 7520              	.LLST76:
 7521 1024 00000000 		.4byte	.LVL272
 7522 1028 5C000000 		.4byte	.LVL277
ARM GAS  /var/folders/m4/4md61f0s1_g0rzfghffqnxvr0000gn/T//ccmqP2UT.s 			page 133


 7523 102c 0200     		.2byte	0x2
 7524 102e 30       		.byte	0x30
 7525 102f 9F       		.byte	0x9f
 7526 1030 5C000000 		.4byte	.LVL277
 7527 1034 6A000000 		.4byte	.LVL279
 7528 1038 0100     		.2byte	0x1
 7529 103a 54       		.byte	0x54
 7530 103b 6E000000 		.4byte	.LVL280
 7531 103f 70000000 		.4byte	.LVL281
 7532 1043 0100     		.2byte	0x1
 7533 1045 54       		.byte	0x54
 7534 1046 74000000 		.4byte	.LVL282
 7535 104a 80000000 		.4byte	.LFE156
 7536 104e 0200     		.2byte	0x2
 7537 1050 30       		.byte	0x30
 7538 1051 9F       		.byte	0x9f
 7539 1052 00000000 		.4byte	0
 7540 1056 00000000 		.4byte	0
 7541              	.LLST77:
 7542 105a 00000000 		.4byte	.LVL284
 7543 105e 16000000 		.4byte	.LVL285
 7544 1062 0100     		.2byte	0x1
 7545 1064 50       		.byte	0x50
 7546 1065 16000000 		.4byte	.LVL285
 7547 1069 46000000 		.4byte	.LVL289
 7548 106d 0100     		.2byte	0x1
 7549 106f 54       		.byte	0x54
 7550 1070 46000000 		.4byte	.LVL289
 7551 1074 48000000 		.4byte	.LVL290
 7552 1078 0100     		.2byte	0x1
 7553 107a 50       		.byte	0x50
 7554 107b 48000000 		.4byte	.LVL290
 7555 107f 58000000 		.4byte	.LFE157
 7556 1083 0100     		.2byte	0x1
 7557 1085 54       		.byte	0x54
 7558 1086 00000000 		.4byte	0
 7559 108a 00000000 		.4byte	0
 7560              	.LLST78:
 7561 108e 00000000 		.4byte	.LVL284
 7562 1092 21000000 		.4byte	.LVL286-1
 7563 1096 0100     		.2byte	0x1
 7564 1098 51       		.byte	0x51
 7565 1099 21000000 		.4byte	.LVL286-1
 7566 109d 46000000 		.4byte	.LVL289
 7567 10a1 0400     		.2byte	0x4
 7568 10a3 F3       		.byte	0xf3
 7569 10a4 01       		.uleb128 0x1
 7570 10a5 51       		.byte	0x51
 7571 10a6 9F       		.byte	0x9f
 7572 10a7 46000000 		.4byte	.LVL289
 7573 10ab 58000000 		.4byte	.LFE157
 7574 10af 0100     		.2byte	0x1
 7575 10b1 51       		.byte	0x51
 7576 10b2 00000000 		.4byte	0
 7577 10b6 00000000 		.4byte	0
 7578              	.LLST79:
 7579 10ba 00000000 		.4byte	.LVL284
ARM GAS  /var/folders/m4/4md61f0s1_g0rzfghffqnxvr0000gn/T//ccmqP2UT.s 			page 134


 7580 10be 3C000000 		.4byte	.LVL288
 7581 10c2 0200     		.2byte	0x2
 7582 10c4 30       		.byte	0x30
 7583 10c5 9F       		.byte	0x9f
 7584 10c6 3C000000 		.4byte	.LVL288
 7585 10ca 46000000 		.4byte	.LVL289
 7586 10ce 0B00     		.2byte	0xb
 7587 10d0 75       		.byte	0x75
 7588 10d1 00       		.sleb128 0
 7589 10d2 08       		.byte	0x8
 7590 10d3 FF       		.byte	0xff
 7591 10d4 1A       		.byte	0x1a
 7592 10d5 73       		.byte	0x73
 7593 10d6 00       		.sleb128 0
 7594 10d7 1A       		.byte	0x1a
 7595 10d8 30       		.byte	0x30
 7596 10d9 2E       		.byte	0x2e
 7597 10da 9F       		.byte	0x9f
 7598 10db 46000000 		.4byte	.LVL289
 7599 10df 58000000 		.4byte	.LFE157
 7600 10e3 0200     		.2byte	0x2
 7601 10e5 30       		.byte	0x30
 7602 10e6 9F       		.byte	0x9f
 7603 10e7 00000000 		.4byte	0
 7604 10eb 00000000 		.4byte	0
 7605              	.LLST80:
 7606 10ef 00000000 		.4byte	.LVL291
 7607 10f3 16000000 		.4byte	.LVL292
 7608 10f7 0100     		.2byte	0x1
 7609 10f9 50       		.byte	0x50
 7610 10fa 16000000 		.4byte	.LVL292
 7611 10fe 44000000 		.4byte	.LVL297
 7612 1102 0100     		.2byte	0x1
 7613 1104 55       		.byte	0x55
 7614 1105 44000000 		.4byte	.LVL297
 7615 1109 46000000 		.4byte	.LVL298
 7616 110d 0100     		.2byte	0x1
 7617 110f 50       		.byte	0x50
 7618 1110 46000000 		.4byte	.LVL298
 7619 1114 50000000 		.4byte	.LFE158
 7620 1118 0100     		.2byte	0x1
 7621 111a 55       		.byte	0x55
 7622 111b 00000000 		.4byte	0
 7623 111f 00000000 		.4byte	0
 7624              	.LLST81:
 7625 1123 00000000 		.4byte	.LVL291
 7626 1127 21000000 		.4byte	.LVL293-1
 7627 112b 0100     		.2byte	0x1
 7628 112d 51       		.byte	0x51
 7629 112e 21000000 		.4byte	.LVL293-1
 7630 1132 44000000 		.4byte	.LVL297
 7631 1136 0400     		.2byte	0x4
 7632 1138 F3       		.byte	0xf3
 7633 1139 01       		.uleb128 0x1
 7634 113a 51       		.byte	0x51
 7635 113b 9F       		.byte	0x9f
 7636 113c 44000000 		.4byte	.LVL297
ARM GAS  /var/folders/m4/4md61f0s1_g0rzfghffqnxvr0000gn/T//ccmqP2UT.s 			page 135


 7637 1140 50000000 		.4byte	.LFE158
 7638 1144 0100     		.2byte	0x1
 7639 1146 51       		.byte	0x51
 7640 1147 00000000 		.4byte	0
 7641 114b 00000000 		.4byte	0
 7642              	.LLST82:
 7643 114f 00000000 		.4byte	.LVL299
 7644 1153 16000000 		.4byte	.LVL300
 7645 1157 0100     		.2byte	0x1
 7646 1159 50       		.byte	0x50
 7647 115a 16000000 		.4byte	.LVL300
 7648 115e 68000000 		.4byte	.LVL307
 7649 1162 0100     		.2byte	0x1
 7650 1164 55       		.byte	0x55
 7651 1165 68000000 		.4byte	.LVL307
 7652 1169 6A000000 		.4byte	.LVL308
 7653 116d 0100     		.2byte	0x1
 7654 116f 50       		.byte	0x50
 7655 1170 6A000000 		.4byte	.LVL308
 7656 1174 74000000 		.4byte	.LFE159
 7657 1178 0100     		.2byte	0x1
 7658 117a 55       		.byte	0x55
 7659 117b 00000000 		.4byte	0
 7660 117f 00000000 		.4byte	0
 7661              	.LLST83:
 7662 1183 00000000 		.4byte	.LVL299
 7663 1187 21000000 		.4byte	.LVL301-1
 7664 118b 0100     		.2byte	0x1
 7665 118d 51       		.byte	0x51
 7666 118e 21000000 		.4byte	.LVL301-1
 7667 1192 68000000 		.4byte	.LVL307
 7668 1196 0400     		.2byte	0x4
 7669 1198 F3       		.byte	0xf3
 7670 1199 01       		.uleb128 0x1
 7671 119a 51       		.byte	0x51
 7672 119b 9F       		.byte	0x9f
 7673 119c 68000000 		.4byte	.LVL307
 7674 11a0 74000000 		.4byte	.LFE159
 7675 11a4 0100     		.2byte	0x1
 7676 11a6 51       		.byte	0x51
 7677 11a7 00000000 		.4byte	0
 7678 11ab 00000000 		.4byte	0
 7679              	.LLST84:
 7680 11af 00000000 		.4byte	.LVL299
 7681 11b3 66000000 		.4byte	.LVL306
 7682 11b7 0200     		.2byte	0x2
 7683 11b9 30       		.byte	0x30
 7684 11ba 9F       		.byte	0x9f
 7685 11bb 66000000 		.4byte	.LVL306
 7686 11bf 68000000 		.4byte	.LVL307
 7687 11c3 0100     		.2byte	0x1
 7688 11c5 50       		.byte	0x50
 7689 11c6 68000000 		.4byte	.LVL307
 7690 11ca 74000000 		.4byte	.LFE159
 7691 11ce 0200     		.2byte	0x2
 7692 11d0 30       		.byte	0x30
 7693 11d1 9F       		.byte	0x9f
ARM GAS  /var/folders/m4/4md61f0s1_g0rzfghffqnxvr0000gn/T//ccmqP2UT.s 			page 136


 7694 11d2 00000000 		.4byte	0
 7695 11d6 00000000 		.4byte	0
 7696              	.LLST85:
 7697 11da 00000000 		.4byte	.LVL299
 7698 11de 4C000000 		.4byte	.LVL302
 7699 11e2 0200     		.2byte	0x2
 7700 11e4 30       		.byte	0x30
 7701 11e5 9F       		.byte	0x9f
 7702 11e6 4C000000 		.4byte	.LVL302
 7703 11ea 5A000000 		.4byte	.LVL304
 7704 11ee 0900     		.2byte	0x9
 7705 11f0 74       		.byte	0x74
 7706 11f1 00       		.sleb128 0
 7707 11f2 38       		.byte	0x38
 7708 11f3 25       		.byte	0x25
 7709 11f4 0A       		.byte	0xa
 7710 11f5 FFFF     		.2byte	0xffff
 7711 11f7 1A       		.byte	0x1a
 7712 11f8 9F       		.byte	0x9f
 7713 11f9 68000000 		.4byte	.LVL307
 7714 11fd 74000000 		.4byte	.LFE159
 7715 1201 0200     		.2byte	0x2
 7716 1203 30       		.byte	0x30
 7717 1204 9F       		.byte	0x9f
 7718 1205 00000000 		.4byte	0
 7719 1209 00000000 		.4byte	0
 7720              	.LLST86:
 7721 120d 00000000 		.4byte	.LVL299
 7722 1211 4E000000 		.4byte	.LVL303
 7723 1215 0200     		.2byte	0x2
 7724 1217 30       		.byte	0x30
 7725 1218 9F       		.byte	0x9f
 7726 1219 4E000000 		.4byte	.LVL303
 7727 121d 5E000000 		.4byte	.LVL305
 7728 1221 0B00     		.2byte	0xb
 7729 1223 31       		.byte	0x31
 7730 1224 74       		.byte	0x74
 7731 1225 00       		.sleb128 0
 7732 1226 08       		.byte	0x8
 7733 1227 FF       		.byte	0xff
 7734 1228 1A       		.byte	0x1a
 7735 1229 24       		.byte	0x24
 7736 122a 73       		.byte	0x73
 7737 122b 00       		.sleb128 0
 7738 122c 1A       		.byte	0x1a
 7739 122d 9F       		.byte	0x9f
 7740 122e 68000000 		.4byte	.LVL307
 7741 1232 74000000 		.4byte	.LFE159
 7742 1236 0200     		.2byte	0x2
 7743 1238 30       		.byte	0x30
 7744 1239 9F       		.byte	0x9f
 7745 123a 00000000 		.4byte	0
 7746 123e 00000000 		.4byte	0
 7747              	.LLST87:
 7748 1242 00000000 		.4byte	.LVL309
 7749 1246 16000000 		.4byte	.LVL310
 7750 124a 0100     		.2byte	0x1
ARM GAS  /var/folders/m4/4md61f0s1_g0rzfghffqnxvr0000gn/T//ccmqP2UT.s 			page 137


 7751 124c 50       		.byte	0x50
 7752 124d 16000000 		.4byte	.LVL310
 7753 1251 5E000000 		.4byte	.LVL315
 7754 1255 0100     		.2byte	0x1
 7755 1257 55       		.byte	0x55
 7756 1258 5E000000 		.4byte	.LVL315
 7757 125c 60000000 		.4byte	.LVL316
 7758 1260 0100     		.2byte	0x1
 7759 1262 50       		.byte	0x50
 7760 1263 60000000 		.4byte	.LVL316
 7761 1267 6C000000 		.4byte	.LFE160
 7762 126b 0100     		.2byte	0x1
 7763 126d 55       		.byte	0x55
 7764 126e 00000000 		.4byte	0
 7765 1272 00000000 		.4byte	0
 7766              	.LLST88:
 7767 1276 00000000 		.4byte	.LVL309
 7768 127a 21000000 		.4byte	.LVL311-1
 7769 127e 0100     		.2byte	0x1
 7770 1280 51       		.byte	0x51
 7771 1281 21000000 		.4byte	.LVL311-1
 7772 1285 5E000000 		.4byte	.LVL315
 7773 1289 0400     		.2byte	0x4
 7774 128b F3       		.byte	0xf3
 7775 128c 01       		.uleb128 0x1
 7776 128d 51       		.byte	0x51
 7777 128e 9F       		.byte	0x9f
 7778 128f 5E000000 		.4byte	.LVL315
 7779 1293 6C000000 		.4byte	.LFE160
 7780 1297 0100     		.2byte	0x1
 7781 1299 51       		.byte	0x51
 7782 129a 00000000 		.4byte	0
 7783 129e 00000000 		.4byte	0
 7784              	.LLST89:
 7785 12a2 00000000 		.4byte	.LVL309
 7786 12a6 4C000000 		.4byte	.LVL312
 7787 12aa 0200     		.2byte	0x2
 7788 12ac 30       		.byte	0x30
 7789 12ad 9F       		.byte	0x9f
 7790 12ae 50000000 		.4byte	.LVL313
 7791 12b2 5A000000 		.4byte	.LVL314
 7792 12b6 0200     		.2byte	0x2
 7793 12b8 30       		.byte	0x30
 7794 12b9 9F       		.byte	0x9f
 7795 12ba 5E000000 		.4byte	.LVL315
 7796 12be 6C000000 		.4byte	.LFE160
 7797 12c2 0200     		.2byte	0x2
 7798 12c4 30       		.byte	0x30
 7799 12c5 9F       		.byte	0x9f
 7800 12c6 00000000 		.4byte	0
 7801 12ca 00000000 		.4byte	0
 7802              		.section	.debug_aranges,"",%progbits
 7803 0000 44010000 		.4byte	0x144
 7804 0004 0200     		.2byte	0x2
 7805 0006 00000000 		.4byte	.Ldebug_info0
 7806 000a 04       		.byte	0x4
 7807 000b 00       		.byte	0
ARM GAS  /var/folders/m4/4md61f0s1_g0rzfghffqnxvr0000gn/T//ccmqP2UT.s 			page 138


 7808 000c 0000     		.2byte	0
 7809 000e 0000     		.2byte	0
 7810 0010 00000000 		.4byte	.LFB123
 7811 0014 1A000000 		.4byte	.LFE123-.LFB123
 7812 0018 00000000 		.4byte	.LFB124
 7813 001c FC000000 		.4byte	.LFE124-.LFB124
 7814 0020 00000000 		.4byte	.LFB125
 7815 0024 14000000 		.4byte	.LFE125-.LFB125
 7816 0028 00000000 		.4byte	.LFB126
 7817 002c 88000000 		.4byte	.LFE126-.LFB126
 7818 0030 00000000 		.4byte	.LFB127
 7819 0034 0C000000 		.4byte	.LFE127-.LFB127
 7820 0038 00000000 		.4byte	.LFB128
 7821 003c 50000000 		.4byte	.LFE128-.LFB128
 7822 0040 00000000 		.4byte	.LFB129
 7823 0044 70000000 		.4byte	.LFE129-.LFB129
 7824 0048 00000000 		.4byte	.LFB130
 7825 004c 54000000 		.4byte	.LFE130-.LFB130
 7826 0050 00000000 		.4byte	.LFB131
 7827 0054 48000000 		.4byte	.LFE131-.LFB131
 7828 0058 00000000 		.4byte	.LFB132
 7829 005c 2C000000 		.4byte	.LFE132-.LFB132
 7830 0060 00000000 		.4byte	.LFB133
 7831 0064 2C000000 		.4byte	.LFE133-.LFB133
 7832 0068 00000000 		.4byte	.LFB134
 7833 006c F8000000 		.4byte	.LFE134-.LFB134
 7834 0070 00000000 		.4byte	.LFB135
 7835 0074 38000000 		.4byte	.LFE135-.LFB135
 7836 0078 00000000 		.4byte	.LFB136
 7837 007c 40000000 		.4byte	.LFE136-.LFB136
 7838 0080 00000000 		.4byte	.LFB137
 7839 0084 50000000 		.4byte	.LFE137-.LFB137
 7840 0088 00000000 		.4byte	.LFB138
 7841 008c 50000000 		.4byte	.LFE138-.LFB138
 7842 0090 00000000 		.4byte	.LFB139
 7843 0094 4C000000 		.4byte	.LFE139-.LFB139
 7844 0098 00000000 		.4byte	.LFB140
 7845 009c 50000000 		.4byte	.LFE140-.LFB140
 7846 00a0 00000000 		.4byte	.LFB141
 7847 00a4 3C000000 		.4byte	.LFE141-.LFB141
 7848 00a8 00000000 		.4byte	.LFB142
 7849 00ac 0C000000 		.4byte	.LFE142-.LFB142
 7850 00b0 00000000 		.4byte	.LFB143
 7851 00b4 50000000 		.4byte	.LFE143-.LFB143
 7852 00b8 00000000 		.4byte	.LFB144
 7853 00bc 50000000 		.4byte	.LFE144-.LFB144
 7854 00c0 00000000 		.4byte	.LFB145
 7855 00c4 2C000000 		.4byte	.LFE145-.LFB145
 7856 00c8 00000000 		.4byte	.LFB146
 7857 00cc B0000000 		.4byte	.LFE146-.LFB146
 7858 00d0 00000000 		.4byte	.LFB147
 7859 00d4 4C000000 		.4byte	.LFE147-.LFB147
 7860 00d8 00000000 		.4byte	.LFB148
 7861 00dc 70000000 		.4byte	.LFE148-.LFB148
 7862 00e0 00000000 		.4byte	.LFB149
 7863 00e4 60000000 		.4byte	.LFE149-.LFB149
 7864 00e8 00000000 		.4byte	.LFB150
ARM GAS  /var/folders/m4/4md61f0s1_g0rzfghffqnxvr0000gn/T//ccmqP2UT.s 			page 139


 7865 00ec 48000000 		.4byte	.LFE150-.LFB150
 7866 00f0 00000000 		.4byte	.LFB151
 7867 00f4 38000000 		.4byte	.LFE151-.LFB151
 7868 00f8 00000000 		.4byte	.LFB152
 7869 00fc 40000000 		.4byte	.LFE152-.LFB152
 7870 0100 00000000 		.4byte	.LFB153
 7871 0104 50000000 		.4byte	.LFE153-.LFB153
 7872 0108 00000000 		.4byte	.LFB154
 7873 010c 50000000 		.4byte	.LFE154-.LFB154
 7874 0110 00000000 		.4byte	.LFB155
 7875 0114 64000000 		.4byte	.LFE155-.LFB155
 7876 0118 00000000 		.4byte	.LFB156
 7877 011c 80000000 		.4byte	.LFE156-.LFB156
 7878 0120 00000000 		.4byte	.LFB157
 7879 0124 58000000 		.4byte	.LFE157-.LFB157
 7880 0128 00000000 		.4byte	.LFB158
 7881 012c 50000000 		.4byte	.LFE158-.LFB158
 7882 0130 00000000 		.4byte	.LFB159
 7883 0134 74000000 		.4byte	.LFE159-.LFB159
 7884 0138 00000000 		.4byte	.LFB160
 7885 013c 6C000000 		.4byte	.LFE160-.LFB160
 7886 0140 00000000 		.4byte	0
 7887 0144 00000000 		.4byte	0
 7888              		.section	.debug_ranges,"",%progbits
 7889              	.Ldebug_ranges0:
 7890 0000 00000000 		.4byte	.LFB123
 7891 0004 1A000000 		.4byte	.LFE123
 7892 0008 00000000 		.4byte	.LFB124
 7893 000c FC000000 		.4byte	.LFE124
 7894 0010 00000000 		.4byte	.LFB125
 7895 0014 14000000 		.4byte	.LFE125
 7896 0018 00000000 		.4byte	.LFB126
 7897 001c 88000000 		.4byte	.LFE126
 7898 0020 00000000 		.4byte	.LFB127
 7899 0024 0C000000 		.4byte	.LFE127
 7900 0028 00000000 		.4byte	.LFB128
 7901 002c 50000000 		.4byte	.LFE128
 7902 0030 00000000 		.4byte	.LFB129
 7903 0034 70000000 		.4byte	.LFE129
 7904 0038 00000000 		.4byte	.LFB130
 7905 003c 54000000 		.4byte	.LFE130
 7906 0040 00000000 		.4byte	.LFB131
 7907 0044 48000000 		.4byte	.LFE131
 7908 0048 00000000 		.4byte	.LFB132
 7909 004c 2C000000 		.4byte	.LFE132
 7910 0050 00000000 		.4byte	.LFB133
 7911 0054 2C000000 		.4byte	.LFE133
 7912 0058 00000000 		.4byte	.LFB134
 7913 005c F8000000 		.4byte	.LFE134
 7914 0060 00000000 		.4byte	.LFB135
 7915 0064 38000000 		.4byte	.LFE135
 7916 0068 00000000 		.4byte	.LFB136
 7917 006c 40000000 		.4byte	.LFE136
 7918 0070 00000000 		.4byte	.LFB137
 7919 0074 50000000 		.4byte	.LFE137
 7920 0078 00000000 		.4byte	.LFB138
 7921 007c 50000000 		.4byte	.LFE138
ARM GAS  /var/folders/m4/4md61f0s1_g0rzfghffqnxvr0000gn/T//ccmqP2UT.s 			page 140


 7922 0080 00000000 		.4byte	.LFB139
 7923 0084 4C000000 		.4byte	.LFE139
 7924 0088 00000000 		.4byte	.LFB140
 7925 008c 50000000 		.4byte	.LFE140
 7926 0090 00000000 		.4byte	.LFB141
 7927 0094 3C000000 		.4byte	.LFE141
 7928 0098 00000000 		.4byte	.LFB142
 7929 009c 0C000000 		.4byte	.LFE142
 7930 00a0 00000000 		.4byte	.LFB143
 7931 00a4 50000000 		.4byte	.LFE143
 7932 00a8 00000000 		.4byte	.LFB144
 7933 00ac 50000000 		.4byte	.LFE144
 7934 00b0 00000000 		.4byte	.LFB145
 7935 00b4 2C000000 		.4byte	.LFE145
 7936 00b8 00000000 		.4byte	.LFB146
 7937 00bc B0000000 		.4byte	.LFE146
 7938 00c0 00000000 		.4byte	.LFB147
 7939 00c4 4C000000 		.4byte	.LFE147
 7940 00c8 00000000 		.4byte	.LFB148
 7941 00cc 70000000 		.4byte	.LFE148
 7942 00d0 00000000 		.4byte	.LFB149
 7943 00d4 60000000 		.4byte	.LFE149
 7944 00d8 00000000 		.4byte	.LFB150
 7945 00dc 48000000 		.4byte	.LFE150
 7946 00e0 00000000 		.4byte	.LFB151
 7947 00e4 38000000 		.4byte	.LFE151
 7948 00e8 00000000 		.4byte	.LFB152
 7949 00ec 40000000 		.4byte	.LFE152
 7950 00f0 00000000 		.4byte	.LFB153
 7951 00f4 50000000 		.4byte	.LFE153
 7952 00f8 00000000 		.4byte	.LFB154
 7953 00fc 50000000 		.4byte	.LFE154
 7954 0100 00000000 		.4byte	.LFB155
 7955 0104 64000000 		.4byte	.LFE155
 7956 0108 00000000 		.4byte	.LFB156
 7957 010c 80000000 		.4byte	.LFE156
 7958 0110 00000000 		.4byte	.LFB157
 7959 0114 58000000 		.4byte	.LFE157
 7960 0118 00000000 		.4byte	.LFB158
 7961 011c 50000000 		.4byte	.LFE158
 7962 0120 00000000 		.4byte	.LFB159
 7963 0124 74000000 		.4byte	.LFE159
 7964 0128 00000000 		.4byte	.LFB160
 7965 012c 6C000000 		.4byte	.LFE160
 7966 0130 00000000 		.4byte	0
 7967 0134 00000000 		.4byte	0
 7968              		.section	.debug_line,"",%progbits
 7969              	.Ldebug_line0:
 7970 0000 4D0B0000 		.section	.debug_str,"MS",%progbits,1
 7970      02002E02 
 7970      00000201 
 7970      FB0E0D00 
 7970      01010101 
 7971              	.LASF78:
 7972 0000 4144435F 		.ascii	"ADC_SampleTime\000"
 7972      53616D70 
 7972      6C655469 
ARM GAS  /var/folders/m4/4md61f0s1_g0rzfghffqnxvr0000gn/T//ccmqP2UT.s 			page 141


 7972      6D6500
 7973              	.LASF75:
 7974 000f 4144435F 		.ascii	"ADC_VBATCmd\000"
 7974      56424154 
 7974      436D6400 
 7975              	.LASF47:
 7976 001b 4144435F 		.ascii	"ADC_InitTypeDef\000"
 7976      496E6974 
 7976      54797065 
 7976      44656600 
 7977              	.LASF24:
 7978 002b 53515231 		.ascii	"SQR1\000"
 7978      00
 7979              	.LASF25:
 7980 0030 53515232 		.ascii	"SQR2\000"
 7980      00
 7981              	.LASF26:
 7982 0035 53515233 		.ascii	"SQR3\000"
 7982      00
 7983              	.LASF46:
 7984 003a 4144435F 		.ascii	"ADC_NbrOfConversion\000"
 7984      4E62724F 
 7984      66436F6E 
 7984      76657273 
 7984      696F6E00 
 7985              	.LASF63:
 7986 004e 4144435F 		.ascii	"ADC_CommonStructInit\000"
 7986      436F6D6D 
 7986      6F6E5374 
 7986      72756374 
 7986      496E6974 
 7987              	.LASF67:
 7988 0063 4144435F 		.ascii	"ADC_AnalogWatchdog\000"
 7988      416E616C 
 7988      6F675761 
 7988      74636864 
 7988      6F6700
 7989              	.LASF12:
 7990 0076 756E7369 		.ascii	"unsigned int\000"
 7990      676E6564 
 7990      20696E74 
 7990      00
 7991              	.LASF39:
 7992 0083 46756E63 		.ascii	"FunctionalState\000"
 7992      74696F6E 
 7992      616C5374 
 7992      61746500 
 7993              	.LASF6:
 7994 0093 5F5F696E 		.ascii	"__int32_t\000"
 7994      7433325F 
 7994      7400
 7995              	.LASF119:
 7996 009d 2F557365 		.ascii	"/Users/raphael/Documents/Projects/rESC/resc-firmwar"
 7996      72732F72 
 7996      61706861 
 7996      656C2F44 
 7996      6F63756D 
ARM GAS  /var/folders/m4/4md61f0s1_g0rzfghffqnxvr0000gn/T//ccmqP2UT.s 			page 142


 7997 00d0 6500     		.ascii	"e\000"
 7998              	.LASF35:
 7999 00d2 466C6167 		.ascii	"FlagStatus\000"
 7999      53746174 
 7999      757300
 8000              	.LASF114:
 8001 00dd 656E6162 		.ascii	"enablestatus\000"
 8001      6C657374 
 8001      61747573 
 8001      00
 8002              	.LASF88:
 8003 00ea 4144435F 		.ascii	"ADC_DMACmd\000"
 8003      444D4143 
 8003      6D6400
 8004              	.LASF56:
 8005 00f5 4144435F 		.ascii	"ADC_InitStruct\000"
 8005      496E6974 
 8005      53747275 
 8005      637400
 8006              	.LASF100:
 8007 0104 4144435F 		.ascii	"ADC_ExternalTrigInjectedConvEdgeConfig\000"
 8007      45787465 
 8007      726E616C 
 8007      54726967 
 8007      496E6A65 
 8008              	.LASF16:
 8009 012b 75696E74 		.ascii	"uint32_t\000"
 8009      33325F74 
 8009      00
 8010              	.LASF113:
 8011 0134 4144435F 		.ascii	"ADC_GetITStatus\000"
 8011      47657449 
 8011      54537461 
 8011      74757300 
 8012              	.LASF64:
 8013 0144 4144435F 		.ascii	"ADC_Cmd\000"
 8013      436D6400 
 8014              	.LASF66:
 8015 014c 4144435F 		.ascii	"ADC_AnalogWatchdogCmd\000"
 8015      416E616C 
 8015      6F675761 
 8015      74636864 
 8015      6F67436D 
 8016              	.LASF53:
 8017 0162 4144435F 		.ascii	"ADC_DeInit\000"
 8017      4465496E 
 8017      697400
 8018              	.LASF103:
 8019 016d 4144435F 		.ascii	"ADC_GetSoftwareStartInjectedConvCmdStatus\000"
 8019      47657453 
 8019      6F667477 
 8019      61726553 
 8019      74617274 
 8020              	.LASF11:
 8021 0197 6C6F6E67 		.ascii	"long long unsigned int\000"
 8021      206C6F6E 
 8021      6720756E 
ARM GAS  /var/folders/m4/4md61f0s1_g0rzfghffqnxvr0000gn/T//ccmqP2UT.s 			page 143


 8021      7369676E 
 8021      65642069 
 8022              	.LASF95:
 8023 01ae 4144435F 		.ascii	"ADC_SetInjectedOffset\000"
 8023      53657449 
 8023      6E6A6563 
 8023      7465644F 
 8023      66667365 
 8024              	.LASF41:
 8025 01c4 4144435F 		.ascii	"ADC_ScanConvMode\000"
 8025      5363616E 
 8025      436F6E76 
 8025      4D6F6465 
 8025      00
 8026              	.LASF54:
 8027 01d5 4144435F 		.ascii	"ADC_Init\000"
 8027      496E6974 
 8027      00
 8028              	.LASF4:
 8029 01de 5F5F7569 		.ascii	"__uint16_t\000"
 8029      6E743136 
 8029      5F7400
 8030              	.LASF96:
 8031 01e9 4144435F 		.ascii	"ADC_InjectedChannel\000"
 8031      496E6A65 
 8031      63746564 
 8031      4368616E 
 8031      6E656C00 
 8032              	.LASF94:
 8033 01fd 4C656E67 		.ascii	"Length\000"
 8033      746800
 8034              	.LASF89:
 8035 0204 4144435F 		.ascii	"ADC_DMARequestAfterLastTransferCmd\000"
 8035      444D4152 
 8035      65717565 
 8035      73744166 
 8035      7465724C 
 8036              	.LASF68:
 8037 0227 746D7072 		.ascii	"tmpreg\000"
 8037      656700
 8038              	.LASF105:
 8039 022e 4144435F 		.ascii	"ADC_InjectedDiscModeCmd\000"
 8039      496E6A65 
 8039      63746564 
 8039      44697363 
 8039      4D6F6465 
 8040              	.LASF36:
 8041 0246 49545374 		.ascii	"ITStatus\000"
 8041      61747573 
 8041      00
 8042              	.LASF111:
 8043 024f 4144435F 		.ascii	"ADC_FLAG\000"
 8043      464C4147 
 8043      00
 8044              	.LASF84:
 8045 0258 4E756D62 		.ascii	"Number\000"
 8045      657200
ARM GAS  /var/folders/m4/4md61f0s1_g0rzfghffqnxvr0000gn/T//ccmqP2UT.s 			page 144


 8046              	.LASF65:
 8047 025f 4E657753 		.ascii	"NewState\000"
 8047      74617465 
 8047      00
 8048              	.LASF98:
 8049 0268 4144435F 		.ascii	"ADC_ExternalTrigInjectedConvConfig\000"
 8049      45787465 
 8049      726E616C 
 8049      54726967 
 8049      496E6A65 
 8050              	.LASF69:
 8051 028b 4144435F 		.ascii	"ADC_AnalogWatchdogThresholdsConfig\000"
 8051      416E616C 
 8051      6F675761 
 8051      74636864 
 8051      6F675468 
 8052              	.LASF108:
 8053 02ae 4144435F 		.ascii	"ADC_IT\000"
 8053      495400
 8054              	.LASF70:
 8055 02b5 48696768 		.ascii	"HighThreshold\000"
 8055      54687265 
 8055      73686F6C 
 8055      6400
 8056              	.LASF42:
 8057 02c3 4144435F 		.ascii	"ADC_ContinuousConvMode\000"
 8057      436F6E74 
 8057      696E756F 
 8057      7573436F 
 8057      6E764D6F 
 8058              	.LASF37:
 8059 02da 44495341 		.ascii	"DISABLE\000"
 8059      424C4500 
 8060              	.LASF72:
 8061 02e2 4144435F 		.ascii	"ADC_AnalogWatchdogSingleChannelConfig\000"
 8061      416E616C 
 8061      6F675761 
 8061      74636864 
 8061      6F675369 
 8062              	.LASF13:
 8063 0308 75696E74 		.ascii	"uint8_t\000"
 8063      385F7400 
 8064              	.LASF61:
 8065 0310 4144435F 		.ascii	"ADC_CommonInitStruct\000"
 8065      436F6D6D 
 8065      6F6E496E 
 8065      69745374 
 8065      72756374 
 8066              	.LASF50:
 8067 0325 4144435F 		.ascii	"ADC_DMAAccessMode\000"
 8067      444D4141 
 8067      63636573 
 8067      734D6F64 
 8067      6500
 8068              	.LASF32:
 8069 0337 4144435F 		.ascii	"ADC_TypeDef\000"
 8069      54797065 
ARM GAS  /var/folders/m4/4md61f0s1_g0rzfghffqnxvr0000gn/T//ccmqP2UT.s 			page 145


 8069      44656600 
 8070              	.LASF10:
 8071 0343 6C6F6E67 		.ascii	"long long int\000"
 8071      206C6F6E 
 8071      6720696E 
 8071      7400
 8072              	.LASF43:
 8073 0351 4144435F 		.ascii	"ADC_ExternalTrigConvEdge\000"
 8073      45787465 
 8073      726E616C 
 8073      54726967 
 8073      436F6E76 
 8074              	.LASF40:
 8075 036a 4144435F 		.ascii	"ADC_Resolution\000"
 8075      5265736F 
 8075      6C757469 
 8075      6F6E00
 8076              	.LASF60:
 8077 0379 4144435F 		.ascii	"ADC_CommonInit\000"
 8077      436F6D6D 
 8077      6F6E496E 
 8077      697400
 8078              	.LASF71:
 8079 0388 4C6F7754 		.ascii	"LowThreshold\000"
 8079      68726573 
 8079      686F6C64 
 8079      00
 8080              	.LASF55:
 8081 0395 41444378 		.ascii	"ADCx\000"
 8081      00
 8082              	.LASF74:
 8083 039a 4144435F 		.ascii	"ADC_TempSensorVrefintCmd\000"
 8083      54656D70 
 8083      53656E73 
 8083      6F725672 
 8083      6566696E 
 8084              	.LASF120:
 8085 03b3 4144435F 		.ascii	"ADC_GetMultiModeConversionValue\000"
 8085      4765744D 
 8085      756C7469 
 8085      4D6F6465 
 8085      436F6E76 
 8086              	.LASF91:
 8087 03d3 4144435F 		.ascii	"ADC_InjectedChannelConfig\000"
 8087      496E6A65 
 8087      63746564 
 8087      4368616E 
 8087      6E656C43 
 8088              	.LASF51:
 8089 03ed 4144435F 		.ascii	"ADC_TwoSamplingDelay\000"
 8089      54776F53 
 8089      616D706C 
 8089      696E6744 
 8089      656C6179 
 8090              	.LASF27:
 8091 0402 4A535152 		.ascii	"JSQR\000"
 8091      00
ARM GAS  /var/folders/m4/4md61f0s1_g0rzfghffqnxvr0000gn/T//ccmqP2UT.s 			page 146


 8092              	.LASF115:
 8093 0407 4144435F 		.ascii	"ADC_ClearITPendingBit\000"
 8093      436C6561 
 8093      72495450 
 8093      656E6469 
 8093      6E674269 
 8094              	.LASF107:
 8095 041d 4144435F 		.ascii	"ADC_ITConfig\000"
 8095      4954436F 
 8095      6E666967 
 8095      00
 8096              	.LASF18:
 8097 042a 534D5052 		.ascii	"SMPR1\000"
 8097      3100
 8098              	.LASF19:
 8099 0430 534D5052 		.ascii	"SMPR2\000"
 8099      3200
 8100              	.LASF116:
 8101 0436 5243435F 		.ascii	"RCC_APB2PeriphResetCmd\000"
 8101      41504232 
 8101      50657269 
 8101      70685265 
 8101      73657443 
 8102              	.LASF48:
 8103 044d 4144435F 		.ascii	"ADC_Mode\000"
 8103      4D6F6465 
 8103      00
 8104              	.LASF110:
 8105 0456 4144435F 		.ascii	"ADC_GetFlagStatus\000"
 8105      47657446 
 8105      6C616753 
 8105      74617475 
 8105      7300
 8106              	.LASF86:
 8107 0468 4144435F 		.ascii	"ADC_GetSoftwareStartConvStatus\000"
 8107      47657453 
 8107      6F667477 
 8107      61726553 
 8107      74617274 
 8108              	.LASF14:
 8109 0487 75696E74 		.ascii	"uint16_t\000"
 8109      31365F74 
 8109      00
 8110              	.LASF109:
 8111 0490 69746D61 		.ascii	"itmask\000"
 8111      736B00
 8112              	.LASF79:
 8113 0497 4144435F 		.ascii	"ADC_SoftwareStartConv\000"
 8113      536F6674 
 8113      77617265 
 8113      53746172 
 8113      74436F6E 
 8114              	.LASF77:
 8115 04ad 52616E6B 		.ascii	"Rank\000"
 8115      00
 8116              	.LASF28:
 8117 04b2 4A445231 		.ascii	"JDR1\000"
ARM GAS  /var/folders/m4/4md61f0s1_g0rzfghffqnxvr0000gn/T//ccmqP2UT.s 			page 147


 8117      00
 8118              	.LASF29:
 8119 04b7 4A445232 		.ascii	"JDR2\000"
 8119      00
 8120              	.LASF30:
 8121 04bc 4A445233 		.ascii	"JDR3\000"
 8121      00
 8122              	.LASF31:
 8123 04c1 4A445234 		.ascii	"JDR4\000"
 8123      00
 8124              	.LASF59:
 8125 04c6 4144435F 		.ascii	"ADC_StructInit\000"
 8125      53747275 
 8125      6374496E 
 8125      697400
 8126              	.LASF49:
 8127 04d5 4144435F 		.ascii	"ADC_Prescaler\000"
 8127      50726573 
 8127      63616C65 
 8127      7200
 8128              	.LASF2:
 8129 04e3 73686F72 		.ascii	"short int\000"
 8129      7420696E 
 8129      7400
 8130              	.LASF33:
 8131 04ed 4144435F 		.ascii	"ADC_Common_TypeDef\000"
 8131      436F6D6D 
 8131      6F6E5F54 
 8131      79706544 
 8131      656600
 8132              	.LASF7:
 8133 0500 6C6F6E67 		.ascii	"long int\000"
 8133      20696E74 
 8133      00
 8134              	.LASF121:
 8135 0509 49544D5F 		.ascii	"ITM_RxBuffer\000"
 8135      52784275 
 8135      66666572 
 8135      00
 8136              	.LASF45:
 8137 0516 4144435F 		.ascii	"ADC_DataAlign\000"
 8137      44617461 
 8137      416C6967 
 8137      6E00
 8138              	.LASF62:
 8139 0524 61737365 		.ascii	"assert_param\000"
 8139      72745F70 
 8139      6172616D 
 8139      00
 8140              	.LASF34:
 8141 0531 52455345 		.ascii	"RESET\000"
 8141      5400
 8142              	.LASF99:
 8143 0537 4144435F 		.ascii	"ADC_ExternalTrigInjecConv\000"
 8143      45787465 
 8143      726E616C 
 8143      54726967 
ARM GAS  /var/folders/m4/4md61f0s1_g0rzfghffqnxvr0000gn/T//ccmqP2UT.s 			page 148


 8143      496E6A65 
 8144              	.LASF102:
 8145 0551 4144435F 		.ascii	"ADC_SoftwareStartInjectedConv\000"
 8145      536F6674 
 8145      77617265 
 8145      53746172 
 8145      74496E6A 
 8146              	.LASF83:
 8147 056f 4144435F 		.ascii	"ADC_DiscModeChannelCountConfig\000"
 8147      44697363 
 8147      4D6F6465 
 8147      4368616E 
 8147      6E656C43 
 8148              	.LASF104:
 8149 058e 4144435F 		.ascii	"ADC_AutoInjectedConvCmd\000"
 8149      4175746F 
 8149      496E6A65 
 8149      63746564 
 8149      436F6E76 
 8150              	.LASF3:
 8151 05a6 5F5F7569 		.ascii	"__uint8_t\000"
 8151      6E74385F 
 8151      7400
 8152              	.LASF112:
 8153 05b0 4144435F 		.ascii	"ADC_ClearFlag\000"
 8153      436C6561 
 8153      72466C61 
 8153      6700
 8154              	.LASF106:
 8155 05be 4144435F 		.ascii	"ADC_GetInjectedConversionValue\000"
 8155      47657449 
 8155      6E6A6563 
 8155      74656443 
 8155      6F6E7665 
 8156              	.LASF73:
 8157 05dd 4144435F 		.ascii	"ADC_Channel\000"
 8157      4368616E 
 8157      6E656C00 
 8158              	.LASF117:
 8159 05e9 474E5520 		.ascii	"GNU C99 5.2.1 20151202 (release) [ARM/embedded-5-br"
 8159      43393920 
 8159      352E322E 
 8159      31203230 
 8159      31353132 
 8160 061c 616E6368 		.ascii	"anch revision 231848] -mcpu=cortex-m4 -mfloat-abi=h"
 8160      20726576 
 8160      6973696F 
 8160      6E203233 
 8160      31383438 
 8161 064f 61726420 		.ascii	"ard -mfpu=fpv4-sp-d16 -mno-thumb-interwork -mthumb "
 8161      2D6D6670 
 8161      753D6670 
 8161      76342D73 
 8161      702D6431 
 8162 0682 2D676764 		.ascii	"-ggdb -O2 -std=c99 -fomit-frame-pointer -falign-fun"
 8162      62202D4F 
 8162      32202D73 
ARM GAS  /var/folders/m4/4md61f0s1_g0rzfghffqnxvr0000gn/T//ccmqP2UT.s 			page 149


 8162      74643D63 
 8162      3939202D 
 8163 06b5 6374696F 		.ascii	"ctions=16 -ffunction-sections -fdata-sections -fno-"
 8163      6E733D31 
 8163      36202D66 
 8163      66756E63 
 8163      74696F6E 
 8164 06e8 636F6D6D 		.ascii	"common\000"
 8164      6F6E00
 8165              	.LASF38:
 8166 06ef 454E4142 		.ascii	"ENABLE\000"
 8166      4C4500
 8167              	.LASF17:
 8168 06f6 73697A65 		.ascii	"sizetype\000"
 8168      74797065 
 8168      00
 8169              	.LASF9:
 8170 06ff 6C6F6E67 		.ascii	"long unsigned int\000"
 8170      20756E73 
 8170      69676E65 
 8170      6420696E 
 8170      7400
 8171              	.LASF57:
 8172 0711 746D7072 		.ascii	"tmpreg1\000"
 8172      65673100 
 8173              	.LASF58:
 8174 0719 746D7072 		.ascii	"tmpreg2\000"
 8174      65673200 
 8175              	.LASF92:
 8176 0721 746D7072 		.ascii	"tmpreg3\000"
 8176      65673300 
 8177              	.LASF15:
 8178 0729 696E7433 		.ascii	"int32_t\000"
 8178      325F7400 
 8179              	.LASF101:
 8180 0731 4144435F 		.ascii	"ADC_ExternalTrigInjecConvEdge\000"
 8180      45787465 
 8180      726E616C 
 8180      54726967 
 8180      496E6A65 
 8181              	.LASF1:
 8182 074f 756E7369 		.ascii	"unsigned char\000"
 8182      676E6564 
 8182      20636861 
 8182      7200
 8183              	.LASF82:
 8184 075d 4144435F 		.ascii	"ADC_ContinuousModeCmd\000"
 8184      436F6E74 
 8184      696E756F 
 8184      75734D6F 
 8184      6465436D 
 8185              	.LASF8:
 8186 0773 5F5F7569 		.ascii	"__uint32_t\000"
 8186      6E743332 
 8186      5F7400
 8187              	.LASF118:
 8188 077e 43686962 		.ascii	"ChibiOS_16.1.4/ext/stdperiph_stm32f4/src/stm32f4xx_"
ARM GAS  /var/folders/m4/4md61f0s1_g0rzfghffqnxvr0000gn/T//ccmqP2UT.s 			page 150


 8188      694F535F 
 8188      31362E31 
 8188      2E342F65 
 8188      78742F73 
 8189 07b1 6164632E 		.ascii	"adc.c\000"
 8189      6300
 8190              	.LASF81:
 8191 07b7 4144435F 		.ascii	"ADC_EOCOnEachRegularChannelCmd\000"
 8191      454F434F 
 8191      6E456163 
 8191      68526567 
 8191      756C6172 
 8192              	.LASF52:
 8193 07d6 4144435F 		.ascii	"ADC_CommonInitTypeDef\000"
 8193      436F6D6D 
 8193      6F6E496E 
 8193      69745479 
 8193      70654465 
 8194              	.LASF93:
 8195 07ec 4144435F 		.ascii	"ADC_InjectedSequencerLengthConfig\000"
 8195      496E6A65 
 8195      63746564 
 8195      53657175 
 8195      656E6365 
 8196              	.LASF90:
 8197 080e 4144435F 		.ascii	"ADC_MultiModeDMARequestAfterLastTransferCmd\000"
 8197      4D756C74 
 8197      694D6F64 
 8197      65444D41 
 8197      52657175 
 8198              	.LASF85:
 8199 083a 4144435F 		.ascii	"ADC_DiscModeCmd\000"
 8199      44697363 
 8199      4D6F6465 
 8199      436D6400 
 8200              	.LASF44:
 8201 084a 4144435F 		.ascii	"ADC_ExternalTrigConv\000"
 8201      45787465 
 8201      726E616C 
 8201      54726967 
 8201      436F6E76 
 8202              	.LASF0:
 8203 085f 7369676E 		.ascii	"signed char\000"
 8203      65642063 
 8203      68617200 
 8204              	.LASF5:
 8205 086b 73686F72 		.ascii	"short unsigned int\000"
 8205      7420756E 
 8205      7369676E 
 8205      65642069 
 8205      6E7400
 8206              	.LASF20:
 8207 087e 4A4F4652 		.ascii	"JOFR1\000"
 8207      3100
 8208              	.LASF21:
 8209 0884 4A4F4652 		.ascii	"JOFR2\000"
 8209      3200
ARM GAS  /var/folders/m4/4md61f0s1_g0rzfghffqnxvr0000gn/T//ccmqP2UT.s 			page 151


 8210              	.LASF22:
 8211 088a 4A4F4652 		.ascii	"JOFR3\000"
 8211      3300
 8212              	.LASF23:
 8213 0890 4A4F4652 		.ascii	"JOFR4\000"
 8213      3400
 8214              	.LASF80:
 8215 0896 62697473 		.ascii	"bitstatus\000"
 8215      74617475 
 8215      7300
 8216              	.LASF97:
 8217 08a0 4F666673 		.ascii	"Offset\000"
 8217      657400
 8218              	.LASF76:
 8219 08a7 4144435F 		.ascii	"ADC_RegularChannelConfig\000"
 8219      52656775 
 8219      6C617243 
 8219      68616E6E 
 8219      656C436F 
 8220              	.LASF87:
 8221 08c0 4144435F 		.ascii	"ADC_GetConversionValue\000"
 8221      47657443 
 8221      6F6E7665 
 8221      7273696F 
 8221      6E56616C 
 8222              		.ident	"GCC: (GNU Tools for ARM Embedded Processors) 5.2.1 20151202 (release) [ARM/embedded-5-bran
ARM GAS  /var/folders/m4/4md61f0s1_g0rzfghffqnxvr0000gn/T//ccmqP2UT.s 			page 152


DEFINED SYMBOLS
                            *ABS*:0000000000000000 stm32f4xx_adc.c
/var/folders/m4/4md61f0s1_g0rzfghffqnxvr0000gn/T//ccmqP2UT.s:22     .text.ADC_DeInit:0000000000000000 $t
/var/folders/m4/4md61f0s1_g0rzfghffqnxvr0000gn/T//ccmqP2UT.s:28     .text.ADC_DeInit:0000000000000000 ADC_DeInit
/var/folders/m4/4md61f0s1_g0rzfghffqnxvr0000gn/T//ccmqP2UT.s:59     .text.ADC_Init:0000000000000000 $t
/var/folders/m4/4md61f0s1_g0rzfghffqnxvr0000gn/T//ccmqP2UT.s:65     .text.ADC_Init:0000000000000000 ADC_Init
/var/folders/m4/4md61f0s1_g0rzfghffqnxvr0000gn/T//ccmqP2UT.s:235    .text.ADC_Init:00000000000000f0 $d
/var/folders/m4/4md61f0s1_g0rzfghffqnxvr0000gn/T//ccmqP2UT.s:242    .text.ADC_StructInit:0000000000000000 $t
/var/folders/m4/4md61f0s1_g0rzfghffqnxvr0000gn/T//ccmqP2UT.s:248    .text.ADC_StructInit:0000000000000000 ADC_StructInit
/var/folders/m4/4md61f0s1_g0rzfghffqnxvr0000gn/T//ccmqP2UT.s:278    .text.ADC_CommonInit:0000000000000000 $t
/var/folders/m4/4md61f0s1_g0rzfghffqnxvr0000gn/T//ccmqP2UT.s:284    .text.ADC_CommonInit:0000000000000000 ADC_CommonInit
/var/folders/m4/4md61f0s1_g0rzfghffqnxvr0000gn/T//ccmqP2UT.s:377    .text.ADC_CommonInit:000000000000007c $d
/var/folders/m4/4md61f0s1_g0rzfghffqnxvr0000gn/T//ccmqP2UT.s:384    .text.ADC_CommonStructInit:0000000000000000 $t
/var/folders/m4/4md61f0s1_g0rzfghffqnxvr0000gn/T//ccmqP2UT.s:390    .text.ADC_CommonStructInit:0000000000000000 ADC_CommonStructInit
/var/folders/m4/4md61f0s1_g0rzfghffqnxvr0000gn/T//ccmqP2UT.s:412    .text.ADC_Cmd:0000000000000000 $t
/var/folders/m4/4md61f0s1_g0rzfghffqnxvr0000gn/T//ccmqP2UT.s:418    .text.ADC_Cmd:0000000000000000 ADC_Cmd
/var/folders/m4/4md61f0s1_g0rzfghffqnxvr0000gn/T//ccmqP2UT.s:483    .text.ADC_Cmd:0000000000000048 $d
/var/folders/m4/4md61f0s1_g0rzfghffqnxvr0000gn/T//ccmqP2UT.s:489    .text.ADC_AnalogWatchdogCmd:0000000000000000 $t
/var/folders/m4/4md61f0s1_g0rzfghffqnxvr0000gn/T//ccmqP2UT.s:495    .text.ADC_AnalogWatchdogCmd:0000000000000000 ADC_AnalogWatchdogCmd
/var/folders/m4/4md61f0s1_g0rzfghffqnxvr0000gn/T//ccmqP2UT.s:577    .text.ADC_AnalogWatchdogCmd:0000000000000064 $d
/var/folders/m4/4md61f0s1_g0rzfghffqnxvr0000gn/T//ccmqP2UT.s:584    .text.ADC_AnalogWatchdogThresholdsConfig:0000000000000000 $t
/var/folders/m4/4md61f0s1_g0rzfghffqnxvr0000gn/T//ccmqP2UT.s:590    .text.ADC_AnalogWatchdogThresholdsConfig:0000000000000000 ADC_AnalogWatchdogThresholdsConfig
/var/folders/m4/4md61f0s1_g0rzfghffqnxvr0000gn/T//ccmqP2UT.s:658    .text.ADC_AnalogWatchdogThresholdsConfig:000000000000004c $d
/var/folders/m4/4md61f0s1_g0rzfghffqnxvr0000gn/T//ccmqP2UT.s:664    .text.ADC_AnalogWatchdogSingleChannelConfig:0000000000000000 $t
/var/folders/m4/4md61f0s1_g0rzfghffqnxvr0000gn/T//ccmqP2UT.s:670    .text.ADC_AnalogWatchdogSingleChannelConfig:0000000000000000 ADC_AnalogWatchdogSingleChannelConfig
/var/folders/m4/4md61f0s1_g0rzfghffqnxvr0000gn/T//ccmqP2UT.s:733    .text.ADC_AnalogWatchdogSingleChannelConfig:0000000000000040 $d
/var/folders/m4/4md61f0s1_g0rzfghffqnxvr0000gn/T//ccmqP2UT.s:739    .text.ADC_TempSensorVrefintCmd:0000000000000000 $t
/var/folders/m4/4md61f0s1_g0rzfghffqnxvr0000gn/T//ccmqP2UT.s:745    .text.ADC_TempSensorVrefintCmd:0000000000000000 ADC_TempSensorVrefintCmd
/var/folders/m4/4md61f0s1_g0rzfghffqnxvr0000gn/T//ccmqP2UT.s:785    .text.ADC_TempSensorVrefintCmd:0000000000000028 $d
/var/folders/m4/4md61f0s1_g0rzfghffqnxvr0000gn/T//ccmqP2UT.s:790    .text.ADC_VBATCmd:0000000000000000 $t
/var/folders/m4/4md61f0s1_g0rzfghffqnxvr0000gn/T//ccmqP2UT.s:796    .text.ADC_VBATCmd:0000000000000000 ADC_VBATCmd
/var/folders/m4/4md61f0s1_g0rzfghffqnxvr0000gn/T//ccmqP2UT.s:836    .text.ADC_VBATCmd:0000000000000028 $d
/var/folders/m4/4md61f0s1_g0rzfghffqnxvr0000gn/T//ccmqP2UT.s:841    .text.ADC_RegularChannelConfig:0000000000000000 $t
/var/folders/m4/4md61f0s1_g0rzfghffqnxvr0000gn/T//ccmqP2UT.s:847    .text.ADC_RegularChannelConfig:0000000000000000 ADC_RegularChannelConfig
/var/folders/m4/4md61f0s1_g0rzfghffqnxvr0000gn/T//ccmqP2UT.s:1042   .text.ADC_RegularChannelConfig:00000000000000ec $d
/var/folders/m4/4md61f0s1_g0rzfghffqnxvr0000gn/T//ccmqP2UT.s:1049   .text.ADC_SoftwareStartConv:0000000000000000 $t
/var/folders/m4/4md61f0s1_g0rzfghffqnxvr0000gn/T//ccmqP2UT.s:1055   .text.ADC_SoftwareStartConv:0000000000000000 ADC_SoftwareStartConv
/var/folders/m4/4md61f0s1_g0rzfghffqnxvr0000gn/T//ccmqP2UT.s:1102   .text.ADC_SoftwareStartConv:0000000000000030 $d
/var/folders/m4/4md61f0s1_g0rzfghffqnxvr0000gn/T//ccmqP2UT.s:1108   .text.ADC_GetSoftwareStartConvStatus:0000000000000000 $t
/var/folders/m4/4md61f0s1_g0rzfghffqnxvr0000gn/T//ccmqP2UT.s:1114   .text.ADC_GetSoftwareStartConvStatus:0000000000000000 ADC_GetSoftwareStartConvStatus
/var/folders/m4/4md61f0s1_g0rzfghffqnxvr0000gn/T//ccmqP2UT.s:1170   .text.ADC_GetSoftwareStartConvStatus:0000000000000038 $d
/var/folders/m4/4md61f0s1_g0rzfghffqnxvr0000gn/T//ccmqP2UT.s:1176   .text.ADC_EOCOnEachRegularChannelCmd:0000000000000000 $t
/var/folders/m4/4md61f0s1_g0rzfghffqnxvr0000gn/T//ccmqP2UT.s:1182   .text.ADC_EOCOnEachRegularChannelCmd:0000000000000000 ADC_EOCOnEachRegularChannelCmd
/var/folders/m4/4md61f0s1_g0rzfghffqnxvr0000gn/T//ccmqP2UT.s:1247   .text.ADC_EOCOnEachRegularChannelCmd:0000000000000048 $d
/var/folders/m4/4md61f0s1_g0rzfghffqnxvr0000gn/T//ccmqP2UT.s:1253   .text.ADC_ContinuousModeCmd:0000000000000000 $t
/var/folders/m4/4md61f0s1_g0rzfghffqnxvr0000gn/T//ccmqP2UT.s:1259   .text.ADC_ContinuousModeCmd:0000000000000000 ADC_ContinuousModeCmd
/var/folders/m4/4md61f0s1_g0rzfghffqnxvr0000gn/T//ccmqP2UT.s:1324   .text.ADC_ContinuousModeCmd:0000000000000048 $d
/var/folders/m4/4md61f0s1_g0rzfghffqnxvr0000gn/T//ccmqP2UT.s:1330   .text.ADC_DiscModeChannelCountConfig:0000000000000000 $t
/var/folders/m4/4md61f0s1_g0rzfghffqnxvr0000gn/T//ccmqP2UT.s:1336   .text.ADC_DiscModeChannelCountConfig:0000000000000000 ADC_DiscModeChannelCountConfig
/var/folders/m4/4md61f0s1_g0rzfghffqnxvr0000gn/T//ccmqP2UT.s:1401   .text.ADC_DiscModeChannelCountConfig:0000000000000044 $d
/var/folders/m4/4md61f0s1_g0rzfghffqnxvr0000gn/T//ccmqP2UT.s:1407   .text.ADC_DiscModeCmd:0000000000000000 $t
/var/folders/m4/4md61f0s1_g0rzfghffqnxvr0000gn/T//ccmqP2UT.s:1413   .text.ADC_DiscModeCmd:0000000000000000 ADC_DiscModeCmd
/var/folders/m4/4md61f0s1_g0rzfghffqnxvr0000gn/T//ccmqP2UT.s:1478   .text.ADC_DiscModeCmd:0000000000000048 $d
/var/folders/m4/4md61f0s1_g0rzfghffqnxvr0000gn/T//ccmqP2UT.s:1484   .text.ADC_GetConversionValue:0000000000000000 $t
/var/folders/m4/4md61f0s1_g0rzfghffqnxvr0000gn/T//ccmqP2UT.s:1490   .text.ADC_GetConversionValue:0000000000000000 ADC_GetConversionValue
/var/folders/m4/4md61f0s1_g0rzfghffqnxvr0000gn/T//ccmqP2UT.s:1542   .text.ADC_GetConversionValue:0000000000000034 $d
/var/folders/m4/4md61f0s1_g0rzfghffqnxvr0000gn/T//ccmqP2UT.s:1548   .text.ADC_GetMultiModeConversionValue:0000000000000000 $t
ARM GAS  /var/folders/m4/4md61f0s1_g0rzfghffqnxvr0000gn/T//ccmqP2UT.s 			page 153


/var/folders/m4/4md61f0s1_g0rzfghffqnxvr0000gn/T//ccmqP2UT.s:1554   .text.ADC_GetMultiModeConversionValue:0000000000000000 ADC_GetMultiModeConversionValue
/var/folders/m4/4md61f0s1_g0rzfghffqnxvr0000gn/T//ccmqP2UT.s:1569   .text.ADC_GetMultiModeConversionValue:0000000000000008 $d
/var/folders/m4/4md61f0s1_g0rzfghffqnxvr0000gn/T//ccmqP2UT.s:1574   .text.ADC_DMACmd:0000000000000000 $t
/var/folders/m4/4md61f0s1_g0rzfghffqnxvr0000gn/T//ccmqP2UT.s:1580   .text.ADC_DMACmd:0000000000000000 ADC_DMACmd
/var/folders/m4/4md61f0s1_g0rzfghffqnxvr0000gn/T//ccmqP2UT.s:1645   .text.ADC_DMACmd:0000000000000048 $d
/var/folders/m4/4md61f0s1_g0rzfghffqnxvr0000gn/T//ccmqP2UT.s:1651   .text.ADC_DMARequestAfterLastTransferCmd:0000000000000000 $t
/var/folders/m4/4md61f0s1_g0rzfghffqnxvr0000gn/T//ccmqP2UT.s:1657   .text.ADC_DMARequestAfterLastTransferCmd:0000000000000000 ADC_DMARequestAfterLastTransferCmd
/var/folders/m4/4md61f0s1_g0rzfghffqnxvr0000gn/T//ccmqP2UT.s:1722   .text.ADC_DMARequestAfterLastTransferCmd:0000000000000048 $d
/var/folders/m4/4md61f0s1_g0rzfghffqnxvr0000gn/T//ccmqP2UT.s:1728   .text.ADC_MultiModeDMARequestAfterLastTransferCmd:0000000000000000 $t
/var/folders/m4/4md61f0s1_g0rzfghffqnxvr0000gn/T//ccmqP2UT.s:1734   .text.ADC_MultiModeDMARequestAfterLastTransferCmd:0000000000000000 ADC_MultiModeDMARequestAfterLastTransferCmd
/var/folders/m4/4md61f0s1_g0rzfghffqnxvr0000gn/T//ccmqP2UT.s:1774   .text.ADC_MultiModeDMARequestAfterLastTransferCmd:0000000000000028 $d
/var/folders/m4/4md61f0s1_g0rzfghffqnxvr0000gn/T//ccmqP2UT.s:1779   .text.ADC_InjectedChannelConfig:0000000000000000 $t
/var/folders/m4/4md61f0s1_g0rzfghffqnxvr0000gn/T//ccmqP2UT.s:1785   .text.ADC_InjectedChannelConfig:0000000000000000 ADC_InjectedChannelConfig
/var/folders/m4/4md61f0s1_g0rzfghffqnxvr0000gn/T//ccmqP2UT.s:1926   .text.ADC_InjectedChannelConfig:00000000000000a4 $d
/var/folders/m4/4md61f0s1_g0rzfghffqnxvr0000gn/T//ccmqP2UT.s:1933   .text.ADC_InjectedSequencerLengthConfig:0000000000000000 $t
/var/folders/m4/4md61f0s1_g0rzfghffqnxvr0000gn/T//ccmqP2UT.s:1939   .text.ADC_InjectedSequencerLengthConfig:0000000000000000 ADC_InjectedSequencerLengthConfig
/var/folders/m4/4md61f0s1_g0rzfghffqnxvr0000gn/T//ccmqP2UT.s:2004   .text.ADC_InjectedSequencerLengthConfig:0000000000000044 $d
/var/folders/m4/4md61f0s1_g0rzfghffqnxvr0000gn/T//ccmqP2UT.s:2010   .text.ADC_SetInjectedOffset:0000000000000000 $t
/var/folders/m4/4md61f0s1_g0rzfghffqnxvr0000gn/T//ccmqP2UT.s:2016   .text.ADC_SetInjectedOffset:0000000000000000 ADC_SetInjectedOffset
/var/folders/m4/4md61f0s1_g0rzfghffqnxvr0000gn/T//ccmqP2UT.s:2102   .text.ADC_SetInjectedOffset:0000000000000068 $d
/var/folders/m4/4md61f0s1_g0rzfghffqnxvr0000gn/T//ccmqP2UT.s:2108   .text.ADC_ExternalTrigInjectedConvConfig:0000000000000000 $t
/var/folders/m4/4md61f0s1_g0rzfghffqnxvr0000gn/T//ccmqP2UT.s:2114   .text.ADC_ExternalTrigInjectedConvConfig:0000000000000000 ADC_ExternalTrigInjectedConvConfig
/var/folders/m4/4md61f0s1_g0rzfghffqnxvr0000gn/T//ccmqP2UT.s:2193   .text.ADC_ExternalTrigInjectedConvConfig:0000000000000058 $d
/var/folders/m4/4md61f0s1_g0rzfghffqnxvr0000gn/T//ccmqP2UT.s:2199   .text.ADC_ExternalTrigInjectedConvEdgeConfig:0000000000000000 $t
/var/folders/m4/4md61f0s1_g0rzfghffqnxvr0000gn/T//ccmqP2UT.s:2205   .text.ADC_ExternalTrigInjectedConvEdgeConfig:0000000000000000 ADC_ExternalTrigInjectedConvEdgeConfig
/var/folders/m4/4md61f0s1_g0rzfghffqnxvr0000gn/T//ccmqP2UT.s:2268   .text.ADC_ExternalTrigInjectedConvEdgeConfig:0000000000000040 $d
/var/folders/m4/4md61f0s1_g0rzfghffqnxvr0000gn/T//ccmqP2UT.s:2274   .text.ADC_SoftwareStartInjectedConv:0000000000000000 $t
/var/folders/m4/4md61f0s1_g0rzfghffqnxvr0000gn/T//ccmqP2UT.s:2280   .text.ADC_SoftwareStartInjectedConv:0000000000000000 ADC_SoftwareStartInjectedConv
/var/folders/m4/4md61f0s1_g0rzfghffqnxvr0000gn/T//ccmqP2UT.s:2327   .text.ADC_SoftwareStartInjectedConv:0000000000000030 $d
/var/folders/m4/4md61f0s1_g0rzfghffqnxvr0000gn/T//ccmqP2UT.s:2333   .text.ADC_GetSoftwareStartInjectedConvCmdStatus:0000000000000000 $t
/var/folders/m4/4md61f0s1_g0rzfghffqnxvr0000gn/T//ccmqP2UT.s:2339   .text.ADC_GetSoftwareStartInjectedConvCmdStatus:0000000000000000 ADC_GetSoftwareStartInjectedConvCmdStatus
/var/folders/m4/4md61f0s1_g0rzfghffqnxvr0000gn/T//ccmqP2UT.s:2395   .text.ADC_GetSoftwareStartInjectedConvCmdStatus:0000000000000038 $d
/var/folders/m4/4md61f0s1_g0rzfghffqnxvr0000gn/T//ccmqP2UT.s:2401   .text.ADC_AutoInjectedConvCmd:0000000000000000 $t
/var/folders/m4/4md61f0s1_g0rzfghffqnxvr0000gn/T//ccmqP2UT.s:2407   .text.ADC_AutoInjectedConvCmd:0000000000000000 ADC_AutoInjectedConvCmd
/var/folders/m4/4md61f0s1_g0rzfghffqnxvr0000gn/T//ccmqP2UT.s:2472   .text.ADC_AutoInjectedConvCmd:0000000000000048 $d
/var/folders/m4/4md61f0s1_g0rzfghffqnxvr0000gn/T//ccmqP2UT.s:2478   .text.ADC_InjectedDiscModeCmd:0000000000000000 $t
/var/folders/m4/4md61f0s1_g0rzfghffqnxvr0000gn/T//ccmqP2UT.s:2484   .text.ADC_InjectedDiscModeCmd:0000000000000000 ADC_InjectedDiscModeCmd
/var/folders/m4/4md61f0s1_g0rzfghffqnxvr0000gn/T//ccmqP2UT.s:2549   .text.ADC_InjectedDiscModeCmd:0000000000000048 $d
/var/folders/m4/4md61f0s1_g0rzfghffqnxvr0000gn/T//ccmqP2UT.s:2555   .text.ADC_GetInjectedConversionValue:0000000000000000 $t
/var/folders/m4/4md61f0s1_g0rzfghffqnxvr0000gn/T//ccmqP2UT.s:2561   .text.ADC_GetInjectedConversionValue:0000000000000000 ADC_GetInjectedConversionValue
/var/folders/m4/4md61f0s1_g0rzfghffqnxvr0000gn/T//ccmqP2UT.s:2641   .text.ADC_GetInjectedConversionValue:000000000000005c $d
/var/folders/m4/4md61f0s1_g0rzfghffqnxvr0000gn/T//ccmqP2UT.s:2647   .text.ADC_ITConfig:0000000000000000 $t
/var/folders/m4/4md61f0s1_g0rzfghffqnxvr0000gn/T//ccmqP2UT.s:2653   .text.ADC_ITConfig:0000000000000000 ADC_ITConfig
/var/folders/m4/4md61f0s1_g0rzfghffqnxvr0000gn/T//ccmqP2UT.s:2753   .text.ADC_ITConfig:0000000000000078 $d
/var/folders/m4/4md61f0s1_g0rzfghffqnxvr0000gn/T//ccmqP2UT.s:2759   .text.ADC_GetFlagStatus:0000000000000000 $t
/var/folders/m4/4md61f0s1_g0rzfghffqnxvr0000gn/T//ccmqP2UT.s:2765   .text.ADC_GetFlagStatus:0000000000000000 ADC_GetFlagStatus
/var/folders/m4/4md61f0s1_g0rzfghffqnxvr0000gn/T//ccmqP2UT.s:2830   .text.ADC_GetFlagStatus:000000000000004c $d
/var/folders/m4/4md61f0s1_g0rzfghffqnxvr0000gn/T//ccmqP2UT.s:2837   .text.ADC_ClearFlag:0000000000000000 $t
/var/folders/m4/4md61f0s1_g0rzfghffqnxvr0000gn/T//ccmqP2UT.s:2843   .text.ADC_ClearFlag:0000000000000000 ADC_ClearFlag
/var/folders/m4/4md61f0s1_g0rzfghffqnxvr0000gn/T//ccmqP2UT.s:2914   .text.ADC_ClearFlag:0000000000000048 $d
/var/folders/m4/4md61f0s1_g0rzfghffqnxvr0000gn/T//ccmqP2UT.s:2920   .text.ADC_GetITStatus:0000000000000000 $t
/var/folders/m4/4md61f0s1_g0rzfghffqnxvr0000gn/T//ccmqP2UT.s:2926   .text.ADC_GetITStatus:0000000000000000 ADC_GetITStatus
/var/folders/m4/4md61f0s1_g0rzfghffqnxvr0000gn/T//ccmqP2UT.s:3015   .text.ADC_GetITStatus:000000000000006c $d
/var/folders/m4/4md61f0s1_g0rzfghffqnxvr0000gn/T//ccmqP2UT.s:3021   .text.ADC_ClearITPendingBit:0000000000000000 $t
/var/folders/m4/4md61f0s1_g0rzfghffqnxvr0000gn/T//ccmqP2UT.s:3027   .text.ADC_ClearITPendingBit:0000000000000000 ADC_ClearITPendingBit
/var/folders/m4/4md61f0s1_g0rzfghffqnxvr0000gn/T//ccmqP2UT.s:3107   .text.ADC_ClearITPendingBit:0000000000000064 $d
                     .debug_frame:0000000000000010 $d
ARM GAS  /var/folders/m4/4md61f0s1_g0rzfghffqnxvr0000gn/T//ccmqP2UT.s 			page 154



UNDEFINED SYMBOLS
RCC_APB2PeriphResetCmd
assert_param
