ARM GAS  /var/folders/m4/4md61f0s1_g0rzfghffqnxvr0000gn/T//ccSRVwbo.s 			page 1


   1              		.syntax unified
   2              		.cpu cortex-m4
   3              		.eabi_attribute 27, 1
   4              		.eabi_attribute 28, 1
   5              		.fpu fpv4-sp-d16
   6              		.eabi_attribute 20, 1
   7              		.eabi_attribute 21, 1
   8              		.eabi_attribute 23, 3
   9              		.eabi_attribute 24, 1
  10              		.eabi_attribute 25, 1
  11              		.eabi_attribute 26, 1
  12              		.eabi_attribute 30, 2
  13              		.eabi_attribute 34, 1
  14              		.eabi_attribute 18, 4
  15              		.thumb
  16              		.syntax unified
  17              		.file	"stm32f4xx_tim.c"
  18              		.text
  19              	.Ltext0:
  20              		.cfi_sections	.debug_frame
  21              		.section	.text.TIM_DeInit,"ax",%progbits
  22              		.align	2
  23              		.p2align 4,,15
  24              		.global	TIM_DeInit
  25              		.thumb
  26              		.thumb_func
  27              		.type	TIM_DeInit, %function
  28              	TIM_DeInit:
  29              	.LFB123:
  30              		.file 1 "ChibiOS_16.1.4/ext/stdperiph_stm32f4/src/stm32f4xx_tim.c"
  31              		.loc 1 206 0
  32              		.cfi_startproc
  33              		@ args = 0, pretend = 0, frame = 0
  34              		@ frame_needed = 0, uses_anonymous_args = 0
  35              	.LVL0:
  36 0000 08B5     		push	{r3, lr}
  37              		.cfi_def_cfa_offset 8
  38              		.cfi_offset 3, -8
  39              		.cfi_offset 14, -4
  40              		.loc 1 210 0
  41 0002 604B     		ldr	r3, .L32
  42 0004 9842     		cmp	r0, r3
  43 0006 35D0     		beq	.L18
  44              		.loc 1 215 0
  45 0008 B0F1804F 		cmp	r0, #1073741824
  46 000c 3CD0     		beq	.L19
  47              		.loc 1 220 0
  48 000e 5E4B     		ldr	r3, .L32+4
  49 0010 9842     		cmp	r0, r3
  50 0012 43D0     		beq	.L20
  51              		.loc 1 225 0
  52 0014 5D4B     		ldr	r3, .L32+8
  53 0016 9842     		cmp	r0, r3
  54 0018 4AD0     		beq	.L21
  55              		.loc 1 230 0
  56 001a 5D4B     		ldr	r3, .L32+12
  57 001c 9842     		cmp	r0, r3
ARM GAS  /var/folders/m4/4md61f0s1_g0rzfghffqnxvr0000gn/T//ccSRVwbo.s 			page 2


  58 001e 51D0     		beq	.L22
  59              		.loc 1 235 0
  60 0020 5C4B     		ldr	r3, .L32+16
  61 0022 9842     		cmp	r0, r3
  62 0024 58D0     		beq	.L23
  63              		.loc 1 240 0
  64 0026 5C4B     		ldr	r3, .L32+20
  65 0028 9842     		cmp	r0, r3
  66 002a 5FD0     		beq	.L24
  67              		.loc 1 245 0
  68 002c 5B4B     		ldr	r3, .L32+24
  69 002e 9842     		cmp	r0, r3
  70 0030 66D0     		beq	.L25
  71              		.loc 1 250 0
  72 0032 5B4B     		ldr	r3, .L32+28
  73 0034 9842     		cmp	r0, r3
  74 0036 6DD0     		beq	.L26
  75              		.loc 1 255 0
  76 0038 5A4B     		ldr	r3, .L32+32
  77 003a 9842     		cmp	r0, r3
  78 003c 76D0     		beq	.L27
  79              		.loc 1 260 0
  80 003e 5A4B     		ldr	r3, .L32+36
  81 0040 9842     		cmp	r0, r3
  82 0042 7FD0     		beq	.L28
  83              		.loc 1 265 0
  84 0044 594B     		ldr	r3, .L32+40
  85 0046 9842     		cmp	r0, r3
  86 0048 00F08880 		beq	.L29
  87              		.loc 1 270 0
  88 004c 584B     		ldr	r3, .L32+44
  89 004e 9842     		cmp	r0, r3
  90 0050 00F08E80 		beq	.L30
  91              		.loc 1 277 0
  92 0054 574B     		ldr	r3, .L32+48
  93 0056 9842     		cmp	r0, r3
  94 0058 00D0     		beq	.L31
  95 005a 08BD     		pop	{r3, pc}
  96              	.L31:
  97              		.loc 1 279 0
  98 005c 0121     		movs	r1, #1
  99 005e 4FF48070 		mov	r0, #256
 100              	.LVL1:
 101 0062 FFF7FEFF 		bl	RCC_APB1PeriphResetCmd
 102              	.LVL2:
 103              		.loc 1 280 0
 104 0066 0021     		movs	r1, #0
 105 0068 4FF48070 		mov	r0, #256
 106              		.loc 1 283 0
 107 006c BDE80840 		pop	{r3, lr}
 108              		.cfi_remember_state
 109              		.cfi_restore 14
 110              		.cfi_restore 3
 111              		.cfi_def_cfa_offset 0
 112              		.loc 1 280 0
 113 0070 FFF7FEBF 		b	RCC_APB1PeriphResetCmd
 114              	.LVL3:
ARM GAS  /var/folders/m4/4md61f0s1_g0rzfghffqnxvr0000gn/T//ccSRVwbo.s 			page 3


 115              	.L18:
 116              		.cfi_restore_state
 117              		.loc 1 212 0
 118 0074 0121     		movs	r1, #1
 119 0076 0846     		mov	r0, r1
 120              	.LVL4:
 121 0078 FFF7FEFF 		bl	RCC_APB2PeriphResetCmd
 122              	.LVL5:
 123              		.loc 1 213 0
 124 007c 0021     		movs	r1, #0
 125 007e 0120     		movs	r0, #1
 126              		.loc 1 283 0
 127 0080 BDE80840 		pop	{r3, lr}
 128              		.cfi_remember_state
 129              		.cfi_restore 14
 130              		.cfi_restore 3
 131              		.cfi_def_cfa_offset 0
 132              		.loc 1 213 0
 133 0084 FFF7FEBF 		b	RCC_APB2PeriphResetCmd
 134              	.LVL6:
 135              	.L19:
 136              		.cfi_restore_state
 137              		.loc 1 217 0
 138 0088 0121     		movs	r1, #1
 139 008a 0846     		mov	r0, r1
 140              	.LVL7:
 141 008c FFF7FEFF 		bl	RCC_APB1PeriphResetCmd
 142              	.LVL8:
 143              		.loc 1 218 0
 144 0090 0021     		movs	r1, #0
 145 0092 0120     		movs	r0, #1
 146              		.loc 1 283 0
 147 0094 BDE80840 		pop	{r3, lr}
 148              		.cfi_remember_state
 149              		.cfi_restore 14
 150              		.cfi_restore 3
 151              		.cfi_def_cfa_offset 0
 152              		.loc 1 218 0
 153 0098 FFF7FEBF 		b	RCC_APB1PeriphResetCmd
 154              	.LVL9:
 155              	.L20:
 156              		.cfi_restore_state
 157              		.loc 1 222 0
 158 009c 0121     		movs	r1, #1
 159 009e 0220     		movs	r0, #2
 160              	.LVL10:
 161 00a0 FFF7FEFF 		bl	RCC_APB1PeriphResetCmd
 162              	.LVL11:
 163              		.loc 1 223 0
 164 00a4 0021     		movs	r1, #0
 165 00a6 0220     		movs	r0, #2
 166              		.loc 1 283 0
 167 00a8 BDE80840 		pop	{r3, lr}
 168              		.cfi_remember_state
 169              		.cfi_restore 14
 170              		.cfi_restore 3
 171              		.cfi_def_cfa_offset 0
ARM GAS  /var/folders/m4/4md61f0s1_g0rzfghffqnxvr0000gn/T//ccSRVwbo.s 			page 4


 172              		.loc 1 223 0
 173 00ac FFF7FEBF 		b	RCC_APB1PeriphResetCmd
 174              	.LVL12:
 175              	.L21:
 176              		.cfi_restore_state
 177              		.loc 1 227 0
 178 00b0 0121     		movs	r1, #1
 179 00b2 0420     		movs	r0, #4
 180              	.LVL13:
 181 00b4 FFF7FEFF 		bl	RCC_APB1PeriphResetCmd
 182              	.LVL14:
 183              		.loc 1 228 0
 184 00b8 0021     		movs	r1, #0
 185 00ba 0420     		movs	r0, #4
 186              		.loc 1 283 0
 187 00bc BDE80840 		pop	{r3, lr}
 188              		.cfi_remember_state
 189              		.cfi_restore 14
 190              		.cfi_restore 3
 191              		.cfi_def_cfa_offset 0
 192              		.loc 1 228 0
 193 00c0 FFF7FEBF 		b	RCC_APB1PeriphResetCmd
 194              	.LVL15:
 195              	.L22:
 196              		.cfi_restore_state
 197              		.loc 1 232 0
 198 00c4 0121     		movs	r1, #1
 199 00c6 0820     		movs	r0, #8
 200              	.LVL16:
 201 00c8 FFF7FEFF 		bl	RCC_APB1PeriphResetCmd
 202              	.LVL17:
 203              		.loc 1 233 0
 204 00cc 0021     		movs	r1, #0
 205 00ce 0820     		movs	r0, #8
 206              		.loc 1 283 0
 207 00d0 BDE80840 		pop	{r3, lr}
 208              		.cfi_remember_state
 209              		.cfi_restore 14
 210              		.cfi_restore 3
 211              		.cfi_def_cfa_offset 0
 212              		.loc 1 233 0
 213 00d4 FFF7FEBF 		b	RCC_APB1PeriphResetCmd
 214              	.LVL18:
 215              	.L23:
 216              		.cfi_restore_state
 217              		.loc 1 237 0
 218 00d8 0121     		movs	r1, #1
 219 00da 1020     		movs	r0, #16
 220              	.LVL19:
 221 00dc FFF7FEFF 		bl	RCC_APB1PeriphResetCmd
 222              	.LVL20:
 223              		.loc 1 238 0
 224 00e0 0021     		movs	r1, #0
 225 00e2 1020     		movs	r0, #16
 226              		.loc 1 283 0
 227 00e4 BDE80840 		pop	{r3, lr}
 228              		.cfi_remember_state
ARM GAS  /var/folders/m4/4md61f0s1_g0rzfghffqnxvr0000gn/T//ccSRVwbo.s 			page 5


 229              		.cfi_restore 14
 230              		.cfi_restore 3
 231              		.cfi_def_cfa_offset 0
 232              		.loc 1 238 0
 233 00e8 FFF7FEBF 		b	RCC_APB1PeriphResetCmd
 234              	.LVL21:
 235              	.L24:
 236              		.cfi_restore_state
 237              		.loc 1 242 0
 238 00ec 0121     		movs	r1, #1
 239 00ee 2020     		movs	r0, #32
 240              	.LVL22:
 241 00f0 FFF7FEFF 		bl	RCC_APB1PeriphResetCmd
 242              	.LVL23:
 243              		.loc 1 243 0
 244 00f4 0021     		movs	r1, #0
 245 00f6 2020     		movs	r0, #32
 246              		.loc 1 283 0
 247 00f8 BDE80840 		pop	{r3, lr}
 248              		.cfi_remember_state
 249              		.cfi_restore 14
 250              		.cfi_restore 3
 251              		.cfi_def_cfa_offset 0
 252              		.loc 1 243 0
 253 00fc FFF7FEBF 		b	RCC_APB1PeriphResetCmd
 254              	.LVL24:
 255              	.L25:
 256              		.cfi_restore_state
 257              		.loc 1 247 0
 258 0100 0121     		movs	r1, #1
 259 0102 0220     		movs	r0, #2
 260              	.LVL25:
 261 0104 FFF7FEFF 		bl	RCC_APB2PeriphResetCmd
 262              	.LVL26:
 263              		.loc 1 248 0
 264 0108 0021     		movs	r1, #0
 265 010a 0220     		movs	r0, #2
 266              		.loc 1 283 0
 267 010c BDE80840 		pop	{r3, lr}
 268              		.cfi_remember_state
 269              		.cfi_restore 14
 270              		.cfi_restore 3
 271              		.cfi_def_cfa_offset 0
 272              		.loc 1 248 0
 273 0110 FFF7FEBF 		b	RCC_APB2PeriphResetCmd
 274              	.LVL27:
 275              	.L26:
 276              		.cfi_restore_state
 277              		.loc 1 252 0
 278 0114 0121     		movs	r1, #1
 279 0116 4FF48030 		mov	r0, #65536
 280              	.LVL28:
 281 011a FFF7FEFF 		bl	RCC_APB2PeriphResetCmd
 282              	.LVL29:
 283              		.loc 1 253 0
 284 011e 0021     		movs	r1, #0
 285 0120 4FF48030 		mov	r0, #65536
ARM GAS  /var/folders/m4/4md61f0s1_g0rzfghffqnxvr0000gn/T//ccSRVwbo.s 			page 6


 286              		.loc 1 283 0
 287 0124 BDE80840 		pop	{r3, lr}
 288              		.cfi_remember_state
 289              		.cfi_restore 14
 290              		.cfi_restore 3
 291              		.cfi_def_cfa_offset 0
 292              		.loc 1 253 0
 293 0128 FFF7FEBF 		b	RCC_APB2PeriphResetCmd
 294              	.LVL30:
 295              	.L27:
 296              		.cfi_restore_state
 297              		.loc 1 257 0
 298 012c 0121     		movs	r1, #1
 299 012e 4FF40030 		mov	r0, #131072
 300              	.LVL31:
 301 0132 FFF7FEFF 		bl	RCC_APB2PeriphResetCmd
 302              	.LVL32:
 303              		.loc 1 258 0
 304 0136 0021     		movs	r1, #0
 305 0138 4FF40030 		mov	r0, #131072
 306              		.loc 1 283 0
 307 013c BDE80840 		pop	{r3, lr}
 308              		.cfi_remember_state
 309              		.cfi_restore 14
 310              		.cfi_restore 3
 311              		.cfi_def_cfa_offset 0
 312              		.loc 1 258 0
 313 0140 FFF7FEBF 		b	RCC_APB2PeriphResetCmd
 314              	.LVL33:
 315              	.L28:
 316              		.cfi_restore_state
 317              		.loc 1 262 0
 318 0144 0121     		movs	r1, #1
 319 0146 4FF48020 		mov	r0, #262144
 320              	.LVL34:
 321 014a FFF7FEFF 		bl	RCC_APB2PeriphResetCmd
 322              	.LVL35:
 323              		.loc 1 263 0
 324 014e 0021     		movs	r1, #0
 325 0150 4FF48020 		mov	r0, #262144
 326              		.loc 1 283 0
 327 0154 BDE80840 		pop	{r3, lr}
 328              		.cfi_remember_state
 329              		.cfi_restore 14
 330              		.cfi_restore 3
 331              		.cfi_def_cfa_offset 0
 332              		.loc 1 263 0
 333 0158 FFF7FEBF 		b	RCC_APB2PeriphResetCmd
 334              	.LVL36:
 335              	.L29:
 336              		.cfi_restore_state
 337              		.loc 1 267 0
 338 015c 0121     		movs	r1, #1
 339 015e 4020     		movs	r0, #64
 340              	.LVL37:
 341 0160 FFF7FEFF 		bl	RCC_APB1PeriphResetCmd
 342              	.LVL38:
ARM GAS  /var/folders/m4/4md61f0s1_g0rzfghffqnxvr0000gn/T//ccSRVwbo.s 			page 7


 343              		.loc 1 268 0
 344 0164 0021     		movs	r1, #0
 345 0166 4020     		movs	r0, #64
 346              		.loc 1 283 0
 347 0168 BDE80840 		pop	{r3, lr}
 348              		.cfi_remember_state
 349              		.cfi_restore 14
 350              		.cfi_restore 3
 351              		.cfi_def_cfa_offset 0
 352              		.loc 1 268 0
 353 016c FFF7FEBF 		b	RCC_APB1PeriphResetCmd
 354              	.LVL39:
 355              	.L30:
 356              		.cfi_restore_state
 357              		.loc 1 272 0
 358 0170 0121     		movs	r1, #1
 359 0172 8020     		movs	r0, #128
 360              	.LVL40:
 361 0174 FFF7FEFF 		bl	RCC_APB1PeriphResetCmd
 362              	.LVL41:
 363              		.loc 1 273 0
 364 0178 0021     		movs	r1, #0
 365 017a 8020     		movs	r0, #128
 366              		.loc 1 283 0
 367 017c BDE80840 		pop	{r3, lr}
 368              		.cfi_restore 14
 369              		.cfi_restore 3
 370              		.cfi_def_cfa_offset 0
 371              		.loc 1 273 0
 372 0180 FFF7FEBF 		b	RCC_APB1PeriphResetCmd
 373              	.LVL42:
 374              	.L33:
 375              		.align	2
 376              	.L32:
 377 0184 00000140 		.word	1073807360
 378 0188 00040040 		.word	1073742848
 379 018c 00080040 		.word	1073743872
 380 0190 000C0040 		.word	1073744896
 381 0194 00100040 		.word	1073745920
 382 0198 00140040 		.word	1073746944
 383 019c 00040140 		.word	1073808384
 384 01a0 00400140 		.word	1073823744
 385 01a4 00440140 		.word	1073824768
 386 01a8 00480140 		.word	1073825792
 387 01ac 00180040 		.word	1073747968
 388 01b0 001C0040 		.word	1073748992
 389 01b4 00200040 		.word	1073750016
 390              		.cfi_endproc
 391              	.LFE123:
 392              		.size	TIM_DeInit, .-TIM_DeInit
 393              		.section	.text.TIM_TimeBaseInit,"ax",%progbits
 394              		.align	2
 395              		.p2align 4,,15
 396              		.global	TIM_TimeBaseInit
 397              		.thumb
 398              		.thumb_func
 399              		.type	TIM_TimeBaseInit, %function
ARM GAS  /var/folders/m4/4md61f0s1_g0rzfghffqnxvr0000gn/T//ccSRVwbo.s 			page 8


 400              	TIM_TimeBaseInit:
 401              	.LFB124:
 402              		.loc 1 294 0
 403              		.cfi_startproc
 404              		@ args = 0, pretend = 0, frame = 0
 405              		@ frame_needed = 0, uses_anonymous_args = 0
 406              		@ link register save eliminated.
 407              	.LVL43:
 408              		.loc 1 304 0
 409 0000 224A     		ldr	r2, .L48
 410              		.loc 1 302 0
 411 0002 0368     		ldr	r3, [r0]
 412              		.loc 1 304 0
 413 0004 9042     		cmp	r0, r2
 414              		.loc 1 302 0
 415 0006 9BB2     		uxth	r3, r3
 416              	.LVL44:
 417              		.loc 1 304 0
 418 0008 12D0     		beq	.L35
 419              		.loc 1 304 0 is_stmt 0 discriminator 1
 420 000a 02F58062 		add	r2, r2, #1024
 421 000e 9042     		cmp	r0, r2
 422 0010 0ED0     		beq	.L35
 423              		.loc 1 304 0 discriminator 2
 424 0012 B0F1804F 		cmp	r0, #1073741824
 425 0016 0BD0     		beq	.L35
 426              		.loc 1 305 0 is_stmt 1
 427 0018 A2F58032 		sub	r2, r2, #65536
 428 001c 9042     		cmp	r0, r2
 429 001e 07D0     		beq	.L35
 430              		.loc 1 305 0 is_stmt 0 discriminator 1
 431 0020 02F58062 		add	r2, r2, #1024
 432 0024 9042     		cmp	r0, r2
 433 0026 03D0     		beq	.L35
 434              		.loc 1 306 0 is_stmt 1
 435 0028 02F58062 		add	r2, r2, #1024
 436 002c 9042     		cmp	r0, r2
 437 002e 03D1     		bne	.L36
 438              	.L35:
 439              		.loc 1 310 0
 440 0030 4A88     		ldrh	r2, [r1, #2]
 441              		.loc 1 309 0
 442 0032 23F07003 		bic	r3, r3, #112
 443              	.LVL45:
 444              		.loc 1 310 0
 445 0036 1343     		orrs	r3, r3, r2
 446              	.LVL46:
 447              	.L36:
 448              		.loc 1 313 0
 449 0038 154A     		ldr	r2, .L48+4
 450 003a 9042     		cmp	r0, r2
 451 003c 1ED0     		beq	.L37
 452              		.loc 1 313 0 is_stmt 0 discriminator 1
 453 003e 02F58062 		add	r2, r2, #1024
 454 0042 9042     		cmp	r0, r2
 455 0044 1AD0     		beq	.L37
 456              		.loc 1 320 0 is_stmt 1
ARM GAS  /var/folders/m4/4md61f0s1_g0rzfghffqnxvr0000gn/T//ccSRVwbo.s 			page 9


 457 0046 0A89     		ldrh	r2, [r1, #8]
 458              		.loc 1 294 0
 459 0048 70B4     		push	{r4, r5, r6}
 460              		.cfi_def_cfa_offset 12
 461              		.cfi_offset 4, -12
 462              		.cfi_offset 5, -8
 463              		.cfi_offset 6, -4
 464              		.loc 1 316 0
 465 004a 23F44073 		bic	r3, r3, #768
 466              	.LVL47:
 467              		.loc 1 328 0
 468 004e 0F4C     		ldr	r4, .L48
 469              		.loc 1 323 0
 470 0050 4E68     		ldr	r6, [r1, #4]
 471              		.loc 1 326 0
 472 0052 0D88     		ldrh	r5, [r1]
 473              		.loc 1 316 0
 474 0054 9BB2     		uxth	r3, r3
 475              	.LVL48:
 476              		.loc 1 320 0
 477 0056 1343     		orrs	r3, r3, r2
 478              	.LVL49:
 479              		.loc 1 328 0
 480 0058 A042     		cmp	r0, r4
 481              		.loc 1 320 0
 482 005a 0360     		str	r3, [r0]
 483              		.loc 1 323 0
 484 005c C662     		str	r6, [r0, #44]
 485              		.loc 1 326 0
 486 005e 8562     		str	r5, [r0, #40]
 487              		.loc 1 328 0
 488 0060 06D0     		beq	.L41
 489              		.loc 1 328 0 is_stmt 0 discriminator 1
 490 0062 0C4B     		ldr	r3, .L48+8
 491 0064 9842     		cmp	r0, r3
 492 0066 03D0     		beq	.L41
 493              		.loc 1 336 0 is_stmt 1
 494 0068 0123     		movs	r3, #1
 495 006a 4361     		str	r3, [r0, #20]
 496              		.loc 1 337 0
 497 006c 70BC     		pop	{r4, r5, r6}
 498              		.cfi_remember_state
 499              		.cfi_restore 6
 500              		.cfi_restore 5
 501              		.cfi_restore 4
 502              		.cfi_def_cfa_offset 0
 503 006e 7047     		bx	lr
 504              	.L41:
 505              		.cfi_restore_state
 506              		.loc 1 331 0
 507 0070 8B7A     		ldrb	r3, [r1, #10]	@ zero_extendqisi2
 508 0072 0363     		str	r3, [r0, #48]
 509              		.loc 1 336 0
 510 0074 0123     		movs	r3, #1
 511 0076 4361     		str	r3, [r0, #20]
 512              		.loc 1 337 0
 513 0078 70BC     		pop	{r4, r5, r6}
ARM GAS  /var/folders/m4/4md61f0s1_g0rzfghffqnxvr0000gn/T//ccSRVwbo.s 			page 10


 514              		.cfi_restore 4
 515              		.cfi_restore 5
 516              		.cfi_restore 6
 517              		.cfi_def_cfa_offset 0
 518 007a 7047     		bx	lr
 519              	.LVL50:
 520              	.L37:
 521              		.loc 1 320 0
 522 007c 0360     		str	r3, [r0]
 523              		.loc 1 323 0
 524 007e 4A68     		ldr	r2, [r1, #4]
 525              		.loc 1 326 0
 526 0080 0B88     		ldrh	r3, [r1]
 527              	.LVL51:
 528              		.loc 1 323 0
 529 0082 C262     		str	r2, [r0, #44]
 530              		.loc 1 326 0
 531 0084 8362     		str	r3, [r0, #40]
 532              		.loc 1 336 0
 533 0086 0123     		movs	r3, #1
 534 0088 4361     		str	r3, [r0, #20]
 535 008a 7047     		bx	lr
 536              	.L49:
 537              		.align	2
 538              	.L48:
 539 008c 00000140 		.word	1073807360
 540 0090 00100040 		.word	1073745920
 541 0094 00040140 		.word	1073808384
 542              		.cfi_endproc
 543              	.LFE124:
 544              		.size	TIM_TimeBaseInit, .-TIM_TimeBaseInit
 545              		.section	.text.TIM_TimeBaseStructInit,"ax",%progbits
 546              		.align	2
 547              		.p2align 4,,15
 548              		.global	TIM_TimeBaseStructInit
 549              		.thumb
 550              		.thumb_func
 551              		.type	TIM_TimeBaseStructInit, %function
 552              	TIM_TimeBaseStructInit:
 553              	.LFB125:
 554              		.loc 1 346 0
 555              		.cfi_startproc
 556              		@ args = 0, pretend = 0, frame = 0
 557              		@ frame_needed = 0, uses_anonymous_args = 0
 558              		@ link register save eliminated.
 559              	.LVL52:
 560              		.loc 1 349 0
 561 0000 0023     		movs	r3, #0
 562              		.loc 1 348 0
 563 0002 4FF0FF32 		mov	r2, #-1
 564 0006 4260     		str	r2, [r0, #4]
 565              		.loc 1 349 0
 566 0008 0380     		strh	r3, [r0]	@ movhi
 567              		.loc 1 350 0
 568 000a 0381     		strh	r3, [r0, #8]	@ movhi
 569              		.loc 1 351 0
 570 000c 4380     		strh	r3, [r0, #2]	@ movhi
ARM GAS  /var/folders/m4/4md61f0s1_g0rzfghffqnxvr0000gn/T//ccSRVwbo.s 			page 11


 571              		.loc 1 352 0
 572 000e 8372     		strb	r3, [r0, #10]
 573 0010 7047     		bx	lr
 574              		.cfi_endproc
 575              	.LFE125:
 576              		.size	TIM_TimeBaseStructInit, .-TIM_TimeBaseStructInit
 577 0012 00BF     		.section	.text.TIM_PrescalerConfig,"ax",%progbits
 578              		.align	2
 579              		.p2align 4,,15
 580              		.global	TIM_PrescalerConfig
 581              		.thumb
 582              		.thumb_func
 583              		.type	TIM_PrescalerConfig, %function
 584              	TIM_PrescalerConfig:
 585              	.LFB126:
 586              		.loc 1 366 0
 587              		.cfi_startproc
 588              		@ args = 0, pretend = 0, frame = 0
 589              		@ frame_needed = 0, uses_anonymous_args = 0
 590              		@ link register save eliminated.
 591              	.LVL53:
 592              		.loc 1 371 0
 593 0000 8162     		str	r1, [r0, #40]
 594              		.loc 1 373 0
 595 0002 4261     		str	r2, [r0, #20]
 596 0004 7047     		bx	lr
 597              		.cfi_endproc
 598              	.LFE126:
 599              		.size	TIM_PrescalerConfig, .-TIM_PrescalerConfig
 600 0006 00BF     		.section	.text.TIM_CounterModeConfig,"ax",%progbits
 601              		.align	2
 602              		.p2align 4,,15
 603              		.global	TIM_CounterModeConfig
 604              		.thumb
 605              		.thumb_func
 606              		.type	TIM_CounterModeConfig, %function
 607              	TIM_CounterModeConfig:
 608              	.LFB127:
 609              		.loc 1 389 0
 610              		.cfi_startproc
 611              		@ args = 0, pretend = 0, frame = 0
 612              		@ frame_needed = 0, uses_anonymous_args = 0
 613              		@ link register save eliminated.
 614              	.LVL54:
 615              		.loc 1 396 0
 616 0000 0268     		ldr	r2, [r0]
 617              	.LVL55:
 618              		.loc 1 399 0
 619 0002 4FF68F73 		movw	r3, #65423
 620 0006 1340     		ands	r3, r3, r2
 621              	.LVL56:
 622              		.loc 1 405 0
 623 0008 1943     		orrs	r1, r1, r3
 624              	.LVL57:
 625 000a 0160     		str	r1, [r0]
 626 000c 7047     		bx	lr
 627              		.cfi_endproc
ARM GAS  /var/folders/m4/4md61f0s1_g0rzfghffqnxvr0000gn/T//ccSRVwbo.s 			page 12


 628              	.LFE127:
 629              		.size	TIM_CounterModeConfig, .-TIM_CounterModeConfig
 630 000e 00BF     		.section	.text.TIM_SetCounter,"ax",%progbits
 631              		.align	2
 632              		.p2align 4,,15
 633              		.global	TIM_SetCounter
 634              		.thumb
 635              		.thumb_func
 636              		.type	TIM_SetCounter, %function
 637              	TIM_SetCounter:
 638              	.LFB128:
 639              		.loc 1 415 0
 640              		.cfi_startproc
 641              		@ args = 0, pretend = 0, frame = 0
 642              		@ frame_needed = 0, uses_anonymous_args = 0
 643              		@ link register save eliminated.
 644              	.LVL58:
 645              		.loc 1 420 0
 646 0000 4162     		str	r1, [r0, #36]
 647 0002 7047     		bx	lr
 648              		.cfi_endproc
 649              	.LFE128:
 650              		.size	TIM_SetCounter, .-TIM_SetCounter
 651              		.section	.text.TIM_SetAutoreload,"ax",%progbits
 652              		.align	2
 653              		.p2align 4,,15
 654              		.global	TIM_SetAutoreload
 655              		.thumb
 656              		.thumb_func
 657              		.type	TIM_SetAutoreload, %function
 658              	TIM_SetAutoreload:
 659              	.LFB129:
 660              		.loc 1 430 0
 661              		.cfi_startproc
 662              		@ args = 0, pretend = 0, frame = 0
 663              		@ frame_needed = 0, uses_anonymous_args = 0
 664              		@ link register save eliminated.
 665              	.LVL59:
 666              		.loc 1 435 0
 667 0000 C162     		str	r1, [r0, #44]
 668 0002 7047     		bx	lr
 669              		.cfi_endproc
 670              	.LFE129:
 671              		.size	TIM_SetAutoreload, .-TIM_SetAutoreload
 672              		.section	.text.TIM_GetCounter,"ax",%progbits
 673              		.align	2
 674              		.p2align 4,,15
 675              		.global	TIM_GetCounter
 676              		.thumb
 677              		.thumb_func
 678              		.type	TIM_GetCounter, %function
 679              	TIM_GetCounter:
 680              	.LFB130:
 681              		.loc 1 444 0
 682              		.cfi_startproc
 683              		@ args = 0, pretend = 0, frame = 0
 684              		@ frame_needed = 0, uses_anonymous_args = 0
ARM GAS  /var/folders/m4/4md61f0s1_g0rzfghffqnxvr0000gn/T//ccSRVwbo.s 			page 13


 685              		@ link register save eliminated.
 686              	.LVL60:
 687              		.loc 1 449 0
 688 0000 406A     		ldr	r0, [r0, #36]
 689              	.LVL61:
 690              		.loc 1 450 0
 691 0002 7047     		bx	lr
 692              		.cfi_endproc
 693              	.LFE130:
 694              		.size	TIM_GetCounter, .-TIM_GetCounter
 695              		.section	.text.TIM_GetPrescaler,"ax",%progbits
 696              		.align	2
 697              		.p2align 4,,15
 698              		.global	TIM_GetPrescaler
 699              		.thumb
 700              		.thumb_func
 701              		.type	TIM_GetPrescaler, %function
 702              	TIM_GetPrescaler:
 703              	.LFB131:
 704              		.loc 1 458 0
 705              		.cfi_startproc
 706              		@ args = 0, pretend = 0, frame = 0
 707              		@ frame_needed = 0, uses_anonymous_args = 0
 708              		@ link register save eliminated.
 709              	.LVL62:
 710              		.loc 1 463 0
 711 0000 806A     		ldr	r0, [r0, #40]
 712              	.LVL63:
 713              		.loc 1 464 0
 714 0002 80B2     		uxth	r0, r0
 715 0004 7047     		bx	lr
 716              		.cfi_endproc
 717              	.LFE131:
 718              		.size	TIM_GetPrescaler, .-TIM_GetPrescaler
 719 0006 00BF     		.section	.text.TIM_UpdateDisableConfig,"ax",%progbits
 720              		.align	2
 721              		.p2align 4,,15
 722              		.global	TIM_UpdateDisableConfig
 723              		.thumb
 724              		.thumb_func
 725              		.type	TIM_UpdateDisableConfig, %function
 726              	TIM_UpdateDisableConfig:
 727              	.LFB132:
 728              		.loc 1 474 0
 729              		.cfi_startproc
 730              		@ args = 0, pretend = 0, frame = 0
 731              		@ frame_needed = 0, uses_anonymous_args = 0
 732              		@ link register save eliminated.
 733              	.LVL64:
 734              		.loc 1 479 0
 735 0000 29B9     		cbnz	r1, .L60
 736              		.loc 1 487 0
 737 0002 0268     		ldr	r2, [r0]
 738 0004 4FF6FD73 		movw	r3, #65533
 739 0008 1340     		ands	r3, r3, r2
 740 000a 0360     		str	r3, [r0]
 741 000c 7047     		bx	lr
ARM GAS  /var/folders/m4/4md61f0s1_g0rzfghffqnxvr0000gn/T//ccSRVwbo.s 			page 14


 742              	.L60:
 743              		.loc 1 482 0
 744 000e 0368     		ldr	r3, [r0]
 745 0010 43F00203 		orr	r3, r3, #2
 746 0014 0360     		str	r3, [r0]
 747 0016 7047     		bx	lr
 748              		.cfi_endproc
 749              	.LFE132:
 750              		.size	TIM_UpdateDisableConfig, .-TIM_UpdateDisableConfig
 751              		.section	.text.TIM_UpdateRequestConfig,"ax",%progbits
 752              		.align	2
 753              		.p2align 4,,15
 754              		.global	TIM_UpdateRequestConfig
 755              		.thumb
 756              		.thumb_func
 757              		.type	TIM_UpdateRequestConfig, %function
 758              	TIM_UpdateRequestConfig:
 759              	.LFB133:
 760              		.loc 1 503 0
 761              		.cfi_startproc
 762              		@ args = 0, pretend = 0, frame = 0
 763              		@ frame_needed = 0, uses_anonymous_args = 0
 764              		@ link register save eliminated.
 765              	.LVL65:
 766              		.loc 1 508 0
 767 0000 29B9     		cbnz	r1, .L64
 768              		.loc 1 516 0
 769 0002 0268     		ldr	r2, [r0]
 770 0004 4FF6FB73 		movw	r3, #65531
 771 0008 1340     		ands	r3, r3, r2
 772 000a 0360     		str	r3, [r0]
 773 000c 7047     		bx	lr
 774              	.L64:
 775              		.loc 1 511 0
 776 000e 0368     		ldr	r3, [r0]
 777 0010 43F00403 		orr	r3, r3, #4
 778 0014 0360     		str	r3, [r0]
 779 0016 7047     		bx	lr
 780              		.cfi_endproc
 781              	.LFE133:
 782              		.size	TIM_UpdateRequestConfig, .-TIM_UpdateRequestConfig
 783              		.section	.text.TIM_ARRPreloadConfig,"ax",%progbits
 784              		.align	2
 785              		.p2align 4,,15
 786              		.global	TIM_ARRPreloadConfig
 787              		.thumb
 788              		.thumb_func
 789              		.type	TIM_ARRPreloadConfig, %function
 790              	TIM_ARRPreloadConfig:
 791              	.LFB134:
 792              		.loc 1 528 0
 793              		.cfi_startproc
 794              		@ args = 0, pretend = 0, frame = 0
 795              		@ frame_needed = 0, uses_anonymous_args = 0
 796              		@ link register save eliminated.
 797              	.LVL66:
 798              		.loc 1 533 0
ARM GAS  /var/folders/m4/4md61f0s1_g0rzfghffqnxvr0000gn/T//ccSRVwbo.s 			page 15


 799 0000 29B9     		cbnz	r1, .L68
 800              		.loc 1 541 0
 801 0002 0268     		ldr	r2, [r0]
 802 0004 4FF67F73 		movw	r3, #65407
 803 0008 1340     		ands	r3, r3, r2
 804 000a 0360     		str	r3, [r0]
 805 000c 7047     		bx	lr
 806              	.L68:
 807              		.loc 1 536 0
 808 000e 0368     		ldr	r3, [r0]
 809 0010 43F08003 		orr	r3, r3, #128
 810 0014 0360     		str	r3, [r0]
 811 0016 7047     		bx	lr
 812              		.cfi_endproc
 813              	.LFE134:
 814              		.size	TIM_ARRPreloadConfig, .-TIM_ARRPreloadConfig
 815              		.section	.text.TIM_SelectOnePulseMode,"ax",%progbits
 816              		.align	2
 817              		.p2align 4,,15
 818              		.global	TIM_SelectOnePulseMode
 819              		.thumb
 820              		.thumb_func
 821              		.type	TIM_SelectOnePulseMode, %function
 822              	TIM_SelectOnePulseMode:
 823              	.LFB135:
 824              		.loc 1 555 0
 825              		.cfi_startproc
 826              		@ args = 0, pretend = 0, frame = 0
 827              		@ frame_needed = 0, uses_anonymous_args = 0
 828              		@ link register save eliminated.
 829              	.LVL67:
 830              		.loc 1 561 0
 831 0000 0268     		ldr	r2, [r0]
 832 0002 4FF6F773 		movw	r3, #65527
 833 0006 1340     		ands	r3, r3, r2
 834 0008 0360     		str	r3, [r0]
 835              		.loc 1 564 0
 836 000a 0368     		ldr	r3, [r0]
 837 000c 1943     		orrs	r1, r1, r3
 838              	.LVL68:
 839 000e 0160     		str	r1, [r0]
 840 0010 7047     		bx	lr
 841              		.cfi_endproc
 842              	.LFE135:
 843              		.size	TIM_SelectOnePulseMode, .-TIM_SelectOnePulseMode
 844 0012 00BF     		.section	.text.TIM_SetClockDivision,"ax",%progbits
 845              		.align	2
 846              		.p2align 4,,15
 847              		.global	TIM_SetClockDivision
 848              		.thumb
 849              		.thumb_func
 850              		.type	TIM_SetClockDivision, %function
 851              	TIM_SetClockDivision:
 852              	.LFB136:
 853              		.loc 1 578 0
 854              		.cfi_startproc
 855              		@ args = 0, pretend = 0, frame = 0
ARM GAS  /var/folders/m4/4md61f0s1_g0rzfghffqnxvr0000gn/T//ccSRVwbo.s 			page 16


 856              		@ frame_needed = 0, uses_anonymous_args = 0
 857              		@ link register save eliminated.
 858              	.LVL69:
 859              		.loc 1 584 0
 860 0000 0268     		ldr	r2, [r0]
 861 0002 4FF6FF43 		movw	r3, #64767
 862 0006 1340     		ands	r3, r3, r2
 863 0008 0360     		str	r3, [r0]
 864              		.loc 1 587 0
 865 000a 0368     		ldr	r3, [r0]
 866 000c 1943     		orrs	r1, r1, r3
 867              	.LVL70:
 868 000e 0160     		str	r1, [r0]
 869 0010 7047     		bx	lr
 870              		.cfi_endproc
 871              	.LFE136:
 872              		.size	TIM_SetClockDivision, .-TIM_SetClockDivision
 873 0012 00BF     		.section	.text.TIM_Cmd,"ax",%progbits
 874              		.align	2
 875              		.p2align 4,,15
 876              		.global	TIM_Cmd
 877              		.thumb
 878              		.thumb_func
 879              		.type	TIM_Cmd, %function
 880              	TIM_Cmd:
 881              	.LFB137:
 882              		.loc 1 598 0
 883              		.cfi_startproc
 884              		@ args = 0, pretend = 0, frame = 0
 885              		@ frame_needed = 0, uses_anonymous_args = 0
 886              		@ link register save eliminated.
 887              	.LVL71:
 888              		.loc 1 603 0
 889 0000 29B9     		cbnz	r1, .L74
 890              		.loc 1 611 0
 891 0002 0268     		ldr	r2, [r0]
 892 0004 4FF6FE73 		movw	r3, #65534
 893 0008 1340     		ands	r3, r3, r2
 894 000a 0360     		str	r3, [r0]
 895 000c 7047     		bx	lr
 896              	.L74:
 897              		.loc 1 606 0
 898 000e 0368     		ldr	r3, [r0]
 899 0010 43F00103 		orr	r3, r3, #1
 900 0014 0360     		str	r3, [r0]
 901 0016 7047     		bx	lr
 902              		.cfi_endproc
 903              	.LFE137:
 904              		.size	TIM_Cmd, .-TIM_Cmd
 905              		.section	.text.TIM_OC1Init,"ax",%progbits
 906              		.align	2
 907              		.p2align 4,,15
 908              		.global	TIM_OC1Init
 909              		.thumb
 910              		.thumb_func
 911              		.type	TIM_OC1Init, %function
 912              	TIM_OC1Init:
ARM GAS  /var/folders/m4/4md61f0s1_g0rzfghffqnxvr0000gn/T//ccSRVwbo.s 			page 17


 913              	.LFB138:
 914              		.loc 1 679 0
 915              		.cfi_startproc
 916              		@ args = 0, pretend = 0, frame = 0
 917              		@ frame_needed = 0, uses_anonymous_args = 0
 918              	.LVL72:
 919              		.loc 1 689 0
 920 0000 026A     		ldr	r2, [r0, #32]
 921 0002 4FF6FE73 		movw	r3, #65534
 922 0006 1340     		ands	r3, r3, r2
 923 0008 0362     		str	r3, [r0, #32]
 924              		.loc 1 679 0
 925 000a F0B5     		push	{r4, r5, r6, r7, lr}
 926              		.cfi_def_cfa_offset 20
 927              		.cfi_offset 4, -20
 928              		.cfi_offset 5, -16
 929              		.cfi_offset 6, -12
 930              		.cfi_offset 7, -8
 931              		.cfi_offset 14, -4
 932              		.loc 1 711 0
 933 000c 4A88     		ldrh	r2, [r1, #2]
 934              		.loc 1 692 0
 935 000e 056A     		ldr	r5, [r0, #32]
 936              	.LVL73:
 937              		.loc 1 711 0
 938 0010 8B89     		ldrh	r3, [r1, #12]
 939              		.loc 1 694 0
 940 0012 4468     		ldr	r4, [r0, #4]
 941              		.loc 1 713 0
 942 0014 154F     		ldr	r7, .L79
 943              		.loc 1 697 0
 944 0016 D0F818E0 		ldr	lr, [r0, #24]
 945              		.loc 1 706 0
 946 001a 4FF6FD76 		movw	r6, #65533
 947 001e 2E40     		ands	r6, r6, r5
 948              		.loc 1 711 0
 949 0020 1343     		orrs	r3, r3, r2
 950 0022 3343     		orrs	r3, r3, r6
 951              		.loc 1 701 0
 952 0024 4FF68C75 		movw	r5, #65420
 953              	.LVL74:
 954              		.loc 1 703 0
 955 0028 0E88     		ldrh	r6, [r1]
 956              		.loc 1 701 0
 957 002a 0EEA0505 		and	r5, lr, r5
 958              		.loc 1 713 0
 959 002e B842     		cmp	r0, r7
 960              		.loc 1 694 0
 961 0030 A2B2     		uxth	r2, r4
 962              	.LVL75:
 963              		.loc 1 711 0
 964 0032 9BB2     		uxth	r3, r3
 965              		.loc 1 703 0
 966 0034 45EA0604 		orr	r4, r5, r6
 967              	.LVL76:
 968              		.loc 1 713 0
 969 0038 08D0     		beq	.L76
ARM GAS  /var/folders/m4/4md61f0s1_g0rzfghffqnxvr0000gn/T//ccSRVwbo.s 			page 18


 970              		.loc 1 713 0 is_stmt 0 discriminator 1
 971 003a 0D4D     		ldr	r5, .L79+4
 972 003c A842     		cmp	r0, r5
 973 003e 05D0     		beq	.L76
 974              	.L77:
 975              		.loc 1 744 0 is_stmt 1
 976 0040 8968     		ldr	r1, [r1, #8]
 977              	.LVL77:
 978              		.loc 1 738 0
 979 0042 4260     		str	r2, [r0, #4]
 980              		.loc 1 741 0
 981 0044 8461     		str	r4, [r0, #24]
 982              		.loc 1 744 0
 983 0046 4163     		str	r1, [r0, #52]
 984              		.loc 1 747 0
 985 0048 0362     		str	r3, [r0, #32]
 986 004a F0BD     		pop	{r4, r5, r6, r7, pc}
 987              	.LVL78:
 988              	.L76:
 989              		.loc 1 723 0
 990 004c CE89     		ldrh	r6, [r1, #14]
 991              		.loc 1 735 0
 992 004e 0F8A     		ldrh	r7, [r1, #16]
 993 0050 4D8A     		ldrh	r5, [r1, #18]
 994              		.loc 1 721 0
 995 0052 23F00803 		bic	r3, r3, #8
 996              	.LVL79:
 997              		.loc 1 723 0
 998 0056 3343     		orrs	r3, r3, r6
 999              	.LVL80:
 1000              		.loc 1 731 0
 1001 0058 22F44072 		bic	r2, r2, #768
 1002              	.LVL81:
 1003              		.loc 1 728 0
 1004 005c 8E88     		ldrh	r6, [r1, #4]
 1005              		.loc 1 735 0
 1006 005e 3D43     		orrs	r5, r5, r7
 1007              		.loc 1 725 0
 1008 0060 23F00403 		bic	r3, r3, #4
 1009              	.LVL82:
 1010              		.loc 1 735 0
 1011 0064 2A43     		orrs	r2, r2, r5
 1012              		.loc 1 728 0
 1013 0066 3343     		orrs	r3, r3, r6
 1014              	.LVL83:
 1015              		.loc 1 735 0
 1016 0068 92B2     		uxth	r2, r2
 1017              	.LVL84:
 1018 006a E9E7     		b	.L77
 1019              	.L80:
 1020              		.align	2
 1021              	.L79:
 1022 006c 00000140 		.word	1073807360
 1023 0070 00040140 		.word	1073808384
 1024              		.cfi_endproc
 1025              	.LFE138:
 1026              		.size	TIM_OC1Init, .-TIM_OC1Init
ARM GAS  /var/folders/m4/4md61f0s1_g0rzfghffqnxvr0000gn/T//ccSRVwbo.s 			page 19


 1027              		.section	.text.TIM_OC2Init,"ax",%progbits
 1028              		.align	2
 1029              		.p2align 4,,15
 1030              		.global	TIM_OC2Init
 1031              		.thumb
 1032              		.thumb_func
 1033              		.type	TIM_OC2Init, %function
 1034              	TIM_OC2Init:
 1035              	.LFB139:
 1036              		.loc 1 760 0
 1037              		.cfi_startproc
 1038              		@ args = 0, pretend = 0, frame = 0
 1039              		@ frame_needed = 0, uses_anonymous_args = 0
 1040              	.LVL85:
 1041              		.loc 1 770 0
 1042 0000 026A     		ldr	r2, [r0, #32]
 1043 0002 4FF6EF73 		movw	r3, #65519
 1044 0006 1340     		ands	r3, r3, r2
 1045              		.loc 1 760 0
 1046 0008 F0B5     		push	{r4, r5, r6, r7, lr}
 1047              		.cfi_def_cfa_offset 20
 1048              		.cfi_offset 4, -20
 1049              		.cfi_offset 5, -16
 1050              		.cfi_offset 6, -12
 1051              		.cfi_offset 7, -8
 1052              		.cfi_offset 14, -4
 1053              		.loc 1 770 0
 1054 000a 0362     		str	r3, [r0, #32]
 1055              		.loc 1 793 0
 1056 000c 4A88     		ldrh	r2, [r1, #2]
 1057 000e 8C89     		ldrh	r4, [r1, #12]
 1058              		.loc 1 773 0
 1059 0010 D0F820E0 		ldr	lr, [r0, #32]
 1060              	.LVL86:
 1061              		.loc 1 775 0
 1062 0014 4668     		ldr	r6, [r0, #4]
 1063              		.loc 1 778 0
 1064 0016 8769     		ldr	r7, [r0, #24]
 1065              		.loc 1 795 0
 1066 0018 184D     		ldr	r5, .L85
 1067              		.loc 1 793 0
 1068 001a 1443     		orrs	r4, r4, r2
 1069              		.loc 1 782 0
 1070 001c 48F6FF42 		movw	r2, #36095
 1071 0020 3A40     		ands	r2, r2, r7
 1072              		.loc 1 788 0
 1073 0022 4FF6DF73 		movw	r3, #65503
 1074              		.loc 1 785 0
 1075 0026 0F88     		ldrh	r7, [r1]
 1076              		.loc 1 788 0
 1077 0028 0EEA0303 		and	r3, lr, r3
 1078              		.loc 1 793 0
 1079 002c 43EA0413 		orr	r3, r3, r4, lsl #4
 1080              		.loc 1 785 0
 1081 0030 42EA0722 		orr	r2, r2, r7, lsl #8
 1082              		.loc 1 795 0
 1083 0034 A842     		cmp	r0, r5
ARM GAS  /var/folders/m4/4md61f0s1_g0rzfghffqnxvr0000gn/T//ccSRVwbo.s 			page 20


 1084              		.loc 1 793 0
 1085 0036 9BB2     		uxth	r3, r3
 1086              		.loc 1 775 0
 1087 0038 B4B2     		uxth	r4, r6
 1088              	.LVL87:
 1089              		.loc 1 785 0
 1090 003a 92B2     		uxth	r2, r2
 1091              	.LVL88:
 1092              		.loc 1 795 0
 1093 003c 09D0     		beq	.L82
 1094              		.loc 1 795 0 is_stmt 0 discriminator 1
 1095 003e 05F58065 		add	r5, r5, #1024
 1096 0042 A842     		cmp	r0, r5
 1097 0044 05D0     		beq	.L82
 1098              	.L83:
 1099              		.loc 1 826 0 is_stmt 1
 1100 0046 8968     		ldr	r1, [r1, #8]
 1101              	.LVL89:
 1102              		.loc 1 820 0
 1103 0048 4460     		str	r4, [r0, #4]
 1104              		.loc 1 823 0
 1105 004a 8261     		str	r2, [r0, #24]
 1106              		.loc 1 826 0
 1107 004c 8163     		str	r1, [r0, #56]
 1108              		.loc 1 829 0
 1109 004e 0362     		str	r3, [r0, #32]
 1110 0050 F0BD     		pop	{r4, r5, r6, r7, pc}
 1111              	.LVL90:
 1112              	.L82:
 1113              		.loc 1 805 0
 1114 0052 CD89     		ldrh	r5, [r1, #14]
 1115              		.loc 1 817 0
 1116 0054 0F8A     		ldrh	r7, [r1, #16]
 1117 0056 4E8A     		ldrh	r6, [r1, #18]
 1118              		.loc 1 803 0
 1119 0058 23F08003 		bic	r3, r3, #128
 1120              	.LVL91:
 1121              		.loc 1 805 0
 1122 005c 43EA0513 		orr	r3, r3, r5, lsl #4
 1123              	.LVL92:
 1124              		.loc 1 807 0
 1125 0060 4FF6BF75 		movw	r5, #65471
 1126 0064 1D40     		ands	r5, r5, r3
 1127              	.LVL93:
 1128              		.loc 1 810 0
 1129 0066 8B88     		ldrh	r3, [r1, #4]
 1130              		.loc 1 813 0
 1131 0068 24F44064 		bic	r4, r4, #3072
 1132              	.LVL94:
 1133              		.loc 1 817 0
 1134 006c 3E43     		orrs	r6, r6, r7
 1135              		.loc 1 810 0
 1136 006e 45EA0313 		orr	r3, r5, r3, lsl #4
 1137              		.loc 1 817 0
 1138 0072 44EA8604 		orr	r4, r4, r6, lsl #2
 1139              		.loc 1 810 0
 1140 0076 9BB2     		uxth	r3, r3
ARM GAS  /var/folders/m4/4md61f0s1_g0rzfghffqnxvr0000gn/T//ccSRVwbo.s 			page 21


 1141              	.LVL95:
 1142              		.loc 1 817 0
 1143 0078 A4B2     		uxth	r4, r4
 1144              	.LVL96:
 1145 007a E4E7     		b	.L83
 1146              	.L86:
 1147              		.align	2
 1148              	.L85:
 1149 007c 00000140 		.word	1073807360
 1150              		.cfi_endproc
 1151              	.LFE139:
 1152              		.size	TIM_OC2Init, .-TIM_OC2Init
 1153              		.section	.text.TIM_OC3Init,"ax",%progbits
 1154              		.align	2
 1155              		.p2align 4,,15
 1156              		.global	TIM_OC3Init
 1157              		.thumb
 1158              		.thumb_func
 1159              		.type	TIM_OC3Init, %function
 1160              	TIM_OC3Init:
 1161              	.LFB140:
 1162              		.loc 1 841 0
 1163              		.cfi_startproc
 1164              		@ args = 0, pretend = 0, frame = 0
 1165              		@ frame_needed = 0, uses_anonymous_args = 0
 1166              	.LVL97:
 1167              		.loc 1 851 0
 1168 0000 026A     		ldr	r2, [r0, #32]
 1169 0002 4FF6FF63 		movw	r3, #65279
 1170 0006 1340     		ands	r3, r3, r2
 1171 0008 0362     		str	r3, [r0, #32]
 1172              		.loc 1 841 0
 1173 000a F0B5     		push	{r4, r5, r6, r7, lr}
 1174              		.cfi_def_cfa_offset 20
 1175              		.cfi_offset 4, -20
 1176              		.cfi_offset 5, -16
 1177              		.cfi_offset 6, -12
 1178              		.cfi_offset 7, -8
 1179              		.cfi_offset 14, -4
 1180              		.loc 1 873 0
 1181 000c 4A88     		ldrh	r2, [r1, #2]
 1182              		.loc 1 854 0
 1183 000e D0F820E0 		ldr	lr, [r0, #32]
 1184              	.LVL98:
 1185              		.loc 1 873 0
 1186 0012 8C89     		ldrh	r4, [r1, #12]
 1187              		.loc 1 856 0
 1188 0014 4568     		ldr	r5, [r0, #4]
 1189              		.loc 1 875 0
 1190 0016 1A4E     		ldr	r6, .L91
 1191              		.loc 1 859 0
 1192 0018 C769     		ldr	r7, [r0, #28]
 1193              		.loc 1 868 0
 1194 001a 4FF6FF53 		movw	r3, #65023
 1195              		.loc 1 873 0
 1196 001e 1443     		orrs	r4, r4, r2
 1197              		.loc 1 868 0
ARM GAS  /var/folders/m4/4md61f0s1_g0rzfghffqnxvr0000gn/T//ccSRVwbo.s 			page 22


 1198 0020 0EEA0303 		and	r3, lr, r3
 1199              		.loc 1 873 0
 1200 0024 43EA0423 		orr	r3, r3, r4, lsl #8
 1201              		.loc 1 863 0
 1202 0028 4FF68C72 		movw	r2, #65420
 1203              		.loc 1 865 0
 1204 002c 0C88     		ldrh	r4, [r1]
 1205              		.loc 1 863 0
 1206 002e 3A40     		ands	r2, r2, r7
 1207              		.loc 1 875 0
 1208 0030 B042     		cmp	r0, r6
 1209              		.loc 1 873 0
 1210 0032 9BB2     		uxth	r3, r3
 1211              		.loc 1 856 0
 1212 0034 ADB2     		uxth	r5, r5
 1213              	.LVL99:
 1214              		.loc 1 865 0
 1215 0036 42EA0402 		orr	r2, r2, r4
 1216              	.LVL100:
 1217              		.loc 1 875 0
 1218 003a 09D0     		beq	.L88
 1219              		.loc 1 875 0 is_stmt 0 discriminator 1
 1220 003c 06F58066 		add	r6, r6, #1024
 1221 0040 B042     		cmp	r0, r6
 1222 0042 05D0     		beq	.L88
 1223              	.L89:
 1224              		.loc 1 906 0 is_stmt 1
 1225 0044 8968     		ldr	r1, [r1, #8]
 1226              	.LVL101:
 1227              		.loc 1 900 0
 1228 0046 4560     		str	r5, [r0, #4]
 1229              		.loc 1 903 0
 1230 0048 C261     		str	r2, [r0, #28]
 1231              		.loc 1 906 0
 1232 004a C163     		str	r1, [r0, #60]
 1233              		.loc 1 909 0
 1234 004c 0362     		str	r3, [r0, #32]
 1235 004e F0BD     		pop	{r4, r5, r6, r7, pc}
 1236              	.LVL102:
 1237              	.L88:
 1238              		.loc 1 885 0
 1239 0050 CE89     		ldrh	r6, [r1, #14]
 1240              		.loc 1 897 0
 1241 0052 0C8A     		ldrh	r4, [r1, #16]
 1242 0054 B1F812E0 		ldrh	lr, [r1, #18]
 1243              		.loc 1 883 0
 1244 0058 23F40063 		bic	r3, r3, #2048
 1245              	.LVL103:
 1246              		.loc 1 885 0
 1247 005c 43EA0623 		orr	r3, r3, r6, lsl #8
 1248              	.LVL104:
 1249              		.loc 1 887 0
 1250 0060 4FF6FF36 		movw	r6, #64511
 1251 0064 1E40     		ands	r6, r6, r3
 1252              	.LVL105:
 1253              		.loc 1 890 0
 1254 0066 8B88     		ldrh	r3, [r1, #4]
ARM GAS  /var/folders/m4/4md61f0s1_g0rzfghffqnxvr0000gn/T//ccSRVwbo.s 			page 23


 1255              		.loc 1 893 0
 1256 0068 25F44057 		bic	r7, r5, #12288
 1257              		.loc 1 897 0
 1258 006c 44EA0E05 		orr	r5, r4, lr
 1259              	.LVL106:
 1260              		.loc 1 890 0
 1261 0070 46EA0323 		orr	r3, r6, r3, lsl #8
 1262              		.loc 1 897 0
 1263 0074 47EA0515 		orr	r5, r7, r5, lsl #4
 1264              		.loc 1 890 0
 1265 0078 9BB2     		uxth	r3, r3
 1266              	.LVL107:
 1267              		.loc 1 897 0
 1268 007a ADB2     		uxth	r5, r5
 1269              	.LVL108:
 1270 007c E2E7     		b	.L89
 1271              	.L92:
 1272 007e 00BF     		.align	2
 1273              	.L91:
 1274 0080 00000140 		.word	1073807360
 1275              		.cfi_endproc
 1276              	.LFE140:
 1277              		.size	TIM_OC3Init, .-TIM_OC3Init
 1278              		.section	.text.TIM_OC4Init,"ax",%progbits
 1279              		.align	2
 1280              		.p2align 4,,15
 1281              		.global	TIM_OC4Init
 1282              		.thumb
 1283              		.thumb_func
 1284              		.type	TIM_OC4Init, %function
 1285              	TIM_OC4Init:
 1286              	.LFB141:
 1287              		.loc 1 921 0
 1288              		.cfi_startproc
 1289              		@ args = 0, pretend = 0, frame = 0
 1290              		@ frame_needed = 0, uses_anonymous_args = 0
 1291              	.LVL109:
 1292              		.loc 1 931 0
 1293 0000 026A     		ldr	r2, [r0, #32]
 1294 0002 4EF6FF73 		movw	r3, #61439
 1295 0006 1340     		ands	r3, r3, r2
 1296              		.loc 1 921 0
 1297 0008 F0B5     		push	{r4, r5, r6, r7, lr}
 1298              		.cfi_def_cfa_offset 20
 1299              		.cfi_offset 4, -20
 1300              		.cfi_offset 5, -16
 1301              		.cfi_offset 6, -12
 1302              		.cfi_offset 7, -8
 1303              		.cfi_offset 14, -4
 1304              		.loc 1 931 0
 1305 000a 0362     		str	r3, [r0, #32]
 1306              		.loc 1 954 0
 1307 000c 4A88     		ldrh	r2, [r1, #2]
 1308 000e 8D89     		ldrh	r5, [r1, #12]
 1309              		.loc 1 934 0
 1310 0010 D0F820E0 		ldr	lr, [r0, #32]
 1311              	.LVL110:
ARM GAS  /var/folders/m4/4md61f0s1_g0rzfghffqnxvr0000gn/T//ccSRVwbo.s 			page 24


 1312              		.loc 1 936 0
 1313 0014 4468     		ldr	r4, [r0, #4]
 1314              		.loc 1 939 0
 1315 0016 C769     		ldr	r7, [r0, #28]
 1316              		.loc 1 956 0
 1317 0018 114E     		ldr	r6, .L97
 1318              		.loc 1 954 0
 1319 001a 1543     		orrs	r5, r5, r2
 1320              		.loc 1 943 0
 1321 001c 48F6FF42 		movw	r2, #36095
 1322 0020 3A40     		ands	r2, r2, r7
 1323              		.loc 1 949 0
 1324 0022 4DF6FF73 		movw	r3, #57343
 1325              		.loc 1 946 0
 1326 0026 0F88     		ldrh	r7, [r1]
 1327              		.loc 1 949 0
 1328 0028 0EEA0303 		and	r3, lr, r3
 1329              		.loc 1 954 0
 1330 002c 43EA0533 		orr	r3, r3, r5, lsl #12
 1331              		.loc 1 946 0
 1332 0030 42EA0722 		orr	r2, r2, r7, lsl #8
 1333              		.loc 1 956 0
 1334 0034 B042     		cmp	r0, r6
 1335              		.loc 1 954 0
 1336 0036 9BB2     		uxth	r3, r3
 1337              		.loc 1 936 0
 1338 0038 A4B2     		uxth	r4, r4
 1339              	.LVL111:
 1340              		.loc 1 946 0
 1341 003a 92B2     		uxth	r2, r2
 1342              	.LVL112:
 1343              		.loc 1 956 0
 1344 003c 08D0     		beq	.L94
 1345              		.loc 1 956 0 is_stmt 0 discriminator 1
 1346 003e 094D     		ldr	r5, .L97+4
 1347 0040 A842     		cmp	r0, r5
 1348 0042 05D0     		beq	.L94
 1349              	.L95:
 1350              		.loc 1 971 0 is_stmt 1
 1351 0044 8968     		ldr	r1, [r1, #8]
 1352              	.LVL113:
 1353              		.loc 1 965 0
 1354 0046 4460     		str	r4, [r0, #4]
 1355              		.loc 1 968 0
 1356 0048 C261     		str	r2, [r0, #28]
 1357              		.loc 1 971 0
 1358 004a 0164     		str	r1, [r0, #64]
 1359              		.loc 1 974 0
 1360 004c 0362     		str	r3, [r0, #32]
 1361 004e F0BD     		pop	{r4, r5, r6, r7, pc}
 1362              	.LVL114:
 1363              	.L94:
 1364              		.loc 1 962 0
 1365 0050 0D8A     		ldrh	r5, [r1, #16]
 1366              		.loc 1 960 0
 1367 0052 24F48044 		bic	r4, r4, #16384
 1368              	.LVL115:
ARM GAS  /var/folders/m4/4md61f0s1_g0rzfghffqnxvr0000gn/T//ccSRVwbo.s 			page 25


 1369              		.loc 1 962 0
 1370 0056 44EA8514 		orr	r4, r4, r5, lsl #6
 1371              	.LVL116:
 1372 005a A4B2     		uxth	r4, r4
 1373              	.LVL117:
 1374 005c F2E7     		b	.L95
 1375              	.L98:
 1376 005e 00BF     		.align	2
 1377              	.L97:
 1378 0060 00000140 		.word	1073807360
 1379 0064 00040140 		.word	1073808384
 1380              		.cfi_endproc
 1381              	.LFE141:
 1382              		.size	TIM_OC4Init, .-TIM_OC4Init
 1383              		.section	.text.TIM_OCStructInit,"ax",%progbits
 1384              		.align	2
 1385              		.p2align 4,,15
 1386              		.global	TIM_OCStructInit
 1387              		.thumb
 1388              		.thumb_func
 1389              		.type	TIM_OCStructInit, %function
 1390              	TIM_OCStructInit:
 1391              	.LFB142:
 1392              		.loc 1 984 0
 1393              		.cfi_startproc
 1394              		@ args = 0, pretend = 0, frame = 0
 1395              		@ frame_needed = 0, uses_anonymous_args = 0
 1396              		@ link register save eliminated.
 1397              	.LVL118:
 1398              		.loc 1 986 0
 1399 0000 0023     		movs	r3, #0
 1400 0002 0380     		strh	r3, [r0]	@ movhi
 1401              		.loc 1 987 0
 1402 0004 4380     		strh	r3, [r0, #2]	@ movhi
 1403              		.loc 1 988 0
 1404 0006 8380     		strh	r3, [r0, #4]	@ movhi
 1405              		.loc 1 989 0
 1406 0008 8360     		str	r3, [r0, #8]
 1407              		.loc 1 990 0
 1408 000a 8381     		strh	r3, [r0, #12]	@ movhi
 1409              		.loc 1 991 0
 1410 000c C381     		strh	r3, [r0, #14]	@ movhi
 1411              		.loc 1 992 0
 1412 000e 0382     		strh	r3, [r0, #16]	@ movhi
 1413              		.loc 1 993 0
 1414 0010 4382     		strh	r3, [r0, #18]	@ movhi
 1415 0012 7047     		bx	lr
 1416              		.cfi_endproc
 1417              	.LFE142:
 1418              		.size	TIM_OCStructInit, .-TIM_OCStructInit
 1419              		.section	.text.TIM_SelectOCxM,"ax",%progbits
 1420              		.align	2
 1421              		.p2align 4,,15
 1422              		.global	TIM_SelectOCxM
 1423              		.thumb
 1424              		.thumb_func
 1425              		.type	TIM_SelectOCxM, %function
ARM GAS  /var/folders/m4/4md61f0s1_g0rzfghffqnxvr0000gn/T//ccSRVwbo.s 			page 26


 1426              	TIM_SelectOCxM:
 1427              	.LFB143:
 1428              		.loc 1 1020 0
 1429              		.cfi_startproc
 1430              		@ args = 0, pretend = 0, frame = 0
 1431              		@ frame_needed = 0, uses_anonymous_args = 0
 1432              		@ link register save eliminated.
 1433              	.LVL119:
 1434              		.loc 1 1035 0
 1435 0000 0123     		movs	r3, #1
 1436 0002 8B40     		lsls	r3, r3, r1
 1437              		.loc 1 1020 0
 1438 0004 10B4     		push	{r4}
 1439              		.cfi_def_cfa_offset 4
 1440              		.cfi_offset 4, -4
 1441              		.loc 1 1035 0
 1442 0006 DB43     		mvns	r3, r3
 1443 0008 046A     		ldr	r4, [r0, #32]
 1444 000a 9BB2     		uxth	r3, r3
 1445 000c 2340     		ands	r3, r3, r4
 1446              		.loc 1 1037 0
 1447 000e 21F00804 		bic	r4, r1, #8
 1448              		.loc 1 1035 0
 1449 0012 0362     		str	r3, [r0, #32]
 1450              		.loc 1 1030 0
 1451 0014 1830     		adds	r0, r0, #24
 1452              	.LVL120:
 1453              		.loc 1 1037 0
 1454 0016 7CB1     		cbz	r4, .L104
 1455              	.LVL121:
 1456              		.loc 1 1052 0
 1457 0018 0439     		subs	r1, r1, #4
 1458              	.LVL122:
 1459 001a C1F34E01 		ubfx	r1, r1, #1, #15
 1460 001e 48F6FF73 		movw	r3, #36863
 1461 0022 0C58     		ldr	r4, [r1, r0]
 1462 0024 2340     		ands	r3, r3, r4
 1463 0026 0B50     		str	r3, [r1, r0]
 1464              		.loc 1 1055 0
 1465 0028 1202     		lsls	r2, r2, #8
 1466              	.LVL123:
 1467 002a 0B58     		ldr	r3, [r1, r0]
 1468              		.loc 1 1057 0
 1469 002c 5DF8044B 		ldr	r4, [sp], #4
 1470              		.cfi_remember_state
 1471              		.cfi_restore 4
 1472              		.cfi_def_cfa_offset 0
 1473              		.loc 1 1055 0
 1474 0030 92B2     		uxth	r2, r2
 1475 0032 1A43     		orrs	r2, r2, r3
 1476 0034 0A50     		str	r2, [r1, r0]
 1477              		.loc 1 1057 0
 1478 0036 7047     		bx	lr
 1479              	.LVL124:
 1480              	.L104:
 1481              		.cfi_restore_state
 1482              		.loc 1 1042 0
ARM GAS  /var/folders/m4/4md61f0s1_g0rzfghffqnxvr0000gn/T//ccSRVwbo.s 			page 27


 1483 0038 4908     		lsrs	r1, r1, #1
 1484              	.LVL125:
 1485 003a 4FF68F73 		movw	r3, #65423
 1486 003e 0C58     		ldr	r4, [r1, r0]
 1487 0040 2340     		ands	r3, r3, r4
 1488 0042 0B50     		str	r3, [r1, r0]
 1489              		.loc 1 1045 0
 1490 0044 0B58     		ldr	r3, [r1, r0]
 1491              		.loc 1 1057 0
 1492 0046 5DF8044B 		ldr	r4, [sp], #4
 1493              		.cfi_restore 4
 1494              		.cfi_def_cfa_offset 0
 1495              		.loc 1 1045 0
 1496 004a 1A43     		orrs	r2, r2, r3
 1497              	.LVL126:
 1498 004c 0A50     		str	r2, [r1, r0]
 1499              		.loc 1 1057 0
 1500 004e 7047     		bx	lr
 1501              		.cfi_endproc
 1502              	.LFE143:
 1503              		.size	TIM_SelectOCxM, .-TIM_SelectOCxM
 1504              		.section	.text.TIM_SetCompare1,"ax",%progbits
 1505              		.align	2
 1506              		.p2align 4,,15
 1507              		.global	TIM_SetCompare1
 1508              		.thumb
 1509              		.thumb_func
 1510              		.type	TIM_SetCompare1, %function
 1511              	TIM_SetCompare1:
 1512              	.LFB144:
 1513              		.loc 1 1066 0
 1514              		.cfi_startproc
 1515              		@ args = 0, pretend = 0, frame = 0
 1516              		@ frame_needed = 0, uses_anonymous_args = 0
 1517              		@ link register save eliminated.
 1518              	.LVL127:
 1519              		.loc 1 1071 0
 1520 0000 4163     		str	r1, [r0, #52]
 1521 0002 7047     		bx	lr
 1522              		.cfi_endproc
 1523              	.LFE144:
 1524              		.size	TIM_SetCompare1, .-TIM_SetCompare1
 1525              		.section	.text.TIM_SetCompare2,"ax",%progbits
 1526              		.align	2
 1527              		.p2align 4,,15
 1528              		.global	TIM_SetCompare2
 1529              		.thumb
 1530              		.thumb_func
 1531              		.type	TIM_SetCompare2, %function
 1532              	TIM_SetCompare2:
 1533              	.LFB145:
 1534              		.loc 1 1082 0
 1535              		.cfi_startproc
 1536              		@ args = 0, pretend = 0, frame = 0
 1537              		@ frame_needed = 0, uses_anonymous_args = 0
 1538              		@ link register save eliminated.
 1539              	.LVL128:
ARM GAS  /var/folders/m4/4md61f0s1_g0rzfghffqnxvr0000gn/T//ccSRVwbo.s 			page 28


 1540              		.loc 1 1087 0
 1541 0000 8163     		str	r1, [r0, #56]
 1542 0002 7047     		bx	lr
 1543              		.cfi_endproc
 1544              	.LFE145:
 1545              		.size	TIM_SetCompare2, .-TIM_SetCompare2
 1546              		.section	.text.TIM_SetCompare3,"ax",%progbits
 1547              		.align	2
 1548              		.p2align 4,,15
 1549              		.global	TIM_SetCompare3
 1550              		.thumb
 1551              		.thumb_func
 1552              		.type	TIM_SetCompare3, %function
 1553              	TIM_SetCompare3:
 1554              	.LFB146:
 1555              		.loc 1 1097 0
 1556              		.cfi_startproc
 1557              		@ args = 0, pretend = 0, frame = 0
 1558              		@ frame_needed = 0, uses_anonymous_args = 0
 1559              		@ link register save eliminated.
 1560              	.LVL129:
 1561              		.loc 1 1102 0
 1562 0000 C163     		str	r1, [r0, #60]
 1563 0002 7047     		bx	lr
 1564              		.cfi_endproc
 1565              	.LFE146:
 1566              		.size	TIM_SetCompare3, .-TIM_SetCompare3
 1567              		.section	.text.TIM_SetCompare4,"ax",%progbits
 1568              		.align	2
 1569              		.p2align 4,,15
 1570              		.global	TIM_SetCompare4
 1571              		.thumb
 1572              		.thumb_func
 1573              		.type	TIM_SetCompare4, %function
 1574              	TIM_SetCompare4:
 1575              	.LFB147:
 1576              		.loc 1 1112 0
 1577              		.cfi_startproc
 1578              		@ args = 0, pretend = 0, frame = 0
 1579              		@ frame_needed = 0, uses_anonymous_args = 0
 1580              		@ link register save eliminated.
 1581              	.LVL130:
 1582              		.loc 1 1117 0
 1583 0000 0164     		str	r1, [r0, #64]
 1584 0002 7047     		bx	lr
 1585              		.cfi_endproc
 1586              	.LFE147:
 1587              		.size	TIM_SetCompare4, .-TIM_SetCompare4
 1588              		.section	.text.TIM_ForcedOC1Config,"ax",%progbits
 1589              		.align	2
 1590              		.p2align 4,,15
 1591              		.global	TIM_ForcedOC1Config
 1592              		.thumb
 1593              		.thumb_func
 1594              		.type	TIM_ForcedOC1Config, %function
 1595              	TIM_ForcedOC1Config:
 1596              	.LFB148:
ARM GAS  /var/folders/m4/4md61f0s1_g0rzfghffqnxvr0000gn/T//ccSRVwbo.s 			page 29


 1597              		.loc 1 1130 0
 1598              		.cfi_startproc
 1599              		@ args = 0, pretend = 0, frame = 0
 1600              		@ frame_needed = 0, uses_anonymous_args = 0
 1601              		@ link register save eliminated.
 1602              	.LVL131:
 1603              		.loc 1 1136 0
 1604 0000 8269     		ldr	r2, [r0, #24]
 1605              	.LVL132:
 1606              		.loc 1 1139 0
 1607 0002 4FF68F73 		movw	r3, #65423
 1608 0006 1340     		ands	r3, r3, r2
 1609              	.LVL133:
 1610              		.loc 1 1145 0
 1611 0008 1943     		orrs	r1, r1, r3
 1612              	.LVL134:
 1613 000a 8161     		str	r1, [r0, #24]
 1614 000c 7047     		bx	lr
 1615              		.cfi_endproc
 1616              	.LFE148:
 1617              		.size	TIM_ForcedOC1Config, .-TIM_ForcedOC1Config
 1618 000e 00BF     		.section	.text.TIM_ForcedOC2Config,"ax",%progbits
 1619              		.align	2
 1620              		.p2align 4,,15
 1621              		.global	TIM_ForcedOC2Config
 1622              		.thumb
 1623              		.thumb_func
 1624              		.type	TIM_ForcedOC2Config, %function
 1625              	TIM_ForcedOC2Config:
 1626              	.LFB149:
 1627              		.loc 1 1159 0
 1628              		.cfi_startproc
 1629              		@ args = 0, pretend = 0, frame = 0
 1630              		@ frame_needed = 0, uses_anonymous_args = 0
 1631              		@ link register save eliminated.
 1632              	.LVL135:
 1633              		.loc 1 1165 0
 1634 0000 8269     		ldr	r2, [r0, #24]
 1635              	.LVL136:
 1636              		.loc 1 1168 0
 1637 0002 48F6FF73 		movw	r3, #36863
 1638 0006 1340     		ands	r3, r3, r2
 1639              	.LVL137:
 1640              		.loc 1 1174 0
 1641 0008 43EA0121 		orr	r1, r3, r1, lsl #8
 1642              	.LVL138:
 1643 000c 89B2     		uxth	r1, r1
 1644 000e 8161     		str	r1, [r0, #24]
 1645 0010 7047     		bx	lr
 1646              		.cfi_endproc
 1647              	.LFE149:
 1648              		.size	TIM_ForcedOC2Config, .-TIM_ForcedOC2Config
 1649 0012 00BF     		.section	.text.TIM_ForcedOC3Config,"ax",%progbits
 1650              		.align	2
 1651              		.p2align 4,,15
 1652              		.global	TIM_ForcedOC3Config
 1653              		.thumb
ARM GAS  /var/folders/m4/4md61f0s1_g0rzfghffqnxvr0000gn/T//ccSRVwbo.s 			page 30


 1654              		.thumb_func
 1655              		.type	TIM_ForcedOC3Config, %function
 1656              	TIM_ForcedOC3Config:
 1657              	.LFB150:
 1658              		.loc 1 1187 0
 1659              		.cfi_startproc
 1660              		@ args = 0, pretend = 0, frame = 0
 1661              		@ frame_needed = 0, uses_anonymous_args = 0
 1662              		@ link register save eliminated.
 1663              	.LVL139:
 1664              		.loc 1 1194 0
 1665 0000 C269     		ldr	r2, [r0, #28]
 1666              	.LVL140:
 1667              		.loc 1 1197 0
 1668 0002 4FF68F73 		movw	r3, #65423
 1669 0006 1340     		ands	r3, r3, r2
 1670              	.LVL141:
 1671              		.loc 1 1203 0
 1672 0008 1943     		orrs	r1, r1, r3
 1673              	.LVL142:
 1674 000a C161     		str	r1, [r0, #28]
 1675 000c 7047     		bx	lr
 1676              		.cfi_endproc
 1677              	.LFE150:
 1678              		.size	TIM_ForcedOC3Config, .-TIM_ForcedOC3Config
 1679 000e 00BF     		.section	.text.TIM_ForcedOC4Config,"ax",%progbits
 1680              		.align	2
 1681              		.p2align 4,,15
 1682              		.global	TIM_ForcedOC4Config
 1683              		.thumb
 1684              		.thumb_func
 1685              		.type	TIM_ForcedOC4Config, %function
 1686              	TIM_ForcedOC4Config:
 1687              	.LFB151:
 1688              		.loc 1 1216 0
 1689              		.cfi_startproc
 1690              		@ args = 0, pretend = 0, frame = 0
 1691              		@ frame_needed = 0, uses_anonymous_args = 0
 1692              		@ link register save eliminated.
 1693              	.LVL143:
 1694              		.loc 1 1222 0
 1695 0000 C269     		ldr	r2, [r0, #28]
 1696              	.LVL144:
 1697              		.loc 1 1225 0
 1698 0002 48F6FF73 		movw	r3, #36863
 1699 0006 1340     		ands	r3, r3, r2
 1700              	.LVL145:
 1701              		.loc 1 1231 0
 1702 0008 43EA0121 		orr	r1, r3, r1, lsl #8
 1703              	.LVL146:
 1704 000c 89B2     		uxth	r1, r1
 1705 000e C161     		str	r1, [r0, #28]
 1706 0010 7047     		bx	lr
 1707              		.cfi_endproc
 1708              	.LFE151:
 1709              		.size	TIM_ForcedOC4Config, .-TIM_ForcedOC4Config
 1710 0012 00BF     		.section	.text.TIM_OC1PreloadConfig,"ax",%progbits
ARM GAS  /var/folders/m4/4md61f0s1_g0rzfghffqnxvr0000gn/T//ccSRVwbo.s 			page 31


 1711              		.align	2
 1712              		.p2align 4,,15
 1713              		.global	TIM_OC1PreloadConfig
 1714              		.thumb
 1715              		.thumb_func
 1716              		.type	TIM_OC1PreloadConfig, %function
 1717              	TIM_OC1PreloadConfig:
 1718              	.LFB152:
 1719              		.loc 1 1244 0
 1720              		.cfi_startproc
 1721              		@ args = 0, pretend = 0, frame = 0
 1722              		@ frame_needed = 0, uses_anonymous_args = 0
 1723              		@ link register save eliminated.
 1724              	.LVL147:
 1725              		.loc 1 1251 0
 1726 0000 8269     		ldr	r2, [r0, #24]
 1727              	.LVL148:
 1728              		.loc 1 1254 0
 1729 0002 4FF6F773 		movw	r3, #65527
 1730 0006 1340     		ands	r3, r3, r2
 1731              	.LVL149:
 1732              		.loc 1 1260 0
 1733 0008 1943     		orrs	r1, r1, r3
 1734              	.LVL150:
 1735 000a 8161     		str	r1, [r0, #24]
 1736 000c 7047     		bx	lr
 1737              		.cfi_endproc
 1738              	.LFE152:
 1739              		.size	TIM_OC1PreloadConfig, .-TIM_OC1PreloadConfig
 1740 000e 00BF     		.section	.text.TIM_OC2PreloadConfig,"ax",%progbits
 1741              		.align	2
 1742              		.p2align 4,,15
 1743              		.global	TIM_OC2PreloadConfig
 1744              		.thumb
 1745              		.thumb_func
 1746              		.type	TIM_OC2PreloadConfig, %function
 1747              	TIM_OC2PreloadConfig:
 1748              	.LFB153:
 1749              		.loc 1 1274 0
 1750              		.cfi_startproc
 1751              		@ args = 0, pretend = 0, frame = 0
 1752              		@ frame_needed = 0, uses_anonymous_args = 0
 1753              		@ link register save eliminated.
 1754              	.LVL151:
 1755              		.loc 1 1281 0
 1756 0000 8269     		ldr	r2, [r0, #24]
 1757              	.LVL152:
 1758              		.loc 1 1284 0
 1759 0002 4FF2FF73 		movw	r3, #63487
 1760 0006 1340     		ands	r3, r3, r2
 1761              	.LVL153:
 1762              		.loc 1 1290 0
 1763 0008 43EA0121 		orr	r1, r3, r1, lsl #8
 1764              	.LVL154:
 1765 000c 89B2     		uxth	r1, r1
 1766 000e 8161     		str	r1, [r0, #24]
 1767 0010 7047     		bx	lr
ARM GAS  /var/folders/m4/4md61f0s1_g0rzfghffqnxvr0000gn/T//ccSRVwbo.s 			page 32


 1768              		.cfi_endproc
 1769              	.LFE153:
 1770              		.size	TIM_OC2PreloadConfig, .-TIM_OC2PreloadConfig
 1771 0012 00BF     		.section	.text.TIM_OC3PreloadConfig,"ax",%progbits
 1772              		.align	2
 1773              		.p2align 4,,15
 1774              		.global	TIM_OC3PreloadConfig
 1775              		.thumb
 1776              		.thumb_func
 1777              		.type	TIM_OC3PreloadConfig, %function
 1778              	TIM_OC3PreloadConfig:
 1779              	.LFB154:
 1780              		.loc 1 1303 0
 1781              		.cfi_startproc
 1782              		@ args = 0, pretend = 0, frame = 0
 1783              		@ frame_needed = 0, uses_anonymous_args = 0
 1784              		@ link register save eliminated.
 1785              	.LVL155:
 1786              		.loc 1 1310 0
 1787 0000 C269     		ldr	r2, [r0, #28]
 1788              	.LVL156:
 1789              		.loc 1 1313 0
 1790 0002 4FF6F773 		movw	r3, #65527
 1791 0006 1340     		ands	r3, r3, r2
 1792              	.LVL157:
 1793              		.loc 1 1319 0
 1794 0008 1943     		orrs	r1, r1, r3
 1795              	.LVL158:
 1796 000a C161     		str	r1, [r0, #28]
 1797 000c 7047     		bx	lr
 1798              		.cfi_endproc
 1799              	.LFE154:
 1800              		.size	TIM_OC3PreloadConfig, .-TIM_OC3PreloadConfig
 1801 000e 00BF     		.section	.text.TIM_OC4PreloadConfig,"ax",%progbits
 1802              		.align	2
 1803              		.p2align 4,,15
 1804              		.global	TIM_OC4PreloadConfig
 1805              		.thumb
 1806              		.thumb_func
 1807              		.type	TIM_OC4PreloadConfig, %function
 1808              	TIM_OC4PreloadConfig:
 1809              	.LFB155:
 1810              		.loc 1 1332 0
 1811              		.cfi_startproc
 1812              		@ args = 0, pretend = 0, frame = 0
 1813              		@ frame_needed = 0, uses_anonymous_args = 0
 1814              		@ link register save eliminated.
 1815              	.LVL159:
 1816              		.loc 1 1339 0
 1817 0000 C269     		ldr	r2, [r0, #28]
 1818              	.LVL160:
 1819              		.loc 1 1342 0
 1820 0002 4FF2FF73 		movw	r3, #63487
 1821 0006 1340     		ands	r3, r3, r2
 1822              	.LVL161:
 1823              		.loc 1 1348 0
 1824 0008 43EA0121 		orr	r1, r3, r1, lsl #8
ARM GAS  /var/folders/m4/4md61f0s1_g0rzfghffqnxvr0000gn/T//ccSRVwbo.s 			page 33


 1825              	.LVL162:
 1826 000c 89B2     		uxth	r1, r1
 1827 000e C161     		str	r1, [r0, #28]
 1828 0010 7047     		bx	lr
 1829              		.cfi_endproc
 1830              	.LFE155:
 1831              		.size	TIM_OC4PreloadConfig, .-TIM_OC4PreloadConfig
 1832 0012 00BF     		.section	.text.TIM_OC1FastConfig,"ax",%progbits
 1833              		.align	2
 1834              		.p2align 4,,15
 1835              		.global	TIM_OC1FastConfig
 1836              		.thumb
 1837              		.thumb_func
 1838              		.type	TIM_OC1FastConfig, %function
 1839              	TIM_OC1FastConfig:
 1840              	.LFB156:
 1841              		.loc 1 1361 0
 1842              		.cfi_startproc
 1843              		@ args = 0, pretend = 0, frame = 0
 1844              		@ frame_needed = 0, uses_anonymous_args = 0
 1845              		@ link register save eliminated.
 1846              	.LVL163:
 1847              		.loc 1 1369 0
 1848 0000 8269     		ldr	r2, [r0, #24]
 1849              	.LVL164:
 1850              		.loc 1 1372 0
 1851 0002 4FF6FB73 		movw	r3, #65531
 1852 0006 1340     		ands	r3, r3, r2
 1853              	.LVL165:
 1854              		.loc 1 1378 0
 1855 0008 1943     		orrs	r1, r1, r3
 1856              	.LVL166:
 1857 000a 8161     		str	r1, [r0, #24]
 1858 000c 7047     		bx	lr
 1859              		.cfi_endproc
 1860              	.LFE156:
 1861              		.size	TIM_OC1FastConfig, .-TIM_OC1FastConfig
 1862 000e 00BF     		.section	.text.TIM_OC2FastConfig,"ax",%progbits
 1863              		.align	2
 1864              		.p2align 4,,15
 1865              		.global	TIM_OC2FastConfig
 1866              		.thumb
 1867              		.thumb_func
 1868              		.type	TIM_OC2FastConfig, %function
 1869              	TIM_OC2FastConfig:
 1870              	.LFB157:
 1871              		.loc 1 1392 0
 1872              		.cfi_startproc
 1873              		@ args = 0, pretend = 0, frame = 0
 1874              		@ frame_needed = 0, uses_anonymous_args = 0
 1875              		@ link register save eliminated.
 1876              	.LVL167:
 1877              		.loc 1 1400 0
 1878 0000 8269     		ldr	r2, [r0, #24]
 1879              	.LVL168:
 1880              		.loc 1 1403 0
 1881 0002 4FF6FF33 		movw	r3, #64511
ARM GAS  /var/folders/m4/4md61f0s1_g0rzfghffqnxvr0000gn/T//ccSRVwbo.s 			page 34


 1882 0006 1340     		ands	r3, r3, r2
 1883              	.LVL169:
 1884              		.loc 1 1409 0
 1885 0008 43EA0121 		orr	r1, r3, r1, lsl #8
 1886              	.LVL170:
 1887 000c 89B2     		uxth	r1, r1
 1888 000e 8161     		str	r1, [r0, #24]
 1889 0010 7047     		bx	lr
 1890              		.cfi_endproc
 1891              	.LFE157:
 1892              		.size	TIM_OC2FastConfig, .-TIM_OC2FastConfig
 1893 0012 00BF     		.section	.text.TIM_OC3FastConfig,"ax",%progbits
 1894              		.align	2
 1895              		.p2align 4,,15
 1896              		.global	TIM_OC3FastConfig
 1897              		.thumb
 1898              		.thumb_func
 1899              		.type	TIM_OC3FastConfig, %function
 1900              	TIM_OC3FastConfig:
 1901              	.LFB158:
 1902              		.loc 1 1422 0
 1903              		.cfi_startproc
 1904              		@ args = 0, pretend = 0, frame = 0
 1905              		@ frame_needed = 0, uses_anonymous_args = 0
 1906              		@ link register save eliminated.
 1907              	.LVL171:
 1908              		.loc 1 1430 0
 1909 0000 C269     		ldr	r2, [r0, #28]
 1910              	.LVL172:
 1911              		.loc 1 1433 0
 1912 0002 4FF6FB73 		movw	r3, #65531
 1913 0006 1340     		ands	r3, r3, r2
 1914              	.LVL173:
 1915              		.loc 1 1439 0
 1916 0008 1943     		orrs	r1, r1, r3
 1917              	.LVL174:
 1918 000a C161     		str	r1, [r0, #28]
 1919 000c 7047     		bx	lr
 1920              		.cfi_endproc
 1921              	.LFE158:
 1922              		.size	TIM_OC3FastConfig, .-TIM_OC3FastConfig
 1923 000e 00BF     		.section	.text.TIM_OC4FastConfig,"ax",%progbits
 1924              		.align	2
 1925              		.p2align 4,,15
 1926              		.global	TIM_OC4FastConfig
 1927              		.thumb
 1928              		.thumb_func
 1929              		.type	TIM_OC4FastConfig, %function
 1930              	TIM_OC4FastConfig:
 1931              	.LFB159:
 1932              		.loc 1 1452 0
 1933              		.cfi_startproc
 1934              		@ args = 0, pretend = 0, frame = 0
 1935              		@ frame_needed = 0, uses_anonymous_args = 0
 1936              		@ link register save eliminated.
 1937              	.LVL175:
 1938              		.loc 1 1460 0
ARM GAS  /var/folders/m4/4md61f0s1_g0rzfghffqnxvr0000gn/T//ccSRVwbo.s 			page 35


 1939 0000 C269     		ldr	r2, [r0, #28]
 1940              	.LVL176:
 1941              		.loc 1 1463 0
 1942 0002 4FF6FF33 		movw	r3, #64511
 1943 0006 1340     		ands	r3, r3, r2
 1944              	.LVL177:
 1945              		.loc 1 1469 0
 1946 0008 43EA0121 		orr	r1, r3, r1, lsl #8
 1947              	.LVL178:
 1948 000c 89B2     		uxth	r1, r1
 1949 000e C161     		str	r1, [r0, #28]
 1950 0010 7047     		bx	lr
 1951              		.cfi_endproc
 1952              	.LFE159:
 1953              		.size	TIM_OC4FastConfig, .-TIM_OC4FastConfig
 1954 0012 00BF     		.section	.text.TIM_ClearOC1Ref,"ax",%progbits
 1955              		.align	2
 1956              		.p2align 4,,15
 1957              		.global	TIM_ClearOC1Ref
 1958              		.thumb
 1959              		.thumb_func
 1960              		.type	TIM_ClearOC1Ref, %function
 1961              	TIM_ClearOC1Ref:
 1962              	.LFB160:
 1963              		.loc 1 1482 0
 1964              		.cfi_startproc
 1965              		@ args = 0, pretend = 0, frame = 0
 1966              		@ frame_needed = 0, uses_anonymous_args = 0
 1967              		@ link register save eliminated.
 1968              	.LVL179:
 1969              		.loc 1 1489 0
 1970 0000 8269     		ldr	r2, [r0, #24]
 1971              	.LVL180:
 1972              		.loc 1 1492 0
 1973 0002 4FF67F73 		movw	r3, #65407
 1974 0006 1340     		ands	r3, r3, r2
 1975              	.LVL181:
 1976              		.loc 1 1498 0
 1977 0008 1943     		orrs	r1, r1, r3
 1978              	.LVL182:
 1979 000a 8161     		str	r1, [r0, #24]
 1980 000c 7047     		bx	lr
 1981              		.cfi_endproc
 1982              	.LFE160:
 1983              		.size	TIM_ClearOC1Ref, .-TIM_ClearOC1Ref
 1984 000e 00BF     		.section	.text.TIM_ClearOC2Ref,"ax",%progbits
 1985              		.align	2
 1986              		.p2align 4,,15
 1987              		.global	TIM_ClearOC2Ref
 1988              		.thumb
 1989              		.thumb_func
 1990              		.type	TIM_ClearOC2Ref, %function
 1991              	TIM_ClearOC2Ref:
 1992              	.LFB161:
 1993              		.loc 1 1512 0
 1994              		.cfi_startproc
 1995              		@ args = 0, pretend = 0, frame = 0
ARM GAS  /var/folders/m4/4md61f0s1_g0rzfghffqnxvr0000gn/T//ccSRVwbo.s 			page 36


 1996              		@ frame_needed = 0, uses_anonymous_args = 0
 1997              		@ link register save eliminated.
 1998              	.LVL183:
 1999              		.loc 1 1519 0
 2000 0000 8369     		ldr	r3, [r0, #24]
 2001              	.LVL184:
 2002              		.loc 1 1522 0
 2003 0002 C3F30E03 		ubfx	r3, r3, #0, #15
 2004              	.LVL185:
 2005              		.loc 1 1528 0
 2006 0006 43EA0121 		orr	r1, r3, r1, lsl #8
 2007              	.LVL186:
 2008 000a 89B2     		uxth	r1, r1
 2009 000c 8161     		str	r1, [r0, #24]
 2010 000e 7047     		bx	lr
 2011              		.cfi_endproc
 2012              	.LFE161:
 2013              		.size	TIM_ClearOC2Ref, .-TIM_ClearOC2Ref
 2014              		.section	.text.TIM_ClearOC3Ref,"ax",%progbits
 2015              		.align	2
 2016              		.p2align 4,,15
 2017              		.global	TIM_ClearOC3Ref
 2018              		.thumb
 2019              		.thumb_func
 2020              		.type	TIM_ClearOC3Ref, %function
 2021              	TIM_ClearOC3Ref:
 2022              	.LFB162:
 2023              		.loc 1 1541 0
 2024              		.cfi_startproc
 2025              		@ args = 0, pretend = 0, frame = 0
 2026              		@ frame_needed = 0, uses_anonymous_args = 0
 2027              		@ link register save eliminated.
 2028              	.LVL187:
 2029              		.loc 1 1548 0
 2030 0000 C269     		ldr	r2, [r0, #28]
 2031              	.LVL188:
 2032              		.loc 1 1551 0
 2033 0002 4FF67F73 		movw	r3, #65407
 2034 0006 1340     		ands	r3, r3, r2
 2035              	.LVL189:
 2036              		.loc 1 1557 0
 2037 0008 1943     		orrs	r1, r1, r3
 2038              	.LVL190:
 2039 000a C161     		str	r1, [r0, #28]
 2040 000c 7047     		bx	lr
 2041              		.cfi_endproc
 2042              	.LFE162:
 2043              		.size	TIM_ClearOC3Ref, .-TIM_ClearOC3Ref
 2044 000e 00BF     		.section	.text.TIM_ClearOC4Ref,"ax",%progbits
 2045              		.align	2
 2046              		.p2align 4,,15
 2047              		.global	TIM_ClearOC4Ref
 2048              		.thumb
 2049              		.thumb_func
 2050              		.type	TIM_ClearOC4Ref, %function
 2051              	TIM_ClearOC4Ref:
 2052              	.LFB163:
ARM GAS  /var/folders/m4/4md61f0s1_g0rzfghffqnxvr0000gn/T//ccSRVwbo.s 			page 37


 2053              		.loc 1 1570 0
 2054              		.cfi_startproc
 2055              		@ args = 0, pretend = 0, frame = 0
 2056              		@ frame_needed = 0, uses_anonymous_args = 0
 2057              		@ link register save eliminated.
 2058              	.LVL191:
 2059              		.loc 1 1577 0
 2060 0000 C369     		ldr	r3, [r0, #28]
 2061              	.LVL192:
 2062              		.loc 1 1580 0
 2063 0002 C3F30E03 		ubfx	r3, r3, #0, #15
 2064              	.LVL193:
 2065              		.loc 1 1586 0
 2066 0006 43EA0121 		orr	r1, r3, r1, lsl #8
 2067              	.LVL194:
 2068 000a 89B2     		uxth	r1, r1
 2069 000c C161     		str	r1, [r0, #28]
 2070 000e 7047     		bx	lr
 2071              		.cfi_endproc
 2072              	.LFE163:
 2073              		.size	TIM_ClearOC4Ref, .-TIM_ClearOC4Ref
 2074              		.section	.text.TIM_OC1PolarityConfig,"ax",%progbits
 2075              		.align	2
 2076              		.p2align 4,,15
 2077              		.global	TIM_OC1PolarityConfig
 2078              		.thumb
 2079              		.thumb_func
 2080              		.type	TIM_OC1PolarityConfig, %function
 2081              	TIM_OC1PolarityConfig:
 2082              	.LFB164:
 2083              		.loc 1 1599 0
 2084              		.cfi_startproc
 2085              		@ args = 0, pretend = 0, frame = 0
 2086              		@ frame_needed = 0, uses_anonymous_args = 0
 2087              		@ link register save eliminated.
 2088              	.LVL195:
 2089              		.loc 1 1606 0
 2090 0000 026A     		ldr	r2, [r0, #32]
 2091              	.LVL196:
 2092              		.loc 1 1609 0
 2093 0002 4FF6FD73 		movw	r3, #65533
 2094 0006 1340     		ands	r3, r3, r2
 2095              	.LVL197:
 2096              		.loc 1 1613 0
 2097 0008 1943     		orrs	r1, r1, r3
 2098              	.LVL198:
 2099 000a 0162     		str	r1, [r0, #32]
 2100 000c 7047     		bx	lr
 2101              		.cfi_endproc
 2102              	.LFE164:
 2103              		.size	TIM_OC1PolarityConfig, .-TIM_OC1PolarityConfig
 2104 000e 00BF     		.section	.text.TIM_OC1NPolarityConfig,"ax",%progbits
 2105              		.align	2
 2106              		.p2align 4,,15
 2107              		.global	TIM_OC1NPolarityConfig
 2108              		.thumb
 2109              		.thumb_func
ARM GAS  /var/folders/m4/4md61f0s1_g0rzfghffqnxvr0000gn/T//ccSRVwbo.s 			page 38


 2110              		.type	TIM_OC1NPolarityConfig, %function
 2111              	TIM_OC1NPolarityConfig:
 2112              	.LFB165:
 2113              		.loc 1 1626 0
 2114              		.cfi_startproc
 2115              		@ args = 0, pretend = 0, frame = 0
 2116              		@ frame_needed = 0, uses_anonymous_args = 0
 2117              		@ link register save eliminated.
 2118              	.LVL199:
 2119              		.loc 1 1632 0
 2120 0000 026A     		ldr	r2, [r0, #32]
 2121              	.LVL200:
 2122              		.loc 1 1635 0
 2123 0002 4FF6F773 		movw	r3, #65527
 2124 0006 1340     		ands	r3, r3, r2
 2125              	.LVL201:
 2126              		.loc 1 1639 0
 2127 0008 1943     		orrs	r1, r1, r3
 2128              	.LVL202:
 2129 000a 0162     		str	r1, [r0, #32]
 2130 000c 7047     		bx	lr
 2131              		.cfi_endproc
 2132              	.LFE165:
 2133              		.size	TIM_OC1NPolarityConfig, .-TIM_OC1NPolarityConfig
 2134 000e 00BF     		.section	.text.TIM_OC2PolarityConfig,"ax",%progbits
 2135              		.align	2
 2136              		.p2align 4,,15
 2137              		.global	TIM_OC2PolarityConfig
 2138              		.thumb
 2139              		.thumb_func
 2140              		.type	TIM_OC2PolarityConfig, %function
 2141              	TIM_OC2PolarityConfig:
 2142              	.LFB166:
 2143              		.loc 1 1653 0
 2144              		.cfi_startproc
 2145              		@ args = 0, pretend = 0, frame = 0
 2146              		@ frame_needed = 0, uses_anonymous_args = 0
 2147              		@ link register save eliminated.
 2148              	.LVL203:
 2149              		.loc 1 1660 0
 2150 0000 026A     		ldr	r2, [r0, #32]
 2151              	.LVL204:
 2152              		.loc 1 1663 0
 2153 0002 4FF6DF73 		movw	r3, #65503
 2154 0006 1340     		ands	r3, r3, r2
 2155              	.LVL205:
 2156              		.loc 1 1667 0
 2157 0008 43EA0111 		orr	r1, r3, r1, lsl #4
 2158              	.LVL206:
 2159 000c 89B2     		uxth	r1, r1
 2160 000e 0162     		str	r1, [r0, #32]
 2161 0010 7047     		bx	lr
 2162              		.cfi_endproc
 2163              	.LFE166:
 2164              		.size	TIM_OC2PolarityConfig, .-TIM_OC2PolarityConfig
 2165 0012 00BF     		.section	.text.TIM_OC2NPolarityConfig,"ax",%progbits
 2166              		.align	2
ARM GAS  /var/folders/m4/4md61f0s1_g0rzfghffqnxvr0000gn/T//ccSRVwbo.s 			page 39


 2167              		.p2align 4,,15
 2168              		.global	TIM_OC2NPolarityConfig
 2169              		.thumb
 2170              		.thumb_func
 2171              		.type	TIM_OC2NPolarityConfig, %function
 2172              	TIM_OC2NPolarityConfig:
 2173              	.LFB167:
 2174              		.loc 1 1680 0
 2175              		.cfi_startproc
 2176              		@ args = 0, pretend = 0, frame = 0
 2177              		@ frame_needed = 0, uses_anonymous_args = 0
 2178              		@ link register save eliminated.
 2179              	.LVL207:
 2180              		.loc 1 1687 0
 2181 0000 026A     		ldr	r2, [r0, #32]
 2182              	.LVL208:
 2183              		.loc 1 1690 0
 2184 0002 4FF67F73 		movw	r3, #65407
 2185 0006 1340     		ands	r3, r3, r2
 2186              	.LVL209:
 2187              		.loc 1 1694 0
 2188 0008 43EA0111 		orr	r1, r3, r1, lsl #4
 2189              	.LVL210:
 2190 000c 89B2     		uxth	r1, r1
 2191 000e 0162     		str	r1, [r0, #32]
 2192 0010 7047     		bx	lr
 2193              		.cfi_endproc
 2194              	.LFE167:
 2195              		.size	TIM_OC2NPolarityConfig, .-TIM_OC2NPolarityConfig
 2196 0012 00BF     		.section	.text.TIM_OC3PolarityConfig,"ax",%progbits
 2197              		.align	2
 2198              		.p2align 4,,15
 2199              		.global	TIM_OC3PolarityConfig
 2200              		.thumb
 2201              		.thumb_func
 2202              		.type	TIM_OC3PolarityConfig, %function
 2203              	TIM_OC3PolarityConfig:
 2204              	.LFB168:
 2205              		.loc 1 1707 0
 2206              		.cfi_startproc
 2207              		@ args = 0, pretend = 0, frame = 0
 2208              		@ frame_needed = 0, uses_anonymous_args = 0
 2209              		@ link register save eliminated.
 2210              	.LVL211:
 2211              		.loc 1 1714 0
 2212 0000 026A     		ldr	r2, [r0, #32]
 2213              	.LVL212:
 2214              		.loc 1 1717 0
 2215 0002 4FF6FF53 		movw	r3, #65023
 2216 0006 1340     		ands	r3, r3, r2
 2217              	.LVL213:
 2218              		.loc 1 1721 0
 2219 0008 43EA0121 		orr	r1, r3, r1, lsl #8
 2220              	.LVL214:
 2221 000c 89B2     		uxth	r1, r1
 2222 000e 0162     		str	r1, [r0, #32]
 2223 0010 7047     		bx	lr
ARM GAS  /var/folders/m4/4md61f0s1_g0rzfghffqnxvr0000gn/T//ccSRVwbo.s 			page 40


 2224              		.cfi_endproc
 2225              	.LFE168:
 2226              		.size	TIM_OC3PolarityConfig, .-TIM_OC3PolarityConfig
 2227 0012 00BF     		.section	.text.TIM_OC3NPolarityConfig,"ax",%progbits
 2228              		.align	2
 2229              		.p2align 4,,15
 2230              		.global	TIM_OC3NPolarityConfig
 2231              		.thumb
 2232              		.thumb_func
 2233              		.type	TIM_OC3NPolarityConfig, %function
 2234              	TIM_OC3NPolarityConfig:
 2235              	.LFB169:
 2236              		.loc 1 1734 0
 2237              		.cfi_startproc
 2238              		@ args = 0, pretend = 0, frame = 0
 2239              		@ frame_needed = 0, uses_anonymous_args = 0
 2240              		@ link register save eliminated.
 2241              	.LVL215:
 2242              		.loc 1 1741 0
 2243 0000 026A     		ldr	r2, [r0, #32]
 2244              	.LVL216:
 2245              		.loc 1 1744 0
 2246 0002 4FF2FF73 		movw	r3, #63487
 2247 0006 1340     		ands	r3, r3, r2
 2248              	.LVL217:
 2249              		.loc 1 1748 0
 2250 0008 43EA0121 		orr	r1, r3, r1, lsl #8
 2251              	.LVL218:
 2252 000c 89B2     		uxth	r1, r1
 2253 000e 0162     		str	r1, [r0, #32]
 2254 0010 7047     		bx	lr
 2255              		.cfi_endproc
 2256              	.LFE169:
 2257              		.size	TIM_OC3NPolarityConfig, .-TIM_OC3NPolarityConfig
 2258 0012 00BF     		.section	.text.TIM_OC4PolarityConfig,"ax",%progbits
 2259              		.align	2
 2260              		.p2align 4,,15
 2261              		.global	TIM_OC4PolarityConfig
 2262              		.thumb
 2263              		.thumb_func
 2264              		.type	TIM_OC4PolarityConfig, %function
 2265              	TIM_OC4PolarityConfig:
 2266              	.LFB170:
 2267              		.loc 1 1761 0
 2268              		.cfi_startproc
 2269              		@ args = 0, pretend = 0, frame = 0
 2270              		@ frame_needed = 0, uses_anonymous_args = 0
 2271              		@ link register save eliminated.
 2272              	.LVL219:
 2273              		.loc 1 1768 0
 2274 0000 026A     		ldr	r2, [r0, #32]
 2275              	.LVL220:
 2276              		.loc 1 1771 0
 2277 0002 4DF6FF73 		movw	r3, #57343
 2278 0006 1340     		ands	r3, r3, r2
 2279              	.LVL221:
 2280              		.loc 1 1775 0
ARM GAS  /var/folders/m4/4md61f0s1_g0rzfghffqnxvr0000gn/T//ccSRVwbo.s 			page 41


 2281 0008 43EA0131 		orr	r1, r3, r1, lsl #12
 2282              	.LVL222:
 2283 000c 89B2     		uxth	r1, r1
 2284 000e 0162     		str	r1, [r0, #32]
 2285 0010 7047     		bx	lr
 2286              		.cfi_endproc
 2287              	.LFE170:
 2288              		.size	TIM_OC4PolarityConfig, .-TIM_OC4PolarityConfig
 2289 0012 00BF     		.section	.text.TIM_CCxCmd,"ax",%progbits
 2290              		.align	2
 2291              		.p2align 4,,15
 2292              		.global	TIM_CCxCmd
 2293              		.thumb
 2294              		.thumb_func
 2295              		.type	TIM_CCxCmd, %function
 2296              	TIM_CCxCmd:
 2297              	.LFB171:
 2298              		.loc 1 1792 0
 2299              		.cfi_startproc
 2300              		@ args = 0, pretend = 0, frame = 0
 2301              		@ frame_needed = 0, uses_anonymous_args = 0
 2302              		@ link register save eliminated.
 2303              	.LVL223:
 2304              		.loc 1 1803 0
 2305 0000 0123     		movs	r3, #1
 2306 0002 8B40     		lsls	r3, r3, r1
 2307              		.loc 1 1792 0
 2308 0004 10B4     		push	{r4}
 2309              		.cfi_def_cfa_offset 4
 2310              		.cfi_offset 4, -4
 2311              		.loc 1 1803 0
 2312 0006 DB43     		mvns	r3, r3
 2313 0008 046A     		ldr	r4, [r0, #32]
 2314 000a 9BB2     		uxth	r3, r3
 2315 000c 2340     		ands	r3, r3, r4
 2316 000e 0362     		str	r3, [r0, #32]
 2317              		.loc 1 1806 0
 2318 0010 8A40     		lsls	r2, r2, r1
 2319              	.LVL224:
 2320 0012 016A     		ldr	r1, [r0, #32]
 2321              	.LVL225:
 2322              		.loc 1 1807 0
 2323 0014 5DF8044B 		ldr	r4, [sp], #4
 2324              		.cfi_restore 4
 2325              		.cfi_def_cfa_offset 0
 2326              		.loc 1 1806 0
 2327 0018 92B2     		uxth	r2, r2
 2328 001a 0A43     		orrs	r2, r2, r1
 2329 001c 0262     		str	r2, [r0, #32]
 2330              		.loc 1 1807 0
 2331 001e 7047     		bx	lr
 2332              		.cfi_endproc
 2333              	.LFE171:
 2334              		.size	TIM_CCxCmd, .-TIM_CCxCmd
 2335              		.section	.text.TIM_CCxNCmd,"ax",%progbits
 2336              		.align	2
 2337              		.p2align 4,,15
ARM GAS  /var/folders/m4/4md61f0s1_g0rzfghffqnxvr0000gn/T//ccSRVwbo.s 			page 42


 2338              		.global	TIM_CCxNCmd
 2339              		.thumb
 2340              		.thumb_func
 2341              		.type	TIM_CCxNCmd, %function
 2342              	TIM_CCxNCmd:
 2343              	.LFB172:
 2344              		.loc 1 1822 0
 2345              		.cfi_startproc
 2346              		@ args = 0, pretend = 0, frame = 0
 2347              		@ frame_needed = 0, uses_anonymous_args = 0
 2348              		@ link register save eliminated.
 2349              	.LVL226:
 2350              		.loc 1 1833 0
 2351 0000 0423     		movs	r3, #4
 2352 0002 8B40     		lsls	r3, r3, r1
 2353              		.loc 1 1822 0
 2354 0004 10B4     		push	{r4}
 2355              		.cfi_def_cfa_offset 4
 2356              		.cfi_offset 4, -4
 2357              		.loc 1 1833 0
 2358 0006 DB43     		mvns	r3, r3
 2359 0008 046A     		ldr	r4, [r0, #32]
 2360 000a 9BB2     		uxth	r3, r3
 2361 000c 2340     		ands	r3, r3, r4
 2362 000e 0362     		str	r3, [r0, #32]
 2363              		.loc 1 1836 0
 2364 0010 8A40     		lsls	r2, r2, r1
 2365              	.LVL227:
 2366 0012 016A     		ldr	r1, [r0, #32]
 2367              	.LVL228:
 2368              		.loc 1 1837 0
 2369 0014 5DF8044B 		ldr	r4, [sp], #4
 2370              		.cfi_restore 4
 2371              		.cfi_def_cfa_offset 0
 2372              		.loc 1 1836 0
 2373 0018 92B2     		uxth	r2, r2
 2374 001a 0A43     		orrs	r2, r2, r1
 2375 001c 0262     		str	r2, [r0, #32]
 2376              		.loc 1 1837 0
 2377 001e 7047     		bx	lr
 2378              		.cfi_endproc
 2379              	.LFE172:
 2380              		.size	TIM_CCxNCmd, .-TIM_CCxNCmd
 2381              		.section	.text.TIM_ICInit,"ax",%progbits
 2382              		.align	2
 2383              		.p2align 4,,15
 2384              		.global	TIM_ICInit
 2385              		.thumb
 2386              		.thumb_func
 2387              		.type	TIM_ICInit, %function
 2388              	TIM_ICInit:
 2389              	.LFB173:
 2390              		.loc 1 1906 0
 2391              		.cfi_startproc
 2392              		@ args = 0, pretend = 0, frame = 0
 2393              		@ frame_needed = 0, uses_anonymous_args = 0
 2394              	.LVL229:
ARM GAS  /var/folders/m4/4md61f0s1_g0rzfghffqnxvr0000gn/T//ccSRVwbo.s 			page 43


 2395              		.loc 1 1914 0
 2396 0000 0B88     		ldrh	r3, [r1]
 2397              		.loc 1 1906 0
 2398 0002 F0B5     		push	{r4, r5, r6, r7, lr}
 2399              		.cfi_def_cfa_offset 20
 2400              		.cfi_offset 4, -20
 2401              		.cfi_offset 5, -16
 2402              		.cfi_offset 6, -12
 2403              		.cfi_offset 7, -8
 2404              		.cfi_offset 14, -4
 2405              		.loc 1 1914 0
 2406 0004 6BB3     		cbz	r3, .L142
 2407              		.loc 1 1923 0
 2408 0006 042B     		cmp	r3, #4
 2409 0008 4ED0     		beq	.L143
 2410              		.loc 1 1933 0
 2411 000a 082B     		cmp	r3, #8
 2412              		.loc 1 1937 0
 2413 000c 4E88     		ldrh	r6, [r1, #2]
 2414              	.LBB46:
 2415              	.LBB47:
 2416              		.loc 1 3298 0
 2417 000e 036A     		ldr	r3, [r0, #32]
 2418              	.LBE47:
 2419              	.LBE46:
 2420              		.loc 1 1933 0
 2421 0010 74D0     		beq	.L144
 2422              		.loc 1 1947 0
 2423 0012 0C89     		ldrh	r4, [r1, #8]
 2424              	.LVL230:
 2425 0014 8A88     		ldrh	r2, [r1, #4]
 2426              	.LVL231:
 2427              		.loc 1 1951 0
 2428 0016 CD88     		ldrh	r5, [r1, #6]
 2429              	.LBB49:
 2430              	.LBB50:
 2431              		.loc 1 3339 0
 2432 0018 4EF6FF71 		movw	r1, #61439
 2433              	.LVL232:
 2434 001c 1940     		ands	r1, r1, r3
 2435 001e 0162     		str	r1, [r0, #32]
 2436              		.loc 1 3340 0
 2437 0020 C769     		ldr	r7, [r0, #28]
 2438              	.LVL233:
 2439              		.loc 1 3341 0
 2440 0022 D0F820E0 		ldr	lr, [r0, #32]
 2441              	.LVL234:
 2442              		.loc 1 3350 0
 2443 0026 45F6FF73 		movw	r3, #24575
 2444              		.loc 1 3354 0
 2445 002a 2103     		lsls	r1, r4, #12
 2446              		.loc 1 3350 0
 2447 002c 0EEA0303 		and	r3, lr, r3
 2448              		.loc 1 3345 0
 2449 0030 40F6FF44 		movw	r4, #3327
 2450              	.LVL235:
 2451              		.loc 1 3354 0
ARM GAS  /var/folders/m4/4md61f0s1_g0rzfghffqnxvr0000gn/T//ccSRVwbo.s 			page 44


 2452 0034 41EA0222 		orr	r2, r1, r2, lsl #8
 2453              	.LVL236:
 2454              		.loc 1 3345 0
 2455 0038 3C40     		ands	r4, r4, r7
 2456              	.LVL237:
 2457              		.loc 1 3355 0
 2458 003a 43EA0633 		orr	r3, r3, r6, lsl #12
 2459              	.LVL238:
 2460              		.loc 1 3354 0
 2461 003e 2243     		orrs	r2, r2, r4
 2462              		.loc 1 3355 0
 2463 0040 43F48053 		orr	r3, r3, #4096
 2464              		.loc 1 3354 0
 2465 0044 92B2     		uxth	r2, r2
 2466              		.loc 1 3355 0
 2467 0046 9BB2     		uxth	r3, r3
 2468              		.loc 1 3354 0
 2469 0048 C261     		str	r2, [r0, #28]
 2470              		.loc 1 3355 0
 2471 004a 0362     		str	r3, [r0, #32]
 2472              	.LVL239:
 2473              	.LBE50:
 2474              	.LBE49:
 2475              	.LBB51:
 2476              	.LBB52:
 2477              		.loc 1 2180 0
 2478 004c C269     		ldr	r2, [r0, #28]
 2479 004e 4FF2FF33 		movw	r3, #62463
 2480 0052 1340     		ands	r3, r3, r2
 2481 0054 C361     		str	r3, [r0, #28]
 2482              		.loc 1 2183 0
 2483 0056 C269     		ldr	r2, [r0, #28]
 2484 0058 2B02     		lsls	r3, r5, #8
 2485 005a 9BB2     		uxth	r3, r3
 2486 005c 1343     		orrs	r3, r3, r2
 2487 005e C361     		str	r3, [r0, #28]
 2488 0060 F0BD     		pop	{r4, r5, r6, r7, pc}
 2489              	.LVL240:
 2490              	.L142:
 2491              	.LBE52:
 2492              	.LBE51:
 2493              	.LBB53:
 2494              	.LBB54:
 2495              		.loc 1 3215 0
 2496 0062 056A     		ldr	r5, [r0, #32]
 2497              	.LBE54:
 2498              	.LBE53:
 2499              		.loc 1 1917 0
 2500 0064 8A88     		ldrh	r2, [r1, #4]
 2501 0066 4C88     		ldrh	r4, [r1, #2]
 2502 0068 0B89     		ldrh	r3, [r1, #8]
 2503              	.LVL241:
 2504              		.loc 1 1921 0
 2505 006a CE88     		ldrh	r6, [r1, #6]
 2506              	.LBB56:
 2507              	.LBB55:
 2508              		.loc 1 3215 0
ARM GAS  /var/folders/m4/4md61f0s1_g0rzfghffqnxvr0000gn/T//ccSRVwbo.s 			page 45


 2509 006c 4FF6FE71 		movw	r1, #65534
 2510              	.LVL242:
 2511 0070 2940     		ands	r1, r1, r5
 2512 0072 0162     		str	r1, [r0, #32]
 2513              		.loc 1 3216 0
 2514 0074 8169     		ldr	r1, [r0, #24]
 2515              	.LVL243:
 2516              		.loc 1 3217 0
 2517 0076 076A     		ldr	r7, [r0, #32]
 2518              	.LVL244:
 2519              		.loc 1 3220 0
 2520 0078 4FF60C75 		movw	r5, #65292
 2521              		.loc 1 3228 0
 2522 007c 42EA0313 		orr	r3, r2, r3, lsl #4
 2523              	.LVL245:
 2524              		.loc 1 3220 0
 2525 0080 0D40     		ands	r5, r5, r1
 2526              	.LVL246:
 2527              		.loc 1 3224 0
 2528 0082 4FF6F571 		movw	r1, #65525
 2529              		.loc 1 3229 0
 2530 0086 44F00102 		orr	r2, r4, #1
 2531              	.LVL247:
 2532              		.loc 1 3228 0
 2533 008a 2B43     		orrs	r3, r3, r5
 2534              		.loc 1 3224 0
 2535 008c 3940     		ands	r1, r1, r7
 2536              	.LVL248:
 2537              		.loc 1 3228 0
 2538 008e 9BB2     		uxth	r3, r3
 2539              		.loc 1 3229 0
 2540 0090 0A43     		orrs	r2, r2, r1
 2541              		.loc 1 3228 0
 2542 0092 8361     		str	r3, [r0, #24]
 2543              		.loc 1 3229 0
 2544 0094 0262     		str	r2, [r0, #32]
 2545              	.LVL249:
 2546              	.LBE55:
 2547              	.LBE56:
 2548              	.LBB57:
 2549              	.LBB58:
 2550              		.loc 1 2107 0
 2551 0096 8369     		ldr	r3, [r0, #24]
 2552 0098 4FF6F372 		movw	r2, #65523
 2553 009c 1A40     		ands	r2, r2, r3
 2554 009e 8261     		str	r2, [r0, #24]
 2555              		.loc 1 2110 0
 2556 00a0 8369     		ldr	r3, [r0, #24]
 2557 00a2 3343     		orrs	r3, r3, r6
 2558 00a4 8361     		str	r3, [r0, #24]
 2559 00a6 F0BD     		pop	{r4, r5, r6, r7, pc}
 2560              	.LVL250:
 2561              	.L143:
 2562              	.LBE58:
 2563              	.LBE57:
 2564              	.LBB59:
 2565              	.LBB60:
ARM GAS  /var/folders/m4/4md61f0s1_g0rzfghffqnxvr0000gn/T//ccSRVwbo.s 			page 46


 2566              		.loc 1 3256 0
 2567 00a8 036A     		ldr	r3, [r0, #32]
 2568              	.LBE60:
 2569              	.LBE59:
 2570              		.loc 1 1927 0
 2571 00aa 8C88     		ldrh	r4, [r1, #4]
 2572 00ac 4E88     		ldrh	r6, [r1, #2]
 2573 00ae 0A89     		ldrh	r2, [r1, #8]
 2574              	.LVL251:
 2575              		.loc 1 1931 0
 2576 00b0 CD88     		ldrh	r5, [r1, #6]
 2577              	.LBB62:
 2578              	.LBB61:
 2579              		.loc 1 3256 0
 2580 00b2 4FF6EF71 		movw	r1, #65519
 2581              	.LVL252:
 2582 00b6 1940     		ands	r1, r1, r3
 2583 00b8 0162     		str	r1, [r0, #32]
 2584              		.loc 1 3257 0
 2585 00ba 8769     		ldr	r7, [r0, #24]
 2586              	.LVL253:
 2587              		.loc 1 3258 0
 2588 00bc D0F820E0 		ldr	lr, [r0, #32]
 2589              	.LVL254:
 2590              		.loc 1 3267 0
 2591 00c0 4FF65F73 		movw	r3, #65375
 2592              		.loc 1 3271 0
 2593 00c4 2102     		lsls	r1, r4, #8
 2594              		.loc 1 3267 0
 2595 00c6 0EEA0303 		and	r3, lr, r3
 2596              		.loc 1 3262 0
 2597 00ca 40F6FF44 		movw	r4, #3327
 2598              	.LVL255:
 2599              		.loc 1 3271 0
 2600 00ce 41EA0232 		orr	r2, r1, r2, lsl #12
 2601              	.LVL256:
 2602              		.loc 1 3262 0
 2603 00d2 3C40     		ands	r4, r4, r7
 2604              	.LVL257:
 2605              		.loc 1 3272 0
 2606 00d4 43EA0613 		orr	r3, r3, r6, lsl #4
 2607              	.LVL258:
 2608              		.loc 1 3271 0
 2609 00d8 2243     		orrs	r2, r2, r4
 2610              		.loc 1 3272 0
 2611 00da 43F01003 		orr	r3, r3, #16
 2612              		.loc 1 3271 0
 2613 00de 92B2     		uxth	r2, r2
 2614              		.loc 1 3272 0
 2615 00e0 9BB2     		uxth	r3, r3
 2616              		.loc 1 3271 0
 2617 00e2 8261     		str	r2, [r0, #24]
 2618              		.loc 1 3272 0
 2619 00e4 0362     		str	r3, [r0, #32]
 2620              	.LVL259:
 2621              	.LBE61:
 2622              	.LBE62:
ARM GAS  /var/folders/m4/4md61f0s1_g0rzfghffqnxvr0000gn/T//ccSRVwbo.s 			page 47


 2623              	.LBB63:
 2624              	.LBB64:
 2625              		.loc 1 2132 0
 2626 00e6 8269     		ldr	r2, [r0, #24]
 2627 00e8 4FF2FF33 		movw	r3, #62463
 2628 00ec 1340     		ands	r3, r3, r2
 2629 00ee 8361     		str	r3, [r0, #24]
 2630              		.loc 1 2135 0
 2631 00f0 8269     		ldr	r2, [r0, #24]
 2632 00f2 2B02     		lsls	r3, r5, #8
 2633 00f4 9BB2     		uxth	r3, r3
 2634 00f6 1343     		orrs	r3, r3, r2
 2635 00f8 8361     		str	r3, [r0, #24]
 2636 00fa F0BD     		pop	{r4, r5, r6, r7, pc}
 2637              	.LVL260:
 2638              	.L144:
 2639              	.LBE64:
 2640              	.LBE63:
 2641              		.loc 1 1937 0
 2642 00fc 8C88     		ldrh	r4, [r1, #4]
 2643 00fe 0A89     		ldrh	r2, [r1, #8]
 2644              	.LVL261:
 2645              		.loc 1 1941 0
 2646 0100 CD88     		ldrh	r5, [r1, #6]
 2647              	.LBB65:
 2648              	.LBB48:
 2649              		.loc 1 3298 0
 2650 0102 4FF6FF61 		movw	r1, #65279
 2651              	.LVL262:
 2652 0106 1940     		ands	r1, r1, r3
 2653 0108 0162     		str	r1, [r0, #32]
 2654              		.loc 1 3299 0
 2655 010a C769     		ldr	r7, [r0, #28]
 2656              	.LVL263:
 2657              		.loc 1 3300 0
 2658 010c 016A     		ldr	r1, [r0, #32]
 2659              	.LVL264:
 2660              		.loc 1 3308 0
 2661 010e 4FF2FF53 		movw	r3, #62975
 2662 0112 0B40     		ands	r3, r3, r1
 2663              		.loc 1 3304 0
 2664 0114 4FF60C71 		movw	r1, #65292
 2665              	.LVL265:
 2666              		.loc 1 3312 0
 2667 0118 44EA0212 		orr	r2, r4, r2, lsl #4
 2668              	.LVL266:
 2669              		.loc 1 3304 0
 2670 011c 3940     		ands	r1, r1, r7
 2671              	.LVL267:
 2672              		.loc 1 3313 0
 2673 011e 43EA0623 		orr	r3, r3, r6, lsl #8
 2674              	.LVL268:
 2675              		.loc 1 3312 0
 2676 0122 0A43     		orrs	r2, r2, r1
 2677              		.loc 1 3313 0
 2678 0124 43F48073 		orr	r3, r3, #256
 2679              		.loc 1 3312 0
ARM GAS  /var/folders/m4/4md61f0s1_g0rzfghffqnxvr0000gn/T//ccSRVwbo.s 			page 48


 2680 0128 92B2     		uxth	r2, r2
 2681              		.loc 1 3313 0
 2682 012a 9BB2     		uxth	r3, r3
 2683              		.loc 1 3312 0
 2684 012c C261     		str	r2, [r0, #28]
 2685              		.loc 1 3313 0
 2686 012e 0362     		str	r3, [r0, #32]
 2687              	.LVL269:
 2688              	.LBE48:
 2689              	.LBE65:
 2690              	.LBB66:
 2691              	.LBB67:
 2692              		.loc 1 2156 0
 2693 0130 C369     		ldr	r3, [r0, #28]
 2694 0132 4FF6F372 		movw	r2, #65523
 2695 0136 1A40     		ands	r2, r2, r3
 2696 0138 C261     		str	r2, [r0, #28]
 2697              		.loc 1 2159 0
 2698 013a C369     		ldr	r3, [r0, #28]
 2699 013c 2B43     		orrs	r3, r3, r5
 2700 013e C361     		str	r3, [r0, #28]
 2701 0140 F0BD     		pop	{r4, r5, r6, r7, pc}
 2702              	.LBE67:
 2703              	.LBE66:
 2704              		.cfi_endproc
 2705              	.LFE173:
 2706              		.size	TIM_ICInit, .-TIM_ICInit
 2707 0142 00BF     		.section	.text.TIM_ICStructInit,"ax",%progbits
 2708              		.align	2
 2709              		.p2align 4,,15
 2710              		.global	TIM_ICStructInit
 2711              		.thumb
 2712              		.thumb_func
 2713              		.type	TIM_ICStructInit, %function
 2714              	TIM_ICStructInit:
 2715              	.LFB174:
 2716              		.loc 1 1962 0
 2717              		.cfi_startproc
 2718              		@ args = 0, pretend = 0, frame = 0
 2719              		@ frame_needed = 0, uses_anonymous_args = 0
 2720              		@ link register save eliminated.
 2721              	.LVL270:
 2722              		.loc 1 1964 0
 2723 0000 0023     		movs	r3, #0
 2724              		.loc 1 1966 0
 2725 0002 0122     		movs	r2, #1
 2726 0004 8280     		strh	r2, [r0, #4]	@ movhi
 2727              		.loc 1 1964 0
 2728 0006 0380     		strh	r3, [r0]	@ movhi
 2729              		.loc 1 1965 0
 2730 0008 4380     		strh	r3, [r0, #2]	@ movhi
 2731              		.loc 1 1967 0
 2732 000a C380     		strh	r3, [r0, #6]	@ movhi
 2733              		.loc 1 1968 0
 2734 000c 0381     		strh	r3, [r0, #8]	@ movhi
 2735 000e 7047     		bx	lr
 2736              		.cfi_endproc
ARM GAS  /var/folders/m4/4md61f0s1_g0rzfghffqnxvr0000gn/T//ccSRVwbo.s 			page 49


 2737              	.LFE174:
 2738              		.size	TIM_ICStructInit, .-TIM_ICStructInit
 2739              		.section	.text.TIM_PWMIConfig,"ax",%progbits
 2740              		.align	2
 2741              		.p2align 4,,15
 2742              		.global	TIM_PWMIConfig
 2743              		.thumb
 2744              		.thumb_func
 2745              		.type	TIM_PWMIConfig, %function
 2746              	TIM_PWMIConfig:
 2747              	.LFB175:
 2748              		.loc 1 1981 0
 2749              		.cfi_startproc
 2750              		@ args = 0, pretend = 0, frame = 0
 2751              		@ frame_needed = 0, uses_anonymous_args = 0
 2752              	.LVL271:
 2753 0000 2DE9F043 		push	{r4, r5, r6, r7, r8, r9, lr}
 2754              		.cfi_def_cfa_offset 28
 2755              		.cfi_offset 4, -28
 2756              		.cfi_offset 5, -24
 2757              		.cfi_offset 6, -20
 2758              		.cfi_offset 7, -16
 2759              		.cfi_offset 8, -12
 2760              		.cfi_offset 9, -8
 2761              		.cfi_offset 14, -4
 2762              		.loc 1 1989 0
 2763 0004 B1F802E0 		ldrh	lr, [r1, #2]
 2764              		.loc 1 1998 0
 2765 0008 8B88     		ldrh	r3, [r1, #4]
 2766              		.loc 1 2006 0
 2767 000a 0A88     		ldrh	r2, [r1]
 2768              		.loc 1 1989 0
 2769 000c BEF1000F 		cmp	lr, #0
 2770              		.loc 1 1995 0
 2771 0010 0CBF     		ite	eq
 2772 0012 0224     		moveq	r4, #2
 2773 0014 0024     		movne	r4, #0
 2774              	.LVL272:
 2775              		.loc 1 1998 0
 2776 0016 012B     		cmp	r3, #1
 2777              		.loc 1 2004 0
 2778 0018 0CBF     		ite	eq
 2779 001a 0225     		moveq	r5, #2
 2780 001c 0125     		movne	r5, #1
 2781              	.LVL273:
 2782              		.loc 1 2006 0
 2783 001e 002A     		cmp	r2, #0
 2784 0020 46D0     		beq	.L154
 2785              	.LBB68:
 2786              	.LBB69:
 2787              		.loc 1 3256 0
 2788 0022 026A     		ldr	r2, [r0, #32]
 2789              	.LBE69:
 2790              	.LBE68:
 2791              		.loc 1 2021 0
 2792 0024 0F89     		ldrh	r7, [r1, #8]
 2793              	.LVL274:
ARM GAS  /var/folders/m4/4md61f0s1_g0rzfghffqnxvr0000gn/T//ccSRVwbo.s 			page 50


 2794              		.loc 1 2024 0
 2795 0026 C988     		ldrh	r1, [r1, #6]
 2796              	.LVL275:
 2797              	.LBB71:
 2798              	.LBB70:
 2799              		.loc 1 3256 0
 2800 0028 4FF6EF76 		movw	r6, #65519
 2801 002c 1640     		ands	r6, r6, r2
 2802 002e 0662     		str	r6, [r0, #32]
 2803              		.loc 1 3257 0
 2804 0030 8269     		ldr	r2, [r0, #24]
 2805              	.LVL276:
 2806              		.loc 1 3258 0
 2807 0032 D0F820C0 		ldr	ip, [r0, #32]
 2808              	.LVL277:
 2809              		.loc 1 3262 0
 2810 0036 40F6FF46 		movw	r6, #3327
 2811 003a 1640     		ands	r6, r6, r2
 2812              	.LVL278:
 2813              		.loc 1 3267 0
 2814 003c 4FF65F72 		movw	r2, #65375
 2815              		.loc 1 3271 0
 2816 0040 1B02     		lsls	r3, r3, #8
 2817              	.LVL279:
 2818              		.loc 1 3267 0
 2819 0042 0CEA0202 		and	r2, ip, r2
 2820              	.LVL280:
 2821              		.loc 1 3271 0
 2822 0046 43EA0733 		orr	r3, r3, r7, lsl #12
 2823              		.loc 1 3272 0
 2824 004a 42EA0E12 		orr	r2, r2, lr, lsl #4
 2825              	.LVL281:
 2826              		.loc 1 3271 0
 2827 004e 3343     		orrs	r3, r3, r6
 2828              		.loc 1 3272 0
 2829 0050 42F01002 		orr	r2, r2, #16
 2830              		.loc 1 3271 0
 2831 0054 9BB2     		uxth	r3, r3
 2832              		.loc 1 3272 0
 2833 0056 92B2     		uxth	r2, r2
 2834              		.loc 1 3271 0
 2835 0058 8361     		str	r3, [r0, #24]
 2836              		.loc 1 3272 0
 2837 005a 0262     		str	r2, [r0, #32]
 2838              	.LVL282:
 2839              	.LBE70:
 2840              	.LBE71:
 2841              	.LBB72:
 2842              	.LBB73:
 2843              		.loc 1 2132 0
 2844 005c 8269     		ldr	r2, [r0, #24]
 2845 005e 4FF2FF33 		movw	r3, #62463
 2846 0062 1340     		ands	r3, r3, r2
 2847 0064 8361     		str	r3, [r0, #24]
 2848              		.loc 1 2135 0
 2849 0066 8269     		ldr	r2, [r0, #24]
 2850 0068 0B02     		lsls	r3, r1, #8
ARM GAS  /var/folders/m4/4md61f0s1_g0rzfghffqnxvr0000gn/T//ccSRVwbo.s 			page 51


 2851 006a 9BB2     		uxth	r3, r3
 2852 006c 1343     		orrs	r3, r3, r2
 2853 006e 8361     		str	r3, [r0, #24]
 2854              	.LVL283:
 2855              	.LBE73:
 2856              	.LBE72:
 2857              	.LBB74:
 2858              	.LBB75:
 2859              		.loc 1 3215 0
 2860 0070 026A     		ldr	r2, [r0, #32]
 2861 0072 4FF6FE73 		movw	r3, #65534
 2862 0076 1340     		ands	r3, r3, r2
 2863 0078 0362     		str	r3, [r0, #32]
 2864              		.loc 1 3216 0
 2865 007a 8269     		ldr	r2, [r0, #24]
 2866              		.loc 1 3217 0
 2867 007c 066A     		ldr	r6, [r0, #32]
 2868              		.loc 1 3216 0
 2869 007e 92B2     		uxth	r2, r2
 2870              	.LVL284:
 2871 0080 22F0F302 		bic	r2, r2, #243
 2872              	.LVL285:
 2873              		.loc 1 3217 0
 2874 0084 B6B2     		uxth	r6, r6
 2875              	.LVL286:
 2876 0086 42EA0713 		orr	r3, r2, r7, lsl #4
 2877 008a 26F00A02 		bic	r2, r6, #10
 2878 008e 9BB2     		uxth	r3, r3
 2879              	.LVL287:
 2880 0090 42F00102 		orr	r2, r2, #1
 2881              	.LVL288:
 2882              		.loc 1 3228 0
 2883 0094 2B43     		orrs	r3, r3, r5
 2884              	.LVL289:
 2885              		.loc 1 3229 0
 2886 0096 2243     		orrs	r2, r2, r4
 2887              	.LVL290:
 2888              		.loc 1 3228 0
 2889 0098 8361     		str	r3, [r0, #24]
 2890              		.loc 1 3229 0
 2891 009a 0262     		str	r2, [r0, #32]
 2892              	.LVL291:
 2893              	.LBE75:
 2894              	.LBE74:
 2895              	.LBB76:
 2896              	.LBB77:
 2897              		.loc 1 2107 0
 2898 009c 8269     		ldr	r2, [r0, #24]
 2899 009e 4FF6F373 		movw	r3, #65523
 2900 00a2 1340     		ands	r3, r3, r2
 2901 00a4 8361     		str	r3, [r0, #24]
 2902              		.loc 1 2110 0
 2903 00a6 8369     		ldr	r3, [r0, #24]
 2904 00a8 1943     		orrs	r1, r1, r3
 2905              	.LVL292:
 2906 00aa 8161     		str	r1, [r0, #24]
 2907 00ac BDE8F083 		pop	{r4, r5, r6, r7, r8, r9, pc}
ARM GAS  /var/folders/m4/4md61f0s1_g0rzfghffqnxvr0000gn/T//ccSRVwbo.s 			page 52


 2908              	.LVL293:
 2909              	.L154:
 2910              	.LBE77:
 2911              	.LBE76:
 2912              	.LBB78:
 2913              	.LBB79:
 2914              		.loc 1 3215 0
 2915 00b0 066A     		ldr	r6, [r0, #32]
 2916              	.LBE79:
 2917              	.LBE78:
 2918              		.loc 1 2009 0
 2919 00b2 0F89     		ldrh	r7, [r1, #8]
 2920              	.LVL294:
 2921              		.loc 1 2012 0
 2922 00b4 C988     		ldrh	r1, [r1, #6]
 2923              	.LVL295:
 2924              	.LBB81:
 2925              	.LBB80:
 2926              		.loc 1 3215 0
 2927 00b6 4FF6FE72 		movw	r2, #65534
 2928 00ba 3240     		ands	r2, r2, r6
 2929 00bc 0262     		str	r2, [r0, #32]
 2930              		.loc 1 3216 0
 2931 00be 8269     		ldr	r2, [r0, #24]
 2932              	.LVL296:
 2933              		.loc 1 3217 0
 2934 00c0 D0F82090 		ldr	r9, [r0, #32]
 2935              	.LVL297:
 2936              		.loc 1 3220 0
 2937 00c4 4FF60C78 		movw	r8, #65292
 2938              		.loc 1 3228 0
 2939 00c8 43EA0716 		orr	r6, r3, r7, lsl #4
 2940              		.loc 1 3220 0
 2941 00cc 02EA0808 		and	r8, r2, r8
 2942              	.LVL298:
 2943              		.loc 1 3224 0
 2944 00d0 4FF6F57C 		movw	ip, #65525
 2945              		.loc 1 3229 0
 2946 00d4 4EF00102 		orr	r2, lr, #1
 2947              		.loc 1 3224 0
 2948 00d8 09EA0C0C 		and	ip, r9, ip
 2949              	.LVL299:
 2950              		.loc 1 3228 0
 2951 00dc 48EA0606 		orr	r6, r8, r6
 2952              		.loc 1 3229 0
 2953 00e0 4CEA0202 		orr	r2, ip, r2
 2954              		.loc 1 3228 0
 2955 00e4 B6B2     		uxth	r6, r6
 2956 00e6 8661     		str	r6, [r0, #24]
 2957              		.loc 1 3229 0
 2958 00e8 0262     		str	r2, [r0, #32]
 2959              	.LVL300:
 2960              	.LBE80:
 2961              	.LBE81:
 2962              	.LBB82:
 2963              	.LBB83:
 2964              		.loc 1 2107 0
ARM GAS  /var/folders/m4/4md61f0s1_g0rzfghffqnxvr0000gn/T//ccSRVwbo.s 			page 53


 2965 00ea 8269     		ldr	r2, [r0, #24]
 2966 00ec 4FF6F373 		movw	r3, #65523
 2967 00f0 1340     		ands	r3, r3, r2
 2968 00f2 8361     		str	r3, [r0, #24]
 2969              		.loc 1 2110 0
 2970 00f4 8369     		ldr	r3, [r0, #24]
 2971 00f6 0B43     		orrs	r3, r3, r1
 2972 00f8 8361     		str	r3, [r0, #24]
 2973              	.LVL301:
 2974              	.LBE83:
 2975              	.LBE82:
 2976              	.LBB84:
 2977              	.LBB85:
 2978              		.loc 1 3256 0
 2979 00fa 026A     		ldr	r2, [r0, #32]
 2980 00fc 4FF6EF73 		movw	r3, #65519
 2981 0100 1340     		ands	r3, r3, r2
 2982 0102 0362     		str	r3, [r0, #32]
 2983              		.loc 1 3257 0
 2984 0104 8669     		ldr	r6, [r0, #24]
 2985              	.LVL302:
 2986              		.loc 1 3258 0
 2987 0106 026A     		ldr	r2, [r0, #32]
 2988              		.loc 1 3262 0
 2989 0108 40F6FF43 		movw	r3, #3327
 2990 010c 3340     		ands	r3, r3, r6
 2991              		.loc 1 3258 0
 2992 010e 92B2     		uxth	r2, r2
 2993              	.LVL303:
 2994              		.loc 1 3263 0
 2995 0110 43EA0733 		orr	r3, r3, r7, lsl #12
 2996              	.LVL304:
 2997 0114 22F0A002 		bic	r2, r2, #160
 2998              	.LVL305:
 2999 0118 9BB2     		uxth	r3, r3
 3000              	.LVL306:
 3001 011a 42F01002 		orr	r2, r2, #16
 3002              	.LVL307:
 3003              		.loc 1 3271 0
 3004 011e 43EA0523 		orr	r3, r3, r5, lsl #8
 3005              	.LVL308:
 3006              		.loc 1 3272 0
 3007 0122 42EA0412 		orr	r2, r2, r4, lsl #4
 3008              	.LVL309:
 3009              		.loc 1 3271 0
 3010 0126 8361     		str	r3, [r0, #24]
 3011              		.loc 1 3272 0
 3012 0128 0262     		str	r2, [r0, #32]
 3013              	.LVL310:
 3014              	.LBE85:
 3015              	.LBE84:
 3016              	.LBB86:
 3017              	.LBB87:
 3018              		.loc 1 2132 0
 3019 012a 8269     		ldr	r2, [r0, #24]
 3020 012c 4FF2FF33 		movw	r3, #62463
 3021 0130 1340     		ands	r3, r3, r2
ARM GAS  /var/folders/m4/4md61f0s1_g0rzfghffqnxvr0000gn/T//ccSRVwbo.s 			page 54


 3022 0132 8361     		str	r3, [r0, #24]
 3023              		.loc 1 2135 0
 3024 0134 8369     		ldr	r3, [r0, #24]
 3025 0136 0902     		lsls	r1, r1, #8
 3026              	.LVL311:
 3027 0138 89B2     		uxth	r1, r1
 3028 013a 1943     		orrs	r1, r1, r3
 3029 013c 8161     		str	r1, [r0, #24]
 3030 013e BDE8F083 		pop	{r4, r5, r6, r7, r8, r9, pc}
 3031              	.LBE87:
 3032              	.LBE86:
 3033              		.cfi_endproc
 3034              	.LFE175:
 3035              		.size	TIM_PWMIConfig, .-TIM_PWMIConfig
 3036 0142 00BF     		.section	.text.TIM_GetCapture1,"ax",%progbits
 3037              		.align	2
 3038              		.p2align 4,,15
 3039              		.global	TIM_GetCapture1
 3040              		.thumb
 3041              		.thumb_func
 3042              		.type	TIM_GetCapture1, %function
 3043              	TIM_GetCapture1:
 3044              	.LFB176:
 3045              		.loc 1 2038 0
 3046              		.cfi_startproc
 3047              		@ args = 0, pretend = 0, frame = 0
 3048              		@ frame_needed = 0, uses_anonymous_args = 0
 3049              		@ link register save eliminated.
 3050              	.LVL312:
 3051              		.loc 1 2043 0
 3052 0000 406B     		ldr	r0, [r0, #52]
 3053              	.LVL313:
 3054              		.loc 1 2044 0
 3055 0002 7047     		bx	lr
 3056              		.cfi_endproc
 3057              	.LFE176:
 3058              		.size	TIM_GetCapture1, .-TIM_GetCapture1
 3059              		.section	.text.TIM_GetCapture2,"ax",%progbits
 3060              		.align	2
 3061              		.p2align 4,,15
 3062              		.global	TIM_GetCapture2
 3063              		.thumb
 3064              		.thumb_func
 3065              		.type	TIM_GetCapture2, %function
 3066              	TIM_GetCapture2:
 3067              	.LFB177:
 3068              		.loc 1 2053 0
 3069              		.cfi_startproc
 3070              		@ args = 0, pretend = 0, frame = 0
 3071              		@ frame_needed = 0, uses_anonymous_args = 0
 3072              		@ link register save eliminated.
 3073              	.LVL314:
 3074              		.loc 1 2058 0
 3075 0000 806B     		ldr	r0, [r0, #56]
 3076              	.LVL315:
 3077              		.loc 1 2059 0
 3078 0002 7047     		bx	lr
ARM GAS  /var/folders/m4/4md61f0s1_g0rzfghffqnxvr0000gn/T//ccSRVwbo.s 			page 55


 3079              		.cfi_endproc
 3080              	.LFE177:
 3081              		.size	TIM_GetCapture2, .-TIM_GetCapture2
 3082              		.section	.text.TIM_GetCapture3,"ax",%progbits
 3083              		.align	2
 3084              		.p2align 4,,15
 3085              		.global	TIM_GetCapture3
 3086              		.thumb
 3087              		.thumb_func
 3088              		.type	TIM_GetCapture3, %function
 3089              	TIM_GetCapture3:
 3090              	.LFB178:
 3091              		.loc 1 2067 0
 3092              		.cfi_startproc
 3093              		@ args = 0, pretend = 0, frame = 0
 3094              		@ frame_needed = 0, uses_anonymous_args = 0
 3095              		@ link register save eliminated.
 3096              	.LVL316:
 3097              		.loc 1 2072 0
 3098 0000 C06B     		ldr	r0, [r0, #60]
 3099              	.LVL317:
 3100              		.loc 1 2073 0
 3101 0002 7047     		bx	lr
 3102              		.cfi_endproc
 3103              	.LFE178:
 3104              		.size	TIM_GetCapture3, .-TIM_GetCapture3
 3105              		.section	.text.TIM_GetCapture4,"ax",%progbits
 3106              		.align	2
 3107              		.p2align 4,,15
 3108              		.global	TIM_GetCapture4
 3109              		.thumb
 3110              		.thumb_func
 3111              		.type	TIM_GetCapture4, %function
 3112              	TIM_GetCapture4:
 3113              	.LFB179:
 3114              		.loc 1 2081 0
 3115              		.cfi_startproc
 3116              		@ args = 0, pretend = 0, frame = 0
 3117              		@ frame_needed = 0, uses_anonymous_args = 0
 3118              		@ link register save eliminated.
 3119              	.LVL318:
 3120              		.loc 1 2086 0
 3121 0000 006C     		ldr	r0, [r0, #64]
 3122              	.LVL319:
 3123              		.loc 1 2087 0
 3124 0002 7047     		bx	lr
 3125              		.cfi_endproc
 3126              	.LFE179:
 3127              		.size	TIM_GetCapture4, .-TIM_GetCapture4
 3128              		.section	.text.TIM_SetIC1Prescaler,"ax",%progbits
 3129              		.align	2
 3130              		.p2align 4,,15
 3131              		.global	TIM_SetIC1Prescaler
 3132              		.thumb
 3133              		.thumb_func
 3134              		.type	TIM_SetIC1Prescaler, %function
 3135              	TIM_SetIC1Prescaler:
ARM GAS  /var/folders/m4/4md61f0s1_g0rzfghffqnxvr0000gn/T//ccSRVwbo.s 			page 56


 3136              	.LFB180:
 3137              		.loc 1 2101 0
 3138              		.cfi_startproc
 3139              		@ args = 0, pretend = 0, frame = 0
 3140              		@ frame_needed = 0, uses_anonymous_args = 0
 3141              		@ link register save eliminated.
 3142              	.LVL320:
 3143              		.loc 1 2107 0
 3144 0000 8269     		ldr	r2, [r0, #24]
 3145 0002 4FF6F373 		movw	r3, #65523
 3146 0006 1340     		ands	r3, r3, r2
 3147 0008 8361     		str	r3, [r0, #24]
 3148              		.loc 1 2110 0
 3149 000a 8369     		ldr	r3, [r0, #24]
 3150 000c 1943     		orrs	r1, r1, r3
 3151              	.LVL321:
 3152 000e 8161     		str	r1, [r0, #24]
 3153 0010 7047     		bx	lr
 3154              		.cfi_endproc
 3155              	.LFE180:
 3156              		.size	TIM_SetIC1Prescaler, .-TIM_SetIC1Prescaler
 3157 0012 00BF     		.section	.text.TIM_SetIC2Prescaler,"ax",%progbits
 3158              		.align	2
 3159              		.p2align 4,,15
 3160              		.global	TIM_SetIC2Prescaler
 3161              		.thumb
 3162              		.thumb_func
 3163              		.type	TIM_SetIC2Prescaler, %function
 3164              	TIM_SetIC2Prescaler:
 3165              	.LFB181:
 3166              		.loc 1 2126 0
 3167              		.cfi_startproc
 3168              		@ args = 0, pretend = 0, frame = 0
 3169              		@ frame_needed = 0, uses_anonymous_args = 0
 3170              		@ link register save eliminated.
 3171              	.LVL322:
 3172              		.loc 1 2132 0
 3173 0000 8269     		ldr	r2, [r0, #24]
 3174 0002 4FF2FF33 		movw	r3, #62463
 3175 0006 1340     		ands	r3, r3, r2
 3176 0008 8361     		str	r3, [r0, #24]
 3177              		.loc 1 2135 0
 3178 000a 8369     		ldr	r3, [r0, #24]
 3179 000c 0902     		lsls	r1, r1, #8
 3180              	.LVL323:
 3181 000e 89B2     		uxth	r1, r1
 3182 0010 1943     		orrs	r1, r1, r3
 3183 0012 8161     		str	r1, [r0, #24]
 3184 0014 7047     		bx	lr
 3185              		.cfi_endproc
 3186              	.LFE181:
 3187              		.size	TIM_SetIC2Prescaler, .-TIM_SetIC2Prescaler
 3188 0016 00BF     		.section	.text.TIM_SetIC3Prescaler,"ax",%progbits
 3189              		.align	2
 3190              		.p2align 4,,15
 3191              		.global	TIM_SetIC3Prescaler
 3192              		.thumb
ARM GAS  /var/folders/m4/4md61f0s1_g0rzfghffqnxvr0000gn/T//ccSRVwbo.s 			page 57


 3193              		.thumb_func
 3194              		.type	TIM_SetIC3Prescaler, %function
 3195              	TIM_SetIC3Prescaler:
 3196              	.LFB182:
 3197              		.loc 1 2150 0
 3198              		.cfi_startproc
 3199              		@ args = 0, pretend = 0, frame = 0
 3200              		@ frame_needed = 0, uses_anonymous_args = 0
 3201              		@ link register save eliminated.
 3202              	.LVL324:
 3203              		.loc 1 2156 0
 3204 0000 C269     		ldr	r2, [r0, #28]
 3205 0002 4FF6F373 		movw	r3, #65523
 3206 0006 1340     		ands	r3, r3, r2
 3207 0008 C361     		str	r3, [r0, #28]
 3208              		.loc 1 2159 0
 3209 000a C369     		ldr	r3, [r0, #28]
 3210 000c 1943     		orrs	r1, r1, r3
 3211              	.LVL325:
 3212 000e C161     		str	r1, [r0, #28]
 3213 0010 7047     		bx	lr
 3214              		.cfi_endproc
 3215              	.LFE182:
 3216              		.size	TIM_SetIC3Prescaler, .-TIM_SetIC3Prescaler
 3217 0012 00BF     		.section	.text.TIM_SetIC4Prescaler,"ax",%progbits
 3218              		.align	2
 3219              		.p2align 4,,15
 3220              		.global	TIM_SetIC4Prescaler
 3221              		.thumb
 3222              		.thumb_func
 3223              		.type	TIM_SetIC4Prescaler, %function
 3224              	TIM_SetIC4Prescaler:
 3225              	.LFB183:
 3226              		.loc 1 2174 0
 3227              		.cfi_startproc
 3228              		@ args = 0, pretend = 0, frame = 0
 3229              		@ frame_needed = 0, uses_anonymous_args = 0
 3230              		@ link register save eliminated.
 3231              	.LVL326:
 3232              		.loc 1 2180 0
 3233 0000 C269     		ldr	r2, [r0, #28]
 3234 0002 4FF2FF33 		movw	r3, #62463
 3235 0006 1340     		ands	r3, r3, r2
 3236 0008 C361     		str	r3, [r0, #28]
 3237              		.loc 1 2183 0
 3238 000a C369     		ldr	r3, [r0, #28]
 3239 000c 0902     		lsls	r1, r1, #8
 3240              	.LVL327:
 3241 000e 89B2     		uxth	r1, r1
 3242 0010 1943     		orrs	r1, r1, r3
 3243 0012 C161     		str	r1, [r0, #28]
 3244 0014 7047     		bx	lr
 3245              		.cfi_endproc
 3246              	.LFE183:
 3247              		.size	TIM_SetIC4Prescaler, .-TIM_SetIC4Prescaler
 3248 0016 00BF     		.section	.text.TIM_BDTRConfig,"ax",%progbits
 3249              		.align	2
ARM GAS  /var/folders/m4/4md61f0s1_g0rzfghffqnxvr0000gn/T//ccSRVwbo.s 			page 58


 3250              		.p2align 4,,15
 3251              		.global	TIM_BDTRConfig
 3252              		.thumb
 3253              		.thumb_func
 3254              		.type	TIM_BDTRConfig, %function
 3255              	TIM_BDTRConfig:
 3256              	.LFB184:
 3257              		.loc 1 2227 0
 3258              		.cfi_startproc
 3259              		@ args = 0, pretend = 0, frame = 0
 3260              		@ frame_needed = 0, uses_anonymous_args = 0
 3261              	.LVL328:
 3262 0000 F0B5     		push	{r4, r5, r6, r7, lr}
 3263              		.cfi_def_cfa_offset 20
 3264              		.cfi_offset 4, -20
 3265              		.cfi_offset 5, -16
 3266              		.cfi_offset 6, -12
 3267              		.cfi_offset 7, -8
 3268              		.cfi_offset 14, -4
 3269              		.loc 1 2241 0
 3270 0002 4B88     		ldrh	r3, [r1, #2]
 3271 0004 B1F800E0 		ldrh	lr, [r1]
 3272 0008 8F88     		ldrh	r7, [r1, #4]
 3273 000a CE88     		ldrh	r6, [r1, #6]
 3274 000c 0D89     		ldrh	r5, [r1, #8]
 3275 000e 4C89     		ldrh	r4, [r1, #10]
 3276 0010 8A89     		ldrh	r2, [r1, #12]
 3277 0012 4EEA0303 		orr	r3, lr, r3
 3278 0016 3B43     		orrs	r3, r3, r7
 3279 0018 3343     		orrs	r3, r3, r6
 3280 001a 2B43     		orrs	r3, r3, r5
 3281 001c 2343     		orrs	r3, r3, r4
 3282 001e 1343     		orrs	r3, r3, r2
 3283 0020 9BB2     		uxth	r3, r3
 3284              		.loc 1 2239 0
 3285 0022 4364     		str	r3, [r0, #68]
 3286 0024 F0BD     		pop	{r4, r5, r6, r7, pc}
 3287              		.cfi_endproc
 3288              	.LFE184:
 3289              		.size	TIM_BDTRConfig, .-TIM_BDTRConfig
 3290 0026 00BF     		.section	.text.TIM_BDTRStructInit,"ax",%progbits
 3291              		.align	2
 3292              		.p2align 4,,15
 3293              		.global	TIM_BDTRStructInit
 3294              		.thumb
 3295              		.thumb_func
 3296              		.type	TIM_BDTRStructInit, %function
 3297              	TIM_BDTRStructInit:
 3298              	.LFB185:
 3299              		.loc 1 2252 0
 3300              		.cfi_startproc
 3301              		@ args = 0, pretend = 0, frame = 0
 3302              		@ frame_needed = 0, uses_anonymous_args = 0
 3303              		@ link register save eliminated.
 3304              	.LVL329:
 3305              		.loc 1 2254 0
 3306 0000 0023     		movs	r3, #0
ARM GAS  /var/folders/m4/4md61f0s1_g0rzfghffqnxvr0000gn/T//ccSRVwbo.s 			page 59


 3307 0002 0380     		strh	r3, [r0]	@ movhi
 3308              		.loc 1 2255 0
 3309 0004 4380     		strh	r3, [r0, #2]	@ movhi
 3310              		.loc 1 2256 0
 3311 0006 8380     		strh	r3, [r0, #4]	@ movhi
 3312              		.loc 1 2257 0
 3313 0008 C380     		strh	r3, [r0, #6]	@ movhi
 3314              		.loc 1 2258 0
 3315 000a 0381     		strh	r3, [r0, #8]	@ movhi
 3316              		.loc 1 2259 0
 3317 000c 4381     		strh	r3, [r0, #10]	@ movhi
 3318              		.loc 1 2260 0
 3319 000e 8381     		strh	r3, [r0, #12]	@ movhi
 3320 0010 7047     		bx	lr
 3321              		.cfi_endproc
 3322              	.LFE185:
 3323              		.size	TIM_BDTRStructInit, .-TIM_BDTRStructInit
 3324 0012 00BF     		.section	.text.TIM_CtrlPWMOutputs,"ax",%progbits
 3325              		.align	2
 3326              		.p2align 4,,15
 3327              		.global	TIM_CtrlPWMOutputs
 3328              		.thumb
 3329              		.thumb_func
 3330              		.type	TIM_CtrlPWMOutputs, %function
 3331              	TIM_CtrlPWMOutputs:
 3332              	.LFB186:
 3333              		.loc 1 2271 0
 3334              		.cfi_startproc
 3335              		@ args = 0, pretend = 0, frame = 0
 3336              		@ frame_needed = 0, uses_anonymous_args = 0
 3337              		@ link register save eliminated.
 3338              	.LVL330:
 3339              		.loc 1 2279 0
 3340 0000 436C     		ldr	r3, [r0, #68]
 3341              		.loc 1 2276 0
 3342 0002 19B9     		cbnz	r1, .L169
 3343              		.loc 1 2284 0
 3344 0004 C3F30E03 		ubfx	r3, r3, #0, #15
 3345 0008 4364     		str	r3, [r0, #68]
 3346 000a 7047     		bx	lr
 3347              	.L169:
 3348              		.loc 1 2279 0
 3349 000c 43F40043 		orr	r3, r3, #32768
 3350 0010 4364     		str	r3, [r0, #68]
 3351 0012 7047     		bx	lr
 3352              		.cfi_endproc
 3353              	.LFE186:
 3354              		.size	TIM_CtrlPWMOutputs, .-TIM_CtrlPWMOutputs
 3355              		.section	.text.TIM_SelectCOM,"ax",%progbits
 3356              		.align	2
 3357              		.p2align 4,,15
 3358              		.global	TIM_SelectCOM
 3359              		.thumb
 3360              		.thumb_func
 3361              		.type	TIM_SelectCOM, %function
 3362              	TIM_SelectCOM:
 3363              	.LFB187:
ARM GAS  /var/folders/m4/4md61f0s1_g0rzfghffqnxvr0000gn/T//ccSRVwbo.s 			page 60


 3364              		.loc 1 2296 0
 3365              		.cfi_startproc
 3366              		@ args = 0, pretend = 0, frame = 0
 3367              		@ frame_needed = 0, uses_anonymous_args = 0
 3368              		@ link register save eliminated.
 3369              	.LVL331:
 3370              		.loc 1 2301 0
 3371 0000 29B9     		cbnz	r1, .L173
 3372              		.loc 1 2309 0
 3373 0002 4268     		ldr	r2, [r0, #4]
 3374 0004 4FF6FB73 		movw	r3, #65531
 3375 0008 1340     		ands	r3, r3, r2
 3376 000a 4360     		str	r3, [r0, #4]
 3377 000c 7047     		bx	lr
 3378              	.L173:
 3379              		.loc 1 2304 0
 3380 000e 4368     		ldr	r3, [r0, #4]
 3381 0010 43F00403 		orr	r3, r3, #4
 3382 0014 4360     		str	r3, [r0, #4]
 3383 0016 7047     		bx	lr
 3384              		.cfi_endproc
 3385              	.LFE187:
 3386              		.size	TIM_SelectCOM, .-TIM_SelectCOM
 3387              		.section	.text.TIM_CCPreloadControl,"ax",%progbits
 3388              		.align	2
 3389              		.p2align 4,,15
 3390              		.global	TIM_CCPreloadControl
 3391              		.thumb
 3392              		.thumb_func
 3393              		.type	TIM_CCPreloadControl, %function
 3394              	TIM_CCPreloadControl:
 3395              	.LFB188:
 3396              		.loc 1 2321 0
 3397              		.cfi_startproc
 3398              		@ args = 0, pretend = 0, frame = 0
 3399              		@ frame_needed = 0, uses_anonymous_args = 0
 3400              		@ link register save eliminated.
 3401              	.LVL332:
 3402              		.loc 1 2325 0
 3403 0000 29B9     		cbnz	r1, .L177
 3404              		.loc 1 2333 0
 3405 0002 4268     		ldr	r2, [r0, #4]
 3406 0004 4FF6FE73 		movw	r3, #65534
 3407 0008 1340     		ands	r3, r3, r2
 3408 000a 4360     		str	r3, [r0, #4]
 3409 000c 7047     		bx	lr
 3410              	.L177:
 3411              		.loc 1 2328 0
 3412 000e 4368     		ldr	r3, [r0, #4]
 3413 0010 43F00103 		orr	r3, r3, #1
 3414 0014 4360     		str	r3, [r0, #4]
 3415 0016 7047     		bx	lr
 3416              		.cfi_endproc
 3417              	.LFE188:
 3418              		.size	TIM_CCPreloadControl, .-TIM_CCPreloadControl
 3419              		.section	.text.TIM_GenerateEvent,"ax",%progbits
 3420              		.align	2
ARM GAS  /var/folders/m4/4md61f0s1_g0rzfghffqnxvr0000gn/T//ccSRVwbo.s 			page 61


 3421              		.p2align 4,,15
 3422              		.global	TIM_GenerateEvent
 3423              		.thumb
 3424              		.thumb_func
 3425              		.type	TIM_GenerateEvent, %function
 3426              	TIM_GenerateEvent:
 3427              	.LFB190:
 3428              		.loc 1 2416 0
 3429              		.cfi_startproc
 3430              		@ args = 0, pretend = 0, frame = 0
 3431              		@ frame_needed = 0, uses_anonymous_args = 0
 3432              		@ link register save eliminated.
 3433              	.LVL333:
 3434              		.loc 1 2422 0
 3435 0000 4161     		str	r1, [r0, #20]
 3436 0002 7047     		bx	lr
 3437              		.cfi_endproc
 3438              	.LFE190:
 3439              		.size	TIM_GenerateEvent, .-TIM_GenerateEvent
 3440              		.section	.text.TIM_GetFlagStatus,"ax",%progbits
 3441              		.align	2
 3442              		.p2align 4,,15
 3443              		.global	TIM_GetFlagStatus
 3444              		.thumb
 3445              		.thumb_func
 3446              		.type	TIM_GetFlagStatus, %function
 3447              	TIM_GetFlagStatus:
 3448              	.LFB191:
 3449              		.loc 1 2449 0
 3450              		.cfi_startproc
 3451              		@ args = 0, pretend = 0, frame = 0
 3452              		@ frame_needed = 0, uses_anonymous_args = 0
 3453              		@ link register save eliminated.
 3454              	.LVL334:
 3455              		.loc 1 2456 0
 3456 0000 0369     		ldr	r3, [r0, #16]
 3457              	.LVL335:
 3458              		.loc 1 2464 0
 3459 0002 1942     		tst	r1, r3
 3460              		.loc 1 2465 0
 3461 0004 14BF     		ite	ne
 3462 0006 0120     		movne	r0, #1
 3463              	.LVL336:
 3464 0008 0020     		moveq	r0, #0
 3465 000a 7047     		bx	lr
 3466              		.cfi_endproc
 3467              	.LFE191:
 3468              		.size	TIM_GetFlagStatus, .-TIM_GetFlagStatus
 3469              		.section	.text.TIM_ClearFlag,"ax",%progbits
 3470              		.align	2
 3471              		.p2align 4,,15
 3472              		.global	TIM_ClearFlag
 3473              		.thumb
 3474              		.thumb_func
 3475              		.type	TIM_ClearFlag, %function
 3476              	TIM_ClearFlag:
 3477              	.LFB218:
ARM GAS  /var/folders/m4/4md61f0s1_g0rzfghffqnxvr0000gn/T//ccSRVwbo.s 			page 62


 3478              		.cfi_startproc
 3479              		@ args = 0, pretend = 0, frame = 0
 3480              		@ frame_needed = 0, uses_anonymous_args = 0
 3481              		@ link register save eliminated.
 3482 0000 C943     		mvns	r1, r1
 3483 0002 89B2     		uxth	r1, r1
 3484 0004 0161     		str	r1, [r0, #16]
 3485 0006 7047     		bx	lr
 3486              		.cfi_endproc
 3487              	.LFE218:
 3488              		.size	TIM_ClearFlag, .-TIM_ClearFlag
 3489              		.section	.text.TIM_GetITStatus,"ax",%progbits
 3490              		.align	2
 3491              		.p2align 4,,15
 3492              		.global	TIM_GetITStatus
 3493              		.thumb
 3494              		.thumb_func
 3495              		.type	TIM_GetITStatus, %function
 3496              	TIM_GetITStatus:
 3497              	.LFB193:
 3498              		.loc 1 2519 0
 3499              		.cfi_startproc
 3500              		@ args = 0, pretend = 0, frame = 0
 3501              		@ frame_needed = 0, uses_anonymous_args = 0
 3502              		@ link register save eliminated.
 3503              	.LVL337:
 3504              		.loc 1 2526 0
 3505 0000 0369     		ldr	r3, [r0, #16]
 3506              	.LVL338:
 3507              		.loc 1 2528 0
 3508 0002 C268     		ldr	r2, [r0, #12]
 3509              	.LVL339:
 3510              		.loc 1 2529 0
 3511 0004 11EA0300 		ands	r0, r1, r3
 3512              	.LVL340:
 3513 0008 03D0     		beq	.L182
 3514              		.loc 1 2531 0 discriminator 1
 3515 000a 1142     		tst	r1, r2
 3516 000c 14BF     		ite	ne
 3517 000e 0120     		movne	r0, #1
 3518 0010 0020     		moveq	r0, #0
 3519              	.L182:
 3520              	.LVL341:
 3521              		.loc 1 2538 0
 3522 0012 7047     		bx	lr
 3523              		.cfi_endproc
 3524              	.LFE193:
 3525              		.size	TIM_GetITStatus, .-TIM_GetITStatus
 3526              		.section	.text.TIM_ClearITPendingBit,"ax",%progbits
 3527              		.align	2
 3528              		.p2align 4,,15
 3529              		.global	TIM_ClearITPendingBit
 3530              		.thumb
 3531              		.thumb_func
 3532              		.type	TIM_ClearITPendingBit, %function
 3533              	TIM_ClearITPendingBit:
 3534              	.LFB194:
ARM GAS  /var/folders/m4/4md61f0s1_g0rzfghffqnxvr0000gn/T//ccSRVwbo.s 			page 63


 3535              		.loc 1 2560 0
 3536              		.cfi_startproc
 3537              		@ args = 0, pretend = 0, frame = 0
 3538              		@ frame_needed = 0, uses_anonymous_args = 0
 3539              		@ link register save eliminated.
 3540              	.LVL342:
 3541              		.loc 1 2565 0
 3542 0000 C943     		mvns	r1, r1
 3543              	.LVL343:
 3544 0002 89B2     		uxth	r1, r1
 3545 0004 0161     		str	r1, [r0, #16]
 3546 0006 7047     		bx	lr
 3547              		.cfi_endproc
 3548              	.LFE194:
 3549              		.size	TIM_ClearITPendingBit, .-TIM_ClearITPendingBit
 3550              		.section	.text.TIM_DMAConfig,"ax",%progbits
 3551              		.align	2
 3552              		.p2align 4,,15
 3553              		.global	TIM_DMAConfig
 3554              		.thumb
 3555              		.thumb_func
 3556              		.type	TIM_DMAConfig, %function
 3557              	TIM_DMAConfig:
 3558              	.LFB195:
 3559              		.loc 1 2597 0
 3560              		.cfi_startproc
 3561              		@ args = 0, pretend = 0, frame = 0
 3562              		@ frame_needed = 0, uses_anonymous_args = 0
 3563              		@ link register save eliminated.
 3564              	.LVL344:
 3565              		.loc 1 2604 0
 3566 0000 0A43     		orrs	r2, r2, r1
 3567              	.LVL345:
 3568 0002 8264     		str	r2, [r0, #72]
 3569 0004 7047     		bx	lr
 3570              		.cfi_endproc
 3571              	.LFE195:
 3572              		.size	TIM_DMAConfig, .-TIM_DMAConfig
 3573 0006 00BF     		.section	.text.TIM_DMACmd,"ax",%progbits
 3574              		.align	2
 3575              		.p2align 4,,15
 3576              		.global	TIM_DMACmd
 3577              		.thumb
 3578              		.thumb_func
 3579              		.type	TIM_DMACmd, %function
 3580              	TIM_DMACmd:
 3581              	.LFB196:
 3582              		.loc 1 2624 0
 3583              		.cfi_startproc
 3584              		@ args = 0, pretend = 0, frame = 0
 3585              		@ frame_needed = 0, uses_anonymous_args = 0
 3586              		@ link register save eliminated.
 3587              	.LVL346:
 3588              		.loc 1 2630 0
 3589 0000 2AB9     		cbnz	r2, .L189
 3590              		.loc 1 2638 0
 3591 0002 C368     		ldr	r3, [r0, #12]
ARM GAS  /var/folders/m4/4md61f0s1_g0rzfghffqnxvr0000gn/T//ccSRVwbo.s 			page 64


 3592 0004 C943     		mvns	r1, r1
 3593              	.LVL347:
 3594 0006 89B2     		uxth	r1, r1
 3595 0008 1940     		ands	r1, r1, r3
 3596 000a C160     		str	r1, [r0, #12]
 3597 000c 7047     		bx	lr
 3598              	.LVL348:
 3599              	.L189:
 3600              		.loc 1 2633 0
 3601 000e C368     		ldr	r3, [r0, #12]
 3602 0010 1943     		orrs	r1, r1, r3
 3603              	.LVL349:
 3604 0012 C160     		str	r1, [r0, #12]
 3605 0014 7047     		bx	lr
 3606              		.cfi_endproc
 3607              	.LFE196:
 3608              		.size	TIM_DMACmd, .-TIM_DMACmd
 3609 0016 00BF     		.section	.text.TIM_ITConfig,"ax",%progbits
 3610              		.align	2
 3611              		.p2align 4,,15
 3612              		.global	TIM_ITConfig
 3613              		.thumb
 3614              		.thumb_func
 3615              		.type	TIM_ITConfig, %function
 3616              	TIM_ITConfig:
 3617              	.LFB216:
 3618              		.cfi_startproc
 3619              		@ args = 0, pretend = 0, frame = 0
 3620              		@ frame_needed = 0, uses_anonymous_args = 0
 3621              		@ link register save eliminated.
 3622 0000 FFF7FEBF 		b	TIM_DMACmd
 3623              		.cfi_endproc
 3624              	.LFE216:
 3625              		.size	TIM_ITConfig, .-TIM_ITConfig
 3626              		.section	.text.TIM_SelectCCDMA,"ax",%progbits
 3627              		.align	2
 3628              		.p2align 4,,15
 3629              		.global	TIM_SelectCCDMA
 3630              		.thumb
 3631              		.thumb_func
 3632              		.type	TIM_SelectCCDMA, %function
 3633              	TIM_SelectCCDMA:
 3634              	.LFB197:
 3635              		.loc 1 2650 0
 3636              		.cfi_startproc
 3637              		@ args = 0, pretend = 0, frame = 0
 3638              		@ frame_needed = 0, uses_anonymous_args = 0
 3639              		@ link register save eliminated.
 3640              	.LVL350:
 3641              		.loc 1 2655 0
 3642 0000 29B9     		cbnz	r1, .L194
 3643              		.loc 1 2663 0
 3644 0002 4268     		ldr	r2, [r0, #4]
 3645 0004 4FF6F773 		movw	r3, #65527
 3646 0008 1340     		ands	r3, r3, r2
 3647 000a 4360     		str	r3, [r0, #4]
 3648 000c 7047     		bx	lr
ARM GAS  /var/folders/m4/4md61f0s1_g0rzfghffqnxvr0000gn/T//ccSRVwbo.s 			page 65


 3649              	.L194:
 3650              		.loc 1 2658 0
 3651 000e 4368     		ldr	r3, [r0, #4]
 3652 0010 43F00803 		orr	r3, r3, #8
 3653 0014 4360     		str	r3, [r0, #4]
 3654 0016 7047     		bx	lr
 3655              		.cfi_endproc
 3656              	.LFE197:
 3657              		.size	TIM_SelectCCDMA, .-TIM_SelectCCDMA
 3658              		.section	.text.TIM_InternalClockConfig,"ax",%progbits
 3659              		.align	2
 3660              		.p2align 4,,15
 3661              		.global	TIM_InternalClockConfig
 3662              		.thumb
 3663              		.thumb_func
 3664              		.type	TIM_InternalClockConfig, %function
 3665              	TIM_InternalClockConfig:
 3666              	.LFB198:
 3667              		.loc 1 2689 0
 3668              		.cfi_startproc
 3669              		@ args = 0, pretend = 0, frame = 0
 3670              		@ frame_needed = 0, uses_anonymous_args = 0
 3671              		@ link register save eliminated.
 3672              	.LVL351:
 3673              		.loc 1 2694 0
 3674 0000 8268     		ldr	r2, [r0, #8]
 3675 0002 4FF6F873 		movw	r3, #65528
 3676 0006 1340     		ands	r3, r3, r2
 3677 0008 8360     		str	r3, [r0, #8]
 3678 000a 7047     		bx	lr
 3679              		.cfi_endproc
 3680              	.LFE198:
 3681              		.size	TIM_InternalClockConfig, .-TIM_InternalClockConfig
 3682              		.section	.text.TIM_ITRxExternalClockConfig,"ax",%progbits
 3683              		.align	2
 3684              		.p2align 4,,15
 3685              		.global	TIM_ITRxExternalClockConfig
 3686              		.thumb
 3687              		.thumb_func
 3688              		.type	TIM_ITRxExternalClockConfig, %function
 3689              	TIM_ITRxExternalClockConfig:
 3690              	.LFB199:
 3691              		.loc 1 2710 0
 3692              		.cfi_startproc
 3693              		@ args = 0, pretend = 0, frame = 0
 3694              		@ frame_needed = 0, uses_anonymous_args = 0
 3695              		@ link register save eliminated.
 3696              	.LVL352:
 3697              	.LBB88:
 3698              	.LBB89:
 3699              		.loc 1 2906 0
 3700 0000 8268     		ldr	r2, [r0, #8]
 3701              	.LVL353:
 3702              		.loc 1 2909 0
 3703 0002 4FF68F73 		movw	r3, #65423
 3704 0006 1340     		ands	r3, r3, r2
 3705              	.LVL354:
ARM GAS  /var/folders/m4/4md61f0s1_g0rzfghffqnxvr0000gn/T//ccSRVwbo.s 			page 66


 3706              		.loc 1 2915 0
 3707 0008 1943     		orrs	r1, r1, r3
 3708              	.LVL355:
 3709 000a 8160     		str	r1, [r0, #8]
 3710              	.LVL356:
 3711              	.LBE89:
 3712              	.LBE88:
 3713              		.loc 1 2719 0
 3714 000c 8368     		ldr	r3, [r0, #8]
 3715 000e 43F00703 		orr	r3, r3, #7
 3716 0012 8360     		str	r3, [r0, #8]
 3717 0014 7047     		bx	lr
 3718              		.cfi_endproc
 3719              	.LFE199:
 3720              		.size	TIM_ITRxExternalClockConfig, .-TIM_ITRxExternalClockConfig
 3721 0016 00BF     		.section	.text.TIM_TIxExternalClockConfig,"ax",%progbits
 3722              		.align	2
 3723              		.p2align 4,,15
 3724              		.global	TIM_TIxExternalClockConfig
 3725              		.thumb
 3726              		.thumb_func
 3727              		.type	TIM_TIxExternalClockConfig, %function
 3728              	TIM_TIxExternalClockConfig:
 3729              	.LFB200:
 3730              		.loc 1 2741 0
 3731              		.cfi_startproc
 3732              		@ args = 0, pretend = 0, frame = 0
 3733              		@ frame_needed = 0, uses_anonymous_args = 0
 3734              		@ link register save eliminated.
 3735              	.LVL357:
 3736              		.loc 1 2748 0
 3737 0000 6029     		cmp	r1, #96
 3738              		.loc 1 2741 0
 3739 0002 70B4     		push	{r4, r5, r6}
 3740              		.cfi_def_cfa_offset 12
 3741              		.cfi_offset 4, -12
 3742              		.cfi_offset 5, -8
 3743              		.cfi_offset 6, -4
 3744              	.LBB90:
 3745              	.LBB91:
 3746              		.loc 1 3256 0
 3747 0004 056A     		ldr	r5, [r0, #32]
 3748              	.LBE91:
 3749              	.LBE90:
 3750              		.loc 1 2748 0
 3751 0006 21D0     		beq	.L201
 3752              	.LVL358:
 3753              	.LBB93:
 3754              	.LBB94:
 3755              		.loc 1 3215 0
 3756 0008 4FF6FE74 		movw	r4, #65534
 3757 000c 2C40     		ands	r4, r4, r5
 3758 000e 0462     		str	r4, [r0, #32]
 3759              		.loc 1 3216 0
 3760 0010 8469     		ldr	r4, [r0, #24]
 3761              		.loc 1 3217 0
 3762 0012 056A     		ldr	r5, [r0, #32]
ARM GAS  /var/folders/m4/4md61f0s1_g0rzfghffqnxvr0000gn/T//ccSRVwbo.s 			page 67


 3763              		.loc 1 3216 0
 3764 0014 A4B2     		uxth	r4, r4
 3765              	.LVL359:
 3766 0016 24F0F304 		bic	r4, r4, #243
 3767              	.LVL360:
 3768              		.loc 1 3217 0
 3769 001a ADB2     		uxth	r5, r5
 3770              	.LVL361:
 3771 001c 44F00104 		orr	r4, r4, #1
 3772              	.LVL362:
 3773 0020 25F00A05 		bic	r5, r5, #10
 3774              	.LVL363:
 3775              		.loc 1 3228 0
 3776 0024 44EA0313 		orr	r3, r4, r3, lsl #4
 3777              	.LVL364:
 3778 0028 45F00104 		orr	r4, r5, #1
 3779              	.LVL365:
 3780 002c 9BB2     		uxth	r3, r3
 3781              		.loc 1 3229 0
 3782 002e 2243     		orrs	r2, r2, r4
 3783              	.LVL366:
 3784              		.loc 1 3228 0
 3785 0030 8361     		str	r3, [r0, #24]
 3786              		.loc 1 3229 0
 3787 0032 0262     		str	r2, [r0, #32]
 3788              	.LVL367:
 3789              	.L199:
 3790              	.LBE94:
 3791              	.LBE93:
 3792              	.LBB95:
 3793              	.LBB96:
 3794              		.loc 1 2906 0
 3795 0034 8268     		ldr	r2, [r0, #8]
 3796              	.LVL368:
 3797              		.loc 1 2909 0
 3798 0036 4FF68F73 		movw	r3, #65423
 3799 003a 1340     		ands	r3, r3, r2
 3800              	.LVL369:
 3801              		.loc 1 2915 0
 3802 003c 1943     		orrs	r1, r1, r3
 3803              	.LVL370:
 3804 003e 8160     		str	r1, [r0, #8]
 3805              	.LVL371:
 3806              	.LBE96:
 3807              	.LBE95:
 3808              		.loc 1 2759 0
 3809 0040 8368     		ldr	r3, [r0, #8]
 3810 0042 43F00703 		orr	r3, r3, #7
 3811 0046 8360     		str	r3, [r0, #8]
 3812              		.loc 1 2760 0
 3813 0048 70BC     		pop	{r4, r5, r6}
 3814              		.cfi_remember_state
 3815              		.cfi_restore 6
 3816              		.cfi_restore 5
 3817              		.cfi_restore 4
 3818              		.cfi_def_cfa_offset 0
 3819 004a 7047     		bx	lr
ARM GAS  /var/folders/m4/4md61f0s1_g0rzfghffqnxvr0000gn/T//ccSRVwbo.s 			page 68


 3820              	.LVL372:
 3821              	.L201:
 3822              		.cfi_restore_state
 3823              	.LBB97:
 3824              	.LBB92:
 3825              		.loc 1 3256 0
 3826 004c 4FF6EF74 		movw	r4, #65519
 3827 0050 2C40     		ands	r4, r4, r5
 3828 0052 0462     		str	r4, [r0, #32]
 3829              		.loc 1 3257 0
 3830 0054 8669     		ldr	r6, [r0, #24]
 3831              	.LVL373:
 3832              		.loc 1 3258 0
 3833 0056 046A     		ldr	r4, [r0, #32]
 3834 0058 40F6FF45 		movw	r5, #3327
 3835 005c A4B2     		uxth	r4, r4
 3836              	.LVL374:
 3837 005e 3540     		ands	r5, r5, r6
 3838 0060 24F0A004 		bic	r4, r4, #160
 3839              	.LVL375:
 3840 0064 45F48075 		orr	r5, r5, #256
 3841              	.LVL376:
 3842 0068 44F01004 		orr	r4, r4, #16
 3843              	.LVL377:
 3844              		.loc 1 3271 0
 3845 006c 45EA0333 		orr	r3, r5, r3, lsl #12
 3846              	.LVL378:
 3847              		.loc 1 3272 0
 3848 0070 44EA0212 		orr	r2, r4, r2, lsl #4
 3849              	.LVL379:
 3850              		.loc 1 3271 0
 3851 0074 9BB2     		uxth	r3, r3
 3852              		.loc 1 3272 0
 3853 0076 92B2     		uxth	r2, r2
 3854              		.loc 1 3271 0
 3855 0078 8361     		str	r3, [r0, #24]
 3856              		.loc 1 3272 0
 3857 007a 0262     		str	r2, [r0, #32]
 3858 007c DAE7     		b	.L199
 3859              	.LBE92:
 3860              	.LBE97:
 3861              		.cfi_endproc
 3862              	.LFE200:
 3863              		.size	TIM_TIxExternalClockConfig, .-TIM_TIxExternalClockConfig
 3864 007e 00BF     		.section	.text.TIM_ETRClockMode1Config,"ax",%progbits
 3865              		.align	2
 3866              		.p2align 4,,15
 3867              		.global	TIM_ETRClockMode1Config
 3868              		.thumb
 3869              		.thumb_func
 3870              		.type	TIM_ETRClockMode1Config, %function
 3871              	TIM_ETRClockMode1Config:
 3872              	.LFB201:
 3873              		.loc 1 2781 0
 3874              		.cfi_startproc
 3875              		@ args = 0, pretend = 0, frame = 0
 3876              		@ frame_needed = 0, uses_anonymous_args = 0
ARM GAS  /var/folders/m4/4md61f0s1_g0rzfghffqnxvr0000gn/T//ccSRVwbo.s 			page 69


 3877              		@ link register save eliminated.
 3878              	.LVL380:
 3879 0000 10B4     		push	{r4}
 3880              		.cfi_def_cfa_offset 4
 3881              		.cfi_offset 4, -4
 3882              	.LBB98:
 3883              	.LBB99:
 3884              		.loc 1 3028 0
 3885 0002 8468     		ldr	r4, [r0, #8]
 3886              	.LVL381:
 3887 0004 42EA0323 		orr	r3, r2, r3, lsl #8
 3888              	.LVL382:
 3889 0008 E4B2     		uxtb	r4, r4
 3890              	.LVL383:
 3891 000a 2343     		orrs	r3, r3, r4
 3892 000c 9BB2     		uxth	r3, r3
 3893              	.LVL384:
 3894              		.loc 1 3037 0
 3895 000e 1943     		orrs	r1, r1, r3
 3896              	.LVL385:
 3897 0010 8160     		str	r1, [r0, #8]
 3898              	.LVL386:
 3899              	.LBE99:
 3900              	.LBE98:
 3901              		.loc 1 2793 0
 3902 0012 8368     		ldr	r3, [r0, #8]
 3903              	.LVL387:
 3904              		.loc 1 2807 0
 3905 0014 5DF8044B 		ldr	r4, [sp], #4
 3906              		.cfi_restore 4
 3907              		.cfi_def_cfa_offset 0
 3908 0018 23F07703 		bic	r3, r3, #119
 3909              	.LVL388:
 3910 001c 9BB2     		uxth	r3, r3
 3911              	.LVL389:
 3912              		.loc 1 2806 0
 3913 001e 43F07703 		orr	r3, r3, #119
 3914              	.LVL390:
 3915 0022 8360     		str	r3, [r0, #8]
 3916              		.loc 1 2807 0
 3917 0024 7047     		bx	lr
 3918              		.cfi_endproc
 3919              	.LFE201:
 3920              		.size	TIM_ETRClockMode1Config, .-TIM_ETRClockMode1Config
 3921 0026 00BF     		.section	.text.TIM_ETRClockMode2Config,"ax",%progbits
 3922              		.align	2
 3923              		.p2align 4,,15
 3924              		.global	TIM_ETRClockMode2Config
 3925              		.thumb
 3926              		.thumb_func
 3927              		.type	TIM_ETRClockMode2Config, %function
 3928              	TIM_ETRClockMode2Config:
 3929              	.LFB202:
 3930              		.loc 1 2828 0
 3931              		.cfi_startproc
 3932              		@ args = 0, pretend = 0, frame = 0
 3933              		@ frame_needed = 0, uses_anonymous_args = 0
ARM GAS  /var/folders/m4/4md61f0s1_g0rzfghffqnxvr0000gn/T//ccSRVwbo.s 			page 70


 3934              		@ link register save eliminated.
 3935              	.LVL391:
 3936 0000 10B4     		push	{r4}
 3937              		.cfi_def_cfa_offset 4
 3938              		.cfi_offset 4, -4
 3939              	.LBB100:
 3940              	.LBB101:
 3941              		.loc 1 3028 0
 3942 0002 8468     		ldr	r4, [r0, #8]
 3943              	.LVL392:
 3944 0004 42EA0323 		orr	r3, r2, r3, lsl #8
 3945              	.LVL393:
 3946 0008 E4B2     		uxtb	r4, r4
 3947              	.LVL394:
 3948 000a 2343     		orrs	r3, r3, r4
 3949 000c 9BB2     		uxth	r3, r3
 3950              	.LVL395:
 3951              		.loc 1 3037 0
 3952 000e 1943     		orrs	r1, r1, r3
 3953              	.LVL396:
 3954 0010 8160     		str	r1, [r0, #8]
 3955              	.LVL397:
 3956              	.LBE101:
 3957              	.LBE100:
 3958              		.loc 1 2839 0
 3959 0012 8368     		ldr	r3, [r0, #8]
 3960              		.loc 1 2840 0
 3961 0014 5DF8044B 		ldr	r4, [sp], #4
 3962              		.cfi_restore 4
 3963              		.cfi_def_cfa_offset 0
 3964              		.loc 1 2839 0
 3965 0018 43F48043 		orr	r3, r3, #16384
 3966 001c 8360     		str	r3, [r0, #8]
 3967              		.loc 1 2840 0
 3968 001e 7047     		bx	lr
 3969              		.cfi_endproc
 3970              	.LFE202:
 3971              		.size	TIM_ETRClockMode2Config, .-TIM_ETRClockMode2Config
 3972              		.section	.text.TIM_SelectInputTrigger,"ax",%progbits
 3973              		.align	2
 3974              		.p2align 4,,15
 3975              		.global	TIM_SelectInputTrigger
 3976              		.thumb
 3977              		.thumb_func
 3978              		.type	TIM_SelectInputTrigger, %function
 3979              	TIM_SelectInputTrigger:
 3980              	.LFB203:
 3981              		.loc 1 2898 0
 3982              		.cfi_startproc
 3983              		@ args = 0, pretend = 0, frame = 0
 3984              		@ frame_needed = 0, uses_anonymous_args = 0
 3985              		@ link register save eliminated.
 3986              	.LVL398:
 3987              		.loc 1 2906 0
 3988 0000 8268     		ldr	r2, [r0, #8]
 3989              	.LVL399:
 3990              		.loc 1 2909 0
ARM GAS  /var/folders/m4/4md61f0s1_g0rzfghffqnxvr0000gn/T//ccSRVwbo.s 			page 71


 3991 0002 4FF68F73 		movw	r3, #65423
 3992 0006 1340     		ands	r3, r3, r2
 3993              	.LVL400:
 3994              		.loc 1 2915 0
 3995 0008 1943     		orrs	r1, r1, r3
 3996              	.LVL401:
 3997 000a 8160     		str	r1, [r0, #8]
 3998 000c 7047     		bx	lr
 3999              		.cfi_endproc
 4000              	.LFE203:
 4001              		.size	TIM_SelectInputTrigger, .-TIM_SelectInputTrigger
 4002 000e 00BF     		.section	.text.TIM_SelectOutputTrigger,"ax",%progbits
 4003              		.align	2
 4004              		.p2align 4,,15
 4005              		.global	TIM_SelectOutputTrigger
 4006              		.thumb
 4007              		.thumb_func
 4008              		.type	TIM_SelectOutputTrigger, %function
 4009              	TIM_SelectOutputTrigger:
 4010              	.LFB204:
 4011              		.loc 1 2941 0
 4012              		.cfi_startproc
 4013              		@ args = 0, pretend = 0, frame = 0
 4014              		@ frame_needed = 0, uses_anonymous_args = 0
 4015              		@ link register save eliminated.
 4016              	.LVL402:
 4017              		.loc 1 2947 0
 4018 0000 4268     		ldr	r2, [r0, #4]
 4019 0002 4FF68F73 		movw	r3, #65423
 4020 0006 1340     		ands	r3, r3, r2
 4021 0008 4360     		str	r3, [r0, #4]
 4022              		.loc 1 2949 0
 4023 000a 4368     		ldr	r3, [r0, #4]
 4024 000c 1943     		orrs	r1, r1, r3
 4025              	.LVL403:
 4026 000e 4160     		str	r1, [r0, #4]
 4027 0010 7047     		bx	lr
 4028              		.cfi_endproc
 4029              	.LFE204:
 4030              		.size	TIM_SelectOutputTrigger, .-TIM_SelectOutputTrigger
 4031 0012 00BF     		.section	.text.TIM_SelectSlaveMode,"ax",%progbits
 4032              		.align	2
 4033              		.p2align 4,,15
 4034              		.global	TIM_SelectSlaveMode
 4035              		.thumb
 4036              		.thumb_func
 4037              		.type	TIM_SelectSlaveMode, %function
 4038              	TIM_SelectSlaveMode:
 4039              	.LFB205:
 4040              		.loc 1 2965 0
 4041              		.cfi_startproc
 4042              		@ args = 0, pretend = 0, frame = 0
 4043              		@ frame_needed = 0, uses_anonymous_args = 0
 4044              		@ link register save eliminated.
 4045              	.LVL404:
 4046              		.loc 1 2971 0
 4047 0000 8268     		ldr	r2, [r0, #8]
ARM GAS  /var/folders/m4/4md61f0s1_g0rzfghffqnxvr0000gn/T//ccSRVwbo.s 			page 72


 4048 0002 4FF6F873 		movw	r3, #65528
 4049 0006 1340     		ands	r3, r3, r2
 4050 0008 8360     		str	r3, [r0, #8]
 4051              		.loc 1 2974 0
 4052 000a 8368     		ldr	r3, [r0, #8]
 4053 000c 1943     		orrs	r1, r1, r3
 4054              	.LVL405:
 4055 000e 8160     		str	r1, [r0, #8]
 4056 0010 7047     		bx	lr
 4057              		.cfi_endproc
 4058              	.LFE205:
 4059              		.size	TIM_SelectSlaveMode, .-TIM_SelectSlaveMode
 4060 0012 00BF     		.section	.text.TIM_SelectMasterSlaveMode,"ax",%progbits
 4061              		.align	2
 4062              		.p2align 4,,15
 4063              		.global	TIM_SelectMasterSlaveMode
 4064              		.thumb
 4065              		.thumb_func
 4066              		.type	TIM_SelectMasterSlaveMode, %function
 4067              	TIM_SelectMasterSlaveMode:
 4068              	.LFB206:
 4069              		.loc 1 2988 0
 4070              		.cfi_startproc
 4071              		@ args = 0, pretend = 0, frame = 0
 4072              		@ frame_needed = 0, uses_anonymous_args = 0
 4073              		@ link register save eliminated.
 4074              	.LVL406:
 4075              		.loc 1 2994 0
 4076 0000 8268     		ldr	r2, [r0, #8]
 4077 0002 4FF67F73 		movw	r3, #65407
 4078 0006 1340     		ands	r3, r3, r2
 4079 0008 8360     		str	r3, [r0, #8]
 4080              		.loc 1 2997 0
 4081 000a 8368     		ldr	r3, [r0, #8]
 4082 000c 1943     		orrs	r1, r1, r3
 4083              	.LVL407:
 4084 000e 8160     		str	r1, [r0, #8]
 4085 0010 7047     		bx	lr
 4086              		.cfi_endproc
 4087              	.LFE206:
 4088              		.size	TIM_SelectMasterSlaveMode, .-TIM_SelectMasterSlaveMode
 4089 0012 00BF     		.section	.text.TIM_ETRConfig,"ax",%progbits
 4090              		.align	2
 4091              		.p2align 4,,15
 4092              		.global	TIM_ETRConfig
 4093              		.thumb
 4094              		.thumb_func
 4095              		.type	TIM_ETRConfig, %function
 4096              	TIM_ETRConfig:
 4097              	.LFB207:
 4098              		.loc 1 3019 0
 4099              		.cfi_startproc
 4100              		@ args = 0, pretend = 0, frame = 0
 4101              		@ frame_needed = 0, uses_anonymous_args = 0
 4102              		@ link register save eliminated.
 4103              	.LVL408:
 4104 0000 10B4     		push	{r4}
ARM GAS  /var/folders/m4/4md61f0s1_g0rzfghffqnxvr0000gn/T//ccSRVwbo.s 			page 73


 4105              		.cfi_def_cfa_offset 4
 4106              		.cfi_offset 4, -4
 4107              		.loc 1 3028 0
 4108 0002 8468     		ldr	r4, [r0, #8]
 4109              	.LVL409:
 4110 0004 E4B2     		uxtb	r4, r4
 4111              	.LVL410:
 4112 0006 2143     		orrs	r1, r1, r4
 4113              	.LVL411:
 4114 0008 0A43     		orrs	r2, r2, r1
 4115              	.LVL412:
 4116              		.loc 1 3037 0
 4117 000a 42EA0323 		orr	r3, r2, r3, lsl #8
 4118              	.LVL413:
 4119 000e 99B2     		uxth	r1, r3
 4120 0010 8160     		str	r1, [r0, #8]
 4121              		.loc 1 3038 0
 4122 0012 5DF8044B 		ldr	r4, [sp], #4
 4123              		.cfi_restore 4
 4124              		.cfi_def_cfa_offset 0
 4125 0016 7047     		bx	lr
 4126              		.cfi_endproc
 4127              	.LFE207:
 4128              		.size	TIM_ETRConfig, .-TIM_ETRConfig
 4129              		.section	.text.TIM_EncoderInterfaceConfig,"ax",%progbits
 4130              		.align	2
 4131              		.p2align 4,,15
 4132              		.global	TIM_EncoderInterfaceConfig
 4133              		.thumb
 4134              		.thumb_func
 4135              		.type	TIM_EncoderInterfaceConfig, %function
 4136              	TIM_EncoderInterfaceConfig:
 4137              	.LFB208:
 4138              		.loc 1 3077 0
 4139              		.cfi_startproc
 4140              		@ args = 0, pretend = 0, frame = 0
 4141              		@ frame_needed = 0, uses_anonymous_args = 0
 4142              	.LVL414:
 4143 0000 F0B5     		push	{r4, r5, r6, r7, lr}
 4144              		.cfi_def_cfa_offset 20
 4145              		.cfi_offset 4, -20
 4146              		.cfi_offset 5, -16
 4147              		.cfi_offset 6, -12
 4148              		.cfi_offset 7, -8
 4149              		.cfi_offset 14, -4
 4150              		.loc 1 3089 0
 4151 0002 8768     		ldr	r7, [r0, #8]
 4152              	.LVL415:
 4153              		.loc 1 3092 0
 4154 0004 D0F818E0 		ldr	lr, [r0, #24]
 4155              	.LVL416:
 4156              		.loc 1 3095 0
 4157 0008 046A     		ldr	r4, [r0, #32]
 4158 000a A4B2     		uxth	r4, r4
 4159              	.LVL417:
 4160              		.loc 1 3102 0
 4161 000c 4FF6FC45 		movw	r5, #64764
ARM GAS  /var/folders/m4/4md61f0s1_g0rzfghffqnxvr0000gn/T//ccSRVwbo.s 			page 74


 4162 0010 24F02204 		bic	r4, r4, #34
 4163              	.LVL418:
 4164 0014 2243     		orrs	r2, r2, r4
 4165              	.LVL419:
 4166              		.loc 1 3098 0
 4167 0016 4FF6F876 		movw	r6, #65528
 4168              		.loc 1 3102 0
 4169 001a 0EEA0505 		and	r5, lr, r5
 4170              		.loc 1 3098 0
 4171 001e 3E40     		ands	r6, r6, r7
 4172              	.LVL420:
 4173              		.loc 1 3116 0
 4174 0020 42EA0313 		orr	r3, r2, r3, lsl #4
 4175              	.LVL421:
 4176              		.loc 1 3113 0
 4177 0024 45F48075 		orr	r5, r5, #256
 4178              	.LVL422:
 4179              		.loc 1 3110 0
 4180 0028 3143     		orrs	r1, r1, r6
 4181              	.LVL423:
 4182              		.loc 1 3116 0
 4183 002a 9AB2     		uxth	r2, r3
 4184              	.LVL424:
 4185              		.loc 1 3113 0
 4186 002c 45F00105 		orr	r5, r5, #1
 4187              		.loc 1 3110 0
 4188 0030 8160     		str	r1, [r0, #8]
 4189              		.loc 1 3113 0
 4190 0032 8561     		str	r5, [r0, #24]
 4191              		.loc 1 3116 0
 4192 0034 0262     		str	r2, [r0, #32]
 4193 0036 F0BD     		pop	{r4, r5, r6, r7, pc}
 4194              		.cfi_endproc
 4195              	.LFE208:
 4196              		.size	TIM_EncoderInterfaceConfig, .-TIM_EncoderInterfaceConfig
 4197              		.section	.text.TIM_SelectHallSensor,"ax",%progbits
 4198              		.align	2
 4199              		.p2align 4,,15
 4200              		.global	TIM_SelectHallSensor
 4201              		.thumb
 4202              		.thumb_func
 4203              		.type	TIM_SelectHallSensor, %function
 4204              	TIM_SelectHallSensor:
 4205              	.LFB209:
 4206              		.loc 1 3128 0
 4207              		.cfi_startproc
 4208              		@ args = 0, pretend = 0, frame = 0
 4209              		@ frame_needed = 0, uses_anonymous_args = 0
 4210              		@ link register save eliminated.
 4211              	.LVL425:
 4212              		.loc 1 3133 0
 4213 0000 29B9     		cbnz	r1, .L217
 4214              		.loc 1 3141 0
 4215 0002 4268     		ldr	r2, [r0, #4]
 4216 0004 4FF67F73 		movw	r3, #65407
 4217 0008 1340     		ands	r3, r3, r2
 4218 000a 4360     		str	r3, [r0, #4]
ARM GAS  /var/folders/m4/4md61f0s1_g0rzfghffqnxvr0000gn/T//ccSRVwbo.s 			page 75


 4219 000c 7047     		bx	lr
 4220              	.L217:
 4221              		.loc 1 3136 0
 4222 000e 4368     		ldr	r3, [r0, #4]
 4223 0010 43F08003 		orr	r3, r3, #128
 4224 0014 4360     		str	r3, [r0, #4]
 4225 0016 7047     		bx	lr
 4226              		.cfi_endproc
 4227              	.LFE209:
 4228              		.size	TIM_SelectHallSensor, .-TIM_SelectHallSensor
 4229              		.section	.text.TIM_RemapConfig,"ax",%progbits
 4230              		.align	2
 4231              		.p2align 4,,15
 4232              		.global	TIM_RemapConfig
 4233              		.thumb
 4234              		.thumb_func
 4235              		.type	TIM_RemapConfig, %function
 4236              	TIM_RemapConfig:
 4237              	.LFB210:
 4238              		.loc 1 3179 0
 4239              		.cfi_startproc
 4240              		@ args = 0, pretend = 0, frame = 0
 4241              		@ frame_needed = 0, uses_anonymous_args = 0
 4242              		@ link register save eliminated.
 4243              	.LVL426:
 4244              		.loc 1 3185 0
 4245 0000 0165     		str	r1, [r0, #80]
 4246 0002 7047     		bx	lr
 4247              		.cfi_endproc
 4248              	.LFE210:
 4249              		.size	TIM_RemapConfig, .-TIM_RemapConfig
 4250              		.text
 4251              	.Letext0:
 4252              		.file 2 "/opt/homebrew-cask/Caskroom/gcc-arm-embedded/5_2-2015q4,20151219/gcc-arm-none-eabi-5_2-20
 4253              		.file 3 "/opt/homebrew-cask/Caskroom/gcc-arm-embedded/5_2-2015q4,20151219/gcc-arm-none-eabi-5_2-20
 4254              		.file 4 "ChibiOS_16.1.4/os/ext/CMSIS/ST/STM32F4xx/stm32f405xx.h"
 4255              		.file 5 "ChibiOS_16.1.4/os/ext/CMSIS/ST/STM32F4xx/stm32f4xx.h"
 4256              		.file 6 "ChibiOS_16.1.4/ext/stdperiph_stm32f4/inc/stm32f4xx_tim.h"
 4257              		.file 7 "ChibiOS_16.1.4/ext/stdperiph_stm32f4/inc/stm32f4xx_rcc.h"
 4258              		.file 8 "ChibiOS_16.1.4/os/ext/CMSIS/include/core_cm4.h"