ARM GAS  /var/folders/m4/4md61f0s1_g0rzfghffqnxvr0000gn/T//ccWNZ4sA.s 			page 1


   1              		.syntax unified
   2              		.cpu cortex-m4
   3              		.eabi_attribute 27, 1
   4              		.eabi_attribute 28, 1
   5              		.fpu fpv4-sp-d16
   6              		.eabi_attribute 20, 1
   7              		.eabi_attribute 21, 1
   8              		.eabi_attribute 23, 3
   9              		.eabi_attribute 24, 1
  10              		.eabi_attribute 25, 1
  11              		.eabi_attribute 26, 1
  12              		.eabi_attribute 30, 2
  13              		.eabi_attribute 34, 1
  14              		.eabi_attribute 18, 4
  15              		.thumb
  16              		.syntax unified
  17              		.file	"stm32f4xx_dma.c"
  18              		.text
  19              	.Ltext0:
  20              		.cfi_sections	.debug_frame
  21              		.section	.text.DMA_DeInit,"ax",%progbits
  22              		.align	2
  23              		.p2align 4,,15
  24              		.global	DMA_DeInit
  25              		.thumb
  26              		.thumb_func
  27              		.type	DMA_DeInit, %function
  28              	DMA_DeInit:
  29              	.LFB123:
  30              		.file 1 "ChibiOS_16.1.4/ext/stdperiph_stm32f4/src/stm32f4xx_dma.c"
  31              		.loc 1 202 0
  32              		.cfi_startproc
  33              		@ args = 0, pretend = 0, frame = 0
  34              		@ frame_needed = 0, uses_anonymous_args = 0
  35              		@ link register save eliminated.
  36              	.LVL0:
  37              		.loc 1 207 0
  38 0000 0268     		ldr	r2, [r0]
  39              		.loc 1 228 0
  40 0002 3749     		ldr	r1, .L29
  41              		.loc 1 210 0
  42 0004 0023     		movs	r3, #0
  43              		.loc 1 202 0
  44 0006 10B4     		push	{r4}
  45              		.cfi_def_cfa_offset 4
  46              		.cfi_offset 4, -4
  47              		.loc 1 207 0
  48 0008 22F00102 		bic	r2, r2, #1
  49              		.loc 1 225 0
  50 000c 2124     		movs	r4, #33
  51              		.loc 1 228 0
  52 000e 8842     		cmp	r0, r1
  53              		.loc 1 207 0
  54 0010 0260     		str	r2, [r0]
  55              		.loc 1 210 0
  56 0012 0360     		str	r3, [r0]
  57              		.loc 1 213 0
ARM GAS  /var/folders/m4/4md61f0s1_g0rzfghffqnxvr0000gn/T//ccWNZ4sA.s 			page 2


  58 0014 4360     		str	r3, [r0, #4]
  59              		.loc 1 216 0
  60 0016 8360     		str	r3, [r0, #8]
  61              		.loc 1 219 0
  62 0018 C360     		str	r3, [r0, #12]
  63              		.loc 1 222 0
  64 001a 0361     		str	r3, [r0, #16]
  65              		.loc 1 225 0
  66 001c 4461     		str	r4, [r0, #20]
  67              		.loc 1 228 0
  68 001e 4DD0     		beq	.L27
  69              		.loc 1 233 0
  70 0020 304B     		ldr	r3, .L29+4
  71 0022 9842     		cmp	r0, r3
  72 0024 35D0     		beq	.L19
  73              		.loc 1 238 0
  74 0026 304B     		ldr	r3, .L29+8
  75 0028 9842     		cmp	r0, r3
  76 002a 39D0     		beq	.L20
  77              		.loc 1 243 0
  78 002c 2F4B     		ldr	r3, .L29+12
  79 002e 9842     		cmp	r0, r3
  80 0030 3DD0     		beq	.L21
  81              		.loc 1 248 0
  82 0032 2F4B     		ldr	r3, .L29+16
  83 0034 9842     		cmp	r0, r3
  84 0036 47D0     		beq	.L22
  85              		.loc 1 253 0
  86 0038 2E4B     		ldr	r3, .L29+20
  87 003a 9842     		cmp	r0, r3
  88 003c 48D0     		beq	.L23
  89              		.loc 1 258 0
  90 003e 2E4B     		ldr	r3, .L29+24
  91 0040 9842     		cmp	r0, r3
  92 0042 1DD0     		beq	.L24
  93              		.loc 1 263 0
  94 0044 2D4B     		ldr	r3, .L29+28
  95 0046 9842     		cmp	r0, r3
  96 0048 1ED0     		beq	.L25
  97              		.loc 1 268 0
  98 004a 2D4B     		ldr	r3, .L29+32
  99 004c 9842     		cmp	r0, r3
 100 004e 43D0     		beq	.L28
 101              		.loc 1 273 0
 102 0050 2C4B     		ldr	r3, .L29+36
 103 0052 9842     		cmp	r0, r3
 104 0054 1DD0     		beq	.L19
 105              		.loc 1 278 0
 106 0056 2C4B     		ldr	r3, .L29+40
 107 0058 9842     		cmp	r0, r3
 108 005a 21D0     		beq	.L20
 109              		.loc 1 283 0
 110 005c 2B4B     		ldr	r3, .L29+44
 111 005e 9842     		cmp	r0, r3
 112 0060 25D0     		beq	.L21
 113              		.loc 1 288 0
 114 0062 2B4B     		ldr	r3, .L29+48
ARM GAS  /var/folders/m4/4md61f0s1_g0rzfghffqnxvr0000gn/T//ccWNZ4sA.s 			page 3


 115 0064 9842     		cmp	r0, r3
 116 0066 2FD0     		beq	.L22
 117              		.loc 1 293 0
 118 0068 2A4B     		ldr	r3, .L29+52
 119 006a 9842     		cmp	r0, r3
 120 006c 30D0     		beq	.L23
 121              		.loc 1 298 0
 122 006e 2A4B     		ldr	r3, .L29+56
 123 0070 9842     		cmp	r0, r3
 124 0072 05D0     		beq	.L24
 125              		.loc 1 305 0
 126 0074 294B     		ldr	r3, .L29+60
 127 0076 9842     		cmp	r0, r3
 128 0078 06D0     		beq	.L25
 129              	.L1:
 130              		.loc 1 311 0
 131 007a 5DF8044B 		ldr	r4, [sp], #4
 132              		.cfi_remember_state
 133              		.cfi_restore 4
 134              		.cfi_def_cfa_offset 0
 135 007e 7047     		bx	lr
 136              	.L24:
 137              		.cfi_restore_state
 138              		.loc 1 301 0
 139 0080 274A     		ldr	r2, .L29+64
 140 0082 43F8942C 		str	r2, [r3, #-148]
 141 0086 F8E7     		b	.L1
 142              	.L25:
 143              		.loc 1 308 0
 144 0088 4FF03D52 		mov	r2, #792723456
 145 008c 43F8AC2C 		str	r2, [r3, #-172]
 146              		.loc 1 311 0
 147 0090 F3E7     		b	.L1
 148              	.L19:
 149              		.loc 1 276 0
 150 0092 4FF47462 		mov	r2, #3904
 151 0096 43F8202C 		str	r2, [r3, #-32]
 152              		.loc 1 311 0
 153 009a 5DF8044B 		ldr	r4, [sp], #4
 154              		.cfi_remember_state
 155              		.cfi_restore 4
 156              		.cfi_def_cfa_offset 0
 157 009e 7047     		bx	lr
 158              	.L20:
 159              		.cfi_restore_state
 160              		.loc 1 281 0
 161 00a0 4FF47412 		mov	r2, #3997696
 162 00a4 43F8382C 		str	r2, [r3, #-56]
 163              		.loc 1 311 0
 164 00a8 5DF8044B 		ldr	r4, [sp], #4
 165              		.cfi_remember_state
 166              		.cfi_restore 4
 167              		.cfi_def_cfa_offset 0
 168 00ac 7047     		bx	lr
 169              	.L21:
 170              		.cfi_restore_state
 171              		.loc 1 286 0
ARM GAS  /var/folders/m4/4md61f0s1_g0rzfghffqnxvr0000gn/T//ccWNZ4sA.s 			page 4


 172 00ae 4FF07462 		mov	r2, #255852544
 173 00b2 43F8502C 		str	r2, [r3, #-80]
 174              		.loc 1 311 0
 175 00b6 5DF8044B 		ldr	r4, [sp], #4
 176              		.cfi_remember_state
 177              		.cfi_restore 4
 178              		.cfi_def_cfa_offset 0
 179 00ba 7047     		bx	lr
 180              	.L27:
 181              		.cfi_restore_state
 182              		.loc 1 231 0
 183 00bc 194B     		ldr	r3, .L29+68
 184              		.loc 1 311 0
 185 00be 5DF8044B 		ldr	r4, [sp], #4
 186              		.cfi_remember_state
 187              		.cfi_restore 4
 188              		.cfi_def_cfa_offset 0
 189              		.loc 1 231 0
 190 00c2 3D22     		movs	r2, #61
 191 00c4 9A60     		str	r2, [r3, #8]
 192              		.loc 1 311 0
 193 00c6 7047     		bx	lr
 194              	.L22:
 195              		.cfi_restore_state
 196              		.loc 1 291 0
 197 00c8 174A     		ldr	r2, .L29+72
 198 00ca 43F8642C 		str	r2, [r3, #-100]
 199 00ce D4E7     		b	.L1
 200              	.L23:
 201              		.loc 1 296 0
 202 00d0 164A     		ldr	r2, .L29+76
 203 00d2 43F87C2C 		str	r2, [r3, #-124]
 204 00d6 D0E7     		b	.L1
 205              	.L28:
 206              		.loc 1 271 0
 207 00d8 3D22     		movs	r2, #61
 208 00da 43F8082C 		str	r2, [r3, #-8]
 209 00de CCE7     		b	.L1
 210              	.L30:
 211              		.align	2
 212              	.L29:
 213 00e0 10600240 		.word	1073897488
 214 00e4 28600240 		.word	1073897512
 215 00e8 40600240 		.word	1073897536
 216 00ec 58600240 		.word	1073897560
 217 00f0 70600240 		.word	1073897584
 218 00f4 88600240 		.word	1073897608
 219 00f8 A0600240 		.word	1073897632
 220 00fc B8600240 		.word	1073897656
 221 0100 10640240 		.word	1073898512
 222 0104 28640240 		.word	1073898536
 223 0108 40640240 		.word	1073898560
 224 010c 58640240 		.word	1073898584
 225 0110 70640240 		.word	1073898608
 226 0114 88640240 		.word	1073898632
 227 0118 A0640240 		.word	1073898656
 228 011c B8640240 		.word	1073898680
ARM GAS  /var/folders/m4/4md61f0s1_g0rzfghffqnxvr0000gn/T//ccWNZ4sA.s 			page 5


 229 0120 00003D20 		.word	540868608
 230 0124 00600240 		.word	1073897472
 231 0128 3D000020 		.word	536870973
 232 012c 400F0020 		.word	536874816
 233              		.cfi_endproc
 234              	.LFE123:
 235              		.size	DMA_DeInit, .-DMA_DeInit
 236              		.section	.text.DMA_Init,"ax",%progbits
 237              		.align	2
 238              		.p2align 4,,15
 239              		.global	DMA_Init
 240              		.thumb
 241              		.thumb_func
 242              		.type	DMA_Init, %function
 243              	DMA_Init:
 244              	.LFB124:
 245              		.loc 1 325 0
 246              		.cfi_startproc
 247              		@ args = 0, pretend = 0, frame = 0
 248              		@ frame_needed = 0, uses_anonymous_args = 0
 249              		@ link register save eliminated.
 250              	.LVL1:
 251              		.loc 1 365 0
 252 0000 01F11802 		add	r2, r1, #24
 253              		.loc 1 325 0
 254 0004 F0B4     		push	{r4, r5, r6, r7}
 255              		.cfi_def_cfa_offset 16
 256              		.cfi_offset 4, -16
 257              		.cfi_offset 5, -12
 258              		.cfi_offset 6, -8
 259              		.cfi_offset 7, -4
 260              		.loc 1 365 0
 261 0006 8CCA     		ldmia	r2, {r2, r3, r7}
 262 0008 CD68     		ldr	r5, [r1, #12]
 263 000a 0E68     		ldr	r6, [r1]
 264 000c 4C69     		ldr	r4, [r1, #20]
 265 000e 2E43     		orrs	r6, r6, r5
 266 0010 2643     		orrs	r6, r6, r4
 267 0012 1643     		orrs	r6, r6, r2
 268 0014 1E43     		orrs	r6, r6, r3
 269 0016 4A6A     		ldr	r2, [r1, #36]
 270 0018 8B6A     		ldr	r3, [r1, #40]
 271 001a 4D6B     		ldr	r5, [r1, #52]
 272 001c 8C6B     		ldr	r4, [r1, #56]
 273 001e 3E43     		orrs	r6, r6, r7
 274 0020 1643     		orrs	r6, r6, r2
 275 0022 1E43     		orrs	r6, r6, r3
 276              		.loc 1 349 0
 277 0024 0B4A     		ldr	r2, .L33
 278              		.loc 1 346 0
 279 0026 0368     		ldr	r3, [r0]
 280              	.LVL2:
 281              		.loc 1 384 0
 282 0028 CF6A     		ldr	r7, [r1, #44]
 283              		.loc 1 365 0
 284 002a 3543     		orrs	r5, r5, r6
 285 002c 2C43     		orrs	r4, r4, r5
ARM GAS  /var/folders/m4/4md61f0s1_g0rzfghffqnxvr0000gn/T//ccWNZ4sA.s 			page 6


 286              		.loc 1 349 0
 287 002e 1A40     		ands	r2, r2, r3
 288              	.LVL3:
 289              		.loc 1 365 0
 290 0030 2243     		orrs	r2, r2, r4
 291              	.LVL4:
 292              		.loc 1 372 0
 293 0032 0260     		str	r2, [r0]
 294              		.loc 1 384 0
 295 0034 0B6B     		ldr	r3, [r1, #48]
 296              		.loc 1 376 0
 297 0036 4269     		ldr	r2, [r0, #20]
 298              	.LVL5:
 299              		.loc 1 391 0
 300 0038 0D69     		ldr	r5, [r1, #16]
 301              		.loc 1 395 0
 302 003a 4C68     		ldr	r4, [r1, #4]
 303              		.loc 1 399 0
 304 003c 8968     		ldr	r1, [r1, #8]
 305              	.LVL6:
 306              		.loc 1 384 0
 307 003e 3B43     		orrs	r3, r3, r7
 308              		.loc 1 379 0
 309 0040 22F00702 		bic	r2, r2, #7
 310              	.LVL7:
 311              		.loc 1 384 0
 312 0044 1343     		orrs	r3, r3, r2
 313              	.LVL8:
 314              		.loc 1 387 0
 315 0046 4361     		str	r3, [r0, #20]
 316              		.loc 1 391 0
 317 0048 4560     		str	r5, [r0, #4]
 318              		.loc 1 395 0
 319 004a 8460     		str	r4, [r0, #8]
 320              		.loc 1 399 0
 321 004c C160     		str	r1, [r0, #12]
 322              		.loc 1 400 0
 323 004e F0BC     		pop	{r4, r5, r6, r7}
 324              		.cfi_restore 7
 325              		.cfi_restore 6
 326              		.cfi_restore 5
 327              		.cfi_restore 4
 328              		.cfi_def_cfa_offset 0
 329 0050 7047     		bx	lr
 330              	.L34:
 331 0052 00BF     		.align	2
 332              	.L33:
 333 0054 3F801CF0 		.word	-266567617
 334              		.cfi_endproc
 335              	.LFE124:
 336              		.size	DMA_Init, .-DMA_Init
 337              		.section	.text.DMA_StructInit,"ax",%progbits
 338              		.align	2
 339              		.p2align 4,,15
 340              		.global	DMA_StructInit
 341              		.thumb
 342              		.thumb_func
ARM GAS  /var/folders/m4/4md61f0s1_g0rzfghffqnxvr0000gn/T//ccWNZ4sA.s 			page 7


 343              		.type	DMA_StructInit, %function
 344              	DMA_StructInit:
 345              	.LFB125:
 346              		.loc 1 409 0
 347              		.cfi_startproc
 348              		@ args = 0, pretend = 0, frame = 0
 349              		@ frame_needed = 0, uses_anonymous_args = 0
 350              		@ link register save eliminated.
 351              	.LVL9:
 352              		.loc 1 412 0
 353 0000 0023     		movs	r3, #0
 354 0002 0360     		str	r3, [r0]
 355              		.loc 1 415 0
 356 0004 4360     		str	r3, [r0, #4]
 357              		.loc 1 418 0
 358 0006 8360     		str	r3, [r0, #8]
 359              		.loc 1 421 0
 360 0008 C360     		str	r3, [r0, #12]
 361              		.loc 1 424 0
 362 000a 0361     		str	r3, [r0, #16]
 363              		.loc 1 427 0
 364 000c 4361     		str	r3, [r0, #20]
 365              		.loc 1 430 0
 366 000e 8361     		str	r3, [r0, #24]
 367              		.loc 1 433 0
 368 0010 C361     		str	r3, [r0, #28]
 369              		.loc 1 436 0
 370 0012 0362     		str	r3, [r0, #32]
 371              		.loc 1 439 0
 372 0014 4362     		str	r3, [r0, #36]
 373              		.loc 1 442 0
 374 0016 8362     		str	r3, [r0, #40]
 375              		.loc 1 445 0
 376 0018 C362     		str	r3, [r0, #44]
 377              		.loc 1 448 0
 378 001a 0363     		str	r3, [r0, #48]
 379              		.loc 1 451 0
 380 001c 4363     		str	r3, [r0, #52]
 381              		.loc 1 454 0
 382 001e 8363     		str	r3, [r0, #56]
 383 0020 7047     		bx	lr
 384              		.cfi_endproc
 385              	.LFE125:
 386              		.size	DMA_StructInit, .-DMA_StructInit
 387 0022 00BF     		.section	.text.DMA_Cmd,"ax",%progbits
 388              		.align	2
 389              		.p2align 4,,15
 390              		.global	DMA_Cmd
 391              		.thumb
 392              		.thumb_func
 393              		.type	DMA_Cmd, %function
 394              	DMA_Cmd:
 395              	.LFB126:
 396              		.loc 1 484 0
 397              		.cfi_startproc
 398              		@ args = 0, pretend = 0, frame = 0
 399              		@ frame_needed = 0, uses_anonymous_args = 0
ARM GAS  /var/folders/m4/4md61f0s1_g0rzfghffqnxvr0000gn/T//ccWNZ4sA.s 			page 8


 400              		@ link register save eliminated.
 401              	.LVL10:
 402              		.loc 1 492 0
 403 0000 0368     		ldr	r3, [r0]
 404              		.loc 1 489 0
 405 0002 19B9     		cbnz	r1, .L39
 406              		.loc 1 497 0
 407 0004 23F00103 		bic	r3, r3, #1
 408 0008 0360     		str	r3, [r0]
 409 000a 7047     		bx	lr
 410              	.L39:
 411              		.loc 1 492 0
 412 000c 43F00103 		orr	r3, r3, #1
 413 0010 0360     		str	r3, [r0]
 414 0012 7047     		bx	lr
 415              		.cfi_endproc
 416              	.LFE126:
 417              		.size	DMA_Cmd, .-DMA_Cmd
 418              		.section	.text.DMA_PeriphIncOffsetSizeConfig,"ax",%progbits
 419              		.align	2
 420              		.p2align 4,,15
 421              		.global	DMA_PeriphIncOffsetSizeConfig
 422              		.thumb
 423              		.thumb_func
 424              		.type	DMA_PeriphIncOffsetSizeConfig, %function
 425              	DMA_PeriphIncOffsetSizeConfig:
 426              	.LFB127:
 427              		.loc 1 520 0
 428              		.cfi_startproc
 429              		@ args = 0, pretend = 0, frame = 0
 430              		@ frame_needed = 0, uses_anonymous_args = 0
 431              		@ link register save eliminated.
 432              	.LVL11:
 433              		.loc 1 529 0
 434 0000 0368     		ldr	r3, [r0]
 435              		.loc 1 526 0
 436 0002 19B9     		cbnz	r1, .L43
 437              		.loc 1 534 0
 438 0004 23F40043 		bic	r3, r3, #32768
 439 0008 0360     		str	r3, [r0]
 440 000a 7047     		bx	lr
 441              	.L43:
 442              		.loc 1 529 0
 443 000c 43F40043 		orr	r3, r3, #32768
 444 0010 0360     		str	r3, [r0]
 445 0012 7047     		bx	lr
 446              		.cfi_endproc
 447              	.LFE127:
 448              		.size	DMA_PeriphIncOffsetSizeConfig, .-DMA_PeriphIncOffsetSizeConfig
 449              		.section	.text.DMA_FlowControllerConfig,"ax",%progbits
 450              		.align	2
 451              		.p2align 4,,15
 452              		.global	DMA_FlowControllerConfig
 453              		.thumb
 454              		.thumb_func
 455              		.type	DMA_FlowControllerConfig, %function
 456              	DMA_FlowControllerConfig:
ARM GAS  /var/folders/m4/4md61f0s1_g0rzfghffqnxvr0000gn/T//ccWNZ4sA.s 			page 9


 457              	.LFB128:
 458              		.loc 1 556 0
 459              		.cfi_startproc
 460              		@ args = 0, pretend = 0, frame = 0
 461              		@ frame_needed = 0, uses_anonymous_args = 0
 462              		@ link register save eliminated.
 463              	.LVL12:
 464              		.loc 1 565 0
 465 0000 0368     		ldr	r3, [r0]
 466              		.loc 1 562 0
 467 0002 19B9     		cbnz	r1, .L47
 468              		.loc 1 570 0
 469 0004 23F02003 		bic	r3, r3, #32
 470 0008 0360     		str	r3, [r0]
 471 000a 7047     		bx	lr
 472              	.L47:
 473              		.loc 1 565 0
 474 000c 43F02003 		orr	r3, r3, #32
 475 0010 0360     		str	r3, [r0]
 476 0012 7047     		bx	lr
 477              		.cfi_endproc
 478              	.LFE128:
 479              		.size	DMA_FlowControllerConfig, .-DMA_FlowControllerConfig
 480              		.section	.text.DMA_SetCurrDataCounter,"ax",%progbits
 481              		.align	2
 482              		.p2align 4,,15
 483              		.global	DMA_SetCurrDataCounter
 484              		.thumb
 485              		.thumb_func
 486              		.type	DMA_SetCurrDataCounter, %function
 487              	DMA_SetCurrDataCounter:
 488              	.LFB129:
 489              		.loc 1 638 0
 490              		.cfi_startproc
 491              		@ args = 0, pretend = 0, frame = 0
 492              		@ frame_needed = 0, uses_anonymous_args = 0
 493              		@ link register save eliminated.
 494              	.LVL13:
 495              		.loc 1 643 0
 496 0000 4160     		str	r1, [r0, #4]
 497 0002 7047     		bx	lr
 498              		.cfi_endproc
 499              	.LFE129:
 500              		.size	DMA_SetCurrDataCounter, .-DMA_SetCurrDataCounter
 501              		.section	.text.DMA_GetCurrDataCounter,"ax",%progbits
 502              		.align	2
 503              		.p2align 4,,15
 504              		.global	DMA_GetCurrDataCounter
 505              		.thumb
 506              		.thumb_func
 507              		.type	DMA_GetCurrDataCounter, %function
 508              	DMA_GetCurrDataCounter:
 509              	.LFB130:
 510              		.loc 1 653 0
 511              		.cfi_startproc
 512              		@ args = 0, pretend = 0, frame = 0
 513              		@ frame_needed = 0, uses_anonymous_args = 0
ARM GAS  /var/folders/m4/4md61f0s1_g0rzfghffqnxvr0000gn/T//ccWNZ4sA.s 			page 10


 514              		@ link register save eliminated.
 515              	.LVL14:
 516              		.loc 1 658 0
 517 0000 4068     		ldr	r0, [r0, #4]
 518              	.LVL15:
 519              		.loc 1 659 0
 520 0002 80B2     		uxth	r0, r0
 521 0004 7047     		bx	lr
 522              		.cfi_endproc
 523              	.LFE130:
 524              		.size	DMA_GetCurrDataCounter, .-DMA_GetCurrDataCounter
 525 0006 00BF     		.section	.text.DMA_DoubleBufferModeConfig,"ax",%progbits
 526              		.align	2
 527              		.p2align 4,,15
 528              		.global	DMA_DoubleBufferModeConfig
 529              		.thumb
 530              		.thumb_func
 531              		.type	DMA_DoubleBufferModeConfig, %function
 532              	DMA_DoubleBufferModeConfig:
 533              	.LFB131:
 534              		.loc 1 737 0
 535              		.cfi_startproc
 536              		@ args = 0, pretend = 0, frame = 0
 537              		@ frame_needed = 0, uses_anonymous_args = 0
 538              		@ link register save eliminated.
 539              	.LVL16:
 540              		.loc 1 745 0
 541 0000 0368     		ldr	r3, [r0]
 542              		.loc 1 742 0
 543 0002 22B9     		cbnz	r2, .L53
 544              		.loc 1 750 0
 545 0004 23F40023 		bic	r3, r3, #524288
 546 0008 0360     		str	r3, [r0]
 547              		.loc 1 754 0
 548 000a 0161     		str	r1, [r0, #16]
 549 000c 7047     		bx	lr
 550              	.L53:
 551              		.loc 1 745 0
 552 000e 43F40023 		orr	r3, r3, #524288
 553 0012 0360     		str	r3, [r0]
 554              		.loc 1 754 0
 555 0014 0161     		str	r1, [r0, #16]
 556 0016 7047     		bx	lr
 557              		.cfi_endproc
 558              	.LFE131:
 559              		.size	DMA_DoubleBufferModeConfig, .-DMA_DoubleBufferModeConfig
 560              		.section	.text.DMA_DoubleBufferModeCmd,"ax",%progbits
 561              		.align	2
 562              		.p2align 4,,15
 563              		.global	DMA_DoubleBufferModeCmd
 564              		.thumb
 565              		.thumb_func
 566              		.type	DMA_DoubleBufferModeCmd, %function
 567              	DMA_DoubleBufferModeCmd:
 568              	.LFB132:
 569              		.loc 1 767 0
 570              		.cfi_startproc
ARM GAS  /var/folders/m4/4md61f0s1_g0rzfghffqnxvr0000gn/T//ccWNZ4sA.s 			page 11


 571              		@ args = 0, pretend = 0, frame = 0
 572              		@ frame_needed = 0, uses_anonymous_args = 0
 573              		@ link register save eliminated.
 574              	.LVL17:
 575              		.loc 1 776 0
 576 0000 0368     		ldr	r3, [r0]
 577              		.loc 1 773 0
 578 0002 19B9     		cbnz	r1, .L57
 579              		.loc 1 781 0
 580 0004 23F48023 		bic	r3, r3, #262144
 581 0008 0360     		str	r3, [r0]
 582 000a 7047     		bx	lr
 583              	.L57:
 584              		.loc 1 776 0
 585 000c 43F48023 		orr	r3, r3, #262144
 586 0010 0360     		str	r3, [r0]
 587 0012 7047     		bx	lr
 588              		.cfi_endproc
 589              	.LFE132:
 590              		.size	DMA_DoubleBufferModeCmd, .-DMA_DoubleBufferModeCmd
 591              		.section	.text.DMA_MemoryTargetConfig,"ax",%progbits
 592              		.align	2
 593              		.p2align 4,,15
 594              		.global	DMA_MemoryTargetConfig
 595              		.thumb
 596              		.thumb_func
 597              		.type	DMA_MemoryTargetConfig, %function
 598              	DMA_MemoryTargetConfig:
 599              	.LFB133:
 600              		.loc 1 809 0
 601              		.cfi_startproc
 602              		@ args = 0, pretend = 0, frame = 0
 603              		@ frame_needed = 0, uses_anonymous_args = 0
 604              		@ link register save eliminated.
 605              	.LVL18:
 606              		.loc 1 815 0
 607 0000 0AB9     		cbnz	r2, .L61
 608              		.loc 1 823 0
 609 0002 C160     		str	r1, [r0, #12]
 610 0004 7047     		bx	lr
 611              	.L61:
 612              		.loc 1 818 0
 613 0006 0161     		str	r1, [r0, #16]
 614 0008 7047     		bx	lr
 615              		.cfi_endproc
 616              	.LFE133:
 617              		.size	DMA_MemoryTargetConfig, .-DMA_MemoryTargetConfig
 618 000a 00BF     		.section	.text.DMA_GetCurrentMemoryTarget,"ax",%progbits
 619              		.align	2
 620              		.p2align 4,,15
 621              		.global	DMA_GetCurrentMemoryTarget
 622              		.thumb
 623              		.thumb_func
 624              		.type	DMA_GetCurrentMemoryTarget, %function
 625              	DMA_GetCurrentMemoryTarget:
 626              	.LFB134:
 627              		.loc 1 834 0
ARM GAS  /var/folders/m4/4md61f0s1_g0rzfghffqnxvr0000gn/T//ccWNZ4sA.s 			page 12


 628              		.cfi_startproc
 629              		@ args = 0, pretend = 0, frame = 0
 630              		@ frame_needed = 0, uses_anonymous_args = 0
 631              		@ link register save eliminated.
 632              	.LVL19:
 633              		.loc 1 841 0
 634 0000 0068     		ldr	r0, [r0]
 635              	.LVL20:
 636              		.loc 1 852 0
 637 0002 C0F3C040 		ubfx	r0, r0, #19, #1
 638              	.LVL21:
 639 0006 7047     		bx	lr
 640              		.cfi_endproc
 641              	.LFE134:
 642              		.size	DMA_GetCurrentMemoryTarget, .-DMA_GetCurrentMemoryTarget
 643              		.section	.text.DMA_GetCmdStatus,"ax",%progbits
 644              		.align	2
 645              		.p2align 4,,15
 646              		.global	DMA_GetCmdStatus
 647              		.thumb
 648              		.thumb_func
 649              		.type	DMA_GetCmdStatus, %function
 650              	DMA_GetCmdStatus:
 651              	.LFB135:
 652              		.loc 1 949 0
 653              		.cfi_startproc
 654              		@ args = 0, pretend = 0, frame = 0
 655              		@ frame_needed = 0, uses_anonymous_args = 0
 656              		@ link register save eliminated.
 657              	.LVL22:
 658              		.loc 1 955 0
 659 0000 0068     		ldr	r0, [r0]
 660              	.LVL23:
 661              		.loc 1 967 0
 662 0002 00F00100 		and	r0, r0, #1
 663              	.LVL24:
 664 0006 7047     		bx	lr
 665              		.cfi_endproc
 666              	.LFE135:
 667              		.size	DMA_GetCmdStatus, .-DMA_GetCmdStatus
 668              		.section	.text.DMA_GetFIFOStatus,"ax",%progbits
 669              		.align	2
 670              		.p2align 4,,15
 671              		.global	DMA_GetFIFOStatus
 672              		.thumb
 673              		.thumb_func
 674              		.type	DMA_GetFIFOStatus, %function
 675              	DMA_GetFIFOStatus:
 676              	.LFB136:
 677              		.loc 1 983 0
 678              		.cfi_startproc
 679              		@ args = 0, pretend = 0, frame = 0
 680              		@ frame_needed = 0, uses_anonymous_args = 0
 681              		@ link register save eliminated.
 682              	.LVL25:
 683              		.loc 1 990 0
 684 0000 4069     		ldr	r0, [r0, #20]
ARM GAS  /var/folders/m4/4md61f0s1_g0rzfghffqnxvr0000gn/T//ccWNZ4sA.s 			page 13


 685              	.LVL26:
 686              		.loc 1 993 0
 687 0002 00F03800 		and	r0, r0, #56
 688              	.LVL27:
 689 0006 7047     		bx	lr
 690              		.cfi_endproc
 691              	.LFE136:
 692              		.size	DMA_GetFIFOStatus, .-DMA_GetFIFOStatus
 693              		.section	.text.DMA_GetFlagStatus,"ax",%progbits
 694              		.align	2
 695              		.p2align 4,,15
 696              		.global	DMA_GetFlagStatus
 697              		.thumb
 698              		.thumb_func
 699              		.type	DMA_GetFlagStatus, %function
 700              	DMA_GetFlagStatus:
 701              	.LFB137:
 702              		.loc 1 1010 0
 703              		.cfi_startproc
 704              		@ args = 0, pretend = 0, frame = 0
 705              		@ frame_needed = 0, uses_anonymous_args = 0
 706              		@ link register save eliminated.
 707              	.LVL28:
 708              		.loc 1 1028 0
 709 0000 0B4B     		ldr	r3, .L71
 710 0002 0C4A     		ldr	r2, .L71+4
 711              		.loc 1 1010 0
 712 0004 10B4     		push	{r4}
 713              		.cfi_def_cfa_offset 4
 714              		.cfi_offset 4, -4
 715              		.loc 1 1020 0
 716 0006 0C4C     		ldr	r4, .L71+8
 717              		.loc 1 1028 0
 718 0008 A042     		cmp	r0, r4
 719 000a 94BF     		ite	ls
 720 000c 1846     		movls	r0, r3
 721 000e 1046     		movhi	r0, r2
 722              	.LVL29:
 723              		.loc 1 1032 0
 724 0010 8B00     		lsls	r3, r1, #2
 725              		.loc 1 1035 0
 726 0012 4CBF     		ite	mi
 727 0014 4368     		ldrmi	r3, [r0, #4]
 728              	.LVL30:
 729              		.loc 1 1040 0
 730 0016 0368     		ldrpl	r3, [r0]
 731              	.LVL31:
 732              		.loc 1 1060 0
 733 0018 5DF8044B 		ldr	r4, [sp], #4
 734              		.cfi_restore 4
 735              		.cfi_def_cfa_offset 0
 736              		.loc 1 1059 0
 737 001c 21F0F021 		bic	r1, r1, #-268374016
 738              	.LVL32:
 739 0020 21F08211 		bic	r1, r1, #8519810
 740 0024 1942     		tst	r1, r3
 741              		.loc 1 1060 0
ARM GAS  /var/folders/m4/4md61f0s1_g0rzfghffqnxvr0000gn/T//ccWNZ4sA.s 			page 14


 742 0026 14BF     		ite	ne
 743 0028 0120     		movne	r0, #1
 744              	.LVL33:
 745 002a 0020     		moveq	r0, #0
 746 002c 7047     		bx	lr
 747              	.L72:
 748 002e 00BF     		.align	2
 749              	.L71:
 750 0030 00600240 		.word	1073897472
 751 0034 00640240 		.word	1073898496
 752 0038 0F640240 		.word	1073898511
 753              		.cfi_endproc
 754              	.LFE137:
 755              		.size	DMA_GetFlagStatus, .-DMA_GetFlagStatus
 756              		.section	.text.DMA_ITConfig,"ax",%progbits
 757              		.align	2
 758              		.p2align 4,,15
 759              		.global	DMA_ITConfig
 760              		.thumb
 761              		.thumb_func
 762              		.type	DMA_ITConfig, %function
 763              	DMA_ITConfig:
 764              	.LFB139:
 765              		.loc 1 1124 0
 766              		.cfi_startproc
 767              		@ args = 0, pretend = 0, frame = 0
 768              		@ frame_needed = 0, uses_anonymous_args = 0
 769              		@ link register save eliminated.
 770              	.LVL34:
 771              		.loc 1 1131 0
 772 0000 0B06     		lsls	r3, r1, #24
 773 0002 0CD5     		bpl	.L74
 774              		.loc 1 1136 0
 775 0004 4369     		ldr	r3, [r0, #20]
 776              		.loc 1 1133 0
 777 0006 AAB1     		cbz	r2, .L75
 778              		.loc 1 1136 0
 779 0008 43F08003 		orr	r3, r3, #128
 780              		.loc 1 1146 0
 781 000c 8029     		cmp	r1, #128
 782              		.loc 1 1136 0
 783 000e 4361     		str	r3, [r0, #20]
 784              		.loc 1 1146 0
 785 0010 0FD0     		beq	.L73
 786              	.L76:
 787              		.loc 1 1151 0
 788 0012 0368     		ldr	r3, [r0]
 789 0014 01F01E01 		and	r1, r1, #30
 790              	.LVL35:
 791 0018 1943     		orrs	r1, r1, r3
 792 001a 0160     		str	r1, [r0]
 793 001c 7047     		bx	lr
 794              	.LVL36:
 795              	.L74:
 796              		.loc 1 1146 0
 797 001e 8029     		cmp	r1, #128
 798 0020 07D0     		beq	.L73
ARM GAS  /var/folders/m4/4md61f0s1_g0rzfghffqnxvr0000gn/T//ccWNZ4sA.s 			page 15


 799              		.loc 1 1148 0
 800 0022 002A     		cmp	r2, #0
 801 0024 F5D1     		bne	.L76
 802              	.L78:
 803              		.loc 1 1156 0
 804 0026 0368     		ldr	r3, [r0]
 805 0028 01F01E01 		and	r1, r1, #30
 806              	.LVL37:
 807 002c 23EA0101 		bic	r1, r3, r1
 808 0030 0160     		str	r1, [r0]
 809              	.L73:
 810 0032 7047     		bx	lr
 811              	.LVL38:
 812              	.L75:
 813              		.loc 1 1141 0
 814 0034 23F08003 		bic	r3, r3, #128
 815              		.loc 1 1146 0
 816 0038 8029     		cmp	r1, #128
 817              		.loc 1 1141 0
 818 003a 4361     		str	r3, [r0, #20]
 819              		.loc 1 1146 0
 820 003c F3D1     		bne	.L78
 821 003e 7047     		bx	lr
 822              		.cfi_endproc
 823              	.LFE139:
 824              		.size	DMA_ITConfig, .-DMA_ITConfig
 825              		.section	.text.DMA_GetITStatus,"ax",%progbits
 826              		.align	2
 827              		.p2align 4,,15
 828              		.global	DMA_GetITStatus
 829              		.thumb
 830              		.thumb_func
 831              		.type	DMA_GetITStatus, %function
 832              	DMA_GetITStatus:
 833              	.LFB140:
 834              		.loc 1 1176 0
 835              		.cfi_startproc
 836              		@ args = 0, pretend = 0, frame = 0
 837              		@ frame_needed = 0, uses_anonymous_args = 0
 838              		@ link register save eliminated.
 839              	.LVL39:
 840 0000 70B4     		push	{r4, r5, r6}
 841              		.cfi_def_cfa_offset 12
 842              		.cfi_offset 4, -12
 843              		.cfi_offset 5, -8
 844              		.cfi_offset 6, -4
 845              		.loc 1 1194 0
 846 0002 104A     		ldr	r2, .L93
 847              		.loc 1 1186 0
 848 0004 104E     		ldr	r6, .L93+4
 849              		.loc 1 1194 0
 850 0006 114C     		ldr	r4, .L93+8
 851              		.loc 1 1198 0
 852 0008 21F0F023 		bic	r3, r1, #-268374016
 853 000c 23F0C315 		bic	r5, r3, #12779715
 854              		.loc 1 1194 0
 855 0010 B042     		cmp	r0, r6
ARM GAS  /var/folders/m4/4md61f0s1_g0rzfghffqnxvr0000gn/T//ccWNZ4sA.s 			page 16


 856 0012 98BF     		it	ls
 857 0014 1446     		movls	r4, r2
 858              	.LVL40:
 859              		.loc 1 1198 0
 860 0016 8DB1     		cbz	r5, .L85
 861              	.LVL41:
 862              		.loc 1 1204 0
 863 0018 0068     		ldr	r0, [r0]
 864              	.LVL42:
 865 001a 00F01E00 		and	r0, r0, #30
 866 001e 00EAD122 		and	r2, r0, r1, lsr #11
 867              	.LVL43:
 868              	.L86:
 869              		.loc 1 1213 0
 870 0022 8900     		lsls	r1, r1, #2
 871              	.LVL44:
 872              		.loc 1 1216 0
 873 0024 4CBF     		ite	mi
 874 0026 6068     		ldrmi	r0, [r4, #4]
 875              	.LVL45:
 876              		.loc 1 1221 0
 877 0028 2068     		ldrpl	r0, [r4]
 878              	.LVL46:
 879              		.loc 1 1228 0
 880 002a 23F08213 		bic	r3, r3, #8519810
 881 002e 1840     		ands	r0, r3, r0
 882              	.LVL47:
 883 0030 02D0     		beq	.L89
 884              		.loc 1 1231 0 discriminator 1
 885 0032 101C     		adds	r0, r2, #0
 886 0034 18BF     		it	ne
 887 0036 0120     		movne	r0, #1
 888              	.L89:
 889              	.LVL48:
 890              		.loc 1 1241 0
 891 0038 70BC     		pop	{r4, r5, r6}
 892              		.cfi_remember_state
 893              		.cfi_restore 6
 894              		.cfi_restore 5
 895              		.cfi_restore 4
 896              		.cfi_def_cfa_offset 0
 897              	.LVL49:
 898 003a 7047     		bx	lr
 899              	.LVL50:
 900              	.L85:
 901              		.cfi_restore_state
 902              		.loc 1 1209 0
 903 003c 4069     		ldr	r0, [r0, #20]
 904              	.LVL51:
 905 003e 00F08002 		and	r2, r0, #128
 906              	.LVL52:
 907 0042 EEE7     		b	.L86
 908              	.L94:
 909              		.align	2
 910              	.L93:
 911 0044 00600240 		.word	1073897472
 912 0048 0F640240 		.word	1073898511
ARM GAS  /var/folders/m4/4md61f0s1_g0rzfghffqnxvr0000gn/T//ccWNZ4sA.s 			page 17


 913 004c 00640240 		.word	1073898496
 914              		.cfi_endproc
 915              	.LFE140:
 916              		.size	DMA_GetITStatus, .-DMA_GetITStatus
 917              		.section	.text.DMA_ClearITPendingBit,"ax",%progbits
 918              		.align	2
 919              		.p2align 4,,15
 920              		.global	DMA_ClearITPendingBit
 921              		.thumb
 922              		.thumb_func
 923              		.type	DMA_ClearITPendingBit, %function
 924              	DMA_ClearITPendingBit:
 925              	.LFB141:
 926              		.loc 1 1258 0
 927              		.cfi_startproc
 928              		@ args = 0, pretend = 0, frame = 0
 929              		@ frame_needed = 0, uses_anonymous_args = 0
 930              		@ link register save eliminated.
 931              	.LVL53:
 932 0000 10B4     		push	{r4}
 933              		.cfi_def_cfa_offset 4
 934              		.cfi_offset 4, -4
 935              		.loc 1 1274 0
 936 0002 094B     		ldr	r3, .L101
 937              		.loc 1 1266 0
 938 0004 094C     		ldr	r4, .L101+4
 939              		.loc 1 1274 0
 940 0006 0A4A     		ldr	r2, .L101+8
 941 0008 A042     		cmp	r0, r4
 942 000a 94BF     		ite	ls
 943 000c 1846     		movls	r0, r3
 944 000e 1046     		movhi	r0, r2
 945              	.LVL54:
 946              		.loc 1 1278 0
 947 0010 11F0005F 		tst	r1, #536870912
 948              		.loc 1 1281 0
 949 0014 21F0F021 		bic	r1, r1, #-268374016
 950              	.LVL55:
 951 0018 21F08211 		bic	r1, r1, #8519810
 952 001c 14BF     		ite	ne
 953 001e C160     		strne	r1, [r0, #12]
 954              		.loc 1 1286 0
 955 0020 8160     		streq	r1, [r0, #8]
 956              		.loc 1 1288 0
 957 0022 5DF8044B 		ldr	r4, [sp], #4
 958              		.cfi_restore 4
 959              		.cfi_def_cfa_offset 0
 960 0026 7047     		bx	lr
 961              	.L102:
 962              		.align	2
 963              	.L101:
 964 0028 00600240 		.word	1073897472
 965 002c 0F640240 		.word	1073898511
 966 0030 00640240 		.word	1073898496
 967              		.cfi_endproc
 968              	.LFE141:
 969              		.size	DMA_ClearITPendingBit, .-DMA_ClearITPendingBit
ARM GAS  /var/folders/m4/4md61f0s1_g0rzfghffqnxvr0000gn/T//ccWNZ4sA.s 			page 18


 970              		.section	.text.DMA_ClearFlag,"ax",%progbits
 971              		.align	2
 972              		.p2align 4,,15
 973              		.global	DMA_ClearFlag
 974              		.thumb
 975              		.thumb_func
 976              		.type	DMA_ClearFlag, %function
 977              	DMA_ClearFlag:
 978              	.LFB143:
 979              		.cfi_startproc
 980              		@ args = 0, pretend = 0, frame = 0
 981              		@ frame_needed = 0, uses_anonymous_args = 0
 982              		@ link register save eliminated.
 983 0000 FFF7FEBF 		b	DMA_ClearITPendingBit
 984              		.cfi_endproc
 985              	.LFE143:
 986              		.size	DMA_ClearFlag, .-DMA_ClearFlag
 987              		.text
 988              	.Letext0:
 989              		.file 2 "/opt/homebrew-cask/Caskroom/gcc-arm-embedded/5_2-2015q4,20151219/gcc-arm-none-eabi-5_2-20
 990              		.file 3 "/opt/homebrew-cask/Caskroom/gcc-arm-embedded/5_2-2015q4,20151219/gcc-arm-none-eabi-5_2-20
 991              		.file 4 "ChibiOS_16.1.4/os/ext/CMSIS/ST/STM32F4xx/stm32f405xx.h"
 992              		.file 5 "ChibiOS_16.1.4/os/ext/CMSIS/ST/STM32F4xx/stm32f4xx.h"
 993              		.file 6 "ChibiOS_16.1.4/ext/stdperiph_stm32f4/inc/stm32f4xx_dma.h"
 994              		.file 7 "ChibiOS_16.1.4/os/ext/CMSIS/include/core_cm4.h"
 995              		.section	.debug_info,"",%progbits
 996              	.Ldebug_info0:
 997 0000 F9060000 		.4byte	0x6f9
 998 0004 0400     		.2byte	0x4
 999 0006 00000000 		.4byte	.Ldebug_abbrev0
 1000 000a 04       		.byte	0x4
 1001 000b 01       		.uleb128 0x1
 1002 000c 7B000000 		.4byte	.LASF82
 1003 0010 0C       		.byte	0xc
 1004 0011 AE040000 		.4byte	.LASF83
 1005 0015 81010000 		.4byte	.LASF84
 1006 0019 00000000 		.4byte	.Ldebug_ranges0+0
 1007 001d 00000000 		.4byte	0
 1008 0021 00000000 		.4byte	.Ldebug_line0
 1009 0025 02       		.uleb128 0x2
 1010 0026 01       		.byte	0x1
 1011 0027 06       		.byte	0x6
 1012 0028 38000000 		.4byte	.LASF0
 1013 002c 02       		.uleb128 0x2
 1014 002d 01       		.byte	0x1
 1015 002e 08       		.byte	0x8
 1016 002f 4B030000 		.4byte	.LASF1
 1017 0033 02       		.uleb128 0x2
 1018 0034 02       		.byte	0x2
 1019 0035 05       		.byte	0x5
 1020 0036 55020000 		.4byte	.LASF2
 1021 003a 03       		.uleb128 0x3
 1022 003b E7010000 		.4byte	.LASF4
 1023 003f 02       		.byte	0x2
 1024 0040 2B       		.byte	0x2b
 1025 0041 45000000 		.4byte	0x45
 1026 0045 02       		.uleb128 0x2
ARM GAS  /var/folders/m4/4md61f0s1_g0rzfghffqnxvr0000gn/T//ccWNZ4sA.s 			page 19


 1027 0046 02       		.byte	0x2
 1028 0047 07       		.byte	0x7
 1029 0048 F0030000 		.4byte	.LASF3
 1030 004c 03       		.uleb128 0x3
 1031 004d 10050000 		.4byte	.LASF5
 1032 0051 02       		.byte	0x2
 1033 0052 3F       		.byte	0x3f
 1034 0053 57000000 		.4byte	0x57
 1035 0057 02       		.uleb128 0x2
 1036 0058 04       		.byte	0x4
 1037 0059 05       		.byte	0x5
 1038 005a DE020000 		.4byte	.LASF6
 1039 005e 03       		.uleb128 0x3
 1040 005f CA010000 		.4byte	.LASF7
 1041 0063 02       		.byte	0x2
 1042 0064 41       		.byte	0x41
 1043 0065 69000000 		.4byte	0x69
 1044 0069 02       		.uleb128 0x2
 1045 006a 04       		.byte	0x4
 1046 006b 07       		.byte	0x7
 1047 006c 87040000 		.4byte	.LASF8
 1048 0070 02       		.uleb128 0x2
 1049 0071 08       		.byte	0x8
 1050 0072 05       		.byte	0x5
 1051 0073 80020000 		.4byte	.LASF9
 1052 0077 02       		.uleb128 0x2
 1053 0078 08       		.byte	0x8
 1054 0079 07       		.byte	0x7
 1055 007a 83030000 		.4byte	.LASF10
 1056 007e 04       		.uleb128 0x4
 1057 007f 04       		.byte	0x4
 1058 0080 05       		.byte	0x5
 1059 0081 696E7400 		.ascii	"int\000"
 1060 0085 02       		.uleb128 0x2
 1061 0086 04       		.byte	0x4
 1062 0087 07       		.byte	0x7
 1063 0088 B0030000 		.4byte	.LASF11
 1064 008c 03       		.uleb128 0x3
 1065 008d CD030000 		.4byte	.LASF12
 1066 0091 03       		.byte	0x3
 1067 0092 1A       		.byte	0x1a
 1068 0093 3A000000 		.4byte	0x3a
 1069 0097 03       		.uleb128 0x3
 1070 0098 25040000 		.4byte	.LASF13
 1071 009c 03       		.byte	0x3
 1072 009d 1F       		.byte	0x1f
 1073 009e 4C000000 		.4byte	0x4c
 1074 00a2 03       		.uleb128 0x3
 1075 00a3 A7030000 		.4byte	.LASF14
 1076 00a7 03       		.byte	0x3
 1077 00a8 20       		.byte	0x20
 1078 00a9 5E000000 		.4byte	0x5e
 1079 00ad 02       		.uleb128 0x2
 1080 00ae 04       		.byte	0x4
 1081 00af 07       		.byte	0x7
 1082 00b0 6A000000 		.4byte	.LASF15
 1083 00b4 05       		.uleb128 0x5
ARM GAS  /var/folders/m4/4md61f0s1_g0rzfghffqnxvr0000gn/T//ccWNZ4sA.s 			page 20


 1084 00b5 A2000000 		.4byte	0xa2
 1085 00b9 06       		.uleb128 0x6
 1086 00ba 18       		.byte	0x18
 1087 00bb 04       		.byte	0x4
 1088 00bc 5601     		.2byte	0x156
 1089 00be 10010000 		.4byte	0x110
 1090 00c2 07       		.uleb128 0x7
 1091 00c3 435200   		.ascii	"CR\000"
 1092 00c6 04       		.byte	0x4
 1093 00c7 5801     		.2byte	0x158
 1094 00c9 B4000000 		.4byte	0xb4
 1095 00cd 00       		.byte	0
 1096 00ce 08       		.uleb128 0x8
 1097 00cf 99040000 		.4byte	.LASF16
 1098 00d3 04       		.byte	0x4
 1099 00d4 5901     		.2byte	0x159
 1100 00d6 B4000000 		.4byte	0xb4
 1101 00da 04       		.byte	0x4
 1102 00db 07       		.uleb128 0x7
 1103 00dc 50415200 		.ascii	"PAR\000"
 1104 00e0 04       		.byte	0x4
 1105 00e1 5A01     		.2byte	0x15a
 1106 00e3 B4000000 		.4byte	0xb4
 1107 00e7 08       		.byte	0x8
 1108 00e8 08       		.uleb128 0x8
 1109 00e9 82040000 		.4byte	.LASF17
 1110 00ed 04       		.byte	0x4
 1111 00ee 5B01     		.2byte	0x15b
 1112 00f0 B4000000 		.4byte	0xb4
 1113 00f4 0C       		.byte	0xc
 1114 00f5 08       		.uleb128 0x8
 1115 00f6 03040000 		.4byte	.LASF18
 1116 00fa 04       		.byte	0x4
 1117 00fb 5C01     		.2byte	0x15c
 1118 00fd B4000000 		.4byte	0xb4
 1119 0101 10       		.byte	0x10
 1120 0102 07       		.uleb128 0x7
 1121 0103 46435200 		.ascii	"FCR\000"
 1122 0107 04       		.byte	0x4
 1123 0108 5D01     		.2byte	0x15d
 1124 010a B4000000 		.4byte	0xb4
 1125 010e 14       		.byte	0x14
 1126 010f 00       		.byte	0
 1127 0110 09       		.uleb128 0x9
 1128 0111 44000000 		.4byte	.LASF19
 1129 0115 04       		.byte	0x4
 1130 0116 5E01     		.2byte	0x15e
 1131 0118 B9000000 		.4byte	0xb9
 1132 011c 06       		.uleb128 0x6
 1133 011d 10       		.byte	0x10
 1134 011e 04       		.byte	0x4
 1135 011f 6001     		.2byte	0x160
 1136 0121 5A010000 		.4byte	0x15a
 1137 0125 08       		.uleb128 0x8
 1138 0126 F0020000 		.4byte	.LASF20
 1139 012a 04       		.byte	0x4
 1140 012b 6201     		.2byte	0x162
ARM GAS  /var/folders/m4/4md61f0s1_g0rzfghffqnxvr0000gn/T//ccWNZ4sA.s 			page 21


 1141 012d B4000000 		.4byte	0xb4
 1142 0131 00       		.byte	0
 1143 0132 08       		.uleb128 0x8
 1144 0133 D9020000 		.4byte	.LASF21
 1145 0137 04       		.byte	0x4
 1146 0138 6301     		.2byte	0x163
 1147 013a B4000000 		.4byte	0xb4
 1148 013e 04       		.byte	0x4
 1149 013f 08       		.uleb128 0x8
 1150 0140 7C040000 		.4byte	.LASF22
 1151 0144 04       		.byte	0x4
 1152 0145 6401     		.2byte	0x164
 1153 0147 B4000000 		.4byte	0xb4
 1154 014b 08       		.byte	0x8
 1155 014c 08       		.uleb128 0x8
 1156 014d 7A020000 		.4byte	.LASF23
 1157 0151 04       		.byte	0x4
 1158 0152 6501     		.2byte	0x165
 1159 0154 B4000000 		.4byte	0xb4
 1160 0158 0C       		.byte	0xc
 1161 0159 00       		.byte	0
 1162 015a 09       		.uleb128 0x9
 1163 015b 14020000 		.4byte	.LASF24
 1164 015f 04       		.byte	0x4
 1165 0160 6601     		.2byte	0x166
 1166 0162 1C010000 		.4byte	0x11c
 1167 0166 0A       		.uleb128 0xa
 1168 0167 01       		.byte	0x1
 1169 0168 2C000000 		.4byte	0x2c
 1170 016c 05       		.byte	0x5
 1171 016d B8       		.byte	0xb8
 1172 016e 7F010000 		.4byte	0x17f
 1173 0172 0B       		.uleb128 0xb
 1174 0173 25050000 		.4byte	.LASF25
 1175 0177 00       		.byte	0
 1176 0178 0C       		.uleb128 0xc
 1177 0179 53455400 		.ascii	"SET\000"
 1178 017d 01       		.byte	0x1
 1179 017e 00       		.byte	0
 1180 017f 03       		.uleb128 0x3
 1181 0180 96050000 		.4byte	.LASF26
 1182 0184 05       		.byte	0x5
 1183 0185 BB       		.byte	0xbb
 1184 0186 66010000 		.4byte	0x166
 1185 018a 03       		.uleb128 0x3
 1186 018b D0020000 		.4byte	.LASF27
 1187 018f 05       		.byte	0x5
 1188 0190 BB       		.byte	0xbb
 1189 0191 66010000 		.4byte	0x166
 1190 0195 0A       		.uleb128 0xa
 1191 0196 01       		.byte	0x1
 1192 0197 2C000000 		.4byte	0x2c
 1193 019b 05       		.byte	0x5
 1194 019c BE       		.byte	0xbe
 1195 019d AE010000 		.4byte	0x1ae
 1196 01a1 0B       		.uleb128 0xb
 1197 01a2 4D020000 		.4byte	.LASF28
ARM GAS  /var/folders/m4/4md61f0s1_g0rzfghffqnxvr0000gn/T//ccWNZ4sA.s 			page 22


 1198 01a6 00       		.byte	0
 1199 01a7 0B       		.uleb128 0xb
 1200 01a8 BC050000 		.4byte	.LASF29
 1201 01ac 01       		.byte	0x1
 1202 01ad 00       		.byte	0
 1203 01ae 03       		.uleb128 0x3
 1204 01af 9E040000 		.4byte	.LASF30
 1205 01b3 05       		.byte	0x5
 1206 01b4 C1       		.byte	0xc1
 1207 01b5 95010000 		.4byte	0x195
 1208 01b9 0D       		.uleb128 0xd
 1209 01ba 3C       		.byte	0x3c
 1210 01bb 06       		.byte	0x6
 1211 01bc 36       		.byte	0x36
 1212 01bd 76020000 		.4byte	0x276
 1213 01c1 0E       		.uleb128 0xe
 1214 01c2 04050000 		.4byte	.LASF31
 1215 01c6 06       		.byte	0x6
 1216 01c7 38       		.byte	0x38
 1217 01c8 A2000000 		.4byte	0xa2
 1218 01cc 00       		.byte	0
 1219 01cd 0E       		.uleb128 0xe
 1220 01ce 36020000 		.4byte	.LASF32
 1221 01d2 06       		.byte	0x6
 1222 01d3 3B       		.byte	0x3b
 1223 01d4 A2000000 		.4byte	0xa2
 1224 01d8 04       		.byte	0x4
 1225 01d9 0E       		.uleb128 0xe
 1226 01da 2B050000 		.4byte	.LASF33
 1227 01de 06       		.byte	0x6
 1228 01df 3D       		.byte	0x3d
 1229 01e0 A2000000 		.4byte	0xa2
 1230 01e4 08       		.byte	0x8
 1231 01e5 0E       		.uleb128 0xe
 1232 01e6 25020000 		.4byte	.LASF34
 1233 01ea 06       		.byte	0x6
 1234 01eb 41       		.byte	0x41
 1235 01ec A2000000 		.4byte	0xa2
 1236 01f0 0C       		.byte	0xc
 1237 01f1 0E       		.uleb128 0xe
 1238 01f2 59030000 		.4byte	.LASF35
 1239 01f6 06       		.byte	0x6
 1240 01f7 45       		.byte	0x45
 1241 01f8 A2000000 		.4byte	0xa2
 1242 01fc 10       		.byte	0x10
 1243 01fd 0E       		.uleb128 0xe
 1244 01fe BE020000 		.4byte	.LASF36
 1245 0202 06       		.byte	0x6
 1246 0203 49       		.byte	0x49
 1247 0204 A2000000 		.4byte	0xa2
 1248 0208 14       		.byte	0x14
 1249 0209 0E       		.uleb128 0xe
 1250 020a 5F020000 		.4byte	.LASF37
 1251 020e 06       		.byte	0x6
 1252 020f 4C       		.byte	0x4c
 1253 0210 A2000000 		.4byte	0xa2
 1254 0214 18       		.byte	0x18
ARM GAS  /var/folders/m4/4md61f0s1_g0rzfghffqnxvr0000gn/T//ccWNZ4sA.s 			page 23


 1255 0215 0E       		.uleb128 0xe
 1256 0216 24030000 		.4byte	.LASF38
 1257 021a 06       		.byte	0x6
 1258 021b 4F       		.byte	0x4f
 1259 021c A2000000 		.4byte	0xa2
 1260 0220 1C       		.byte	0x1c
 1261 0221 0E       		.uleb128 0xe
 1262 0222 D0050000 		.4byte	.LASF39
 1263 0226 06       		.byte	0x6
 1264 0227 52       		.byte	0x52
 1265 0228 A2000000 		.4byte	0xa2
 1266 022c 20       		.byte	0x20
 1267 022d 0E       		.uleb128 0xe
 1268 022e 57050000 		.4byte	.LASF40
 1269 0232 06       		.byte	0x6
 1270 0233 55       		.byte	0x55
 1271 0234 A2000000 		.4byte	0xa2
 1272 0238 24       		.byte	0x24
 1273 0239 0E       		.uleb128 0xe
 1274 023a 5D000000 		.4byte	.LASF41
 1275 023e 06       		.byte	0x6
 1276 023f 5A       		.byte	0x5a
 1277 0240 A2000000 		.4byte	0xa2
 1278 0244 28       		.byte	0x28
 1279 0245 0E       		.uleb128 0xe
 1280 0246 F7040000 		.4byte	.LASF42
 1281 024a 06       		.byte	0x6
 1282 024b 5D       		.byte	0x5d
 1283 024c A2000000 		.4byte	0xa2
 1284 0250 2C       		.byte	0x2c
 1285 0251 0E       		.uleb128 0xe
 1286 0252 84050000 		.4byte	.LASF43
 1287 0256 06       		.byte	0x6
 1288 0257 62       		.byte	0x62
 1289 0258 A2000000 		.4byte	0xa2
 1290 025c 30       		.byte	0x30
 1291 025d 0E       		.uleb128 0xe
 1292 025e 08040000 		.4byte	.LASF44
 1293 0262 06       		.byte	0x6
 1294 0263 65       		.byte	0x65
 1295 0264 A2000000 		.4byte	0xa2
 1296 0268 34       		.byte	0x34
 1297 0269 0E       		.uleb128 0xe
 1298 026a B6010000 		.4byte	.LASF45
 1299 026e 06       		.byte	0x6
 1300 026f 6A       		.byte	0x6a
 1301 0270 A2000000 		.4byte	0xa2
 1302 0274 38       		.byte	0x38
 1303 0275 00       		.byte	0
 1304 0276 03       		.uleb128 0x3
 1305 0277 3B030000 		.4byte	.LASF46
 1306 027b 06       		.byte	0x6
 1307 027c 6E       		.byte	0x6e
 1308 027d B9010000 		.4byte	0x1b9
 1309 0281 0F       		.uleb128 0xf
 1310 0282 1A050000 		.4byte	.LASF47
 1311 0286 01       		.byte	0x1
ARM GAS  /var/folders/m4/4md61f0s1_g0rzfghffqnxvr0000gn/T//ccWNZ4sA.s 			page 24


 1312 0287 C9       		.byte	0xc9
 1313 0288 00000000 		.4byte	.LFB123
 1314 028c 30010000 		.4byte	.LFE123-.LFB123
 1315 0290 01       		.uleb128 0x1
 1316 0291 9C       		.byte	0x9c
 1317 0292 A4020000 		.4byte	0x2a4
 1318 0296 10       		.uleb128 0x10
 1319 0297 9A030000 		.4byte	.LASF49
 1320 029b 01       		.byte	0x1
 1321 029c C9       		.byte	0xc9
 1322 029d A4020000 		.4byte	0x2a4
 1323 02a1 01       		.uleb128 0x1
 1324 02a2 50       		.byte	0x50
 1325 02a3 00       		.byte	0
 1326 02a4 11       		.uleb128 0x11
 1327 02a5 04       		.byte	0x4
 1328 02a6 10010000 		.4byte	0x110
 1329 02aa 12       		.uleb128 0x12
 1330 02ab E7020000 		.4byte	.LASF48
 1331 02af 01       		.byte	0x1
 1332 02b0 4401     		.2byte	0x144
 1333 02b2 00000000 		.4byte	.LFB124
 1334 02b6 58000000 		.4byte	.LFE124-.LFB124
 1335 02ba 01       		.uleb128 0x1
 1336 02bb 9C       		.byte	0x9c
 1337 02bc EF020000 		.4byte	0x2ef
 1338 02c0 13       		.uleb128 0x13
 1339 02c1 9A030000 		.4byte	.LASF49
 1340 02c5 01       		.byte	0x1
 1341 02c6 4401     		.2byte	0x144
 1342 02c8 A4020000 		.4byte	0x2a4
 1343 02cc 01       		.uleb128 0x1
 1344 02cd 50       		.byte	0x50
 1345 02ce 14       		.uleb128 0x14
 1346 02cf D6030000 		.4byte	.LASF50
 1347 02d3 01       		.byte	0x1
 1348 02d4 4401     		.2byte	0x144
 1349 02d6 EF020000 		.4byte	0x2ef
 1350 02da 00000000 		.4byte	.LLST0
 1351 02de 15       		.uleb128 0x15
 1352 02df 13030000 		.4byte	.LASF69
 1353 02e3 01       		.byte	0x1
 1354 02e4 4601     		.2byte	0x146
 1355 02e6 A2000000 		.4byte	0xa2
 1356 02ea 21000000 		.4byte	.LLST1
 1357 02ee 00       		.byte	0
 1358 02ef 11       		.uleb128 0x11
 1359 02f0 04       		.byte	0x4
 1360 02f1 76020000 		.4byte	0x276
 1361 02f5 12       		.uleb128 0x12
 1362 02f6 29000000 		.4byte	.LASF51
 1363 02fa 01       		.byte	0x1
 1364 02fb 9801     		.2byte	0x198
 1365 02fd 00000000 		.4byte	.LFB125
 1366 0301 22000000 		.4byte	.LFE125-.LFB125
 1367 0305 01       		.uleb128 0x1
 1368 0306 9C       		.byte	0x9c
ARM GAS  /var/folders/m4/4md61f0s1_g0rzfghffqnxvr0000gn/T//ccWNZ4sA.s 			page 25


 1369 0307 1A030000 		.4byte	0x31a
 1370 030b 13       		.uleb128 0x13
 1371 030c D6030000 		.4byte	.LASF50
 1372 0310 01       		.byte	0x1
 1373 0311 9801     		.2byte	0x198
 1374 0313 EF020000 		.4byte	0x2ef
 1375 0317 01       		.uleb128 0x1
 1376 0318 50       		.byte	0x50
 1377 0319 00       		.byte	0
 1378 031a 12       		.uleb128 0x12
 1379 031b 12000000 		.4byte	.LASF52
 1380 031f 01       		.byte	0x1
 1381 0320 E301     		.2byte	0x1e3
 1382 0322 00000000 		.4byte	.LFB126
 1383 0326 14000000 		.4byte	.LFE126-.LFB126
 1384 032a 01       		.uleb128 0x1
 1385 032b 9C       		.byte	0x9c
 1386 032c 4D030000 		.4byte	0x34d
 1387 0330 13       		.uleb128 0x13
 1388 0331 9A030000 		.4byte	.LASF49
 1389 0335 01       		.byte	0x1
 1390 0336 E301     		.2byte	0x1e3
 1391 0338 A4020000 		.4byte	0x2a4
 1392 033c 01       		.uleb128 0x1
 1393 033d 50       		.byte	0x50
 1394 033e 13       		.uleb128 0x13
 1395 033f 2D020000 		.4byte	.LASF53
 1396 0343 01       		.byte	0x1
 1397 0344 E301     		.2byte	0x1e3
 1398 0346 AE010000 		.4byte	0x1ae
 1399 034a 01       		.uleb128 0x1
 1400 034b 51       		.byte	0x51
 1401 034c 00       		.byte	0
 1402 034d 12       		.uleb128 0x12
 1403 034e 4C040000 		.4byte	.LASF54
 1404 0352 01       		.byte	0x1
 1405 0353 0702     		.2byte	0x207
 1406 0355 00000000 		.4byte	.LFB127
 1407 0359 14000000 		.4byte	.LFE127-.LFB127
 1408 035d 01       		.uleb128 0x1
 1409 035e 9C       		.byte	0x9c
 1410 035f 80030000 		.4byte	0x380
 1411 0363 13       		.uleb128 0x13
 1412 0364 9A030000 		.4byte	.LASF49
 1413 0368 01       		.byte	0x1
 1414 0369 0702     		.2byte	0x207
 1415 036b A4020000 		.4byte	0x2a4
 1416 036f 01       		.uleb128 0x1
 1417 0370 50       		.byte	0x50
 1418 0371 13       		.uleb128 0x13
 1419 0372 E5030000 		.4byte	.LASF55
 1420 0376 01       		.byte	0x1
 1421 0377 0702     		.2byte	0x207
 1422 0379 A2000000 		.4byte	0xa2
 1423 037d 01       		.uleb128 0x1
 1424 037e 51       		.byte	0x51
 1425 037f 00       		.byte	0
ARM GAS  /var/folders/m4/4md61f0s1_g0rzfghffqnxvr0000gn/T//ccWNZ4sA.s 			page 26


 1426 0380 12       		.uleb128 0x12
 1427 0381 8E020000 		.4byte	.LASF56
 1428 0385 01       		.byte	0x1
 1429 0386 2B02     		.2byte	0x22b
 1430 0388 00000000 		.4byte	.LFB128
 1431 038c 14000000 		.4byte	.LFE128-.LFB128
 1432 0390 01       		.uleb128 0x1
 1433 0391 9C       		.byte	0x9c
 1434 0392 B3030000 		.4byte	0x3b3
 1435 0396 13       		.uleb128 0x13
 1436 0397 9A030000 		.4byte	.LASF49
 1437 039b 01       		.byte	0x1
 1438 039c 2B02     		.2byte	0x22b
 1439 039e A4020000 		.4byte	0x2a4
 1440 03a2 01       		.uleb128 0x1
 1441 03a3 50       		.byte	0x50
 1442 03a4 13       		.uleb128 0x13
 1443 03a5 18040000 		.4byte	.LASF57
 1444 03a9 01       		.byte	0x1
 1445 03aa 2B02     		.2byte	0x22b
 1446 03ac A2000000 		.4byte	0xa2
 1447 03b0 01       		.uleb128 0x1
 1448 03b1 51       		.byte	0x51
 1449 03b2 00       		.byte	0
 1450 03b3 12       		.uleb128 0x12
 1451 03b4 F5020000 		.4byte	.LASF58
 1452 03b8 01       		.byte	0x1
 1453 03b9 7D02     		.2byte	0x27d
 1454 03bb 00000000 		.4byte	.LFB129
 1455 03bf 04000000 		.4byte	.LFE129-.LFB129
 1456 03c3 01       		.uleb128 0x1
 1457 03c4 9C       		.byte	0x9c
 1458 03c5 E6030000 		.4byte	0x3e6
 1459 03c9 13       		.uleb128 0x13
 1460 03ca 9A030000 		.4byte	.LASF49
 1461 03ce 01       		.byte	0x1
 1462 03cf 7D02     		.2byte	0x27d
 1463 03d1 A4020000 		.4byte	0x2a4
 1464 03d5 01       		.uleb128 0x1
 1465 03d6 50       		.byte	0x50
 1466 03d7 13       		.uleb128 0x13
 1467 03d8 73000000 		.4byte	.LASF59
 1468 03dc 01       		.byte	0x1
 1469 03dd 7D02     		.2byte	0x27d
 1470 03df 8C000000 		.4byte	0x8c
 1471 03e3 01       		.uleb128 0x1
 1472 03e4 51       		.byte	0x51
 1473 03e5 00       		.byte	0
 1474 03e6 16       		.uleb128 0x16
 1475 03e7 60050000 		.4byte	.LASF67
 1476 03eb 01       		.byte	0x1
 1477 03ec 8C02     		.2byte	0x28c
 1478 03ee 8C000000 		.4byte	0x8c
 1479 03f2 00000000 		.4byte	.LFB130
 1480 03f6 06000000 		.4byte	.LFE130-.LFB130
 1481 03fa 01       		.uleb128 0x1
 1482 03fb 9C       		.byte	0x9c
ARM GAS  /var/folders/m4/4md61f0s1_g0rzfghffqnxvr0000gn/T//ccWNZ4sA.s 			page 27


 1483 03fc 11040000 		.4byte	0x411
 1484 0400 14       		.uleb128 0x14
 1485 0401 9A030000 		.4byte	.LASF49
 1486 0405 01       		.byte	0x1
 1487 0406 8C02     		.2byte	0x28c
 1488 0408 A4020000 		.4byte	0x2a4
 1489 040c 56000000 		.4byte	.LLST2
 1490 0410 00       		.byte	0
 1491 0411 12       		.uleb128 0x12
 1492 0412 68030000 		.4byte	.LASF60
 1493 0416 01       		.byte	0x1
 1494 0417 DF02     		.2byte	0x2df
 1495 0419 00000000 		.4byte	.LFB131
 1496 041d 18000000 		.4byte	.LFE131-.LFB131
 1497 0421 01       		.uleb128 0x1
 1498 0422 9C       		.byte	0x9c
 1499 0423 52040000 		.4byte	0x452
 1500 0427 13       		.uleb128 0x13
 1501 0428 9A030000 		.4byte	.LASF49
 1502 042c 01       		.byte	0x1
 1503 042d DF02     		.2byte	0x2df
 1504 042f A4020000 		.4byte	0x2a4
 1505 0433 01       		.uleb128 0x1
 1506 0434 50       		.byte	0x50
 1507 0435 13       		.uleb128 0x13
 1508 0436 E7040000 		.4byte	.LASF61
 1509 043a 01       		.byte	0x1
 1510 043b DF02     		.2byte	0x2df
 1511 043d A2000000 		.4byte	0xa2
 1512 0441 01       		.uleb128 0x1
 1513 0442 51       		.byte	0x51
 1514 0443 13       		.uleb128 0x13
 1515 0444 00000000 		.4byte	.LASF62
 1516 0448 01       		.byte	0x1
 1517 0449 E002     		.2byte	0x2e0
 1518 044b A2000000 		.4byte	0xa2
 1519 044f 01       		.uleb128 0x1
 1520 0450 52       		.byte	0x52
 1521 0451 00       		.byte	0
 1522 0452 12       		.uleb128 0x12
 1523 0453 3F050000 		.4byte	.LASF63
 1524 0457 01       		.byte	0x1
 1525 0458 FE02     		.2byte	0x2fe
 1526 045a 00000000 		.4byte	.LFB132
 1527 045e 14000000 		.4byte	.LFE132-.LFB132
 1528 0462 01       		.uleb128 0x1
 1529 0463 9C       		.byte	0x9c
 1530 0464 85040000 		.4byte	0x485
 1531 0468 13       		.uleb128 0x13
 1532 0469 9A030000 		.4byte	.LASF49
 1533 046d 01       		.byte	0x1
 1534 046e FE02     		.2byte	0x2fe
 1535 0470 A4020000 		.4byte	0x2a4
 1536 0474 01       		.uleb128 0x1
 1537 0475 50       		.byte	0x50
 1538 0476 13       		.uleb128 0x13
 1539 0477 2D020000 		.4byte	.LASF53
ARM GAS  /var/folders/m4/4md61f0s1_g0rzfghffqnxvr0000gn/T//ccWNZ4sA.s 			page 28


 1540 047b 01       		.byte	0x1
 1541 047c FE02     		.2byte	0x2fe
 1542 047e AE010000 		.4byte	0x1ae
 1543 0482 01       		.uleb128 0x1
 1544 0483 51       		.byte	0x51
 1545 0484 00       		.byte	0
 1546 0485 12       		.uleb128 0x12
 1547 0486 A7020000 		.4byte	.LASF64
 1548 048a 01       		.byte	0x1
 1549 048b 2703     		.2byte	0x327
 1550 048d 00000000 		.4byte	.LFB133
 1551 0491 0A000000 		.4byte	.LFE133-.LFB133
 1552 0495 01       		.uleb128 0x1
 1553 0496 9C       		.byte	0x9c
 1554 0497 C6040000 		.4byte	0x4c6
 1555 049b 13       		.uleb128 0x13
 1556 049c 9A030000 		.4byte	.LASF49
 1557 04a0 01       		.byte	0x1
 1558 04a1 2703     		.2byte	0x327
 1559 04a3 A4020000 		.4byte	0x2a4
 1560 04a7 01       		.uleb128 0x1
 1561 04a8 50       		.byte	0x50
 1562 04a9 13       		.uleb128 0x13
 1563 04aa 1A000000 		.4byte	.LASF65
 1564 04ae 01       		.byte	0x1
 1565 04af 2703     		.2byte	0x327
 1566 04b1 A2000000 		.4byte	0xa2
 1567 04b5 01       		.uleb128 0x1
 1568 04b6 51       		.byte	0x51
 1569 04b7 13       		.uleb128 0x13
 1570 04b8 03020000 		.4byte	.LASF66
 1571 04bc 01       		.byte	0x1
 1572 04bd 2803     		.2byte	0x328
 1573 04bf A2000000 		.4byte	0xa2
 1574 04c3 01       		.uleb128 0x1
 1575 04c4 52       		.byte	0x52
 1576 04c5 00       		.byte	0
 1577 04c6 16       		.uleb128 0x16
 1578 04c7 A1050000 		.4byte	.LASF68
 1579 04cb 01       		.byte	0x1
 1580 04cc 4103     		.2byte	0x341
 1581 04ce A2000000 		.4byte	0xa2
 1582 04d2 00000000 		.4byte	.LFB134
 1583 04d6 08000000 		.4byte	.LFE134-.LFB134
 1584 04da 01       		.uleb128 0x1
 1585 04db 9C       		.byte	0x9c
 1586 04dc 01050000 		.4byte	0x501
 1587 04e0 14       		.uleb128 0x14
 1588 04e1 9A030000 		.4byte	.LASF49
 1589 04e5 01       		.byte	0x1
 1590 04e6 4103     		.2byte	0x341
 1591 04e8 A4020000 		.4byte	0x2a4
 1592 04ec 77000000 		.4byte	.LLST3
 1593 04f0 17       		.uleb128 0x17
 1594 04f1 746D7000 		.ascii	"tmp\000"
 1595 04f5 01       		.byte	0x1
 1596 04f6 4303     		.2byte	0x343
ARM GAS  /var/folders/m4/4md61f0s1_g0rzfghffqnxvr0000gn/T//ccWNZ4sA.s 			page 29


 1597 04f8 A2000000 		.4byte	0xa2
 1598 04fc 98000000 		.4byte	.LLST4
 1599 0500 00       		.byte	0
 1600 0501 16       		.uleb128 0x16
 1601 0502 F2010000 		.4byte	.LASF70
 1602 0506 01       		.byte	0x1
 1603 0507 B403     		.2byte	0x3b4
 1604 0509 AE010000 		.4byte	0x1ae
 1605 050d 00000000 		.4byte	.LFB135
 1606 0511 08000000 		.4byte	.LFE135-.LFB135
 1607 0515 01       		.uleb128 0x1
 1608 0516 9C       		.byte	0x9c
 1609 0517 3C050000 		.4byte	0x53c
 1610 051b 14       		.uleb128 0x14
 1611 051c 9A030000 		.4byte	.LASF49
 1612 0520 01       		.byte	0x1
 1613 0521 B403     		.2byte	0x3b4
 1614 0523 A4020000 		.4byte	0x2a4
 1615 0527 C2000000 		.4byte	.LLST5
 1616 052b 15       		.uleb128 0x15
 1617 052c 57000000 		.4byte	.LASF71
 1618 0530 01       		.byte	0x1
 1619 0531 B603     		.2byte	0x3b6
 1620 0533 AE010000 		.4byte	0x1ae
 1621 0537 E3000000 		.4byte	.LLST6
 1622 053b 00       		.byte	0
 1623 053c 16       		.uleb128 0x16
 1624 053d D5010000 		.4byte	.LASF72
 1625 0541 01       		.byte	0x1
 1626 0542 D603     		.2byte	0x3d6
 1627 0544 A2000000 		.4byte	0xa2
 1628 0548 00000000 		.4byte	.LFB136
 1629 054c 08000000 		.4byte	.LFE136-.LFB136
 1630 0550 01       		.uleb128 0x1
 1631 0551 9C       		.byte	0x9c
 1632 0552 77050000 		.4byte	0x577
 1633 0556 14       		.uleb128 0x14
 1634 0557 9A030000 		.4byte	.LASF49
 1635 055b 01       		.byte	0x1
 1636 055c D603     		.2byte	0x3d6
 1637 055e A4020000 		.4byte	0x2a4
 1638 0562 02010000 		.4byte	.LLST7
 1639 0566 15       		.uleb128 0x15
 1640 0567 13030000 		.4byte	.LASF69
 1641 056b 01       		.byte	0x1
 1642 056c D803     		.2byte	0x3d8
 1643 056e A2000000 		.4byte	0xa2
 1644 0572 23010000 		.4byte	.LLST8
 1645 0576 00       		.byte	0
 1646 0577 16       		.uleb128 0x16
 1647 0578 6A040000 		.4byte	.LASF73
 1648 057c 01       		.byte	0x1
 1649 057d F103     		.2byte	0x3f1
 1650 057f 7F010000 		.4byte	0x17f
 1651 0583 00000000 		.4byte	.LFB137
 1652 0587 3C000000 		.4byte	.LFE137-.LFB137
 1653 058b 01       		.uleb128 0x1
ARM GAS  /var/folders/m4/4md61f0s1_g0rzfghffqnxvr0000gn/T//ccWNZ4sA.s 			page 30


 1654 058c 9C       		.byte	0x9c
 1655 058d E2050000 		.4byte	0x5e2
 1656 0591 14       		.uleb128 0x14
 1657 0592 9A030000 		.4byte	.LASF49
 1658 0596 01       		.byte	0x1
 1659 0597 F103     		.2byte	0x3f1
 1660 0599 A4020000 		.4byte	0x2a4
 1661 059d 52010000 		.4byte	.LLST9
 1662 05a1 14       		.uleb128 0x14
 1663 05a2 2D040000 		.4byte	.LASF74
 1664 05a6 01       		.byte	0x1
 1665 05a7 F103     		.2byte	0x3f1
 1666 05a9 A2000000 		.4byte	0xa2
 1667 05ad 73010000 		.4byte	.LLST10
 1668 05b1 15       		.uleb128 0x15
 1669 05b2 1A030000 		.4byte	.LASF75
 1670 05b6 01       		.byte	0x1
 1671 05b7 F303     		.2byte	0x3f3
 1672 05b9 7F010000 		.4byte	0x17f
 1673 05bd 94010000 		.4byte	.LLST11
 1674 05c1 15       		.uleb128 0x15
 1675 05c2 20020000 		.4byte	.LASF76
 1676 05c6 01       		.byte	0x1
 1677 05c7 F403     		.2byte	0x3f4
 1678 05c9 E2050000 		.4byte	0x5e2
 1679 05cd D9010000 		.4byte	.LLST12
 1680 05d1 15       		.uleb128 0x15
 1681 05d2 13030000 		.4byte	.LASF69
 1682 05d6 01       		.byte	0x1
 1683 05d7 F503     		.2byte	0x3f5
 1684 05d9 A2000000 		.4byte	0xa2
 1685 05dd 10020000 		.4byte	.LLST13
 1686 05e1 00       		.byte	0
 1687 05e2 11       		.uleb128 0x11
 1688 05e3 04       		.byte	0x4
 1689 05e4 5A010000 		.4byte	0x15a
 1690 05e8 12       		.uleb128 0x12
 1691 05e9 C3050000 		.4byte	.LASF77
 1692 05ed 01       		.byte	0x1
 1693 05ee 6304     		.2byte	0x463
 1694 05f0 00000000 		.4byte	.LFB139
 1695 05f4 40000000 		.4byte	.LFE139-.LFB139
 1696 05f8 01       		.uleb128 0x1
 1697 05f9 9C       		.byte	0x9c
 1698 05fa 2B060000 		.4byte	0x62b
 1699 05fe 13       		.uleb128 0x13
 1700 05ff 9A030000 		.4byte	.LASF49
 1701 0603 01       		.byte	0x1
 1702 0604 6304     		.2byte	0x463
 1703 0606 A4020000 		.4byte	0x2a4
 1704 060a 01       		.uleb128 0x1
 1705 060b 50       		.byte	0x50
 1706 060c 14       		.uleb128 0x14
 1707 060d 0C030000 		.4byte	.LASF78
 1708 0611 01       		.byte	0x1
 1709 0612 6304     		.2byte	0x463
 1710 0614 A2000000 		.4byte	0xa2
ARM GAS  /var/folders/m4/4md61f0s1_g0rzfghffqnxvr0000gn/T//ccWNZ4sA.s 			page 31


 1711 0618 42020000 		.4byte	.LLST14
 1712 061c 13       		.uleb128 0x13
 1713 061d 2D020000 		.4byte	.LASF53
 1714 0621 01       		.byte	0x1
 1715 0622 6304     		.2byte	0x463
 1716 0624 AE010000 		.4byte	0x1ae
 1717 0628 01       		.uleb128 0x1
 1718 0629 52       		.byte	0x52
 1719 062a 00       		.byte	0
 1720 062b 16       		.uleb128 0x16
 1721 062c BD030000 		.4byte	.LASF79
 1722 0630 01       		.byte	0x1
 1723 0631 9704     		.2byte	0x497
 1724 0633 8A010000 		.4byte	0x18a
 1725 0637 00000000 		.4byte	.LFB140
 1726 063b 50000000 		.4byte	.LFE140-.LFB140
 1727 063f 01       		.uleb128 0x1
 1728 0640 9C       		.byte	0x9c
 1729 0641 A6060000 		.4byte	0x6a6
 1730 0645 14       		.uleb128 0x14
 1731 0646 9A030000 		.4byte	.LASF49
 1732 064a 01       		.byte	0x1
 1733 064b 9704     		.2byte	0x497
 1734 064d A4020000 		.4byte	0x2a4
 1735 0651 87020000 		.4byte	.LLST15
 1736 0655 14       		.uleb128 0x14
 1737 0656 0C030000 		.4byte	.LASF78
 1738 065a 01       		.byte	0x1
 1739 065b 9704     		.2byte	0x497
 1740 065d A2000000 		.4byte	0xa2
 1741 0661 C1020000 		.4byte	.LLST16
 1742 0665 15       		.uleb128 0x15
 1743 0666 1A030000 		.4byte	.LASF75
 1744 066a 01       		.byte	0x1
 1745 066b 9904     		.2byte	0x499
 1746 066d 8A010000 		.4byte	0x18a
 1747 0671 ED020000 		.4byte	.LLST17
 1748 0675 15       		.uleb128 0x15
 1749 0676 20020000 		.4byte	.LASF76
 1750 067a 01       		.byte	0x1
 1751 067b 9A04     		.2byte	0x49a
 1752 067d E2050000 		.4byte	0x5e2
 1753 0681 18030000 		.4byte	.LLST18
 1754 0685 15       		.uleb128 0x15
 1755 0686 13030000 		.4byte	.LASF69
 1756 068a 01       		.byte	0x1
 1757 068b 9B04     		.2byte	0x49b
 1758 068d A2000000 		.4byte	0xa2
 1759 0691 5D030000 		.4byte	.LLST19
 1760 0695 15       		.uleb128 0x15
 1761 0696 6D020000 		.4byte	.LASF80
 1762 069a 01       		.byte	0x1
 1763 069b 9B04     		.2byte	0x49b
 1764 069d A2000000 		.4byte	0xa2
 1765 06a1 AC030000 		.4byte	.LLST20
 1766 06a5 00       		.byte	0
 1767 06a6 12       		.uleb128 0x12
ARM GAS  /var/folders/m4/4md61f0s1_g0rzfghffqnxvr0000gn/T//ccWNZ4sA.s 			page 32


 1768 06a7 36040000 		.4byte	.LASF81
 1769 06ab 01       		.byte	0x1
 1770 06ac E904     		.2byte	0x4e9
 1771 06ae 00000000 		.4byte	.LFB141
 1772 06b2 34000000 		.4byte	.LFE141-.LFB141
 1773 06b6 01       		.uleb128 0x1
 1774 06b7 9C       		.byte	0x9c
 1775 06b8 EB060000 		.4byte	0x6eb
 1776 06bc 14       		.uleb128 0x14
 1777 06bd 9A030000 		.4byte	.LASF49
 1778 06c1 01       		.byte	0x1
 1779 06c2 E904     		.2byte	0x4e9
 1780 06c4 A4020000 		.4byte	0x2a4
 1781 06c8 E2030000 		.4byte	.LLST21
 1782 06cc 14       		.uleb128 0x14
 1783 06cd 0C030000 		.4byte	.LASF78
 1784 06d1 01       		.byte	0x1
 1785 06d2 E904     		.2byte	0x4e9
 1786 06d4 A2000000 		.4byte	0xa2
 1787 06d8 03040000 		.4byte	.LLST22
 1788 06dc 18       		.uleb128 0x18
 1789 06dd 20020000 		.4byte	.LASF76
 1790 06e1 01       		.byte	0x1
 1791 06e2 EB04     		.2byte	0x4eb
 1792 06e4 E2050000 		.4byte	0x5e2
 1793 06e8 01       		.uleb128 0x1
 1794 06e9 50       		.byte	0x50
 1795 06ea 00       		.byte	0
 1796 06eb 19       		.uleb128 0x19
 1797 06ec 77050000 		.4byte	.LASF85
 1798 06f0 07       		.byte	0x7
 1799 06f1 FA06     		.2byte	0x6fa
 1800 06f3 F7060000 		.4byte	0x6f7
 1801 06f7 05       		.uleb128 0x5
 1802 06f8 97000000 		.4byte	0x97
 1803 06fc 00       		.byte	0
 1804              		.section	.debug_abbrev,"",%progbits
 1805              	.Ldebug_abbrev0:
 1806 0000 01       		.uleb128 0x1
 1807 0001 11       		.uleb128 0x11
 1808 0002 01       		.byte	0x1
 1809 0003 25       		.uleb128 0x25
 1810 0004 0E       		.uleb128 0xe
 1811 0005 13       		.uleb128 0x13
 1812 0006 0B       		.uleb128 0xb
 1813 0007 03       		.uleb128 0x3
 1814 0008 0E       		.uleb128 0xe
 1815 0009 1B       		.uleb128 0x1b
 1816 000a 0E       		.uleb128 0xe
 1817 000b 55       		.uleb128 0x55
 1818 000c 17       		.uleb128 0x17
 1819 000d 11       		.uleb128 0x11
 1820 000e 01       		.uleb128 0x1
 1821 000f 10       		.uleb128 0x10
 1822 0010 17       		.uleb128 0x17
 1823 0011 00       		.byte	0
 1824 0012 00       		.byte	0
ARM GAS  /var/folders/m4/4md61f0s1_g0rzfghffqnxvr0000gn/T//ccWNZ4sA.s 			page 33


 1825 0013 02       		.uleb128 0x2
 1826 0014 24       		.uleb128 0x24
 1827 0015 00       		.byte	0
 1828 0016 0B       		.uleb128 0xb
 1829 0017 0B       		.uleb128 0xb
 1830 0018 3E       		.uleb128 0x3e
 1831 0019 0B       		.uleb128 0xb
 1832 001a 03       		.uleb128 0x3
 1833 001b 0E       		.uleb128 0xe
 1834 001c 00       		.byte	0
 1835 001d 00       		.byte	0
 1836 001e 03       		.uleb128 0x3
 1837 001f 16       		.uleb128 0x16
 1838 0020 00       		.byte	0
 1839 0021 03       		.uleb128 0x3
 1840 0022 0E       		.uleb128 0xe
 1841 0023 3A       		.uleb128 0x3a
 1842 0024 0B       		.uleb128 0xb
 1843 0025 3B       		.uleb128 0x3b
 1844 0026 0B       		.uleb128 0xb
 1845 0027 49       		.uleb128 0x49
 1846 0028 13       		.uleb128 0x13
 1847 0029 00       		.byte	0
 1848 002a 00       		.byte	0
 1849 002b 04       		.uleb128 0x4
 1850 002c 24       		.uleb128 0x24
 1851 002d 00       		.byte	0
 1852 002e 0B       		.uleb128 0xb
 1853 002f 0B       		.uleb128 0xb
 1854 0030 3E       		.uleb128 0x3e
 1855 0031 0B       		.uleb128 0xb
 1856 0032 03       		.uleb128 0x3
 1857 0033 08       		.uleb128 0x8
 1858 0034 00       		.byte	0
 1859 0035 00       		.byte	0
 1860 0036 05       		.uleb128 0x5
 1861 0037 35       		.uleb128 0x35
 1862 0038 00       		.byte	0
 1863 0039 49       		.uleb128 0x49
 1864 003a 13       		.uleb128 0x13
 1865 003b 00       		.byte	0
 1866 003c 00       		.byte	0
 1867 003d 06       		.uleb128 0x6
 1868 003e 13       		.uleb128 0x13
 1869 003f 01       		.byte	0x1
 1870 0040 0B       		.uleb128 0xb
 1871 0041 0B       		.uleb128 0xb
 1872 0042 3A       		.uleb128 0x3a
 1873 0043 0B       		.uleb128 0xb
 1874 0044 3B       		.uleb128 0x3b
 1875 0045 05       		.uleb128 0x5
 1876 0046 01       		.uleb128 0x1
 1877 0047 13       		.uleb128 0x13
 1878 0048 00       		.byte	0
 1879 0049 00       		.byte	0
 1880 004a 07       		.uleb128 0x7
 1881 004b 0D       		.uleb128 0xd
ARM GAS  /var/folders/m4/4md61f0s1_g0rzfghffqnxvr0000gn/T//ccWNZ4sA.s 			page 34


 1882 004c 00       		.byte	0
 1883 004d 03       		.uleb128 0x3
 1884 004e 08       		.uleb128 0x8
 1885 004f 3A       		.uleb128 0x3a
 1886 0050 0B       		.uleb128 0xb
 1887 0051 3B       		.uleb128 0x3b
 1888 0052 05       		.uleb128 0x5
 1889 0053 49       		.uleb128 0x49
 1890 0054 13       		.uleb128 0x13
 1891 0055 38       		.uleb128 0x38
 1892 0056 0B       		.uleb128 0xb
 1893 0057 00       		.byte	0
 1894 0058 00       		.byte	0
 1895 0059 08       		.uleb128 0x8
 1896 005a 0D       		.uleb128 0xd
 1897 005b 00       		.byte	0
 1898 005c 03       		.uleb128 0x3
 1899 005d 0E       		.uleb128 0xe
 1900 005e 3A       		.uleb128 0x3a
 1901 005f 0B       		.uleb128 0xb
 1902 0060 3B       		.uleb128 0x3b
 1903 0061 05       		.uleb128 0x5
 1904 0062 49       		.uleb128 0x49
 1905 0063 13       		.uleb128 0x13
 1906 0064 38       		.uleb128 0x38
 1907 0065 0B       		.uleb128 0xb
 1908 0066 00       		.byte	0
 1909 0067 00       		.byte	0
 1910 0068 09       		.uleb128 0x9
 1911 0069 16       		.uleb128 0x16
 1912 006a 00       		.byte	0
 1913 006b 03       		.uleb128 0x3
 1914 006c 0E       		.uleb128 0xe
 1915 006d 3A       		.uleb128 0x3a
 1916 006e 0B       		.uleb128 0xb
 1917 006f 3B       		.uleb128 0x3b
 1918 0070 05       		.uleb128 0x5
 1919 0071 49       		.uleb128 0x49
 1920 0072 13       		.uleb128 0x13
 1921 0073 00       		.byte	0
 1922 0074 00       		.byte	0
 1923 0075 0A       		.uleb128 0xa
 1924 0076 04       		.uleb128 0x4
 1925 0077 01       		.byte	0x1
 1926 0078 0B       		.uleb128 0xb
 1927 0079 0B       		.uleb128 0xb
 1928 007a 49       		.uleb128 0x49
 1929 007b 13       		.uleb128 0x13
 1930 007c 3A       		.uleb128 0x3a
 1931 007d 0B       		.uleb128 0xb
 1932 007e 3B       		.uleb128 0x3b
 1933 007f 0B       		.uleb128 0xb
 1934 0080 01       		.uleb128 0x1
 1935 0081 13       		.uleb128 0x13
 1936 0082 00       		.byte	0
 1937 0083 00       		.byte	0
 1938 0084 0B       		.uleb128 0xb
ARM GAS  /var/folders/m4/4md61f0s1_g0rzfghffqnxvr0000gn/T//ccWNZ4sA.s 			page 35


 1939 0085 28       		.uleb128 0x28
 1940 0086 00       		.byte	0
 1941 0087 03       		.uleb128 0x3
 1942 0088 0E       		.uleb128 0xe
 1943 0089 1C       		.uleb128 0x1c
 1944 008a 0B       		.uleb128 0xb
 1945 008b 00       		.byte	0
 1946 008c 00       		.byte	0
 1947 008d 0C       		.uleb128 0xc
 1948 008e 28       		.uleb128 0x28
 1949 008f 00       		.byte	0
 1950 0090 03       		.uleb128 0x3
 1951 0091 08       		.uleb128 0x8
 1952 0092 1C       		.uleb128 0x1c
 1953 0093 0B       		.uleb128 0xb
 1954 0094 00       		.byte	0
 1955 0095 00       		.byte	0
 1956 0096 0D       		.uleb128 0xd
 1957 0097 13       		.uleb128 0x13
 1958 0098 01       		.byte	0x1
 1959 0099 0B       		.uleb128 0xb
 1960 009a 0B       		.uleb128 0xb
 1961 009b 3A       		.uleb128 0x3a
 1962 009c 0B       		.uleb128 0xb
 1963 009d 3B       		.uleb128 0x3b
 1964 009e 0B       		.uleb128 0xb
 1965 009f 01       		.uleb128 0x1
 1966 00a0 13       		.uleb128 0x13
 1967 00a1 00       		.byte	0
 1968 00a2 00       		.byte	0
 1969 00a3 0E       		.uleb128 0xe
 1970 00a4 0D       		.uleb128 0xd
 1971 00a5 00       		.byte	0
 1972 00a6 03       		.uleb128 0x3
 1973 00a7 0E       		.uleb128 0xe
 1974 00a8 3A       		.uleb128 0x3a
 1975 00a9 0B       		.uleb128 0xb
 1976 00aa 3B       		.uleb128 0x3b
 1977 00ab 0B       		.uleb128 0xb
 1978 00ac 49       		.uleb128 0x49
 1979 00ad 13       		.uleb128 0x13
 1980 00ae 38       		.uleb128 0x38
 1981 00af 0B       		.uleb128 0xb
 1982 00b0 00       		.byte	0
 1983 00b1 00       		.byte	0
 1984 00b2 0F       		.uleb128 0xf
 1985 00b3 2E       		.uleb128 0x2e
 1986 00b4 01       		.byte	0x1
 1987 00b5 3F       		.uleb128 0x3f
 1988 00b6 19       		.uleb128 0x19
 1989 00b7 03       		.uleb128 0x3
 1990 00b8 0E       		.uleb128 0xe
 1991 00b9 3A       		.uleb128 0x3a
 1992 00ba 0B       		.uleb128 0xb
 1993 00bb 3B       		.uleb128 0x3b
 1994 00bc 0B       		.uleb128 0xb
 1995 00bd 27       		.uleb128 0x27
ARM GAS  /var/folders/m4/4md61f0s1_g0rzfghffqnxvr0000gn/T//ccWNZ4sA.s 			page 36


 1996 00be 19       		.uleb128 0x19
 1997 00bf 11       		.uleb128 0x11
 1998 00c0 01       		.uleb128 0x1
 1999 00c1 12       		.uleb128 0x12
 2000 00c2 06       		.uleb128 0x6
 2001 00c3 40       		.uleb128 0x40
 2002 00c4 18       		.uleb128 0x18
 2003 00c5 9742     		.uleb128 0x2117
 2004 00c7 19       		.uleb128 0x19
 2005 00c8 01       		.uleb128 0x1
 2006 00c9 13       		.uleb128 0x13
 2007 00ca 00       		.byte	0
 2008 00cb 00       		.byte	0
 2009 00cc 10       		.uleb128 0x10
 2010 00cd 05       		.uleb128 0x5
 2011 00ce 00       		.byte	0
 2012 00cf 03       		.uleb128 0x3
 2013 00d0 0E       		.uleb128 0xe
 2014 00d1 3A       		.uleb128 0x3a
 2015 00d2 0B       		.uleb128 0xb
 2016 00d3 3B       		.uleb128 0x3b
 2017 00d4 0B       		.uleb128 0xb
 2018 00d5 49       		.uleb128 0x49
 2019 00d6 13       		.uleb128 0x13
 2020 00d7 02       		.uleb128 0x2
 2021 00d8 18       		.uleb128 0x18
 2022 00d9 00       		.byte	0
 2023 00da 00       		.byte	0
 2024 00db 11       		.uleb128 0x11
 2025 00dc 0F       		.uleb128 0xf
 2026 00dd 00       		.byte	0
 2027 00de 0B       		.uleb128 0xb
 2028 00df 0B       		.uleb128 0xb
 2029 00e0 49       		.uleb128 0x49
 2030 00e1 13       		.uleb128 0x13
 2031 00e2 00       		.byte	0
 2032 00e3 00       		.byte	0
 2033 00e4 12       		.uleb128 0x12
 2034 00e5 2E       		.uleb128 0x2e
 2035 00e6 01       		.byte	0x1
 2036 00e7 3F       		.uleb128 0x3f
 2037 00e8 19       		.uleb128 0x19
 2038 00e9 03       		.uleb128 0x3
 2039 00ea 0E       		.uleb128 0xe
 2040 00eb 3A       		.uleb128 0x3a
 2041 00ec 0B       		.uleb128 0xb
 2042 00ed 3B       		.uleb128 0x3b
 2043 00ee 05       		.uleb128 0x5
 2044 00ef 27       		.uleb128 0x27
 2045 00f0 19       		.uleb128 0x19
 2046 00f1 11       		.uleb128 0x11
 2047 00f2 01       		.uleb128 0x1
 2048 00f3 12       		.uleb128 0x12
 2049 00f4 06       		.uleb128 0x6
 2050 00f5 40       		.uleb128 0x40
 2051 00f6 18       		.uleb128 0x18
 2052 00f7 9742     		.uleb128 0x2117
ARM GAS  /var/folders/m4/4md61f0s1_g0rzfghffqnxvr0000gn/T//ccWNZ4sA.s 			page 37


 2053 00f9 19       		.uleb128 0x19
 2054 00fa 01       		.uleb128 0x1
 2055 00fb 13       		.uleb128 0x13
 2056 00fc 00       		.byte	0
 2057 00fd 00       		.byte	0
 2058 00fe 13       		.uleb128 0x13
 2059 00ff 05       		.uleb128 0x5
 2060 0100 00       		.byte	0
 2061 0101 03       		.uleb128 0x3
 2062 0102 0E       		.uleb128 0xe
 2063 0103 3A       		.uleb128 0x3a
 2064 0104 0B       		.uleb128 0xb
 2065 0105 3B       		.uleb128 0x3b
 2066 0106 05       		.uleb128 0x5
 2067 0107 49       		.uleb128 0x49
 2068 0108 13       		.uleb128 0x13
 2069 0109 02       		.uleb128 0x2
 2070 010a 18       		.uleb128 0x18
 2071 010b 00       		.byte	0
 2072 010c 00       		.byte	0
 2073 010d 14       		.uleb128 0x14
 2074 010e 05       		.uleb128 0x5
 2075 010f 00       		.byte	0
 2076 0110 03       		.uleb128 0x3
 2077 0111 0E       		.uleb128 0xe
 2078 0112 3A       		.uleb128 0x3a
 2079 0113 0B       		.uleb128 0xb
 2080 0114 3B       		.uleb128 0x3b
 2081 0115 05       		.uleb128 0x5
 2082 0116 49       		.uleb128 0x49
 2083 0117 13       		.uleb128 0x13
 2084 0118 02       		.uleb128 0x2
 2085 0119 17       		.uleb128 0x17
 2086 011a 00       		.byte	0
 2087 011b 00       		.byte	0
 2088 011c 15       		.uleb128 0x15
 2089 011d 34       		.uleb128 0x34
 2090 011e 00       		.byte	0
 2091 011f 03       		.uleb128 0x3
 2092 0120 0E       		.uleb128 0xe
 2093 0121 3A       		.uleb128 0x3a
 2094 0122 0B       		.uleb128 0xb
 2095 0123 3B       		.uleb128 0x3b
 2096 0124 05       		.uleb128 0x5
 2097 0125 49       		.uleb128 0x49
 2098 0126 13       		.uleb128 0x13
 2099 0127 02       		.uleb128 0x2
 2100 0128 17       		.uleb128 0x17
 2101 0129 00       		.byte	0
 2102 012a 00       		.byte	0
 2103 012b 16       		.uleb128 0x16
 2104 012c 2E       		.uleb128 0x2e
 2105 012d 01       		.byte	0x1
 2106 012e 3F       		.uleb128 0x3f
 2107 012f 19       		.uleb128 0x19
 2108 0130 03       		.uleb128 0x3
 2109 0131 0E       		.uleb128 0xe
ARM GAS  /var/folders/m4/4md61f0s1_g0rzfghffqnxvr0000gn/T//ccWNZ4sA.s 			page 38


 2110 0132 3A       		.uleb128 0x3a
 2111 0133 0B       		.uleb128 0xb
 2112 0134 3B       		.uleb128 0x3b
 2113 0135 05       		.uleb128 0x5
 2114 0136 27       		.uleb128 0x27
 2115 0137 19       		.uleb128 0x19
 2116 0138 49       		.uleb128 0x49
 2117 0139 13       		.uleb128 0x13
 2118 013a 11       		.uleb128 0x11
 2119 013b 01       		.uleb128 0x1
 2120 013c 12       		.uleb128 0x12
 2121 013d 06       		.uleb128 0x6
 2122 013e 40       		.uleb128 0x40
 2123 013f 18       		.uleb128 0x18
 2124 0140 9742     		.uleb128 0x2117
 2125 0142 19       		.uleb128 0x19
 2126 0143 01       		.uleb128 0x1
 2127 0144 13       		.uleb128 0x13
 2128 0145 00       		.byte	0
 2129 0146 00       		.byte	0
 2130 0147 17       		.uleb128 0x17
 2131 0148 34       		.uleb128 0x34
 2132 0149 00       		.byte	0
 2133 014a 03       		.uleb128 0x3
 2134 014b 08       		.uleb128 0x8
 2135 014c 3A       		.uleb128 0x3a
 2136 014d 0B       		.uleb128 0xb
 2137 014e 3B       		.uleb128 0x3b
 2138 014f 05       		.uleb128 0x5
 2139 0150 49       		.uleb128 0x49
 2140 0151 13       		.uleb128 0x13
 2141 0152 02       		.uleb128 0x2
 2142 0153 17       		.uleb128 0x17
 2143 0154 00       		.byte	0
 2144 0155 00       		.byte	0
 2145 0156 18       		.uleb128 0x18
 2146 0157 34       		.uleb128 0x34
 2147 0158 00       		.byte	0
 2148 0159 03       		.uleb128 0x3
 2149 015a 0E       		.uleb128 0xe
 2150 015b 3A       		.uleb128 0x3a
 2151 015c 0B       		.uleb128 0xb
 2152 015d 3B       		.uleb128 0x3b
 2153 015e 05       		.uleb128 0x5
 2154 015f 49       		.uleb128 0x49
 2155 0160 13       		.uleb128 0x13
 2156 0161 02       		.uleb128 0x2
 2157 0162 18       		.uleb128 0x18
 2158 0163 00       		.byte	0
 2159 0164 00       		.byte	0
 2160 0165 19       		.uleb128 0x19
 2161 0166 34       		.uleb128 0x34
 2162 0167 00       		.byte	0
 2163 0168 03       		.uleb128 0x3
 2164 0169 0E       		.uleb128 0xe
 2165 016a 3A       		.uleb128 0x3a
 2166 016b 0B       		.uleb128 0xb
ARM GAS  /var/folders/m4/4md61f0s1_g0rzfghffqnxvr0000gn/T//ccWNZ4sA.s 			page 39


 2167 016c 3B       		.uleb128 0x3b
 2168 016d 05       		.uleb128 0x5
 2169 016e 49       		.uleb128 0x49
 2170 016f 13       		.uleb128 0x13
 2171 0170 3F       		.uleb128 0x3f
 2172 0171 19       		.uleb128 0x19
 2173 0172 3C       		.uleb128 0x3c
 2174 0173 19       		.uleb128 0x19
 2175 0174 00       		.byte	0
 2176 0175 00       		.byte	0
 2177 0176 00       		.byte	0
 2178              		.section	.debug_loc,"",%progbits
 2179              	.Ldebug_loc0:
 2180              	.LLST0:
 2181 0000 00000000 		.4byte	.LVL1
 2182 0004 3E000000 		.4byte	.LVL6
 2183 0008 0100     		.2byte	0x1
 2184 000a 51       		.byte	0x51
 2185 000b 3E000000 		.4byte	.LVL6
 2186 000f 58000000 		.4byte	.LFE124
 2187 0013 0400     		.2byte	0x4
 2188 0015 F3       		.byte	0xf3
 2189 0016 01       		.uleb128 0x1
 2190 0017 51       		.byte	0x51
 2191 0018 9F       		.byte	0x9f
 2192 0019 00000000 		.4byte	0
 2193 001d 00000000 		.4byte	0
 2194              	.LLST1:
 2195 0021 00000000 		.4byte	.LVL1
 2196 0025 28000000 		.4byte	.LVL2
 2197 0029 0200     		.2byte	0x2
 2198 002b 30       		.byte	0x30
 2199 002c 9F       		.byte	0x9f
 2200 002d 28000000 		.4byte	.LVL2
 2201 0031 30000000 		.4byte	.LVL3
 2202 0035 0100     		.2byte	0x1
 2203 0037 53       		.byte	0x53
 2204 0038 30000000 		.4byte	.LVL3
 2205 003c 46000000 		.4byte	.LVL8
 2206 0040 0100     		.2byte	0x1
 2207 0042 52       		.byte	0x52
 2208 0043 46000000 		.4byte	.LVL8
 2209 0047 58000000 		.4byte	.LFE124
 2210 004b 0100     		.2byte	0x1
 2211 004d 53       		.byte	0x53
 2212 004e 00000000 		.4byte	0
 2213 0052 00000000 		.4byte	0
 2214              	.LLST2:
 2215 0056 00000000 		.4byte	.LVL14
 2216 005a 02000000 		.4byte	.LVL15
 2217 005e 0100     		.2byte	0x1
 2218 0060 50       		.byte	0x50
 2219 0061 02000000 		.4byte	.LVL15
 2220 0065 06000000 		.4byte	.LFE130
 2221 0069 0400     		.2byte	0x4
 2222 006b F3       		.byte	0xf3
 2223 006c 01       		.uleb128 0x1
ARM GAS  /var/folders/m4/4md61f0s1_g0rzfghffqnxvr0000gn/T//ccWNZ4sA.s 			page 40


 2224 006d 50       		.byte	0x50
 2225 006e 9F       		.byte	0x9f
 2226 006f 00000000 		.4byte	0
 2227 0073 00000000 		.4byte	0
 2228              	.LLST3:
 2229 0077 00000000 		.4byte	.LVL19
 2230 007b 02000000 		.4byte	.LVL20
 2231 007f 0100     		.2byte	0x1
 2232 0081 50       		.byte	0x50
 2233 0082 02000000 		.4byte	.LVL20
 2234 0086 08000000 		.4byte	.LFE134
 2235 008a 0400     		.2byte	0x4
 2236 008c F3       		.byte	0xf3
 2237 008d 01       		.uleb128 0x1
 2238 008e 50       		.byte	0x50
 2239 008f 9F       		.byte	0x9f
 2240 0090 00000000 		.4byte	0
 2241 0094 00000000 		.4byte	0
 2242              	.LLST4:
 2243 0098 00000000 		.4byte	.LVL19
 2244 009c 02000000 		.4byte	.LVL20
 2245 00a0 0200     		.2byte	0x2
 2246 00a2 30       		.byte	0x30
 2247 00a3 9F       		.byte	0x9f
 2248 00a4 02000000 		.4byte	.LVL20
 2249 00a8 06000000 		.4byte	.LVL21
 2250 00ac 0C00     		.2byte	0xc
 2251 00ae 70       		.byte	0x70
 2252 00af 00       		.sleb128 0
 2253 00b0 40       		.byte	0x40
 2254 00b1 3F       		.byte	0x3f
 2255 00b2 24       		.byte	0x24
 2256 00b3 1A       		.byte	0x1a
 2257 00b4 30       		.byte	0x30
 2258 00b5 2E       		.byte	0x2e
 2259 00b6 08       		.byte	0x8
 2260 00b7 FF       		.byte	0xff
 2261 00b8 1A       		.byte	0x1a
 2262 00b9 9F       		.byte	0x9f
 2263 00ba 00000000 		.4byte	0
 2264 00be 00000000 		.4byte	0
 2265              	.LLST5:
 2266 00c2 00000000 		.4byte	.LVL22
 2267 00c6 02000000 		.4byte	.LVL23
 2268 00ca 0100     		.2byte	0x1
 2269 00cc 50       		.byte	0x50
 2270 00cd 02000000 		.4byte	.LVL23
 2271 00d1 08000000 		.4byte	.LFE135
 2272 00d5 0400     		.2byte	0x4
 2273 00d7 F3       		.byte	0xf3
 2274 00d8 01       		.uleb128 0x1
 2275 00d9 50       		.byte	0x50
 2276 00da 9F       		.byte	0x9f
 2277 00db 00000000 		.4byte	0
 2278 00df 00000000 		.4byte	0
 2279              	.LLST6:
 2280 00e3 00000000 		.4byte	.LVL22
ARM GAS  /var/folders/m4/4md61f0s1_g0rzfghffqnxvr0000gn/T//ccWNZ4sA.s 			page 41


 2281 00e7 02000000 		.4byte	.LVL23
 2282 00eb 0200     		.2byte	0x2
 2283 00ed 30       		.byte	0x30
 2284 00ee 9F       		.byte	0x9f
 2285 00ef 02000000 		.4byte	.LVL23
 2286 00f3 06000000 		.4byte	.LVL24
 2287 00f7 0100     		.2byte	0x1
 2288 00f9 50       		.byte	0x50
 2289 00fa 00000000 		.4byte	0
 2290 00fe 00000000 		.4byte	0
 2291              	.LLST7:
 2292 0102 00000000 		.4byte	.LVL25
 2293 0106 02000000 		.4byte	.LVL26
 2294 010a 0100     		.2byte	0x1
 2295 010c 50       		.byte	0x50
 2296 010d 02000000 		.4byte	.LVL26
 2297 0111 08000000 		.4byte	.LFE136
 2298 0115 0400     		.2byte	0x4
 2299 0117 F3       		.byte	0xf3
 2300 0118 01       		.uleb128 0x1
 2301 0119 50       		.byte	0x50
 2302 011a 9F       		.byte	0x9f
 2303 011b 00000000 		.4byte	0
 2304 011f 00000000 		.4byte	0
 2305              	.LLST8:
 2306 0123 00000000 		.4byte	.LVL25
 2307 0127 02000000 		.4byte	.LVL26
 2308 012b 0200     		.2byte	0x2
 2309 012d 30       		.byte	0x30
 2310 012e 9F       		.byte	0x9f
 2311 012f 02000000 		.4byte	.LVL26
 2312 0133 06000000 		.4byte	.LVL27
 2313 0137 0600     		.2byte	0x6
 2314 0139 70       		.byte	0x70
 2315 013a 00       		.sleb128 0
 2316 013b 08       		.byte	0x8
 2317 013c 38       		.byte	0x38
 2318 013d 1A       		.byte	0x1a
 2319 013e 9F       		.byte	0x9f
 2320 013f 06000000 		.4byte	.LVL27
 2321 0143 08000000 		.4byte	.LFE136
 2322 0147 0100     		.2byte	0x1
 2323 0149 50       		.byte	0x50
 2324 014a 00000000 		.4byte	0
 2325 014e 00000000 		.4byte	0
 2326              	.LLST9:
 2327 0152 00000000 		.4byte	.LVL28
 2328 0156 10000000 		.4byte	.LVL29
 2329 015a 0100     		.2byte	0x1
 2330 015c 50       		.byte	0x50
 2331 015d 10000000 		.4byte	.LVL29
 2332 0161 3C000000 		.4byte	.LFE137
 2333 0165 0400     		.2byte	0x4
 2334 0167 F3       		.byte	0xf3
 2335 0168 01       		.uleb128 0x1
 2336 0169 50       		.byte	0x50
 2337 016a 9F       		.byte	0x9f
ARM GAS  /var/folders/m4/4md61f0s1_g0rzfghffqnxvr0000gn/T//ccWNZ4sA.s 			page 42


 2338 016b 00000000 		.4byte	0
 2339 016f 00000000 		.4byte	0
 2340              	.LLST10:
 2341 0173 00000000 		.4byte	.LVL28
 2342 0177 20000000 		.4byte	.LVL32
 2343 017b 0100     		.2byte	0x1
 2344 017d 51       		.byte	0x51
 2345 017e 20000000 		.4byte	.LVL32
 2346 0182 3C000000 		.4byte	.LFE137
 2347 0186 0400     		.2byte	0x4
 2348 0188 F3       		.byte	0xf3
 2349 0189 01       		.uleb128 0x1
 2350 018a 51       		.byte	0x51
 2351 018b 9F       		.byte	0x9f
 2352 018c 00000000 		.4byte	0
 2353 0190 00000000 		.4byte	0
 2354              	.LLST11:
 2355 0194 00000000 		.4byte	.LVL28
 2356 0198 18000000 		.4byte	.LVL31
 2357 019c 0200     		.2byte	0x2
 2358 019e 30       		.byte	0x30
 2359 019f 9F       		.byte	0x9f
 2360 01a0 18000000 		.4byte	.LVL31
 2361 01a4 20000000 		.4byte	.LVL32
 2362 01a8 0E00     		.2byte	0xe
 2363 01aa 71       		.byte	0x71
 2364 01ab 00       		.sleb128 0
 2365 01ac 73       		.byte	0x73
 2366 01ad 00       		.sleb128 0
 2367 01ae 1A       		.byte	0x1a
 2368 01af 0C       		.byte	0xc
 2369 01b0 7D0F7D0F 		.4byte	0xf7d0f7d
 2370 01b4 1A       		.byte	0x1a
 2371 01b5 30       		.byte	0x30
 2372 01b6 2E       		.byte	0x2e
 2373 01b7 9F       		.byte	0x9f
 2374 01b8 20000000 		.4byte	.LVL32
 2375 01bc 3C000000 		.4byte	.LFE137
 2376 01c0 0F00     		.2byte	0xf
 2377 01c2 F3       		.byte	0xf3
 2378 01c3 01       		.uleb128 0x1
 2379 01c4 51       		.byte	0x51
 2380 01c5 73       		.byte	0x73
 2381 01c6 00       		.sleb128 0
 2382 01c7 1A       		.byte	0x1a
 2383 01c8 0C       		.byte	0xc
 2384 01c9 7D0F7D0F 		.4byte	0xf7d0f7d
 2385 01cd 1A       		.byte	0x1a
 2386 01ce 30       		.byte	0x30
 2387 01cf 2E       		.byte	0x2e
 2388 01d0 9F       		.byte	0x9f
 2389 01d1 00000000 		.4byte	0
 2390 01d5 00000000 		.4byte	0
 2391              	.LLST12:
 2392 01d9 10000000 		.4byte	.LVL29
 2393 01dd 2A000000 		.4byte	.LVL33
 2394 01e1 0100     		.2byte	0x1
ARM GAS  /var/folders/m4/4md61f0s1_g0rzfghffqnxvr0000gn/T//ccWNZ4sA.s 			page 43


 2395 01e3 50       		.byte	0x50
 2396 01e4 2A000000 		.4byte	.LVL33
 2397 01e8 3C000000 		.4byte	.LFE137
 2398 01ec 1A00     		.2byte	0x1a
 2399 01ee 0C       		.byte	0xc
 2400 01ef 00600240 		.4byte	0x40026000
 2401 01f3 72       		.byte	0x72
 2402 01f4 00       		.sleb128 0
 2403 01f5 F3       		.byte	0xf3
 2404 01f6 01       		.uleb128 0x1
 2405 01f7 50       		.byte	0x50
 2406 01f8 40       		.byte	0x40
 2407 01f9 4B       		.byte	0x4b
 2408 01fa 24       		.byte	0x24
 2409 01fb 22       		.byte	0x22
 2410 01fc 0C       		.byte	0xc
 2411 01fd 0F6402C0 		.4byte	0xc002640f
 2412 0201 2C       		.byte	0x2c
 2413 0202 28       		.byte	0x28
 2414 0203 0100     		.2byte	0x1
 2415 0205 16       		.byte	0x16
 2416 0206 13       		.byte	0x13
 2417 0207 9F       		.byte	0x9f
 2418 0208 00000000 		.4byte	0
 2419 020c 00000000 		.4byte	0
 2420              	.LLST13:
 2421 0210 00000000 		.4byte	.LVL28
 2422 0214 16000000 		.4byte	.LVL30
 2423 0218 0200     		.2byte	0x2
 2424 021a 30       		.byte	0x30
 2425 021b 9F       		.byte	0x9f
 2426 021c 16000000 		.4byte	.LVL30
 2427 0220 18000000 		.4byte	.LVL31
 2428 0224 0100     		.2byte	0x1
 2429 0226 53       		.byte	0x53
 2430 0227 18000000 		.4byte	.LVL31
 2431 022b 3C000000 		.4byte	.LFE137
 2432 022f 0900     		.2byte	0x9
 2433 0231 73       		.byte	0x73
 2434 0232 00       		.sleb128 0
 2435 0233 0C       		.byte	0xc
 2436 0234 7D0F7D0F 		.4byte	0xf7d0f7d
 2437 0238 1A       		.byte	0x1a
 2438 0239 9F       		.byte	0x9f
 2439 023a 00000000 		.4byte	0
 2440 023e 00000000 		.4byte	0
 2441              	.LLST14:
 2442 0242 00000000 		.4byte	.LVL34
 2443 0246 18000000 		.4byte	.LVL35
 2444 024a 0100     		.2byte	0x1
 2445 024c 51       		.byte	0x51
 2446 024d 18000000 		.4byte	.LVL35
 2447 0251 1E000000 		.4byte	.LVL36
 2448 0255 0400     		.2byte	0x4
 2449 0257 F3       		.byte	0xf3
 2450 0258 01       		.uleb128 0x1
 2451 0259 51       		.byte	0x51
ARM GAS  /var/folders/m4/4md61f0s1_g0rzfghffqnxvr0000gn/T//ccWNZ4sA.s 			page 44


 2452 025a 9F       		.byte	0x9f
 2453 025b 1E000000 		.4byte	.LVL36
 2454 025f 2C000000 		.4byte	.LVL37
 2455 0263 0100     		.2byte	0x1
 2456 0265 51       		.byte	0x51
 2457 0266 2C000000 		.4byte	.LVL37
 2458 026a 34000000 		.4byte	.LVL38
 2459 026e 0400     		.2byte	0x4
 2460 0270 F3       		.byte	0xf3
 2461 0271 01       		.uleb128 0x1
 2462 0272 51       		.byte	0x51
 2463 0273 9F       		.byte	0x9f
 2464 0274 34000000 		.4byte	.LVL38
 2465 0278 40000000 		.4byte	.LFE139
 2466 027c 0100     		.2byte	0x1
 2467 027e 51       		.byte	0x51
 2468 027f 00000000 		.4byte	0
 2469 0283 00000000 		.4byte	0
 2470              	.LLST15:
 2471 0287 00000000 		.4byte	.LVL39
 2472 028b 1A000000 		.4byte	.LVL42
 2473 028f 0100     		.2byte	0x1
 2474 0291 50       		.byte	0x50
 2475 0292 1A000000 		.4byte	.LVL42
 2476 0296 3C000000 		.4byte	.LVL50
 2477 029a 0400     		.2byte	0x4
 2478 029c F3       		.byte	0xf3
 2479 029d 01       		.uleb128 0x1
 2480 029e 50       		.byte	0x50
 2481 029f 9F       		.byte	0x9f
 2482 02a0 3C000000 		.4byte	.LVL50
 2483 02a4 3E000000 		.4byte	.LVL51
 2484 02a8 0100     		.2byte	0x1
 2485 02aa 50       		.byte	0x50
 2486 02ab 3E000000 		.4byte	.LVL51
 2487 02af 50000000 		.4byte	.LFE140
 2488 02b3 0400     		.2byte	0x4
 2489 02b5 F3       		.byte	0xf3
 2490 02b6 01       		.uleb128 0x1
 2491 02b7 50       		.byte	0x50
 2492 02b8 9F       		.byte	0x9f
 2493 02b9 00000000 		.4byte	0
 2494 02bd 00000000 		.4byte	0
 2495              	.LLST16:
 2496 02c1 00000000 		.4byte	.LVL39
 2497 02c5 24000000 		.4byte	.LVL44
 2498 02c9 0100     		.2byte	0x1
 2499 02cb 51       		.byte	0x51
 2500 02cc 24000000 		.4byte	.LVL44
 2501 02d0 3C000000 		.4byte	.LVL50
 2502 02d4 0400     		.2byte	0x4
 2503 02d6 F3       		.byte	0xf3
 2504 02d7 01       		.uleb128 0x1
 2505 02d8 51       		.byte	0x51
 2506 02d9 9F       		.byte	0x9f
 2507 02da 3C000000 		.4byte	.LVL50
 2508 02de 50000000 		.4byte	.LFE140
ARM GAS  /var/folders/m4/4md61f0s1_g0rzfghffqnxvr0000gn/T//ccWNZ4sA.s 			page 45


 2509 02e2 0100     		.2byte	0x1
 2510 02e4 51       		.byte	0x51
 2511 02e5 00000000 		.4byte	0
 2512 02e9 00000000 		.4byte	0
 2513              	.LLST17:
 2514 02ed 00000000 		.4byte	.LVL39
 2515 02f1 38000000 		.4byte	.LVL48
 2516 02f5 0200     		.2byte	0x2
 2517 02f7 30       		.byte	0x30
 2518 02f8 9F       		.byte	0x9f
 2519 02f9 38000000 		.4byte	.LVL48
 2520 02fd 3C000000 		.4byte	.LVL50
 2521 0301 0100     		.2byte	0x1
 2522 0303 50       		.byte	0x50
 2523 0304 3C000000 		.4byte	.LVL50
 2524 0308 50000000 		.4byte	.LFE140
 2525 030c 0200     		.2byte	0x2
 2526 030e 30       		.byte	0x30
 2527 030f 9F       		.byte	0x9f
 2528 0310 00000000 		.4byte	0
 2529 0314 00000000 		.4byte	0
 2530              	.LLST18:
 2531 0318 16000000 		.4byte	.LVL40
 2532 031c 3A000000 		.4byte	.LVL49
 2533 0320 0100     		.2byte	0x1
 2534 0322 54       		.byte	0x54
 2535 0323 3A000000 		.4byte	.LVL49
 2536 0327 3C000000 		.4byte	.LVL50
 2537 032b 1D00     		.2byte	0x1d
 2538 032d 0C       		.byte	0xc
 2539 032e 00600240 		.4byte	0x40026000
 2540 0332 0C       		.byte	0xc
 2541 0333 00640240 		.4byte	0x40026400
 2542 0337 F3       		.byte	0xf3
 2543 0338 01       		.uleb128 0x1
 2544 0339 50       		.byte	0x50
 2545 033a 40       		.byte	0x40
 2546 033b 4B       		.byte	0x4b
 2547 033c 24       		.byte	0x24
 2548 033d 22       		.byte	0x22
 2549 033e 0C       		.byte	0xc
 2550 033f 0F6402C0 		.4byte	0xc002640f
 2551 0343 2C       		.byte	0x2c
 2552 0344 28       		.byte	0x28
 2553 0345 0100     		.2byte	0x1
 2554 0347 16       		.byte	0x16
 2555 0348 13       		.byte	0x13
 2556 0349 9F       		.byte	0x9f
 2557 034a 3C000000 		.4byte	.LVL50
 2558 034e 50000000 		.4byte	.LFE140
 2559 0352 0100     		.2byte	0x1
 2560 0354 54       		.byte	0x54
 2561 0355 00000000 		.4byte	0
 2562 0359 00000000 		.4byte	0
 2563              	.LLST19:
 2564 035d 00000000 		.4byte	.LVL39
 2565 0361 18000000 		.4byte	.LVL41
ARM GAS  /var/folders/m4/4md61f0s1_g0rzfghffqnxvr0000gn/T//ccWNZ4sA.s 			page 46


 2566 0365 0200     		.2byte	0x2
 2567 0367 30       		.byte	0x30
 2568 0368 9F       		.byte	0x9f
 2569 0369 18000000 		.4byte	.LVL41
 2570 036d 22000000 		.4byte	.LVL43
 2571 0371 0700     		.2byte	0x7
 2572 0373 71       		.byte	0x71
 2573 0374 00       		.sleb128 0
 2574 0375 3B       		.byte	0x3b
 2575 0376 25       		.byte	0x25
 2576 0377 4E       		.byte	0x4e
 2577 0378 1A       		.byte	0x1a
 2578 0379 9F       		.byte	0x9f
 2579 037a 28000000 		.4byte	.LVL45
 2580 037e 2A000000 		.4byte	.LVL46
 2581 0382 0100     		.2byte	0x1
 2582 0384 50       		.byte	0x50
 2583 0385 2A000000 		.4byte	.LVL46
 2584 0389 30000000 		.4byte	.LVL47
 2585 038d 0900     		.2byte	0x9
 2586 038f 70       		.byte	0x70
 2587 0390 00       		.sleb128 0
 2588 0391 0C       		.byte	0xc
 2589 0392 7D0F7D0F 		.4byte	0xf7d0f7d
 2590 0396 1A       		.byte	0x1a
 2591 0397 9F       		.byte	0x9f
 2592 0398 3C000000 		.4byte	.LVL50
 2593 039c 50000000 		.4byte	.LFE140
 2594 03a0 0200     		.2byte	0x2
 2595 03a2 30       		.byte	0x30
 2596 03a3 9F       		.byte	0x9f
 2597 03a4 00000000 		.4byte	0
 2598 03a8 00000000 		.4byte	0
 2599              	.LLST20:
 2600 03ac 00000000 		.4byte	.LVL39
 2601 03b0 22000000 		.4byte	.LVL43
 2602 03b4 0200     		.2byte	0x2
 2603 03b6 30       		.byte	0x30
 2604 03b7 9F       		.byte	0x9f
 2605 03b8 22000000 		.4byte	.LVL43
 2606 03bc 3C000000 		.4byte	.LVL50
 2607 03c0 0100     		.2byte	0x1
 2608 03c2 52       		.byte	0x52
 2609 03c3 3C000000 		.4byte	.LVL50
 2610 03c7 42000000 		.4byte	.LVL52
 2611 03cb 0200     		.2byte	0x2
 2612 03cd 30       		.byte	0x30
 2613 03ce 9F       		.byte	0x9f
 2614 03cf 42000000 		.4byte	.LVL52
 2615 03d3 50000000 		.4byte	.LFE140
 2616 03d7 0100     		.2byte	0x1
 2617 03d9 52       		.byte	0x52
 2618 03da 00000000 		.4byte	0
 2619 03de 00000000 		.4byte	0
 2620              	.LLST21:
 2621 03e2 00000000 		.4byte	.LVL53
 2622 03e6 10000000 		.4byte	.LVL54
ARM GAS  /var/folders/m4/4md61f0s1_g0rzfghffqnxvr0000gn/T//ccWNZ4sA.s 			page 47


 2623 03ea 0100     		.2byte	0x1
 2624 03ec 50       		.byte	0x50
 2625 03ed 10000000 		.4byte	.LVL54
 2626 03f1 34000000 		.4byte	.LFE141
 2627 03f5 0400     		.2byte	0x4
 2628 03f7 F3       		.byte	0xf3
 2629 03f8 01       		.uleb128 0x1
 2630 03f9 50       		.byte	0x50
 2631 03fa 9F       		.byte	0x9f
 2632 03fb 00000000 		.4byte	0
 2633 03ff 00000000 		.4byte	0
 2634              	.LLST22:
 2635 0403 00000000 		.4byte	.LVL53
 2636 0407 18000000 		.4byte	.LVL55
 2637 040b 0100     		.2byte	0x1
 2638 040d 51       		.byte	0x51
 2639 040e 18000000 		.4byte	.LVL55
 2640 0412 34000000 		.4byte	.LFE141
 2641 0416 0400     		.2byte	0x4
 2642 0418 F3       		.byte	0xf3
 2643 0419 01       		.uleb128 0x1
 2644 041a 51       		.byte	0x51
 2645 041b 9F       		.byte	0x9f
 2646 041c 00000000 		.4byte	0
 2647 0420 00000000 		.4byte	0
 2648              		.section	.debug_aranges,"",%progbits
 2649 0000 A4000000 		.4byte	0xa4
 2650 0004 0200     		.2byte	0x2
 2651 0006 00000000 		.4byte	.Ldebug_info0
 2652 000a 04       		.byte	0x4
 2653 000b 00       		.byte	0
 2654 000c 0000     		.2byte	0
 2655 000e 0000     		.2byte	0
 2656 0010 00000000 		.4byte	.LFB123
 2657 0014 30010000 		.4byte	.LFE123-.LFB123
 2658 0018 00000000 		.4byte	.LFB124
 2659 001c 58000000 		.4byte	.LFE124-.LFB124
 2660 0020 00000000 		.4byte	.LFB125
 2661 0024 22000000 		.4byte	.LFE125-.LFB125
 2662 0028 00000000 		.4byte	.LFB126
 2663 002c 14000000 		.4byte	.LFE126-.LFB126
 2664 0030 00000000 		.4byte	.LFB127
 2665 0034 14000000 		.4byte	.LFE127-.LFB127
 2666 0038 00000000 		.4byte	.LFB128
 2667 003c 14000000 		.4byte	.LFE128-.LFB128
 2668 0040 00000000 		.4byte	.LFB129
 2669 0044 04000000 		.4byte	.LFE129-.LFB129
 2670 0048 00000000 		.4byte	.LFB130
 2671 004c 06000000 		.4byte	.LFE130-.LFB130
 2672 0050 00000000 		.4byte	.LFB131
 2673 0054 18000000 		.4byte	.LFE131-.LFB131
 2674 0058 00000000 		.4byte	.LFB132
 2675 005c 14000000 		.4byte	.LFE132-.LFB132
 2676 0060 00000000 		.4byte	.LFB133
 2677 0064 0A000000 		.4byte	.LFE133-.LFB133
 2678 0068 00000000 		.4byte	.LFB134
 2679 006c 08000000 		.4byte	.LFE134-.LFB134
ARM GAS  /var/folders/m4/4md61f0s1_g0rzfghffqnxvr0000gn/T//ccWNZ4sA.s 			page 48


 2680 0070 00000000 		.4byte	.LFB135
 2681 0074 08000000 		.4byte	.LFE135-.LFB135
 2682 0078 00000000 		.4byte	.LFB136
 2683 007c 08000000 		.4byte	.LFE136-.LFB136
 2684 0080 00000000 		.4byte	.LFB137
 2685 0084 3C000000 		.4byte	.LFE137-.LFB137
 2686 0088 00000000 		.4byte	.LFB139
 2687 008c 40000000 		.4byte	.LFE139-.LFB139
 2688 0090 00000000 		.4byte	.LFB140
 2689 0094 50000000 		.4byte	.LFE140-.LFB140
 2690 0098 00000000 		.4byte	.LFB141
 2691 009c 34000000 		.4byte	.LFE141-.LFB141
 2692 00a0 00000000 		.4byte	0
 2693 00a4 00000000 		.4byte	0
 2694              		.section	.debug_ranges,"",%progbits
 2695              	.Ldebug_ranges0:
 2696 0000 00000000 		.4byte	.LFB123
 2697 0004 30010000 		.4byte	.LFE123
 2698 0008 00000000 		.4byte	.LFB124
 2699 000c 58000000 		.4byte	.LFE124
 2700 0010 00000000 		.4byte	.LFB125
 2701 0014 22000000 		.4byte	.LFE125
 2702 0018 00000000 		.4byte	.LFB126
 2703 001c 14000000 		.4byte	.LFE126
 2704 0020 00000000 		.4byte	.LFB127
 2705 0024 14000000 		.4byte	.LFE127
 2706 0028 00000000 		.4byte	.LFB128
 2707 002c 14000000 		.4byte	.LFE128
 2708 0030 00000000 		.4byte	.LFB129
 2709 0034 04000000 		.4byte	.LFE129
 2710 0038 00000000 		.4byte	.LFB130
 2711 003c 06000000 		.4byte	.LFE130
 2712 0040 00000000 		.4byte	.LFB131
 2713 0044 18000000 		.4byte	.LFE131
 2714 0048 00000000 		.4byte	.LFB132
 2715 004c 14000000 		.4byte	.LFE132
 2716 0050 00000000 		.4byte	.LFB133
 2717 0054 0A000000 		.4byte	.LFE133
 2718 0058 00000000 		.4byte	.LFB134
 2719 005c 08000000 		.4byte	.LFE134
 2720 0060 00000000 		.4byte	.LFB135
 2721 0064 08000000 		.4byte	.LFE135
 2722 0068 00000000 		.4byte	.LFB136
 2723 006c 08000000 		.4byte	.LFE136
 2724 0070 00000000 		.4byte	.LFB137
 2725 0074 3C000000 		.4byte	.LFE137
 2726 0078 00000000 		.4byte	.LFB139
 2727 007c 40000000 		.4byte	.LFE139
 2728 0080 00000000 		.4byte	.LFB140
 2729 0084 50000000 		.4byte	.LFE140
 2730 0088 00000000 		.4byte	.LFB141
 2731 008c 34000000 		.4byte	.LFE141
 2732 0090 00000000 		.4byte	0
 2733 0094 00000000 		.4byte	0
 2734              		.section	.debug_line,"",%progbits
 2735              	.Ldebug_line0:
 2736 0000 56040000 		.section	.debug_str,"MS",%progbits,1
ARM GAS  /var/folders/m4/4md61f0s1_g0rzfghffqnxvr0000gn/T//ccWNZ4sA.s 			page 49


 2736      02001B02 
 2736      00000201 
 2736      FB0E0D00 
 2736      01010101 
 2737              	.LASF62:
 2738 0000 444D415F 		.ascii	"DMA_CurrentMemory\000"
 2738      43757272 
 2738      656E744D 
 2738      656D6F72 
 2738      7900
 2739              	.LASF52:
 2740 0012 444D415F 		.ascii	"DMA_Cmd\000"
 2740      436D6400 
 2741              	.LASF65:
 2742 001a 4D656D6F 		.ascii	"MemoryBaseAddr\000"
 2742      72794261 
 2742      73654164 
 2742      647200
 2743              	.LASF51:
 2744 0029 444D415F 		.ascii	"DMA_StructInit\000"
 2744      53747275 
 2744      6374496E 
 2744      697400
 2745              	.LASF0:
 2746 0038 7369676E 		.ascii	"signed char\000"
 2746      65642063 
 2746      68617200 
 2747              	.LASF19:
 2748 0044 444D415F 		.ascii	"DMA_Stream_TypeDef\000"
 2748      53747265 
 2748      616D5F54 
 2748      79706544 
 2748      656600
 2749              	.LASF71:
 2750 0057 73746174 		.ascii	"state\000"
 2750      6500
 2751              	.LASF41:
 2752 005d 444D415F 		.ascii	"DMA_Priority\000"
 2752      5072696F 
 2752      72697479 
 2752      00
 2753              	.LASF15:
 2754 006a 73697A65 		.ascii	"sizetype\000"
 2754      74797065 
 2754      00
 2755              	.LASF59:
 2756 0073 436F756E 		.ascii	"Counter\000"
 2756      74657200 
 2757              	.LASF82:
 2758 007b 474E5520 		.ascii	"GNU C99 5.2.1 20151202 (release) [ARM/embedded-5-br"
 2758      43393920 
 2758      352E322E 
 2758      31203230 
 2758      31353132 
 2759 00ae 616E6368 		.ascii	"anch revision 231848] -mcpu=cortex-m4 -mfloat-abi=h"
 2759      20726576 
 2759      6973696F 
ARM GAS  /var/folders/m4/4md61f0s1_g0rzfghffqnxvr0000gn/T//ccWNZ4sA.s 			page 50


 2759      6E203233 
 2759      31383438 
 2760 00e1 61726420 		.ascii	"ard -mfpu=fpv4-sp-d16 -mno-thumb-interwork -mthumb "
 2760      2D6D6670 
 2760      753D6670 
 2760      76342D73 
 2760      702D6431 
 2761 0114 2D676764 		.ascii	"-ggdb -O2 -std=c99 -fomit-frame-pointer -falign-fun"
 2761      62202D4F 
 2761      32202D73 
 2761      74643D63 
 2761      3939202D 
 2762 0147 6374696F 		.ascii	"ctions=16 -ffunction-sections -fdata-sections -fno-"
 2762      6E733D31 
 2762      36202D66 
 2762      66756E63 
 2762      74696F6E 
 2763 017a 636F6D6D 		.ascii	"common\000"
 2763      6F6E00
 2764              	.LASF84:
 2765 0181 2F557365 		.ascii	"/Users/raphael/Documents/Projects/rESC/resc-firmwar"
 2765      72732F72 
 2765      61706861 
 2765      656C2F44 
 2765      6F63756D 
 2766 01b4 6500     		.ascii	"e\000"
 2767              	.LASF45:
 2768 01b6 444D415F 		.ascii	"DMA_PeripheralBurst\000"
 2768      50657269 
 2768      70686572 
 2768      616C4275 
 2768      72737400 
 2769              	.LASF7:
 2770 01ca 5F5F7569 		.ascii	"__uint32_t\000"
 2770      6E743332 
 2770      5F7400
 2771              	.LASF72:
 2772 01d5 444D415F 		.ascii	"DMA_GetFIFOStatus\000"
 2772      47657446 
 2772      49464F53 
 2772      74617475 
 2772      7300
 2773              	.LASF4:
 2774 01e7 5F5F7569 		.ascii	"__uint16_t\000"
 2774      6E743136 
 2774      5F7400
 2775              	.LASF70:
 2776 01f2 444D415F 		.ascii	"DMA_GetCmdStatus\000"
 2776      47657443 
 2776      6D645374 
 2776      61747573 
 2776      00
 2777              	.LASF66:
 2778 0203 444D415F 		.ascii	"DMA_MemoryTarget\000"
 2778      4D656D6F 
 2778      72795461 
 2778      72676574 
ARM GAS  /var/folders/m4/4md61f0s1_g0rzfghffqnxvr0000gn/T//ccWNZ4sA.s 			page 51


 2778      00
 2779              	.LASF24:
 2780 0214 444D415F 		.ascii	"DMA_TypeDef\000"
 2780      54797065 
 2780      44656600 
 2781              	.LASF76:
 2782 0220 444D4179 		.ascii	"DMAy\000"
 2782      00
 2783              	.LASF34:
 2784 0225 444D415F 		.ascii	"DMA_DIR\000"
 2784      44495200 
 2785              	.LASF53:
 2786 022d 4E657753 		.ascii	"NewState\000"
 2786      74617465 
 2786      00
 2787              	.LASF32:
 2788 0236 444D415F 		.ascii	"DMA_PeripheralBaseAddr\000"
 2788      50657269 
 2788      70686572 
 2788      616C4261 
 2788      73654164 
 2789              	.LASF28:
 2790 024d 44495341 		.ascii	"DISABLE\000"
 2790      424C4500 
 2791              	.LASF2:
 2792 0255 73686F72 		.ascii	"short int\000"
 2792      7420696E 
 2792      7400
 2793              	.LASF37:
 2794 025f 444D415F 		.ascii	"DMA_MemoryInc\000"
 2794      4D656D6F 
 2794      7279496E 
 2794      6300
 2795              	.LASF80:
 2796 026d 656E6162 		.ascii	"enablestatus\000"
 2796      6C657374 
 2796      61747573 
 2796      00
 2797              	.LASF23:
 2798 027a 48494643 		.ascii	"HIFCR\000"
 2798      5200
 2799              	.LASF9:
 2800 0280 6C6F6E67 		.ascii	"long long int\000"
 2800      206C6F6E 
 2800      6720696E 
 2800      7400
 2801              	.LASF56:
 2802 028e 444D415F 		.ascii	"DMA_FlowControllerConfig\000"
 2802      466C6F77 
 2802      436F6E74 
 2802      726F6C6C 
 2802      6572436F 
 2803              	.LASF64:
 2804 02a7 444D415F 		.ascii	"DMA_MemoryTargetConfig\000"
 2804      4D656D6F 
 2804      72795461 
 2804      72676574 
ARM GAS  /var/folders/m4/4md61f0s1_g0rzfghffqnxvr0000gn/T//ccWNZ4sA.s 			page 52


 2804      436F6E66 
 2805              	.LASF36:
 2806 02be 444D415F 		.ascii	"DMA_PeripheralInc\000"
 2806      50657269 
 2806      70686572 
 2806      616C496E 
 2806      6300
 2807              	.LASF27:
 2808 02d0 49545374 		.ascii	"ITStatus\000"
 2808      61747573 
 2808      00
 2809              	.LASF21:
 2810 02d9 48495352 		.ascii	"HISR\000"
 2810      00
 2811              	.LASF6:
 2812 02de 6C6F6E67 		.ascii	"long int\000"
 2812      20696E74 
 2812      00
 2813              	.LASF48:
 2814 02e7 444D415F 		.ascii	"DMA_Init\000"
 2814      496E6974 
 2814      00
 2815              	.LASF20:
 2816 02f0 4C495352 		.ascii	"LISR\000"
 2816      00
 2817              	.LASF58:
 2818 02f5 444D415F 		.ascii	"DMA_SetCurrDataCounter\000"
 2818      53657443 
 2818      75727244 
 2818      61746143 
 2818      6F756E74 
 2819              	.LASF78:
 2820 030c 444D415F 		.ascii	"DMA_IT\000"
 2820      495400
 2821              	.LASF69:
 2822 0313 746D7072 		.ascii	"tmpreg\000"
 2822      656700
 2823              	.LASF75:
 2824 031a 62697473 		.ascii	"bitstatus\000"
 2824      74617475 
 2824      7300
 2825              	.LASF38:
 2826 0324 444D415F 		.ascii	"DMA_PeripheralDataSize\000"
 2826      50657269 
 2826      70686572 
 2826      616C4461 
 2826      74615369 
 2827              	.LASF46:
 2828 033b 444D415F 		.ascii	"DMA_InitTypeDef\000"
 2828      496E6974 
 2828      54797065 
 2828      44656600 
 2829              	.LASF1:
 2830 034b 756E7369 		.ascii	"unsigned char\000"
 2830      676E6564 
 2830      20636861 
 2830      7200
ARM GAS  /var/folders/m4/4md61f0s1_g0rzfghffqnxvr0000gn/T//ccWNZ4sA.s 			page 53


 2831              	.LASF35:
 2832 0359 444D415F 		.ascii	"DMA_BufferSize\000"
 2832      42756666 
 2832      65725369 
 2832      7A6500
 2833              	.LASF60:
 2834 0368 444D415F 		.ascii	"DMA_DoubleBufferModeConfig\000"
 2834      446F7562 
 2834      6C654275 
 2834      66666572 
 2834      4D6F6465 
 2835              	.LASF10:
 2836 0383 6C6F6E67 		.ascii	"long long unsigned int\000"
 2836      206C6F6E 
 2836      6720756E 
 2836      7369676E 
 2836      65642069 
 2837              	.LASF49:
 2838 039a 444D4179 		.ascii	"DMAy_Streamx\000"
 2838      5F537472 
 2838      65616D78 
 2838      00
 2839              	.LASF14:
 2840 03a7 75696E74 		.ascii	"uint32_t\000"
 2840      33325F74 
 2840      00
 2841              	.LASF11:
 2842 03b0 756E7369 		.ascii	"unsigned int\000"
 2842      676E6564 
 2842      20696E74 
 2842      00
 2843              	.LASF79:
 2844 03bd 444D415F 		.ascii	"DMA_GetITStatus\000"
 2844      47657449 
 2844      54537461 
 2844      74757300 
 2845              	.LASF12:
 2846 03cd 75696E74 		.ascii	"uint16_t\000"
 2846      31365F74 
 2846      00
 2847              	.LASF50:
 2848 03d6 444D415F 		.ascii	"DMA_InitStruct\000"
 2848      496E6974 
 2848      53747275 
 2848      637400
 2849              	.LASF55:
 2850 03e5 444D415F 		.ascii	"DMA_Pincos\000"
 2850      50696E63 
 2850      6F7300
 2851              	.LASF3:
 2852 03f0 73686F72 		.ascii	"short unsigned int\000"
 2852      7420756E 
 2852      7369676E 
 2852      65642069 
 2852      6E7400
 2853              	.LASF18:
 2854 0403 4D314152 		.ascii	"M1AR\000"
ARM GAS  /var/folders/m4/4md61f0s1_g0rzfghffqnxvr0000gn/T//ccWNZ4sA.s 			page 54


 2854      00
 2855              	.LASF44:
 2856 0408 444D415F 		.ascii	"DMA_MemoryBurst\000"
 2856      4D656D6F 
 2856      72794275 
 2856      72737400 
 2857              	.LASF57:
 2858 0418 444D415F 		.ascii	"DMA_FlowCtrl\000"
 2858      466C6F77 
 2858      4374726C 
 2858      00
 2859              	.LASF13:
 2860 0425 696E7433 		.ascii	"int32_t\000"
 2860      325F7400 
 2861              	.LASF74:
 2862 042d 444D415F 		.ascii	"DMA_FLAG\000"
 2862      464C4147 
 2862      00
 2863              	.LASF81:
 2864 0436 444D415F 		.ascii	"DMA_ClearITPendingBit\000"
 2864      436C6561 
 2864      72495450 
 2864      656E6469 
 2864      6E674269 
 2865              	.LASF54:
 2866 044c 444D415F 		.ascii	"DMA_PeriphIncOffsetSizeConfig\000"
 2866      50657269 
 2866      7068496E 
 2866      634F6666 
 2866      73657453 
 2867              	.LASF73:
 2868 046a 444D415F 		.ascii	"DMA_GetFlagStatus\000"
 2868      47657446 
 2868      6C616753 
 2868      74617475 
 2868      7300
 2869              	.LASF22:
 2870 047c 4C494643 		.ascii	"LIFCR\000"
 2870      5200
 2871              	.LASF17:
 2872 0482 4D304152 		.ascii	"M0AR\000"
 2872      00
 2873              	.LASF8:
 2874 0487 6C6F6E67 		.ascii	"long unsigned int\000"
 2874      20756E73 
 2874      69676E65 
 2874      6420696E 
 2874      7400
 2875              	.LASF16:
 2876 0499 4E445452 		.ascii	"NDTR\000"
 2876      00
 2877              	.LASF30:
 2878 049e 46756E63 		.ascii	"FunctionalState\000"
 2878      74696F6E 
 2878      616C5374 
 2878      61746500 
 2879              	.LASF83:
ARM GAS  /var/folders/m4/4md61f0s1_g0rzfghffqnxvr0000gn/T//ccWNZ4sA.s 			page 55


 2880 04ae 43686962 		.ascii	"ChibiOS_16.1.4/ext/stdperiph_stm32f4/src/stm32f4xx_"
 2880      694F535F 
 2880      31362E31 
 2880      2E342F65 
 2880      78742F73 
 2881 04e1 646D612E 		.ascii	"dma.c\000"
 2881      6300
 2882              	.LASF61:
 2883 04e7 4D656D6F 		.ascii	"Memory1BaseAddr\000"
 2883      72793142 
 2883      61736541 
 2883      64647200 
 2884              	.LASF42:
 2885 04f7 444D415F 		.ascii	"DMA_FIFOMode\000"
 2885      4649464F 
 2885      4D6F6465 
 2885      00
 2886              	.LASF31:
 2887 0504 444D415F 		.ascii	"DMA_Channel\000"
 2887      4368616E 
 2887      6E656C00 
 2888              	.LASF5:
 2889 0510 5F5F696E 		.ascii	"__int32_t\000"
 2889      7433325F 
 2889      7400
 2890              	.LASF47:
 2891 051a 444D415F 		.ascii	"DMA_DeInit\000"
 2891      4465496E 
 2891      697400
 2892              	.LASF25:
 2893 0525 52455345 		.ascii	"RESET\000"
 2893      5400
 2894              	.LASF33:
 2895 052b 444D415F 		.ascii	"DMA_Memory0BaseAddr\000"
 2895      4D656D6F 
 2895      72793042 
 2895      61736541 
 2895      64647200 
 2896              	.LASF63:
 2897 053f 444D415F 		.ascii	"DMA_DoubleBufferModeCmd\000"
 2897      446F7562 
 2897      6C654275 
 2897      66666572 
 2897      4D6F6465 
 2898              	.LASF40:
 2899 0557 444D415F 		.ascii	"DMA_Mode\000"
 2899      4D6F6465 
 2899      00
 2900              	.LASF67:
 2901 0560 444D415F 		.ascii	"DMA_GetCurrDataCounter\000"
 2901      47657443 
 2901      75727244 
 2901      61746143 
 2901      6F756E74 
 2902              	.LASF85:
 2903 0577 49544D5F 		.ascii	"ITM_RxBuffer\000"
 2903      52784275 
ARM GAS  /var/folders/m4/4md61f0s1_g0rzfghffqnxvr0000gn/T//ccWNZ4sA.s 			page 56


 2903      66666572 
 2903      00
 2904              	.LASF43:
 2905 0584 444D415F 		.ascii	"DMA_FIFOThreshold\000"
 2905      4649464F 
 2905      54687265 
 2905      73686F6C 
 2905      6400
 2906              	.LASF26:
 2907 0596 466C6167 		.ascii	"FlagStatus\000"
 2907      53746174 
 2907      757300
 2908              	.LASF68:
 2909 05a1 444D415F 		.ascii	"DMA_GetCurrentMemoryTarget\000"
 2909      47657443 
 2909      75727265 
 2909      6E744D65 
 2909      6D6F7279 
 2910              	.LASF29:
 2911 05bc 454E4142 		.ascii	"ENABLE\000"
 2911      4C4500
 2912              	.LASF77:
 2913 05c3 444D415F 		.ascii	"DMA_ITConfig\000"
 2913      4954436F 
 2913      6E666967 
 2913      00
 2914              	.LASF39:
 2915 05d0 444D415F 		.ascii	"DMA_MemoryDataSize\000"
 2915      4D656D6F 
 2915      72794461 
 2915      74615369 
 2915      7A6500
 2916              		.ident	"GCC: (GNU Tools for ARM Embedded Processors) 5.2.1 20151202 (release) [ARM/embedded-5-bran
ARM GAS  /var/folders/m4/4md61f0s1_g0rzfghffqnxvr0000gn/T//ccWNZ4sA.s 			page 57


DEFINED SYMBOLS
                            *ABS*:0000000000000000 stm32f4xx_dma.c
/var/folders/m4/4md61f0s1_g0rzfghffqnxvr0000gn/T//ccWNZ4sA.s:22     .text.DMA_DeInit:0000000000000000 $t
/var/folders/m4/4md61f0s1_g0rzfghffqnxvr0000gn/T//ccWNZ4sA.s:28     .text.DMA_DeInit:0000000000000000 DMA_DeInit
/var/folders/m4/4md61f0s1_g0rzfghffqnxvr0000gn/T//ccWNZ4sA.s:213    .text.DMA_DeInit:00000000000000e0 $d
/var/folders/m4/4md61f0s1_g0rzfghffqnxvr0000gn/T//ccWNZ4sA.s:237    .text.DMA_Init:0000000000000000 $t
/var/folders/m4/4md61f0s1_g0rzfghffqnxvr0000gn/T//ccWNZ4sA.s:243    .text.DMA_Init:0000000000000000 DMA_Init
/var/folders/m4/4md61f0s1_g0rzfghffqnxvr0000gn/T//ccWNZ4sA.s:333    .text.DMA_Init:0000000000000054 $d
/var/folders/m4/4md61f0s1_g0rzfghffqnxvr0000gn/T//ccWNZ4sA.s:338    .text.DMA_StructInit:0000000000000000 $t
/var/folders/m4/4md61f0s1_g0rzfghffqnxvr0000gn/T//ccWNZ4sA.s:344    .text.DMA_StructInit:0000000000000000 DMA_StructInit
/var/folders/m4/4md61f0s1_g0rzfghffqnxvr0000gn/T//ccWNZ4sA.s:388    .text.DMA_Cmd:0000000000000000 $t
/var/folders/m4/4md61f0s1_g0rzfghffqnxvr0000gn/T//ccWNZ4sA.s:394    .text.DMA_Cmd:0000000000000000 DMA_Cmd
/var/folders/m4/4md61f0s1_g0rzfghffqnxvr0000gn/T//ccWNZ4sA.s:419    .text.DMA_PeriphIncOffsetSizeConfig:0000000000000000 $t
/var/folders/m4/4md61f0s1_g0rzfghffqnxvr0000gn/T//ccWNZ4sA.s:425    .text.DMA_PeriphIncOffsetSizeConfig:0000000000000000 DMA_PeriphIncOffsetSizeConfig
/var/folders/m4/4md61f0s1_g0rzfghffqnxvr0000gn/T//ccWNZ4sA.s:450    .text.DMA_FlowControllerConfig:0000000000000000 $t
/var/folders/m4/4md61f0s1_g0rzfghffqnxvr0000gn/T//ccWNZ4sA.s:456    .text.DMA_FlowControllerConfig:0000000000000000 DMA_FlowControllerConfig
/var/folders/m4/4md61f0s1_g0rzfghffqnxvr0000gn/T//ccWNZ4sA.s:481    .text.DMA_SetCurrDataCounter:0000000000000000 $t
/var/folders/m4/4md61f0s1_g0rzfghffqnxvr0000gn/T//ccWNZ4sA.s:487    .text.DMA_SetCurrDataCounter:0000000000000000 DMA_SetCurrDataCounter
/var/folders/m4/4md61f0s1_g0rzfghffqnxvr0000gn/T//ccWNZ4sA.s:502    .text.DMA_GetCurrDataCounter:0000000000000000 $t
/var/folders/m4/4md61f0s1_g0rzfghffqnxvr0000gn/T//ccWNZ4sA.s:508    .text.DMA_GetCurrDataCounter:0000000000000000 DMA_GetCurrDataCounter
/var/folders/m4/4md61f0s1_g0rzfghffqnxvr0000gn/T//ccWNZ4sA.s:526    .text.DMA_DoubleBufferModeConfig:0000000000000000 $t
/var/folders/m4/4md61f0s1_g0rzfghffqnxvr0000gn/T//ccWNZ4sA.s:532    .text.DMA_DoubleBufferModeConfig:0000000000000000 DMA_DoubleBufferModeConfig
/var/folders/m4/4md61f0s1_g0rzfghffqnxvr0000gn/T//ccWNZ4sA.s:561    .text.DMA_DoubleBufferModeCmd:0000000000000000 $t
/var/folders/m4/4md61f0s1_g0rzfghffqnxvr0000gn/T//ccWNZ4sA.s:567    .text.DMA_DoubleBufferModeCmd:0000000000000000 DMA_DoubleBufferModeCmd
/var/folders/m4/4md61f0s1_g0rzfghffqnxvr0000gn/T//ccWNZ4sA.s:592    .text.DMA_MemoryTargetConfig:0000000000000000 $t
/var/folders/m4/4md61f0s1_g0rzfghffqnxvr0000gn/T//ccWNZ4sA.s:598    .text.DMA_MemoryTargetConfig:0000000000000000 DMA_MemoryTargetConfig
/var/folders/m4/4md61f0s1_g0rzfghffqnxvr0000gn/T//ccWNZ4sA.s:619    .text.DMA_GetCurrentMemoryTarget:0000000000000000 $t
/var/folders/m4/4md61f0s1_g0rzfghffqnxvr0000gn/T//ccWNZ4sA.s:625    .text.DMA_GetCurrentMemoryTarget:0000000000000000 DMA_GetCurrentMemoryTarget
/var/folders/m4/4md61f0s1_g0rzfghffqnxvr0000gn/T//ccWNZ4sA.s:644    .text.DMA_GetCmdStatus:0000000000000000 $t
/var/folders/m4/4md61f0s1_g0rzfghffqnxvr0000gn/T//ccWNZ4sA.s:650    .text.DMA_GetCmdStatus:0000000000000000 DMA_GetCmdStatus
/var/folders/m4/4md61f0s1_g0rzfghffqnxvr0000gn/T//ccWNZ4sA.s:669    .text.DMA_GetFIFOStatus:0000000000000000 $t
/var/folders/m4/4md61f0s1_g0rzfghffqnxvr0000gn/T//ccWNZ4sA.s:675    .text.DMA_GetFIFOStatus:0000000000000000 DMA_GetFIFOStatus
/var/folders/m4/4md61f0s1_g0rzfghffqnxvr0000gn/T//ccWNZ4sA.s:694    .text.DMA_GetFlagStatus:0000000000000000 $t
/var/folders/m4/4md61f0s1_g0rzfghffqnxvr0000gn/T//ccWNZ4sA.s:700    .text.DMA_GetFlagStatus:0000000000000000 DMA_GetFlagStatus
/var/folders/m4/4md61f0s1_g0rzfghffqnxvr0000gn/T//ccWNZ4sA.s:750    .text.DMA_GetFlagStatus:0000000000000030 $d
/var/folders/m4/4md61f0s1_g0rzfghffqnxvr0000gn/T//ccWNZ4sA.s:757    .text.DMA_ITConfig:0000000000000000 $t
/var/folders/m4/4md61f0s1_g0rzfghffqnxvr0000gn/T//ccWNZ4sA.s:763    .text.DMA_ITConfig:0000000000000000 DMA_ITConfig
/var/folders/m4/4md61f0s1_g0rzfghffqnxvr0000gn/T//ccWNZ4sA.s:826    .text.DMA_GetITStatus:0000000000000000 $t
/var/folders/m4/4md61f0s1_g0rzfghffqnxvr0000gn/T//ccWNZ4sA.s:832    .text.DMA_GetITStatus:0000000000000000 DMA_GetITStatus
/var/folders/m4/4md61f0s1_g0rzfghffqnxvr0000gn/T//ccWNZ4sA.s:911    .text.DMA_GetITStatus:0000000000000044 $d
/var/folders/m4/4md61f0s1_g0rzfghffqnxvr0000gn/T//ccWNZ4sA.s:918    .text.DMA_ClearITPendingBit:0000000000000000 $t
/var/folders/m4/4md61f0s1_g0rzfghffqnxvr0000gn/T//ccWNZ4sA.s:924    .text.DMA_ClearITPendingBit:0000000000000000 DMA_ClearITPendingBit
/var/folders/m4/4md61f0s1_g0rzfghffqnxvr0000gn/T//ccWNZ4sA.s:964    .text.DMA_ClearITPendingBit:0000000000000028 $d
/var/folders/m4/4md61f0s1_g0rzfghffqnxvr0000gn/T//ccWNZ4sA.s:971    .text.DMA_ClearFlag:0000000000000000 $t
/var/folders/m4/4md61f0s1_g0rzfghffqnxvr0000gn/T//ccWNZ4sA.s:977    .text.DMA_ClearFlag:0000000000000000 DMA_ClearFlag
                     .debug_frame:0000000000000010 $d

NO UNDEFINED SYMBOLS
