ARM GAS  /var/folders/m4/4md61f0s1_g0rzfghffqnxvr0000gn/T//ccZNYUOX.s 			page 1


   1              		.syntax unified
   2              		.cpu cortex-m4
   3              		.eabi_attribute 27, 1
   4              		.eabi_attribute 28, 1
   5              		.fpu fpv4-sp-d16
   6              		.eabi_attribute 20, 1
   7              		.eabi_attribute 21, 1
   8              		.eabi_attribute 23, 3
   9              		.eabi_attribute 24, 1
  10              		.eabi_attribute 25, 1
  11              		.eabi_attribute 26, 1
  12              		.eabi_attribute 30, 2
  13              		.eabi_attribute 34, 1
  14              		.eabi_attribute 18, 4
  15              		.thumb
  16              		.syntax unified
  17              		.file	"stm32f4xx_flash.c"
  18              		.text
  19              	.Ltext0:
  20              		.cfi_sections	.debug_frame
  21              		.section	.text.FLASH_SetLatency,"ax",%progbits
  22              		.align	2
  23              		.p2align 4,,15
  24              		.global	FLASH_SetLatency
  25              		.thumb
  26              		.thumb_func
  27              		.type	FLASH_SetLatency, %function
  28              	FLASH_SetLatency:
  29              	.LFB123:
  30              		.file 1 "ChibiOS_16.1.4/ext/stdperiph_stm32f4/src/stm32f4xx_flash.c"
  31              		.loc 1 296 0
  32              		.cfi_startproc
  33              		@ args = 0, pretend = 0, frame = 0
  34              		@ frame_needed = 0, uses_anonymous_args = 0
  35              		@ link register save eliminated.
  36              	.LVL0:
  37              		.loc 1 301 0
  38 0000 014B     		ldr	r3, .L2
  39 0002 C0B2     		uxtb	r0, r0
  40              	.LVL1:
  41 0004 1870     		strb	r0, [r3]
  42 0006 7047     		bx	lr
  43              	.L3:
  44              		.align	2
  45              	.L2:
  46 0008 003C0240 		.word	1073888256
  47              		.cfi_endproc
  48              	.LFE123:
  49              		.size	FLASH_SetLatency, .-FLASH_SetLatency
  50              		.section	.text.FLASH_PrefetchBufferCmd,"ax",%progbits
  51              		.align	2
  52              		.p2align 4,,15
  53              		.global	FLASH_PrefetchBufferCmd
  54              		.thumb
  55              		.thumb_func
  56              		.type	FLASH_PrefetchBufferCmd, %function
  57              	FLASH_PrefetchBufferCmd:
ARM GAS  /var/folders/m4/4md61f0s1_g0rzfghffqnxvr0000gn/T//ccZNYUOX.s 			page 2


  58              	.LFB124:
  59              		.loc 1 311 0
  60              		.cfi_startproc
  61              		@ args = 0, pretend = 0, frame = 0
  62              		@ frame_needed = 0, uses_anonymous_args = 0
  63              		@ link register save eliminated.
  64              	.LVL2:
  65              		.loc 1 318 0
  66 0000 054A     		ldr	r2, .L9
  67 0002 1368     		ldr	r3, [r2]
  68              		.loc 1 316 0
  69 0004 18B9     		cbnz	r0, .L8
  70              		.loc 1 322 0
  71 0006 23F48073 		bic	r3, r3, #256
  72 000a 1360     		str	r3, [r2]
  73 000c 7047     		bx	lr
  74              	.L8:
  75              		.loc 1 318 0
  76 000e 43F48073 		orr	r3, r3, #256
  77 0012 1360     		str	r3, [r2]
  78 0014 7047     		bx	lr
  79              	.L10:
  80 0016 00BF     		.align	2
  81              	.L9:
  82 0018 003C0240 		.word	1073888256
  83              		.cfi_endproc
  84              	.LFE124:
  85              		.size	FLASH_PrefetchBufferCmd, .-FLASH_PrefetchBufferCmd
  86              		.section	.text.FLASH_InstructionCacheCmd,"ax",%progbits
  87              		.align	2
  88              		.p2align 4,,15
  89              		.global	FLASH_InstructionCacheCmd
  90              		.thumb
  91              		.thumb_func
  92              		.type	FLASH_InstructionCacheCmd, %function
  93              	FLASH_InstructionCacheCmd:
  94              	.LFB125:
  95              		.loc 1 333 0
  96              		.cfi_startproc
  97              		@ args = 0, pretend = 0, frame = 0
  98              		@ frame_needed = 0, uses_anonymous_args = 0
  99              		@ link register save eliminated.
 100              	.LVL3:
 101              		.loc 1 339 0
 102 0000 054A     		ldr	r2, .L15
 103 0002 1368     		ldr	r3, [r2]
 104              		.loc 1 337 0
 105 0004 18B9     		cbnz	r0, .L14
 106              		.loc 1 343 0
 107 0006 23F40073 		bic	r3, r3, #512
 108 000a 1360     		str	r3, [r2]
 109 000c 7047     		bx	lr
 110              	.L14:
 111              		.loc 1 339 0
 112 000e 43F40073 		orr	r3, r3, #512
 113 0012 1360     		str	r3, [r2]
 114 0014 7047     		bx	lr
ARM GAS  /var/folders/m4/4md61f0s1_g0rzfghffqnxvr0000gn/T//ccZNYUOX.s 			page 3


 115              	.L16:
 116 0016 00BF     		.align	2
 117              	.L15:
 118 0018 003C0240 		.word	1073888256
 119              		.cfi_endproc
 120              	.LFE125:
 121              		.size	FLASH_InstructionCacheCmd, .-FLASH_InstructionCacheCmd
 122              		.section	.text.FLASH_DataCacheCmd,"ax",%progbits
 123              		.align	2
 124              		.p2align 4,,15
 125              		.global	FLASH_DataCacheCmd
 126              		.thumb
 127              		.thumb_func
 128              		.type	FLASH_DataCacheCmd, %function
 129              	FLASH_DataCacheCmd:
 130              	.LFB126:
 131              		.loc 1 354 0
 132              		.cfi_startproc
 133              		@ args = 0, pretend = 0, frame = 0
 134              		@ frame_needed = 0, uses_anonymous_args = 0
 135              		@ link register save eliminated.
 136              	.LVL4:
 137              		.loc 1 360 0
 138 0000 054A     		ldr	r2, .L21
 139 0002 1368     		ldr	r3, [r2]
 140              		.loc 1 358 0
 141 0004 18B9     		cbnz	r0, .L20
 142              		.loc 1 364 0
 143 0006 23F48063 		bic	r3, r3, #1024
 144 000a 1360     		str	r3, [r2]
 145 000c 7047     		bx	lr
 146              	.L20:
 147              		.loc 1 360 0
 148 000e 43F48063 		orr	r3, r3, #1024
 149 0012 1360     		str	r3, [r2]
 150 0014 7047     		bx	lr
 151              	.L22:
 152 0016 00BF     		.align	2
 153              	.L21:
 154 0018 003C0240 		.word	1073888256
 155              		.cfi_endproc
 156              	.LFE126:
 157              		.size	FLASH_DataCacheCmd, .-FLASH_DataCacheCmd
 158              		.section	.text.FLASH_InstructionCacheReset,"ax",%progbits
 159              		.align	2
 160              		.p2align 4,,15
 161              		.global	FLASH_InstructionCacheReset
 162              		.thumb
 163              		.thumb_func
 164              		.type	FLASH_InstructionCacheReset, %function
 165              	FLASH_InstructionCacheReset:
 166              	.LFB127:
 167              		.loc 1 375 0
 168              		.cfi_startproc
 169              		@ args = 0, pretend = 0, frame = 0
 170              		@ frame_needed = 0, uses_anonymous_args = 0
 171              		@ link register save eliminated.
ARM GAS  /var/folders/m4/4md61f0s1_g0rzfghffqnxvr0000gn/T//ccZNYUOX.s 			page 4


 172              		.loc 1 376 0
 173 0000 024A     		ldr	r2, .L24
 174 0002 1368     		ldr	r3, [r2]
 175 0004 43F40063 		orr	r3, r3, #2048
 176 0008 1360     		str	r3, [r2]
 177 000a 7047     		bx	lr
 178              	.L25:
 179              		.align	2
 180              	.L24:
 181 000c 003C0240 		.word	1073888256
 182              		.cfi_endproc
 183              	.LFE127:
 184              		.size	FLASH_InstructionCacheReset, .-FLASH_InstructionCacheReset
 185              		.section	.text.FLASH_DataCacheReset,"ax",%progbits
 186              		.align	2
 187              		.p2align 4,,15
 188              		.global	FLASH_DataCacheReset
 189              		.thumb
 190              		.thumb_func
 191              		.type	FLASH_DataCacheReset, %function
 192              	FLASH_DataCacheReset:
 193              	.LFB128:
 194              		.loc 1 386 0
 195              		.cfi_startproc
 196              		@ args = 0, pretend = 0, frame = 0
 197              		@ frame_needed = 0, uses_anonymous_args = 0
 198              		@ link register save eliminated.
 199              		.loc 1 387 0
 200 0000 024A     		ldr	r2, .L27
 201 0002 1368     		ldr	r3, [r2]
 202 0004 43F48053 		orr	r3, r3, #4096
 203 0008 1360     		str	r3, [r2]
 204 000a 7047     		bx	lr
 205              	.L28:
 206              		.align	2
 207              	.L27:
 208 000c 003C0240 		.word	1073888256
 209              		.cfi_endproc
 210              	.LFE128:
 211              		.size	FLASH_DataCacheReset, .-FLASH_DataCacheReset
 212              		.section	.text.FLASH_Unlock,"ax",%progbits
 213              		.align	2
 214              		.p2align 4,,15
 215              		.global	FLASH_Unlock
 216              		.thumb
 217              		.thumb_func
 218              		.type	FLASH_Unlock, %function
 219              	FLASH_Unlock:
 220              	.LFB129:
 221              		.loc 1 433 0
 222              		.cfi_startproc
 223              		@ args = 0, pretend = 0, frame = 0
 224              		@ frame_needed = 0, uses_anonymous_args = 0
 225              		@ link register save eliminated.
 226              		.loc 1 434 0
 227 0000 044B     		ldr	r3, .L31
 228 0002 1A69     		ldr	r2, [r3, #16]
ARM GAS  /var/folders/m4/4md61f0s1_g0rzfghffqnxvr0000gn/T//ccZNYUOX.s 			page 5


 229 0004 002A     		cmp	r2, #0
 230 0006 03DA     		bge	.L29
 231              		.loc 1 437 0
 232 0008 0349     		ldr	r1, .L31+4
 233              		.loc 1 438 0
 234 000a 044A     		ldr	r2, .L31+8
 235              		.loc 1 437 0
 236 000c 5960     		str	r1, [r3, #4]
 237              		.loc 1 438 0
 238 000e 5A60     		str	r2, [r3, #4]
 239              	.L29:
 240 0010 7047     		bx	lr
 241              	.L32:
 242 0012 00BF     		.align	2
 243              	.L31:
 244 0014 003C0240 		.word	1073888256
 245 0018 23016745 		.word	1164378403
 246 001c AB89EFCD 		.word	-839939669
 247              		.cfi_endproc
 248              	.LFE129:
 249              		.size	FLASH_Unlock, .-FLASH_Unlock
 250              		.section	.text.FLASH_Lock,"ax",%progbits
 251              		.align	2
 252              		.p2align 4,,15
 253              		.global	FLASH_Lock
 254              		.thumb
 255              		.thumb_func
 256              		.type	FLASH_Lock, %function
 257              	FLASH_Lock:
 258              	.LFB130:
 259              		.loc 1 448 0
 260              		.cfi_startproc
 261              		@ args = 0, pretend = 0, frame = 0
 262              		@ frame_needed = 0, uses_anonymous_args = 0
 263              		@ link register save eliminated.
 264              		.loc 1 450 0
 265 0000 024A     		ldr	r2, .L34
 266 0002 1369     		ldr	r3, [r2, #16]
 267 0004 43F00043 		orr	r3, r3, #-2147483648
 268 0008 1361     		str	r3, [r2, #16]
 269 000a 7047     		bx	lr
 270              	.L35:
 271              		.align	2
 272              	.L34:
 273 000c 003C0240 		.word	1073888256
 274              		.cfi_endproc
 275              	.LFE130:
 276              		.size	FLASH_Lock, .-FLASH_Lock
 277              		.section	.text.FLASH_OB_Unlock,"ax",%progbits
 278              		.align	2
 279              		.p2align 4,,15
 280              		.global	FLASH_OB_Unlock
 281              		.thumb
 282              		.thumb_func
 283              		.type	FLASH_OB_Unlock, %function
 284              	FLASH_OB_Unlock:
 285              	.LFB139:
ARM GAS  /var/folders/m4/4md61f0s1_g0rzfghffqnxvr0000gn/T//ccZNYUOX.s 			page 6


 286              		.loc 1 990 0
 287              		.cfi_startproc
 288              		@ args = 0, pretend = 0, frame = 0
 289              		@ frame_needed = 0, uses_anonymous_args = 0
 290              		@ link register save eliminated.
 291              		.loc 1 991 0
 292 0000 044B     		ldr	r3, .L41
 293 0002 5A69     		ldr	r2, [r3, #20]
 294 0004 D207     		lsls	r2, r2, #31
 295 0006 03D5     		bpl	.L36
 296              		.loc 1 994 0
 297 0008 0349     		ldr	r1, .L41+4
 298              		.loc 1 995 0
 299 000a 044A     		ldr	r2, .L41+8
 300              		.loc 1 994 0
 301 000c 9960     		str	r1, [r3, #8]
 302              		.loc 1 995 0
 303 000e 9A60     		str	r2, [r3, #8]
 304              	.L36:
 305 0010 7047     		bx	lr
 306              	.L42:
 307 0012 00BF     		.align	2
 308              	.L41:
 309 0014 003C0240 		.word	1073888256
 310 0018 3B2A1908 		.word	135866939
 311 001c 7F6E5D4C 		.word	1281191551
 312              		.cfi_endproc
 313              	.LFE139:
 314              		.size	FLASH_OB_Unlock, .-FLASH_OB_Unlock
 315              		.section	.text.FLASH_OB_Lock,"ax",%progbits
 316              		.align	2
 317              		.p2align 4,,15
 318              		.global	FLASH_OB_Lock
 319              		.thumb
 320              		.thumb_func
 321              		.type	FLASH_OB_Lock, %function
 322              	FLASH_OB_Lock:
 323              	.LFB140:
 324              		.loc 1 1005 0
 325              		.cfi_startproc
 326              		@ args = 0, pretend = 0, frame = 0
 327              		@ frame_needed = 0, uses_anonymous_args = 0
 328              		@ link register save eliminated.
 329              		.loc 1 1007 0
 330 0000 024A     		ldr	r2, .L44
 331 0002 5369     		ldr	r3, [r2, #20]
 332 0004 43F00103 		orr	r3, r3, #1
 333 0008 5361     		str	r3, [r2, #20]
 334 000a 7047     		bx	lr
 335              	.L45:
 336              		.align	2
 337              	.L44:
 338 000c 003C0240 		.word	1073888256
 339              		.cfi_endproc
 340              	.LFE140:
 341              		.size	FLASH_OB_Lock, .-FLASH_OB_Lock
 342              		.section	.text.FLASH_OB_PCROPSelectionConfig,"ax",%progbits
ARM GAS  /var/folders/m4/4md61f0s1_g0rzfghffqnxvr0000gn/T//ccZNYUOX.s 			page 7


 343              		.align	2
 344              		.p2align 4,,15
 345              		.global	FLASH_OB_PCROPSelectionConfig
 346              		.thumb
 347              		.thumb_func
 348              		.type	FLASH_OB_PCROPSelectionConfig, %function
 349              	FLASH_OB_PCROPSelectionConfig:
 350              	.LFB143:
 351              		.loc 1 1120 0
 352              		.cfi_startproc
 353              		@ args = 0, pretend = 0, frame = 0
 354              		@ frame_needed = 0, uses_anonymous_args = 0
 355              		@ link register save eliminated.
 356              	.LVL5:
 357              		.loc 1 1127 0
 358 0000 034A     		ldr	r2, .L47
 359 0002 1378     		ldrb	r3, [r2]	@ zero_extendqisi2
 360              	.LVL6:
 361              		.loc 1 1129 0
 362 0004 03F07F03 		and	r3, r3, #127
 363              	.LVL7:
 364 0008 1843     		orrs	r0, r0, r3
 365              	.LVL8:
 366 000a 1070     		strb	r0, [r2]
 367 000c 7047     		bx	lr
 368              	.L48:
 369 000e 00BF     		.align	2
 370              	.L47:
 371 0010 173C0240 		.word	1073888279
 372              		.cfi_endproc
 373              	.LFE143:
 374              		.size	FLASH_OB_PCROPSelectionConfig, .-FLASH_OB_PCROPSelectionConfig
 375              		.section	.text.FLASH_OB_BootConfig,"ax",%progbits
 376              		.align	2
 377              		.p2align 4,,15
 378              		.global	FLASH_OB_BootConfig
 379              		.thumb
 380              		.thumb_func
 381              		.type	FLASH_OB_BootConfig, %function
 382              	FLASH_OB_BootConfig:
 383              	.LFB148:
 384              		.loc 1 1296 0
 385              		.cfi_startproc
 386              		@ args = 0, pretend = 0, frame = 0
 387              		@ frame_needed = 0, uses_anonymous_args = 0
 388              		@ link register save eliminated.
 389              	.LVL9:
 390              		.loc 1 1301 0
 391 0000 044B     		ldr	r3, .L50
 392 0002 1A78     		ldrb	r2, [r3]	@ zero_extendqisi2
 393 0004 02F0EF02 		and	r2, r2, #239
 394 0008 1A70     		strb	r2, [r3]
 395              		.loc 1 1302 0
 396 000a 1A78     		ldrb	r2, [r3]	@ zero_extendqisi2
 397 000c 1043     		orrs	r0, r0, r2
 398              	.LVL10:
 399 000e 1870     		strb	r0, [r3]
ARM GAS  /var/folders/m4/4md61f0s1_g0rzfghffqnxvr0000gn/T//ccZNYUOX.s 			page 8


 400 0010 7047     		bx	lr
 401              	.L51:
 402 0012 00BF     		.align	2
 403              	.L50:
 404 0014 143C0240 		.word	1073888276
 405              		.cfi_endproc
 406              	.LFE148:
 407              		.size	FLASH_OB_BootConfig, .-FLASH_OB_BootConfig
 408              		.section	.text.FLASH_OB_BORConfig,"ax",%progbits
 409              		.align	2
 410              		.p2align 4,,15
 411              		.global	FLASH_OB_BORConfig
 412              		.thumb
 413              		.thumb_func
 414              		.type	FLASH_OB_BORConfig, %function
 415              	FLASH_OB_BORConfig:
 416              	.LFB149:
 417              		.loc 1 1317 0
 418              		.cfi_startproc
 419              		@ args = 0, pretend = 0, frame = 0
 420              		@ frame_needed = 0, uses_anonymous_args = 0
 421              		@ link register save eliminated.
 422              	.LVL11:
 423              		.loc 1 1322 0
 424 0000 044B     		ldr	r3, .L53
 425 0002 1A78     		ldrb	r2, [r3]	@ zero_extendqisi2
 426 0004 02F0F302 		and	r2, r2, #243
 427 0008 1A70     		strb	r2, [r3]
 428              		.loc 1 1323 0
 429 000a 1A78     		ldrb	r2, [r3]	@ zero_extendqisi2
 430 000c 1043     		orrs	r0, r0, r2
 431              	.LVL12:
 432 000e 1870     		strb	r0, [r3]
 433 0010 7047     		bx	lr
 434              	.L54:
 435 0012 00BF     		.align	2
 436              	.L53:
 437 0014 143C0240 		.word	1073888276
 438              		.cfi_endproc
 439              	.LFE149:
 440              		.size	FLASH_OB_BORConfig, .-FLASH_OB_BORConfig
 441              		.section	.text.FLASH_OB_GetUser,"ax",%progbits
 442              		.align	2
 443              		.p2align 4,,15
 444              		.global	FLASH_OB_GetUser
 445              		.thumb
 446              		.thumb_func
 447              		.type	FLASH_OB_GetUser, %function
 448              	FLASH_OB_GetUser:
 449              	.LFB151:
 450              		.loc 1 1353 0
 451              		.cfi_startproc
 452              		@ args = 0, pretend = 0, frame = 0
 453              		@ frame_needed = 0, uses_anonymous_args = 0
 454              		@ link register save eliminated.
 455              		.loc 1 1355 0
 456 0000 024B     		ldr	r3, .L56
ARM GAS  /var/folders/m4/4md61f0s1_g0rzfghffqnxvr0000gn/T//ccZNYUOX.s 			page 9


 457 0002 5869     		ldr	r0, [r3, #20]
 458              		.loc 1 1356 0
 459 0004 C0F34710 		ubfx	r0, r0, #5, #8
 460 0008 7047     		bx	lr
 461              	.L57:
 462 000a 00BF     		.align	2
 463              	.L56:
 464 000c 003C0240 		.word	1073888256
 465              		.cfi_endproc
 466              	.LFE151:
 467              		.size	FLASH_OB_GetUser, .-FLASH_OB_GetUser
 468              		.section	.text.FLASH_OB_GetWRP,"ax",%progbits
 469              		.align	2
 470              		.p2align 4,,15
 471              		.global	FLASH_OB_GetWRP
 472              		.thumb
 473              		.thumb_func
 474              		.type	FLASH_OB_GetWRP, %function
 475              	FLASH_OB_GetWRP:
 476              	.LFB167:
 477              		.cfi_startproc
 478              		@ args = 0, pretend = 0, frame = 0
 479              		@ frame_needed = 0, uses_anonymous_args = 0
 480              		@ link register save eliminated.
 481 0000 014B     		ldr	r3, .L59
 482 0002 1888     		ldrh	r0, [r3]
 483 0004 80B2     		uxth	r0, r0
 484 0006 7047     		bx	lr
 485              	.L60:
 486              		.align	2
 487              	.L59:
 488 0008 163C0240 		.word	1073888278
 489              		.cfi_endproc
 490              	.LFE167:
 491              		.size	FLASH_OB_GetWRP, .-FLASH_OB_GetWRP
 492              		.section	.text.FLASH_OB_GetWRP1,"ax",%progbits
 493              		.align	2
 494              		.p2align 4,,15
 495              		.global	FLASH_OB_GetWRP1
 496              		.thumb
 497              		.thumb_func
 498              		.type	FLASH_OB_GetWRP1, %function
 499              	FLASH_OB_GetWRP1:
 500              	.LFB165:
 501              		.cfi_startproc
 502              		@ args = 0, pretend = 0, frame = 0
 503              		@ frame_needed = 0, uses_anonymous_args = 0
 504              		@ link register save eliminated.
 505 0000 014B     		ldr	r3, .L62
 506 0002 1888     		ldrh	r0, [r3]
 507 0004 80B2     		uxth	r0, r0
 508 0006 7047     		bx	lr
 509              	.L63:
 510              		.align	2
 511              	.L62:
 512 0008 1A3C0240 		.word	1073888282
 513              		.cfi_endproc
ARM GAS  /var/folders/m4/4md61f0s1_g0rzfghffqnxvr0000gn/T//ccZNYUOX.s 			page 10


 514              	.LFE165:
 515              		.size	FLASH_OB_GetWRP1, .-FLASH_OB_GetWRP1
 516              		.section	.text.FLASH_OB_GetPCROP,"ax",%progbits
 517              		.align	2
 518              		.p2align 4,,15
 519              		.global	FLASH_OB_GetPCROP
 520              		.thumb
 521              		.thumb_func
 522              		.type	FLASH_OB_GetPCROP, %function
 523              	FLASH_OB_GetPCROP:
 524              	.LFB154:
 525              		.loc 1 1392 0
 526              		.cfi_startproc
 527              		@ args = 0, pretend = 0, frame = 0
 528              		@ frame_needed = 0, uses_anonymous_args = 0
 529              		@ link register save eliminated.
 530              		.loc 1 1394 0
 531 0000 014B     		ldr	r3, .L65
 532 0002 1888     		ldrh	r0, [r3]
 533              		.loc 1 1395 0
 534 0004 80B2     		uxth	r0, r0
 535 0006 7047     		bx	lr
 536              	.L66:
 537              		.align	2
 538              	.L65:
 539 0008 163C0240 		.word	1073888278
 540              		.cfi_endproc
 541              	.LFE154:
 542              		.size	FLASH_OB_GetPCROP, .-FLASH_OB_GetPCROP
 543              		.section	.text.FLASH_OB_GetPCROP1,"ax",%progbits
 544              		.align	2
 545              		.p2align 4,,15
 546              		.global	FLASH_OB_GetPCROP1
 547              		.thumb
 548              		.thumb_func
 549              		.type	FLASH_OB_GetPCROP1, %function
 550              	FLASH_OB_GetPCROP1:
 551              	.LFB155:
 552              		.loc 1 1406 0
 553              		.cfi_startproc
 554              		@ args = 0, pretend = 0, frame = 0
 555              		@ frame_needed = 0, uses_anonymous_args = 0
 556              		@ link register save eliminated.
 557              		.loc 1 1408 0
 558 0000 014B     		ldr	r3, .L68
 559 0002 1888     		ldrh	r0, [r3]
 560              		.loc 1 1409 0
 561 0004 80B2     		uxth	r0, r0
 562 0006 7047     		bx	lr
 563              	.L69:
 564              		.align	2
 565              	.L68:
 566 0008 1A3C0240 		.word	1073888282
 567              		.cfi_endproc
 568              	.LFE155:
 569              		.size	FLASH_OB_GetPCROP1, .-FLASH_OB_GetPCROP1
 570              		.section	.text.FLASH_OB_GetRDP,"ax",%progbits
ARM GAS  /var/folders/m4/4md61f0s1_g0rzfghffqnxvr0000gn/T//ccZNYUOX.s 			page 11


 571              		.align	2
 572              		.p2align 4,,15
 573              		.global	FLASH_OB_GetRDP
 574              		.thumb
 575              		.thumb_func
 576              		.type	FLASH_OB_GetRDP, %function
 577              	FLASH_OB_GetRDP:
 578              	.LFB156:
 579              		.loc 1 1419 0
 580              		.cfi_startproc
 581              		@ args = 0, pretend = 0, frame = 0
 582              		@ frame_needed = 0, uses_anonymous_args = 0
 583              		@ link register save eliminated.
 584              	.LVL13:
 585              		.loc 1 1422 0
 586 0000 024B     		ldr	r3, .L71
 587 0002 1878     		ldrb	r0, [r3]	@ zero_extendqisi2
 588              	.LVL14:
 589              		.loc 1 1431 0
 590 0004 AA38     		subs	r0, r0, #170
 591              	.LVL15:
 592 0006 18BF     		it	ne
 593 0008 0120     		movne	r0, #1
 594 000a 7047     		bx	lr
 595              	.L72:
 596              		.align	2
 597              	.L71:
 598 000c 153C0240 		.word	1073888277
 599              		.cfi_endproc
 600              	.LFE156:
 601              		.size	FLASH_OB_GetRDP, .-FLASH_OB_GetRDP
 602              		.section	.text.FLASH_OB_GetBOR,"ax",%progbits
 603              		.align	2
 604              		.p2align 4,,15
 605              		.global	FLASH_OB_GetBOR
 606              		.thumb
 607              		.thumb_func
 608              		.type	FLASH_OB_GetBOR, %function
 609              	FLASH_OB_GetBOR:
 610              	.LFB157:
 611              		.loc 1 1443 0
 612              		.cfi_startproc
 613              		@ args = 0, pretend = 0, frame = 0
 614              		@ frame_needed = 0, uses_anonymous_args = 0
 615              		@ link register save eliminated.
 616              		.loc 1 1445 0
 617 0000 024B     		ldr	r3, .L74
 618 0002 1878     		ldrb	r0, [r3]	@ zero_extendqisi2
 619              		.loc 1 1446 0
 620 0004 00F00C00 		and	r0, r0, #12
 621 0008 7047     		bx	lr
 622              	.L75:
 623 000a 00BF     		.align	2
 624              	.L74:
 625 000c 143C0240 		.word	1073888276
 626              		.cfi_endproc
 627              	.LFE157:
ARM GAS  /var/folders/m4/4md61f0s1_g0rzfghffqnxvr0000gn/T//ccZNYUOX.s 			page 12


 628              		.size	FLASH_OB_GetBOR, .-FLASH_OB_GetBOR
 629              		.section	.text.FLASH_ITConfig,"ax",%progbits
 630              		.align	2
 631              		.p2align 4,,15
 632              		.global	FLASH_ITConfig
 633              		.thumb
 634              		.thumb_func
 635              		.type	FLASH_ITConfig, %function
 636              	FLASH_ITConfig:
 637              	.LFB158:
 638              		.loc 1 1472 0
 639              		.cfi_startproc
 640              		@ args = 0, pretend = 0, frame = 0
 641              		@ frame_needed = 0, uses_anonymous_args = 0
 642              		@ link register save eliminated.
 643              	.LVL16:
 644              		.loc 1 1477 0
 645 0000 29B9     		cbnz	r1, .L79
 646              		.loc 1 1485 0
 647 0002 054A     		ldr	r2, .L80
 648 0004 1369     		ldr	r3, [r2, #16]
 649 0006 23EA0000 		bic	r0, r3, r0
 650              	.LVL17:
 651 000a 1061     		str	r0, [r2, #16]
 652 000c 7047     		bx	lr
 653              	.LVL18:
 654              	.L79:
 655              		.loc 1 1480 0
 656 000e 024B     		ldr	r3, .L80
 657 0010 1A69     		ldr	r2, [r3, #16]
 658 0012 1043     		orrs	r0, r0, r2
 659              	.LVL19:
 660 0014 1861     		str	r0, [r3, #16]
 661 0016 7047     		bx	lr
 662              	.L81:
 663              		.align	2
 664              	.L80:
 665 0018 003C0240 		.word	1073888256
 666              		.cfi_endproc
 667              	.LFE158:
 668              		.size	FLASH_ITConfig, .-FLASH_ITConfig
 669              		.section	.text.FLASH_GetFlagStatus,"ax",%progbits
 670              		.align	2
 671              		.p2align 4,,15
 672              		.global	FLASH_GetFlagStatus
 673              		.thumb
 674              		.thumb_func
 675              		.type	FLASH_GetFlagStatus, %function
 676              	FLASH_GetFlagStatus:
 677              	.LFB159:
 678              		.loc 1 1504 0
 679              		.cfi_startproc
 680              		@ args = 0, pretend = 0, frame = 0
 681              		@ frame_needed = 0, uses_anonymous_args = 0
 682              		@ link register save eliminated.
 683              	.LVL20:
 684              		.loc 1 1509 0
ARM GAS  /var/folders/m4/4md61f0s1_g0rzfghffqnxvr0000gn/T//ccZNYUOX.s 			page 13


 685 0000 034B     		ldr	r3, .L83
 686 0002 DB68     		ldr	r3, [r3, #12]
 687              	.LVL21:
 688              		.loc 1 1518 0
 689 0004 0342     		tst	r3, r0
 690              		.loc 1 1519 0
 691 0006 14BF     		ite	ne
 692 0008 0120     		movne	r0, #1
 693              	.LVL22:
 694 000a 0020     		moveq	r0, #0
 695 000c 7047     		bx	lr
 696              	.L84:
 697 000e 00BF     		.align	2
 698              	.L83:
 699 0010 003C0240 		.word	1073888256
 700              		.cfi_endproc
 701              	.LFE159:
 702              		.size	FLASH_GetFlagStatus, .-FLASH_GetFlagStatus
 703              		.section	.text.FLASH_ClearFlag,"ax",%progbits
 704              		.align	2
 705              		.p2align 4,,15
 706              		.global	FLASH_ClearFlag
 707              		.thumb
 708              		.thumb_func
 709              		.type	FLASH_ClearFlag, %function
 710              	FLASH_ClearFlag:
 711              	.LFB160:
 712              		.loc 1 1535 0
 713              		.cfi_startproc
 714              		@ args = 0, pretend = 0, frame = 0
 715              		@ frame_needed = 0, uses_anonymous_args = 0
 716              		@ link register save eliminated.
 717              	.LVL23:
 718              		.loc 1 1540 0
 719 0000 014B     		ldr	r3, .L86
 720 0002 D860     		str	r0, [r3, #12]
 721 0004 7047     		bx	lr
 722              	.L87:
 723 0006 00BF     		.align	2
 724              	.L86:
 725 0008 003C0240 		.word	1073888256
 726              		.cfi_endproc
 727              	.LFE160:
 728              		.size	FLASH_ClearFlag, .-FLASH_ClearFlag
 729              		.section	.text.FLASH_GetStatus,"ax",%progbits
 730              		.align	2
 731              		.p2align 4,,15
 732              		.global	FLASH_GetStatus
 733              		.thumb
 734              		.thumb_func
 735              		.type	FLASH_GetStatus, %function
 736              	FLASH_GetStatus:
 737              	.LFB161:
 738              		.loc 1 1550 0
 739              		.cfi_startproc
 740              		@ args = 0, pretend = 0, frame = 0
 741              		@ frame_needed = 0, uses_anonymous_args = 0
ARM GAS  /var/folders/m4/4md61f0s1_g0rzfghffqnxvr0000gn/T//ccZNYUOX.s 			page 14


 742              		@ link register save eliminated.
 743              	.LVL24:
 744              		.loc 1 1553 0
 745 0000 0E4B     		ldr	r3, .L98
 746 0002 DA68     		ldr	r2, [r3, #12]
 747 0004 D203     		lsls	r2, r2, #15
 748 0006 09D4     		bmi	.L90
 749              		.loc 1 1559 0
 750 0008 DA68     		ldr	r2, [r3, #12]
 751 000a D106     		lsls	r1, r2, #27
 752 000c 01D5     		bpl	.L95
 753              		.loc 1 1561 0
 754 000e 0620     		movs	r0, #6
 755 0010 7047     		bx	lr
 756              	.L95:
 757              		.loc 1 1565 0
 758 0012 DA68     		ldr	r2, [r3, #12]
 759 0014 D205     		lsls	r2, r2, #23
 760 0016 03D5     		bpl	.L96
 761              		.loc 1 1567 0
 762 0018 0220     		movs	r0, #2
 763 001a 7047     		bx	lr
 764              	.L90:
 765              		.loc 1 1555 0
 766 001c 0120     		movs	r0, #1
 767 001e 7047     		bx	lr
 768              	.L96:
 769              		.loc 1 1571 0
 770 0020 DA68     		ldr	r2, [r3, #12]
 771 0022 12F0E00F 		tst	r2, #224
 772 0026 01D0     		beq	.L97
 773              		.loc 1 1573 0
 774 0028 0720     		movs	r0, #7
 775              	.LVL25:
 776              		.loc 1 1591 0
 777 002a 7047     		bx	lr
 778              	.LVL26:
 779              	.L97:
 780              	.LBB4:
 781              	.LBB5:
 782              		.loc 1 1577 0
 783 002c DB68     		ldr	r3, [r3, #12]
 784 002e 13F0020F 		tst	r3, #2
 785              		.loc 1 1583 0
 786 0032 14BF     		ite	ne
 787 0034 0820     		movne	r0, #8
 788 0036 0920     		moveq	r0, #9
 789 0038 7047     		bx	lr
 790              	.L99:
 791 003a 00BF     		.align	2
 792              	.L98:
 793 003c 003C0240 		.word	1073888256
 794              	.LBE5:
 795              	.LBE4:
 796              		.cfi_endproc
 797              	.LFE161:
 798              		.size	FLASH_GetStatus, .-FLASH_GetStatus
ARM GAS  /var/folders/m4/4md61f0s1_g0rzfghffqnxvr0000gn/T//ccZNYUOX.s 			page 15


 799              		.section	.text.FLASH_WaitForLastOperation,"ax",%progbits
 800              		.align	2
 801              		.p2align 4,,15
 802              		.global	FLASH_WaitForLastOperation
 803              		.thumb
 804              		.thumb_func
 805              		.type	FLASH_WaitForLastOperation, %function
 806              	FLASH_WaitForLastOperation:
 807              	.LFB162:
 808              		.loc 1 1600 0
 809              		.cfi_startproc
 810              		@ args = 0, pretend = 0, frame = 8
 811              		@ frame_needed = 0, uses_anonymous_args = 0
 812 0000 00B5     		push	{lr}
 813              		.cfi_def_cfa_offset 4
 814              		.cfi_offset 14, -4
 815 0002 83B0     		sub	sp, sp, #12
 816              		.cfi_def_cfa_offset 16
 817              		.loc 1 1601 0
 818 0004 0923     		movs	r3, #9
 819 0006 8DF80730 		strb	r3, [sp, #7]
 820              	.L109:
 821              		.loc 1 1604 0
 822 000a FFF7FEFF 		bl	FLASH_GetStatus
 823              	.LVL27:
 824 000e 8DF80700 		strb	r0, [sp, #7]
 825              		.loc 1 1609 0
 826 0012 9DF80730 		ldrb	r3, [sp, #7]	@ zero_extendqisi2
 827 0016 012B     		cmp	r3, #1
 828 0018 F7D0     		beq	.L109
 829              		.loc 1 1614 0
 830 001a 9DF80700 		ldrb	r0, [sp, #7]	@ zero_extendqisi2
 831 001e C0B2     		uxtb	r0, r0
 832              		.loc 1 1615 0
 833 0020 03B0     		add	sp, sp, #12
 834              		.cfi_def_cfa_offset 4
 835              		@ sp needed
 836 0022 5DF804FB 		ldr	pc, [sp], #4
 837              		.cfi_endproc
 838              	.LFE162:
 839              		.size	FLASH_WaitForLastOperation, .-FLASH_WaitForLastOperation
 840 0026 00BF     		.section	.text.FLASH_EraseSector,"ax",%progbits
 841              		.align	2
 842              		.p2align 4,,15
 843              		.global	FLASH_EraseSector
 844              		.thumb
 845              		.thumb_func
 846              		.type	FLASH_EraseSector, %function
 847              	FLASH_EraseSector:
 848              	.LFB131:
 849              		.loc 1 491 0
 850              		.cfi_startproc
 851              		@ args = 0, pretend = 0, frame = 0
 852              		@ frame_needed = 0, uses_anonymous_args = 0
 853              	.LVL28:
 854 0000 70B5     		push	{r4, r5, r6, lr}
 855              		.cfi_def_cfa_offset 16
ARM GAS  /var/folders/m4/4md61f0s1_g0rzfghffqnxvr0000gn/T//ccZNYUOX.s 			page 16


 856              		.cfi_offset 4, -16
 857              		.cfi_offset 5, -12
 858              		.cfi_offset 6, -8
 859              		.cfi_offset 14, -4
 860              		.loc 1 491 0
 861 0002 0646     		mov	r6, r0
 862              		.loc 1 499 0
 863 0004 59B3     		cbz	r1, .L113
 864              		.loc 1 503 0
 865 0006 0129     		cmp	r1, #1
 866 0008 2FD0     		beq	.L114
 867              		.loc 1 507 0
 868 000a 0229     		cmp	r1, #2
 869              		.loc 1 513 0
 870 000c 0CBF     		ite	eq
 871 000e 4FF40074 		moveq	r4, #512
 872 0012 4FF44074 		movne	r4, #768
 873              	.LVL29:
 874              		.loc 1 516 0
 875 0016 FFF7FEFF 		bl	FLASH_WaitForLastOperation
 876              	.LVL30:
 877              		.loc 1 518 0
 878 001a 0928     		cmp	r0, #9
 879 001c 24D1     		bne	.L112
 880              	.L117:
 881              		.loc 1 521 0
 882 001e 144D     		ldr	r5, .L118
 883 0020 2B69     		ldr	r3, [r5, #16]
 884 0022 23F44073 		bic	r3, r3, #768
 885 0026 2B61     		str	r3, [r5, #16]
 886              		.loc 1 522 0
 887 0028 2969     		ldr	r1, [r5, #16]
 888 002a 2143     		orrs	r1, r1, r4
 889 002c 2961     		str	r1, [r5, #16]
 890              		.loc 1 523 0
 891 002e 2B69     		ldr	r3, [r5, #16]
 892 0030 23F0F803 		bic	r3, r3, #248
 893 0034 2B61     		str	r3, [r5, #16]
 894              		.loc 1 524 0
 895 0036 2B69     		ldr	r3, [r5, #16]
 896 0038 43F00203 		orr	r3, r3, #2
 897 003c 1E43     		orrs	r6, r6, r3
 898              	.LVL31:
 899 003e 2E61     		str	r6, [r5, #16]
 900              		.loc 1 525 0
 901 0040 2B69     		ldr	r3, [r5, #16]
 902 0042 43F48033 		orr	r3, r3, #65536
 903 0046 2B61     		str	r3, [r5, #16]
 904              		.loc 1 528 0
 905 0048 FFF7FEFF 		bl	FLASH_WaitForLastOperation
 906              	.LVL32:
 907              		.loc 1 531 0
 908 004c 2B69     		ldr	r3, [r5, #16]
 909 004e 23F00203 		bic	r3, r3, #2
 910 0052 2B61     		str	r3, [r5, #16]
 911              		.loc 1 532 0
 912 0054 2B69     		ldr	r3, [r5, #16]
ARM GAS  /var/folders/m4/4md61f0s1_g0rzfghffqnxvr0000gn/T//ccZNYUOX.s 			page 17


 913 0056 23F0F803 		bic	r3, r3, #248
 914 005a 2B61     		str	r3, [r5, #16]
 915              		.loc 1 536 0
 916 005c 70BD     		pop	{r4, r5, r6, pc}
 917              	.LVL33:
 918              	.L113:
 919              		.loc 1 501 0
 920 005e 0C46     		mov	r4, r1
 921              	.L111:
 922              	.LVL34:
 923              		.loc 1 516 0
 924 0060 FFF7FEFF 		bl	FLASH_WaitForLastOperation
 925              	.LVL35:
 926              		.loc 1 518 0
 927 0064 0928     		cmp	r0, #9
 928 0066 DAD0     		beq	.L117
 929              	.L112:
 930              		.loc 1 536 0
 931 0068 70BD     		pop	{r4, r5, r6, pc}
 932              	.LVL36:
 933              	.L114:
 934              		.loc 1 505 0
 935 006a 4FF48074 		mov	r4, #256
 936 006e F7E7     		b	.L111
 937              	.L119:
 938              		.align	2
 939              	.L118:
 940 0070 003C0240 		.word	1073888256
 941              		.cfi_endproc
 942              	.LFE131:
 943              		.size	FLASH_EraseSector, .-FLASH_EraseSector
 944              		.section	.text.FLASH_EraseAllBank1Sectors,"ax",%progbits
 945              		.align	2
 946              		.p2align 4,,15
 947              		.global	FLASH_EraseAllBank1Sectors
 948              		.thumb
 949              		.thumb_func
 950              		.type	FLASH_EraseAllBank1Sectors, %function
 951              	FLASH_EraseAllBank1Sectors:
 952              	.LFB133:
 953              		.loc 1 640 0
 954              		.cfi_startproc
 955              		@ args = 0, pretend = 0, frame = 0
 956              		@ frame_needed = 0, uses_anonymous_args = 0
 957              	.LVL37:
 958 0000 38B5     		push	{r3, r4, r5, lr}
 959              		.cfi_def_cfa_offset 16
 960              		.cfi_offset 3, -16
 961              		.cfi_offset 4, -12
 962              		.cfi_offset 5, -8
 963              		.cfi_offset 14, -4
 964              		.loc 1 640 0
 965 0002 0446     		mov	r4, r0
 966              		.loc 1 645 0
 967 0004 FFF7FEFF 		bl	FLASH_WaitForLastOperation
 968              	.LVL38:
 969              		.loc 1 648 0
ARM GAS  /var/folders/m4/4md61f0s1_g0rzfghffqnxvr0000gn/T//ccZNYUOX.s 			page 18


 970 0008 3CB1     		cbz	r4, .L121
 971              		.loc 1 652 0
 972 000a 012C     		cmp	r4, #1
 973 000c 08D0     		beq	.L124
 974              		.loc 1 656 0
 975 000e 022C     		cmp	r4, #2
 976              		.loc 1 662 0
 977 0010 0CBF     		ite	eq
 978 0012 4FF40074 		moveq	r4, #512
 979 0016 4FF44074 		movne	r4, #768
 980              	.L121:
 981              	.LVL39:
 982              		.loc 1 664 0
 983 001a 0928     		cmp	r0, #9
 984 001c 04D0     		beq	.L127
 985              	.L122:
 986              		.loc 1 681 0
 987 001e 38BD     		pop	{r3, r4, r5, pc}
 988              	.LVL40:
 989              	.L124:
 990              		.loc 1 664 0
 991 0020 0928     		cmp	r0, #9
 992              		.loc 1 654 0
 993 0022 4FF48074 		mov	r4, #256
 994              	.LVL41:
 995              		.loc 1 664 0
 996 0026 FAD1     		bne	.L122
 997              	.L127:
 998              		.loc 1 667 0
 999 0028 0B4D     		ldr	r5, .L128
 1000 002a 2B69     		ldr	r3, [r5, #16]
 1001 002c 23F44073 		bic	r3, r3, #768
 1002 0030 2B61     		str	r3, [r5, #16]
 1003              		.loc 1 668 0
 1004 0032 2B69     		ldr	r3, [r5, #16]
 1005 0034 1C43     		orrs	r4, r4, r3
 1006              	.LVL42:
 1007 0036 2C61     		str	r4, [r5, #16]
 1008              		.loc 1 669 0
 1009 0038 2B69     		ldr	r3, [r5, #16]
 1010 003a 43F00403 		orr	r3, r3, #4
 1011 003e 2B61     		str	r3, [r5, #16]
 1012              		.loc 1 670 0
 1013 0040 2B69     		ldr	r3, [r5, #16]
 1014 0042 43F48033 		orr	r3, r3, #65536
 1015 0046 2B61     		str	r3, [r5, #16]
 1016              		.loc 1 673 0
 1017 0048 FFF7FEFF 		bl	FLASH_WaitForLastOperation
 1018              	.LVL43:
 1019              		.loc 1 676 0
 1020 004c 2B69     		ldr	r3, [r5, #16]
 1021 004e 23F00403 		bic	r3, r3, #4
 1022 0052 2B61     		str	r3, [r5, #16]
 1023              		.loc 1 681 0
 1024 0054 38BD     		pop	{r3, r4, r5, pc}
 1025              	.L129:
 1026 0056 00BF     		.align	2
ARM GAS  /var/folders/m4/4md61f0s1_g0rzfghffqnxvr0000gn/T//ccZNYUOX.s 			page 19


 1027              	.L128:
 1028 0058 003C0240 		.word	1073888256
 1029              		.cfi_endproc
 1030              	.LFE133:
 1031              		.size	FLASH_EraseAllBank1Sectors, .-FLASH_EraseAllBank1Sectors
 1032              		.section	.text.FLASH_EraseAllSectors,"ax",%progbits
 1033              		.align	2
 1034              		.p2align 4,,15
 1035              		.global	FLASH_EraseAllSectors
 1036              		.thumb
 1037              		.thumb_func
 1038              		.type	FLASH_EraseAllSectors, %function
 1039              	FLASH_EraseAllSectors:
 1040              	.LFB169:
 1041              		.cfi_startproc
 1042              		@ args = 0, pretend = 0, frame = 0
 1043              		@ frame_needed = 0, uses_anonymous_args = 0
 1044              		@ link register save eliminated.
 1045 0000 FFF7FEBF 		b	FLASH_EraseAllBank1Sectors
 1046              		.cfi_endproc
 1047              	.LFE169:
 1048              		.size	FLASH_EraseAllSectors, .-FLASH_EraseAllSectors
 1049              		.section	.text.FLASH_EraseAllBank2Sectors,"ax",%progbits
 1050              		.align	2
 1051              		.p2align 4,,15
 1052              		.global	FLASH_EraseAllBank2Sectors
 1053              		.thumb
 1054              		.thumb_func
 1055              		.type	FLASH_EraseAllBank2Sectors, %function
 1056              	FLASH_EraseAllBank2Sectors:
 1057              	.LFB134:
 1058              		.loc 1 707 0
 1059              		.cfi_startproc
 1060              		@ args = 0, pretend = 0, frame = 0
 1061              		@ frame_needed = 0, uses_anonymous_args = 0
 1062              	.LVL44:
 1063              		.loc 1 707 0
 1064 0000 38B5     		push	{r3, r4, r5, lr}
 1065              		.cfi_def_cfa_offset 16
 1066              		.cfi_offset 3, -16
 1067              		.cfi_offset 4, -12
 1068              		.cfi_offset 5, -8
 1069              		.cfi_offset 14, -4
 1070              		.loc 1 707 0
 1071 0002 0446     		mov	r4, r0
 1072              		.loc 1 712 0
 1073 0004 FFF7FEFF 		bl	FLASH_WaitForLastOperation
 1074              	.LVL45:
 1075              		.loc 1 715 0
 1076 0008 3CB1     		cbz	r4, .L132
 1077              		.loc 1 719 0
 1078 000a 012C     		cmp	r4, #1
 1079 000c 08D0     		beq	.L135
 1080              		.loc 1 723 0
 1081 000e 022C     		cmp	r4, #2
 1082              		.loc 1 729 0
 1083 0010 0CBF     		ite	eq
ARM GAS  /var/folders/m4/4md61f0s1_g0rzfghffqnxvr0000gn/T//ccZNYUOX.s 			page 20


 1084 0012 4FF40074 		moveq	r4, #512
 1085 0016 4FF44074 		movne	r4, #768
 1086              	.L132:
 1087              	.LVL46:
 1088              		.loc 1 731 0
 1089 001a 0928     		cmp	r0, #9
 1090 001c 04D0     		beq	.L138
 1091              	.L133:
 1092              		.loc 1 748 0
 1093 001e 38BD     		pop	{r3, r4, r5, pc}
 1094              	.LVL47:
 1095              	.L135:
 1096              		.loc 1 731 0
 1097 0020 0928     		cmp	r0, #9
 1098              		.loc 1 721 0
 1099 0022 4FF48074 		mov	r4, #256
 1100              	.LVL48:
 1101              		.loc 1 731 0
 1102 0026 FAD1     		bne	.L133
 1103              	.L138:
 1104              		.loc 1 734 0
 1105 0028 0B4D     		ldr	r5, .L139
 1106 002a 2B69     		ldr	r3, [r5, #16]
 1107 002c 23F44073 		bic	r3, r3, #768
 1108 0030 2B61     		str	r3, [r5, #16]
 1109              		.loc 1 735 0
 1110 0032 2B69     		ldr	r3, [r5, #16]
 1111 0034 1C43     		orrs	r4, r4, r3
 1112              	.LVL49:
 1113 0036 2C61     		str	r4, [r5, #16]
 1114              		.loc 1 736 0
 1115 0038 2B69     		ldr	r3, [r5, #16]
 1116 003a 43F40043 		orr	r3, r3, #32768
 1117 003e 2B61     		str	r3, [r5, #16]
 1118              		.loc 1 737 0
 1119 0040 2B69     		ldr	r3, [r5, #16]
 1120 0042 43F48033 		orr	r3, r3, #65536
 1121 0046 2B61     		str	r3, [r5, #16]
 1122              		.loc 1 740 0
 1123 0048 FFF7FEFF 		bl	FLASH_WaitForLastOperation
 1124              	.LVL50:
 1125              		.loc 1 743 0
 1126 004c 2B69     		ldr	r3, [r5, #16]
 1127 004e 23F40043 		bic	r3, r3, #32768
 1128 0052 2B61     		str	r3, [r5, #16]
 1129              		.loc 1 748 0
 1130 0054 38BD     		pop	{r3, r4, r5, pc}
 1131              	.L140:
 1132 0056 00BF     		.align	2
 1133              	.L139:
 1134 0058 003C0240 		.word	1073888256
 1135              		.cfi_endproc
 1136              	.LFE134:
 1137              		.size	FLASH_EraseAllBank2Sectors, .-FLASH_EraseAllBank2Sectors
 1138              		.section	.text.FLASH_ProgramDoubleWord,"ax",%progbits
 1139              		.align	2
 1140              		.p2align 4,,15
ARM GAS  /var/folders/m4/4md61f0s1_g0rzfghffqnxvr0000gn/T//ccZNYUOX.s 			page 21


 1141              		.global	FLASH_ProgramDoubleWord
 1142              		.thumb
 1143              		.thumb_func
 1144              		.type	FLASH_ProgramDoubleWord, %function
 1145              	FLASH_ProgramDoubleWord:
 1146              	.LFB135:
 1147              		.loc 1 764 0
 1148              		.cfi_startproc
 1149              		@ args = 0, pretend = 0, frame = 0
 1150              		@ frame_needed = 0, uses_anonymous_args = 0
 1151              	.LVL51:
 1152 0000 F8B5     		push	{r3, r4, r5, r6, r7, lr}
 1153              		.cfi_def_cfa_offset 24
 1154              		.cfi_offset 3, -24
 1155              		.cfi_offset 4, -20
 1156              		.cfi_offset 5, -16
 1157              		.cfi_offset 6, -12
 1158              		.cfi_offset 7, -8
 1159              		.cfi_offset 14, -4
 1160              		.loc 1 764 0
 1161 0002 0546     		mov	r5, r0
 1162 0004 1646     		mov	r6, r2
 1163 0006 1F46     		mov	r7, r3
 1164              		.loc 1 771 0
 1165 0008 FFF7FEFF 		bl	FLASH_WaitForLastOperation
 1166              	.LVL52:
 1167              		.loc 1 773 0
 1168 000c 0928     		cmp	r0, #9
 1169 000e 00D0     		beq	.L144
 1170              		.loc 1 790 0
 1171 0010 F8BD     		pop	{r3, r4, r5, r6, r7, pc}
 1172              	.LVL53:
 1173              	.L144:
 1174              		.loc 1 776 0
 1175 0012 0B4C     		ldr	r4, .L145
 1176 0014 2369     		ldr	r3, [r4, #16]
 1177 0016 23F44073 		bic	r3, r3, #768
 1178 001a 2361     		str	r3, [r4, #16]
 1179              		.loc 1 777 0
 1180 001c 2369     		ldr	r3, [r4, #16]
 1181 001e 43F44073 		orr	r3, r3, #768
 1182 0022 2361     		str	r3, [r4, #16]
 1183              		.loc 1 778 0
 1184 0024 2369     		ldr	r3, [r4, #16]
 1185 0026 43F00103 		orr	r3, r3, #1
 1186 002a 2361     		str	r3, [r4, #16]
 1187              		.loc 1 780 0
 1188 002c C5E90067 		strd	r6, [r5]
 1189              		.loc 1 783 0
 1190 0030 FFF7FEFF 		bl	FLASH_WaitForLastOperation
 1191              	.LVL54:
 1192              		.loc 1 786 0
 1193 0034 2369     		ldr	r3, [r4, #16]
 1194 0036 23F00103 		bic	r3, r3, #1
 1195 003a 2361     		str	r3, [r4, #16]
 1196              		.loc 1 790 0
 1197 003c F8BD     		pop	{r3, r4, r5, r6, r7, pc}
ARM GAS  /var/folders/m4/4md61f0s1_g0rzfghffqnxvr0000gn/T//ccZNYUOX.s 			page 22


 1198              	.LVL55:
 1199              	.L146:
 1200 003e 00BF     		.align	2
 1201              	.L145:
 1202 0040 003C0240 		.word	1073888256
 1203              		.cfi_endproc
 1204              	.LFE135:
 1205              		.size	FLASH_ProgramDoubleWord, .-FLASH_ProgramDoubleWord
 1206              		.section	.text.FLASH_ProgramWord,"ax",%progbits
 1207              		.align	2
 1208              		.p2align 4,,15
 1209              		.global	FLASH_ProgramWord
 1210              		.thumb
 1211              		.thumb_func
 1212              		.type	FLASH_ProgramWord, %function
 1213              	FLASH_ProgramWord:
 1214              	.LFB136:
 1215              		.loc 1 807 0
 1216              		.cfi_startproc
 1217              		@ args = 0, pretend = 0, frame = 0
 1218              		@ frame_needed = 0, uses_anonymous_args = 0
 1219              	.LVL56:
 1220 0000 70B5     		push	{r4, r5, r6, lr}
 1221              		.cfi_def_cfa_offset 16
 1222              		.cfi_offset 4, -16
 1223              		.cfi_offset 5, -12
 1224              		.cfi_offset 6, -8
 1225              		.cfi_offset 14, -4
 1226              		.loc 1 807 0
 1227 0002 0546     		mov	r5, r0
 1228 0004 0E46     		mov	r6, r1
 1229              		.loc 1 814 0
 1230 0006 FFF7FEFF 		bl	FLASH_WaitForLastOperation
 1231              	.LVL57:
 1232              		.loc 1 816 0
 1233 000a 0928     		cmp	r0, #9
 1234 000c 00D0     		beq	.L150
 1235              		.loc 1 833 0
 1236 000e 70BD     		pop	{r4, r5, r6, pc}
 1237              	.LVL58:
 1238              	.L150:
 1239              		.loc 1 819 0
 1240 0010 0A4C     		ldr	r4, .L151
 1241 0012 2369     		ldr	r3, [r4, #16]
 1242 0014 23F44073 		bic	r3, r3, #768
 1243 0018 2361     		str	r3, [r4, #16]
 1244              		.loc 1 820 0
 1245 001a 2369     		ldr	r3, [r4, #16]
 1246 001c 43F40073 		orr	r3, r3, #512
 1247 0020 2361     		str	r3, [r4, #16]
 1248              		.loc 1 821 0
 1249 0022 2369     		ldr	r3, [r4, #16]
 1250 0024 43F00103 		orr	r3, r3, #1
 1251 0028 2361     		str	r3, [r4, #16]
 1252              		.loc 1 823 0
 1253 002a 2E60     		str	r6, [r5]
 1254              		.loc 1 826 0
ARM GAS  /var/folders/m4/4md61f0s1_g0rzfghffqnxvr0000gn/T//ccZNYUOX.s 			page 23


 1255 002c FFF7FEFF 		bl	FLASH_WaitForLastOperation
 1256              	.LVL59:
 1257              		.loc 1 829 0
 1258 0030 2369     		ldr	r3, [r4, #16]
 1259 0032 23F00103 		bic	r3, r3, #1
 1260 0036 2361     		str	r3, [r4, #16]
 1261              		.loc 1 833 0
 1262 0038 70BD     		pop	{r4, r5, r6, pc}
 1263              	.LVL60:
 1264              	.L152:
 1265 003a 00BF     		.align	2
 1266              	.L151:
 1267 003c 003C0240 		.word	1073888256
 1268              		.cfi_endproc
 1269              	.LFE136:
 1270              		.size	FLASH_ProgramWord, .-FLASH_ProgramWord
 1271              		.section	.text.FLASH_ProgramHalfWord,"ax",%progbits
 1272              		.align	2
 1273              		.p2align 4,,15
 1274              		.global	FLASH_ProgramHalfWord
 1275              		.thumb
 1276              		.thumb_func
 1277              		.type	FLASH_ProgramHalfWord, %function
 1278              	FLASH_ProgramHalfWord:
 1279              	.LFB137:
 1280              		.loc 1 849 0
 1281              		.cfi_startproc
 1282              		@ args = 0, pretend = 0, frame = 0
 1283              		@ frame_needed = 0, uses_anonymous_args = 0
 1284              	.LVL61:
 1285 0000 70B5     		push	{r4, r5, r6, lr}
 1286              		.cfi_def_cfa_offset 16
 1287              		.cfi_offset 4, -16
 1288              		.cfi_offset 5, -12
 1289              		.cfi_offset 6, -8
 1290              		.cfi_offset 14, -4
 1291              		.loc 1 849 0
 1292 0002 0546     		mov	r5, r0
 1293 0004 0E46     		mov	r6, r1
 1294              		.loc 1 856 0
 1295 0006 FFF7FEFF 		bl	FLASH_WaitForLastOperation
 1296              	.LVL62:
 1297              		.loc 1 858 0
 1298 000a 0928     		cmp	r0, #9
 1299 000c 00D0     		beq	.L156
 1300              		.loc 1 875 0
 1301 000e 70BD     		pop	{r4, r5, r6, pc}
 1302              	.LVL63:
 1303              	.L156:
 1304              		.loc 1 861 0
 1305 0010 0A4C     		ldr	r4, .L157
 1306 0012 2369     		ldr	r3, [r4, #16]
 1307 0014 23F44073 		bic	r3, r3, #768
 1308 0018 2361     		str	r3, [r4, #16]
 1309              		.loc 1 862 0
 1310 001a 2369     		ldr	r3, [r4, #16]
 1311 001c 43F48073 		orr	r3, r3, #256
ARM GAS  /var/folders/m4/4md61f0s1_g0rzfghffqnxvr0000gn/T//ccZNYUOX.s 			page 24


 1312 0020 2361     		str	r3, [r4, #16]
 1313              		.loc 1 863 0
 1314 0022 2369     		ldr	r3, [r4, #16]
 1315 0024 43F00103 		orr	r3, r3, #1
 1316 0028 2361     		str	r3, [r4, #16]
 1317              		.loc 1 865 0
 1318 002a 2E80     		strh	r6, [r5]	@ movhi
 1319              		.loc 1 868 0
 1320 002c FFF7FEFF 		bl	FLASH_WaitForLastOperation
 1321              	.LVL64:
 1322              		.loc 1 871 0
 1323 0030 2369     		ldr	r3, [r4, #16]
 1324 0032 23F00103 		bic	r3, r3, #1
 1325 0036 2361     		str	r3, [r4, #16]
 1326              		.loc 1 875 0
 1327 0038 70BD     		pop	{r4, r5, r6, pc}
 1328              	.LVL65:
 1329              	.L158:
 1330 003a 00BF     		.align	2
 1331              	.L157:
 1332 003c 003C0240 		.word	1073888256
 1333              		.cfi_endproc
 1334              	.LFE137:
 1335              		.size	FLASH_ProgramHalfWord, .-FLASH_ProgramHalfWord
 1336              		.section	.text.FLASH_ProgramByte,"ax",%progbits
 1337              		.align	2
 1338              		.p2align 4,,15
 1339              		.global	FLASH_ProgramByte
 1340              		.thumb
 1341              		.thumb_func
 1342              		.type	FLASH_ProgramByte, %function
 1343              	FLASH_ProgramByte:
 1344              	.LFB138:
 1345              		.loc 1 891 0
 1346              		.cfi_startproc
 1347              		@ args = 0, pretend = 0, frame = 0
 1348              		@ frame_needed = 0, uses_anonymous_args = 0
 1349              	.LVL66:
 1350 0000 70B5     		push	{r4, r5, r6, lr}
 1351              		.cfi_def_cfa_offset 16
 1352              		.cfi_offset 4, -16
 1353              		.cfi_offset 5, -12
 1354              		.cfi_offset 6, -8
 1355              		.cfi_offset 14, -4
 1356              		.loc 1 891 0
 1357 0002 0546     		mov	r5, r0
 1358 0004 0E46     		mov	r6, r1
 1359              		.loc 1 898 0
 1360 0006 FFF7FEFF 		bl	FLASH_WaitForLastOperation
 1361              	.LVL67:
 1362              		.loc 1 900 0
 1363 000a 0928     		cmp	r0, #9
 1364 000c 00D0     		beq	.L162
 1365              		.loc 1 918 0
 1366 000e 70BD     		pop	{r4, r5, r6, pc}
 1367              	.LVL68:
 1368              	.L162:
ARM GAS  /var/folders/m4/4md61f0s1_g0rzfghffqnxvr0000gn/T//ccZNYUOX.s 			page 25


 1369              		.loc 1 903 0
 1370 0010 094C     		ldr	r4, .L163
 1371 0012 2369     		ldr	r3, [r4, #16]
 1372 0014 23F44073 		bic	r3, r3, #768
 1373 0018 2361     		str	r3, [r4, #16]
 1374              		.loc 1 904 0
 1375 001a 2369     		ldr	r3, [r4, #16]
 1376 001c 2361     		str	r3, [r4, #16]
 1377              		.loc 1 905 0
 1378 001e 2369     		ldr	r3, [r4, #16]
 1379 0020 43F00103 		orr	r3, r3, #1
 1380 0024 2361     		str	r3, [r4, #16]
 1381              		.loc 1 907 0
 1382 0026 2E70     		strb	r6, [r5]
 1383              		.loc 1 910 0
 1384 0028 FFF7FEFF 		bl	FLASH_WaitForLastOperation
 1385              	.LVL69:
 1386              		.loc 1 913 0
 1387 002c 2369     		ldr	r3, [r4, #16]
 1388 002e 23F00103 		bic	r3, r3, #1
 1389 0032 2361     		str	r3, [r4, #16]
 1390              		.loc 1 918 0
 1391 0034 70BD     		pop	{r4, r5, r6, pc}
 1392              	.LVL70:
 1393              	.L164:
 1394 0036 00BF     		.align	2
 1395              	.L163:
 1396 0038 003C0240 		.word	1073888256
 1397              		.cfi_endproc
 1398              	.LFE138:
 1399              		.size	FLASH_ProgramByte, .-FLASH_ProgramByte
 1400              		.section	.text.FLASH_OB_WRPConfig,"ax",%progbits
 1401              		.align	2
 1402              		.p2align 4,,15
 1403              		.global	FLASH_OB_WRPConfig
 1404              		.thumb
 1405              		.thumb_func
 1406              		.type	FLASH_OB_WRPConfig, %function
 1407              	FLASH_OB_WRPConfig:
 1408              	.LFB141:
 1409              		.loc 1 1028 0
 1410              		.cfi_startproc
 1411              		@ args = 0, pretend = 0, frame = 0
 1412              		@ frame_needed = 0, uses_anonymous_args = 0
 1413              	.LVL71:
 1414 0000 38B5     		push	{r3, r4, r5, lr}
 1415              		.cfi_def_cfa_offset 16
 1416              		.cfi_offset 3, -16
 1417              		.cfi_offset 4, -12
 1418              		.cfi_offset 5, -8
 1419              		.cfi_offset 14, -4
 1420              		.loc 1 1028 0
 1421 0002 0546     		mov	r5, r0
 1422 0004 0C46     		mov	r4, r1
 1423              		.loc 1 1035 0
 1424 0006 FFF7FEFF 		bl	FLASH_WaitForLastOperation
 1425              	.LVL72:
ARM GAS  /var/folders/m4/4md61f0s1_g0rzfghffqnxvr0000gn/T//ccZNYUOX.s 			page 26


 1426              		.loc 1 1037 0
 1427 000a 0928     		cmp	r0, #9
 1428 000c 00D0     		beq	.L169
 1429 000e 38BD     		pop	{r3, r4, r5, pc}
 1430              	.LVL73:
 1431              	.L169:
 1432              		.loc 1 1041 0
 1433 0010 054B     		ldr	r3, .L171
 1434 0012 1888     		ldrh	r0, [r3]
 1435              	.LVL74:
 1436              		.loc 1 1039 0
 1437 0014 1CB9     		cbnz	r4, .L170
 1438              		.loc 1 1045 0
 1439 0016 2843     		orrs	r0, r0, r5
 1440 0018 80B2     		uxth	r0, r0
 1441 001a 1880     		strh	r0, [r3]	@ movhi
 1442 001c 38BD     		pop	{r3, r4, r5, pc}
 1443              	.LVL75:
 1444              	.L170:
 1445              		.loc 1 1041 0
 1446 001e 80B2     		uxth	r0, r0
 1447 0020 20EA0500 		bic	r0, r0, r5
 1448 0024 1880     		strh	r0, [r3]	@ movhi
 1449 0026 38BD     		pop	{r3, r4, r5, pc}
 1450              	.LVL76:
 1451              	.L172:
 1452              		.align	2
 1453              	.L171:
 1454 0028 163C0240 		.word	1073888278
 1455              		.cfi_endproc
 1456              	.LFE141:
 1457              		.size	FLASH_OB_WRPConfig, .-FLASH_OB_WRPConfig
 1458              		.section	.text.FLASH_OB_WRP1Config,"ax",%progbits
 1459              		.align	2
 1460              		.p2align 4,,15
 1461              		.global	FLASH_OB_WRP1Config
 1462              		.thumb
 1463              		.thumb_func
 1464              		.type	FLASH_OB_WRP1Config, %function
 1465              	FLASH_OB_WRP1Config:
 1466              	.LFB142:
 1467              		.loc 1 1070 0
 1468              		.cfi_startproc
 1469              		@ args = 0, pretend = 0, frame = 0
 1470              		@ frame_needed = 0, uses_anonymous_args = 0
 1471              	.LVL77:
 1472 0000 38B5     		push	{r3, r4, r5, lr}
 1473              		.cfi_def_cfa_offset 16
 1474              		.cfi_offset 3, -16
 1475              		.cfi_offset 4, -12
 1476              		.cfi_offset 5, -8
 1477              		.cfi_offset 14, -4
 1478              		.loc 1 1070 0
 1479 0002 0546     		mov	r5, r0
 1480 0004 0C46     		mov	r4, r1
 1481              		.loc 1 1077 0
 1482 0006 FFF7FEFF 		bl	FLASH_WaitForLastOperation
ARM GAS  /var/folders/m4/4md61f0s1_g0rzfghffqnxvr0000gn/T//ccZNYUOX.s 			page 27


 1483              	.LVL78:
 1484              		.loc 1 1079 0
 1485 000a 0928     		cmp	r0, #9
 1486 000c 00D0     		beq	.L177
 1487 000e 38BD     		pop	{r3, r4, r5, pc}
 1488              	.LVL79:
 1489              	.L177:
 1490              		.loc 1 1083 0
 1491 0010 054B     		ldr	r3, .L179
 1492 0012 1888     		ldrh	r0, [r3]
 1493              	.LVL80:
 1494              		.loc 1 1081 0
 1495 0014 1CB9     		cbnz	r4, .L178
 1496              		.loc 1 1087 0
 1497 0016 2843     		orrs	r0, r0, r5
 1498 0018 80B2     		uxth	r0, r0
 1499 001a 1880     		strh	r0, [r3]	@ movhi
 1500 001c 38BD     		pop	{r3, r4, r5, pc}
 1501              	.LVL81:
 1502              	.L178:
 1503              		.loc 1 1083 0
 1504 001e 80B2     		uxth	r0, r0
 1505 0020 20EA0500 		bic	r0, r0, r5
 1506 0024 1880     		strh	r0, [r3]	@ movhi
 1507 0026 38BD     		pop	{r3, r4, r5, pc}
 1508              	.LVL82:
 1509              	.L180:
 1510              		.align	2
 1511              	.L179:
 1512 0028 1A3C0240 		.word	1073888282
 1513              		.cfi_endproc
 1514              	.LFE142:
 1515              		.size	FLASH_OB_WRP1Config, .-FLASH_OB_WRP1Config
 1516              		.section	.text.FLASH_OB_PCROPConfig,"ax",%progbits
 1517              		.align	2
 1518              		.p2align 4,,15
 1519              		.global	FLASH_OB_PCROPConfig
 1520              		.thumb
 1521              		.thumb_func
 1522              		.type	FLASH_OB_PCROPConfig, %function
 1523              	FLASH_OB_PCROPConfig:
 1524              	.LFB144:
 1525              		.loc 1 1150 0
 1526              		.cfi_startproc
 1527              		@ args = 0, pretend = 0, frame = 0
 1528              		@ frame_needed = 0, uses_anonymous_args = 0
 1529              	.LVL83:
 1530 0000 38B5     		push	{r3, r4, r5, lr}
 1531              		.cfi_def_cfa_offset 16
 1532              		.cfi_offset 3, -16
 1533              		.cfi_offset 4, -12
 1534              		.cfi_offset 5, -8
 1535              		.cfi_offset 14, -4
 1536              		.loc 1 1150 0
 1537 0002 0546     		mov	r5, r0
 1538 0004 0C46     		mov	r4, r1
 1539              		.loc 1 1157 0
ARM GAS  /var/folders/m4/4md61f0s1_g0rzfghffqnxvr0000gn/T//ccZNYUOX.s 			page 28


 1540 0006 FFF7FEFF 		bl	FLASH_WaitForLastOperation
 1541              	.LVL84:
 1542              		.loc 1 1159 0
 1543 000a 0928     		cmp	r0, #9
 1544 000c 00D0     		beq	.L185
 1545 000e 38BD     		pop	{r3, r4, r5, pc}
 1546              	.LVL85:
 1547              	.L185:
 1548              		.loc 1 1163 0
 1549 0010 054B     		ldr	r3, .L187
 1550 0012 1888     		ldrh	r0, [r3]
 1551              	.LVL86:
 1552              		.loc 1 1161 0
 1553 0014 24B9     		cbnz	r4, .L186
 1554              		.loc 1 1167 0
 1555 0016 80B2     		uxth	r0, r0
 1556 0018 20EA0500 		bic	r0, r0, r5
 1557 001c 1880     		strh	r0, [r3]	@ movhi
 1558 001e 38BD     		pop	{r3, r4, r5, pc}
 1559              	.LVL87:
 1560              	.L186:
 1561              		.loc 1 1163 0
 1562 0020 2843     		orrs	r0, r0, r5
 1563 0022 80B2     		uxth	r0, r0
 1564 0024 1880     		strh	r0, [r3]	@ movhi
 1565 0026 38BD     		pop	{r3, r4, r5, pc}
 1566              	.LVL88:
 1567              	.L188:
 1568              		.align	2
 1569              	.L187:
 1570 0028 163C0240 		.word	1073888278
 1571              		.cfi_endproc
 1572              	.LFE144:
 1573              		.size	FLASH_OB_PCROPConfig, .-FLASH_OB_PCROPConfig
 1574              		.section	.text.FLASH_OB_PCROP1Config,"ax",%progbits
 1575              		.align	2
 1576              		.p2align 4,,15
 1577              		.global	FLASH_OB_PCROP1Config
 1578              		.thumb
 1579              		.thumb_func
 1580              		.type	FLASH_OB_PCROP1Config, %function
 1581              	FLASH_OB_PCROP1Config:
 1582              	.LFB145:
 1583              		.loc 1 1187 0
 1584              		.cfi_startproc
 1585              		@ args = 0, pretend = 0, frame = 0
 1586              		@ frame_needed = 0, uses_anonymous_args = 0
 1587              	.LVL89:
 1588 0000 38B5     		push	{r3, r4, r5, lr}
 1589              		.cfi_def_cfa_offset 16
 1590              		.cfi_offset 3, -16
 1591              		.cfi_offset 4, -12
 1592              		.cfi_offset 5, -8
 1593              		.cfi_offset 14, -4
 1594              		.loc 1 1187 0
 1595 0002 0546     		mov	r5, r0
 1596 0004 0C46     		mov	r4, r1
ARM GAS  /var/folders/m4/4md61f0s1_g0rzfghffqnxvr0000gn/T//ccZNYUOX.s 			page 29


 1597              		.loc 1 1194 0
 1598 0006 FFF7FEFF 		bl	FLASH_WaitForLastOperation
 1599              	.LVL90:
 1600              		.loc 1 1196 0
 1601 000a 0928     		cmp	r0, #9
 1602 000c 00D0     		beq	.L193
 1603 000e 38BD     		pop	{r3, r4, r5, pc}
 1604              	.LVL91:
 1605              	.L193:
 1606              		.loc 1 1200 0
 1607 0010 054B     		ldr	r3, .L195
 1608 0012 1888     		ldrh	r0, [r3]
 1609              	.LVL92:
 1610              		.loc 1 1198 0
 1611 0014 24B9     		cbnz	r4, .L194
 1612              		.loc 1 1204 0
 1613 0016 80B2     		uxth	r0, r0
 1614 0018 20EA0500 		bic	r0, r0, r5
 1615 001c 1880     		strh	r0, [r3]	@ movhi
 1616 001e 38BD     		pop	{r3, r4, r5, pc}
 1617              	.LVL93:
 1618              	.L194:
 1619              		.loc 1 1200 0
 1620 0020 2843     		orrs	r0, r0, r5
 1621 0022 80B2     		uxth	r0, r0
 1622 0024 1880     		strh	r0, [r3]	@ movhi
 1623 0026 38BD     		pop	{r3, r4, r5, pc}
 1624              	.LVL94:
 1625              	.L196:
 1626              		.align	2
 1627              	.L195:
 1628 0028 1A3C0240 		.word	1073888282
 1629              		.cfi_endproc
 1630              	.LFE145:
 1631              		.size	FLASH_OB_PCROP1Config, .-FLASH_OB_PCROP1Config
 1632              		.section	.text.FLASH_OB_RDPConfig,"ax",%progbits
 1633              		.align	2
 1634              		.p2align 4,,15
 1635              		.global	FLASH_OB_RDPConfig
 1636              		.thumb
 1637              		.thumb_func
 1638              		.type	FLASH_OB_RDPConfig, %function
 1639              	FLASH_OB_RDPConfig:
 1640              	.LFB146:
 1641              		.loc 1 1223 0
 1642              		.cfi_startproc
 1643              		@ args = 0, pretend = 0, frame = 0
 1644              		@ frame_needed = 0, uses_anonymous_args = 0
 1645              	.LVL95:
 1646 0000 10B5     		push	{r4, lr}
 1647              		.cfi_def_cfa_offset 8
 1648              		.cfi_offset 4, -8
 1649              		.cfi_offset 14, -4
 1650              		.loc 1 1223 0
 1651 0002 0446     		mov	r4, r0
 1652              		.loc 1 1229 0
 1653 0004 FFF7FEFF 		bl	FLASH_WaitForLastOperation
ARM GAS  /var/folders/m4/4md61f0s1_g0rzfghffqnxvr0000gn/T//ccZNYUOX.s 			page 30


 1654              	.LVL96:
 1655              		.loc 1 1231 0
 1656 0008 0928     		cmp	r0, #9
 1657              		.loc 1 1233 0
 1658 000a 04BF     		itt	eq
 1659 000c 014B     		ldreq	r3, .L200
 1660 000e 1C70     		strbeq	r4, [r3]
 1661 0010 10BD     		pop	{r4, pc}
 1662              	.L201:
 1663 0012 00BF     		.align	2
 1664              	.L200:
 1665 0014 153C0240 		.word	1073888277
 1666              		.cfi_endproc
 1667              	.LFE146:
 1668              		.size	FLASH_OB_RDPConfig, .-FLASH_OB_RDPConfig
 1669              		.section	.text.FLASH_OB_UserConfig,"ax",%progbits
 1670              		.align	2
 1671              		.p2align 4,,15
 1672              		.global	FLASH_OB_UserConfig
 1673              		.thumb
 1674              		.thumb_func
 1675              		.type	FLASH_OB_UserConfig, %function
 1676              	FLASH_OB_UserConfig:
 1677              	.LFB147:
 1678              		.loc 1 1255 0
 1679              		.cfi_startproc
 1680              		@ args = 0, pretend = 0, frame = 0
 1681              		@ frame_needed = 0, uses_anonymous_args = 0
 1682              	.LVL97:
 1683 0000 70B5     		push	{r4, r5, r6, lr}
 1684              		.cfi_def_cfa_offset 16
 1685              		.cfi_offset 4, -16
 1686              		.cfi_offset 5, -12
 1687              		.cfi_offset 6, -8
 1688              		.cfi_offset 14, -4
 1689              		.loc 1 1255 0
 1690 0002 0646     		mov	r6, r0
 1691 0004 0C46     		mov	r4, r1
 1692 0006 1546     		mov	r5, r2
 1693              		.loc 1 1265 0
 1694 0008 FFF7FEFF 		bl	FLASH_WaitForLastOperation
 1695              	.LVL98:
 1696              		.loc 1 1267 0
 1697 000c 0928     		cmp	r0, #9
 1698 000e 07D1     		bne	.L202
 1699              		.loc 1 1276 0
 1700 0010 044B     		ldr	r3, .L205
 1701 0012 1978     		ldrb	r1, [r3]	@ zero_extendqisi2
 1702              	.LVL99:
 1703              		.loc 1 1280 0
 1704 0014 01F00F01 		and	r1, r1, #15
 1705              	.LVL100:
 1706 0018 3143     		orrs	r1, r1, r6
 1707 001a 2943     		orrs	r1, r1, r5
 1708 001c 2143     		orrs	r1, r1, r4
 1709 001e 1970     		strb	r1, [r3]
 1710              	.L202:
ARM GAS  /var/folders/m4/4md61f0s1_g0rzfghffqnxvr0000gn/T//ccZNYUOX.s 			page 31


 1711 0020 70BD     		pop	{r4, r5, r6, pc}
 1712              	.L206:
 1713 0022 00BF     		.align	2
 1714              	.L205:
 1715 0024 143C0240 		.word	1073888276
 1716              		.cfi_endproc
 1717              	.LFE147:
 1718              		.size	FLASH_OB_UserConfig, .-FLASH_OB_UserConfig
 1719              		.section	.text.FLASH_OB_Launch,"ax",%progbits
 1720              		.align	2
 1721              		.p2align 4,,15
 1722              		.global	FLASH_OB_Launch
 1723              		.thumb
 1724              		.thumb_func
 1725              		.type	FLASH_OB_Launch, %function
 1726              	FLASH_OB_Launch:
 1727              	.LFB150:
 1728              		.loc 1 1334 0
 1729              		.cfi_startproc
 1730              		@ args = 0, pretend = 0, frame = 0
 1731              		@ frame_needed = 0, uses_anonymous_args = 0
 1732              		@ link register save eliminated.
 1733              	.LVL101:
 1734              		.loc 1 1338 0
 1735 0000 034A     		ldr	r2, .L208
 1736 0002 1378     		ldrb	r3, [r2]	@ zero_extendqisi2
 1737 0004 43F00203 		orr	r3, r3, #2
 1738 0008 1370     		strb	r3, [r2]
 1739              		.loc 1 1341 0
 1740 000a FFF7FEBF 		b	FLASH_WaitForLastOperation
 1741              	.LVL102:
 1742              	.L209:
 1743 000e 00BF     		.align	2
 1744              	.L208:
 1745 0010 143C0240 		.word	1073888276
 1746              		.cfi_endproc
 1747              	.LFE150:
 1748              		.size	FLASH_OB_Launch, .-FLASH_OB_Launch
 1749              		.text
 1750              	.Letext0:
 1751              		.file 2 "/opt/homebrew-cask/Caskroom/gcc-arm-embedded/5_2-2015q4,20151219/gcc-arm-none-eabi-5_2-20
 1752              		.file 3 "/opt/homebrew-cask/Caskroom/gcc-arm-embedded/5_2-2015q4,20151219/gcc-arm-none-eabi-5_2-20
 1753              		.file 4 "ChibiOS_16.1.4/os/ext/CMSIS/ST/STM32F4xx/stm32f405xx.h"
 1754              		.file 5 "ChibiOS_16.1.4/os/ext/CMSIS/ST/STM32F4xx/stm32f4xx.h"
 1755              		.file 6 "ChibiOS_16.1.4/ext/stdperiph_stm32f4/inc/stm32f4xx_flash.h"
 1756              		.file 7 "ChibiOS_16.1.4/os/ext/CMSIS/include/core_cm4.h"