ARM GAS  /var/folders/m4/4md61f0s1_g0rzfghffqnxvr0000gn/T//cc6sfehi.s 			page 1


   1              		.syntax unified
   2              		.cpu cortex-m4
   3              		.eabi_attribute 27, 1
   4              		.eabi_attribute 28, 1
   5              		.fpu fpv4-sp-d16
   6              		.eabi_attribute 20, 1
   7              		.eabi_attribute 21, 1
   8              		.eabi_attribute 23, 3
   9              		.eabi_attribute 24, 1
  10              		.eabi_attribute 25, 1
  11              		.eabi_attribute 26, 1
  12              		.eabi_attribute 30, 2
  13              		.eabi_attribute 34, 1
  14              		.eabi_attribute 18, 4
  15              		.thumb
  16              		.syntax unified
  17              		.file	"stm32f4xx_wwdg.c"
  18              		.text
  19              	.Ltext0:
  20              		.cfi_sections	.debug_frame
  21              		.section	.text.WWDG_DeInit,"ax",%progbits
  22              		.align	2
  23              		.p2align 4,,15
  24              		.global	WWDG_DeInit
  25              		.thumb
  26              		.thumb_func
  27              		.type	WWDG_DeInit, %function
  28              	WWDG_DeInit:
  29              	.LFB123:
  30              		.file 1 "ChibiOS_16.1.4/ext/stdperiph_stm32f4/src/stm32f4xx_wwdg.c"
  31              		.loc 1 139 0
  32              		.cfi_startproc
  33              		@ args = 0, pretend = 0, frame = 0
  34              		@ frame_needed = 0, uses_anonymous_args = 0
  35 0000 08B5     		push	{r3, lr}
  36              		.cfi_def_cfa_offset 8
  37              		.cfi_offset 3, -8
  38              		.cfi_offset 14, -4
  39              		.loc 1 140 0
  40 0002 0121     		movs	r1, #1
  41 0004 4FF40060 		mov	r0, #2048
  42 0008 FFF7FEFF 		bl	RCC_APB1PeriphResetCmd
  43              	.LVL0:
  44              		.loc 1 141 0
  45 000c 0021     		movs	r1, #0
  46 000e 4FF40060 		mov	r0, #2048
  47              		.loc 1 142 0
  48 0012 BDE80840 		pop	{r3, lr}
  49              		.cfi_restore 14
  50              		.cfi_restore 3
  51              		.cfi_def_cfa_offset 0
  52              		.loc 1 141 0
  53 0016 FFF7FEBF 		b	RCC_APB1PeriphResetCmd
  54              	.LVL1:
  55              		.cfi_endproc
  56              	.LFE123:
  57              		.size	WWDG_DeInit, .-WWDG_DeInit
ARM GAS  /var/folders/m4/4md61f0s1_g0rzfghffqnxvr0000gn/T//cc6sfehi.s 			page 2


  58 001a 00BF     		.section	.text.WWDG_SetPrescaler,"ax",%progbits
  59              		.align	2
  60              		.p2align 4,,15
  61              		.global	WWDG_SetPrescaler
  62              		.thumb
  63              		.thumb_func
  64              		.type	WWDG_SetPrescaler, %function
  65              	WWDG_SetPrescaler:
  66              	.LFB124:
  67              		.loc 1 155 0
  68              		.cfi_startproc
  69              		@ args = 0, pretend = 0, frame = 0
  70              		@ frame_needed = 0, uses_anonymous_args = 0
  71              	.LVL2:
  72              		.loc 1 158 0
  73 0000 30F4C073 		bics	r3, r0, #384
  74              		.loc 1 155 0
  75 0004 10B5     		push	{r4, lr}
  76              		.cfi_def_cfa_offset 8
  77              		.cfi_offset 4, -8
  78              		.cfi_offset 14, -4
  79              		.loc 1 155 0
  80 0006 0446     		mov	r4, r0
  81              		.loc 1 158 0
  82 0008 0CBF     		ite	eq
  83 000a 0120     		moveq	r0, #1
  84              	.LVL3:
  85 000c 0020     		movne	r0, #0
  86 000e FFF7FEFF 		bl	assert_param
  87              	.LVL4:
  88              		.loc 1 160 0
  89 0012 034B     		ldr	r3, .L5
  90 0014 5868     		ldr	r0, [r3, #4]
  91 0016 20F4C070 		bic	r0, r0, #384
  92              	.LVL5:
  93              		.loc 1 162 0
  94 001a 2043     		orrs	r0, r0, r4
  95              	.LVL6:
  96              		.loc 1 164 0
  97 001c 5860     		str	r0, [r3, #4]
  98 001e 10BD     		pop	{r4, pc}
  99              	.LVL7:
 100              	.L6:
 101              		.align	2
 102              	.L5:
 103 0020 002C0040 		.word	1073753088
 104              		.cfi_endproc
 105              	.LFE124:
 106              		.size	WWDG_SetPrescaler, .-WWDG_SetPrescaler
 107              		.section	.text.WWDG_SetWindowValue,"ax",%progbits
 108              		.align	2
 109              		.p2align 4,,15
 110              		.global	WWDG_SetWindowValue
 111              		.thumb
 112              		.thumb_func
 113              		.type	WWDG_SetWindowValue, %function
 114              	WWDG_SetWindowValue:
ARM GAS  /var/folders/m4/4md61f0s1_g0rzfghffqnxvr0000gn/T//cc6sfehi.s 			page 3


 115              	.LFB125:
 116              		.loc 1 174 0
 117              		.cfi_startproc
 118              		@ args = 0, pretend = 0, frame = 8
 119              		@ frame_needed = 0, uses_anonymous_args = 0
 120              	.LVL8:
 121 0000 10B5     		push	{r4, lr}
 122              		.cfi_def_cfa_offset 8
 123              		.cfi_offset 4, -8
 124              		.cfi_offset 14, -4
 125 0002 0446     		mov	r4, r0
 126              		.loc 1 178 0
 127 0004 40B2     		sxtb	r0, r0
 128              		.loc 1 174 0
 129 0006 82B0     		sub	sp, sp, #8
 130              		.cfi_def_cfa_offset 16
 131              		.loc 1 178 0
 132 0008 C043     		mvns	r0, r0
 133              	.LVL9:
 134              		.loc 1 175 0
 135 000a 0023     		movs	r3, #0
 136              		.loc 1 178 0
 137 000c C00F     		lsrs	r0, r0, #31
 138              	.LVL10:
 139              		.loc 1 175 0
 140 000e 0193     		str	r3, [sp, #4]
 141              		.loc 1 178 0
 142 0010 FFF7FEFF 		bl	assert_param
 143              	.LVL11:
 144              		.loc 1 181 0
 145 0014 064A     		ldr	r2, .L9
 146 0016 5368     		ldr	r3, [r2, #4]
 147 0018 23F07F03 		bic	r3, r3, #127
 148 001c 0193     		str	r3, [sp, #4]
 149              		.loc 1 184 0
 150 001e 019B     		ldr	r3, [sp, #4]
 151 0020 04F07F04 		and	r4, r4, #127
 152 0024 1C43     		orrs	r4, r4, r3
 153 0026 0194     		str	r4, [sp, #4]
 154              		.loc 1 187 0
 155 0028 019B     		ldr	r3, [sp, #4]
 156 002a 5360     		str	r3, [r2, #4]
 157              		.loc 1 188 0
 158 002c 02B0     		add	sp, sp, #8
 159              		.cfi_def_cfa_offset 8
 160              		@ sp needed
 161 002e 10BD     		pop	{r4, pc}
 162              	.L10:
 163              		.align	2
 164              	.L9:
 165 0030 002C0040 		.word	1073753088
 166              		.cfi_endproc
 167              	.LFE125:
 168              		.size	WWDG_SetWindowValue, .-WWDG_SetWindowValue
 169              		.section	.text.WWDG_EnableIT,"ax",%progbits
 170              		.align	2
 171              		.p2align 4,,15
ARM GAS  /var/folders/m4/4md61f0s1_g0rzfghffqnxvr0000gn/T//cc6sfehi.s 			page 4


 172              		.global	WWDG_EnableIT
 173              		.thumb
 174              		.thumb_func
 175              		.type	WWDG_EnableIT, %function
 176              	WWDG_EnableIT:
 177              	.LFB126:
 178              		.loc 1 197 0
 179              		.cfi_startproc
 180              		@ args = 0, pretend = 0, frame = 0
 181              		@ frame_needed = 0, uses_anonymous_args = 0
 182              		@ link register save eliminated.
 183              		.loc 1 198 0
 184 0000 014B     		ldr	r3, .L12
 185 0002 0122     		movs	r2, #1
 186 0004 1A60     		str	r2, [r3]
 187 0006 7047     		bx	lr
 188              	.L13:
 189              		.align	2
 190              	.L12:
 191 0008 A4800542 		.word	1107656868
 192              		.cfi_endproc
 193              	.LFE126:
 194              		.size	WWDG_EnableIT, .-WWDG_EnableIT
 195              		.section	.text.WWDG_SetCounter,"ax",%progbits
 196              		.align	2
 197              		.p2align 4,,15
 198              		.global	WWDG_SetCounter
 199              		.thumb
 200              		.thumb_func
 201              		.type	WWDG_SetCounter, %function
 202              	WWDG_SetCounter:
 203              	.LFB127:
 204              		.loc 1 209 0
 205              		.cfi_startproc
 206              		@ args = 0, pretend = 0, frame = 0
 207              		@ frame_needed = 0, uses_anonymous_args = 0
 208              	.LVL12:
 209 0000 10B5     		push	{r4, lr}
 210              		.cfi_def_cfa_offset 8
 211              		.cfi_offset 4, -8
 212              		.cfi_offset 14, -4
 213              		.loc 1 209 0
 214 0002 0446     		mov	r4, r0
 215              		.loc 1 211 0
 216 0004 4038     		subs	r0, r0, #64
 217              	.LVL13:
 218 0006 3F28     		cmp	r0, #63
 219 0008 8CBF     		ite	hi
 220 000a 0020     		movhi	r0, #0
 221 000c 0120     		movls	r0, #1
 222 000e FFF7FEFF 		bl	assert_param
 223              	.LVL14:
 224              		.loc 1 214 0
 225 0012 024B     		ldr	r3, .L16
 226 0014 04F07F04 		and	r4, r4, #127
 227 0018 1C60     		str	r4, [r3]
 228 001a 10BD     		pop	{r4, pc}
ARM GAS  /var/folders/m4/4md61f0s1_g0rzfghffqnxvr0000gn/T//cc6sfehi.s 			page 5


 229              	.L17:
 230              		.align	2
 231              	.L16:
 232 001c 002C0040 		.word	1073753088
 233              		.cfi_endproc
 234              	.LFE127:
 235              		.size	WWDG_SetCounter, .-WWDG_SetCounter
 236              		.section	.text.WWDG_Enable,"ax",%progbits
 237              		.align	2
 238              		.p2align 4,,15
 239              		.global	WWDG_Enable
 240              		.thumb
 241              		.thumb_func
 242              		.type	WWDG_Enable, %function
 243              	WWDG_Enable:
 244              	.LFB128:
 245              		.loc 1 240 0
 246              		.cfi_startproc
 247              		@ args = 0, pretend = 0, frame = 0
 248              		@ frame_needed = 0, uses_anonymous_args = 0
 249              	.LVL15:
 250 0000 10B5     		push	{r4, lr}
 251              		.cfi_def_cfa_offset 8
 252              		.cfi_offset 4, -8
 253              		.cfi_offset 14, -4
 254              		.loc 1 240 0
 255 0002 0446     		mov	r4, r0
 256              		.loc 1 242 0
 257 0004 4038     		subs	r0, r0, #64
 258              	.LVL16:
 259 0006 3F28     		cmp	r0, #63
 260 0008 8CBF     		ite	hi
 261 000a 0020     		movhi	r0, #0
 262 000c 0120     		movls	r0, #1
 263 000e FFF7FEFF 		bl	assert_param
 264              	.LVL17:
 265              		.loc 1 243 0
 266 0012 024B     		ldr	r3, .L20
 267 0014 44F08004 		orr	r4, r4, #128
 268 0018 1C60     		str	r4, [r3]
 269 001a 10BD     		pop	{r4, pc}
 270              	.L21:
 271              		.align	2
 272              	.L20:
 273 001c 002C0040 		.word	1073753088
 274              		.cfi_endproc
 275              	.LFE128:
 276              		.size	WWDG_Enable, .-WWDG_Enable
 277              		.section	.text.WWDG_GetFlagStatus,"ax",%progbits
 278              		.align	2
 279              		.p2align 4,,15
 280              		.global	WWDG_GetFlagStatus
 281              		.thumb
 282              		.thumb_func
 283              		.type	WWDG_GetFlagStatus, %function
 284              	WWDG_GetFlagStatus:
 285              	.LFB129:
ARM GAS  /var/folders/m4/4md61f0s1_g0rzfghffqnxvr0000gn/T//cc6sfehi.s 			page 6


 286              		.loc 1 267 0
 287              		.cfi_startproc
 288              		@ args = 0, pretend = 0, frame = 0
 289              		@ frame_needed = 0, uses_anonymous_args = 0
 290              		@ link register save eliminated.
 291              	.LVL18:
 292              		.loc 1 270 0
 293 0000 024B     		ldr	r3, .L23
 294 0002 9868     		ldr	r0, [r3, #8]
 295              	.LVL19:
 296              		.loc 1 279 0
 297 0004 0030     		adds	r0, r0, #0
 298 0006 18BF     		it	ne
 299 0008 0120     		movne	r0, #1
 300              	.LVL20:
 301 000a 7047     		bx	lr
 302              	.L24:
 303              		.align	2
 304              	.L23:
 305 000c 002C0040 		.word	1073753088
 306              		.cfi_endproc
 307              	.LFE129:
 308              		.size	WWDG_GetFlagStatus, .-WWDG_GetFlagStatus
 309              		.section	.text.WWDG_ClearFlag,"ax",%progbits
 310              		.align	2
 311              		.p2align 4,,15
 312              		.global	WWDG_ClearFlag
 313              		.thumb
 314              		.thumb_func
 315              		.type	WWDG_ClearFlag, %function
 316              	WWDG_ClearFlag:
 317              	.LFB130:
 318              		.loc 1 287 0
 319              		.cfi_startproc
 320              		@ args = 0, pretend = 0, frame = 0
 321              		@ frame_needed = 0, uses_anonymous_args = 0
 322              		@ link register save eliminated.
 323              		.loc 1 288 0
 324 0000 014B     		ldr	r3, .L26
 325 0002 0022     		movs	r2, #0
 326 0004 9A60     		str	r2, [r3, #8]
 327 0006 7047     		bx	lr
 328              	.L27:
 329              		.align	2
 330              	.L26:
 331 0008 002C0040 		.word	1073753088
 332              		.cfi_endproc
 333              	.LFE130:
 334              		.size	WWDG_ClearFlag, .-WWDG_ClearFlag
 335              		.text
 336              	.Letext0:
 337              		.file 2 "/opt/homebrew-cask/Caskroom/gcc-arm-embedded/5_2-2015q4,20151219/gcc-arm-none-eabi-5_2-20
 338              		.file 3 "/opt/homebrew-cask/Caskroom/gcc-arm-embedded/5_2-2015q4,20151219/gcc-arm-none-eabi-5_2-20
 339              		.file 4 "ChibiOS_16.1.4/os/ext/CMSIS/ST/STM32F4xx/stm32f405xx.h"
 340              		.file 5 "ChibiOS_16.1.4/os/ext/CMSIS/ST/STM32F4xx/stm32f4xx.h"
 341              		.file 6 "ChibiOS_16.1.4/ext/stdperiph_stm32f4/inc/stm32f4xx_rcc.h"
 342              		.file 7 "ChibiOS_16.1.4/os/ext/CMSIS/include/core_cm4.h"
ARM GAS  /var/folders/m4/4md61f0s1_g0rzfghffqnxvr0000gn/T//cc6sfehi.s 			page 7

