ARM GAS  /var/folders/m4/4md61f0s1_g0rzfghffqnxvr0000gn/T//ccSRVwbo.s 			page 1


   1              		.syntax unified
   2              		.cpu cortex-m4
   3              		.eabi_attribute 27, 1
   4              		.eabi_attribute 28, 1
   5              		.fpu fpv4-sp-d16
   6              		.eabi_attribute 20, 1
   7              		.eabi_attribute 21, 1
   8              		.eabi_attribute 23, 3
   9              		.eabi_attribute 24, 1
  10              		.eabi_attribute 25, 1
  11              		.eabi_attribute 26, 1
  12              		.eabi_attribute 30, 2
  13              		.eabi_attribute 34, 1
  14              		.eabi_attribute 18, 4
  15              		.thumb
  16              		.syntax unified
  17              		.file	"stm32f4xx_tim.c"
  18              		.text
  19              	.Ltext0:
  20              		.cfi_sections	.debug_frame
  21              		.section	.text.TIM_DeInit,"ax",%progbits
  22              		.align	2
  23              		.p2align 4,,15
  24              		.global	TIM_DeInit
  25              		.thumb
  26              		.thumb_func
  27              		.type	TIM_DeInit, %function
  28              	TIM_DeInit:
  29              	.LFB123:
  30              		.file 1 "ChibiOS_16.1.4/ext/stdperiph_stm32f4/src/stm32f4xx_tim.c"
  31              		.loc 1 206 0
  32              		.cfi_startproc
  33              		@ args = 0, pretend = 0, frame = 0
  34              		@ frame_needed = 0, uses_anonymous_args = 0
  35              	.LVL0:
  36 0000 08B5     		push	{r3, lr}
  37              		.cfi_def_cfa_offset 8
  38              		.cfi_offset 3, -8
  39              		.cfi_offset 14, -4
  40              		.loc 1 210 0
  41 0002 604B     		ldr	r3, .L32
  42 0004 9842     		cmp	r0, r3
  43 0006 35D0     		beq	.L18
  44              		.loc 1 215 0
  45 0008 B0F1804F 		cmp	r0, #1073741824
  46 000c 3CD0     		beq	.L19
  47              		.loc 1 220 0
  48 000e 5E4B     		ldr	r3, .L32+4
  49 0010 9842     		cmp	r0, r3
  50 0012 43D0     		beq	.L20
  51              		.loc 1 225 0
  52 0014 5D4B     		ldr	r3, .L32+8
  53 0016 9842     		cmp	r0, r3
  54 0018 4AD0     		beq	.L21
  55              		.loc 1 230 0
  56 001a 5D4B     		ldr	r3, .L32+12
  57 001c 9842     		cmp	r0, r3
ARM GAS  /var/folders/m4/4md61f0s1_g0rzfghffqnxvr0000gn/T//ccSRVwbo.s 			page 2


  58 001e 51D0     		beq	.L22
  59              		.loc 1 235 0
  60 0020 5C4B     		ldr	r3, .L32+16
  61 0022 9842     		cmp	r0, r3
  62 0024 58D0     		beq	.L23
  63              		.loc 1 240 0
  64 0026 5C4B     		ldr	r3, .L32+20
  65 0028 9842     		cmp	r0, r3
  66 002a 5FD0     		beq	.L24
  67              		.loc 1 245 0
  68 002c 5B4B     		ldr	r3, .L32+24
  69 002e 9842     		cmp	r0, r3
  70 0030 66D0     		beq	.L25
  71              		.loc 1 250 0
  72 0032 5B4B     		ldr	r3, .L32+28
  73 0034 9842     		cmp	r0, r3
  74 0036 6DD0     		beq	.L26
  75              		.loc 1 255 0
  76 0038 5A4B     		ldr	r3, .L32+32
  77 003a 9842     		cmp	r0, r3
  78 003c 76D0     		beq	.L27
  79              		.loc 1 260 0
  80 003e 5A4B     		ldr	r3, .L32+36
  81 0040 9842     		cmp	r0, r3
  82 0042 7FD0     		beq	.L28
  83              		.loc 1 265 0
  84 0044 594B     		ldr	r3, .L32+40
  85 0046 9842     		cmp	r0, r3
  86 0048 00F08880 		beq	.L29
  87              		.loc 1 270 0
  88 004c 584B     		ldr	r3, .L32+44
  89 004e 9842     		cmp	r0, r3
  90 0050 00F08E80 		beq	.L30
  91              		.loc 1 277 0
  92 0054 574B     		ldr	r3, .L32+48
  93 0056 9842     		cmp	r0, r3
  94 0058 00D0     		beq	.L31
  95 005a 08BD     		pop	{r3, pc}
  96              	.L31:
  97              		.loc 1 279 0
  98 005c 0121     		movs	r1, #1
  99 005e 4FF48070 		mov	r0, #256
 100              	.LVL1:
 101 0062 FFF7FEFF 		bl	RCC_APB1PeriphResetCmd
 102              	.LVL2:
 103              		.loc 1 280 0
 104 0066 0021     		movs	r1, #0
 105 0068 4FF48070 		mov	r0, #256
 106              		.loc 1 283 0
 107 006c BDE80840 		pop	{r3, lr}
 108              		.cfi_remember_state
 109              		.cfi_restore 14
 110              		.cfi_restore 3
 111              		.cfi_def_cfa_offset 0
 112              		.loc 1 280 0
 113 0070 FFF7FEBF 		b	RCC_APB1PeriphResetCmd
 114              	.LVL3:
ARM GAS  /var/folders/m4/4md61f0s1_g0rzfghffqnxvr0000gn/T//ccSRVwbo.s 			page 3


 115              	.L18:
 116              		.cfi_restore_state
 117              		.loc 1 212 0
 118 0074 0121     		movs	r1, #1
 119 0076 0846     		mov	r0, r1
 120              	.LVL4:
 121 0078 FFF7FEFF 		bl	RCC_APB2PeriphResetCmd
 122              	.LVL5:
 123              		.loc 1 213 0
 124 007c 0021     		movs	r1, #0
 125 007e 0120     		movs	r0, #1
 126              		.loc 1 283 0
 127 0080 BDE80840 		pop	{r3, lr}
 128              		.cfi_remember_state
 129              		.cfi_restore 14
 130              		.cfi_restore 3
 131              		.cfi_def_cfa_offset 0
 132              		.loc 1 213 0
 133 0084 FFF7FEBF 		b	RCC_APB2PeriphResetCmd
 134              	.LVL6:
 135              	.L19:
 136              		.cfi_restore_state
 137              		.loc 1 217 0
 138 0088 0121     		movs	r1, #1
 139 008a 0846     		mov	r0, r1
 140              	.LVL7:
 141 008c FFF7FEFF 		bl	RCC_APB1PeriphResetCmd
 142              	.LVL8:
 143              		.loc 1 218 0
 144 0090 0021     		movs	r1, #0
 145 0092 0120     		movs	r0, #1
 146              		.loc 1 283 0
 147 0094 BDE80840 		pop	{r3, lr}
 148              		.cfi_remember_state
 149              		.cfi_restore 14
 150              		.cfi_restore 3
 151              		.cfi_def_cfa_offset 0
 152              		.loc 1 218 0
 153 0098 FFF7FEBF 		b	RCC_APB1PeriphResetCmd
 154              	.LVL9:
 155              	.L20:
 156              		.cfi_restore_state
 157              		.loc 1 222 0
 158 009c 0121     		movs	r1, #1
 159 009e 0220     		movs	r0, #2
 160              	.LVL10:
 161 00a0 FFF7FEFF 		bl	RCC_APB1PeriphResetCmd
 162              	.LVL11:
 163              		.loc 1 223 0
 164 00a4 0021     		movs	r1, #0
 165 00a6 0220     		movs	r0, #2
 166              		.loc 1 283 0
 167 00a8 BDE80840 		pop	{r3, lr}
 168              		.cfi_remember_state
 169              		.cfi_restore 14
 170              		.cfi_restore 3
 171              		.cfi_def_cfa_offset 0
ARM GAS  /var/folders/m4/4md61f0s1_g0rzfghffqnxvr0000gn/T//ccSRVwbo.s 			page 4


 172              		.loc 1 223 0
 173 00ac FFF7FEBF 		b	RCC_APB1PeriphResetCmd
 174              	.LVL12:
 175              	.L21:
 176              		.cfi_restore_state
 177              		.loc 1 227 0
 178 00b0 0121     		movs	r1, #1
 179 00b2 0420     		movs	r0, #4
 180              	.LVL13:
 181 00b4 FFF7FEFF 		bl	RCC_APB1PeriphResetCmd
 182              	.LVL14:
 183              		.loc 1 228 0
 184 00b8 0021     		movs	r1, #0
 185 00ba 0420     		movs	r0, #4
 186              		.loc 1 283 0
 187 00bc BDE80840 		pop	{r3, lr}
 188              		.cfi_remember_state
 189              		.cfi_restore 14
 190              		.cfi_restore 3
 191              		.cfi_def_cfa_offset 0
 192              		.loc 1 228 0
 193 00c0 FFF7FEBF 		b	RCC_APB1PeriphResetCmd
 194              	.LVL15:
 195              	.L22:
 196              		.cfi_restore_state
 197              		.loc 1 232 0
 198 00c4 0121     		movs	r1, #1
 199 00c6 0820     		movs	r0, #8
 200              	.LVL16:
 201 00c8 FFF7FEFF 		bl	RCC_APB1PeriphResetCmd
 202              	.LVL17:
 203              		.loc 1 233 0
 204 00cc 0021     		movs	r1, #0
 205 00ce 0820     		movs	r0, #8
 206              		.loc 1 283 0
 207 00d0 BDE80840 		pop	{r3, lr}
 208              		.cfi_remember_state
 209              		.cfi_restore 14
 210              		.cfi_restore 3
 211              		.cfi_def_cfa_offset 0
 212              		.loc 1 233 0
 213 00d4 FFF7FEBF 		b	RCC_APB1PeriphResetCmd
 214              	.LVL18:
 215              	.L23:
 216              		.cfi_restore_state
 217              		.loc 1 237 0
 218 00d8 0121     		movs	r1, #1
 219 00da 1020     		movs	r0, #16
 220              	.LVL19:
 221 00dc FFF7FEFF 		bl	RCC_APB1PeriphResetCmd
 222              	.LVL20:
 223              		.loc 1 238 0
 224 00e0 0021     		movs	r1, #0
 225 00e2 1020     		movs	r0, #16
 226              		.loc 1 283 0
 227 00e4 BDE80840 		pop	{r3, lr}
 228              		.cfi_remember_state
ARM GAS  /var/folders/m4/4md61f0s1_g0rzfghffqnxvr0000gn/T//ccSRVwbo.s 			page 5


 229              		.cfi_restore 14
 230              		.cfi_restore 3
 231              		.cfi_def_cfa_offset 0
 232              		.loc 1 238 0
 233 00e8 FFF7FEBF 		b	RCC_APB1PeriphResetCmd
 234              	.LVL21:
 235              	.L24:
 236              		.cfi_restore_state
 237              		.loc 1 242 0
 238 00ec 0121     		movs	r1, #1
 239 00ee 2020     		movs	r0, #32
 240              	.LVL22:
 241 00f0 FFF7FEFF 		bl	RCC_APB1PeriphResetCmd
 242              	.LVL23:
 243              		.loc 1 243 0
 244 00f4 0021     		movs	r1, #0
 245 00f6 2020     		movs	r0, #32
 246              		.loc 1 283 0
 247 00f8 BDE80840 		pop	{r3, lr}
 248              		.cfi_remember_state
 249              		.cfi_restore 14
 250              		.cfi_restore 3
 251              		.cfi_def_cfa_offset 0
 252              		.loc 1 243 0
 253 00fc FFF7FEBF 		b	RCC_APB1PeriphResetCmd
 254              	.LVL24:
 255              	.L25:
 256              		.cfi_restore_state
 257              		.loc 1 247 0
 258 0100 0121     		movs	r1, #1
 259 0102 0220     		movs	r0, #2
 260              	.LVL25:
 261 0104 FFF7FEFF 		bl	RCC_APB2PeriphResetCmd
 262              	.LVL26:
 263              		.loc 1 248 0
 264 0108 0021     		movs	r1, #0
 265 010a 0220     		movs	r0, #2
 266              		.loc 1 283 0
 267 010c BDE80840 		pop	{r3, lr}
 268              		.cfi_remember_state
 269              		.cfi_restore 14
 270              		.cfi_restore 3
 271              		.cfi_def_cfa_offset 0
 272              		.loc 1 248 0
 273 0110 FFF7FEBF 		b	RCC_APB2PeriphResetCmd
 274              	.LVL27:
 275              	.L26:
 276              		.cfi_restore_state
 277              		.loc 1 252 0
 278 0114 0121     		movs	r1, #1
 279 0116 4FF48030 		mov	r0, #65536
 280              	.LVL28:
 281 011a FFF7FEFF 		bl	RCC_APB2PeriphResetCmd
 282              	.LVL29:
 283              		.loc 1 253 0
 284 011e 0021     		movs	r1, #0
 285 0120 4FF48030 		mov	r0, #65536
ARM GAS  /var/folders/m4/4md61f0s1_g0rzfghffqnxvr0000gn/T//ccSRVwbo.s 			page 6


 286              		.loc 1 283 0
 287 0124 BDE80840 		pop	{r3, lr}
 288              		.cfi_remember_state
 289              		.cfi_restore 14
 290              		.cfi_restore 3
 291              		.cfi_def_cfa_offset 0
 292              		.loc 1 253 0
 293 0128 FFF7FEBF 		b	RCC_APB2PeriphResetCmd
 294              	.LVL30:
 295              	.L27:
 296              		.cfi_restore_state
 297              		.loc 1 257 0
 298 012c 0121     		movs	r1, #1
 299 012e 4FF40030 		mov	r0, #131072
 300              	.LVL31:
 301 0132 FFF7FEFF 		bl	RCC_APB2PeriphResetCmd
 302              	.LVL32:
 303              		.loc 1 258 0
 304 0136 0021     		movs	r1, #0
 305 0138 4FF40030 		mov	r0, #131072
 306              		.loc 1 283 0
 307 013c BDE80840 		pop	{r3, lr}
 308              		.cfi_remember_state
 309              		.cfi_restore 14
 310              		.cfi_restore 3
 311              		.cfi_def_cfa_offset 0
 312              		.loc 1 258 0
 313 0140 FFF7FEBF 		b	RCC_APB2PeriphResetCmd
 314              	.LVL33:
 315              	.L28:
 316              		.cfi_restore_state
 317              		.loc 1 262 0
 318 0144 0121     		movs	r1, #1
 319 0146 4FF48020 		mov	r0, #262144
 320              	.LVL34:
 321 014a FFF7FEFF 		bl	RCC_APB2PeriphResetCmd
 322              	.LVL35:
 323              		.loc 1 263 0
 324 014e 0021     		movs	r1, #0
 325 0150 4FF48020 		mov	r0, #262144
 326              		.loc 1 283 0
 327 0154 BDE80840 		pop	{r3, lr}
 328              		.cfi_remember_state
 329              		.cfi_restore 14
 330              		.cfi_restore 3
 331              		.cfi_def_cfa_offset 0
 332              		.loc 1 263 0
 333 0158 FFF7FEBF 		b	RCC_APB2PeriphResetCmd
 334              	.LVL36:
 335              	.L29:
 336              		.cfi_restore_state
 337              		.loc 1 267 0
 338 015c 0121     		movs	r1, #1
 339 015e 4020     		movs	r0, #64
 340              	.LVL37:
 341 0160 FFF7FEFF 		bl	RCC_APB1PeriphResetCmd
 342              	.LVL38:
ARM GAS  /var/folders/m4/4md61f0s1_g0rzfghffqnxvr0000gn/T//ccSRVwbo.s 			page 7


 343              		.loc 1 268 0
 344 0164 0021     		movs	r1, #0
 345 0166 4020     		movs	r0, #64
 346              		.loc 1 283 0
 347 0168 BDE80840 		pop	{r3, lr}
 348              		.cfi_remember_state
 349              		.cfi_restore 14
 350              		.cfi_restore 3
 351              		.cfi_def_cfa_offset 0
 352              		.loc 1 268 0
 353 016c FFF7FEBF 		b	RCC_APB1PeriphResetCmd
 354              	.LVL39:
 355              	.L30:
 356              		.cfi_restore_state
 357              		.loc 1 272 0
 358 0170 0121     		movs	r1, #1
 359 0172 8020     		movs	r0, #128
 360              	.LVL40:
 361 0174 FFF7FEFF 		bl	RCC_APB1PeriphResetCmd
 362              	.LVL41:
 363              		.loc 1 273 0
 364 0178 0021     		movs	r1, #0
 365 017a 8020     		movs	r0, #128
 366              		.loc 1 283 0
 367 017c BDE80840 		pop	{r3, lr}
 368              		.cfi_restore 14
 369              		.cfi_restore 3
 370              		.cfi_def_cfa_offset 0
 371              		.loc 1 273 0
 372 0180 FFF7FEBF 		b	RCC_APB1PeriphResetCmd
 373              	.LVL42:
 374              	.L33:
 375              		.align	2
 376              	.L32:
 377 0184 00000140 		.word	1073807360
 378 0188 00040040 		.word	1073742848
 379 018c 00080040 		.word	1073743872
 380 0190 000C0040 		.word	1073744896
 381 0194 00100040 		.word	1073745920
 382 0198 00140040 		.word	1073746944
 383 019c 00040140 		.word	1073808384
 384 01a0 00400140 		.word	1073823744
 385 01a4 00440140 		.word	1073824768
 386 01a8 00480140 		.word	1073825792
 387 01ac 00180040 		.word	1073747968
 388 01b0 001C0040 		.word	1073748992
 389 01b4 00200040 		.word	1073750016
 390              		.cfi_endproc
 391              	.LFE123:
 392              		.size	TIM_DeInit, .-TIM_DeInit
 393              		.section	.text.TIM_TimeBaseInit,"ax",%progbits
 394              		.align	2
 395              		.p2align 4,,15
 396              		.global	TIM_TimeBaseInit
 397              		.thumb
 398              		.thumb_func
 399              		.type	TIM_TimeBaseInit, %function
ARM GAS  /var/folders/m4/4md61f0s1_g0rzfghffqnxvr0000gn/T//ccSRVwbo.s 			page 8


 400              	TIM_TimeBaseInit:
 401              	.LFB124:
 402              		.loc 1 294 0
 403              		.cfi_startproc
 404              		@ args = 0, pretend = 0, frame = 0
 405              		@ frame_needed = 0, uses_anonymous_args = 0
 406              		@ link register save eliminated.
 407              	.LVL43:
 408              		.loc 1 304 0
 409 0000 224A     		ldr	r2, .L48
 410              		.loc 1 302 0
 411 0002 0368     		ldr	r3, [r0]
 412              		.loc 1 304 0
 413 0004 9042     		cmp	r0, r2
 414              		.loc 1 302 0
 415 0006 9BB2     		uxth	r3, r3
 416              	.LVL44:
 417              		.loc 1 304 0
 418 0008 12D0     		beq	.L35
 419              		.loc 1 304 0 is_stmt 0 discriminator 1
 420 000a 02F58062 		add	r2, r2, #1024
 421 000e 9042     		cmp	r0, r2
 422 0010 0ED0     		beq	.L35
 423              		.loc 1 304 0 discriminator 2
 424 0012 B0F1804F 		cmp	r0, #1073741824
 425 0016 0BD0     		beq	.L35
 426              		.loc 1 305 0 is_stmt 1
 427 0018 A2F58032 		sub	r2, r2, #65536
 428 001c 9042     		cmp	r0, r2
 429 001e 07D0     		beq	.L35
 430              		.loc 1 305 0 is_stmt 0 discriminator 1
 431 0020 02F58062 		add	r2, r2, #1024
 432 0024 9042     		cmp	r0, r2
 433 0026 03D0     		beq	.L35
 434              		.loc 1 306 0 is_stmt 1
 435 0028 02F58062 		add	r2, r2, #1024
 436 002c 9042     		cmp	r0, r2
 437 002e 03D1     		bne	.L36
 438              	.L35:
 439              		.loc 1 310 0
 440 0030 4A88     		ldrh	r2, [r1, #2]
 441              		.loc 1 309 0
 442 0032 23F07003 		bic	r3, r3, #112
 443              	.LVL45:
 444              		.loc 1 310 0
 445 0036 1343     		orrs	r3, r3, r2
 446              	.LVL46:
 447              	.L36:
 448              		.loc 1 313 0
 449 0038 154A     		ldr	r2, .L48+4
 450 003a 9042     		cmp	r0, r2
 451 003c 1ED0     		beq	.L37
 452              		.loc 1 313 0 is_stmt 0 discriminator 1
 453 003e 02F58062 		add	r2, r2, #1024
 454 0042 9042     		cmp	r0, r2
 455 0044 1AD0     		beq	.L37
 456              		.loc 1 320 0 is_stmt 1
ARM GAS  /var/folders/m4/4md61f0s1_g0rzfghffqnxvr0000gn/T//ccSRVwbo.s 			page 9


 457 0046 0A89     		ldrh	r2, [r1, #8]
 458              		.loc 1 294 0
 459 0048 70B4     		push	{r4, r5, r6}
 460              		.cfi_def_cfa_offset 12
 461              		.cfi_offset 4, -12
 462              		.cfi_offset 5, -8
 463              		.cfi_offset 6, -4
 464              		.loc 1 316 0
 465 004a 23F44073 		bic	r3, r3, #768
 466              	.LVL47:
 467              		.loc 1 328 0
 468 004e 0F4C     		ldr	r4, .L48
 469              		.loc 1 323 0
 470 0050 4E68     		ldr	r6, [r1, #4]
 471              		.loc 1 326 0
 472 0052 0D88     		ldrh	r5, [r1]
 473              		.loc 1 316 0
 474 0054 9BB2     		uxth	r3, r3
 475              	.LVL48:
 476              		.loc 1 320 0
 477 0056 1343     		orrs	r3, r3, r2
 478              	.LVL49:
 479              		.loc 1 328 0
 480 0058 A042     		cmp	r0, r4
 481              		.loc 1 320 0
 482 005a 0360     		str	r3, [r0]
 483              		.loc 1 323 0
 484 005c C662     		str	r6, [r0, #44]
 485              		.loc 1 326 0
 486 005e 8562     		str	r5, [r0, #40]
 487              		.loc 1 328 0
 488 0060 06D0     		beq	.L41
 489              		.loc 1 328 0 is_stmt 0 discriminator 1
 490 0062 0C4B     		ldr	r3, .L48+8
 491 0064 9842     		cmp	r0, r3
 492 0066 03D0     		beq	.L41
 493              		.loc 1 336 0 is_stmt 1
 494 0068 0123     		movs	r3, #1
 495 006a 4361     		str	r3, [r0, #20]
 496              		.loc 1 337 0
 497 006c 70BC     		pop	{r4, r5, r6}
 498              		.cfi_remember_state
 499              		.cfi_restore 6
 500              		.cfi_restore 5
 501              		.cfi_restore 4
 502              		.cfi_def_cfa_offset 0
 503 006e 7047     		bx	lr
 504              	.L41:
 505              		.cfi_restore_state
 506              		.loc 1 331 0
 507 0070 8B7A     		ldrb	r3, [r1, #10]	@ zero_extendqisi2
 508 0072 0363     		str	r3, [r0, #48]
 509              		.loc 1 336 0
 510 0074 0123     		movs	r3, #1
 511 0076 4361     		str	r3, [r0, #20]
 512              		.loc 1 337 0
 513 0078 70BC     		pop	{r4, r5, r6}
ARM GAS  /var/folders/m4/4md61f0s1_g0rzfghffqnxvr0000gn/T//ccSRVwbo.s 			page 10


 514              		.cfi_restore 4
 515              		.cfi_restore 5
 516              		.cfi_restore 6
 517              		.cfi_def_cfa_offset 0
 518 007a 7047     		bx	lr
 519              	.LVL50:
 520              	.L37:
 521              		.loc 1 320 0
 522 007c 0360     		str	r3, [r0]
 523              		.loc 1 323 0
 524 007e 4A68     		ldr	r2, [r1, #4]
 525              		.loc 1 326 0
 526 0080 0B88     		ldrh	r3, [r1]
 527              	.LVL51:
 528              		.loc 1 323 0
 529 0082 C262     		str	r2, [r0, #44]
 530              		.loc 1 326 0
 531 0084 8362     		str	r3, [r0, #40]
 532              		.loc 1 336 0
 533 0086 0123     		movs	r3, #1
 534 0088 4361     		str	r3, [r0, #20]
 535 008a 7047     		bx	lr
 536              	.L49:
 537              		.align	2
 538              	.L48:
 539 008c 00000140 		.word	1073807360
 540 0090 00100040 		.word	1073745920
 541 0094 00040140 		.word	1073808384
 542              		.cfi_endproc
 543              	.LFE124:
 544              		.size	TIM_TimeBaseInit, .-TIM_TimeBaseInit
 545              		.section	.text.TIM_TimeBaseStructInit,"ax",%progbits
 546              		.align	2
 547              		.p2align 4,,15
 548              		.global	TIM_TimeBaseStructInit
 549              		.thumb
 550              		.thumb_func
 551              		.type	TIM_TimeBaseStructInit, %function
 552              	TIM_TimeBaseStructInit:
 553              	.LFB125:
 554              		.loc 1 346 0
 555              		.cfi_startproc
 556              		@ args = 0, pretend = 0, frame = 0
 557              		@ frame_needed = 0, uses_anonymous_args = 0
 558              		@ link register save eliminated.
 559              	.LVL52:
 560              		.loc 1 349 0
 561 0000 0023     		movs	r3, #0
 562              		.loc 1 348 0
 563 0002 4FF0FF32 		mov	r2, #-1
 564 0006 4260     		str	r2, [r0, #4]
 565              		.loc 1 349 0
 566 0008 0380     		strh	r3, [r0]	@ movhi
 567              		.loc 1 350 0
 568 000a 0381     		strh	r3, [r0, #8]	@ movhi
 569              		.loc 1 351 0
 570 000c 4380     		strh	r3, [r0, #2]	@ movhi
ARM GAS  /var/folders/m4/4md61f0s1_g0rzfghffqnxvr0000gn/T//ccSRVwbo.s 			page 11


 571              		.loc 1 352 0
 572 000e 8372     		strb	r3, [r0, #10]
 573 0010 7047     		bx	lr
 574              		.cfi_endproc
 575              	.LFE125:
 576              		.size	TIM_TimeBaseStructInit, .-TIM_TimeBaseStructInit
 577 0012 00BF     		.section	.text.TIM_PrescalerConfig,"ax",%progbits
 578              		.align	2
 579              		.p2align 4,,15
 580              		.global	TIM_PrescalerConfig
 581              		.thumb
 582              		.thumb_func
 583              		.type	TIM_PrescalerConfig, %function
 584              	TIM_PrescalerConfig:
 585              	.LFB126:
 586              		.loc 1 366 0
 587              		.cfi_startproc
 588              		@ args = 0, pretend = 0, frame = 0
 589              		@ frame_needed = 0, uses_anonymous_args = 0
 590              		@ link register save eliminated.
 591              	.LVL53:
 592              		.loc 1 371 0
 593 0000 8162     		str	r1, [r0, #40]
 594              		.loc 1 373 0
 595 0002 4261     		str	r2, [r0, #20]
 596 0004 7047     		bx	lr
 597              		.cfi_endproc
 598              	.LFE126:
 599              		.size	TIM_PrescalerConfig, .-TIM_PrescalerConfig
 600 0006 00BF     		.section	.text.TIM_CounterModeConfig,"ax",%progbits
 601              		.align	2
 602              		.p2align 4,,15
 603              		.global	TIM_CounterModeConfig
 604              		.thumb
 605              		.thumb_func
 606              		.type	TIM_CounterModeConfig, %function
 607              	TIM_CounterModeConfig:
 608              	.LFB127:
 609              		.loc 1 389 0
 610              		.cfi_startproc
 611              		@ args = 0, pretend = 0, frame = 0
 612              		@ frame_needed = 0, uses_anonymous_args = 0
 613              		@ link register save eliminated.
 614              	.LVL54:
 615              		.loc 1 396 0
 616 0000 0268     		ldr	r2, [r0]
 617              	.LVL55:
 618              		.loc 1 399 0
 619 0002 4FF68F73 		movw	r3, #65423
 620 0006 1340     		ands	r3, r3, r2
 621              	.LVL56:
 622              		.loc 1 405 0
 623 0008 1943     		orrs	r1, r1, r3
 624              	.LVL57:
 625 000a 0160     		str	r1, [r0]
 626 000c 7047     		bx	lr
 627              		.cfi_endproc
ARM GAS  /var/folders/m4/4md61f0s1_g0rzfghffqnxvr0000gn/T//ccSRVwbo.s 			page 12


 628              	.LFE127:
 629              		.size	TIM_CounterModeConfig, .-TIM_CounterModeConfig
 630 000e 00BF     		.section	.text.TIM_SetCounter,"ax",%progbits
 631              		.align	2
 632              		.p2align 4,,15
 633              		.global	TIM_SetCounter
 634              		.thumb
 635              		.thumb_func
 636              		.type	TIM_SetCounter, %function
 637              	TIM_SetCounter:
 638              	.LFB128:
 639              		.loc 1 415 0
 640              		.cfi_startproc
 641              		@ args = 0, pretend = 0, frame = 0
 642              		@ frame_needed = 0, uses_anonymous_args = 0
 643              		@ link register save eliminated.
 644              	.LVL58:
 645              		.loc 1 420 0
 646 0000 4162     		str	r1, [r0, #36]
 647 0002 7047     		bx	lr
 648              		.cfi_endproc
 649              	.LFE128:
 650              		.size	TIM_SetCounter, .-TIM_SetCounter
 651              		.section	.text.TIM_SetAutoreload,"ax",%progbits
 652              		.align	2
 653              		.p2align 4,,15
 654              		.global	TIM_SetAutoreload
 655              		.thumb
 656              		.thumb_func
 657              		.type	TIM_SetAutoreload, %function
 658              	TIM_SetAutoreload:
 659              	.LFB129:
 660              		.loc 1 430 0
 661              		.cfi_startproc
 662              		@ args = 0, pretend = 0, frame = 0
 663              		@ frame_needed = 0, uses_anonymous_args = 0
 664              		@ link register save eliminated.
 665              	.LVL59:
 666              		.loc 1 435 0
 667 0000 C162     		str	r1, [r0, #44]
 668 0002 7047     		bx	lr
 669              		.cfi_endproc
 670              	.LFE129:
 671              		.size	TIM_SetAutoreload, .-TIM_SetAutoreload
 672              		.section	.text.TIM_GetCounter,"ax",%progbits
 673              		.align	2
 674              		.p2align 4,,15
 675              		.global	TIM_GetCounter
 676              		.thumb
 677              		.thumb_func
 678              		.type	TIM_GetCounter, %function
 679              	TIM_GetCounter:
 680              	.LFB130:
 681              		.loc 1 444 0
 682              		.cfi_startproc
 683              		@ args = 0, pretend = 0, frame = 0
 684              		@ frame_needed = 0, uses_anonymous_args = 0
ARM GAS  /var/folders/m4/4md61f0s1_g0rzfghffqnxvr0000gn/T//ccSRVwbo.s 			page 13


 685              		@ link register save eliminated.
 686              	.LVL60:
 687              		.loc 1 449 0
 688 0000 406A     		ldr	r0, [r0, #36]
 689              	.LVL61:
 690              		.loc 1 450 0
 691 0002 7047     		bx	lr
 692              		.cfi_endproc
 693              	.LFE130:
 694              		.size	TIM_GetCounter, .-TIM_GetCounter
 695              		.section	.text.TIM_GetPrescaler,"ax",%progbits
 696              		.align	2
 697              		.p2align 4,,15
 698              		.global	TIM_GetPrescaler
 699              		.thumb
 700              		.thumb_func
 701              		.type	TIM_GetPrescaler, %function
 702              	TIM_GetPrescaler:
 703              	.LFB131:
 704              		.loc 1 458 0
 705              		.cfi_startproc
 706              		@ args = 0, pretend = 0, frame = 0
 707              		@ frame_needed = 0, uses_anonymous_args = 0
 708              		@ link register save eliminated.
 709              	.LVL62:
 710              		.loc 1 463 0
 711 0000 806A     		ldr	r0, [r0, #40]
 712              	.LVL63:
 713              		.loc 1 464 0
 714 0002 80B2     		uxth	r0, r0
 715 0004 7047     		bx	lr
 716              		.cfi_endproc
 717              	.LFE131:
 718              		.size	TIM_GetPrescaler, .-TIM_GetPrescaler
 719 0006 00BF     		.section	.text.TIM_UpdateDisableConfig,"ax",%progbits
 720              		.align	2
 721              		.p2align 4,,15
 722              		.global	TIM_UpdateDisableConfig
 723              		.thumb
 724              		.thumb_func
 725              		.type	TIM_UpdateDisableConfig, %function
 726              	TIM_UpdateDisableConfig:
 727              	.LFB132:
 728              		.loc 1 474 0
 729              		.cfi_startproc
 730              		@ args = 0, pretend = 0, frame = 0
 731              		@ frame_needed = 0, uses_anonymous_args = 0
 732              		@ link register save eliminated.
 733              	.LVL64:
 734              		.loc 1 479 0
 735 0000 29B9     		cbnz	r1, .L60
 736              		.loc 1 487 0
 737 0002 0268     		ldr	r2, [r0]
 738 0004 4FF6FD73 		movw	r3, #65533
 739 0008 1340     		ands	r3, r3, r2
 740 000a 0360     		str	r3, [r0]
 741 000c 7047     		bx	lr
ARM GAS  /var/folders/m4/4md61f0s1_g0rzfghffqnxvr0000gn/T//ccSRVwbo.s 			page 14


 742              	.L60:
 743              		.loc 1 482 0
 744 000e 0368     		ldr	r3, [r0]
 745 0010 43F00203 		orr	r3, r3, #2
 746 0014 0360     		str	r3, [r0]
 747 0016 7047     		bx	lr
 748              		.cfi_endproc
 749              	.LFE132:
 750              		.size	TIM_UpdateDisableConfig, .-TIM_UpdateDisableConfig
 751              		.section	.text.TIM_UpdateRequestConfig,"ax",%progbits
 752              		.align	2
 753              		.p2align 4,,15
 754              		.global	TIM_UpdateRequestConfig
 755              		.thumb
 756              		.thumb_func
 757              		.type	TIM_UpdateRequestConfig, %function
 758              	TIM_UpdateRequestConfig:
 759              	.LFB133:
 760              		.loc 1 503 0
 761              		.cfi_startproc
 762              		@ args = 0, pretend = 0, frame = 0
 763              		@ frame_needed = 0, uses_anonymous_args = 0
 764              		@ link register save eliminated.
 765              	.LVL65:
 766              		.loc 1 508 0
 767 0000 29B9     		cbnz	r1, .L64
 768              		.loc 1 516 0
 769 0002 0268     		ldr	r2, [r0]
 770 0004 4FF6FB73 		movw	r3, #65531
 771 0008 1340     		ands	r3, r3, r2
 772 000a 0360     		str	r3, [r0]
 773 000c 7047     		bx	lr
 774              	.L64:
 775              		.loc 1 511 0
 776 000e 0368     		ldr	r3, [r0]
 777 0010 43F00403 		orr	r3, r3, #4
 778 0014 0360     		str	r3, [r0]
 779 0016 7047     		bx	lr
 780              		.cfi_endproc
 781              	.LFE133:
 782              		.size	TIM_UpdateRequestConfig, .-TIM_UpdateRequestConfig
 783              		.section	.text.TIM_ARRPreloadConfig,"ax",%progbits
 784              		.align	2
 785              		.p2align 4,,15
 786              		.global	TIM_ARRPreloadConfig
 787              		.thumb
 788              		.thumb_func
 789              		.type	TIM_ARRPreloadConfig, %function
 790              	TIM_ARRPreloadConfig:
 791              	.LFB134:
 792              		.loc 1 528 0
 793              		.cfi_startproc
 794              		@ args = 0, pretend = 0, frame = 0
 795              		@ frame_needed = 0, uses_anonymous_args = 0
 796              		@ link register save eliminated.
 797              	.LVL66:
 798              		.loc 1 533 0
ARM GAS  /var/folders/m4/4md61f0s1_g0rzfghffqnxvr0000gn/T//ccSRVwbo.s 			page 15


 799 0000 29B9     		cbnz	r1, .L68
 800              		.loc 1 541 0
 801 0002 0268     		ldr	r2, [r0]
 802 0004 4FF67F73 		movw	r3, #65407
 803 0008 1340     		ands	r3, r3, r2
 804 000a 0360     		str	r3, [r0]
 805 000c 7047     		bx	lr
 806              	.L68:
 807              		.loc 1 536 0
 808 000e 0368     		ldr	r3, [r0]
 809 0010 43F08003 		orr	r3, r3, #128
 810 0014 0360     		str	r3, [r0]
 811 0016 7047     		bx	lr
 812              		.cfi_endproc
 813              	.LFE134:
 814              		.size	TIM_ARRPreloadConfig, .-TIM_ARRPreloadConfig
 815              		.section	.text.TIM_SelectOnePulseMode,"ax",%progbits
 816              		.align	2
 817              		.p2align 4,,15
 818              		.global	TIM_SelectOnePulseMode
 819              		.thumb
 820              		.thumb_func
 821              		.type	TIM_SelectOnePulseMode, %function
 822              	TIM_SelectOnePulseMode:
 823              	.LFB135:
 824              		.loc 1 555 0
 825              		.cfi_startproc
 826              		@ args = 0, pretend = 0, frame = 0
 827              		@ frame_needed = 0, uses_anonymous_args = 0
 828              		@ link register save eliminated.
 829              	.LVL67:
 830              		.loc 1 561 0
 831 0000 0268     		ldr	r2, [r0]
 832 0002 4FF6F773 		movw	r3, #65527
 833 0006 1340     		ands	r3, r3, r2
 834 0008 0360     		str	r3, [r0]
 835              		.loc 1 564 0
 836 000a 0368     		ldr	r3, [r0]
 837 000c 1943     		orrs	r1, r1, r3
 838              	.LVL68:
 839 000e 0160     		str	r1, [r0]
 840 0010 7047     		bx	lr
 841              		.cfi_endproc
 842              	.LFE135:
 843              		.size	TIM_SelectOnePulseMode, .-TIM_SelectOnePulseMode
 844 0012 00BF     		.section	.text.TIM_SetClockDivision,"ax",%progbits
 845              		.align	2
 846              		.p2align 4,,15
 847              		.global	TIM_SetClockDivision
 848              		.thumb
 849              		.thumb_func
 850              		.type	TIM_SetClockDivision, %function
 851              	TIM_SetClockDivision:
 852              	.LFB136:
 853              		.loc 1 578 0
 854              		.cfi_startproc
 855              		@ args = 0, pretend = 0, frame = 0
ARM GAS  /var/folders/m4/4md61f0s1_g0rzfghffqnxvr0000gn/T//ccSRVwbo.s 			page 16


 856              		@ frame_needed = 0, uses_anonymous_args = 0
 857              		@ link register save eliminated.
 858              	.LVL69:
 859              		.loc 1 584 0
 860 0000 0268     		ldr	r2, [r0]
 861 0002 4FF6FF43 		movw	r3, #64767
 862 0006 1340     		ands	r3, r3, r2
 863 0008 0360     		str	r3, [r0]
 864              		.loc 1 587 0
 865 000a 0368     		ldr	r3, [r0]
 866 000c 1943     		orrs	r1, r1, r3
 867              	.LVL70:
 868 000e 0160     		str	r1, [r0]
 869 0010 7047     		bx	lr
 870              		.cfi_endproc
 871              	.LFE136:
 872              		.size	TIM_SetClockDivision, .-TIM_SetClockDivision
 873 0012 00BF     		.section	.text.TIM_Cmd,"ax",%progbits
 874              		.align	2
 875              		.p2align 4,,15
 876              		.global	TIM_Cmd
 877              		.thumb
 878              		.thumb_func
 879              		.type	TIM_Cmd, %function
 880              	TIM_Cmd:
 881              	.LFB137:
 882              		.loc 1 598 0
 883              		.cfi_startproc
 884              		@ args = 0, pretend = 0, frame = 0
 885              		@ frame_needed = 0, uses_anonymous_args = 0
 886              		@ link register save eliminated.
 887              	.LVL71:
 888              		.loc 1 603 0
 889 0000 29B9     		cbnz	r1, .L74
 890              		.loc 1 611 0
 891 0002 0268     		ldr	r2, [r0]
 892 0004 4FF6FE73 		movw	r3, #65534
 893 0008 1340     		ands	r3, r3, r2
 894 000a 0360     		str	r3, [r0]
 895 000c 7047     		bx	lr
 896              	.L74:
 897              		.loc 1 606 0
 898 000e 0368     		ldr	r3, [r0]
 899 0010 43F00103 		orr	r3, r3, #1
 900 0014 0360     		str	r3, [r0]
 901 0016 7047     		bx	lr
 902              		.cfi_endproc
 903              	.LFE137:
 904              		.size	TIM_Cmd, .-TIM_Cmd
 905              		.section	.text.TIM_OC1Init,"ax",%progbits
 906              		.align	2
 907              		.p2align 4,,15
 908              		.global	TIM_OC1Init
 909              		.thumb
 910              		.thumb_func
 911              		.type	TIM_OC1Init, %function
 912              	TIM_OC1Init:
ARM GAS  /var/folders/m4/4md61f0s1_g0rzfghffqnxvr0000gn/T//ccSRVwbo.s 			page 17


 913              	.LFB138:
 914              		.loc 1 679 0
 915              		.cfi_startproc
 916              		@ args = 0, pretend = 0, frame = 0
 917              		@ frame_needed = 0, uses_anonymous_args = 0
 918              	.LVL72:
 919              		.loc 1 689 0
 920 0000 026A     		ldr	r2, [r0, #32]
 921 0002 4FF6FE73 		movw	r3, #65534
 922 0006 1340     		ands	r3, r3, r2
 923 0008 0362     		str	r3, [r0, #32]
 924              		.loc 1 679 0
 925 000a F0B5     		push	{r4, r5, r6, r7, lr}
 926              		.cfi_def_cfa_offset 20
 927              		.cfi_offset 4, -20
 928              		.cfi_offset 5, -16
 929              		.cfi_offset 6, -12
 930              		.cfi_offset 7, -8
 931              		.cfi_offset 14, -4
 932              		.loc 1 711 0
 933 000c 4A88     		ldrh	r2, [r1, #2]
 934              		.loc 1 692 0
 935 000e 056A     		ldr	r5, [r0, #32]
 936              	.LVL73:
 937              		.loc 1 711 0
 938 0010 8B89     		ldrh	r3, [r1, #12]
 939              		.loc 1 694 0
 940 0012 4468     		ldr	r4, [r0, #4]
 941              		.loc 1 713 0
 942 0014 154F     		ldr	r7, .L79
 943              		.loc 1 697 0
 944 0016 D0F818E0 		ldr	lr, [r0, #24]
 945              		.loc 1 706 0
 946 001a 4FF6FD76 		movw	r6, #65533
 947 001e 2E40     		ands	r6, r6, r5
 948              		.loc 1 711 0
 949 0020 1343     		orrs	r3, r3, r2
 950 0022 3343     		orrs	r3, r3, r6
 951              		.loc 1 701 0
 952 0024 4FF68C75 		movw	r5, #65420
 953              	.LVL74:
 954              		.loc 1 703 0
 955 0028 0E88     		ldrh	r6, [r1]
 956              		.loc 1 701 0
 957 002a 0EEA0505 		and	r5, lr, r5
 958              		.loc 1 713 0
 959 002e B842     		cmp	r0, r7
 960              		.loc 1 694 0
 961 0030 A2B2     		uxth	r2, r4
 962              	.LVL75:
 963              		.loc 1 711 0
 964 0032 9BB2     		uxth	r3, r3
 965              		.loc 1 703 0
 966 0034 45EA0604 		orr	r4, r5, r6
 967              	.LVL76:
 968              		.loc 1 713 0
 969 0038 08D0     		beq	.L76
ARM GAS  /var/folders/m4/4md61f0s1_g0rzfghffqnxvr0000gn/T//ccSRVwbo.s 			page 18


 970              		.loc 1 713 0 is_stmt 0 discriminator 1
 971 003a 0D4D     		ldr	r5, .L79+4
 972 003c A842     		cmp	r0, r5
 973 003e 05D0     		beq	.L76
 974              	.L77:
 975              		.loc 1 744 0 is_stmt 1
 976 0040 8968     		ldr	r1, [r1, #8]
 977              	.LVL77:
 978              		.loc 1 738 0
 979 0042 4260     		str	r2, [r0, #4]
 980              		.loc 1 741 0
 981 0044 8461     		str	r4, [r0, #24]
 982              		.loc 1 744 0
 983 0046 4163     		str	r1, [r0, #52]
 984              		.loc 1 747 0
 985 0048 0362     		str	r3, [r0, #32]
 986 004a F0BD     		pop	{r4, r5, r6, r7, pc}
 987              	.LVL78:
 988              	.L76:
 989              		.loc 1 723 0
 990 004c CE89     		ldrh	r6, [r1, #14]
 991              		.loc 1 735 0
 992 004e 0F8A     		ldrh	r7, [r1, #16]
 993 0050 4D8A     		ldrh	r5, [r1, #18]
 994              		.loc 1 721 0
 995 0052 23F00803 		bic	r3, r3, #8
 996              	.LVL79:
 997              		.loc 1 723 0
 998 0056 3343     		orrs	r3, r3, r6
 999              	.LVL80:
 1000              		.loc 1 731 0
 1001 0058 22F44072 		bic	r2, r2, #768
 1002              	.LVL81:
 1003              		.loc 1 728 0
 1004 005c 8E88     		ldrh	r6, [r1, #4]
 1005              		.loc 1 735 0
 1006 005e 3D43     		orrs	r5, r5, r7
 1007              		.loc 1 725 0
 1008 0060 23F00403 		bic	r3, r3, #4
 1009              	.LVL82:
 1010              		.loc 1 735 0
 1011 0064 2A43     		orrs	r2, r2, r5
 1012              		.loc 1 728 0
 1013 0066 3343     		orrs	r3, r3, r6
 1014              	.LVL83:
 1015              		.loc 1 735 0
 1016 0068 92B2     		uxth	r2, r2
 1017              	.LVL84:
 1018 006a E9E7     		b	.L77
 1019              	.L80:
 1020              		.align	2
 1021              	.L79:
 1022 006c 00000140 		.word	1073807360
 1023 0070 00040140 		.word	1073808384
 1024              		.cfi_endproc
 1025              	.LFE138:
 1026              		.size	TIM_OC1Init, .-TIM_OC1Init
ARM GAS  /var/folders/m4/4md61f0s1_g0rzfghffqnxvr0000gn/T//ccSRVwbo.s 			page 19


 1027              		.section	.text.TIM_OC2Init,"ax",%progbits
 1028              		.align	2
 1029              		.p2align 4,,15
 1030              		.global	TIM_OC2Init
 1031              		.thumb
 1032              		.thumb_func
 1033              		.type	TIM_OC2Init, %function
 1034              	TIM_OC2Init:
 1035              	.LFB139:
 1036              		.loc 1 760 0
 1037              		.cfi_startproc
 1038              		@ args = 0, pretend = 0, frame = 0
 1039              		@ frame_needed = 0, uses_anonymous_args = 0
 1040              	.LVL85:
 1041              		.loc 1 770 0
 1042 0000 026A     		ldr	r2, [r0, #32]
 1043 0002 4FF6EF73 		movw	r3, #65519
 1044 0006 1340     		ands	r3, r3, r2
 1045              		.loc 1 760 0
 1046 0008 F0B5     		push	{r4, r5, r6, r7, lr}
 1047              		.cfi_def_cfa_offset 20
 1048              		.cfi_offset 4, -20
 1049              		.cfi_offset 5, -16
 1050              		.cfi_offset 6, -12
 1051              		.cfi_offset 7, -8
 1052              		.cfi_offset 14, -4
 1053              		.loc 1 770 0
 1054 000a 0362     		str	r3, [r0, #32]
 1055              		.loc 1 793 0
 1056 000c 4A88     		ldrh	r2, [r1, #2]
 1057 000e 8C89     		ldrh	r4, [r1, #12]
 1058              		.loc 1 773 0
 1059 0010 D0F820E0 		ldr	lr, [r0, #32]
 1060              	.LVL86:
 1061              		.loc 1 775 0
 1062 0014 4668     		ldr	r6, [r0, #4]
 1063              		.loc 1 778 0
 1064 0016 8769     		ldr	r7, [r0, #24]
 1065              		.loc 1 795 0
 1066 0018 184D     		ldr	r5, .L85
 1067              		.loc 1 793 0
 1068 001a 1443     		orrs	r4, r4, r2
 1069              		.loc 1 782 0
 1070 001c 48F6FF42 		movw	r2, #36095
 1071 0020 3A40     		ands	r2, r2, r7
 1072              		.loc 1 788 0
 1073 0022 4FF6DF73 		movw	r3, #65503
 1074              		.loc 1 785 0
 1075 0026 0F88     		ldrh	r7, [r1]
 1076              		.loc 1 788 0
 1077 0028 0EEA0303 		and	r3, lr, r3
 1078              		.loc 1 793 0
 1079 002c 43EA0413 		orr	r3, r3, r4, lsl #4
 1080              		.loc 1 785 0
 1081 0030 42EA0722 		orr	r2, r2, r7, lsl #8
 1082              		.loc 1 795 0
 1083 0034 A842     		cmp	r0, r5
ARM GAS  /var/folders/m4/4md61f0s1_g0rzfghffqnxvr0000gn/T//ccSRVwbo.s 			page 20


 1084              		.loc 1 793 0
 1085 0036 9BB2     		uxth	r3, r3
 1086              		.loc 1 775 0
 1087 0038 B4B2     		uxth	r4, r6
 1088              	.LVL87:
 1089              		.loc 1 785 0
 1090 003a 92B2     		uxth	r2, r2
 1091              	.LVL88:
 1092              		.loc 1 795 0
 1093 003c 09D0     		beq	.L82
 1094              		.loc 1 795 0 is_stmt 0 discriminator 1
 1095 003e 05F58065 		add	r5, r5, #1024
 1096 0042 A842     		cmp	r0, r5
 1097 0044 05D0     		beq	.L82
 1098              	.L83:
 1099              		.loc 1 826 0 is_stmt 1
 1100 0046 8968     		ldr	r1, [r1, #8]
 1101              	.LVL89:
 1102              		.loc 1 820 0
 1103 0048 4460     		str	r4, [r0, #4]
 1104              		.loc 1 823 0
 1105 004a 8261     		str	r2, [r0, #24]
 1106              		.loc 1 826 0
 1107 004c 8163     		str	r1, [r0, #56]
 1108              		.loc 1 829 0
 1109 004e 0362     		str	r3, [r0, #32]
 1110 0050 F0BD     		pop	{r4, r5, r6, r7, pc}
 1111              	.LVL90:
 1112              	.L82:
 1113              		.loc 1 805 0
 1114 0052 CD89     		ldrh	r5, [r1, #14]
 1115              		.loc 1 817 0
 1116 0054 0F8A     		ldrh	r7, [r1, #16]
 1117 0056 4E8A     		ldrh	r6, [r1, #18]
 1118              		.loc 1 803 0
 1119 0058 23F08003 		bic	r3, r3, #128
 1120              	.LVL91:
 1121              		.loc 1 805 0
 1122 005c 43EA0513 		orr	r3, r3, r5, lsl #4
 1123              	.LVL92:
 1124              		.loc 1 807 0
 1125 0060 4FF6BF75 		movw	r5, #65471
 1126 0064 1D40     		ands	r5, r5, r3
 1127              	.LVL93:
 1128              		.loc 1 810 0
 1129 0066 8B88     		ldrh	r3, [r1, #4]
 1130              		.loc 1 813 0
 1131 0068 24F44064 		bic	r4, r4, #3072
 1132              	.LVL94:
 1133              		.loc 1 817 0
 1134 006c 3E43     		orrs	r6, r6, r7
 1135              		.loc 1 810 0
 1136 006e 45EA0313 		orr	r3, r5, r3, lsl #4
 1137              		.loc 1 817 0
 1138 0072 44EA8604 		orr	r4, r4, r6, lsl #2
 1139              		.loc 1 810 0
 1140 0076 9BB2     		uxth	r3, r3
ARM GAS  /var/folders/m4/4md61f0s1_g0rzfghffqnxvr0000gn/T//ccSRVwbo.s 			page 21


 1141              	.LVL95:
 1142              		.loc 1 817 0
 1143 0078 A4B2     		uxth	r4, r4
 1144              	.LVL96:
 1145 007a E4E7     		b	.L83
 1146              	.L86:
 1147              		.align	2
 1148              	.L85:
 1149 007c 00000140 		.word	1073807360
 1150              		.cfi_endproc
 1151              	.LFE139:
 1152              		.size	TIM_OC2Init, .-TIM_OC2Init
 1153              		.section	.text.TIM_OC3Init,"ax",%progbits
 1154              		.align	2
 1155              		.p2align 4,,15
 1156              		.global	TIM_OC3Init
 1157              		.thumb
 1158              		.thumb_func
 1159              		.type	TIM_OC3Init, %function
 1160              	TIM_OC3Init:
 1161              	.LFB140:
 1162              		.loc 1 841 0
 1163              		.cfi_startproc
 1164              		@ args = 0, pretend = 0, frame = 0
 1165              		@ frame_needed = 0, uses_anonymous_args = 0
 1166              	.LVL97:
 1167              		.loc 1 851 0
 1168 0000 026A     		ldr	r2, [r0, #32]
 1169 0002 4FF6FF63 		movw	r3, #65279
 1170 0006 1340     		ands	r3, r3, r2
 1171 0008 0362     		str	r3, [r0, #32]
 1172              		.loc 1 841 0
 1173 000a F0B5     		push	{r4, r5, r6, r7, lr}
 1174              		.cfi_def_cfa_offset 20
 1175              		.cfi_offset 4, -20
 1176              		.cfi_offset 5, -16
 1177              		.cfi_offset 6, -12
 1178              		.cfi_offset 7, -8
 1179              		.cfi_offset 14, -4
 1180              		.loc 1 873 0
 1181 000c 4A88     		ldrh	r2, [r1, #2]
 1182              		.loc 1 854 0
 1183 000e D0F820E0 		ldr	lr, [r0, #32]
 1184              	.LVL98:
 1185              		.loc 1 873 0
 1186 0012 8C89     		ldrh	r4, [r1, #12]
 1187              		.loc 1 856 0
 1188 0014 4568     		ldr	r5, [r0, #4]
 1189              		.loc 1 875 0
 1190 0016 1A4E     		ldr	r6, .L91
 1191              		.loc 1 859 0
 1192 0018 C769     		ldr	r7, [r0, #28]
 1193              		.loc 1 868 0
 1194 001a 4FF6FF53 		movw	r3, #65023
 1195              		.loc 1 873 0
 1196 001e 1443     		orrs	r4, r4, r2
 1197              		.loc 1 868 0
ARM GAS  /var/folders/m4/4md61f0s1_g0rzfghffqnxvr0000gn/T//ccSRVwbo.s 			page 22


 1198 0020 0EEA0303 		and	r3, lr, r3
 1199              		.loc 1 873 0
 1200 0024 43EA0423 		orr	r3, r3, r4, lsl #8
 1201              		.loc 1 863 0
 1202 0028 4FF68C72 		movw	r2, #65420
 1203              		.loc 1 865 0
 1204 002c 0C88     		ldrh	r4, [r1]
 1205              		.loc 1 863 0
 1206 002e 3A40     		ands	r2, r2, r7
 1207              		.loc 1 875 0
 1208 0030 B042     		cmp	r0, r6
 1209              		.loc 1 873 0
 1210 0032 9BB2     		uxth	r3, r3
 1211              		.loc 1 856 0
 1212 0034 ADB2     		uxth	r5, r5
 1213              	.LVL99:
 1214              		.loc 1 865 0
 1215 0036 42EA0402 		orr	r2, r2, r4
 1216              	.LVL100:
 1217              		.loc 1 875 0
 1218 003a 09D0     		beq	.L88
 1219              		.loc 1 875 0 is_stmt 0 discriminator 1
 1220 003c 06F58066 		add	r6, r6, #1024
 1221 0040 B042     		cmp	r0, r6
 1222 0042 05D0     		beq	.L88
 1223              	.L89:
 1224              		.loc 1 906 0 is_stmt 1
 1225 0044 8968     		ldr	r1, [r1, #8]
 1226              	.LVL101:
 1227              		.loc 1 900 0
 1228 0046 4560     		str	r5, [r0, #4]
 1229              		.loc 1 903 0
 1230 0048 C261     		str	r2, [r0, #28]
 1231              		.loc 1 906 0
 1232 004a C163     		str	r1, [r0, #60]
 1233              		.loc 1 909 0
 1234 004c 0362     		str	r3, [r0, #32]
 1235 004e F0BD     		pop	{r4, r5, r6, r7, pc}
 1236              	.LVL102:
 1237              	.L88:
 1238              		.loc 1 885 0
 1239 0050 CE89     		ldrh	r6, [r1, #14]
 1240              		.loc 1 897 0
 1241 0052 0C8A     		ldrh	r4, [r1, #16]
 1242 0054 B1F812E0 		ldrh	lr, [r1, #18]
 1243              		.loc 1 883 0
 1244 0058 23F40063 		bic	r3, r3, #2048
 1245              	.LVL103:
 1246              		.loc 1 885 0
 1247 005c 43EA0623 		orr	r3, r3, r6, lsl #8
 1248              	.LVL104:
 1249              		.loc 1 887 0
 1250 0060 4FF6FF36 		movw	r6, #64511
 1251 0064 1E40     		ands	r6, r6, r3
 1252              	.LVL105:
 1253              		.loc 1 890 0
 1254 0066 8B88     		ldrh	r3, [r1, #4]
ARM GAS  /var/folders/m4/4md61f0s1_g0rzfghffqnxvr0000gn/T//ccSRVwbo.s 			page 23


 1255              		.loc 1 893 0
 1256 0068 25F44057 		bic	r7, r5, #12288
 1257              		.loc 1 897 0
 1258 006c 44EA0E05 		orr	r5, r4, lr
 1259              	.LVL106:
 1260              		.loc 1 890 0
 1261 0070 46EA0323 		orr	r3, r6, r3, lsl #8
 1262              		.loc 1 897 0
 1263 0074 47EA0515 		orr	r5, r7, r5, lsl #4
 1264              		.loc 1 890 0
 1265 0078 9BB2     		uxth	r3, r3
 1266              	.LVL107:
 1267              		.loc 1 897 0
 1268 007a ADB2     		uxth	r5, r5
 1269              	.LVL108:
 1270 007c E2E7     		b	.L89
 1271              	.L92:
 1272 007e 00BF     		.align	2
 1273              	.L91:
 1274 0080 00000140 		.word	1073807360
 1275              		.cfi_endproc
 1276              	.LFE140:
 1277              		.size	TIM_OC3Init, .-TIM_OC3Init
 1278              		.section	.text.TIM_OC4Init,"ax",%progbits
 1279              		.align	2
 1280              		.p2align 4,,15
 1281              		.global	TIM_OC4Init
 1282              		.thumb
 1283              		.thumb_func
 1284              		.type	TIM_OC4Init, %function
 1285              	TIM_OC4Init:
 1286              	.LFB141:
 1287              		.loc 1 921 0
 1288              		.cfi_startproc
 1289              		@ args = 0, pretend = 0, frame = 0
 1290              		@ frame_needed = 0, uses_anonymous_args = 0
 1291              	.LVL109:
 1292              		.loc 1 931 0
 1293 0000 026A     		ldr	r2, [r0, #32]
 1294 0002 4EF6FF73 		movw	r3, #61439
 1295 0006 1340     		ands	r3, r3, r2
 1296              		.loc 1 921 0
 1297 0008 F0B5     		push	{r4, r5, r6, r7, lr}
 1298              		.cfi_def_cfa_offset 20
 1299              		.cfi_offset 4, -20
 1300              		.cfi_offset 5, -16
 1301              		.cfi_offset 6, -12
 1302              		.cfi_offset 7, -8
 1303              		.cfi_offset 14, -4
 1304              		.loc 1 931 0
 1305 000a 0362     		str	r3, [r0, #32]
 1306              		.loc 1 954 0
 1307 000c 4A88     		ldrh	r2, [r1, #2]
 1308 000e 8D89     		ldrh	r5, [r1, #12]
 1309              		.loc 1 934 0
 1310 0010 D0F820E0 		ldr	lr, [r0, #32]
 1311              	.LVL110:
ARM GAS  /var/folders/m4/4md61f0s1_g0rzfghffqnxvr0000gn/T//ccSRVwbo.s 			page 24


 1312              		.loc 1 936 0
 1313 0014 4468     		ldr	r4, [r0, #4]
 1314              		.loc 1 939 0
 1315 0016 C769     		ldr	r7, [r0, #28]
 1316              		.loc 1 956 0
 1317 0018 114E     		ldr	r6, .L97
 1318              		.loc 1 954 0
 1319 001a 1543     		orrs	r5, r5, r2
 1320              		.loc 1 943 0
 1321 001c 48F6FF42 		movw	r2, #36095
 1322 0020 3A40     		ands	r2, r2, r7
 1323              		.loc 1 949 0
 1324 0022 4DF6FF73 		movw	r3, #57343
 1325              		.loc 1 946 0
 1326 0026 0F88     		ldrh	r7, [r1]
 1327              		.loc 1 949 0
 1328 0028 0EEA0303 		and	r3, lr, r3
 1329              		.loc 1 954 0
 1330 002c 43EA0533 		orr	r3, r3, r5, lsl #12
 1331              		.loc 1 946 0
 1332 0030 42EA0722 		orr	r2, r2, r7, lsl #8
 1333              		.loc 1 956 0
 1334 0034 B042     		cmp	r0, r6
 1335              		.loc 1 954 0
 1336 0036 9BB2     		uxth	r3, r3
 1337              		.loc 1 936 0
 1338 0038 A4B2     		uxth	r4, r4
 1339              	.LVL111:
 1340              		.loc 1 946 0
 1341 003a 92B2     		uxth	r2, r2
 1342              	.LVL112:
 1343              		.loc 1 956 0
 1344 003c 08D0     		beq	.L94
 1345              		.loc 1 956 0 is_stmt 0 discriminator 1
 1346 003e 094D     		ldr	r5, .L97+4
 1347 0040 A842     		cmp	r0, r5
 1348 0042 05D0     		beq	.L94
 1349              	.L95:
 1350              		.loc 1 971 0 is_stmt 1
 1351 0044 8968     		ldr	r1, [r1, #8]
 1352              	.LVL113:
 1353              		.loc 1 965 0
 1354 0046 4460     		str	r4, [r0, #4]
 1355              		.loc 1 968 0
 1356 0048 C261     		str	r2, [r0, #28]
 1357              		.loc 1 971 0
 1358 004a 0164     		str	r1, [r0, #64]
 1359              		.loc 1 974 0
 1360 004c 0362     		str	r3, [r0, #32]
 1361 004e F0BD     		pop	{r4, r5, r6, r7, pc}
 1362              	.LVL114:
 1363              	.L94:
 1364              		.loc 1 962 0
 1365 0050 0D8A     		ldrh	r5, [r1, #16]
 1366              		.loc 1 960 0
 1367 0052 24F48044 		bic	r4, r4, #16384
 1368              	.LVL115:
ARM GAS  /var/folders/m4/4md61f0s1_g0rzfghffqnxvr0000gn/T//ccSRVwbo.s 			page 25


 1369              		.loc 1 962 0
 1370 0056 44EA8514 		orr	r4, r4, r5, lsl #6
 1371              	.LVL116:
 1372 005a A4B2     		uxth	r4, r4
 1373              	.LVL117:
 1374 005c F2E7     		b	.L95
 1375              	.L98:
 1376 005e 00BF     		.align	2
 1377              	.L97:
 1378 0060 00000140 		.word	1073807360
 1379 0064 00040140 		.word	1073808384
 1380              		.cfi_endproc
 1381              	.LFE141:
 1382              		.size	TIM_OC4Init, .-TIM_OC4Init
 1383              		.section	.text.TIM_OCStructInit,"ax",%progbits
 1384              		.align	2
 1385              		.p2align 4,,15
 1386              		.global	TIM_OCStructInit
 1387              		.thumb
 1388              		.thumb_func
 1389              		.type	TIM_OCStructInit, %function
 1390              	TIM_OCStructInit:
 1391              	.LFB142:
 1392              		.loc 1 984 0
 1393              		.cfi_startproc
 1394              		@ args = 0, pretend = 0, frame = 0
 1395              		@ frame_needed = 0, uses_anonymous_args = 0
 1396              		@ link register save eliminated.
 1397              	.LVL118:
 1398              		.loc 1 986 0
 1399 0000 0023     		movs	r3, #0
 1400 0002 0380     		strh	r3, [r0]	@ movhi
 1401              		.loc 1 987 0
 1402 0004 4380     		strh	r3, [r0, #2]	@ movhi
 1403              		.loc 1 988 0
 1404 0006 8380     		strh	r3, [r0, #4]	@ movhi
 1405              		.loc 1 989 0
 1406 0008 8360     		str	r3, [r0, #8]
 1407              		.loc 1 990 0
 1408 000a 8381     		strh	r3, [r0, #12]	@ movhi
 1409              		.loc 1 991 0
 1410 000c C381     		strh	r3, [r0, #14]	@ movhi
 1411              		.loc 1 992 0
 1412 000e 0382     		strh	r3, [r0, #16]	@ movhi
 1413              		.loc 1 993 0
 1414 0010 4382     		strh	r3, [r0, #18]	@ movhi
 1415 0012 7047     		bx	lr
 1416              		.cfi_endproc
 1417              	.LFE142:
 1418              		.size	TIM_OCStructInit, .-TIM_OCStructInit
 1419              		.section	.text.TIM_SelectOCxM,"ax",%progbits
 1420              		.align	2
 1421              		.p2align 4,,15
 1422              		.global	TIM_SelectOCxM
 1423              		.thumb
 1424              		.thumb_func
 1425              		.type	TIM_SelectOCxM, %function
ARM GAS  /var/folders/m4/4md61f0s1_g0rzfghffqnxvr0000gn/T//ccSRVwbo.s 			page 26


 1426              	TIM_SelectOCxM:
 1427              	.LFB143:
 1428              		.loc 1 1020 0
 1429              		.cfi_startproc
 1430              		@ args = 0, pretend = 0, frame = 0
 1431              		@ frame_needed = 0, uses_anonymous_args = 0
 1432              		@ link register save eliminated.
 1433              	.LVL119:
 1434              		.loc 1 1035 0
 1435 0000 0123     		movs	r3, #1
 1436 0002 8B40     		lsls	r3, r3, r1
 1437              		.loc 1 1020 0
 1438 0004 10B4     		push	{r4}
 1439              		.cfi_def_cfa_offset 4
 1440              		.cfi_offset 4, -4
 1441              		.loc 1 1035 0
 1442 0006 DB43     		mvns	r3, r3
 1443 0008 046A     		ldr	r4, [r0, #32]
 1444 000a 9BB2     		uxth	r3, r3
 1445 000c 2340     		ands	r3, r3, r4
 1446              		.loc 1 1037 0
 1447 000e 21F00804 		bic	r4, r1, #8
 1448              		.loc 1 1035 0
 1449 0012 0362     		str	r3, [r0, #32]
 1450              		.loc 1 1030 0
 1451 0014 1830     		adds	r0, r0, #24
 1452              	.LVL120:
 1453              		.loc 1 1037 0
 1454 0016 7CB1     		cbz	r4, .L104
 1455              	.LVL121:
 1456              		.loc 1 1052 0
 1457 0018 0439     		subs	r1, r1, #4
 1458              	.LVL122:
 1459 001a C1F34E01 		ubfx	r1, r1, #1, #15
 1460 001e 48F6FF73 		movw	r3, #36863
 1461 0022 0C58     		ldr	r4, [r1, r0]
 1462 0024 2340     		ands	r3, r3, r4
 1463 0026 0B50     		str	r3, [r1, r0]
 1464              		.loc 1 1055 0
 1465 0028 1202     		lsls	r2, r2, #8
 1466              	.LVL123:
 1467 002a 0B58     		ldr	r3, [r1, r0]
 1468              		.loc 1 1057 0
 1469 002c 5DF8044B 		ldr	r4, [sp], #4
 1470              		.cfi_remember_state
 1471              		.cfi_restore 4
 1472              		.cfi_def_cfa_offset 0
 1473              		.loc 1 1055 0
 1474 0030 92B2     		uxth	r2, r2
 1475 0032 1A43     		orrs	r2, r2, r3
 1476 0034 0A50     		str	r2, [r1, r0]
 1477              		.loc 1 1057 0
 1478 0036 7047     		bx	lr
 1479              	.LVL124:
 1480              	.L104:
 1481              		.cfi_restore_state
 1482              		.loc 1 1042 0
ARM GAS  /var/folders/m4/4md61f0s1_g0rzfghffqnxvr0000gn/T//ccSRVwbo.s 			page 27


 1483 0038 4908     		lsrs	r1, r1, #1
 1484              	.LVL125:
 1485 003a 4FF68F73 		movw	r3, #65423
 1486 003e 0C58     		ldr	r4, [r1, r0]
 1487 0040 2340     		ands	r3, r3, r4
 1488 0042 0B50     		str	r3, [r1, r0]
 1489              		.loc 1 1045 0
 1490 0044 0B58     		ldr	r3, [r1, r0]
 1491              		.loc 1 1057 0
 1492 0046 5DF8044B 		ldr	r4, [sp], #4
 1493              		.cfi_restore 4
 1494              		.cfi_def_cfa_offset 0
 1495              		.loc 1 1045 0
 1496 004a 1A43     		orrs	r2, r2, r3
 1497              	.LVL126:
 1498 004c 0A50     		str	r2, [r1, r0]
 1499              		.loc 1 1057 0
 1500 004e 7047     		bx	lr
 1501              		.cfi_endproc
 1502              	.LFE143:
 1503              		.size	TIM_SelectOCxM, .-TIM_SelectOCxM
 1504              		.section	.text.TIM_SetCompare1,"ax",%progbits
 1505              		.align	2
 1506              		.p2align 4,,15
 1507              		.global	TIM_SetCompare1
 1508              		.thumb
 1509              		.thumb_func
 1510              		.type	TIM_SetCompare1, %function
 1511              	TIM_SetCompare1:
 1512              	.LFB144:
 1513              		.loc 1 1066 0
 1514              		.cfi_startproc
 1515              		@ args = 0, pretend = 0, frame = 0
 1516              		@ frame_needed = 0, uses_anonymous_args = 0
 1517              		@ link register save eliminated.
 1518              	.LVL127:
 1519              		.loc 1 1071 0
 1520 0000 4163     		str	r1, [r0, #52]
 1521 0002 7047     		bx	lr
 1522              		.cfi_endproc
 1523              	.LFE144:
 1524              		.size	TIM_SetCompare1, .-TIM_SetCompare1
 1525              		.section	.text.TIM_SetCompare2,"ax",%progbits
 1526              		.align	2
 1527              		.p2align 4,,15
 1528              		.global	TIM_SetCompare2
 1529              		.thumb
 1530              		.thumb_func
 1531              		.type	TIM_SetCompare2, %function
 1532              	TIM_SetCompare2:
 1533              	.LFB145:
 1534              		.loc 1 1082 0
 1535              		.cfi_startproc
 1536              		@ args = 0, pretend = 0, frame = 0
 1537              		@ frame_needed = 0, uses_anonymous_args = 0
 1538              		@ link register save eliminated.
 1539              	.LVL128:
ARM GAS  /var/folders/m4/4md61f0s1_g0rzfghffqnxvr0000gn/T//ccSRVwbo.s 			page 28


 1540              		.loc 1 1087 0
 1541 0000 8163     		str	r1, [r0, #56]
 1542 0002 7047     		bx	lr
 1543              		.cfi_endproc
 1544              	.LFE145:
 1545              		.size	TIM_SetCompare2, .-TIM_SetCompare2
 1546              		.section	.text.TIM_SetCompare3,"ax",%progbits
 1547              		.align	2
 1548              		.p2align 4,,15
 1549              		.global	TIM_SetCompare3
 1550              		.thumb
 1551              		.thumb_func
 1552              		.type	TIM_SetCompare3, %function
 1553              	TIM_SetCompare3:
 1554              	.LFB146:
 1555              		.loc 1 1097 0
 1556              		.cfi_startproc
 1557              		@ args = 0, pretend = 0, frame = 0
 1558              		@ frame_needed = 0, uses_anonymous_args = 0
 1559              		@ link register save eliminated.
 1560              	.LVL129:
 1561              		.loc 1 1102 0
 1562 0000 C163     		str	r1, [r0, #60]
 1563 0002 7047     		bx	lr
 1564              		.cfi_endproc
 1565              	.LFE146:
 1566              		.size	TIM_SetCompare3, .-TIM_SetCompare3
 1567              		.section	.text.TIM_SetCompare4,"ax",%progbits
 1568              		.align	2
 1569              		.p2align 4,,15
 1570              		.global	TIM_SetCompare4
 1571              		.thumb
 1572              		.thumb_func
 1573              		.type	TIM_SetCompare4, %function
 1574              	TIM_SetCompare4:
 1575              	.LFB147:
 1576              		.loc 1 1112 0
 1577              		.cfi_startproc
 1578              		@ args = 0, pretend = 0, frame = 0
 1579              		@ frame_needed = 0, uses_anonymous_args = 0
 1580              		@ link register save eliminated.
 1581              	.LVL130:
 1582              		.loc 1 1117 0
 1583 0000 0164     		str	r1, [r0, #64]
 1584 0002 7047     		bx	lr
 1585              		.cfi_endproc
 1586              	.LFE147:
 1587              		.size	TIM_SetCompare4, .-TIM_SetCompare4
 1588              		.section	.text.TIM_ForcedOC1Config,"ax",%progbits
 1589              		.align	2
 1590              		.p2align 4,,15
 1591              		.global	TIM_ForcedOC1Config
 1592              		.thumb
 1593              		.thumb_func
 1594              		.type	TIM_ForcedOC1Config, %function
 1595              	TIM_ForcedOC1Config:
 1596              	.LFB148:
ARM GAS  /var/folders/m4/4md61f0s1_g0rzfghffqnxvr0000gn/T//ccSRVwbo.s 			page 29


 1597              		.loc 1 1130 0
 1598              		.cfi_startproc
 1599              		@ args = 0, pretend = 0, frame = 0
 1600              		@ frame_needed = 0, uses_anonymous_args = 0
 1601              		@ link register save eliminated.
 1602              	.LVL131:
 1603              		.loc 1 1136 0
 1604 0000 8269     		ldr	r2, [r0, #24]
 1605              	.LVL132:
 1606              		.loc 1 1139 0
 1607 0002 4FF68F73 		movw	r3, #65423
 1608 0006 1340     		ands	r3, r3, r2
 1609              	.LVL133:
 1610              		.loc 1 1145 0
 1611 0008 1943     		orrs	r1, r1, r3
 1612              	.LVL134:
 1613 000a 8161     		str	r1, [r0, #24]
 1614 000c 7047     		bx	lr
 1615              		.cfi_endproc
 1616              	.LFE148:
 1617              		.size	TIM_ForcedOC1Config, .-TIM_ForcedOC1Config
 1618 000e 00BF     		.section	.text.TIM_ForcedOC2Config,"ax",%progbits
 1619              		.align	2
 1620              		.p2align 4,,15
 1621              		.global	TIM_ForcedOC2Config
 1622              		.thumb
 1623              		.thumb_func
 1624              		.type	TIM_ForcedOC2Config, %function
 1625              	TIM_ForcedOC2Config:
 1626              	.LFB149:
 1627              		.loc 1 1159 0
 1628              		.cfi_startproc
 1629              		@ args = 0, pretend = 0, frame = 0
 1630              		@ frame_needed = 0, uses_anonymous_args = 0
 1631              		@ link register save eliminated.
 1632              	.LVL135:
 1633              		.loc 1 1165 0
 1634 0000 8269     		ldr	r2, [r0, #24]
 1635              	.LVL136:
 1636              		.loc 1 1168 0
 1637 0002 48F6FF73 		movw	r3, #36863
 1638 0006 1340     		ands	r3, r3, r2
 1639              	.LVL137:
 1640              		.loc 1 1174 0
 1641 0008 43EA0121 		orr	r1, r3, r1, lsl #8
 1642              	.LVL138:
 1643 000c 89B2     		uxth	r1, r1
 1644 000e 8161     		str	r1, [r0, #24]
 1645 0010 7047     		bx	lr
 1646              		.cfi_endproc
 1647              	.LFE149:
 1648              		.size	TIM_ForcedOC2Config, .-TIM_ForcedOC2Config
 1649 0012 00BF     		.section	.text.TIM_ForcedOC3Config,"ax",%progbits
 1650              		.align	2
 1651              		.p2align 4,,15
 1652              		.global	TIM_ForcedOC3Config
 1653              		.thumb
ARM GAS  /var/folders/m4/4md61f0s1_g0rzfghffqnxvr0000gn/T//ccSRVwbo.s 			page 30


 1654              		.thumb_func
 1655              		.type	TIM_ForcedOC3Config, %function
 1656              	TIM_ForcedOC3Config:
 1657              	.LFB150:
 1658              		.loc 1 1187 0
 1659              		.cfi_startproc
 1660              		@ args = 0, pretend = 0, frame = 0
 1661              		@ frame_needed = 0, uses_anonymous_args = 0
 1662              		@ link register save eliminated.
 1663              	.LVL139:
 1664              		.loc 1 1194 0
 1665 0000 C269     		ldr	r2, [r0, #28]
 1666              	.LVL140:
 1667              		.loc 1 1197 0
 1668 0002 4FF68F73 		movw	r3, #65423
 1669 0006 1340     		ands	r3, r3, r2
 1670              	.LVL141:
 1671              		.loc 1 1203 0
 1672 0008 1943     		orrs	r1, r1, r3
 1673              	.LVL142:
 1674 000a C161     		str	r1, [r0, #28]
 1675 000c 7047     		bx	lr
 1676              		.cfi_endproc
 1677              	.LFE150:
 1678              		.size	TIM_ForcedOC3Config, .-TIM_ForcedOC3Config
 1679 000e 00BF     		.section	.text.TIM_ForcedOC4Config,"ax",%progbits
 1680              		.align	2
 1681              		.p2align 4,,15
 1682              		.global	TIM_ForcedOC4Config
 1683              		.thumb
 1684              		.thumb_func
 1685              		.type	TIM_ForcedOC4Config, %function
 1686              	TIM_ForcedOC4Config:
 1687              	.LFB151:
 1688              		.loc 1 1216 0
 1689              		.cfi_startproc
 1690              		@ args = 0, pretend = 0, frame = 0
 1691              		@ frame_needed = 0, uses_anonymous_args = 0
 1692              		@ link register save eliminated.
 1693              	.LVL143:
 1694              		.loc 1 1222 0
 1695 0000 C269     		ldr	r2, [r0, #28]
 1696              	.LVL144:
 1697              		.loc 1 1225 0
 1698 0002 48F6FF73 		movw	r3, #36863
 1699 0006 1340     		ands	r3, r3, r2
 1700              	.LVL145:
 1701              		.loc 1 1231 0
 1702 0008 43EA0121 		orr	r1, r3, r1, lsl #8
 1703              	.LVL146:
 1704 000c 89B2     		uxth	r1, r1
 1705 000e C161     		str	r1, [r0, #28]
 1706 0010 7047     		bx	lr
 1707              		.cfi_endproc
 1708              	.LFE151:
 1709              		.size	TIM_ForcedOC4Config, .-TIM_ForcedOC4Config
 1710 0012 00BF     		.section	.text.TIM_OC1PreloadConfig,"ax",%progbits
ARM GAS  /var/folders/m4/4md61f0s1_g0rzfghffqnxvr0000gn/T//ccSRVwbo.s 			page 31


 1711              		.align	2
 1712              		.p2align 4,,15
 1713              		.global	TIM_OC1PreloadConfig
 1714              		.thumb
 1715              		.thumb_func
 1716              		.type	TIM_OC1PreloadConfig, %function
 1717              	TIM_OC1PreloadConfig:
 1718              	.LFB152:
 1719              		.loc 1 1244 0
 1720              		.cfi_startproc
 1721              		@ args = 0, pretend = 0, frame = 0
 1722              		@ frame_needed = 0, uses_anonymous_args = 0
 1723              		@ link register save eliminated.
 1724              	.LVL147:
 1725              		.loc 1 1251 0
 1726 0000 8269     		ldr	r2, [r0, #24]
 1727              	.LVL148:
 1728              		.loc 1 1254 0
 1729 0002 4FF6F773 		movw	r3, #65527
 1730 0006 1340     		ands	r3, r3, r2
 1731              	.LVL149:
 1732              		.loc 1 1260 0
 1733 0008 1943     		orrs	r1, r1, r3
 1734              	.LVL150:
 1735 000a 8161     		str	r1, [r0, #24]
 1736 000c 7047     		bx	lr
 1737              		.cfi_endproc
 1738              	.LFE152:
 1739              		.size	TIM_OC1PreloadConfig, .-TIM_OC1PreloadConfig
 1740 000e 00BF     		.section	.text.TIM_OC2PreloadConfig,"ax",%progbits
 1741              		.align	2
 1742              		.p2align 4,,15
 1743              		.global	TIM_OC2PreloadConfig
 1744              		.thumb
 1745              		.thumb_func
 1746              		.type	TIM_OC2PreloadConfig, %function
 1747              	TIM_OC2PreloadConfig:
 1748              	.LFB153:
 1749              		.loc 1 1274 0
 1750              		.cfi_startproc
 1751              		@ args = 0, pretend = 0, frame = 0
 1752              		@ frame_needed = 0, uses_anonymous_args = 0
 1753              		@ link register save eliminated.
 1754              	.LVL151:
 1755              		.loc 1 1281 0
 1756 0000 8269     		ldr	r2, [r0, #24]
 1757              	.LVL152:
 1758              		.loc 1 1284 0
 1759 0002 4FF2FF73 		movw	r3, #63487
 1760 0006 1340     		ands	r3, r3, r2
 1761              	.LVL153:
 1762              		.loc 1 1290 0
 1763 0008 43EA0121 		orr	r1, r3, r1, lsl #8
 1764              	.LVL154:
 1765 000c 89B2     		uxth	r1, r1
 1766 000e 8161     		str	r1, [r0, #24]
 1767 0010 7047     		bx	lr
ARM GAS  /var/folders/m4/4md61f0s1_g0rzfghffqnxvr0000gn/T//ccSRVwbo.s 			page 32


 1768              		.cfi_endproc
 1769              	.LFE153:
 1770              		.size	TIM_OC2PreloadConfig, .-TIM_OC2PreloadConfig
 1771 0012 00BF     		.section	.text.TIM_OC3PreloadConfig,"ax",%progbits
 1772              		.align	2
 1773              		.p2align 4,,15
 1774              		.global	TIM_OC3PreloadConfig
 1775              		.thumb
 1776              		.thumb_func
 1777              		.type	TIM_OC3PreloadConfig, %function
 1778              	TIM_OC3PreloadConfig:
 1779              	.LFB154:
 1780              		.loc 1 1303 0
 1781              		.cfi_startproc
 1782              		@ args = 0, pretend = 0, frame = 0
 1783              		@ frame_needed = 0, uses_anonymous_args = 0
 1784              		@ link register save eliminated.
 1785              	.LVL155:
 1786              		.loc 1 1310 0
 1787 0000 C269     		ldr	r2, [r0, #28]
 1788              	.LVL156:
 1789              		.loc 1 1313 0
 1790 0002 4FF6F773 		movw	r3, #65527
 1791 0006 1340     		ands	r3, r3, r2
 1792              	.LVL157:
 1793              		.loc 1 1319 0
 1794 0008 1943     		orrs	r1, r1, r3
 1795              	.LVL158:
 1796 000a C161     		str	r1, [r0, #28]
 1797 000c 7047     		bx	lr
 1798              		.cfi_endproc
 1799              	.LFE154:
 1800              		.size	TIM_OC3PreloadConfig, .-TIM_OC3PreloadConfig
 1801 000e 00BF     		.section	.text.TIM_OC4PreloadConfig,"ax",%progbits
 1802              		.align	2
 1803              		.p2align 4,,15
 1804              		.global	TIM_OC4PreloadConfig
 1805              		.thumb
 1806              		.thumb_func
 1807              		.type	TIM_OC4PreloadConfig, %function
 1808              	TIM_OC4PreloadConfig:
 1809              	.LFB155:
 1810              		.loc 1 1332 0
 1811              		.cfi_startproc
 1812              		@ args = 0, pretend = 0, frame = 0
 1813              		@ frame_needed = 0, uses_anonymous_args = 0
 1814              		@ link register save eliminated.
 1815              	.LVL159:
 1816              		.loc 1 1339 0
 1817 0000 C269     		ldr	r2, [r0, #28]
 1818              	.LVL160:
 1819              		.loc 1 1342 0
 1820 0002 4FF2FF73 		movw	r3, #63487
 1821 0006 1340     		ands	r3, r3, r2
 1822              	.LVL161:
 1823              		.loc 1 1348 0
 1824 0008 43EA0121 		orr	r1, r3, r1, lsl #8
ARM GAS  /var/folders/m4/4md61f0s1_g0rzfghffqnxvr0000gn/T//ccSRVwbo.s 			page 33


 1825              	.LVL162:
 1826 000c 89B2     		uxth	r1, r1
 1827 000e C161     		str	r1, [r0, #28]
 1828 0010 7047     		bx	lr
 1829              		.cfi_endproc
 1830              	.LFE155:
 1831              		.size	TIM_OC4PreloadConfig, .-TIM_OC4PreloadConfig
 1832 0012 00BF     		.section	.text.TIM_OC1FastConfig,"ax",%progbits
 1833              		.align	2
 1834              		.p2align 4,,15
 1835              		.global	TIM_OC1FastConfig
 1836              		.thumb
 1837              		.thumb_func
 1838              		.type	TIM_OC1FastConfig, %function
 1839              	TIM_OC1FastConfig:
 1840              	.LFB156:
 1841              		.loc 1 1361 0
 1842              		.cfi_startproc
 1843              		@ args = 0, pretend = 0, frame = 0
 1844              		@ frame_needed = 0, uses_anonymous_args = 0
 1845              		@ link register save eliminated.
 1846              	.LVL163:
 1847              		.loc 1 1369 0
 1848 0000 8269     		ldr	r2, [r0, #24]
 1849              	.LVL164:
 1850              		.loc 1 1372 0
 1851 0002 4FF6FB73 		movw	r3, #65531
 1852 0006 1340     		ands	r3, r3, r2
 1853              	.LVL165:
 1854              		.loc 1 1378 0
 1855 0008 1943     		orrs	r1, r1, r3
 1856              	.LVL166:
 1857 000a 8161     		str	r1, [r0, #24]
 1858 000c 7047     		bx	lr
 1859              		.cfi_endproc
 1860              	.LFE156:
 1861              		.size	TIM_OC1FastConfig, .-TIM_OC1FastConfig
 1862 000e 00BF     		.section	.text.TIM_OC2FastConfig,"ax",%progbits
 1863              		.align	2
 1864              		.p2align 4,,15
 1865              		.global	TIM_OC2FastConfig
 1866              		.thumb
 1867              		.thumb_func
 1868              		.type	TIM_OC2FastConfig, %function
 1869              	TIM_OC2FastConfig:
 1870              	.LFB157:
 1871              		.loc 1 1392 0
 1872              		.cfi_startproc
 1873              		@ args = 0, pretend = 0, frame = 0
 1874              		@ frame_needed = 0, uses_anonymous_args = 0
 1875              		@ link register save eliminated.
 1876              	.LVL167:
 1877              		.loc 1 1400 0
 1878 0000 8269     		ldr	r2, [r0, #24]
 1879              	.LVL168:
 1880              		.loc 1 1403 0
 1881 0002 4FF6FF33 		movw	r3, #64511
ARM GAS  /var/folders/m4/4md61f0s1_g0rzfghffqnxvr0000gn/T//ccSRVwbo.s 			page 34


 1882 0006 1340     		ands	r3, r3, r2
 1883              	.LVL169:
 1884              		.loc 1 1409 0
 1885 0008 43EA0121 		orr	r1, r3, r1, lsl #8
 1886              	.LVL170:
 1887 000c 89B2     		uxth	r1, r1
 1888 000e 8161     		str	r1, [r0, #24]
 1889 0010 7047     		bx	lr
 1890              		.cfi_endproc
 1891              	.LFE157:
 1892              		.size	TIM_OC2FastConfig, .-TIM_OC2FastConfig
 1893 0012 00BF     		.section	.text.TIM_OC3FastConfig,"ax",%progbits
 1894              		.align	2
 1895              		.p2align 4,,15
 1896              		.global	TIM_OC3FastConfig
 1897              		.thumb
 1898              		.thumb_func
 1899              		.type	TIM_OC3FastConfig, %function
 1900              	TIM_OC3FastConfig:
 1901              	.LFB158:
 1902              		.loc 1 1422 0
 1903              		.cfi_startproc
 1904              		@ args = 0, pretend = 0, frame = 0
 1905              		@ frame_needed = 0, uses_anonymous_args = 0
 1906              		@ link register save eliminated.
 1907              	.LVL171:
 1908              		.loc 1 1430 0
 1909 0000 C269     		ldr	r2, [r0, #28]
 1910              	.LVL172:
 1911              		.loc 1 1433 0
 1912 0002 4FF6FB73 		movw	r3, #65531
 1913 0006 1340     		ands	r3, r3, r2
 1914              	.LVL173:
 1915              		.loc 1 1439 0
 1916 0008 1943     		orrs	r1, r1, r3
 1917              	.LVL174:
 1918 000a C161     		str	r1, [r0, #28]
 1919 000c 7047     		bx	lr
 1920              		.cfi_endproc
 1921              	.LFE158:
 1922              		.size	TIM_OC3FastConfig, .-TIM_OC3FastConfig
 1923 000e 00BF     		.section	.text.TIM_OC4FastConfig,"ax",%progbits
 1924              		.align	2
 1925              		.p2align 4,,15
 1926              		.global	TIM_OC4FastConfig
 1927              		.thumb
 1928              		.thumb_func
 1929              		.type	TIM_OC4FastConfig, %function
 1930              	TIM_OC4FastConfig:
 1931              	.LFB159:
 1932              		.loc 1 1452 0
 1933              		.cfi_startproc
 1934              		@ args = 0, pretend = 0, frame = 0
 1935              		@ frame_needed = 0, uses_anonymous_args = 0
 1936              		@ link register save eliminated.
 1937              	.LVL175:
 1938              		.loc 1 1460 0
ARM GAS  /var/folders/m4/4md61f0s1_g0rzfghffqnxvr0000gn/T//ccSRVwbo.s 			page 35


 1939 0000 C269     		ldr	r2, [r0, #28]
 1940              	.LVL176:
 1941              		.loc 1 1463 0
 1942 0002 4FF6FF33 		movw	r3, #64511
 1943 0006 1340     		ands	r3, r3, r2
 1944              	.LVL177:
 1945              		.loc 1 1469 0
 1946 0008 43EA0121 		orr	r1, r3, r1, lsl #8
 1947              	.LVL178:
 1948 000c 89B2     		uxth	r1, r1
 1949 000e C161     		str	r1, [r0, #28]
 1950 0010 7047     		bx	lr
 1951              		.cfi_endproc
 1952              	.LFE159:
 1953              		.size	TIM_OC4FastConfig, .-TIM_OC4FastConfig
 1954 0012 00BF     		.section	.text.TIM_ClearOC1Ref,"ax",%progbits
 1955              		.align	2
 1956              		.p2align 4,,15
 1957              		.global	TIM_ClearOC1Ref
 1958              		.thumb
 1959              		.thumb_func
 1960              		.type	TIM_ClearOC1Ref, %function
 1961              	TIM_ClearOC1Ref:
 1962              	.LFB160:
 1963              		.loc 1 1482 0
 1964              		.cfi_startproc
 1965              		@ args = 0, pretend = 0, frame = 0
 1966              		@ frame_needed = 0, uses_anonymous_args = 0
 1967              		@ link register save eliminated.
 1968              	.LVL179:
 1969              		.loc 1 1489 0
 1970 0000 8269     		ldr	r2, [r0, #24]
 1971              	.LVL180:
 1972              		.loc 1 1492 0
 1973 0002 4FF67F73 		movw	r3, #65407
 1974 0006 1340     		ands	r3, r3, r2
 1975              	.LVL181:
 1976              		.loc 1 1498 0
 1977 0008 1943     		orrs	r1, r1, r3
 1978              	.LVL182:
 1979 000a 8161     		str	r1, [r0, #24]
 1980 000c 7047     		bx	lr
 1981              		.cfi_endproc
 1982              	.LFE160:
 1983              		.size	TIM_ClearOC1Ref, .-TIM_ClearOC1Ref
 1984 000e 00BF     		.section	.text.TIM_ClearOC2Ref,"ax",%progbits
 1985              		.align	2
 1986              		.p2align 4,,15
 1987              		.global	TIM_ClearOC2Ref
 1988              		.thumb
 1989              		.thumb_func
 1990              		.type	TIM_ClearOC2Ref, %function
 1991              	TIM_ClearOC2Ref:
 1992              	.LFB161:
 1993              		.loc 1 1512 0
 1994              		.cfi_startproc
 1995              		@ args = 0, pretend = 0, frame = 0
ARM GAS  /var/folders/m4/4md61f0s1_g0rzfghffqnxvr0000gn/T//ccSRVwbo.s 			page 36


 1996              		@ frame_needed = 0, uses_anonymous_args = 0
 1997              		@ link register save eliminated.
 1998              	.LVL183:
 1999              		.loc 1 1519 0
 2000 0000 8369     		ldr	r3, [r0, #24]
 2001              	.LVL184:
 2002              		.loc 1 1522 0
 2003 0002 C3F30E03 		ubfx	r3, r3, #0, #15
 2004              	.LVL185:
 2005              		.loc 1 1528 0
 2006 0006 43EA0121 		orr	r1, r3, r1, lsl #8
 2007              	.LVL186:
 2008 000a 89B2     		uxth	r1, r1
 2009 000c 8161     		str	r1, [r0, #24]
 2010 000e 7047     		bx	lr
 2011              		.cfi_endproc
 2012              	.LFE161:
 2013              		.size	TIM_ClearOC2Ref, .-TIM_ClearOC2Ref
 2014              		.section	.text.TIM_ClearOC3Ref,"ax",%progbits
 2015              		.align	2
 2016              		.p2align 4,,15
 2017              		.global	TIM_ClearOC3Ref
 2018              		.thumb
 2019              		.thumb_func
 2020              		.type	TIM_ClearOC3Ref, %function
 2021              	TIM_ClearOC3Ref:
 2022              	.LFB162:
 2023              		.loc 1 1541 0
 2024              		.cfi_startproc
 2025              		@ args = 0, pretend = 0, frame = 0
 2026              		@ frame_needed = 0, uses_anonymous_args = 0
 2027              		@ link register save eliminated.
 2028              	.LVL187:
 2029              		.loc 1 1548 0
 2030 0000 C269     		ldr	r2, [r0, #28]
 2031              	.LVL188:
 2032              		.loc 1 1551 0
 2033 0002 4FF67F73 		movw	r3, #65407
 2034 0006 1340     		ands	r3, r3, r2
 2035              	.LVL189:
 2036              		.loc 1 1557 0
 2037 0008 1943     		orrs	r1, r1, r3
 2038              	.LVL190:
 2039 000a C161     		str	r1, [r0, #28]
 2040 000c 7047     		bx	lr
 2041              		.cfi_endproc
 2042              	.LFE162:
 2043              		.size	TIM_ClearOC3Ref, .-TIM_ClearOC3Ref
 2044 000e 00BF     		.section	.text.TIM_ClearOC4Ref,"ax",%progbits
 2045              		.align	2
 2046              		.p2align 4,,15
 2047              		.global	TIM_ClearOC4Ref
 2048              		.thumb
 2049              		.thumb_func
 2050              		.type	TIM_ClearOC4Ref, %function
 2051              	TIM_ClearOC4Ref:
 2052              	.LFB163:
ARM GAS  /var/folders/m4/4md61f0s1_g0rzfghffqnxvr0000gn/T//ccSRVwbo.s 			page 37


 2053              		.loc 1 1570 0
 2054              		.cfi_startproc
 2055              		@ args = 0, pretend = 0, frame = 0
 2056              		@ frame_needed = 0, uses_anonymous_args = 0
 2057              		@ link register save eliminated.
 2058              	.LVL191:
 2059              		.loc 1 1577 0
 2060 0000 C369     		ldr	r3, [r0, #28]
 2061              	.LVL192:
 2062              		.loc 1 1580 0
 2063 0002 C3F30E03 		ubfx	r3, r3, #0, #15
 2064              	.LVL193:
 2065              		.loc 1 1586 0
 2066 0006 43EA0121 		orr	r1, r3, r1, lsl #8
 2067              	.LVL194:
 2068 000a 89B2     		uxth	r1, r1
 2069 000c C161     		str	r1, [r0, #28]
 2070 000e 7047     		bx	lr
 2071              		.cfi_endproc
 2072              	.LFE163:
 2073              		.size	TIM_ClearOC4Ref, .-TIM_ClearOC4Ref
 2074              		.section	.text.TIM_OC1PolarityConfig,"ax",%progbits
 2075              		.align	2
 2076              		.p2align 4,,15
 2077              		.global	TIM_OC1PolarityConfig
 2078              		.thumb
 2079              		.thumb_func
 2080              		.type	TIM_OC1PolarityConfig, %function
 2081              	TIM_OC1PolarityConfig:
 2082              	.LFB164:
 2083              		.loc 1 1599 0
 2084              		.cfi_startproc
 2085              		@ args = 0, pretend = 0, frame = 0
 2086              		@ frame_needed = 0, uses_anonymous_args = 0
 2087              		@ link register save eliminated.
 2088              	.LVL195:
 2089              		.loc 1 1606 0
 2090 0000 026A     		ldr	r2, [r0, #32]
 2091              	.LVL196:
 2092              		.loc 1 1609 0
 2093 0002 4FF6FD73 		movw	r3, #65533
 2094 0006 1340     		ands	r3, r3, r2
 2095              	.LVL197:
 2096              		.loc 1 1613 0
 2097 0008 1943     		orrs	r1, r1, r3
 2098              	.LVL198:
 2099 000a 0162     		str	r1, [r0, #32]
 2100 000c 7047     		bx	lr
 2101              		.cfi_endproc
 2102              	.LFE164:
 2103              		.size	TIM_OC1PolarityConfig, .-TIM_OC1PolarityConfig
 2104 000e 00BF     		.section	.text.TIM_OC1NPolarityConfig,"ax",%progbits
 2105              		.align	2
 2106              		.p2align 4,,15
 2107              		.global	TIM_OC1NPolarityConfig
 2108              		.thumb
 2109              		.thumb_func
ARM GAS  /var/folders/m4/4md61f0s1_g0rzfghffqnxvr0000gn/T//ccSRVwbo.s 			page 38


 2110              		.type	TIM_OC1NPolarityConfig, %function
 2111              	TIM_OC1NPolarityConfig:
 2112              	.LFB165:
 2113              		.loc 1 1626 0
 2114              		.cfi_startproc
 2115              		@ args = 0, pretend = 0, frame = 0
 2116              		@ frame_needed = 0, uses_anonymous_args = 0
 2117              		@ link register save eliminated.
 2118              	.LVL199:
 2119              		.loc 1 1632 0
 2120 0000 026A     		ldr	r2, [r0, #32]
 2121              	.LVL200:
 2122              		.loc 1 1635 0
 2123 0002 4FF6F773 		movw	r3, #65527
 2124 0006 1340     		ands	r3, r3, r2
 2125              	.LVL201:
 2126              		.loc 1 1639 0
 2127 0008 1943     		orrs	r1, r1, r3
 2128              	.LVL202:
 2129 000a 0162     		str	r1, [r0, #32]
 2130 000c 7047     		bx	lr
 2131              		.cfi_endproc
 2132              	.LFE165:
 2133              		.size	TIM_OC1NPolarityConfig, .-TIM_OC1NPolarityConfig
 2134 000e 00BF     		.section	.text.TIM_OC2PolarityConfig,"ax",%progbits
 2135              		.align	2
 2136              		.p2align 4,,15
 2137              		.global	TIM_OC2PolarityConfig
 2138              		.thumb
 2139              		.thumb_func
 2140              		.type	TIM_OC2PolarityConfig, %function
 2141              	TIM_OC2PolarityConfig:
 2142              	.LFB166:
 2143              		.loc 1 1653 0
 2144              		.cfi_startproc
 2145              		@ args = 0, pretend = 0, frame = 0
 2146              		@ frame_needed = 0, uses_anonymous_args = 0
 2147              		@ link register save eliminated.
 2148              	.LVL203:
 2149              		.loc 1 1660 0
 2150 0000 026A     		ldr	r2, [r0, #32]
 2151              	.LVL204:
 2152              		.loc 1 1663 0
 2153 0002 4FF6DF73 		movw	r3, #65503
 2154 0006 1340     		ands	r3, r3, r2
 2155              	.LVL205:
 2156              		.loc 1 1667 0
 2157 0008 43EA0111 		orr	r1, r3, r1, lsl #4
 2158              	.LVL206:
 2159 000c 89B2     		uxth	r1, r1
 2160 000e 0162     		str	r1, [r0, #32]
 2161 0010 7047     		bx	lr
 2162              		.cfi_endproc
 2163              	.LFE166:
 2164              		.size	TIM_OC2PolarityConfig, .-TIM_OC2PolarityConfig
 2165 0012 00BF     		.section	.text.TIM_OC2NPolarityConfig,"ax",%progbits
 2166              		.align	2
ARM GAS  /var/folders/m4/4md61f0s1_g0rzfghffqnxvr0000gn/T//ccSRVwbo.s 			page 39


 2167              		.p2align 4,,15
 2168              		.global	TIM_OC2NPolarityConfig
 2169              		.thumb
 2170              		.thumb_func
 2171              		.type	TIM_OC2NPolarityConfig, %function
 2172              	TIM_OC2NPolarityConfig:
 2173              	.LFB167:
 2174              		.loc 1 1680 0
 2175              		.cfi_startproc
 2176              		@ args = 0, pretend = 0, frame = 0
 2177              		@ frame_needed = 0, uses_anonymous_args = 0
 2178              		@ link register save eliminated.
 2179              	.LVL207:
 2180              		.loc 1 1687 0
 2181 0000 026A     		ldr	r2, [r0, #32]
 2182              	.LVL208:
 2183              		.loc 1 1690 0
 2184 0002 4FF67F73 		movw	r3, #65407
 2185 0006 1340     		ands	r3, r3, r2
 2186              	.LVL209:
 2187              		.loc 1 1694 0
 2188 0008 43EA0111 		orr	r1, r3, r1, lsl #4
 2189              	.LVL210:
 2190 000c 89B2     		uxth	r1, r1
 2191 000e 0162     		str	r1, [r0, #32]
 2192 0010 7047     		bx	lr
 2193              		.cfi_endproc
 2194              	.LFE167:
 2195              		.size	TIM_OC2NPolarityConfig, .-TIM_OC2NPolarityConfig
 2196 0012 00BF     		.section	.text.TIM_OC3PolarityConfig,"ax",%progbits
 2197              		.align	2
 2198              		.p2align 4,,15
 2199              		.global	TIM_OC3PolarityConfig
 2200              		.thumb
 2201              		.thumb_func
 2202              		.type	TIM_OC3PolarityConfig, %function
 2203              	TIM_OC3PolarityConfig:
 2204              	.LFB168:
 2205              		.loc 1 1707 0
 2206              		.cfi_startproc
 2207              		@ args = 0, pretend = 0, frame = 0
 2208              		@ frame_needed = 0, uses_anonymous_args = 0
 2209              		@ link register save eliminated.
 2210              	.LVL211:
 2211              		.loc 1 1714 0
 2212 0000 026A     		ldr	r2, [r0, #32]
 2213              	.LVL212:
 2214              		.loc 1 1717 0
 2215 0002 4FF6FF53 		movw	r3, #65023
 2216 0006 1340     		ands	r3, r3, r2
 2217              	.LVL213:
 2218              		.loc 1 1721 0
 2219 0008 43EA0121 		orr	r1, r3, r1, lsl #8
 2220              	.LVL214:
 2221 000c 89B2     		uxth	r1, r1
 2222 000e 0162     		str	r1, [r0, #32]
 2223 0010 7047     		bx	lr
ARM GAS  /var/folders/m4/4md61f0s1_g0rzfghffqnxvr0000gn/T//ccSRVwbo.s 			page 40


 2224              		.cfi_endproc
 2225              	.LFE168:
 2226              		.size	TIM_OC3PolarityConfig, .-TIM_OC3PolarityConfig
 2227 0012 00BF     		.section	.text.TIM_OC3NPolarityConfig,"ax",%progbits
 2228              		.align	2
 2229              		.p2align 4,,15
 2230              		.global	TIM_OC3NPolarityConfig
 2231              		.thumb
 2232              		.thumb_func
 2233              		.type	TIM_OC3NPolarityConfig, %function
 2234              	TIM_OC3NPolarityConfig:
 2235              	.LFB169:
 2236              		.loc 1 1734 0
 2237              		.cfi_startproc
 2238              		@ args = 0, pretend = 0, frame = 0
 2239              		@ frame_needed = 0, uses_anonymous_args = 0
 2240              		@ link register save eliminated.
 2241              	.LVL215:
 2242              		.loc 1 1741 0
 2243 0000 026A     		ldr	r2, [r0, #32]
 2244              	.LVL216:
 2245              		.loc 1 1744 0
 2246 0002 4FF2FF73 		movw	r3, #63487
 2247 0006 1340     		ands	r3, r3, r2
 2248              	.LVL217:
 2249              		.loc 1 1748 0
 2250 0008 43EA0121 		orr	r1, r3, r1, lsl #8
 2251              	.LVL218:
 2252 000c 89B2     		uxth	r1, r1
 2253 000e 0162     		str	r1, [r0, #32]
 2254 0010 7047     		bx	lr
 2255              		.cfi_endproc
 2256              	.LFE169:
 2257              		.size	TIM_OC3NPolarityConfig, .-TIM_OC3NPolarityConfig
 2258 0012 00BF     		.section	.text.TIM_OC4PolarityConfig,"ax",%progbits
 2259              		.align	2
 2260              		.p2align 4,,15
 2261              		.global	TIM_OC4PolarityConfig
 2262              		.thumb
 2263              		.thumb_func
 2264              		.type	TIM_OC4PolarityConfig, %function
 2265              	TIM_OC4PolarityConfig:
 2266              	.LFB170:
 2267              		.loc 1 1761 0
 2268              		.cfi_startproc
 2269              		@ args = 0, pretend = 0, frame = 0
 2270              		@ frame_needed = 0, uses_anonymous_args = 0
 2271              		@ link register save eliminated.
 2272              	.LVL219:
 2273              		.loc 1 1768 0
 2274 0000 026A     		ldr	r2, [r0, #32]
 2275              	.LVL220:
 2276              		.loc 1 1771 0
 2277 0002 4DF6FF73 		movw	r3, #57343
 2278 0006 1340     		ands	r3, r3, r2
 2279              	.LVL221:
 2280              		.loc 1 1775 0
ARM GAS  /var/folders/m4/4md61f0s1_g0rzfghffqnxvr0000gn/T//ccSRVwbo.s 			page 41


 2281 0008 43EA0131 		orr	r1, r3, r1, lsl #12
 2282              	.LVL222:
 2283 000c 89B2     		uxth	r1, r1
 2284 000e 0162     		str	r1, [r0, #32]
 2285 0010 7047     		bx	lr
 2286              		.cfi_endproc
 2287              	.LFE170:
 2288              		.size	TIM_OC4PolarityConfig, .-TIM_OC4PolarityConfig
 2289 0012 00BF     		.section	.text.TIM_CCxCmd,"ax",%progbits
 2290              		.align	2
 2291              		.p2align 4,,15
 2292              		.global	TIM_CCxCmd
 2293              		.thumb
 2294              		.thumb_func
 2295              		.type	TIM_CCxCmd, %function
 2296              	TIM_CCxCmd:
 2297              	.LFB171:
 2298              		.loc 1 1792 0
 2299              		.cfi_startproc
 2300              		@ args = 0, pretend = 0, frame = 0
 2301              		@ frame_needed = 0, uses_anonymous_args = 0
 2302              		@ link register save eliminated.
 2303              	.LVL223:
 2304              		.loc 1 1803 0
 2305 0000 0123     		movs	r3, #1
 2306 0002 8B40     		lsls	r3, r3, r1
 2307              		.loc 1 1792 0
 2308 0004 10B4     		push	{r4}
 2309              		.cfi_def_cfa_offset 4
 2310              		.cfi_offset 4, -4
 2311              		.loc 1 1803 0
 2312 0006 DB43     		mvns	r3, r3
 2313 0008 046A     		ldr	r4, [r0, #32]
 2314 000a 9BB2     		uxth	r3, r3
 2315 000c 2340     		ands	r3, r3, r4
 2316 000e 0362     		str	r3, [r0, #32]
 2317              		.loc 1 1806 0
 2318 0010 8A40     		lsls	r2, r2, r1
 2319              	.LVL224:
 2320 0012 016A     		ldr	r1, [r0, #32]
 2321              	.LVL225:
 2322              		.loc 1 1807 0
 2323 0014 5DF8044B 		ldr	r4, [sp], #4
 2324              		.cfi_restore 4
 2325              		.cfi_def_cfa_offset 0
 2326              		.loc 1 1806 0
 2327 0018 92B2     		uxth	r2, r2
 2328 001a 0A43     		orrs	r2, r2, r1
 2329 001c 0262     		str	r2, [r0, #32]
 2330              		.loc 1 1807 0
 2331 001e 7047     		bx	lr
 2332              		.cfi_endproc
 2333              	.LFE171:
 2334              		.size	TIM_CCxCmd, .-TIM_CCxCmd
 2335              		.section	.text.TIM_CCxNCmd,"ax",%progbits
 2336              		.align	2
 2337              		.p2align 4,,15
ARM GAS  /var/folders/m4/4md61f0s1_g0rzfghffqnxvr0000gn/T//ccSRVwbo.s 			page 42


 2338              		.global	TIM_CCxNCmd
 2339              		.thumb
 2340              		.thumb_func
 2341              		.type	TIM_CCxNCmd, %function
 2342              	TIM_CCxNCmd:
 2343              	.LFB172:
 2344              		.loc 1 1822 0
 2345              		.cfi_startproc
 2346              		@ args = 0, pretend = 0, frame = 0
 2347              		@ frame_needed = 0, uses_anonymous_args = 0
 2348              		@ link register save eliminated.
 2349              	.LVL226:
 2350              		.loc 1 1833 0
 2351 0000 0423     		movs	r3, #4
 2352 0002 8B40     		lsls	r3, r3, r1
 2353              		.loc 1 1822 0
 2354 0004 10B4     		push	{r4}
 2355              		.cfi_def_cfa_offset 4
 2356              		.cfi_offset 4, -4
 2357              		.loc 1 1833 0
 2358 0006 DB43     		mvns	r3, r3
 2359 0008 046A     		ldr	r4, [r0, #32]
 2360 000a 9BB2     		uxth	r3, r3
 2361 000c 2340     		ands	r3, r3, r4
 2362 000e 0362     		str	r3, [r0, #32]
 2363              		.loc 1 1836 0
 2364 0010 8A40     		lsls	r2, r2, r1
 2365              	.LVL227:
 2366 0012 016A     		ldr	r1, [r0, #32]
 2367              	.LVL228:
 2368              		.loc 1 1837 0
 2369 0014 5DF8044B 		ldr	r4, [sp], #4
 2370              		.cfi_restore 4
 2371              		.cfi_def_cfa_offset 0
 2372              		.loc 1 1836 0
 2373 0018 92B2     		uxth	r2, r2
 2374 001a 0A43     		orrs	r2, r2, r1
 2375 001c 0262     		str	r2, [r0, #32]
 2376              		.loc 1 1837 0
 2377 001e 7047     		bx	lr
 2378              		.cfi_endproc
 2379              	.LFE172:
 2380              		.size	TIM_CCxNCmd, .-TIM_CCxNCmd
 2381              		.section	.text.TIM_ICInit,"ax",%progbits
 2382              		.align	2
 2383              		.p2align 4,,15
 2384              		.global	TIM_ICInit
 2385              		.thumb
 2386              		.thumb_func
 2387              		.type	TIM_ICInit, %function
 2388              	TIM_ICInit:
 2389              	.LFB173:
 2390              		.loc 1 1906 0
 2391              		.cfi_startproc
 2392              		@ args = 0, pretend = 0, frame = 0
 2393              		@ frame_needed = 0, uses_anonymous_args = 0
 2394              	.LVL229:
ARM GAS  /var/folders/m4/4md61f0s1_g0rzfghffqnxvr0000gn/T//ccSRVwbo.s 			page 43


 2395              		.loc 1 1914 0
 2396 0000 0B88     		ldrh	r3, [r1]
 2397              		.loc 1 1906 0
 2398 0002 F0B5     		push	{r4, r5, r6, r7, lr}
 2399              		.cfi_def_cfa_offset 20
 2400              		.cfi_offset 4, -20
 2401              		.cfi_offset 5, -16
 2402              		.cfi_offset 6, -12
 2403              		.cfi_offset 7, -8
 2404              		.cfi_offset 14, -4
 2405              		.loc 1 1914 0
 2406 0004 6BB3     		cbz	r3, .L142
 2407              		.loc 1 1923 0
 2408 0006 042B     		cmp	r3, #4
 2409 0008 4ED0     		beq	.L143
 2410              		.loc 1 1933 0
 2411 000a 082B     		cmp	r3, #8
 2412              		.loc 1 1937 0
 2413 000c 4E88     		ldrh	r6, [r1, #2]
 2414              	.LBB46:
 2415              	.LBB47:
 2416              		.loc 1 3298 0
 2417 000e 036A     		ldr	r3, [r0, #32]
 2418              	.LBE47:
 2419              	.LBE46:
 2420              		.loc 1 1933 0
 2421 0010 74D0     		beq	.L144
 2422              		.loc 1 1947 0
 2423 0012 0C89     		ldrh	r4, [r1, #8]
 2424              	.LVL230:
 2425 0014 8A88     		ldrh	r2, [r1, #4]
 2426              	.LVL231:
 2427              		.loc 1 1951 0
 2428 0016 CD88     		ldrh	r5, [r1, #6]
 2429              	.LBB49:
 2430              	.LBB50:
 2431              		.loc 1 3339 0
 2432 0018 4EF6FF71 		movw	r1, #61439
 2433              	.LVL232:
 2434 001c 1940     		ands	r1, r1, r3
 2435 001e 0162     		str	r1, [r0, #32]
 2436              		.loc 1 3340 0
 2437 0020 C769     		ldr	r7, [r0, #28]
 2438              	.LVL233:
 2439              		.loc 1 3341 0
 2440 0022 D0F820E0 		ldr	lr, [r0, #32]
 2441              	.LVL234:
 2442              		.loc 1 3350 0
 2443 0026 45F6FF73 		movw	r3, #24575
 2444              		.loc 1 3354 0
 2445 002a 2103     		lsls	r1, r4, #12
 2446              		.loc 1 3350 0
 2447 002c 0EEA0303 		and	r3, lr, r3
 2448              		.loc 1 3345 0
 2449 0030 40F6FF44 		movw	r4, #3327
 2450              	.LVL235:
 2451              		.loc 1 3354 0
ARM GAS  /var/folders/m4/4md61f0s1_g0rzfghffqnxvr0000gn/T//ccSRVwbo.s 			page 44


 2452 0034 41EA0222 		orr	r2, r1, r2, lsl #8
 2453              	.LVL236:
 2454              		.loc 1 3345 0
 2455 0038 3C40     		ands	r4, r4, r7
 2456              	.LVL237:
 2457              		.loc 1 3355 0
 2458 003a 43EA0633 		orr	r3, r3, r6, lsl #12
 2459              	.LVL238:
 2460              		.loc 1 3354 0
 2461 003e 2243     		orrs	r2, r2, r4
 2462              		.loc 1 3355 0
 2463 0040 43F48053 		orr	r3, r3, #4096
 2464              		.loc 1 3354 0
 2465 0044 92B2     		uxth	r2, r2
 2466              		.loc 1 3355 0
 2467 0046 9BB2     		uxth	r3, r3
 2468              		.loc 1 3354 0
 2469 0048 C261     		str	r2, [r0, #28]
 2470              		.loc 1 3355 0
 2471 004a 0362     		str	r3, [r0, #32]
 2472              	.LVL239:
 2473              	.LBE50:
 2474              	.LBE49:
 2475              	.LBB51:
 2476              	.LBB52:
 2477              		.loc 1 2180 0
 2478 004c C269     		ldr	r2, [r0, #28]
 2479 004e 4FF2FF33 		movw	r3, #62463
 2480 0052 1340     		ands	r3, r3, r2
 2481 0054 C361     		str	r3, [r0, #28]
 2482              		.loc 1 2183 0
 2483 0056 C269     		ldr	r2, [r0, #28]
 2484 0058 2B02     		lsls	r3, r5, #8
 2485 005a 9BB2     		uxth	r3, r3
 2486 005c 1343     		orrs	r3, r3, r2
 2487 005e C361     		str	r3, [r0, #28]
 2488 0060 F0BD     		pop	{r4, r5, r6, r7, pc}
 2489              	.LVL240:
 2490              	.L142:
 2491              	.LBE52:
 2492              	.LBE51:
 2493              	.LBB53:
 2494              	.LBB54:
 2495              		.loc 1 3215 0
 2496 0062 056A     		ldr	r5, [r0, #32]
 2497              	.LBE54:
 2498              	.LBE53:
 2499              		.loc 1 1917 0
 2500 0064 8A88     		ldrh	r2, [r1, #4]
 2501 0066 4C88     		ldrh	r4, [r1, #2]
 2502 0068 0B89     		ldrh	r3, [r1, #8]
 2503              	.LVL241:
 2504              		.loc 1 1921 0
 2505 006a CE88     		ldrh	r6, [r1, #6]
 2506              	.LBB56:
 2507              	.LBB55:
 2508              		.loc 1 3215 0
ARM GAS  /var/folders/m4/4md61f0s1_g0rzfghffqnxvr0000gn/T//ccSRVwbo.s 			page 45


 2509 006c 4FF6FE71 		movw	r1, #65534
 2510              	.LVL242:
 2511 0070 2940     		ands	r1, r1, r5
 2512 0072 0162     		str	r1, [r0, #32]
 2513              		.loc 1 3216 0
 2514 0074 8169     		ldr	r1, [r0, #24]
 2515              	.LVL243:
 2516              		.loc 1 3217 0
 2517 0076 076A     		ldr	r7, [r0, #32]
 2518              	.LVL244:
 2519              		.loc 1 3220 0
 2520 0078 4FF60C75 		movw	r5, #65292
 2521              		.loc 1 3228 0
 2522 007c 42EA0313 		orr	r3, r2, r3, lsl #4
 2523              	.LVL245:
 2524              		.loc 1 3220 0
 2525 0080 0D40     		ands	r5, r5, r1
 2526              	.LVL246:
 2527              		.loc 1 3224 0
 2528 0082 4FF6F571 		movw	r1, #65525
 2529              		.loc 1 3229 0
 2530 0086 44F00102 		orr	r2, r4, #1
 2531              	.LVL247:
 2532              		.loc 1 3228 0
 2533 008a 2B43     		orrs	r3, r3, r5
 2534              		.loc 1 3224 0
 2535 008c 3940     		ands	r1, r1, r7
 2536              	.LVL248:
 2537              		.loc 1 3228 0
 2538 008e 9BB2     		uxth	r3, r3
 2539              		.loc 1 3229 0
 2540 0090 0A43     		orrs	r2, r2, r1
 2541              		.loc 1 3228 0
 2542 0092 8361     		str	r3, [r0, #24]
 2543              		.loc 1 3229 0
 2544 0094 0262     		str	r2, [r0, #32]
 2545              	.LVL249:
 2546              	.LBE55:
 2547              	.LBE56:
 2548              	.LBB57:
 2549              	.LBB58:
 2550              		.loc 1 2107 0
 2551 0096 8369     		ldr	r3, [r0, #24]
 2552 0098 4FF6F372 		movw	r2, #65523
 2553 009c 1A40     		ands	r2, r2, r3
 2554 009e 8261     		str	r2, [r0, #24]
 2555              		.loc 1 2110 0
 2556 00a0 8369     		ldr	r3, [r0, #24]
 2557 00a2 3343     		orrs	r3, r3, r6
 2558 00a4 8361     		str	r3, [r0, #24]
 2559 00a6 F0BD     		pop	{r4, r5, r6, r7, pc}
 2560              	.LVL250:
 2561              	.L143:
 2562              	.LBE58:
 2563              	.LBE57:
 2564              	.LBB59:
 2565              	.LBB60:
ARM GAS  /var/folders/m4/4md61f0s1_g0rzfghffqnxvr0000gn/T//ccSRVwbo.s 			page 46


 2566              		.loc 1 3256 0
 2567 00a8 036A     		ldr	r3, [r0, #32]
 2568              	.LBE60:
 2569              	.LBE59:
 2570              		.loc 1 1927 0
 2571 00aa 8C88     		ldrh	r4, [r1, #4]
 2572 00ac 4E88     		ldrh	r6, [r1, #2]
 2573 00ae 0A89     		ldrh	r2, [r1, #8]
 2574              	.LVL251:
 2575              		.loc 1 1931 0
 2576 00b0 CD88     		ldrh	r5, [r1, #6]
 2577              	.LBB62:
 2578              	.LBB61:
 2579              		.loc 1 3256 0
 2580 00b2 4FF6EF71 		movw	r1, #65519
 2581              	.LVL252:
 2582 00b6 1940     		ands	r1, r1, r3
 2583 00b8 0162     		str	r1, [r0, #32]
 2584              		.loc 1 3257 0
 2585 00ba 8769     		ldr	r7, [r0, #24]
 2586              	.LVL253:
 2587              		.loc 1 3258 0
 2588 00bc D0F820E0 		ldr	lr, [r0, #32]
 2589              	.LVL254:
 2590              		.loc 1 3267 0
 2591 00c0 4FF65F73 		movw	r3, #65375
 2592              		.loc 1 3271 0
 2593 00c4 2102     		lsls	r1, r4, #8
 2594              		.loc 1 3267 0
 2595 00c6 0EEA0303 		and	r3, lr, r3
 2596              		.loc 1 3262 0
 2597 00ca 40F6FF44 		movw	r4, #3327
 2598              	.LVL255:
 2599              		.loc 1 3271 0
 2600 00ce 41EA0232 		orr	r2, r1, r2, lsl #12
 2601              	.LVL256:
 2602              		.loc 1 3262 0
 2603 00d2 3C40     		ands	r4, r4, r7
 2604              	.LVL257:
 2605              		.loc 1 3272 0
 2606 00d4 43EA0613 		orr	r3, r3, r6, lsl #4
 2607              	.LVL258:
 2608              		.loc 1 3271 0
 2609 00d8 2243     		orrs	r2, r2, r4
 2610              		.loc 1 3272 0
 2611 00da 43F01003 		orr	r3, r3, #16
 2612              		.loc 1 3271 0
 2613 00de 92B2     		uxth	r2, r2
 2614              		.loc 1 3272 0
 2615 00e0 9BB2     		uxth	r3, r3
 2616              		.loc 1 3271 0
 2617 00e2 8261     		str	r2, [r0, #24]
 2618              		.loc 1 3272 0
 2619 00e4 0362     		str	r3, [r0, #32]
 2620              	.LVL259:
 2621              	.LBE61:
 2622              	.LBE62:
ARM GAS  /var/folders/m4/4md61f0s1_g0rzfghffqnxvr0000gn/T//ccSRVwbo.s 			page 47


 2623              	.LBB63:
 2624              	.LBB64:
 2625              		.loc 1 2132 0
 2626 00e6 8269     		ldr	r2, [r0, #24]
 2627 00e8 4FF2FF33 		movw	r3, #62463
 2628 00ec 1340     		ands	r3, r3, r2
 2629 00ee 8361     		str	r3, [r0, #24]
 2630              		.loc 1 2135 0
 2631 00f0 8269     		ldr	r2, [r0, #24]
 2632 00f2 2B02     		lsls	r3, r5, #8
 2633 00f4 9BB2     		uxth	r3, r3
 2634 00f6 1343     		orrs	r3, r3, r2
 2635 00f8 8361     		str	r3, [r0, #24]
 2636 00fa F0BD     		pop	{r4, r5, r6, r7, pc}
 2637              	.LVL260:
 2638              	.L144:
 2639              	.LBE64:
 2640              	.LBE63:
 2641              		.loc 1 1937 0
 2642 00fc 8C88     		ldrh	r4, [r1, #4]
 2643 00fe 0A89     		ldrh	r2, [r1, #8]
 2644              	.LVL261:
 2645              		.loc 1 1941 0
 2646 0100 CD88     		ldrh	r5, [r1, #6]
 2647              	.LBB65:
 2648              	.LBB48:
 2649              		.loc 1 3298 0
 2650 0102 4FF6FF61 		movw	r1, #65279
 2651              	.LVL262:
 2652 0106 1940     		ands	r1, r1, r3
 2653 0108 0162     		str	r1, [r0, #32]
 2654              		.loc 1 3299 0
 2655 010a C769     		ldr	r7, [r0, #28]
 2656              	.LVL263:
 2657              		.loc 1 3300 0
 2658 010c 016A     		ldr	r1, [r0, #32]
 2659              	.LVL264:
 2660              		.loc 1 3308 0
 2661 010e 4FF2FF53 		movw	r3, #62975
 2662 0112 0B40     		ands	r3, r3, r1
 2663              		.loc 1 3304 0
 2664 0114 4FF60C71 		movw	r1, #65292
 2665              	.LVL265:
 2666              		.loc 1 3312 0
 2667 0118 44EA0212 		orr	r2, r4, r2, lsl #4
 2668              	.LVL266:
 2669              		.loc 1 3304 0
 2670 011c 3940     		ands	r1, r1, r7
 2671              	.LVL267:
 2672              		.loc 1 3313 0
 2673 011e 43EA0623 		orr	r3, r3, r6, lsl #8
 2674              	.LVL268:
 2675              		.loc 1 3312 0
 2676 0122 0A43     		orrs	r2, r2, r1
 2677              		.loc 1 3313 0
 2678 0124 43F48073 		orr	r3, r3, #256
 2679              		.loc 1 3312 0
ARM GAS  /var/folders/m4/4md61f0s1_g0rzfghffqnxvr0000gn/T//ccSRVwbo.s 			page 48


 2680 0128 92B2     		uxth	r2, r2
 2681              		.loc 1 3313 0
 2682 012a 9BB2     		uxth	r3, r3
 2683              		.loc 1 3312 0
 2684 012c C261     		str	r2, [r0, #28]
 2685              		.loc 1 3313 0
 2686 012e 0362     		str	r3, [r0, #32]
 2687              	.LVL269:
 2688              	.LBE48:
 2689              	.LBE65:
 2690              	.LBB66:
 2691              	.LBB67:
 2692              		.loc 1 2156 0
 2693 0130 C369     		ldr	r3, [r0, #28]
 2694 0132 4FF6F372 		movw	r2, #65523
 2695 0136 1A40     		ands	r2, r2, r3
 2696 0138 C261     		str	r2, [r0, #28]
 2697              		.loc 1 2159 0
 2698 013a C369     		ldr	r3, [r0, #28]
 2699 013c 2B43     		orrs	r3, r3, r5
 2700 013e C361     		str	r3, [r0, #28]
 2701 0140 F0BD     		pop	{r4, r5, r6, r7, pc}
 2702              	.LBE67:
 2703              	.LBE66:
 2704              		.cfi_endproc
 2705              	.LFE173:
 2706              		.size	TIM_ICInit, .-TIM_ICInit
 2707 0142 00BF     		.section	.text.TIM_ICStructInit,"ax",%progbits
 2708              		.align	2
 2709              		.p2align 4,,15
 2710              		.global	TIM_ICStructInit
 2711              		.thumb
 2712              		.thumb_func
 2713              		.type	TIM_ICStructInit, %function
 2714              	TIM_ICStructInit:
 2715              	.LFB174:
 2716              		.loc 1 1962 0
 2717              		.cfi_startproc
 2718              		@ args = 0, pretend = 0, frame = 0
 2719              		@ frame_needed = 0, uses_anonymous_args = 0
 2720              		@ link register save eliminated.
 2721              	.LVL270:
 2722              		.loc 1 1964 0
 2723 0000 0023     		movs	r3, #0
 2724              		.loc 1 1966 0
 2725 0002 0122     		movs	r2, #1
 2726 0004 8280     		strh	r2, [r0, #4]	@ movhi
 2727              		.loc 1 1964 0
 2728 0006 0380     		strh	r3, [r0]	@ movhi
 2729              		.loc 1 1965 0
 2730 0008 4380     		strh	r3, [r0, #2]	@ movhi
 2731              		.loc 1 1967 0
 2732 000a C380     		strh	r3, [r0, #6]	@ movhi
 2733              		.loc 1 1968 0
 2734 000c 0381     		strh	r3, [r0, #8]	@ movhi
 2735 000e 7047     		bx	lr
 2736              		.cfi_endproc
ARM GAS  /var/folders/m4/4md61f0s1_g0rzfghffqnxvr0000gn/T//ccSRVwbo.s 			page 49


 2737              	.LFE174:
 2738              		.size	TIM_ICStructInit, .-TIM_ICStructInit
 2739              		.section	.text.TIM_PWMIConfig,"ax",%progbits
 2740              		.align	2
 2741              		.p2align 4,,15
 2742              		.global	TIM_PWMIConfig
 2743              		.thumb
 2744              		.thumb_func
 2745              		.type	TIM_PWMIConfig, %function
 2746              	TIM_PWMIConfig:
 2747              	.LFB175:
 2748              		.loc 1 1981 0
 2749              		.cfi_startproc
 2750              		@ args = 0, pretend = 0, frame = 0
 2751              		@ frame_needed = 0, uses_anonymous_args = 0
 2752              	.LVL271:
 2753 0000 2DE9F043 		push	{r4, r5, r6, r7, r8, r9, lr}
 2754              		.cfi_def_cfa_offset 28
 2755              		.cfi_offset 4, -28
 2756              		.cfi_offset 5, -24
 2757              		.cfi_offset 6, -20
 2758              		.cfi_offset 7, -16
 2759              		.cfi_offset 8, -12
 2760              		.cfi_offset 9, -8
 2761              		.cfi_offset 14, -4
 2762              		.loc 1 1989 0
 2763 0004 B1F802E0 		ldrh	lr, [r1, #2]
 2764              		.loc 1 1998 0
 2765 0008 8B88     		ldrh	r3, [r1, #4]
 2766              		.loc 1 2006 0
 2767 000a 0A88     		ldrh	r2, [r1]
 2768              		.loc 1 1989 0
 2769 000c BEF1000F 		cmp	lr, #0
 2770              		.loc 1 1995 0
 2771 0010 0CBF     		ite	eq
 2772 0012 0224     		moveq	r4, #2
 2773 0014 0024     		movne	r4, #0
 2774              	.LVL272:
 2775              		.loc 1 1998 0
 2776 0016 012B     		cmp	r3, #1
 2777              		.loc 1 2004 0
 2778 0018 0CBF     		ite	eq
 2779 001a 0225     		moveq	r5, #2
 2780 001c 0125     		movne	r5, #1
 2781              	.LVL273:
 2782              		.loc 1 2006 0
 2783 001e 002A     		cmp	r2, #0
 2784 0020 46D0     		beq	.L154
 2785              	.LBB68:
 2786              	.LBB69:
 2787              		.loc 1 3256 0
 2788 0022 026A     		ldr	r2, [r0, #32]
 2789              	.LBE69:
 2790              	.LBE68:
 2791              		.loc 1 2021 0
 2792 0024 0F89     		ldrh	r7, [r1, #8]
 2793              	.LVL274:
ARM GAS  /var/folders/m4/4md61f0s1_g0rzfghffqnxvr0000gn/T//ccSRVwbo.s 			page 50


 2794              		.loc 1 2024 0
 2795 0026 C988     		ldrh	r1, [r1, #6]
 2796              	.LVL275:
 2797              	.LBB71:
 2798              	.LBB70:
 2799              		.loc 1 3256 0
 2800 0028 4FF6EF76 		movw	r6, #65519
 2801 002c 1640     		ands	r6, r6, r2
 2802 002e 0662     		str	r6, [r0, #32]
 2803              		.loc 1 3257 0
 2804 0030 8269     		ldr	r2, [r0, #24]
 2805              	.LVL276:
 2806              		.loc 1 3258 0
 2807 0032 D0F820C0 		ldr	ip, [r0, #32]
 2808              	.LVL277:
 2809              		.loc 1 3262 0
 2810 0036 40F6FF46 		movw	r6, #3327
 2811 003a 1640     		ands	r6, r6, r2
 2812              	.LVL278:
 2813              		.loc 1 3267 0
 2814 003c 4FF65F72 		movw	r2, #65375
 2815              		.loc 1 3271 0
 2816 0040 1B02     		lsls	r3, r3, #8
 2817              	.LVL279:
 2818              		.loc 1 3267 0
 2819 0042 0CEA0202 		and	r2, ip, r2
 2820              	.LVL280:
 2821              		.loc 1 3271 0
 2822 0046 43EA0733 		orr	r3, r3, r7, lsl #12
 2823              		.loc 1 3272 0
 2824 004a 42EA0E12 		orr	r2, r2, lr, lsl #4
 2825              	.LVL281:
 2826              		.loc 1 3271 0
 2827 004e 3343     		orrs	r3, r3, r6
 2828              		.loc 1 3272 0
 2829 0050 42F01002 		orr	r2, r2, #16
 2830              		.loc 1 3271 0
 2831 0054 9BB2     		uxth	r3, r3
 2832              		.loc 1 3272 0
 2833 0056 92B2     		uxth	r2, r2
 2834              		.loc 1 3271 0
 2835 0058 8361     		str	r3, [r0, #24]
 2836              		.loc 1 3272 0
 2837 005a 0262     		str	r2, [r0, #32]
 2838              	.LVL282:
 2839              	.LBE70:
 2840              	.LBE71:
 2841              	.LBB72:
 2842              	.LBB73:
 2843              		.loc 1 2132 0
 2844 005c 8269     		ldr	r2, [r0, #24]
 2845 005e 4FF2FF33 		movw	r3, #62463
 2846 0062 1340     		ands	r3, r3, r2
 2847 0064 8361     		str	r3, [r0, #24]
 2848              		.loc 1 2135 0
 2849 0066 8269     		ldr	r2, [r0, #24]
 2850 0068 0B02     		lsls	r3, r1, #8
ARM GAS  /var/folders/m4/4md61f0s1_g0rzfghffqnxvr0000gn/T//ccSRVwbo.s 			page 51


 2851 006a 9BB2     		uxth	r3, r3
 2852 006c 1343     		orrs	r3, r3, r2
 2853 006e 8361     		str	r3, [r0, #24]
 2854              	.LVL283:
 2855              	.LBE73:
 2856              	.LBE72:
 2857              	.LBB74:
 2858              	.LBB75:
 2859              		.loc 1 3215 0
 2860 0070 026A     		ldr	r2, [r0, #32]
 2861 0072 4FF6FE73 		movw	r3, #65534
 2862 0076 1340     		ands	r3, r3, r2
 2863 0078 0362     		str	r3, [r0, #32]
 2864              		.loc 1 3216 0
 2865 007a 8269     		ldr	r2, [r0, #24]
 2866              		.loc 1 3217 0
 2867 007c 066A     		ldr	r6, [r0, #32]
 2868              		.loc 1 3216 0
 2869 007e 92B2     		uxth	r2, r2
 2870              	.LVL284:
 2871 0080 22F0F302 		bic	r2, r2, #243
 2872              	.LVL285:
 2873              		.loc 1 3217 0
 2874 0084 B6B2     		uxth	r6, r6
 2875              	.LVL286:
 2876 0086 42EA0713 		orr	r3, r2, r7, lsl #4
 2877 008a 26F00A02 		bic	r2, r6, #10
 2878 008e 9BB2     		uxth	r3, r3
 2879              	.LVL287:
 2880 0090 42F00102 		orr	r2, r2, #1
 2881              	.LVL288:
 2882              		.loc 1 3228 0
 2883 0094 2B43     		orrs	r3, r3, r5
 2884              	.LVL289:
 2885              		.loc 1 3229 0
 2886 0096 2243     		orrs	r2, r2, r4
 2887              	.LVL290:
 2888              		.loc 1 3228 0
 2889 0098 8361     		str	r3, [r0, #24]
 2890              		.loc 1 3229 0
 2891 009a 0262     		str	r2, [r0, #32]
 2892              	.LVL291:
 2893              	.LBE75:
 2894              	.LBE74:
 2895              	.LBB76:
 2896              	.LBB77:
 2897              		.loc 1 2107 0
 2898 009c 8269     		ldr	r2, [r0, #24]
 2899 009e 4FF6F373 		movw	r3, #65523
 2900 00a2 1340     		ands	r3, r3, r2
 2901 00a4 8361     		str	r3, [r0, #24]
 2902              		.loc 1 2110 0
 2903 00a6 8369     		ldr	r3, [r0, #24]
 2904 00a8 1943     		orrs	r1, r1, r3
 2905              	.LVL292:
 2906 00aa 8161     		str	r1, [r0, #24]
 2907 00ac BDE8F083 		pop	{r4, r5, r6, r7, r8, r9, pc}
ARM GAS  /var/folders/m4/4md61f0s1_g0rzfghffqnxvr0000gn/T//ccSRVwbo.s 			page 52


 2908              	.LVL293:
 2909              	.L154:
 2910              	.LBE77:
 2911              	.LBE76:
 2912              	.LBB78:
 2913              	.LBB79:
 2914              		.loc 1 3215 0
 2915 00b0 066A     		ldr	r6, [r0, #32]
 2916              	.LBE79:
 2917              	.LBE78:
 2918              		.loc 1 2009 0
 2919 00b2 0F89     		ldrh	r7, [r1, #8]
 2920              	.LVL294:
 2921              		.loc 1 2012 0
 2922 00b4 C988     		ldrh	r1, [r1, #6]
 2923              	.LVL295:
 2924              	.LBB81:
 2925              	.LBB80:
 2926              		.loc 1 3215 0
 2927 00b6 4FF6FE72 		movw	r2, #65534
 2928 00ba 3240     		ands	r2, r2, r6
 2929 00bc 0262     		str	r2, [r0, #32]
 2930              		.loc 1 3216 0
 2931 00be 8269     		ldr	r2, [r0, #24]
 2932              	.LVL296:
 2933              		.loc 1 3217 0
 2934 00c0 D0F82090 		ldr	r9, [r0, #32]
 2935              	.LVL297:
 2936              		.loc 1 3220 0
 2937 00c4 4FF60C78 		movw	r8, #65292
 2938              		.loc 1 3228 0
 2939 00c8 43EA0716 		orr	r6, r3, r7, lsl #4
 2940              		.loc 1 3220 0
 2941 00cc 02EA0808 		and	r8, r2, r8
 2942              	.LVL298:
 2943              		.loc 1 3224 0
 2944 00d0 4FF6F57C 		movw	ip, #65525
 2945              		.loc 1 3229 0
 2946 00d4 4EF00102 		orr	r2, lr, #1
 2947              		.loc 1 3224 0
 2948 00d8 09EA0C0C 		and	ip, r9, ip
 2949              	.LVL299:
 2950              		.loc 1 3228 0
 2951 00dc 48EA0606 		orr	r6, r8, r6
 2952              		.loc 1 3229 0
 2953 00e0 4CEA0202 		orr	r2, ip, r2
 2954              		.loc 1 3228 0
 2955 00e4 B6B2     		uxth	r6, r6
 2956 00e6 8661     		str	r6, [r0, #24]
 2957              		.loc 1 3229 0
 2958 00e8 0262     		str	r2, [r0, #32]
 2959              	.LVL300:
 2960              	.LBE80:
 2961              	.LBE81:
 2962              	.LBB82:
 2963              	.LBB83:
 2964              		.loc 1 2107 0
ARM GAS  /var/folders/m4/4md61f0s1_g0rzfghffqnxvr0000gn/T//ccSRVwbo.s 			page 53


 2965 00ea 8269     		ldr	r2, [r0, #24]
 2966 00ec 4FF6F373 		movw	r3, #65523
 2967 00f0 1340     		ands	r3, r3, r2
 2968 00f2 8361     		str	r3, [r0, #24]
 2969              		.loc 1 2110 0
 2970 00f4 8369     		ldr	r3, [r0, #24]
 2971 00f6 0B43     		orrs	r3, r3, r1
 2972 00f8 8361     		str	r3, [r0, #24]
 2973              	.LVL301:
 2974              	.LBE83:
 2975              	.LBE82:
 2976              	.LBB84:
 2977              	.LBB85:
 2978              		.loc 1 3256 0
 2979 00fa 026A     		ldr	r2, [r0, #32]
 2980 00fc 4FF6EF73 		movw	r3, #65519
 2981 0100 1340     		ands	r3, r3, r2
 2982 0102 0362     		str	r3, [r0, #32]
 2983              		.loc 1 3257 0
 2984 0104 8669     		ldr	r6, [r0, #24]
 2985              	.LVL302:
 2986              		.loc 1 3258 0
 2987 0106 026A     		ldr	r2, [r0, #32]
 2988              		.loc 1 3262 0
 2989 0108 40F6FF43 		movw	r3, #3327
 2990 010c 3340     		ands	r3, r3, r6
 2991              		.loc 1 3258 0
 2992 010e 92B2     		uxth	r2, r2
 2993              	.LVL303:
 2994              		.loc 1 3263 0
 2995 0110 43EA0733 		orr	r3, r3, r7, lsl #12
 2996              	.LVL304:
 2997 0114 22F0A002 		bic	r2, r2, #160
 2998              	.LVL305:
 2999 0118 9BB2     		uxth	r3, r3
 3000              	.LVL306:
 3001 011a 42F01002 		orr	r2, r2, #16
 3002              	.LVL307:
 3003              		.loc 1 3271 0
 3004 011e 43EA0523 		orr	r3, r3, r5, lsl #8
 3005              	.LVL308:
 3006              		.loc 1 3272 0
 3007 0122 42EA0412 		orr	r2, r2, r4, lsl #4
 3008              	.LVL309:
 3009              		.loc 1 3271 0
 3010 0126 8361     		str	r3, [r0, #24]
 3011              		.loc 1 3272 0
 3012 0128 0262     		str	r2, [r0, #32]
 3013              	.LVL310:
 3014              	.LBE85:
 3015              	.LBE84:
 3016              	.LBB86:
 3017              	.LBB87:
 3018              		.loc 1 2132 0
 3019 012a 8269     		ldr	r2, [r0, #24]
 3020 012c 4FF2FF33 		movw	r3, #62463
 3021 0130 1340     		ands	r3, r3, r2
ARM GAS  /var/folders/m4/4md61f0s1_g0rzfghffqnxvr0000gn/T//ccSRVwbo.s 			page 54


 3022 0132 8361     		str	r3, [r0, #24]
 3023              		.loc 1 2135 0
 3024 0134 8369     		ldr	r3, [r0, #24]
 3025 0136 0902     		lsls	r1, r1, #8
 3026              	.LVL311:
 3027 0138 89B2     		uxth	r1, r1
 3028 013a 1943     		orrs	r1, r1, r3
 3029 013c 8161     		str	r1, [r0, #24]
 3030 013e BDE8F083 		pop	{r4, r5, r6, r7, r8, r9, pc}
 3031              	.LBE87:
 3032              	.LBE86:
 3033              		.cfi_endproc
 3034              	.LFE175:
 3035              		.size	TIM_PWMIConfig, .-TIM_PWMIConfig
 3036 0142 00BF     		.section	.text.TIM_GetCapture1,"ax",%progbits
 3037              		.align	2
 3038              		.p2align 4,,15
 3039              		.global	TIM_GetCapture1
 3040              		.thumb
 3041              		.thumb_func
 3042              		.type	TIM_GetCapture1, %function
 3043              	TIM_GetCapture1:
 3044              	.LFB176:
 3045              		.loc 1 2038 0
 3046              		.cfi_startproc
 3047              		@ args = 0, pretend = 0, frame = 0
 3048              		@ frame_needed = 0, uses_anonymous_args = 0
 3049              		@ link register save eliminated.
 3050              	.LVL312:
 3051              		.loc 1 2043 0
 3052 0000 406B     		ldr	r0, [r0, #52]
 3053              	.LVL313:
 3054              		.loc 1 2044 0
 3055 0002 7047     		bx	lr
 3056              		.cfi_endproc
 3057              	.LFE176:
 3058              		.size	TIM_GetCapture1, .-TIM_GetCapture1
 3059              		.section	.text.TIM_GetCapture2,"ax",%progbits
 3060              		.align	2
 3061              		.p2align 4,,15
 3062              		.global	TIM_GetCapture2
 3063              		.thumb
 3064              		.thumb_func
 3065              		.type	TIM_GetCapture2, %function
 3066              	TIM_GetCapture2:
 3067              	.LFB177:
 3068              		.loc 1 2053 0
 3069              		.cfi_startproc
 3070              		@ args = 0, pretend = 0, frame = 0
 3071              		@ frame_needed = 0, uses_anonymous_args = 0
 3072              		@ link register save eliminated.
 3073              	.LVL314:
 3074              		.loc 1 2058 0
 3075 0000 806B     		ldr	r0, [r0, #56]
 3076              	.LVL315:
 3077              		.loc 1 2059 0
 3078 0002 7047     		bx	lr
ARM GAS  /var/folders/m4/4md61f0s1_g0rzfghffqnxvr0000gn/T//ccSRVwbo.s 			page 55


 3079              		.cfi_endproc
 3080              	.LFE177:
 3081              		.size	TIM_GetCapture2, .-TIM_GetCapture2
 3082              		.section	.text.TIM_GetCapture3,"ax",%progbits
 3083              		.align	2
 3084              		.p2align 4,,15
 3085              		.global	TIM_GetCapture3
 3086              		.thumb
 3087              		.thumb_func
 3088              		.type	TIM_GetCapture3, %function
 3089              	TIM_GetCapture3:
 3090              	.LFB178:
 3091              		.loc 1 2067 0
 3092              		.cfi_startproc
 3093              		@ args = 0, pretend = 0, frame = 0
 3094              		@ frame_needed = 0, uses_anonymous_args = 0
 3095              		@ link register save eliminated.
 3096              	.LVL316:
 3097              		.loc 1 2072 0
 3098 0000 C06B     		ldr	r0, [r0, #60]
 3099              	.LVL317:
 3100              		.loc 1 2073 0
 3101 0002 7047     		bx	lr
 3102              		.cfi_endproc
 3103              	.LFE178:
 3104              		.size	TIM_GetCapture3, .-TIM_GetCapture3
 3105              		.section	.text.TIM_GetCapture4,"ax",%progbits
 3106              		.align	2
 3107              		.p2align 4,,15
 3108              		.global	TIM_GetCapture4
 3109              		.thumb
 3110              		.thumb_func
 3111              		.type	TIM_GetCapture4, %function
 3112              	TIM_GetCapture4:
 3113              	.LFB179:
 3114              		.loc 1 2081 0
 3115              		.cfi_startproc
 3116              		@ args = 0, pretend = 0, frame = 0
 3117              		@ frame_needed = 0, uses_anonymous_args = 0
 3118              		@ link register save eliminated.
 3119              	.LVL318:
 3120              		.loc 1 2086 0
 3121 0000 006C     		ldr	r0, [r0, #64]
 3122              	.LVL319:
 3123              		.loc 1 2087 0
 3124 0002 7047     		bx	lr
 3125              		.cfi_endproc
 3126              	.LFE179:
 3127              		.size	TIM_GetCapture4, .-TIM_GetCapture4
 3128              		.section	.text.TIM_SetIC1Prescaler,"ax",%progbits
 3129              		.align	2
 3130              		.p2align 4,,15
 3131              		.global	TIM_SetIC1Prescaler
 3132              		.thumb
 3133              		.thumb_func
 3134              		.type	TIM_SetIC1Prescaler, %function
 3135              	TIM_SetIC1Prescaler:
ARM GAS  /var/folders/m4/4md61f0s1_g0rzfghffqnxvr0000gn/T//ccSRVwbo.s 			page 56


 3136              	.LFB180:
 3137              		.loc 1 2101 0
 3138              		.cfi_startproc
 3139              		@ args = 0, pretend = 0, frame = 0
 3140              		@ frame_needed = 0, uses_anonymous_args = 0
 3141              		@ link register save eliminated.
 3142              	.LVL320:
 3143              		.loc 1 2107 0
 3144 0000 8269     		ldr	r2, [r0, #24]
 3145 0002 4FF6F373 		movw	r3, #65523
 3146 0006 1340     		ands	r3, r3, r2
 3147 0008 8361     		str	r3, [r0, #24]
 3148              		.loc 1 2110 0
 3149 000a 8369     		ldr	r3, [r0, #24]
 3150 000c 1943     		orrs	r1, r1, r3
 3151              	.LVL321:
 3152 000e 8161     		str	r1, [r0, #24]
 3153 0010 7047     		bx	lr
 3154              		.cfi_endproc
 3155              	.LFE180:
 3156              		.size	TIM_SetIC1Prescaler, .-TIM_SetIC1Prescaler
 3157 0012 00BF     		.section	.text.TIM_SetIC2Prescaler,"ax",%progbits
 3158              		.align	2
 3159              		.p2align 4,,15
 3160              		.global	TIM_SetIC2Prescaler
 3161              		.thumb
 3162              		.thumb_func
 3163              		.type	TIM_SetIC2Prescaler, %function
 3164              	TIM_SetIC2Prescaler:
 3165              	.LFB181:
 3166              		.loc 1 2126 0
 3167              		.cfi_startproc
 3168              		@ args = 0, pretend = 0, frame = 0
 3169              		@ frame_needed = 0, uses_anonymous_args = 0
 3170              		@ link register save eliminated.
 3171              	.LVL322:
 3172              		.loc 1 2132 0
 3173 0000 8269     		ldr	r2, [r0, #24]
 3174 0002 4FF2FF33 		movw	r3, #62463
 3175 0006 1340     		ands	r3, r3, r2
 3176 0008 8361     		str	r3, [r0, #24]
 3177              		.loc 1 2135 0
 3178 000a 8369     		ldr	r3, [r0, #24]
 3179 000c 0902     		lsls	r1, r1, #8
 3180              	.LVL323:
 3181 000e 89B2     		uxth	r1, r1
 3182 0010 1943     		orrs	r1, r1, r3
 3183 0012 8161     		str	r1, [r0, #24]
 3184 0014 7047     		bx	lr
 3185              		.cfi_endproc
 3186              	.LFE181:
 3187              		.size	TIM_SetIC2Prescaler, .-TIM_SetIC2Prescaler
 3188 0016 00BF     		.section	.text.TIM_SetIC3Prescaler,"ax",%progbits
 3189              		.align	2
 3190              		.p2align 4,,15
 3191              		.global	TIM_SetIC3Prescaler
 3192              		.thumb
ARM GAS  /var/folders/m4/4md61f0s1_g0rzfghffqnxvr0000gn/T//ccSRVwbo.s 			page 57


 3193              		.thumb_func
 3194              		.type	TIM_SetIC3Prescaler, %function
 3195              	TIM_SetIC3Prescaler:
 3196              	.LFB182:
 3197              		.loc 1 2150 0
 3198              		.cfi_startproc
 3199              		@ args = 0, pretend = 0, frame = 0
 3200              		@ frame_needed = 0, uses_anonymous_args = 0
 3201              		@ link register save eliminated.
 3202              	.LVL324:
 3203              		.loc 1 2156 0
 3204 0000 C269     		ldr	r2, [r0, #28]
 3205 0002 4FF6F373 		movw	r3, #65523
 3206 0006 1340     		ands	r3, r3, r2
 3207 0008 C361     		str	r3, [r0, #28]
 3208              		.loc 1 2159 0
 3209 000a C369     		ldr	r3, [r0, #28]
 3210 000c 1943     		orrs	r1, r1, r3
 3211              	.LVL325:
 3212 000e C161     		str	r1, [r0, #28]
 3213 0010 7047     		bx	lr
 3214              		.cfi_endproc
 3215              	.LFE182:
 3216              		.size	TIM_SetIC3Prescaler, .-TIM_SetIC3Prescaler
 3217 0012 00BF     		.section	.text.TIM_SetIC4Prescaler,"ax",%progbits
 3218              		.align	2
 3219              		.p2align 4,,15
 3220              		.global	TIM_SetIC4Prescaler
 3221              		.thumb
 3222              		.thumb_func
 3223              		.type	TIM_SetIC4Prescaler, %function
 3224              	TIM_SetIC4Prescaler:
 3225              	.LFB183:
 3226              		.loc 1 2174 0
 3227              		.cfi_startproc
 3228              		@ args = 0, pretend = 0, frame = 0
 3229              		@ frame_needed = 0, uses_anonymous_args = 0
 3230              		@ link register save eliminated.
 3231              	.LVL326:
 3232              		.loc 1 2180 0
 3233 0000 C269     		ldr	r2, [r0, #28]
 3234 0002 4FF2FF33 		movw	r3, #62463
 3235 0006 1340     		ands	r3, r3, r2
 3236 0008 C361     		str	r3, [r0, #28]
 3237              		.loc 1 2183 0
 3238 000a C369     		ldr	r3, [r0, #28]
 3239 000c 0902     		lsls	r1, r1, #8
 3240              	.LVL327:
 3241 000e 89B2     		uxth	r1, r1
 3242 0010 1943     		orrs	r1, r1, r3
 3243 0012 C161     		str	r1, [r0, #28]
 3244 0014 7047     		bx	lr
 3245              		.cfi_endproc
 3246              	.LFE183:
 3247              		.size	TIM_SetIC4Prescaler, .-TIM_SetIC4Prescaler
 3248 0016 00BF     		.section	.text.TIM_BDTRConfig,"ax",%progbits
 3249              		.align	2
ARM GAS  /var/folders/m4/4md61f0s1_g0rzfghffqnxvr0000gn/T//ccSRVwbo.s 			page 58


 3250              		.p2align 4,,15
 3251              		.global	TIM_BDTRConfig
 3252              		.thumb
 3253              		.thumb_func
 3254              		.type	TIM_BDTRConfig, %function
 3255              	TIM_BDTRConfig:
 3256              	.LFB184:
 3257              		.loc 1 2227 0
 3258              		.cfi_startproc
 3259              		@ args = 0, pretend = 0, frame = 0
 3260              		@ frame_needed = 0, uses_anonymous_args = 0
 3261              	.LVL328:
 3262 0000 F0B5     		push	{r4, r5, r6, r7, lr}
 3263              		.cfi_def_cfa_offset 20
 3264              		.cfi_offset 4, -20
 3265              		.cfi_offset 5, -16
 3266              		.cfi_offset 6, -12
 3267              		.cfi_offset 7, -8
 3268              		.cfi_offset 14, -4
 3269              		.loc 1 2241 0
 3270 0002 4B88     		ldrh	r3, [r1, #2]
 3271 0004 B1F800E0 		ldrh	lr, [r1]
 3272 0008 8F88     		ldrh	r7, [r1, #4]
 3273 000a CE88     		ldrh	r6, [r1, #6]
 3274 000c 0D89     		ldrh	r5, [r1, #8]
 3275 000e 4C89     		ldrh	r4, [r1, #10]
 3276 0010 8A89     		ldrh	r2, [r1, #12]
 3277 0012 4EEA0303 		orr	r3, lr, r3
 3278 0016 3B43     		orrs	r3, r3, r7
 3279 0018 3343     		orrs	r3, r3, r6
 3280 001a 2B43     		orrs	r3, r3, r5
 3281 001c 2343     		orrs	r3, r3, r4
 3282 001e 1343     		orrs	r3, r3, r2
 3283 0020 9BB2     		uxth	r3, r3
 3284              		.loc 1 2239 0
 3285 0022 4364     		str	r3, [r0, #68]
 3286 0024 F0BD     		pop	{r4, r5, r6, r7, pc}
 3287              		.cfi_endproc
 3288              	.LFE184:
 3289              		.size	TIM_BDTRConfig, .-TIM_BDTRConfig
 3290 0026 00BF     		.section	.text.TIM_BDTRStructInit,"ax",%progbits
 3291              		.align	2
 3292              		.p2align 4,,15
 3293              		.global	TIM_BDTRStructInit
 3294              		.thumb
 3295              		.thumb_func
 3296              		.type	TIM_BDTRStructInit, %function
 3297              	TIM_BDTRStructInit:
 3298              	.LFB185:
 3299              		.loc 1 2252 0
 3300              		.cfi_startproc
 3301              		@ args = 0, pretend = 0, frame = 0
 3302              		@ frame_needed = 0, uses_anonymous_args = 0
 3303              		@ link register save eliminated.
 3304              	.LVL329:
 3305              		.loc 1 2254 0
 3306 0000 0023     		movs	r3, #0
ARM GAS  /var/folders/m4/4md61f0s1_g0rzfghffqnxvr0000gn/T//ccSRVwbo.s 			page 59


 3307 0002 0380     		strh	r3, [r0]	@ movhi
 3308              		.loc 1 2255 0
 3309 0004 4380     		strh	r3, [r0, #2]	@ movhi
 3310              		.loc 1 2256 0
 3311 0006 8380     		strh	r3, [r0, #4]	@ movhi
 3312              		.loc 1 2257 0
 3313 0008 C380     		strh	r3, [r0, #6]	@ movhi
 3314              		.loc 1 2258 0
 3315 000a 0381     		strh	r3, [r0, #8]	@ movhi
 3316              		.loc 1 2259 0
 3317 000c 4381     		strh	r3, [r0, #10]	@ movhi
 3318              		.loc 1 2260 0
 3319 000e 8381     		strh	r3, [r0, #12]	@ movhi
 3320 0010 7047     		bx	lr
 3321              		.cfi_endproc
 3322              	.LFE185:
 3323              		.size	TIM_BDTRStructInit, .-TIM_BDTRStructInit
 3324 0012 00BF     		.section	.text.TIM_CtrlPWMOutputs,"ax",%progbits
 3325              		.align	2
 3326              		.p2align 4,,15
 3327              		.global	TIM_CtrlPWMOutputs
 3328              		.thumb
 3329              		.thumb_func
 3330              		.type	TIM_CtrlPWMOutputs, %function
 3331              	TIM_CtrlPWMOutputs:
 3332              	.LFB186:
 3333              		.loc 1 2271 0
 3334              		.cfi_startproc
 3335              		@ args = 0, pretend = 0, frame = 0
 3336              		@ frame_needed = 0, uses_anonymous_args = 0
 3337              		@ link register save eliminated.
 3338              	.LVL330:
 3339              		.loc 1 2279 0
 3340 0000 436C     		ldr	r3, [r0, #68]
 3341              		.loc 1 2276 0
 3342 0002 19B9     		cbnz	r1, .L169
 3343              		.loc 1 2284 0
 3344 0004 C3F30E03 		ubfx	r3, r3, #0, #15
 3345 0008 4364     		str	r3, [r0, #68]
 3346 000a 7047     		bx	lr
 3347              	.L169:
 3348              		.loc 1 2279 0
 3349 000c 43F40043 		orr	r3, r3, #32768
 3350 0010 4364     		str	r3, [r0, #68]
 3351 0012 7047     		bx	lr
 3352              		.cfi_endproc
 3353              	.LFE186:
 3354              		.size	TIM_CtrlPWMOutputs, .-TIM_CtrlPWMOutputs
 3355              		.section	.text.TIM_SelectCOM,"ax",%progbits
 3356              		.align	2
 3357              		.p2align 4,,15
 3358              		.global	TIM_SelectCOM
 3359              		.thumb
 3360              		.thumb_func
 3361              		.type	TIM_SelectCOM, %function
 3362              	TIM_SelectCOM:
 3363              	.LFB187:
ARM GAS  /var/folders/m4/4md61f0s1_g0rzfghffqnxvr0000gn/T//ccSRVwbo.s 			page 60


 3364              		.loc 1 2296 0
 3365              		.cfi_startproc
 3366              		@ args = 0, pretend = 0, frame = 0
 3367              		@ frame_needed = 0, uses_anonymous_args = 0
 3368              		@ link register save eliminated.
 3369              	.LVL331:
 3370              		.loc 1 2301 0
 3371 0000 29B9     		cbnz	r1, .L173
 3372              		.loc 1 2309 0
 3373 0002 4268     		ldr	r2, [r0, #4]
 3374 0004 4FF6FB73 		movw	r3, #65531
 3375 0008 1340     		ands	r3, r3, r2
 3376 000a 4360     		str	r3, [r0, #4]
 3377 000c 7047     		bx	lr
 3378              	.L173:
 3379              		.loc 1 2304 0
 3380 000e 4368     		ldr	r3, [r0, #4]
 3381 0010 43F00403 		orr	r3, r3, #4
 3382 0014 4360     		str	r3, [r0, #4]
 3383 0016 7047     		bx	lr
 3384              		.cfi_endproc
 3385              	.LFE187:
 3386              		.size	TIM_SelectCOM, .-TIM_SelectCOM
 3387              		.section	.text.TIM_CCPreloadControl,"ax",%progbits
 3388              		.align	2
 3389              		.p2align 4,,15
 3390              		.global	TIM_CCPreloadControl
 3391              		.thumb
 3392              		.thumb_func
 3393              		.type	TIM_CCPreloadControl, %function
 3394              	TIM_CCPreloadControl:
 3395              	.LFB188:
 3396              		.loc 1 2321 0
 3397              		.cfi_startproc
 3398              		@ args = 0, pretend = 0, frame = 0
 3399              		@ frame_needed = 0, uses_anonymous_args = 0
 3400              		@ link register save eliminated.
 3401              	.LVL332:
 3402              		.loc 1 2325 0
 3403 0000 29B9     		cbnz	r1, .L177
 3404              		.loc 1 2333 0
 3405 0002 4268     		ldr	r2, [r0, #4]
 3406 0004 4FF6FE73 		movw	r3, #65534
 3407 0008 1340     		ands	r3, r3, r2
 3408 000a 4360     		str	r3, [r0, #4]
 3409 000c 7047     		bx	lr
 3410              	.L177:
 3411              		.loc 1 2328 0
 3412 000e 4368     		ldr	r3, [r0, #4]
 3413 0010 43F00103 		orr	r3, r3, #1
 3414 0014 4360     		str	r3, [r0, #4]
 3415 0016 7047     		bx	lr
 3416              		.cfi_endproc
 3417              	.LFE188:
 3418              		.size	TIM_CCPreloadControl, .-TIM_CCPreloadControl
 3419              		.section	.text.TIM_GenerateEvent,"ax",%progbits
 3420              		.align	2
ARM GAS  /var/folders/m4/4md61f0s1_g0rzfghffqnxvr0000gn/T//ccSRVwbo.s 			page 61


 3421              		.p2align 4,,15
 3422              		.global	TIM_GenerateEvent
 3423              		.thumb
 3424              		.thumb_func
 3425              		.type	TIM_GenerateEvent, %function
 3426              	TIM_GenerateEvent:
 3427              	.LFB190:
 3428              		.loc 1 2416 0
 3429              		.cfi_startproc
 3430              		@ args = 0, pretend = 0, frame = 0
 3431              		@ frame_needed = 0, uses_anonymous_args = 0
 3432              		@ link register save eliminated.
 3433              	.LVL333:
 3434              		.loc 1 2422 0
 3435 0000 4161     		str	r1, [r0, #20]
 3436 0002 7047     		bx	lr
 3437              		.cfi_endproc
 3438              	.LFE190:
 3439              		.size	TIM_GenerateEvent, .-TIM_GenerateEvent
 3440              		.section	.text.TIM_GetFlagStatus,"ax",%progbits
 3441              		.align	2
 3442              		.p2align 4,,15
 3443              		.global	TIM_GetFlagStatus
 3444              		.thumb
 3445              		.thumb_func
 3446              		.type	TIM_GetFlagStatus, %function
 3447              	TIM_GetFlagStatus:
 3448              	.LFB191:
 3449              		.loc 1 2449 0
 3450              		.cfi_startproc
 3451              		@ args = 0, pretend = 0, frame = 0
 3452              		@ frame_needed = 0, uses_anonymous_args = 0
 3453              		@ link register save eliminated.
 3454              	.LVL334:
 3455              		.loc 1 2456 0
 3456 0000 0369     		ldr	r3, [r0, #16]
 3457              	.LVL335:
 3458              		.loc 1 2464 0
 3459 0002 1942     		tst	r1, r3
 3460              		.loc 1 2465 0
 3461 0004 14BF     		ite	ne
 3462 0006 0120     		movne	r0, #1
 3463              	.LVL336:
 3464 0008 0020     		moveq	r0, #0
 3465 000a 7047     		bx	lr
 3466              		.cfi_endproc
 3467              	.LFE191:
 3468              		.size	TIM_GetFlagStatus, .-TIM_GetFlagStatus
 3469              		.section	.text.TIM_ClearFlag,"ax",%progbits
 3470              		.align	2
 3471              		.p2align 4,,15
 3472              		.global	TIM_ClearFlag
 3473              		.thumb
 3474              		.thumb_func
 3475              		.type	TIM_ClearFlag, %function
 3476              	TIM_ClearFlag:
 3477              	.LFB218:
ARM GAS  /var/folders/m4/4md61f0s1_g0rzfghffqnxvr0000gn/T//ccSRVwbo.s 			page 62


 3478              		.cfi_startproc
 3479              		@ args = 0, pretend = 0, frame = 0
 3480              		@ frame_needed = 0, uses_anonymous_args = 0
 3481              		@ link register save eliminated.
 3482 0000 C943     		mvns	r1, r1
 3483 0002 89B2     		uxth	r1, r1
 3484 0004 0161     		str	r1, [r0, #16]
 3485 0006 7047     		bx	lr
 3486              		.cfi_endproc
 3487              	.LFE218:
 3488              		.size	TIM_ClearFlag, .-TIM_ClearFlag
 3489              		.section	.text.TIM_GetITStatus,"ax",%progbits
 3490              		.align	2
 3491              		.p2align 4,,15
 3492              		.global	TIM_GetITStatus
 3493              		.thumb
 3494              		.thumb_func
 3495              		.type	TIM_GetITStatus, %function
 3496              	TIM_GetITStatus:
 3497              	.LFB193:
 3498              		.loc 1 2519 0
 3499              		.cfi_startproc
 3500              		@ args = 0, pretend = 0, frame = 0
 3501              		@ frame_needed = 0, uses_anonymous_args = 0
 3502              		@ link register save eliminated.
 3503              	.LVL337:
 3504              		.loc 1 2526 0
 3505 0000 0369     		ldr	r3, [r0, #16]
 3506              	.LVL338:
 3507              		.loc 1 2528 0
 3508 0002 C268     		ldr	r2, [r0, #12]
 3509              	.LVL339:
 3510              		.loc 1 2529 0
 3511 0004 11EA0300 		ands	r0, r1, r3
 3512              	.LVL340:
 3513 0008 03D0     		beq	.L182
 3514              		.loc 1 2531 0 discriminator 1
 3515 000a 1142     		tst	r1, r2
 3516 000c 14BF     		ite	ne
 3517 000e 0120     		movne	r0, #1
 3518 0010 0020     		moveq	r0, #0
 3519              	.L182:
 3520              	.LVL341:
 3521              		.loc 1 2538 0
 3522 0012 7047     		bx	lr
 3523              		.cfi_endproc
 3524              	.LFE193:
 3525              		.size	TIM_GetITStatus, .-TIM_GetITStatus
 3526              		.section	.text.TIM_ClearITPendingBit,"ax",%progbits
 3527              		.align	2
 3528              		.p2align 4,,15
 3529              		.global	TIM_ClearITPendingBit
 3530              		.thumb
 3531              		.thumb_func
 3532              		.type	TIM_ClearITPendingBit, %function
 3533              	TIM_ClearITPendingBit:
 3534              	.LFB194:
ARM GAS  /var/folders/m4/4md61f0s1_g0rzfghffqnxvr0000gn/T//ccSRVwbo.s 			page 63


 3535              		.loc 1 2560 0
 3536              		.cfi_startproc
 3537              		@ args = 0, pretend = 0, frame = 0
 3538              		@ frame_needed = 0, uses_anonymous_args = 0
 3539              		@ link register save eliminated.
 3540              	.LVL342:
 3541              		.loc 1 2565 0
 3542 0000 C943     		mvns	r1, r1
 3543              	.LVL343:
 3544 0002 89B2     		uxth	r1, r1
 3545 0004 0161     		str	r1, [r0, #16]
 3546 0006 7047     		bx	lr
 3547              		.cfi_endproc
 3548              	.LFE194:
 3549              		.size	TIM_ClearITPendingBit, .-TIM_ClearITPendingBit
 3550              		.section	.text.TIM_DMAConfig,"ax",%progbits
 3551              		.align	2
 3552              		.p2align 4,,15
 3553              		.global	TIM_DMAConfig
 3554              		.thumb
 3555              		.thumb_func
 3556              		.type	TIM_DMAConfig, %function
 3557              	TIM_DMAConfig:
 3558              	.LFB195:
 3559              		.loc 1 2597 0
 3560              		.cfi_startproc
 3561              		@ args = 0, pretend = 0, frame = 0
 3562              		@ frame_needed = 0, uses_anonymous_args = 0
 3563              		@ link register save eliminated.
 3564              	.LVL344:
 3565              		.loc 1 2604 0
 3566 0000 0A43     		orrs	r2, r2, r1
 3567              	.LVL345:
 3568 0002 8264     		str	r2, [r0, #72]
 3569 0004 7047     		bx	lr
 3570              		.cfi_endproc
 3571              	.LFE195:
 3572              		.size	TIM_DMAConfig, .-TIM_DMAConfig
 3573 0006 00BF     		.section	.text.TIM_DMACmd,"ax",%progbits
 3574              		.align	2
 3575              		.p2align 4,,15
 3576              		.global	TIM_DMACmd
 3577              		.thumb
 3578              		.thumb_func
 3579              		.type	TIM_DMACmd, %function
 3580              	TIM_DMACmd:
 3581              	.LFB196:
 3582              		.loc 1 2624 0
 3583              		.cfi_startproc
 3584              		@ args = 0, pretend = 0, frame = 0
 3585              		@ frame_needed = 0, uses_anonymous_args = 0
 3586              		@ link register save eliminated.
 3587              	.LVL346:
 3588              		.loc 1 2630 0
 3589 0000 2AB9     		cbnz	r2, .L189
 3590              		.loc 1 2638 0
 3591 0002 C368     		ldr	r3, [r0, #12]
ARM GAS  /var/folders/m4/4md61f0s1_g0rzfghffqnxvr0000gn/T//ccSRVwbo.s 			page 64


 3592 0004 C943     		mvns	r1, r1
 3593              	.LVL347:
 3594 0006 89B2     		uxth	r1, r1
 3595 0008 1940     		ands	r1, r1, r3
 3596 000a C160     		str	r1, [r0, #12]
 3597 000c 7047     		bx	lr
 3598              	.LVL348:
 3599              	.L189:
 3600              		.loc 1 2633 0
 3601 000e C368     		ldr	r3, [r0, #12]
 3602 0010 1943     		orrs	r1, r1, r3
 3603              	.LVL349:
 3604 0012 C160     		str	r1, [r0, #12]
 3605 0014 7047     		bx	lr
 3606              		.cfi_endproc
 3607              	.LFE196:
 3608              		.size	TIM_DMACmd, .-TIM_DMACmd
 3609 0016 00BF     		.section	.text.TIM_ITConfig,"ax",%progbits
 3610              		.align	2
 3611              		.p2align 4,,15
 3612              		.global	TIM_ITConfig
 3613              		.thumb
 3614              		.thumb_func
 3615              		.type	TIM_ITConfig, %function
 3616              	TIM_ITConfig:
 3617              	.LFB216:
 3618              		.cfi_startproc
 3619              		@ args = 0, pretend = 0, frame = 0
 3620              		@ frame_needed = 0, uses_anonymous_args = 0
 3621              		@ link register save eliminated.
 3622 0000 FFF7FEBF 		b	TIM_DMACmd
 3623              		.cfi_endproc
 3624              	.LFE216:
 3625              		.size	TIM_ITConfig, .-TIM_ITConfig
 3626              		.section	.text.TIM_SelectCCDMA,"ax",%progbits
 3627              		.align	2
 3628              		.p2align 4,,15
 3629              		.global	TIM_SelectCCDMA
 3630              		.thumb
 3631              		.thumb_func
 3632              		.type	TIM_SelectCCDMA, %function
 3633              	TIM_SelectCCDMA:
 3634              	.LFB197:
 3635              		.loc 1 2650 0
 3636              		.cfi_startproc
 3637              		@ args = 0, pretend = 0, frame = 0
 3638              		@ frame_needed = 0, uses_anonymous_args = 0
 3639              		@ link register save eliminated.
 3640              	.LVL350:
 3641              		.loc 1 2655 0
 3642 0000 29B9     		cbnz	r1, .L194
 3643              		.loc 1 2663 0
 3644 0002 4268     		ldr	r2, [r0, #4]
 3645 0004 4FF6F773 		movw	r3, #65527
 3646 0008 1340     		ands	r3, r3, r2
 3647 000a 4360     		str	r3, [r0, #4]
 3648 000c 7047     		bx	lr
ARM GAS  /var/folders/m4/4md61f0s1_g0rzfghffqnxvr0000gn/T//ccSRVwbo.s 			page 65


 3649              	.L194:
 3650              		.loc 1 2658 0
 3651 000e 4368     		ldr	r3, [r0, #4]
 3652 0010 43F00803 		orr	r3, r3, #8
 3653 0014 4360     		str	r3, [r0, #4]
 3654 0016 7047     		bx	lr
 3655              		.cfi_endproc
 3656              	.LFE197:
 3657              		.size	TIM_SelectCCDMA, .-TIM_SelectCCDMA
 3658              		.section	.text.TIM_InternalClockConfig,"ax",%progbits
 3659              		.align	2
 3660              		.p2align 4,,15
 3661              		.global	TIM_InternalClockConfig
 3662              		.thumb
 3663              		.thumb_func
 3664              		.type	TIM_InternalClockConfig, %function
 3665              	TIM_InternalClockConfig:
 3666              	.LFB198:
 3667              		.loc 1 2689 0
 3668              		.cfi_startproc
 3669              		@ args = 0, pretend = 0, frame = 0
 3670              		@ frame_needed = 0, uses_anonymous_args = 0
 3671              		@ link register save eliminated.
 3672              	.LVL351:
 3673              		.loc 1 2694 0
 3674 0000 8268     		ldr	r2, [r0, #8]
 3675 0002 4FF6F873 		movw	r3, #65528
 3676 0006 1340     		ands	r3, r3, r2
 3677 0008 8360     		str	r3, [r0, #8]
 3678 000a 7047     		bx	lr
 3679              		.cfi_endproc
 3680              	.LFE198:
 3681              		.size	TIM_InternalClockConfig, .-TIM_InternalClockConfig
 3682              		.section	.text.TIM_ITRxExternalClockConfig,"ax",%progbits
 3683              		.align	2
 3684              		.p2align 4,,15
 3685              		.global	TIM_ITRxExternalClockConfig
 3686              		.thumb
 3687              		.thumb_func
 3688              		.type	TIM_ITRxExternalClockConfig, %function
 3689              	TIM_ITRxExternalClockConfig:
 3690              	.LFB199:
 3691              		.loc 1 2710 0
 3692              		.cfi_startproc
 3693              		@ args = 0, pretend = 0, frame = 0
 3694              		@ frame_needed = 0, uses_anonymous_args = 0
 3695              		@ link register save eliminated.
 3696              	.LVL352:
 3697              	.LBB88:
 3698              	.LBB89:
 3699              		.loc 1 2906 0
 3700 0000 8268     		ldr	r2, [r0, #8]
 3701              	.LVL353:
 3702              		.loc 1 2909 0
 3703 0002 4FF68F73 		movw	r3, #65423
 3704 0006 1340     		ands	r3, r3, r2
 3705              	.LVL354:
ARM GAS  /var/folders/m4/4md61f0s1_g0rzfghffqnxvr0000gn/T//ccSRVwbo.s 			page 66


 3706              		.loc 1 2915 0
 3707 0008 1943     		orrs	r1, r1, r3
 3708              	.LVL355:
 3709 000a 8160     		str	r1, [r0, #8]
 3710              	.LVL356:
 3711              	.LBE89:
 3712              	.LBE88:
 3713              		.loc 1 2719 0
 3714 000c 8368     		ldr	r3, [r0, #8]
 3715 000e 43F00703 		orr	r3, r3, #7
 3716 0012 8360     		str	r3, [r0, #8]
 3717 0014 7047     		bx	lr
 3718              		.cfi_endproc
 3719              	.LFE199:
 3720              		.size	TIM_ITRxExternalClockConfig, .-TIM_ITRxExternalClockConfig
 3721 0016 00BF     		.section	.text.TIM_TIxExternalClockConfig,"ax",%progbits
 3722              		.align	2
 3723              		.p2align 4,,15
 3724              		.global	TIM_TIxExternalClockConfig
 3725              		.thumb
 3726              		.thumb_func
 3727              		.type	TIM_TIxExternalClockConfig, %function
 3728              	TIM_TIxExternalClockConfig:
 3729              	.LFB200:
 3730              		.loc 1 2741 0
 3731              		.cfi_startproc
 3732              		@ args = 0, pretend = 0, frame = 0
 3733              		@ frame_needed = 0, uses_anonymous_args = 0
 3734              		@ link register save eliminated.
 3735              	.LVL357:
 3736              		.loc 1 2748 0
 3737 0000 6029     		cmp	r1, #96
 3738              		.loc 1 2741 0
 3739 0002 70B4     		push	{r4, r5, r6}
 3740              		.cfi_def_cfa_offset 12
 3741              		.cfi_offset 4, -12
 3742              		.cfi_offset 5, -8
 3743              		.cfi_offset 6, -4
 3744              	.LBB90:
 3745              	.LBB91:
 3746              		.loc 1 3256 0
 3747 0004 056A     		ldr	r5, [r0, #32]
 3748              	.LBE91:
 3749              	.LBE90:
 3750              		.loc 1 2748 0
 3751 0006 21D0     		beq	.L201
 3752              	.LVL358:
 3753              	.LBB93:
 3754              	.LBB94:
 3755              		.loc 1 3215 0
 3756 0008 4FF6FE74 		movw	r4, #65534
 3757 000c 2C40     		ands	r4, r4, r5
 3758 000e 0462     		str	r4, [r0, #32]
 3759              		.loc 1 3216 0
 3760 0010 8469     		ldr	r4, [r0, #24]
 3761              		.loc 1 3217 0
 3762 0012 056A     		ldr	r5, [r0, #32]
ARM GAS  /var/folders/m4/4md61f0s1_g0rzfghffqnxvr0000gn/T//ccSRVwbo.s 			page 67


 3763              		.loc 1 3216 0
 3764 0014 A4B2     		uxth	r4, r4
 3765              	.LVL359:
 3766 0016 24F0F304 		bic	r4, r4, #243
 3767              	.LVL360:
 3768              		.loc 1 3217 0
 3769 001a ADB2     		uxth	r5, r5
 3770              	.LVL361:
 3771 001c 44F00104 		orr	r4, r4, #1
 3772              	.LVL362:
 3773 0020 25F00A05 		bic	r5, r5, #10
 3774              	.LVL363:
 3775              		.loc 1 3228 0
 3776 0024 44EA0313 		orr	r3, r4, r3, lsl #4
 3777              	.LVL364:
 3778 0028 45F00104 		orr	r4, r5, #1
 3779              	.LVL365:
 3780 002c 9BB2     		uxth	r3, r3
 3781              		.loc 1 3229 0
 3782 002e 2243     		orrs	r2, r2, r4
 3783              	.LVL366:
 3784              		.loc 1 3228 0
 3785 0030 8361     		str	r3, [r0, #24]
 3786              		.loc 1 3229 0
 3787 0032 0262     		str	r2, [r0, #32]
 3788              	.LVL367:
 3789              	.L199:
 3790              	.LBE94:
 3791              	.LBE93:
 3792              	.LBB95:
 3793              	.LBB96:
 3794              		.loc 1 2906 0
 3795 0034 8268     		ldr	r2, [r0, #8]
 3796              	.LVL368:
 3797              		.loc 1 2909 0
 3798 0036 4FF68F73 		movw	r3, #65423
 3799 003a 1340     		ands	r3, r3, r2
 3800              	.LVL369:
 3801              		.loc 1 2915 0
 3802 003c 1943     		orrs	r1, r1, r3
 3803              	.LVL370:
 3804 003e 8160     		str	r1, [r0, #8]
 3805              	.LVL371:
 3806              	.LBE96:
 3807              	.LBE95:
 3808              		.loc 1 2759 0
 3809 0040 8368     		ldr	r3, [r0, #8]
 3810 0042 43F00703 		orr	r3, r3, #7
 3811 0046 8360     		str	r3, [r0, #8]
 3812              		.loc 1 2760 0
 3813 0048 70BC     		pop	{r4, r5, r6}
 3814              		.cfi_remember_state
 3815              		.cfi_restore 6
 3816              		.cfi_restore 5
 3817              		.cfi_restore 4
 3818              		.cfi_def_cfa_offset 0
 3819 004a 7047     		bx	lr
ARM GAS  /var/folders/m4/4md61f0s1_g0rzfghffqnxvr0000gn/T//ccSRVwbo.s 			page 68


 3820              	.LVL372:
 3821              	.L201:
 3822              		.cfi_restore_state
 3823              	.LBB97:
 3824              	.LBB92:
 3825              		.loc 1 3256 0
 3826 004c 4FF6EF74 		movw	r4, #65519
 3827 0050 2C40     		ands	r4, r4, r5
 3828 0052 0462     		str	r4, [r0, #32]
 3829              		.loc 1 3257 0
 3830 0054 8669     		ldr	r6, [r0, #24]
 3831              	.LVL373:
 3832              		.loc 1 3258 0
 3833 0056 046A     		ldr	r4, [r0, #32]
 3834 0058 40F6FF45 		movw	r5, #3327
 3835 005c A4B2     		uxth	r4, r4
 3836              	.LVL374:
 3837 005e 3540     		ands	r5, r5, r6
 3838 0060 24F0A004 		bic	r4, r4, #160
 3839              	.LVL375:
 3840 0064 45F48075 		orr	r5, r5, #256
 3841              	.LVL376:
 3842 0068 44F01004 		orr	r4, r4, #16
 3843              	.LVL377:
 3844              		.loc 1 3271 0
 3845 006c 45EA0333 		orr	r3, r5, r3, lsl #12
 3846              	.LVL378:
 3847              		.loc 1 3272 0
 3848 0070 44EA0212 		orr	r2, r4, r2, lsl #4
 3849              	.LVL379:
 3850              		.loc 1 3271 0
 3851 0074 9BB2     		uxth	r3, r3
 3852              		.loc 1 3272 0
 3853 0076 92B2     		uxth	r2, r2
 3854              		.loc 1 3271 0
 3855 0078 8361     		str	r3, [r0, #24]
 3856              		.loc 1 3272 0
 3857 007a 0262     		str	r2, [r0, #32]
 3858 007c DAE7     		b	.L199
 3859              	.LBE92:
 3860              	.LBE97:
 3861              		.cfi_endproc
 3862              	.LFE200:
 3863              		.size	TIM_TIxExternalClockConfig, .-TIM_TIxExternalClockConfig
 3864 007e 00BF     		.section	.text.TIM_ETRClockMode1Config,"ax",%progbits
 3865              		.align	2
 3866              		.p2align 4,,15
 3867              		.global	TIM_ETRClockMode1Config
 3868              		.thumb
 3869              		.thumb_func
 3870              		.type	TIM_ETRClockMode1Config, %function
 3871              	TIM_ETRClockMode1Config:
 3872              	.LFB201:
 3873              		.loc 1 2781 0
 3874              		.cfi_startproc
 3875              		@ args = 0, pretend = 0, frame = 0
 3876              		@ frame_needed = 0, uses_anonymous_args = 0
ARM GAS  /var/folders/m4/4md61f0s1_g0rzfghffqnxvr0000gn/T//ccSRVwbo.s 			page 69


 3877              		@ link register save eliminated.
 3878              	.LVL380:
 3879 0000 10B4     		push	{r4}
 3880              		.cfi_def_cfa_offset 4
 3881              		.cfi_offset 4, -4
 3882              	.LBB98:
 3883              	.LBB99:
 3884              		.loc 1 3028 0
 3885 0002 8468     		ldr	r4, [r0, #8]
 3886              	.LVL381:
 3887 0004 42EA0323 		orr	r3, r2, r3, lsl #8
 3888              	.LVL382:
 3889 0008 E4B2     		uxtb	r4, r4
 3890              	.LVL383:
 3891 000a 2343     		orrs	r3, r3, r4
 3892 000c 9BB2     		uxth	r3, r3
 3893              	.LVL384:
 3894              		.loc 1 3037 0
 3895 000e 1943     		orrs	r1, r1, r3
 3896              	.LVL385:
 3897 0010 8160     		str	r1, [r0, #8]
 3898              	.LVL386:
 3899              	.LBE99:
 3900              	.LBE98:
 3901              		.loc 1 2793 0
 3902 0012 8368     		ldr	r3, [r0, #8]
 3903              	.LVL387:
 3904              		.loc 1 2807 0
 3905 0014 5DF8044B 		ldr	r4, [sp], #4
 3906              		.cfi_restore 4
 3907              		.cfi_def_cfa_offset 0
 3908 0018 23F07703 		bic	r3, r3, #119
 3909              	.LVL388:
 3910 001c 9BB2     		uxth	r3, r3
 3911              	.LVL389:
 3912              		.loc 1 2806 0
 3913 001e 43F07703 		orr	r3, r3, #119
 3914              	.LVL390:
 3915 0022 8360     		str	r3, [r0, #8]
 3916              		.loc 1 2807 0
 3917 0024 7047     		bx	lr
 3918              		.cfi_endproc
 3919              	.LFE201:
 3920              		.size	TIM_ETRClockMode1Config, .-TIM_ETRClockMode1Config
 3921 0026 00BF     		.section	.text.TIM_ETRClockMode2Config,"ax",%progbits
 3922              		.align	2
 3923              		.p2align 4,,15
 3924              		.global	TIM_ETRClockMode2Config
 3925              		.thumb
 3926              		.thumb_func
 3927              		.type	TIM_ETRClockMode2Config, %function
 3928              	TIM_ETRClockMode2Config:
 3929              	.LFB202:
 3930              		.loc 1 2828 0
 3931              		.cfi_startproc
 3932              		@ args = 0, pretend = 0, frame = 0
 3933              		@ frame_needed = 0, uses_anonymous_args = 0
ARM GAS  /var/folders/m4/4md61f0s1_g0rzfghffqnxvr0000gn/T//ccSRVwbo.s 			page 70


 3934              		@ link register save eliminated.
 3935              	.LVL391:
 3936 0000 10B4     		push	{r4}
 3937              		.cfi_def_cfa_offset 4
 3938              		.cfi_offset 4, -4
 3939              	.LBB100:
 3940              	.LBB101:
 3941              		.loc 1 3028 0
 3942 0002 8468     		ldr	r4, [r0, #8]
 3943              	.LVL392:
 3944 0004 42EA0323 		orr	r3, r2, r3, lsl #8
 3945              	.LVL393:
 3946 0008 E4B2     		uxtb	r4, r4
 3947              	.LVL394:
 3948 000a 2343     		orrs	r3, r3, r4
 3949 000c 9BB2     		uxth	r3, r3
 3950              	.LVL395:
 3951              		.loc 1 3037 0
 3952 000e 1943     		orrs	r1, r1, r3
 3953              	.LVL396:
 3954 0010 8160     		str	r1, [r0, #8]
 3955              	.LVL397:
 3956              	.LBE101:
 3957              	.LBE100:
 3958              		.loc 1 2839 0
 3959 0012 8368     		ldr	r3, [r0, #8]
 3960              		.loc 1 2840 0
 3961 0014 5DF8044B 		ldr	r4, [sp], #4
 3962              		.cfi_restore 4
 3963              		.cfi_def_cfa_offset 0
 3964              		.loc 1 2839 0
 3965 0018 43F48043 		orr	r3, r3, #16384
 3966 001c 8360     		str	r3, [r0, #8]
 3967              		.loc 1 2840 0
 3968 001e 7047     		bx	lr
 3969              		.cfi_endproc
 3970              	.LFE202:
 3971              		.size	TIM_ETRClockMode2Config, .-TIM_ETRClockMode2Config
 3972              		.section	.text.TIM_SelectInputTrigger,"ax",%progbits
 3973              		.align	2
 3974              		.p2align 4,,15
 3975              		.global	TIM_SelectInputTrigger
 3976              		.thumb
 3977              		.thumb_func
 3978              		.type	TIM_SelectInputTrigger, %function
 3979              	TIM_SelectInputTrigger:
 3980              	.LFB203:
 3981              		.loc 1 2898 0
 3982              		.cfi_startproc
 3983              		@ args = 0, pretend = 0, frame = 0
 3984              		@ frame_needed = 0, uses_anonymous_args = 0
 3985              		@ link register save eliminated.
 3986              	.LVL398:
 3987              		.loc 1 2906 0
 3988 0000 8268     		ldr	r2, [r0, #8]
 3989              	.LVL399:
 3990              		.loc 1 2909 0
ARM GAS  /var/folders/m4/4md61f0s1_g0rzfghffqnxvr0000gn/T//ccSRVwbo.s 			page 71


 3991 0002 4FF68F73 		movw	r3, #65423
 3992 0006 1340     		ands	r3, r3, r2
 3993              	.LVL400:
 3994              		.loc 1 2915 0
 3995 0008 1943     		orrs	r1, r1, r3
 3996              	.LVL401:
 3997 000a 8160     		str	r1, [r0, #8]
 3998 000c 7047     		bx	lr
 3999              		.cfi_endproc
 4000              	.LFE203:
 4001              		.size	TIM_SelectInputTrigger, .-TIM_SelectInputTrigger
 4002 000e 00BF     		.section	.text.TIM_SelectOutputTrigger,"ax",%progbits
 4003              		.align	2
 4004              		.p2align 4,,15
 4005              		.global	TIM_SelectOutputTrigger
 4006              		.thumb
 4007              		.thumb_func
 4008              		.type	TIM_SelectOutputTrigger, %function
 4009              	TIM_SelectOutputTrigger:
 4010              	.LFB204:
 4011              		.loc 1 2941 0
 4012              		.cfi_startproc
 4013              		@ args = 0, pretend = 0, frame = 0
 4014              		@ frame_needed = 0, uses_anonymous_args = 0
 4015              		@ link register save eliminated.
 4016              	.LVL402:
 4017              		.loc 1 2947 0
 4018 0000 4268     		ldr	r2, [r0, #4]
 4019 0002 4FF68F73 		movw	r3, #65423
 4020 0006 1340     		ands	r3, r3, r2
 4021 0008 4360     		str	r3, [r0, #4]
 4022              		.loc 1 2949 0
 4023 000a 4368     		ldr	r3, [r0, #4]
 4024 000c 1943     		orrs	r1, r1, r3
 4025              	.LVL403:
 4026 000e 4160     		str	r1, [r0, #4]
 4027 0010 7047     		bx	lr
 4028              		.cfi_endproc
 4029              	.LFE204:
 4030              		.size	TIM_SelectOutputTrigger, .-TIM_SelectOutputTrigger
 4031 0012 00BF     		.section	.text.TIM_SelectSlaveMode,"ax",%progbits
 4032              		.align	2
 4033              		.p2align 4,,15
 4034              		.global	TIM_SelectSlaveMode
 4035              		.thumb
 4036              		.thumb_func
 4037              		.type	TIM_SelectSlaveMode, %function
 4038              	TIM_SelectSlaveMode:
 4039              	.LFB205:
 4040              		.loc 1 2965 0
 4041              		.cfi_startproc
 4042              		@ args = 0, pretend = 0, frame = 0
 4043              		@ frame_needed = 0, uses_anonymous_args = 0
 4044              		@ link register save eliminated.
 4045              	.LVL404:
 4046              		.loc 1 2971 0
 4047 0000 8268     		ldr	r2, [r0, #8]
ARM GAS  /var/folders/m4/4md61f0s1_g0rzfghffqnxvr0000gn/T//ccSRVwbo.s 			page 72


 4048 0002 4FF6F873 		movw	r3, #65528
 4049 0006 1340     		ands	r3, r3, r2
 4050 0008 8360     		str	r3, [r0, #8]
 4051              		.loc 1 2974 0
 4052 000a 8368     		ldr	r3, [r0, #8]
 4053 000c 1943     		orrs	r1, r1, r3
 4054              	.LVL405:
 4055 000e 8160     		str	r1, [r0, #8]
 4056 0010 7047     		bx	lr
 4057              		.cfi_endproc
 4058              	.LFE205:
 4059              		.size	TIM_SelectSlaveMode, .-TIM_SelectSlaveMode
 4060 0012 00BF     		.section	.text.TIM_SelectMasterSlaveMode,"ax",%progbits
 4061              		.align	2
 4062              		.p2align 4,,15
 4063              		.global	TIM_SelectMasterSlaveMode
 4064              		.thumb
 4065              		.thumb_func
 4066              		.type	TIM_SelectMasterSlaveMode, %function
 4067              	TIM_SelectMasterSlaveMode:
 4068              	.LFB206:
 4069              		.loc 1 2988 0
 4070              		.cfi_startproc
 4071              		@ args = 0, pretend = 0, frame = 0
 4072              		@ frame_needed = 0, uses_anonymous_args = 0
 4073              		@ link register save eliminated.
 4074              	.LVL406:
 4075              		.loc 1 2994 0
 4076 0000 8268     		ldr	r2, [r0, #8]
 4077 0002 4FF67F73 		movw	r3, #65407
 4078 0006 1340     		ands	r3, r3, r2
 4079 0008 8360     		str	r3, [r0, #8]
 4080              		.loc 1 2997 0
 4081 000a 8368     		ldr	r3, [r0, #8]
 4082 000c 1943     		orrs	r1, r1, r3
 4083              	.LVL407:
 4084 000e 8160     		str	r1, [r0, #8]
 4085 0010 7047     		bx	lr
 4086              		.cfi_endproc
 4087              	.LFE206:
 4088              		.size	TIM_SelectMasterSlaveMode, .-TIM_SelectMasterSlaveMode
 4089 0012 00BF     		.section	.text.TIM_ETRConfig,"ax",%progbits
 4090              		.align	2
 4091              		.p2align 4,,15
 4092              		.global	TIM_ETRConfig
 4093              		.thumb
 4094              		.thumb_func
 4095              		.type	TIM_ETRConfig, %function
 4096              	TIM_ETRConfig:
 4097              	.LFB207:
 4098              		.loc 1 3019 0
 4099              		.cfi_startproc
 4100              		@ args = 0, pretend = 0, frame = 0
 4101              		@ frame_needed = 0, uses_anonymous_args = 0
 4102              		@ link register save eliminated.
 4103              	.LVL408:
 4104 0000 10B4     		push	{r4}
ARM GAS  /var/folders/m4/4md61f0s1_g0rzfghffqnxvr0000gn/T//ccSRVwbo.s 			page 73


 4105              		.cfi_def_cfa_offset 4
 4106              		.cfi_offset 4, -4
 4107              		.loc 1 3028 0
 4108 0002 8468     		ldr	r4, [r0, #8]
 4109              	.LVL409:
 4110 0004 E4B2     		uxtb	r4, r4
 4111              	.LVL410:
 4112 0006 2143     		orrs	r1, r1, r4
 4113              	.LVL411:
 4114 0008 0A43     		orrs	r2, r2, r1
 4115              	.LVL412:
 4116              		.loc 1 3037 0
 4117 000a 42EA0323 		orr	r3, r2, r3, lsl #8
 4118              	.LVL413:
 4119 000e 99B2     		uxth	r1, r3
 4120 0010 8160     		str	r1, [r0, #8]
 4121              		.loc 1 3038 0
 4122 0012 5DF8044B 		ldr	r4, [sp], #4
 4123              		.cfi_restore 4
 4124              		.cfi_def_cfa_offset 0
 4125 0016 7047     		bx	lr
 4126              		.cfi_endproc
 4127              	.LFE207:
 4128              		.size	TIM_ETRConfig, .-TIM_ETRConfig
 4129              		.section	.text.TIM_EncoderInterfaceConfig,"ax",%progbits
 4130              		.align	2
 4131              		.p2align 4,,15
 4132              		.global	TIM_EncoderInterfaceConfig
 4133              		.thumb
 4134              		.thumb_func
 4135              		.type	TIM_EncoderInterfaceConfig, %function
 4136              	TIM_EncoderInterfaceConfig:
 4137              	.LFB208:
 4138              		.loc 1 3077 0
 4139              		.cfi_startproc
 4140              		@ args = 0, pretend = 0, frame = 0
 4141              		@ frame_needed = 0, uses_anonymous_args = 0
 4142              	.LVL414:
 4143 0000 F0B5     		push	{r4, r5, r6, r7, lr}
 4144              		.cfi_def_cfa_offset 20
 4145              		.cfi_offset 4, -20
 4146              		.cfi_offset 5, -16
 4147              		.cfi_offset 6, -12
 4148              		.cfi_offset 7, -8
 4149              		.cfi_offset 14, -4
 4150              		.loc 1 3089 0
 4151 0002 8768     		ldr	r7, [r0, #8]
 4152              	.LVL415:
 4153              		.loc 1 3092 0
 4154 0004 D0F818E0 		ldr	lr, [r0, #24]
 4155              	.LVL416:
 4156              		.loc 1 3095 0
 4157 0008 046A     		ldr	r4, [r0, #32]
 4158 000a A4B2     		uxth	r4, r4
 4159              	.LVL417:
 4160              		.loc 1 3102 0
 4161 000c 4FF6FC45 		movw	r5, #64764
ARM GAS  /var/folders/m4/4md61f0s1_g0rzfghffqnxvr0000gn/T//ccSRVwbo.s 			page 74


 4162 0010 24F02204 		bic	r4, r4, #34
 4163              	.LVL418:
 4164 0014 2243     		orrs	r2, r2, r4
 4165              	.LVL419:
 4166              		.loc 1 3098 0
 4167 0016 4FF6F876 		movw	r6, #65528
 4168              		.loc 1 3102 0
 4169 001a 0EEA0505 		and	r5, lr, r5
 4170              		.loc 1 3098 0
 4171 001e 3E40     		ands	r6, r6, r7
 4172              	.LVL420:
 4173              		.loc 1 3116 0
 4174 0020 42EA0313 		orr	r3, r2, r3, lsl #4
 4175              	.LVL421:
 4176              		.loc 1 3113 0
 4177 0024 45F48075 		orr	r5, r5, #256
 4178              	.LVL422:
 4179              		.loc 1 3110 0
 4180 0028 3143     		orrs	r1, r1, r6
 4181              	.LVL423:
 4182              		.loc 1 3116 0
 4183 002a 9AB2     		uxth	r2, r3
 4184              	.LVL424:
 4185              		.loc 1 3113 0
 4186 002c 45F00105 		orr	r5, r5, #1
 4187              		.loc 1 3110 0
 4188 0030 8160     		str	r1, [r0, #8]
 4189              		.loc 1 3113 0
 4190 0032 8561     		str	r5, [r0, #24]
 4191              		.loc 1 3116 0
 4192 0034 0262     		str	r2, [r0, #32]
 4193 0036 F0BD     		pop	{r4, r5, r6, r7, pc}
 4194              		.cfi_endproc
 4195              	.LFE208:
 4196              		.size	TIM_EncoderInterfaceConfig, .-TIM_EncoderInterfaceConfig
 4197              		.section	.text.TIM_SelectHallSensor,"ax",%progbits
 4198              		.align	2
 4199              		.p2align 4,,15
 4200              		.global	TIM_SelectHallSensor
 4201              		.thumb
 4202              		.thumb_func
 4203              		.type	TIM_SelectHallSensor, %function
 4204              	TIM_SelectHallSensor:
 4205              	.LFB209:
 4206              		.loc 1 3128 0
 4207              		.cfi_startproc
 4208              		@ args = 0, pretend = 0, frame = 0
 4209              		@ frame_needed = 0, uses_anonymous_args = 0
 4210              		@ link register save eliminated.
 4211              	.LVL425:
 4212              		.loc 1 3133 0
 4213 0000 29B9     		cbnz	r1, .L217
 4214              		.loc 1 3141 0
 4215 0002 4268     		ldr	r2, [r0, #4]
 4216 0004 4FF67F73 		movw	r3, #65407
 4217 0008 1340     		ands	r3, r3, r2
 4218 000a 4360     		str	r3, [r0, #4]
ARM GAS  /var/folders/m4/4md61f0s1_g0rzfghffqnxvr0000gn/T//ccSRVwbo.s 			page 75


 4219 000c 7047     		bx	lr
 4220              	.L217:
 4221              		.loc 1 3136 0
 4222 000e 4368     		ldr	r3, [r0, #4]
 4223 0010 43F08003 		orr	r3, r3, #128
 4224 0014 4360     		str	r3, [r0, #4]
 4225 0016 7047     		bx	lr
 4226              		.cfi_endproc
 4227              	.LFE209:
 4228              		.size	TIM_SelectHallSensor, .-TIM_SelectHallSensor
 4229              		.section	.text.TIM_RemapConfig,"ax",%progbits
 4230              		.align	2
 4231              		.p2align 4,,15
 4232              		.global	TIM_RemapConfig
 4233              		.thumb
 4234              		.thumb_func
 4235              		.type	TIM_RemapConfig, %function
 4236              	TIM_RemapConfig:
 4237              	.LFB210:
 4238              		.loc 1 3179 0
 4239              		.cfi_startproc
 4240              		@ args = 0, pretend = 0, frame = 0
 4241              		@ frame_needed = 0, uses_anonymous_args = 0
 4242              		@ link register save eliminated.
 4243              	.LVL426:
 4244              		.loc 1 3185 0
 4245 0000 0165     		str	r1, [r0, #80]
 4246 0002 7047     		bx	lr
 4247              		.cfi_endproc
 4248              	.LFE210:
 4249              		.size	TIM_RemapConfig, .-TIM_RemapConfig
 4250              		.text
 4251              	.Letext0:
 4252              		.file 2 "/opt/homebrew-cask/Caskroom/gcc-arm-embedded/5_2-2015q4,20151219/gcc-arm-none-eabi-5_2-20
 4253              		.file 3 "/opt/homebrew-cask/Caskroom/gcc-arm-embedded/5_2-2015q4,20151219/gcc-arm-none-eabi-5_2-20
 4254              		.file 4 "ChibiOS_16.1.4/os/ext/CMSIS/ST/STM32F4xx/stm32f405xx.h"
 4255              		.file 5 "ChibiOS_16.1.4/os/ext/CMSIS/ST/STM32F4xx/stm32f4xx.h"
 4256              		.file 6 "ChibiOS_16.1.4/ext/stdperiph_stm32f4/inc/stm32f4xx_tim.h"
 4257              		.file 7 "ChibiOS_16.1.4/ext/stdperiph_stm32f4/inc/stm32f4xx_rcc.h"
 4258              		.file 8 "ChibiOS_16.1.4/os/ext/CMSIS/include/core_cm4.h"
 4259              		.section	.debug_info,"",%progbits
 4260              	.Ldebug_info0:
 4261 0000 C7230000 		.4byte	0x23c7
 4262 0004 0400     		.2byte	0x4
 4263 0006 00000000 		.4byte	.Ldebug_abbrev0
 4264 000a 04       		.byte	0x4
 4265 000b 01       		.uleb128 0x1
 4266 000c 7D070000 		.4byte	.LASF213
 4267 0010 0C       		.byte	0xc
 4268 0011 0C090000 		.4byte	.LASF214
 4269 0015 B5050000 		.4byte	.LASF215
 4270 0019 90000000 		.4byte	.Ldebug_ranges0+0x90
 4271 001d 00000000 		.4byte	0
 4272 0021 00000000 		.4byte	.Ldebug_line0
 4273 0025 02       		.uleb128 0x2
 4274 0026 01       		.byte	0x1
 4275 0027 06       		.byte	0x6
ARM GAS  /var/folders/m4/4md61f0s1_g0rzfghffqnxvr0000gn/T//ccSRVwbo.s 			page 76


 4276 0028 88020000 		.4byte	.LASF0
 4277 002c 03       		.uleb128 0x3
 4278 002d D0000000 		.4byte	.LASF3
 4279 0031 02       		.byte	0x2
 4280 0032 1D       		.byte	0x1d
 4281 0033 37000000 		.4byte	0x37
 4282 0037 02       		.uleb128 0x2
 4283 0038 01       		.byte	0x1
 4284 0039 08       		.byte	0x8
 4285 003a C2090000 		.4byte	.LASF1
 4286 003e 02       		.uleb128 0x2
 4287 003f 02       		.byte	0x2
 4288 0040 05       		.byte	0x5
 4289 0041 000A0000 		.4byte	.LASF2
 4290 0045 03       		.uleb128 0x3
 4291 0046 C3030000 		.4byte	.LASF4
 4292 004a 02       		.byte	0x2
 4293 004b 2B       		.byte	0x2b
 4294 004c 50000000 		.4byte	0x50
 4295 0050 02       		.uleb128 0x2
 4296 0051 02       		.byte	0x2
 4297 0052 07       		.byte	0x7
 4298 0053 0D0C0000 		.4byte	.LASF5
 4299 0057 03       		.uleb128 0x3
 4300 0058 840B0000 		.4byte	.LASF6
 4301 005c 02       		.byte	0x2
 4302 005d 3F       		.byte	0x3f
 4303 005e 62000000 		.4byte	0x62
 4304 0062 02       		.uleb128 0x2
 4305 0063 04       		.byte	0x4
 4306 0064 05       		.byte	0x5
 4307 0065 E5020000 		.4byte	.LASF7
 4308 0069 03       		.uleb128 0x3
 4309 006a DA030000 		.4byte	.LASF8
 4310 006e 02       		.byte	0x2
 4311 006f 41       		.byte	0x41
 4312 0070 74000000 		.4byte	0x74
 4313 0074 02       		.uleb128 0x2
 4314 0075 04       		.byte	0x4
 4315 0076 07       		.byte	0x7
 4316 0077 E40A0000 		.4byte	.LASF9
 4317 007b 02       		.uleb128 0x2
 4318 007c 08       		.byte	0x8
 4319 007d 05       		.byte	0x5
 4320 007e 14030000 		.4byte	.LASF10
 4321 0082 02       		.uleb128 0x2
 4322 0083 08       		.byte	0x8
 4323 0084 07       		.byte	0x7
 4324 0085 AD020000 		.4byte	.LASF11
 4325 0089 04       		.uleb128 0x4
 4326 008a 04       		.byte	0x4
 4327 008b 05       		.byte	0x5
 4328 008c 696E7400 		.ascii	"int\000"
 4329 0090 02       		.uleb128 0x2
 4330 0091 04       		.byte	0x4
 4331 0092 07       		.byte	0x7
 4332 0093 6A040000 		.4byte	.LASF12
ARM GAS  /var/folders/m4/4md61f0s1_g0rzfghffqnxvr0000gn/T//ccSRVwbo.s 			page 77


 4333 0097 03       		.uleb128 0x3
 4334 0098 E10C0000 		.4byte	.LASF13
 4335 009c 03       		.byte	0x3
 4336 009d 14       		.byte	0x14
 4337 009e 2C000000 		.4byte	0x2c
 4338 00a2 03       		.uleb128 0x3
 4339 00a3 22030000 		.4byte	.LASF14
 4340 00a7 03       		.byte	0x3
 4341 00a8 1A       		.byte	0x1a
 4342 00a9 45000000 		.4byte	0x45
 4343 00ad 03       		.uleb128 0x3
 4344 00ae BA090000 		.4byte	.LASF15
 4345 00b2 03       		.byte	0x3
 4346 00b3 1F       		.byte	0x1f
 4347 00b4 57000000 		.4byte	0x57
 4348 00b8 03       		.uleb128 0x3
 4349 00b9 870C0000 		.4byte	.LASF16
 4350 00bd 03       		.byte	0x3
 4351 00be 20       		.byte	0x20
 4352 00bf 69000000 		.4byte	0x69
 4353 00c3 02       		.uleb128 0x2
 4354 00c4 04       		.byte	0x4
 4355 00c5 07       		.byte	0x7
 4356 00c6 B0060000 		.4byte	.LASF17
 4357 00ca 05       		.uleb128 0x5
 4358 00cb B8000000 		.4byte	0xb8
 4359 00cf 06       		.uleb128 0x6
 4360 00d0 54       		.byte	0x54
 4361 00d1 04       		.byte	0x4
 4362 00d2 8C02     		.2byte	0x28c
 4363 00d4 E8010000 		.4byte	0x1e8
 4364 00d8 07       		.uleb128 0x7
 4365 00d9 43523100 		.ascii	"CR1\000"
 4366 00dd 04       		.byte	0x4
 4367 00de 8E02     		.2byte	0x28e
 4368 00e0 CA000000 		.4byte	0xca
 4369 00e4 00       		.byte	0
 4370 00e5 07       		.uleb128 0x7
 4371 00e6 43523200 		.ascii	"CR2\000"
 4372 00ea 04       		.byte	0x4
 4373 00eb 8F02     		.2byte	0x28f
 4374 00ed CA000000 		.4byte	0xca
 4375 00f1 04       		.byte	0x4
 4376 00f2 08       		.uleb128 0x8
 4377 00f3 63050000 		.4byte	.LASF18
 4378 00f7 04       		.byte	0x4
 4379 00f8 9002     		.2byte	0x290
 4380 00fa CA000000 		.4byte	0xca
 4381 00fe 08       		.byte	0x8
 4382 00ff 08       		.uleb128 0x8
 4383 0100 4A000000 		.4byte	.LASF19
 4384 0104 04       		.byte	0x4
 4385 0105 9102     		.2byte	0x291
 4386 0107 CA000000 		.4byte	0xca
 4387 010b 0C       		.byte	0xc
 4388 010c 07       		.uleb128 0x7
 4389 010d 535200   		.ascii	"SR\000"
ARM GAS  /var/folders/m4/4md61f0s1_g0rzfghffqnxvr0000gn/T//ccSRVwbo.s 			page 78


 4390 0110 04       		.byte	0x4
 4391 0111 9202     		.2byte	0x292
 4392 0113 CA000000 		.4byte	0xca
 4393 0117 10       		.byte	0x10
 4394 0118 07       		.uleb128 0x7
 4395 0119 45475200 		.ascii	"EGR\000"
 4396 011d 04       		.byte	0x4
 4397 011e 9302     		.2byte	0x293
 4398 0120 CA000000 		.4byte	0xca
 4399 0124 14       		.byte	0x14
 4400 0125 08       		.uleb128 0x8
 4401 0126 66020000 		.4byte	.LASF20
 4402 012a 04       		.byte	0x4
 4403 012b 9402     		.2byte	0x294
 4404 012d CA000000 		.4byte	0xca
 4405 0131 18       		.byte	0x18
 4406 0132 08       		.uleb128 0x8
 4407 0133 6C020000 		.4byte	.LASF21
 4408 0137 04       		.byte	0x4
 4409 0138 9502     		.2byte	0x295
 4410 013a CA000000 		.4byte	0xca
 4411 013e 1C       		.byte	0x1c
 4412 013f 08       		.uleb128 0x8
 4413 0140 0F030000 		.4byte	.LASF22
 4414 0144 04       		.byte	0x4
 4415 0145 9602     		.2byte	0x296
 4416 0147 CA000000 		.4byte	0xca
 4417 014b 20       		.byte	0x20
 4418 014c 07       		.uleb128 0x7
 4419 014d 434E5400 		.ascii	"CNT\000"
 4420 0151 04       		.byte	0x4
 4421 0152 9702     		.2byte	0x297
 4422 0154 CA000000 		.4byte	0xca
 4423 0158 24       		.byte	0x24
 4424 0159 07       		.uleb128 0x7
 4425 015a 50534300 		.ascii	"PSC\000"
 4426 015e 04       		.byte	0x4
 4427 015f 9802     		.2byte	0x298
 4428 0161 CA000000 		.4byte	0xca
 4429 0165 28       		.byte	0x28
 4430 0166 07       		.uleb128 0x7
 4431 0167 41525200 		.ascii	"ARR\000"
 4432 016b 04       		.byte	0x4
 4433 016c 9902     		.2byte	0x299
 4434 016e CA000000 		.4byte	0xca
 4435 0172 2C       		.byte	0x2c
 4436 0173 07       		.uleb128 0x7
 4437 0174 52435200 		.ascii	"RCR\000"
 4438 0178 04       		.byte	0x4
 4439 0179 9A02     		.2byte	0x29a
 4440 017b CA000000 		.4byte	0xca
 4441 017f 30       		.byte	0x30
 4442 0180 08       		.uleb128 0x8
 4443 0181 900C0000 		.4byte	.LASF23
 4444 0185 04       		.byte	0x4
 4445 0186 9B02     		.2byte	0x29b
 4446 0188 CA000000 		.4byte	0xca
ARM GAS  /var/folders/m4/4md61f0s1_g0rzfghffqnxvr0000gn/T//ccSRVwbo.s 			page 79


 4447 018c 34       		.byte	0x34
 4448 018d 08       		.uleb128 0x8
 4449 018e 86010000 		.4byte	.LASF24
 4450 0192 04       		.byte	0x4
 4451 0193 9C02     		.2byte	0x29c
 4452 0195 CA000000 		.4byte	0xca
 4453 0199 38       		.byte	0x38
 4454 019a 08       		.uleb128 0x8
 4455 019b AD0C0000 		.4byte	.LASF25
 4456 019f 04       		.byte	0x4
 4457 01a0 9D02     		.2byte	0x29d
 4458 01a2 CA000000 		.4byte	0xca
 4459 01a6 3C       		.byte	0x3c
 4460 01a7 08       		.uleb128 0x8
 4461 01a8 B20C0000 		.4byte	.LASF26
 4462 01ac 04       		.byte	0x4
 4463 01ad 9E02     		.2byte	0x29e
 4464 01af CA000000 		.4byte	0xca
 4465 01b3 40       		.byte	0x40
 4466 01b4 08       		.uleb128 0x8
 4467 01b5 0A0A0000 		.4byte	.LASF27
 4468 01b9 04       		.byte	0x4
 4469 01ba 9F02     		.2byte	0x29f
 4470 01bc CA000000 		.4byte	0xca
 4471 01c0 44       		.byte	0x44
 4472 01c1 07       		.uleb128 0x7
 4473 01c2 44435200 		.ascii	"DCR\000"
 4474 01c6 04       		.byte	0x4
 4475 01c7 A002     		.2byte	0x2a0
 4476 01c9 CA000000 		.4byte	0xca
 4477 01cd 48       		.byte	0x48
 4478 01ce 08       		.uleb128 0x8
 4479 01cf 260B0000 		.4byte	.LASF28
 4480 01d3 04       		.byte	0x4
 4481 01d4 A102     		.2byte	0x2a1
 4482 01d6 CA000000 		.4byte	0xca
 4483 01da 4C       		.byte	0x4c
 4484 01db 07       		.uleb128 0x7
 4485 01dc 4F5200   		.ascii	"OR\000"
 4486 01df 04       		.byte	0x4
 4487 01e0 A202     		.2byte	0x2a2
 4488 01e2 CA000000 		.4byte	0xca
 4489 01e6 50       		.byte	0x50
 4490 01e7 00       		.byte	0
 4491 01e8 09       		.uleb128 0x9
 4492 01e9 CE030000 		.4byte	.LASF29
 4493 01ed 04       		.byte	0x4
 4494 01ee A302     		.2byte	0x2a3
 4495 01f0 CF000000 		.4byte	0xcf
 4496 01f4 0A       		.uleb128 0xa
 4497 01f5 01       		.byte	0x1
 4498 01f6 37000000 		.4byte	0x37
 4499 01fa 05       		.byte	0x5
 4500 01fb B8       		.byte	0xb8
 4501 01fc 0D020000 		.4byte	0x20d
 4502 0200 0B       		.uleb128 0xb
 4503 0201 61060000 		.4byte	.LASF30
ARM GAS  /var/folders/m4/4md61f0s1_g0rzfghffqnxvr0000gn/T//ccSRVwbo.s 			page 80


 4504 0205 00       		.byte	0
 4505 0206 0C       		.uleb128 0xc
 4506 0207 53455400 		.ascii	"SET\000"
 4507 020b 01       		.byte	0x1
 4508 020c 00       		.byte	0
 4509 020d 03       		.uleb128 0x3
 4510 020e C5000000 		.4byte	.LASF31
 4511 0212 05       		.byte	0x5
 4512 0213 BB       		.byte	0xbb
 4513 0214 F4010000 		.4byte	0x1f4
 4514 0218 03       		.uleb128 0x3
 4515 0219 7D090000 		.4byte	.LASF32
 4516 021d 05       		.byte	0x5
 4517 021e BB       		.byte	0xbb
 4518 021f F4010000 		.4byte	0x1f4
 4519 0223 0A       		.uleb128 0xa
 4520 0224 01       		.byte	0x1
 4521 0225 37000000 		.4byte	0x37
 4522 0229 05       		.byte	0x5
 4523 022a BE       		.byte	0xbe
 4524 022b 3C020000 		.4byte	0x23c
 4525 022f 0B       		.uleb128 0xb
 4526 0230 60010000 		.4byte	.LASF33
 4527 0234 00       		.byte	0
 4528 0235 0B       		.uleb128 0xb
 4529 0236 FF020000 		.4byte	.LASF34
 4530 023a 01       		.byte	0x1
 4531 023b 00       		.byte	0
 4532 023c 03       		.uleb128 0x3
 4533 023d 9F080000 		.4byte	.LASF35
 4534 0241 05       		.byte	0x5
 4535 0242 C1       		.byte	0xc1
 4536 0243 23020000 		.4byte	0x223
 4537 0247 0D       		.uleb128 0xd
 4538 0248 0C       		.byte	0xc
 4539 0249 06       		.byte	0x6
 4540 024a 37       		.byte	0x37
 4541 024b 8C020000 		.4byte	0x28c
 4542 024f 0E       		.uleb128 0xe
 4543 0250 91090000 		.4byte	.LASF36
 4544 0254 06       		.byte	0x6
 4545 0255 39       		.byte	0x39
 4546 0256 A2000000 		.4byte	0xa2
 4547 025a 00       		.byte	0
 4548 025b 0E       		.uleb128 0xe
 4549 025c 86000000 		.4byte	.LASF37
 4550 0260 06       		.byte	0x6
 4551 0261 3C       		.byte	0x3c
 4552 0262 A2000000 		.4byte	0xa2
 4553 0266 02       		.byte	0x2
 4554 0267 0E       		.uleb128 0xe
 4555 0268 4B0B0000 		.4byte	.LASF38
 4556 026c 06       		.byte	0x6
 4557 026d 3F       		.byte	0x3f
 4558 026e B8000000 		.4byte	0xb8
 4559 0272 04       		.byte	0x4
 4560 0273 0E       		.uleb128 0xe
ARM GAS  /var/folders/m4/4md61f0s1_g0rzfghffqnxvr0000gn/T//ccSRVwbo.s 			page 81


 4561 0274 91040000 		.4byte	.LASF39
 4562 0278 06       		.byte	0x6
 4563 0279 43       		.byte	0x43
 4564 027a A2000000 		.4byte	0xa2
 4565 027e 08       		.byte	0x8
 4566 027f 0E       		.uleb128 0xe
 4567 0280 1B0D0000 		.4byte	.LASF40
 4568 0284 06       		.byte	0x6
 4569 0285 46       		.byte	0x46
 4570 0286 97000000 		.4byte	0x97
 4571 028a 0A       		.byte	0xa
 4572 028b 00       		.byte	0
 4573 028c 03       		.uleb128 0x3
 4574 028d 560B0000 		.4byte	.LASF41
 4575 0291 06       		.byte	0x6
 4576 0292 4E       		.byte	0x4e
 4577 0293 47020000 		.4byte	0x247
 4578 0297 0D       		.uleb128 0xd
 4579 0298 14       		.byte	0x14
 4580 0299 06       		.byte	0x6
 4581 029a 54       		.byte	0x54
 4582 029b 00030000 		.4byte	0x300
 4583 029f 0E       		.uleb128 0xe
 4584 02a0 2E0C0000 		.4byte	.LASF42
 4585 02a4 06       		.byte	0x6
 4586 02a5 56       		.byte	0x56
 4587 02a6 A2000000 		.4byte	0xa2
 4588 02aa 00       		.byte	0
 4589 02ab 0E       		.uleb128 0xe
 4590 02ac 0D040000 		.4byte	.LASF43
 4591 02b0 06       		.byte	0x6
 4592 02b1 59       		.byte	0x59
 4593 02b2 A2000000 		.4byte	0xa2
 4594 02b6 02       		.byte	0x2
 4595 02b7 0E       		.uleb128 0xe
 4596 02b8 EE020000 		.4byte	.LASF44
 4597 02bc 06       		.byte	0x6
 4598 02bd 5C       		.byte	0x5c
 4599 02be A2000000 		.4byte	0xa2
 4600 02c2 04       		.byte	0x4
 4601 02c3 0E       		.uleb128 0xe
 4602 02c4 2D010000 		.4byte	.LASF45
 4603 02c8 06       		.byte	0x6
 4604 02c9 60       		.byte	0x60
 4605 02ca B8000000 		.4byte	0xb8
 4606 02ce 08       		.byte	0x8
 4607 02cf 0E       		.uleb128 0xe
 4608 02d0 82040000 		.4byte	.LASF46
 4609 02d4 06       		.byte	0x6
 4610 02d5 63       		.byte	0x63
 4611 02d6 A2000000 		.4byte	0xa2
 4612 02da 0C       		.byte	0xc
 4613 02db 0E       		.uleb128 0xe
 4614 02dc F60A0000 		.4byte	.LASF47
 4615 02e0 06       		.byte	0x6
 4616 02e1 66       		.byte	0x66
 4617 02e2 A2000000 		.4byte	0xa2
ARM GAS  /var/folders/m4/4md61f0s1_g0rzfghffqnxvr0000gn/T//ccSRVwbo.s 			page 82


 4618 02e6 0E       		.byte	0xe
 4619 02e7 0E       		.uleb128 0xe
 4620 02e8 870D0000 		.4byte	.LASF48
 4621 02ec 06       		.byte	0x6
 4622 02ed 6A       		.byte	0x6a
 4623 02ee A2000000 		.4byte	0xa2
 4624 02f2 10       		.byte	0x10
 4625 02f3 0E       		.uleb128 0xe
 4626 02f4 43070000 		.4byte	.LASF49
 4627 02f8 06       		.byte	0x6
 4628 02f9 6E       		.byte	0x6e
 4629 02fa A2000000 		.4byte	0xa2
 4630 02fe 12       		.byte	0x12
 4631 02ff 00       		.byte	0
 4632 0300 03       		.uleb128 0x3
 4633 0301 B70C0000 		.4byte	.LASF50
 4634 0305 06       		.byte	0x6
 4635 0306 71       		.byte	0x71
 4636 0307 97020000 		.4byte	0x297
 4637 030b 0D       		.uleb128 0xd
 4638 030c 0A       		.byte	0xa
 4639 030d 06       		.byte	0x6
 4640 030e 77       		.byte	0x77
 4641 030f 50030000 		.4byte	0x350
 4642 0313 0E       		.uleb128 0xe
 4643 0314 5A020000 		.4byte	.LASF51
 4644 0318 06       		.byte	0x6
 4645 0319 7A       		.byte	0x7a
 4646 031a A2000000 		.4byte	0xa2
 4647 031e 00       		.byte	0
 4648 031f 0E       		.uleb128 0xe
 4649 0320 6E090000 		.4byte	.LASF52
 4650 0324 06       		.byte	0x6
 4651 0325 7D       		.byte	0x7d
 4652 0326 A2000000 		.4byte	0xa2
 4653 032a 02       		.byte	0x2
 4654 032b 0E       		.uleb128 0xe
 4655 032c E8010000 		.4byte	.LASF53
 4656 0330 06       		.byte	0x6
 4657 0331 80       		.byte	0x80
 4658 0332 A2000000 		.4byte	0xa2
 4659 0336 04       		.byte	0x4
 4660 0337 0E       		.uleb128 0xe
 4661 0338 1E070000 		.4byte	.LASF54
 4662 033c 06       		.byte	0x6
 4663 033d 83       		.byte	0x83
 4664 033e A2000000 		.4byte	0xa2
 4665 0342 06       		.byte	0x6
 4666 0343 0E       		.uleb128 0xe
 4667 0344 8B010000 		.4byte	.LASF55
 4668 0348 06       		.byte	0x6
 4669 0349 86       		.byte	0x86
 4670 034a A2000000 		.4byte	0xa2
 4671 034e 08       		.byte	0x8
 4672 034f 00       		.byte	0
 4673 0350 03       		.uleb128 0x3
 4674 0351 8E0B0000 		.4byte	.LASF56
ARM GAS  /var/folders/m4/4md61f0s1_g0rzfghffqnxvr0000gn/T//ccSRVwbo.s 			page 83


 4675 0355 06       		.byte	0x6
 4676 0356 88       		.byte	0x88
 4677 0357 0B030000 		.4byte	0x30b
 4678 035b 0D       		.uleb128 0xd
 4679 035c 0E       		.byte	0xe
 4680 035d 06       		.byte	0x6
 4681 035e 8F       		.byte	0x8f
 4682 035f B8030000 		.4byte	0x3b8
 4683 0363 0E       		.uleb128 0xe
 4684 0364 68050000 		.4byte	.LASF57
 4685 0368 06       		.byte	0x6
 4686 0369 92       		.byte	0x92
 4687 036a A2000000 		.4byte	0xa2
 4688 036e 00       		.byte	0
 4689 036f 0E       		.uleb128 0xe
 4690 0370 6A0A0000 		.4byte	.LASF58
 4691 0374 06       		.byte	0x6
 4692 0375 95       		.byte	0x95
 4693 0376 A2000000 		.4byte	0xa2
 4694 037a 02       		.byte	0x2
 4695 037b 0E       		.uleb128 0xe
 4696 037c D0090000 		.4byte	.LASF59
 4697 0380 06       		.byte	0x6
 4698 0381 98       		.byte	0x98
 4699 0382 A2000000 		.4byte	0xa2
 4700 0386 04       		.byte	0x4
 4701 0387 0E       		.uleb128 0xe
 4702 0388 E7060000 		.4byte	.LASF60
 4703 038c 06       		.byte	0x6
 4704 038d 9B       		.byte	0x9b
 4705 038e A2000000 		.4byte	0xa2
 4706 0392 06       		.byte	0x6
 4707 0393 0E       		.uleb128 0xe
 4708 0394 CD060000 		.4byte	.LASF61
 4709 0398 06       		.byte	0x6
 4710 0399 9F       		.byte	0x9f
 4711 039a A2000000 		.4byte	0xa2
 4712 039e 08       		.byte	0x8
 4713 039f 0E       		.uleb128 0xe
 4714 03a0 490C0000 		.4byte	.LASF62
 4715 03a4 06       		.byte	0x6
 4716 03a5 A2       		.byte	0xa2
 4717 03a6 A2000000 		.4byte	0xa2
 4718 03aa 0A       		.byte	0xa
 4719 03ab 0E       		.uleb128 0xe
 4720 03ac A1050000 		.4byte	.LASF63
 4721 03b0 06       		.byte	0x6
 4722 03b1 A5       		.byte	0xa5
 4723 03b2 A2000000 		.4byte	0xa2
 4724 03b6 0C       		.byte	0xc
 4725 03b7 00       		.byte	0
 4726 03b8 03       		.uleb128 0x3
 4727 03b9 3E050000 		.4byte	.LASF64
 4728 03bd 06       		.byte	0x6
 4729 03be A7       		.byte	0xa7
 4730 03bf 5B030000 		.4byte	0x35b
 4731 03c3 0F       		.uleb128 0xf
ARM GAS  /var/folders/m4/4md61f0s1_g0rzfghffqnxvr0000gn/T//ccSRVwbo.s 			page 84


 4732 03c4 0F0A0000 		.4byte	.LASF69
 4733 03c8 01       		.byte	0x1
 4734 03c9 4D08     		.2byte	0x84d
 4735 03cb 01       		.byte	0x1
 4736 03cc E9030000 		.4byte	0x3e9
 4737 03d0 10       		.uleb128 0x10
 4738 03d1 76050000 		.4byte	.LASF65
 4739 03d5 01       		.byte	0x1
 4740 03d6 4D08     		.2byte	0x84d
 4741 03d8 E9030000 		.4byte	0x3e9
 4742 03dc 10       		.uleb128 0x10
 4743 03dd A30D0000 		.4byte	.LASF66
 4744 03e1 01       		.byte	0x1
 4745 03e2 4D08     		.2byte	0x84d
 4746 03e4 A2000000 		.4byte	0xa2
 4747 03e8 00       		.byte	0
 4748 03e9 11       		.uleb128 0x11
 4749 03ea 04       		.byte	0x4
 4750 03eb E8010000 		.4byte	0x1e8
 4751 03ef 12       		.uleb128 0x12
 4752 03f0 B50A0000 		.4byte	.LASF71
 4753 03f4 01       		.byte	0x1
 4754 03f5 B20C     		.2byte	0xcb2
 4755 03f7 01       		.byte	0x1
 4756 03f8 51040000 		.4byte	0x451
 4757 03fc 10       		.uleb128 0x10
 4758 03fd 76050000 		.4byte	.LASF65
 4759 0401 01       		.byte	0x1
 4760 0402 B20C     		.2byte	0xcb2
 4761 0404 E9030000 		.4byte	0x3e9
 4762 0408 10       		.uleb128 0x10
 4763 0409 6E090000 		.4byte	.LASF52
 4764 040d 01       		.byte	0x1
 4765 040e B20C     		.2byte	0xcb2
 4766 0410 A2000000 		.4byte	0xa2
 4767 0414 10       		.uleb128 0x10
 4768 0415 E8010000 		.4byte	.LASF53
 4769 0419 01       		.byte	0x1
 4770 041a B20C     		.2byte	0xcb2
 4771 041c A2000000 		.4byte	0xa2
 4772 0420 10       		.uleb128 0x10
 4773 0421 8B010000 		.4byte	.LASF55
 4774 0425 01       		.byte	0x1
 4775 0426 B30C     		.2byte	0xcb3
 4776 0428 A2000000 		.4byte	0xa2
 4777 042c 13       		.uleb128 0x13
 4778 042d 4E010000 		.4byte	.LASF67
 4779 0431 01       		.byte	0x1
 4780 0432 B50C     		.2byte	0xcb5
 4781 0434 A2000000 		.4byte	0xa2
 4782 0438 13       		.uleb128 0x13
 4783 0439 4B040000 		.4byte	.LASF68
 4784 043d 01       		.byte	0x1
 4785 043e B50C     		.2byte	0xcb5
 4786 0440 A2000000 		.4byte	0xa2
 4787 0444 14       		.uleb128 0x14
 4788 0445 746D7000 		.ascii	"tmp\000"
ARM GAS  /var/folders/m4/4md61f0s1_g0rzfghffqnxvr0000gn/T//ccSRVwbo.s 			page 85


 4789 0449 01       		.byte	0x1
 4790 044a B50C     		.2byte	0xcb5
 4791 044c A2000000 		.4byte	0xa2
 4792 0450 00       		.byte	0
 4793 0451 0F       		.uleb128 0xf
 4794 0452 02060000 		.4byte	.LASF70
 4795 0456 01       		.byte	0x1
 4796 0457 3408     		.2byte	0x834
 4797 0459 01       		.byte	0x1
 4798 045a 77040000 		.4byte	0x477
 4799 045e 10       		.uleb128 0x10
 4800 045f 76050000 		.4byte	.LASF65
 4801 0463 01       		.byte	0x1
 4802 0464 3408     		.2byte	0x834
 4803 0466 E9030000 		.4byte	0x3e9
 4804 046a 10       		.uleb128 0x10
 4805 046b A30D0000 		.4byte	.LASF66
 4806 046f 01       		.byte	0x1
 4807 0470 3408     		.2byte	0x834
 4808 0472 A2000000 		.4byte	0xa2
 4809 0476 00       		.byte	0
 4810 0477 12       		.uleb128 0x12
 4811 0478 86090000 		.4byte	.LASF72
 4812 047c 01       		.byte	0x1
 4813 047d 890C     		.2byte	0xc89
 4814 047f 01       		.byte	0x1
 4815 0480 CD040000 		.4byte	0x4cd
 4816 0484 10       		.uleb128 0x10
 4817 0485 76050000 		.4byte	.LASF65
 4818 0489 01       		.byte	0x1
 4819 048a 890C     		.2byte	0xc89
 4820 048c E9030000 		.4byte	0x3e9
 4821 0490 10       		.uleb128 0x10
 4822 0491 6E090000 		.4byte	.LASF52
 4823 0495 01       		.byte	0x1
 4824 0496 890C     		.2byte	0xc89
 4825 0498 A2000000 		.4byte	0xa2
 4826 049c 10       		.uleb128 0x10
 4827 049d E8010000 		.4byte	.LASF53
 4828 04a1 01       		.byte	0x1
 4829 04a2 890C     		.2byte	0xc89
 4830 04a4 A2000000 		.4byte	0xa2
 4831 04a8 10       		.uleb128 0x10
 4832 04a9 8B010000 		.4byte	.LASF55
 4833 04ad 01       		.byte	0x1
 4834 04ae 8A0C     		.2byte	0xc8a
 4835 04b0 A2000000 		.4byte	0xa2
 4836 04b4 13       		.uleb128 0x13
 4837 04b5 4E010000 		.4byte	.LASF67
 4838 04b9 01       		.byte	0x1
 4839 04ba 8C0C     		.2byte	0xc8c
 4840 04bc A2000000 		.4byte	0xa2
 4841 04c0 13       		.uleb128 0x13
 4842 04c1 4B040000 		.4byte	.LASF68
 4843 04c5 01       		.byte	0x1
 4844 04c6 8C0C     		.2byte	0xc8c
 4845 04c8 A2000000 		.4byte	0xa2
ARM GAS  /var/folders/m4/4md61f0s1_g0rzfghffqnxvr0000gn/T//ccSRVwbo.s 			page 86


 4846 04cc 00       		.byte	0
 4847 04cd 0F       		.uleb128 0xf
 4848 04ce 2B0B0000 		.4byte	.LASF73
 4849 04d2 01       		.byte	0x1
 4850 04d3 6508     		.2byte	0x865
 4851 04d5 01       		.byte	0x1
 4852 04d6 F3040000 		.4byte	0x4f3
 4853 04da 10       		.uleb128 0x10
 4854 04db 76050000 		.4byte	.LASF65
 4855 04df 01       		.byte	0x1
 4856 04e0 6508     		.2byte	0x865
 4857 04e2 E9030000 		.4byte	0x3e9
 4858 04e6 10       		.uleb128 0x10
 4859 04e7 A30D0000 		.4byte	.LASF66
 4860 04eb 01       		.byte	0x1
 4861 04ec 6508     		.2byte	0x865
 4862 04ee A2000000 		.4byte	0xa2
 4863 04f2 00       		.byte	0
 4864 04f3 12       		.uleb128 0x12
 4865 04f4 25060000 		.4byte	.LASF74
 4866 04f8 01       		.byte	0x1
 4867 04f9 DC0C     		.2byte	0xcdc
 4868 04fb 01       		.byte	0x1
 4869 04fc 55050000 		.4byte	0x555
 4870 0500 10       		.uleb128 0x10
 4871 0501 76050000 		.4byte	.LASF65
 4872 0505 01       		.byte	0x1
 4873 0506 DC0C     		.2byte	0xcdc
 4874 0508 E9030000 		.4byte	0x3e9
 4875 050c 10       		.uleb128 0x10
 4876 050d 6E090000 		.4byte	.LASF52
 4877 0511 01       		.byte	0x1
 4878 0512 DC0C     		.2byte	0xcdc
 4879 0514 A2000000 		.4byte	0xa2
 4880 0518 10       		.uleb128 0x10
 4881 0519 E8010000 		.4byte	.LASF53
 4882 051d 01       		.byte	0x1
 4883 051e DC0C     		.2byte	0xcdc
 4884 0520 A2000000 		.4byte	0xa2
 4885 0524 10       		.uleb128 0x10
 4886 0525 8B010000 		.4byte	.LASF55
 4887 0529 01       		.byte	0x1
 4888 052a DD0C     		.2byte	0xcdd
 4889 052c A2000000 		.4byte	0xa2
 4890 0530 13       		.uleb128 0x13
 4891 0531 57010000 		.4byte	.LASF75
 4892 0535 01       		.byte	0x1
 4893 0536 DF0C     		.2byte	0xcdf
 4894 0538 A2000000 		.4byte	0xa2
 4895 053c 13       		.uleb128 0x13
 4896 053d 4B040000 		.4byte	.LASF68
 4897 0541 01       		.byte	0x1
 4898 0542 DF0C     		.2byte	0xcdf
 4899 0544 A2000000 		.4byte	0xa2
 4900 0548 14       		.uleb128 0x14
 4901 0549 746D7000 		.ascii	"tmp\000"
 4902 054d 01       		.byte	0x1
ARM GAS  /var/folders/m4/4md61f0s1_g0rzfghffqnxvr0000gn/T//ccSRVwbo.s 			page 87


 4903 054e DF0C     		.2byte	0xcdf
 4904 0550 A2000000 		.4byte	0xa2
 4905 0554 00       		.byte	0
 4906 0555 0F       		.uleb128 0xf
 4907 0556 ED0D0000 		.4byte	.LASF76
 4908 055a 01       		.byte	0x1
 4909 055b 7D08     		.2byte	0x87d
 4910 055d 01       		.byte	0x1
 4911 055e 7B050000 		.4byte	0x57b
 4912 0562 10       		.uleb128 0x10
 4913 0563 76050000 		.4byte	.LASF65
 4914 0567 01       		.byte	0x1
 4915 0568 7D08     		.2byte	0x87d
 4916 056a E9030000 		.4byte	0x3e9
 4917 056e 10       		.uleb128 0x10
 4918 056f A30D0000 		.4byte	.LASF66
 4919 0573 01       		.byte	0x1
 4920 0574 7D08     		.2byte	0x87d
 4921 0576 A2000000 		.4byte	0xa2
 4922 057a 00       		.byte	0
 4923 057b 12       		.uleb128 0x12
 4924 057c 77040000 		.4byte	.LASF77
 4925 0580 01       		.byte	0x1
 4926 0581 050D     		.2byte	0xd05
 4927 0583 01       		.byte	0x1
 4928 0584 DD050000 		.4byte	0x5dd
 4929 0588 10       		.uleb128 0x10
 4930 0589 76050000 		.4byte	.LASF65
 4931 058d 01       		.byte	0x1
 4932 058e 050D     		.2byte	0xd05
 4933 0590 E9030000 		.4byte	0x3e9
 4934 0594 10       		.uleb128 0x10
 4935 0595 6E090000 		.4byte	.LASF52
 4936 0599 01       		.byte	0x1
 4937 059a 050D     		.2byte	0xd05
 4938 059c A2000000 		.4byte	0xa2
 4939 05a0 10       		.uleb128 0x10
 4940 05a1 E8010000 		.4byte	.LASF53
 4941 05a5 01       		.byte	0x1
 4942 05a6 050D     		.2byte	0xd05
 4943 05a8 A2000000 		.4byte	0xa2
 4944 05ac 10       		.uleb128 0x10
 4945 05ad 8B010000 		.4byte	.LASF55
 4946 05b1 01       		.byte	0x1
 4947 05b2 060D     		.2byte	0xd06
 4948 05b4 A2000000 		.4byte	0xa2
 4949 05b8 13       		.uleb128 0x13
 4950 05b9 57010000 		.4byte	.LASF75
 4951 05bd 01       		.byte	0x1
 4952 05be 080D     		.2byte	0xd08
 4953 05c0 A2000000 		.4byte	0xa2
 4954 05c4 13       		.uleb128 0x13
 4955 05c5 4B040000 		.4byte	.LASF68
 4956 05c9 01       		.byte	0x1
 4957 05ca 080D     		.2byte	0xd08
 4958 05cc A2000000 		.4byte	0xa2
 4959 05d0 14       		.uleb128 0x14
ARM GAS  /var/folders/m4/4md61f0s1_g0rzfghffqnxvr0000gn/T//ccSRVwbo.s 			page 88


 4960 05d1 746D7000 		.ascii	"tmp\000"
 4961 05d5 01       		.byte	0x1
 4962 05d6 080D     		.2byte	0xd08
 4963 05d8 A2000000 		.4byte	0xa2
 4964 05dc 00       		.byte	0
 4965 05dd 0F       		.uleb128 0xf
 4966 05de 6F010000 		.4byte	.LASF78
 4967 05e2 01       		.byte	0x1
 4968 05e3 510B     		.2byte	0xb51
 4969 05e5 01       		.byte	0x1
 4970 05e6 0F060000 		.4byte	0x60f
 4971 05ea 10       		.uleb128 0x10
 4972 05eb 76050000 		.4byte	.LASF65
 4973 05ef 01       		.byte	0x1
 4974 05f0 510B     		.2byte	0xb51
 4975 05f2 E9030000 		.4byte	0x3e9
 4976 05f6 10       		.uleb128 0x10
 4977 05f7 60000000 		.4byte	.LASF79
 4978 05fb 01       		.byte	0x1
 4979 05fc 510B     		.2byte	0xb51
 4980 05fe A2000000 		.4byte	0xa2
 4981 0602 13       		.uleb128 0x13
 4982 0603 67060000 		.4byte	.LASF80
 4983 0607 01       		.byte	0x1
 4984 0608 530B     		.2byte	0xb53
 4985 060a A2000000 		.4byte	0xa2
 4986 060e 00       		.byte	0
 4987 060f 0F       		.uleb128 0xf
 4988 0610 AD0D0000 		.4byte	.LASF81
 4989 0614 01       		.byte	0x1
 4990 0615 C90B     		.2byte	0xbc9
 4991 0617 01       		.byte	0x1
 4992 0618 59060000 		.4byte	0x659
 4993 061c 10       		.uleb128 0x10
 4994 061d 76050000 		.4byte	.LASF65
 4995 0621 01       		.byte	0x1
 4996 0622 C90B     		.2byte	0xbc9
 4997 0624 E9030000 		.4byte	0x3e9
 4998 0628 10       		.uleb128 0x10
 4999 0629 B9060000 		.4byte	.LASF82
 5000 062d 01       		.byte	0x1
 5001 062e C90B     		.2byte	0xbc9
 5002 0630 A2000000 		.4byte	0xa2
 5003 0634 10       		.uleb128 0x10
 5004 0635 6F060000 		.4byte	.LASF83
 5005 0639 01       		.byte	0x1
 5006 063a CA0B     		.2byte	0xbca
 5007 063c A2000000 		.4byte	0xa2
 5008 0640 10       		.uleb128 0x10
 5009 0641 7A0D0000 		.4byte	.LASF84
 5010 0645 01       		.byte	0x1
 5011 0646 CA0B     		.2byte	0xbca
 5012 0648 A2000000 		.4byte	0xa2
 5013 064c 13       		.uleb128 0x13
 5014 064d 67060000 		.4byte	.LASF80
 5015 0651 01       		.byte	0x1
 5016 0652 CC0B     		.2byte	0xbcc
ARM GAS  /var/folders/m4/4md61f0s1_g0rzfghffqnxvr0000gn/T//ccSRVwbo.s 			page 89


 5017 0654 A2000000 		.4byte	0xa2
 5018 0658 00       		.byte	0
 5019 0659 15       		.uleb128 0x15
 5020 065a BB0D0000 		.4byte	.LASF85
 5021 065e 01       		.byte	0x1
 5022 065f CD       		.byte	0xcd
 5023 0660 00000000 		.4byte	.LFB123
 5024 0664 B8010000 		.4byte	.LFE123-.LFB123
 5025 0668 01       		.uleb128 0x1
 5026 0669 9C       		.byte	0x9c
 5027 066a 30090000 		.4byte	0x930
 5028 066e 16       		.uleb128 0x16
 5029 066f 76050000 		.4byte	.LASF65
 5030 0673 01       		.byte	0x1
 5031 0674 CD       		.byte	0xcd
 5032 0675 E9030000 		.4byte	0x3e9
 5033 0679 00000000 		.4byte	.LLST0
 5034 067d 17       		.uleb128 0x17
 5035 067e 66000000 		.4byte	.LVL2
 5036 0682 B2230000 		.4byte	0x23b2
 5037 0686 97060000 		.4byte	0x697
 5038 068a 18       		.uleb128 0x18
 5039 068b 01       		.uleb128 0x1
 5040 068c 50       		.byte	0x50
 5041 068d 03       		.uleb128 0x3
 5042 068e 0A       		.byte	0xa
 5043 068f 0001     		.2byte	0x100
 5044 0691 18       		.uleb128 0x18
 5045 0692 01       		.uleb128 0x1
 5046 0693 51       		.byte	0x51
 5047 0694 01       		.uleb128 0x1
 5048 0695 31       		.byte	0x31
 5049 0696 00       		.byte	0
 5050 0697 19       		.uleb128 0x19
 5051 0698 74000000 		.4byte	.LVL3
 5052 069c B2230000 		.4byte	0x23b2
 5053 06a0 B1060000 		.4byte	0x6b1
 5054 06a4 18       		.uleb128 0x18
 5055 06a5 01       		.uleb128 0x1
 5056 06a6 50       		.byte	0x50
 5057 06a7 03       		.uleb128 0x3
 5058 06a8 0A       		.byte	0xa
 5059 06a9 0001     		.2byte	0x100
 5060 06ab 18       		.uleb128 0x18
 5061 06ac 01       		.uleb128 0x1
 5062 06ad 51       		.byte	0x51
 5063 06ae 01       		.uleb128 0x1
 5064 06af 30       		.byte	0x30
 5065 06b0 00       		.byte	0
 5066 06b1 17       		.uleb128 0x17
 5067 06b2 7C000000 		.4byte	.LVL5
 5068 06b6 BE230000 		.4byte	0x23be
 5069 06ba C9060000 		.4byte	0x6c9
 5070 06be 18       		.uleb128 0x18
 5071 06bf 01       		.uleb128 0x1
 5072 06c0 50       		.byte	0x50
 5073 06c1 01       		.uleb128 0x1
ARM GAS  /var/folders/m4/4md61f0s1_g0rzfghffqnxvr0000gn/T//ccSRVwbo.s 			page 90


 5074 06c2 31       		.byte	0x31
 5075 06c3 18       		.uleb128 0x18
 5076 06c4 01       		.uleb128 0x1
 5077 06c5 51       		.byte	0x51
 5078 06c6 01       		.uleb128 0x1
 5079 06c7 31       		.byte	0x31
 5080 06c8 00       		.byte	0
 5081 06c9 19       		.uleb128 0x19
 5082 06ca 88000000 		.4byte	.LVL6
 5083 06ce BE230000 		.4byte	0x23be
 5084 06d2 E1060000 		.4byte	0x6e1
 5085 06d6 18       		.uleb128 0x18
 5086 06d7 01       		.uleb128 0x1
 5087 06d8 50       		.byte	0x50
 5088 06d9 01       		.uleb128 0x1
 5089 06da 31       		.byte	0x31
 5090 06db 18       		.uleb128 0x18
 5091 06dc 01       		.uleb128 0x1
 5092 06dd 51       		.byte	0x51
 5093 06de 01       		.uleb128 0x1
 5094 06df 30       		.byte	0x30
 5095 06e0 00       		.byte	0
 5096 06e1 17       		.uleb128 0x17
 5097 06e2 90000000 		.4byte	.LVL8
 5098 06e6 B2230000 		.4byte	0x23b2
 5099 06ea F9060000 		.4byte	0x6f9
 5100 06ee 18       		.uleb128 0x18
 5101 06ef 01       		.uleb128 0x1
 5102 06f0 50       		.byte	0x50
 5103 06f1 01       		.uleb128 0x1
 5104 06f2 31       		.byte	0x31
 5105 06f3 18       		.uleb128 0x18
 5106 06f4 01       		.uleb128 0x1
 5107 06f5 51       		.byte	0x51
 5108 06f6 01       		.uleb128 0x1
 5109 06f7 31       		.byte	0x31
 5110 06f8 00       		.byte	0
 5111 06f9 19       		.uleb128 0x19
 5112 06fa 9C000000 		.4byte	.LVL9
 5113 06fe B2230000 		.4byte	0x23b2
 5114 0702 11070000 		.4byte	0x711
 5115 0706 18       		.uleb128 0x18
 5116 0707 01       		.uleb128 0x1
 5117 0708 50       		.byte	0x50
 5118 0709 01       		.uleb128 0x1
 5119 070a 31       		.byte	0x31
 5120 070b 18       		.uleb128 0x18
 5121 070c 01       		.uleb128 0x1
 5122 070d 51       		.byte	0x51
 5123 070e 01       		.uleb128 0x1
 5124 070f 30       		.byte	0x30
 5125 0710 00       		.byte	0
 5126 0711 17       		.uleb128 0x17
 5127 0712 A4000000 		.4byte	.LVL11
 5128 0716 B2230000 		.4byte	0x23b2
 5129 071a 29070000 		.4byte	0x729
 5130 071e 18       		.uleb128 0x18
ARM GAS  /var/folders/m4/4md61f0s1_g0rzfghffqnxvr0000gn/T//ccSRVwbo.s 			page 91


 5131 071f 01       		.uleb128 0x1
 5132 0720 50       		.byte	0x50
 5133 0721 01       		.uleb128 0x1
 5134 0722 32       		.byte	0x32
 5135 0723 18       		.uleb128 0x18
 5136 0724 01       		.uleb128 0x1
 5137 0725 51       		.byte	0x51
 5138 0726 01       		.uleb128 0x1
 5139 0727 31       		.byte	0x31
 5140 0728 00       		.byte	0
 5141 0729 19       		.uleb128 0x19
 5142 072a B0000000 		.4byte	.LVL12
 5143 072e B2230000 		.4byte	0x23b2
 5144 0732 41070000 		.4byte	0x741
 5145 0736 18       		.uleb128 0x18
 5146 0737 01       		.uleb128 0x1
 5147 0738 50       		.byte	0x50
 5148 0739 01       		.uleb128 0x1
 5149 073a 32       		.byte	0x32
 5150 073b 18       		.uleb128 0x18
 5151 073c 01       		.uleb128 0x1
 5152 073d 51       		.byte	0x51
 5153 073e 01       		.uleb128 0x1
 5154 073f 30       		.byte	0x30
 5155 0740 00       		.byte	0
 5156 0741 17       		.uleb128 0x17
 5157 0742 B8000000 		.4byte	.LVL14
 5158 0746 B2230000 		.4byte	0x23b2
 5159 074a 59070000 		.4byte	0x759
 5160 074e 18       		.uleb128 0x18
 5161 074f 01       		.uleb128 0x1
 5162 0750 50       		.byte	0x50
 5163 0751 01       		.uleb128 0x1
 5164 0752 34       		.byte	0x34
 5165 0753 18       		.uleb128 0x18
 5166 0754 01       		.uleb128 0x1
 5167 0755 51       		.byte	0x51
 5168 0756 01       		.uleb128 0x1
 5169 0757 31       		.byte	0x31
 5170 0758 00       		.byte	0
 5171 0759 19       		.uleb128 0x19
 5172 075a C4000000 		.4byte	.LVL15
 5173 075e B2230000 		.4byte	0x23b2
 5174 0762 71070000 		.4byte	0x771
 5175 0766 18       		.uleb128 0x18
 5176 0767 01       		.uleb128 0x1
 5177 0768 50       		.byte	0x50
 5178 0769 01       		.uleb128 0x1
 5179 076a 34       		.byte	0x34
 5180 076b 18       		.uleb128 0x18
 5181 076c 01       		.uleb128 0x1
 5182 076d 51       		.byte	0x51
 5183 076e 01       		.uleb128 0x1
 5184 076f 30       		.byte	0x30
 5185 0770 00       		.byte	0
 5186 0771 17       		.uleb128 0x17
 5187 0772 CC000000 		.4byte	.LVL17
ARM GAS  /var/folders/m4/4md61f0s1_g0rzfghffqnxvr0000gn/T//ccSRVwbo.s 			page 92


 5188 0776 B2230000 		.4byte	0x23b2
 5189 077a 89070000 		.4byte	0x789
 5190 077e 18       		.uleb128 0x18
 5191 077f 01       		.uleb128 0x1
 5192 0780 50       		.byte	0x50
 5193 0781 01       		.uleb128 0x1
 5194 0782 38       		.byte	0x38
 5195 0783 18       		.uleb128 0x18
 5196 0784 01       		.uleb128 0x1
 5197 0785 51       		.byte	0x51
 5198 0786 01       		.uleb128 0x1
 5199 0787 31       		.byte	0x31
 5200 0788 00       		.byte	0
 5201 0789 19       		.uleb128 0x19
 5202 078a D8000000 		.4byte	.LVL18
 5203 078e B2230000 		.4byte	0x23b2
 5204 0792 A1070000 		.4byte	0x7a1
 5205 0796 18       		.uleb128 0x18
 5206 0797 01       		.uleb128 0x1
 5207 0798 50       		.byte	0x50
 5208 0799 01       		.uleb128 0x1
 5209 079a 38       		.byte	0x38
 5210 079b 18       		.uleb128 0x18
 5211 079c 01       		.uleb128 0x1
 5212 079d 51       		.byte	0x51
 5213 079e 01       		.uleb128 0x1
 5214 079f 30       		.byte	0x30
 5215 07a0 00       		.byte	0
 5216 07a1 17       		.uleb128 0x17
 5217 07a2 E0000000 		.4byte	.LVL20
 5218 07a6 B2230000 		.4byte	0x23b2
 5219 07aa B9070000 		.4byte	0x7b9
 5220 07ae 18       		.uleb128 0x18
 5221 07af 01       		.uleb128 0x1
 5222 07b0 50       		.byte	0x50
 5223 07b1 01       		.uleb128 0x1
 5224 07b2 40       		.byte	0x40
 5225 07b3 18       		.uleb128 0x18
 5226 07b4 01       		.uleb128 0x1
 5227 07b5 51       		.byte	0x51
 5228 07b6 01       		.uleb128 0x1
 5229 07b7 31       		.byte	0x31
 5230 07b8 00       		.byte	0
 5231 07b9 19       		.uleb128 0x19
 5232 07ba EC000000 		.4byte	.LVL21
 5233 07be B2230000 		.4byte	0x23b2
 5234 07c2 D1070000 		.4byte	0x7d1
 5235 07c6 18       		.uleb128 0x18
 5236 07c7 01       		.uleb128 0x1
 5237 07c8 50       		.byte	0x50
 5238 07c9 01       		.uleb128 0x1
 5239 07ca 40       		.byte	0x40
 5240 07cb 18       		.uleb128 0x18
 5241 07cc 01       		.uleb128 0x1
 5242 07cd 51       		.byte	0x51
 5243 07ce 01       		.uleb128 0x1
 5244 07cf 30       		.byte	0x30
ARM GAS  /var/folders/m4/4md61f0s1_g0rzfghffqnxvr0000gn/T//ccSRVwbo.s 			page 93


 5245 07d0 00       		.byte	0
 5246 07d1 17       		.uleb128 0x17
 5247 07d2 F4000000 		.4byte	.LVL23
 5248 07d6 B2230000 		.4byte	0x23b2
 5249 07da EA070000 		.4byte	0x7ea
 5250 07de 18       		.uleb128 0x18
 5251 07df 01       		.uleb128 0x1
 5252 07e0 50       		.byte	0x50
 5253 07e1 02       		.uleb128 0x2
 5254 07e2 08       		.byte	0x8
 5255 07e3 20       		.byte	0x20
 5256 07e4 18       		.uleb128 0x18
 5257 07e5 01       		.uleb128 0x1
 5258 07e6 51       		.byte	0x51
 5259 07e7 01       		.uleb128 0x1
 5260 07e8 31       		.byte	0x31
 5261 07e9 00       		.byte	0
 5262 07ea 19       		.uleb128 0x19
 5263 07eb 00010000 		.4byte	.LVL24
 5264 07ef B2230000 		.4byte	0x23b2
 5265 07f3 03080000 		.4byte	0x803
 5266 07f7 18       		.uleb128 0x18
 5267 07f8 01       		.uleb128 0x1
 5268 07f9 50       		.byte	0x50
 5269 07fa 02       		.uleb128 0x2
 5270 07fb 08       		.byte	0x8
 5271 07fc 20       		.byte	0x20
 5272 07fd 18       		.uleb128 0x18
 5273 07fe 01       		.uleb128 0x1
 5274 07ff 51       		.byte	0x51
 5275 0800 01       		.uleb128 0x1
 5276 0801 30       		.byte	0x30
 5277 0802 00       		.byte	0
 5278 0803 17       		.uleb128 0x17
 5279 0804 08010000 		.4byte	.LVL26
 5280 0808 BE230000 		.4byte	0x23be
 5281 080c 1B080000 		.4byte	0x81b
 5282 0810 18       		.uleb128 0x18
 5283 0811 01       		.uleb128 0x1
 5284 0812 50       		.byte	0x50
 5285 0813 01       		.uleb128 0x1
 5286 0814 32       		.byte	0x32
 5287 0815 18       		.uleb128 0x18
 5288 0816 01       		.uleb128 0x1
 5289 0817 51       		.byte	0x51
 5290 0818 01       		.uleb128 0x1
 5291 0819 31       		.byte	0x31
 5292 081a 00       		.byte	0
 5293 081b 19       		.uleb128 0x19
 5294 081c 14010000 		.4byte	.LVL27
 5295 0820 BE230000 		.4byte	0x23be
 5296 0824 33080000 		.4byte	0x833
 5297 0828 18       		.uleb128 0x18
 5298 0829 01       		.uleb128 0x1
 5299 082a 50       		.byte	0x50
 5300 082b 01       		.uleb128 0x1
 5301 082c 32       		.byte	0x32
ARM GAS  /var/folders/m4/4md61f0s1_g0rzfghffqnxvr0000gn/T//ccSRVwbo.s 			page 94


 5302 082d 18       		.uleb128 0x18
 5303 082e 01       		.uleb128 0x1
 5304 082f 51       		.byte	0x51
 5305 0830 01       		.uleb128 0x1
 5306 0831 30       		.byte	0x30
 5307 0832 00       		.byte	0
 5308 0833 17       		.uleb128 0x17
 5309 0834 1E010000 		.4byte	.LVL29
 5310 0838 BE230000 		.4byte	0x23be
 5311 083c 4D080000 		.4byte	0x84d
 5312 0840 18       		.uleb128 0x18
 5313 0841 01       		.uleb128 0x1
 5314 0842 50       		.byte	0x50
 5315 0843 03       		.uleb128 0x3
 5316 0844 40       		.byte	0x40
 5317 0845 3C       		.byte	0x3c
 5318 0846 24       		.byte	0x24
 5319 0847 18       		.uleb128 0x18
 5320 0848 01       		.uleb128 0x1
 5321 0849 51       		.byte	0x51
 5322 084a 01       		.uleb128 0x1
 5323 084b 31       		.byte	0x31
 5324 084c 00       		.byte	0
 5325 084d 19       		.uleb128 0x19
 5326 084e 2C010000 		.4byte	.LVL30
 5327 0852 BE230000 		.4byte	0x23be
 5328 0856 67080000 		.4byte	0x867
 5329 085a 18       		.uleb128 0x18
 5330 085b 01       		.uleb128 0x1
 5331 085c 50       		.byte	0x50
 5332 085d 03       		.uleb128 0x3
 5333 085e 40       		.byte	0x40
 5334 085f 3C       		.byte	0x3c
 5335 0860 24       		.byte	0x24
 5336 0861 18       		.uleb128 0x18
 5337 0862 01       		.uleb128 0x1
 5338 0863 51       		.byte	0x51
 5339 0864 01       		.uleb128 0x1
 5340 0865 30       		.byte	0x30
 5341 0866 00       		.byte	0
 5342 0867 17       		.uleb128 0x17
 5343 0868 36010000 		.4byte	.LVL32
 5344 086c BE230000 		.4byte	0x23be
 5345 0870 81080000 		.4byte	0x881
 5346 0874 18       		.uleb128 0x18
 5347 0875 01       		.uleb128 0x1
 5348 0876 50       		.byte	0x50
 5349 0877 03       		.uleb128 0x3
 5350 0878 40       		.byte	0x40
 5351 0879 3D       		.byte	0x3d
 5352 087a 24       		.byte	0x24
 5353 087b 18       		.uleb128 0x18
 5354 087c 01       		.uleb128 0x1
 5355 087d 51       		.byte	0x51
 5356 087e 01       		.uleb128 0x1
 5357 087f 31       		.byte	0x31
 5358 0880 00       		.byte	0
ARM GAS  /var/folders/m4/4md61f0s1_g0rzfghffqnxvr0000gn/T//ccSRVwbo.s 			page 95


 5359 0881 19       		.uleb128 0x19
 5360 0882 44010000 		.4byte	.LVL33
 5361 0886 BE230000 		.4byte	0x23be
 5362 088a 9B080000 		.4byte	0x89b
 5363 088e 18       		.uleb128 0x18
 5364 088f 01       		.uleb128 0x1
 5365 0890 50       		.byte	0x50
 5366 0891 03       		.uleb128 0x3
 5367 0892 40       		.byte	0x40
 5368 0893 3D       		.byte	0x3d
 5369 0894 24       		.byte	0x24
 5370 0895 18       		.uleb128 0x18
 5371 0896 01       		.uleb128 0x1
 5372 0897 51       		.byte	0x51
 5373 0898 01       		.uleb128 0x1
 5374 0899 30       		.byte	0x30
 5375 089a 00       		.byte	0
 5376 089b 17       		.uleb128 0x17
 5377 089c 4E010000 		.4byte	.LVL35
 5378 08a0 BE230000 		.4byte	0x23be
 5379 08a4 B5080000 		.4byte	0x8b5
 5380 08a8 18       		.uleb128 0x18
 5381 08a9 01       		.uleb128 0x1
 5382 08aa 50       		.byte	0x50
 5383 08ab 03       		.uleb128 0x3
 5384 08ac 40       		.byte	0x40
 5385 08ad 3E       		.byte	0x3e
 5386 08ae 24       		.byte	0x24
 5387 08af 18       		.uleb128 0x18
 5388 08b0 01       		.uleb128 0x1
 5389 08b1 51       		.byte	0x51
 5390 08b2 01       		.uleb128 0x1
 5391 08b3 31       		.byte	0x31
 5392 08b4 00       		.byte	0
 5393 08b5 19       		.uleb128 0x19
 5394 08b6 5C010000 		.4byte	.LVL36
 5395 08ba BE230000 		.4byte	0x23be
 5396 08be CF080000 		.4byte	0x8cf
 5397 08c2 18       		.uleb128 0x18
 5398 08c3 01       		.uleb128 0x1
 5399 08c4 50       		.byte	0x50
 5400 08c5 03       		.uleb128 0x3
 5401 08c6 40       		.byte	0x40
 5402 08c7 3E       		.byte	0x3e
 5403 08c8 24       		.byte	0x24
 5404 08c9 18       		.uleb128 0x18
 5405 08ca 01       		.uleb128 0x1
 5406 08cb 51       		.byte	0x51
 5407 08cc 01       		.uleb128 0x1
 5408 08cd 30       		.byte	0x30
 5409 08ce 00       		.byte	0
 5410 08cf 17       		.uleb128 0x17
 5411 08d0 64010000 		.4byte	.LVL38
 5412 08d4 B2230000 		.4byte	0x23b2
 5413 08d8 E8080000 		.4byte	0x8e8
 5414 08dc 18       		.uleb128 0x18
 5415 08dd 01       		.uleb128 0x1
ARM GAS  /var/folders/m4/4md61f0s1_g0rzfghffqnxvr0000gn/T//ccSRVwbo.s 			page 96


 5416 08de 50       		.byte	0x50
 5417 08df 02       		.uleb128 0x2
 5418 08e0 08       		.byte	0x8
 5419 08e1 40       		.byte	0x40
 5420 08e2 18       		.uleb128 0x18
 5421 08e3 01       		.uleb128 0x1
 5422 08e4 51       		.byte	0x51
 5423 08e5 01       		.uleb128 0x1
 5424 08e6 31       		.byte	0x31
 5425 08e7 00       		.byte	0
 5426 08e8 19       		.uleb128 0x19
 5427 08e9 70010000 		.4byte	.LVL39
 5428 08ed B2230000 		.4byte	0x23b2
 5429 08f1 01090000 		.4byte	0x901
 5430 08f5 18       		.uleb128 0x18
 5431 08f6 01       		.uleb128 0x1
 5432 08f7 50       		.byte	0x50
 5433 08f8 02       		.uleb128 0x2
 5434 08f9 08       		.byte	0x8
 5435 08fa 40       		.byte	0x40
 5436 08fb 18       		.uleb128 0x18
 5437 08fc 01       		.uleb128 0x1
 5438 08fd 51       		.byte	0x51
 5439 08fe 01       		.uleb128 0x1
 5440 08ff 30       		.byte	0x30
 5441 0900 00       		.byte	0
 5442 0901 17       		.uleb128 0x17
 5443 0902 78010000 		.4byte	.LVL41
 5444 0906 B2230000 		.4byte	0x23b2
 5445 090a 1A090000 		.4byte	0x91a
 5446 090e 18       		.uleb128 0x18
 5447 090f 01       		.uleb128 0x1
 5448 0910 50       		.byte	0x50
 5449 0911 02       		.uleb128 0x2
 5450 0912 08       		.byte	0x8
 5451 0913 80       		.byte	0x80
 5452 0914 18       		.uleb128 0x18
 5453 0915 01       		.uleb128 0x1
 5454 0916 51       		.byte	0x51
 5455 0917 01       		.uleb128 0x1
 5456 0918 31       		.byte	0x31
 5457 0919 00       		.byte	0
 5458 091a 1A       		.uleb128 0x1a
 5459 091b 84010000 		.4byte	.LVL42
 5460 091f B2230000 		.4byte	0x23b2
 5461 0923 18       		.uleb128 0x18
 5462 0924 01       		.uleb128 0x1
 5463 0925 50       		.byte	0x50
 5464 0926 02       		.uleb128 0x2
 5465 0927 08       		.byte	0x8
 5466 0928 80       		.byte	0x80
 5467 0929 18       		.uleb128 0x18
 5468 092a 01       		.uleb128 0x1
 5469 092b 51       		.byte	0x51
 5470 092c 01       		.uleb128 0x1
 5471 092d 30       		.byte	0x30
 5472 092e 00       		.byte	0
ARM GAS  /var/folders/m4/4md61f0s1_g0rzfghffqnxvr0000gn/T//ccSRVwbo.s 			page 97


 5473 092f 00       		.byte	0
 5474 0930 1B       		.uleb128 0x1b
 5475 0931 780A0000 		.4byte	.LASF86
 5476 0935 01       		.byte	0x1
 5477 0936 2501     		.2byte	0x125
 5478 0938 00000000 		.4byte	.LFB124
 5479 093c 98000000 		.4byte	.LFE124-.LFB124
 5480 0940 01       		.uleb128 0x1
 5481 0941 9C       		.byte	0x9c
 5482 0942 73090000 		.4byte	0x973
 5483 0946 1C       		.uleb128 0x1c
 5484 0947 76050000 		.4byte	.LASF65
 5485 094b 01       		.byte	0x1
 5486 094c 2501     		.2byte	0x125
 5487 094e E9030000 		.4byte	0x3e9
 5488 0952 01       		.uleb128 0x1
 5489 0953 50       		.byte	0x50
 5490 0954 1C       		.uleb128 0x1c
 5491 0955 C9080000 		.4byte	.LASF87
 5492 0959 01       		.byte	0x1
 5493 095a 2501     		.2byte	0x125
 5494 095c 73090000 		.4byte	0x973
 5495 0960 01       		.uleb128 0x1
 5496 0961 51       		.byte	0x51
 5497 0962 1D       		.uleb128 0x1d
 5498 0963 95060000 		.4byte	.LASF93
 5499 0967 01       		.byte	0x1
 5500 0968 2701     		.2byte	0x127
 5501 096a A2000000 		.4byte	0xa2
 5502 096e 66010000 		.4byte	.LLST1
 5503 0972 00       		.byte	0
 5504 0973 11       		.uleb128 0x11
 5505 0974 04       		.byte	0x4
 5506 0975 8C020000 		.4byte	0x28c
 5507 0979 1B       		.uleb128 0x1b
 5508 097a C3040000 		.4byte	.LASF88
 5509 097e 01       		.byte	0x1
 5510 097f 5901     		.2byte	0x159
 5511 0981 00000000 		.4byte	.LFB125
 5512 0985 12000000 		.4byte	.LFE125-.LFB125
 5513 0989 01       		.uleb128 0x1
 5514 098a 9C       		.byte	0x9c
 5515 098b 9E090000 		.4byte	0x99e
 5516 098f 1C       		.uleb128 0x1c
 5517 0990 C9080000 		.4byte	.LASF87
 5518 0994 01       		.byte	0x1
 5519 0995 5901     		.2byte	0x159
 5520 0997 73090000 		.4byte	0x973
 5521 099b 01       		.uleb128 0x1
 5522 099c 50       		.byte	0x50
 5523 099d 00       		.byte	0
 5524 099e 1B       		.uleb128 0x1b
 5525 099f 230A0000 		.4byte	.LASF89
 5526 09a3 01       		.byte	0x1
 5527 09a4 6D01     		.2byte	0x16d
 5528 09a6 00000000 		.4byte	.LFB126
 5529 09aa 06000000 		.4byte	.LFE126-.LFB126
ARM GAS  /var/folders/m4/4md61f0s1_g0rzfghffqnxvr0000gn/T//ccSRVwbo.s 			page 98


 5530 09ae 01       		.uleb128 0x1
 5531 09af 9C       		.byte	0x9c
 5532 09b0 DF090000 		.4byte	0x9df
 5533 09b4 1C       		.uleb128 0x1c
 5534 09b5 76050000 		.4byte	.LASF65
 5535 09b9 01       		.byte	0x1
 5536 09ba 6D01     		.2byte	0x16d
 5537 09bc E9030000 		.4byte	0x3e9
 5538 09c0 01       		.uleb128 0x1
 5539 09c1 50       		.byte	0x50
 5540 09c2 1C       		.uleb128 0x1c
 5541 09c3 EE0B0000 		.4byte	.LASF90
 5542 09c7 01       		.byte	0x1
 5543 09c8 6D01     		.2byte	0x16d
 5544 09ca A2000000 		.4byte	0xa2
 5545 09ce 01       		.uleb128 0x1
 5546 09cf 51       		.byte	0x51
 5547 09d0 1C       		.uleb128 0x1c
 5548 09d1 4F060000 		.4byte	.LASF91
 5549 09d5 01       		.byte	0x1
 5550 09d6 6D01     		.2byte	0x16d
 5551 09d8 A2000000 		.4byte	0xa2
 5552 09dc 01       		.uleb128 0x1
 5553 09dd 52       		.byte	0x52
 5554 09de 00       		.byte	0
 5555 09df 1B       		.uleb128 0x1b
 5556 09e0 72020000 		.4byte	.LASF92
 5557 09e4 01       		.byte	0x1
 5558 09e5 8401     		.2byte	0x184
 5559 09e7 00000000 		.4byte	.LFB127
 5560 09eb 0E000000 		.4byte	.LFE127-.LFB127
 5561 09ef 01       		.uleb128 0x1
 5562 09f0 9C       		.byte	0x9c
 5563 09f1 240A0000 		.4byte	0xa24
 5564 09f5 1C       		.uleb128 0x1c
 5565 09f6 76050000 		.4byte	.LASF65
 5566 09fa 01       		.byte	0x1
 5567 09fb 8401     		.2byte	0x184
 5568 09fd E9030000 		.4byte	0x3e9
 5569 0a01 01       		.uleb128 0x1
 5570 0a02 50       		.byte	0x50
 5571 0a03 1E       		.uleb128 0x1e
 5572 0a04 86000000 		.4byte	.LASF37
 5573 0a08 01       		.byte	0x1
 5574 0a09 8401     		.2byte	0x184
 5575 0a0b A2000000 		.4byte	0xa2
 5576 0a0f A2010000 		.4byte	.LLST2
 5577 0a13 1D       		.uleb128 0x1d
 5578 0a14 95060000 		.4byte	.LASF93
 5579 0a18 01       		.byte	0x1
 5580 0a19 8601     		.2byte	0x186
 5581 0a1b A2000000 		.4byte	0xa2
 5582 0a1f C3010000 		.4byte	.LLST3
 5583 0a23 00       		.byte	0
 5584 0a24 1B       		.uleb128 0x1b
 5585 0a25 C90C0000 		.4byte	.LASF94
 5586 0a29 01       		.byte	0x1
ARM GAS  /var/folders/m4/4md61f0s1_g0rzfghffqnxvr0000gn/T//ccSRVwbo.s 			page 99


 5587 0a2a 9E01     		.2byte	0x19e
 5588 0a2c 00000000 		.4byte	.LFB128
 5589 0a30 04000000 		.4byte	.LFE128-.LFB128
 5590 0a34 01       		.uleb128 0x1
 5591 0a35 9C       		.byte	0x9c
 5592 0a36 570A0000 		.4byte	0xa57
 5593 0a3a 1C       		.uleb128 0x1c
 5594 0a3b 76050000 		.4byte	.LASF65
 5595 0a3f 01       		.byte	0x1
 5596 0a40 9E01     		.2byte	0x19e
 5597 0a42 E9030000 		.4byte	0x3e9
 5598 0a46 01       		.uleb128 0x1
 5599 0a47 50       		.byte	0x50
 5600 0a48 1C       		.uleb128 0x1c
 5601 0a49 4D090000 		.4byte	.LASF95
 5602 0a4d 01       		.byte	0x1
 5603 0a4e 9E01     		.2byte	0x19e
 5604 0a50 B8000000 		.4byte	0xb8
 5605 0a54 01       		.uleb128 0x1
 5606 0a55 51       		.byte	0x51
 5607 0a56 00       		.byte	0
 5608 0a57 1B       		.uleb128 0x1b
 5609 0a58 33030000 		.4byte	.LASF96
 5610 0a5c 01       		.byte	0x1
 5611 0a5d AD01     		.2byte	0x1ad
 5612 0a5f 00000000 		.4byte	.LFB129
 5613 0a63 04000000 		.4byte	.LFE129-.LFB129
 5614 0a67 01       		.uleb128 0x1
 5615 0a68 9C       		.byte	0x9c
 5616 0a69 8A0A0000 		.4byte	0xa8a
 5617 0a6d 1C       		.uleb128 0x1c
 5618 0a6e 76050000 		.4byte	.LASF65
 5619 0a72 01       		.byte	0x1
 5620 0a73 AD01     		.2byte	0x1ad
 5621 0a75 E9030000 		.4byte	0x3e9
 5622 0a79 01       		.uleb128 0x1
 5623 0a7a 50       		.byte	0x50
 5624 0a7b 1C       		.uleb128 0x1c
 5625 0a7c 96000000 		.4byte	.LASF97
 5626 0a80 01       		.byte	0x1
 5627 0a81 AD01     		.2byte	0x1ad
 5628 0a83 B8000000 		.4byte	0xb8
 5629 0a87 01       		.uleb128 0x1
 5630 0a88 51       		.byte	0x51
 5631 0a89 00       		.byte	0
 5632 0a8a 1F       		.uleb128 0x1f
 5633 0a8b B4040000 		.4byte	.LASF98
 5634 0a8f 01       		.byte	0x1
 5635 0a90 BB01     		.2byte	0x1bb
 5636 0a92 B8000000 		.4byte	0xb8
 5637 0a96 00000000 		.4byte	.LFB130
 5638 0a9a 04000000 		.4byte	.LFE130-.LFB130
 5639 0a9e 01       		.uleb128 0x1
 5640 0a9f 9C       		.byte	0x9c
 5641 0aa0 B50A0000 		.4byte	0xab5
 5642 0aa4 1E       		.uleb128 0x1e
 5643 0aa5 76050000 		.4byte	.LASF65
ARM GAS  /var/folders/m4/4md61f0s1_g0rzfghffqnxvr0000gn/T//ccSRVwbo.s 			page 100


 5644 0aa9 01       		.byte	0x1
 5645 0aaa BB01     		.2byte	0x1bb
 5646 0aac E9030000 		.4byte	0x3e9
 5647 0ab0 03020000 		.4byte	.LLST4
 5648 0ab4 00       		.byte	0
 5649 0ab5 1F       		.uleb128 0x1f
 5650 0ab6 A3040000 		.4byte	.LASF99
 5651 0aba 01       		.byte	0x1
 5652 0abb C901     		.2byte	0x1c9
 5653 0abd A2000000 		.4byte	0xa2
 5654 0ac1 00000000 		.4byte	.LFB131
 5655 0ac5 06000000 		.4byte	.LFE131-.LFB131
 5656 0ac9 01       		.uleb128 0x1
 5657 0aca 9C       		.byte	0x9c
 5658 0acb E00A0000 		.4byte	0xae0
 5659 0acf 1E       		.uleb128 0x1e
 5660 0ad0 76050000 		.4byte	.LASF65
 5661 0ad4 01       		.byte	0x1
 5662 0ad5 C901     		.2byte	0x1c9
 5663 0ad7 E9030000 		.4byte	0x3e9
 5664 0adb 24020000 		.4byte	.LLST5
 5665 0adf 00       		.byte	0
 5666 0ae0 1B       		.uleb128 0x1b
 5667 0ae1 0C010000 		.4byte	.LASF100
 5668 0ae5 01       		.byte	0x1
 5669 0ae6 D901     		.2byte	0x1d9
 5670 0ae8 00000000 		.4byte	.LFB132
 5671 0aec 18000000 		.4byte	.LFE132-.LFB132
 5672 0af0 01       		.uleb128 0x1
 5673 0af1 9C       		.byte	0x9c
 5674 0af2 130B0000 		.4byte	0xb13
 5675 0af6 1C       		.uleb128 0x1c
 5676 0af7 76050000 		.4byte	.LASF65
 5677 0afb 01       		.byte	0x1
 5678 0afc D901     		.2byte	0x1d9
 5679 0afe E9030000 		.4byte	0x3e9
 5680 0b02 01       		.uleb128 0x1
 5681 0b03 50       		.byte	0x50
 5682 0b04 1C       		.uleb128 0x1c
 5683 0b05 0B000000 		.4byte	.LASF101
 5684 0b09 01       		.byte	0x1
 5685 0b0a D901     		.2byte	0x1d9
 5686 0b0c 3C020000 		.4byte	0x23c
 5687 0b10 01       		.uleb128 0x1
 5688 0b11 51       		.byte	0x51
 5689 0b12 00       		.byte	0
 5690 0b13 1B       		.uleb128 0x1b
 5691 0b14 D60B0000 		.4byte	.LASF102
 5692 0b18 01       		.byte	0x1
 5693 0b19 F601     		.2byte	0x1f6
 5694 0b1b 00000000 		.4byte	.LFB133
 5695 0b1f 18000000 		.4byte	.LFE133-.LFB133
 5696 0b23 01       		.uleb128 0x1
 5697 0b24 9C       		.byte	0x9c
 5698 0b25 460B0000 		.4byte	0xb46
 5699 0b29 1C       		.uleb128 0x1c
 5700 0b2a 76050000 		.4byte	.LASF65
ARM GAS  /var/folders/m4/4md61f0s1_g0rzfghffqnxvr0000gn/T//ccSRVwbo.s 			page 101


 5701 0b2e 01       		.byte	0x1
 5702 0b2f F601     		.2byte	0x1f6
 5703 0b31 E9030000 		.4byte	0x3e9
 5704 0b35 01       		.uleb128 0x1
 5705 0b36 50       		.byte	0x50
 5706 0b37 1C       		.uleb128 0x1c
 5707 0b38 99030000 		.4byte	.LASF103
 5708 0b3c 01       		.byte	0x1
 5709 0b3d F601     		.2byte	0x1f6
 5710 0b3f A2000000 		.4byte	0xa2
 5711 0b43 01       		.uleb128 0x1
 5712 0b44 51       		.byte	0x51
 5713 0b45 00       		.byte	0
 5714 0b46 1B       		.uleb128 0x1b
 5715 0b47 C6010000 		.4byte	.LASF104
 5716 0b4b 01       		.byte	0x1
 5717 0b4c 0F02     		.2byte	0x20f
 5718 0b4e 00000000 		.4byte	.LFB134
 5719 0b52 18000000 		.4byte	.LFE134-.LFB134
 5720 0b56 01       		.uleb128 0x1
 5721 0b57 9C       		.byte	0x9c
 5722 0b58 790B0000 		.4byte	0xb79
 5723 0b5c 1C       		.uleb128 0x1c
 5724 0b5d 76050000 		.4byte	.LASF65
 5725 0b61 01       		.byte	0x1
 5726 0b62 0F02     		.2byte	0x20f
 5727 0b64 E9030000 		.4byte	0x3e9
 5728 0b68 01       		.uleb128 0x1
 5729 0b69 50       		.byte	0x50
 5730 0b6a 1C       		.uleb128 0x1c
 5731 0b6b 0B000000 		.4byte	.LASF101
 5732 0b6f 01       		.byte	0x1
 5733 0b70 0F02     		.2byte	0x20f
 5734 0b72 3C020000 		.4byte	0x23c
 5735 0b76 01       		.uleb128 0x1
 5736 0b77 51       		.byte	0x51
 5737 0b78 00       		.byte	0
 5738 0b79 1B       		.uleb128 0x1b
 5739 0b7a 28000000 		.4byte	.LASF105
 5740 0b7e 01       		.byte	0x1
 5741 0b7f 2A02     		.2byte	0x22a
 5742 0b81 00000000 		.4byte	.LFB135
 5743 0b85 12000000 		.4byte	.LFE135-.LFB135
 5744 0b89 01       		.uleb128 0x1
 5745 0b8a 9C       		.byte	0x9c
 5746 0b8b AE0B0000 		.4byte	0xbae
 5747 0b8f 1C       		.uleb128 0x1c
 5748 0b90 76050000 		.4byte	.LASF65
 5749 0b94 01       		.byte	0x1
 5750 0b95 2A02     		.2byte	0x22a
 5751 0b97 E9030000 		.4byte	0x3e9
 5752 0b9b 01       		.uleb128 0x1
 5753 0b9c 50       		.byte	0x50
 5754 0b9d 1E       		.uleb128 0x1e
 5755 0b9e 00000000 		.4byte	.LASF106
 5756 0ba2 01       		.byte	0x1
 5757 0ba3 2A02     		.2byte	0x22a
ARM GAS  /var/folders/m4/4md61f0s1_g0rzfghffqnxvr0000gn/T//ccSRVwbo.s 			page 102


 5758 0ba5 A2000000 		.4byte	0xa2
 5759 0ba9 45020000 		.4byte	.LLST6
 5760 0bad 00       		.byte	0
 5761 0bae 1B       		.uleb128 0x1b
 5762 0baf F7080000 		.4byte	.LASF107
 5763 0bb3 01       		.byte	0x1
 5764 0bb4 4102     		.2byte	0x241
 5765 0bb6 00000000 		.4byte	.LFB136
 5766 0bba 12000000 		.4byte	.LFE136-.LFB136
 5767 0bbe 01       		.uleb128 0x1
 5768 0bbf 9C       		.byte	0x9c
 5769 0bc0 E30B0000 		.4byte	0xbe3
 5770 0bc4 1C       		.uleb128 0x1c
 5771 0bc5 76050000 		.4byte	.LASF65
 5772 0bc9 01       		.byte	0x1
 5773 0bca 4102     		.2byte	0x241
 5774 0bcc E9030000 		.4byte	0x3e9
 5775 0bd0 01       		.uleb128 0x1
 5776 0bd1 50       		.byte	0x50
 5777 0bd2 1E       		.uleb128 0x1e
 5778 0bd3 2B030000 		.4byte	.LASF108
 5779 0bd7 01       		.byte	0x1
 5780 0bd8 4102     		.2byte	0x241
 5781 0bda A2000000 		.4byte	0xa2
 5782 0bde 66020000 		.4byte	.LLST7
 5783 0be2 00       		.byte	0
 5784 0be3 1B       		.uleb128 0x1b
 5785 0be4 1E0B0000 		.4byte	.LASF109
 5786 0be8 01       		.byte	0x1
 5787 0be9 5502     		.2byte	0x255
 5788 0beb 00000000 		.4byte	.LFB137
 5789 0bef 18000000 		.4byte	.LFE137-.LFB137
 5790 0bf3 01       		.uleb128 0x1
 5791 0bf4 9C       		.byte	0x9c
 5792 0bf5 160C0000 		.4byte	0xc16
 5793 0bf9 1C       		.uleb128 0x1c
 5794 0bfa 76050000 		.4byte	.LASF65
 5795 0bfe 01       		.byte	0x1
 5796 0bff 5502     		.2byte	0x255
 5797 0c01 E9030000 		.4byte	0x3e9
 5798 0c05 01       		.uleb128 0x1
 5799 0c06 50       		.byte	0x50
 5800 0c07 1C       		.uleb128 0x1c
 5801 0c08 0B000000 		.4byte	.LASF101
 5802 0c0c 01       		.byte	0x1
 5803 0c0d 5502     		.2byte	0x255
 5804 0c0f 3C020000 		.4byte	0x23c
 5805 0c13 01       		.uleb128 0x1
 5806 0c14 51       		.byte	0x51
 5807 0c15 00       		.byte	0
 5808 0c16 1B       		.uleb128 0x1b
 5809 0c17 0F0D0000 		.4byte	.LASF110
 5810 0c1b 01       		.byte	0x1
 5811 0c1c A602     		.2byte	0x2a6
 5812 0c1e 00000000 		.4byte	.LFB138
 5813 0c22 74000000 		.4byte	.LFE138-.LFB138
 5814 0c26 01       		.uleb128 0x1
ARM GAS  /var/folders/m4/4md61f0s1_g0rzfghffqnxvr0000gn/T//ccSRVwbo.s 			page 103


 5815 0c27 9C       		.byte	0x9c
 5816 0c28 7B0C0000 		.4byte	0xc7b
 5817 0c2c 1C       		.uleb128 0x1c
 5818 0c2d 76050000 		.4byte	.LASF65
 5819 0c31 01       		.byte	0x1
 5820 0c32 A602     		.2byte	0x2a6
 5821 0c34 E9030000 		.4byte	0x3e9
 5822 0c38 01       		.uleb128 0x1
 5823 0c39 50       		.byte	0x50
 5824 0c3a 1E       		.uleb128 0x1e
 5825 0c3b 52050000 		.4byte	.LASF111
 5826 0c3f 01       		.byte	0x1
 5827 0c40 A602     		.2byte	0x2a6
 5828 0c42 7B0C0000 		.4byte	0xc7b
 5829 0c46 87020000 		.4byte	.LLST8
 5830 0c4a 1D       		.uleb128 0x1d
 5831 0c4b 06030000 		.4byte	.LASF112
 5832 0c4f 01       		.byte	0x1
 5833 0c50 A802     		.2byte	0x2a8
 5834 0c52 A2000000 		.4byte	0xa2
 5835 0c56 B3020000 		.4byte	.LLST9
 5836 0c5a 1D       		.uleb128 0x1d
 5837 0c5b 4B040000 		.4byte	.LASF68
 5838 0c5f 01       		.byte	0x1
 5839 0c60 A802     		.2byte	0x2a8
 5840 0c62 A2000000 		.4byte	0xa2
 5841 0c66 DD020000 		.4byte	.LLST10
 5842 0c6a 1D       		.uleb128 0x1d
 5843 0c6b 68010000 		.4byte	.LASF113
 5844 0c6f 01       		.byte	0x1
 5845 0c70 A802     		.2byte	0x2a8
 5846 0c72 A2000000 		.4byte	0xa2
 5847 0c76 07030000 		.4byte	.LLST11
 5848 0c7a 00       		.byte	0
 5849 0c7b 11       		.uleb128 0x11
 5850 0c7c 04       		.byte	0x4
 5851 0c7d 00030000 		.4byte	0x300
 5852 0c81 1B       		.uleb128 0x1b
 5853 0c82 3F0B0000 		.4byte	.LASF114
 5854 0c86 01       		.byte	0x1
 5855 0c87 F702     		.2byte	0x2f7
 5856 0c89 00000000 		.4byte	.LFB139
 5857 0c8d 80000000 		.4byte	.LFE139-.LFB139
 5858 0c91 01       		.uleb128 0x1
 5859 0c92 9C       		.byte	0x9c
 5860 0c93 E60C0000 		.4byte	0xce6
 5861 0c97 1C       		.uleb128 0x1c
 5862 0c98 76050000 		.4byte	.LASF65
 5863 0c9c 01       		.byte	0x1
 5864 0c9d F702     		.2byte	0x2f7
 5865 0c9f E9030000 		.4byte	0x3e9
 5866 0ca3 01       		.uleb128 0x1
 5867 0ca4 50       		.byte	0x50
 5868 0ca5 1E       		.uleb128 0x1e
 5869 0ca6 52050000 		.4byte	.LASF111
 5870 0caa 01       		.byte	0x1
 5871 0cab F702     		.2byte	0x2f7
ARM GAS  /var/folders/m4/4md61f0s1_g0rzfghffqnxvr0000gn/T//ccSRVwbo.s 			page 104


 5872 0cad 7B0C0000 		.4byte	0xc7b
 5873 0cb1 31030000 		.4byte	.LLST12
 5874 0cb5 1D       		.uleb128 0x1d
 5875 0cb6 06030000 		.4byte	.LASF112
 5876 0cba 01       		.byte	0x1
 5877 0cbb F902     		.2byte	0x2f9
 5878 0cbd A2000000 		.4byte	0xa2
 5879 0cc1 5D030000 		.4byte	.LLST13
 5880 0cc5 1D       		.uleb128 0x1d
 5881 0cc6 4B040000 		.4byte	.LASF68
 5882 0cca 01       		.byte	0x1
 5883 0ccb F902     		.2byte	0x2f9
 5884 0ccd A2000000 		.4byte	0xa2
 5885 0cd1 7C030000 		.4byte	.LLST14
 5886 0cd5 1D       		.uleb128 0x1d
 5887 0cd6 68010000 		.4byte	.LASF113
 5888 0cda 01       		.byte	0x1
 5889 0cdb F902     		.2byte	0x2f9
 5890 0cdd A2000000 		.4byte	0xa2
 5891 0ce1 BC030000 		.4byte	.LLST15
 5892 0ce5 00       		.byte	0
 5893 0ce6 1B       		.uleb128 0x1b
 5894 0ce7 D2020000 		.4byte	.LASF115
 5895 0ceb 01       		.byte	0x1
 5896 0cec 4803     		.2byte	0x348
 5897 0cee 00000000 		.4byte	.LFB140
 5898 0cf2 84000000 		.4byte	.LFE140-.LFB140
 5899 0cf6 01       		.uleb128 0x1
 5900 0cf7 9C       		.byte	0x9c
 5901 0cf8 4B0D0000 		.4byte	0xd4b
 5902 0cfc 1C       		.uleb128 0x1c
 5903 0cfd 76050000 		.4byte	.LASF65
 5904 0d01 01       		.byte	0x1
 5905 0d02 4803     		.2byte	0x348
 5906 0d04 E9030000 		.4byte	0x3e9
 5907 0d08 01       		.uleb128 0x1
 5908 0d09 50       		.byte	0x50
 5909 0d0a 1E       		.uleb128 0x1e
 5910 0d0b 52050000 		.4byte	.LASF111
 5911 0d0f 01       		.byte	0x1
 5912 0d10 4803     		.2byte	0x348
 5913 0d12 7B0C0000 		.4byte	0xc7b
 5914 0d16 E6030000 		.4byte	.LLST16
 5915 0d1a 1D       		.uleb128 0x1d
 5916 0d1b 06030000 		.4byte	.LASF112
 5917 0d1f 01       		.byte	0x1
 5918 0d20 4A03     		.2byte	0x34a
 5919 0d22 A2000000 		.4byte	0xa2
 5920 0d26 12040000 		.4byte	.LLST17
 5921 0d2a 1D       		.uleb128 0x1d
 5922 0d2b 4B040000 		.4byte	.LASF68
 5923 0d2f 01       		.byte	0x1
 5924 0d30 4A03     		.2byte	0x34a
 5925 0d32 A2000000 		.4byte	0xa2
 5926 0d36 31040000 		.4byte	.LLST18
 5927 0d3a 1D       		.uleb128 0x1d
 5928 0d3b 68010000 		.4byte	.LASF113
ARM GAS  /var/folders/m4/4md61f0s1_g0rzfghffqnxvr0000gn/T//ccSRVwbo.s 			page 105


 5929 0d3f 01       		.byte	0x1
 5930 0d40 4A03     		.2byte	0x34a
 5931 0d42 A2000000 		.4byte	0xa2
 5932 0d46 71040000 		.4byte	.LLST19
 5933 0d4a 00       		.byte	0
 5934 0d4b 1B       		.uleb128 0x1b
 5935 0d4c A00B0000 		.4byte	.LASF116
 5936 0d50 01       		.byte	0x1
 5937 0d51 9803     		.2byte	0x398
 5938 0d53 00000000 		.4byte	.LFB141
 5939 0d57 68000000 		.4byte	.LFE141-.LFB141
 5940 0d5b 01       		.uleb128 0x1
 5941 0d5c 9C       		.byte	0x9c
 5942 0d5d B00D0000 		.4byte	0xdb0
 5943 0d61 1C       		.uleb128 0x1c
 5944 0d62 76050000 		.4byte	.LASF65
 5945 0d66 01       		.byte	0x1
 5946 0d67 9803     		.2byte	0x398
 5947 0d69 E9030000 		.4byte	0x3e9
 5948 0d6d 01       		.uleb128 0x1
 5949 0d6e 50       		.byte	0x50
 5950 0d6f 1E       		.uleb128 0x1e
 5951 0d70 52050000 		.4byte	.LASF111
 5952 0d74 01       		.byte	0x1
 5953 0d75 9803     		.2byte	0x398
 5954 0d77 7B0C0000 		.4byte	0xc7b
 5955 0d7b AF040000 		.4byte	.LLST20
 5956 0d7f 1D       		.uleb128 0x1d
 5957 0d80 06030000 		.4byte	.LASF112
 5958 0d84 01       		.byte	0x1
 5959 0d85 9A03     		.2byte	0x39a
 5960 0d87 A2000000 		.4byte	0xa2
 5961 0d8b DB040000 		.4byte	.LLST21
 5962 0d8f 1D       		.uleb128 0x1d
 5963 0d90 4B040000 		.4byte	.LASF68
 5964 0d94 01       		.byte	0x1
 5965 0d95 9A03     		.2byte	0x39a
 5966 0d97 A2000000 		.4byte	0xa2
 5967 0d9b FA040000 		.4byte	.LLST22
 5968 0d9f 1D       		.uleb128 0x1d
 5969 0da0 68010000 		.4byte	.LASF113
 5970 0da4 01       		.byte	0x1
 5971 0da5 9A03     		.2byte	0x39a
 5972 0da7 A2000000 		.4byte	0xa2
 5973 0dab 24050000 		.4byte	.LLST23
 5974 0daf 00       		.byte	0
 5975 0db0 1B       		.uleb128 0x1b
 5976 0db1 3E060000 		.4byte	.LASF117
 5977 0db5 01       		.byte	0x1
 5978 0db6 D703     		.2byte	0x3d7
 5979 0db8 00000000 		.4byte	.LFB142
 5980 0dbc 14000000 		.4byte	.LFE142-.LFB142
 5981 0dc0 01       		.uleb128 0x1
 5982 0dc1 9C       		.byte	0x9c
 5983 0dc2 D50D0000 		.4byte	0xdd5
 5984 0dc6 1C       		.uleb128 0x1c
 5985 0dc7 52050000 		.4byte	.LASF111
ARM GAS  /var/folders/m4/4md61f0s1_g0rzfghffqnxvr0000gn/T//ccSRVwbo.s 			page 106


 5986 0dcb 01       		.byte	0x1
 5987 0dcc D703     		.2byte	0x3d7
 5988 0dce 7B0C0000 		.4byte	0xc7b
 5989 0dd2 01       		.uleb128 0x1
 5990 0dd3 50       		.byte	0x50
 5991 0dd4 00       		.byte	0
 5992 0dd5 1B       		.uleb128 0x1b
 5993 0dd6 C70B0000 		.4byte	.LASF118
 5994 0dda 01       		.byte	0x1
 5995 0ddb FB03     		.2byte	0x3fb
 5996 0ddd 00000000 		.4byte	.LFB143
 5997 0de1 50000000 		.4byte	.LFE143-.LFB143
 5998 0de5 01       		.uleb128 0x1
 5999 0de6 9C       		.byte	0x9c
 6000 0de7 3C0E0000 		.4byte	0xe3c
 6001 0deb 1E       		.uleb128 0x1e
 6002 0dec 76050000 		.4byte	.LASF65
 6003 0df0 01       		.byte	0x1
 6004 0df1 FB03     		.2byte	0x3fb
 6005 0df3 E9030000 		.4byte	0x3e9
 6006 0df7 4E050000 		.4byte	.LLST24
 6007 0dfb 1E       		.uleb128 0x1e
 6008 0dfc 5A020000 		.4byte	.LASF51
 6009 0e00 01       		.byte	0x1
 6010 0e01 FB03     		.2byte	0x3fb
 6011 0e03 A2000000 		.4byte	0xa2
 6012 0e07 6E050000 		.4byte	.LLST25
 6013 0e0b 1E       		.uleb128 0x1e
 6014 0e0c 2E0C0000 		.4byte	.LASF42
 6015 0e10 01       		.byte	0x1
 6016 0e11 FB03     		.2byte	0x3fb
 6017 0e13 A2000000 		.4byte	0xa2
 6018 0e17 A8050000 		.4byte	.LLST26
 6019 0e1b 20       		.uleb128 0x20
 6020 0e1c 746D7000 		.ascii	"tmp\000"
 6021 0e20 01       		.byte	0x1
 6022 0e21 FD03     		.2byte	0x3fd
 6023 0e23 B8000000 		.4byte	0xb8
 6024 0e27 E2050000 		.4byte	.LLST27
 6025 0e2b 1D       		.uleb128 0x1d
 6026 0e2c F8010000 		.4byte	.LASF119
 6027 0e30 01       		.byte	0x1
 6028 0e31 FE03     		.2byte	0x3fe
 6029 0e33 A2000000 		.4byte	0xa2
 6030 0e37 51060000 		.4byte	.LLST28
 6031 0e3b 00       		.byte	0
 6032 0e3c 1B       		.uleb128 0x1b
 6033 0e3d EC000000 		.4byte	.LASF120
 6034 0e41 01       		.byte	0x1
 6035 0e42 2904     		.2byte	0x429
 6036 0e44 00000000 		.4byte	.LFB144
 6037 0e48 04000000 		.4byte	.LFE144-.LFB144
 6038 0e4c 01       		.uleb128 0x1
 6039 0e4d 9C       		.byte	0x9c
 6040 0e4e 6F0E0000 		.4byte	0xe6f
 6041 0e52 1C       		.uleb128 0x1c
 6042 0e53 76050000 		.4byte	.LASF65
ARM GAS  /var/folders/m4/4md61f0s1_g0rzfghffqnxvr0000gn/T//ccSRVwbo.s 			page 107


 6043 0e57 01       		.byte	0x1
 6044 0e58 2904     		.2byte	0x429
 6045 0e5a E9030000 		.4byte	0x3e9
 6046 0e5e 01       		.uleb128 0x1
 6047 0e5f 50       		.byte	0x50
 6048 0e60 1C       		.uleb128 0x1c
 6049 0e61 E3000000 		.4byte	.LASF121
 6050 0e65 01       		.byte	0x1
 6051 0e66 2904     		.2byte	0x429
 6052 0e68 B8000000 		.4byte	0xb8
 6053 0e6c 01       		.uleb128 0x1
 6054 0e6d 51       		.byte	0x51
 6055 0e6e 00       		.byte	0
 6056 0e6f 1B       		.uleb128 0x1b
 6057 0e70 1D040000 		.4byte	.LASF122
 6058 0e74 01       		.byte	0x1
 6059 0e75 3904     		.2byte	0x439
 6060 0e77 00000000 		.4byte	.LFB145
 6061 0e7b 04000000 		.4byte	.LFE145-.LFB145
 6062 0e7f 01       		.uleb128 0x1
 6063 0e80 9C       		.byte	0x9c
 6064 0e81 A20E0000 		.4byte	0xea2
 6065 0e85 1C       		.uleb128 0x1c
 6066 0e86 76050000 		.4byte	.LASF65
 6067 0e8a 01       		.byte	0x1
 6068 0e8b 3904     		.2byte	0x439
 6069 0e8d E9030000 		.4byte	0x3e9
 6070 0e91 01       		.uleb128 0x1
 6071 0e92 50       		.byte	0x50
 6072 0e93 1C       		.uleb128 0x1c
 6073 0e94 55090000 		.4byte	.LASF123
 6074 0e98 01       		.byte	0x1
 6075 0e99 3904     		.2byte	0x439
 6076 0e9b B8000000 		.4byte	0xb8
 6077 0e9f 01       		.uleb128 0x1
 6078 0ea0 51       		.byte	0x51
 6079 0ea1 00       		.byte	0
 6080 0ea2 1B       		.uleb128 0x1b
 6081 0ea3 2D040000 		.4byte	.LASF124
 6082 0ea7 01       		.byte	0x1
 6083 0ea8 4804     		.2byte	0x448
 6084 0eaa 00000000 		.4byte	.LFB146
 6085 0eae 04000000 		.4byte	.LFE146-.LFB146
 6086 0eb2 01       		.uleb128 0x1
 6087 0eb3 9C       		.byte	0x9c
 6088 0eb4 D50E0000 		.4byte	0xed5
 6089 0eb8 1C       		.uleb128 0x1c
 6090 0eb9 76050000 		.4byte	.LASF65
 6091 0ebd 01       		.byte	0x1
 6092 0ebe 4804     		.2byte	0x448
 6093 0ec0 E9030000 		.4byte	0x3e9
 6094 0ec4 01       		.uleb128 0x1
 6095 0ec5 50       		.byte	0x50
 6096 0ec6 1C       		.uleb128 0x1c
 6097 0ec7 24010000 		.4byte	.LASF125
 6098 0ecb 01       		.byte	0x1
 6099 0ecc 4804     		.2byte	0x448
ARM GAS  /var/folders/m4/4md61f0s1_g0rzfghffqnxvr0000gn/T//ccSRVwbo.s 			page 108


 6100 0ece B8000000 		.4byte	0xb8
 6101 0ed2 01       		.uleb128 0x1
 6102 0ed3 51       		.byte	0x51
 6103 0ed4 00       		.byte	0
 6104 0ed5 1B       		.uleb128 0x1b
 6105 0ed6 B70B0000 		.4byte	.LASF126
 6106 0eda 01       		.byte	0x1
 6107 0edb 5704     		.2byte	0x457
 6108 0edd 00000000 		.4byte	.LFB147
 6109 0ee1 04000000 		.4byte	.LFE147-.LFB147
 6110 0ee5 01       		.uleb128 0x1
 6111 0ee6 9C       		.byte	0x9c
 6112 0ee7 080F0000 		.4byte	0xf08
 6113 0eeb 1C       		.uleb128 0x1c
 6114 0eec 76050000 		.4byte	.LASF65
 6115 0ef0 01       		.byte	0x1
 6116 0ef1 5704     		.2byte	0x457
 6117 0ef3 E9030000 		.4byte	0x3e9
 6118 0ef7 01       		.uleb128 0x1
 6119 0ef8 50       		.byte	0x50
 6120 0ef9 1C       		.uleb128 0x1c
 6121 0efa 3A070000 		.4byte	.LASF127
 6122 0efe 01       		.byte	0x1
 6123 0eff 5704     		.2byte	0x457
 6124 0f01 B8000000 		.4byte	0xb8
 6125 0f05 01       		.uleb128 0x1
 6126 0f06 51       		.byte	0x51
 6127 0f07 00       		.byte	0
 6128 0f08 1B       		.uleb128 0x1b
 6129 0f09 9C060000 		.4byte	.LASF128
 6130 0f0d 01       		.byte	0x1
 6131 0f0e 6904     		.2byte	0x469
 6132 0f10 00000000 		.4byte	.LFB148
 6133 0f14 0E000000 		.4byte	.LFE148-.LFB148
 6134 0f18 01       		.uleb128 0x1
 6135 0f19 9C       		.byte	0x9c
 6136 0f1a 4D0F0000 		.4byte	0xf4d
 6137 0f1e 1C       		.uleb128 0x1c
 6138 0f1f 76050000 		.4byte	.LASF65
 6139 0f23 01       		.byte	0x1
 6140 0f24 6904     		.2byte	0x469
 6141 0f26 E9030000 		.4byte	0x3e9
 6142 0f2a 01       		.uleb128 0x1
 6143 0f2b 50       		.byte	0x50
 6144 0f2c 1E       		.uleb128 0x1e
 6145 0f2d 4F000000 		.4byte	.LASF129
 6146 0f31 01       		.byte	0x1
 6147 0f32 6904     		.2byte	0x469
 6148 0f34 A2000000 		.4byte	0xa2
 6149 0f38 A3060000 		.4byte	.LLST29
 6150 0f3c 1D       		.uleb128 0x1d
 6151 0f3d 4E010000 		.4byte	.LASF67
 6152 0f41 01       		.byte	0x1
 6153 0f42 6B04     		.2byte	0x46b
 6154 0f44 A2000000 		.4byte	0xa2
 6155 0f48 C4060000 		.4byte	.LLST30
 6156 0f4c 00       		.byte	0
ARM GAS  /var/folders/m4/4md61f0s1_g0rzfghffqnxvr0000gn/T//ccSRVwbo.s 			page 109


 6157 0f4d 1B       		.uleb128 0x1b
 6158 0f4e 14000000 		.4byte	.LASF130
 6159 0f52 01       		.byte	0x1
 6160 0f53 8604     		.2byte	0x486
 6161 0f55 00000000 		.4byte	.LFB149
 6162 0f59 12000000 		.4byte	.LFE149-.LFB149
 6163 0f5d 01       		.uleb128 0x1
 6164 0f5e 9C       		.byte	0x9c
 6165 0f5f 920F0000 		.4byte	0xf92
 6166 0f63 1C       		.uleb128 0x1c
 6167 0f64 76050000 		.4byte	.LASF65
 6168 0f68 01       		.byte	0x1
 6169 0f69 8604     		.2byte	0x486
 6170 0f6b E9030000 		.4byte	0x3e9
 6171 0f6f 01       		.uleb128 0x1
 6172 0f70 50       		.byte	0x50
 6173 0f71 1E       		.uleb128 0x1e
 6174 0f72 4F000000 		.4byte	.LASF129
 6175 0f76 01       		.byte	0x1
 6176 0f77 8604     		.2byte	0x486
 6177 0f79 A2000000 		.4byte	0xa2
 6178 0f7d 04070000 		.4byte	.LLST31
 6179 0f81 1D       		.uleb128 0x1d
 6180 0f82 4E010000 		.4byte	.LASF67
 6181 0f86 01       		.byte	0x1
 6182 0f87 8804     		.2byte	0x488
 6183 0f89 A2000000 		.4byte	0xa2
 6184 0f8d 25070000 		.4byte	.LLST32
 6185 0f91 00       		.byte	0
 6186 0f92 1B       		.uleb128 0x1b
 6187 0f93 0A070000 		.4byte	.LASF131
 6188 0f97 01       		.byte	0x1
 6189 0f98 A204     		.2byte	0x4a2
 6190 0f9a 00000000 		.4byte	.LFB150
 6191 0f9e 0E000000 		.4byte	.LFE150-.LFB150
 6192 0fa2 01       		.uleb128 0x1
 6193 0fa3 9C       		.byte	0x9c
 6194 0fa4 D70F0000 		.4byte	0xfd7
 6195 0fa8 1C       		.uleb128 0x1c
 6196 0fa9 76050000 		.4byte	.LASF65
 6197 0fad 01       		.byte	0x1
 6198 0fae A204     		.2byte	0x4a2
 6199 0fb0 E9030000 		.4byte	0x3e9
 6200 0fb4 01       		.uleb128 0x1
 6201 0fb5 50       		.byte	0x50
 6202 0fb6 1E       		.uleb128 0x1e
 6203 0fb7 4F000000 		.4byte	.LASF129
 6204 0fbb 01       		.byte	0x1
 6205 0fbc A204     		.2byte	0x4a2
 6206 0fbe A2000000 		.4byte	0xa2
 6207 0fc2 69070000 		.4byte	.LLST33
 6208 0fc6 1D       		.uleb128 0x1d
 6209 0fc7 57010000 		.4byte	.LASF75
 6210 0fcb 01       		.byte	0x1
 6211 0fcc A404     		.2byte	0x4a4
 6212 0fce A2000000 		.4byte	0xa2
 6213 0fd2 8A070000 		.4byte	.LLST34
ARM GAS  /var/folders/m4/4md61f0s1_g0rzfghffqnxvr0000gn/T//ccSRVwbo.s 			page 110


 6214 0fd6 00       		.byte	0
 6215 0fd7 1B       		.uleb128 0x1b
 6216 0fd8 A1000000 		.4byte	.LASF132
 6217 0fdc 01       		.byte	0x1
 6218 0fdd BF04     		.2byte	0x4bf
 6219 0fdf 00000000 		.4byte	.LFB151
 6220 0fe3 12000000 		.4byte	.LFE151-.LFB151
 6221 0fe7 01       		.uleb128 0x1
 6222 0fe8 9C       		.byte	0x9c
 6223 0fe9 1C100000 		.4byte	0x101c
 6224 0fed 1C       		.uleb128 0x1c
 6225 0fee 76050000 		.4byte	.LASF65
 6226 0ff2 01       		.byte	0x1
 6227 0ff3 BF04     		.2byte	0x4bf
 6228 0ff5 E9030000 		.4byte	0x3e9
 6229 0ff9 01       		.uleb128 0x1
 6230 0ffa 50       		.byte	0x50
 6231 0ffb 1E       		.uleb128 0x1e
 6232 0ffc 4F000000 		.4byte	.LASF129
 6233 1000 01       		.byte	0x1
 6234 1001 BF04     		.2byte	0x4bf
 6235 1003 A2000000 		.4byte	0xa2
 6236 1007 CA070000 		.4byte	.LLST35
 6237 100b 1D       		.uleb128 0x1d
 6238 100c 57010000 		.4byte	.LASF75
 6239 1010 01       		.byte	0x1
 6240 1011 C104     		.2byte	0x4c1
 6241 1013 A2000000 		.4byte	0xa2
 6242 1017 EB070000 		.4byte	.LLST36
 6243 101b 00       		.byte	0
 6244 101c 1B       		.uleb128 0x1b
 6245 101d E5030000 		.4byte	.LASF133
 6246 1021 01       		.byte	0x1
 6247 1022 DB04     		.2byte	0x4db
 6248 1024 00000000 		.4byte	.LFB152
 6249 1028 0E000000 		.4byte	.LFE152-.LFB152
 6250 102c 01       		.uleb128 0x1
 6251 102d 9C       		.byte	0x9c
 6252 102e 61100000 		.4byte	0x1061
 6253 1032 1C       		.uleb128 0x1c
 6254 1033 76050000 		.4byte	.LASF65
 6255 1037 01       		.byte	0x1
 6256 1038 DB04     		.2byte	0x4db
 6257 103a E9030000 		.4byte	0x3e9
 6258 103e 01       		.uleb128 0x1
 6259 103f 50       		.byte	0x50
 6260 1040 1E       		.uleb128 0x1e
 6261 1041 C4020000 		.4byte	.LASF134
 6262 1045 01       		.byte	0x1
 6263 1046 DB04     		.2byte	0x4db
 6264 1048 A2000000 		.4byte	0xa2
 6265 104c 2F080000 		.4byte	.LLST37
 6266 1050 1D       		.uleb128 0x1d
 6267 1051 4E010000 		.4byte	.LASF67
 6268 1055 01       		.byte	0x1
 6269 1056 DD04     		.2byte	0x4dd
 6270 1058 A2000000 		.4byte	0xa2
ARM GAS  /var/folders/m4/4md61f0s1_g0rzfghffqnxvr0000gn/T//ccSRVwbo.s 			page 111


 6271 105c 50080000 		.4byte	.LLST38
 6272 1060 00       		.byte	0
 6273 1061 1B       		.uleb128 0x1b
 6274 1062 18020000 		.4byte	.LASF135
 6275 1066 01       		.byte	0x1
 6276 1067 F904     		.2byte	0x4f9
 6277 1069 00000000 		.4byte	.LFB153
 6278 106d 12000000 		.4byte	.LFE153-.LFB153
 6279 1071 01       		.uleb128 0x1
 6280 1072 9C       		.byte	0x9c
 6281 1073 A6100000 		.4byte	0x10a6
 6282 1077 1C       		.uleb128 0x1c
 6283 1078 76050000 		.4byte	.LASF65
 6284 107c 01       		.byte	0x1
 6285 107d F904     		.2byte	0x4f9
 6286 107f E9030000 		.4byte	0x3e9
 6287 1083 01       		.uleb128 0x1
 6288 1084 50       		.byte	0x50
 6289 1085 1E       		.uleb128 0x1e
 6290 1086 C4020000 		.4byte	.LASF134
 6291 108a 01       		.byte	0x1
 6292 108b F904     		.2byte	0x4f9
 6293 108d A2000000 		.4byte	0xa2
 6294 1091 90080000 		.4byte	.LLST39
 6295 1095 1D       		.uleb128 0x1d
 6296 1096 4E010000 		.4byte	.LASF67
 6297 109a 01       		.byte	0x1
 6298 109b FB04     		.2byte	0x4fb
 6299 109d A2000000 		.4byte	0xa2
 6300 10a1 B1080000 		.4byte	.LLST40
 6301 10a5 00       		.byte	0
 6302 10a6 1B       		.uleb128 0x1b
 6303 10a7 D80D0000 		.4byte	.LASF136
 6304 10ab 01       		.byte	0x1
 6305 10ac 1605     		.2byte	0x516
 6306 10ae 00000000 		.4byte	.LFB154
 6307 10b2 0E000000 		.4byte	.LFE154-.LFB154
 6308 10b6 01       		.uleb128 0x1
 6309 10b7 9C       		.byte	0x9c
 6310 10b8 EB100000 		.4byte	0x10eb
 6311 10bc 1C       		.uleb128 0x1c
 6312 10bd 76050000 		.4byte	.LASF65
 6313 10c1 01       		.byte	0x1
 6314 10c2 1605     		.2byte	0x516
 6315 10c4 E9030000 		.4byte	0x3e9
 6316 10c8 01       		.uleb128 0x1
 6317 10c9 50       		.byte	0x50
 6318 10ca 1E       		.uleb128 0x1e
 6319 10cb C4020000 		.4byte	.LASF134
 6320 10cf 01       		.byte	0x1
 6321 10d0 1605     		.2byte	0x516
 6322 10d2 A2000000 		.4byte	0xa2
 6323 10d6 F5080000 		.4byte	.LLST41
 6324 10da 1D       		.uleb128 0x1d
 6325 10db 57010000 		.4byte	.LASF75
 6326 10df 01       		.byte	0x1
 6327 10e0 1805     		.2byte	0x518
ARM GAS  /var/folders/m4/4md61f0s1_g0rzfghffqnxvr0000gn/T//ccSRVwbo.s 			page 112


 6328 10e2 A2000000 		.4byte	0xa2
 6329 10e6 16090000 		.4byte	.LLST42
 6330 10ea 00       		.byte	0
 6331 10eb 1B       		.uleb128 0x1b
 6332 10ec F80B0000 		.4byte	.LASF137
 6333 10f0 01       		.byte	0x1
 6334 10f1 3305     		.2byte	0x533
 6335 10f3 00000000 		.4byte	.LFB155
 6336 10f7 12000000 		.4byte	.LFE155-.LFB155
 6337 10fb 01       		.uleb128 0x1
 6338 10fc 9C       		.byte	0x9c
 6339 10fd 30110000 		.4byte	0x1130
 6340 1101 1C       		.uleb128 0x1c
 6341 1102 76050000 		.4byte	.LASF65
 6342 1106 01       		.byte	0x1
 6343 1107 3305     		.2byte	0x533
 6344 1109 E9030000 		.4byte	0x3e9
 6345 110d 01       		.uleb128 0x1
 6346 110e 50       		.byte	0x50
 6347 110f 1E       		.uleb128 0x1e
 6348 1110 C4020000 		.4byte	.LASF134
 6349 1114 01       		.byte	0x1
 6350 1115 3305     		.2byte	0x533
 6351 1117 A2000000 		.4byte	0xa2
 6352 111b 56090000 		.4byte	.LLST43
 6353 111f 1D       		.uleb128 0x1d
 6354 1120 57010000 		.4byte	.LASF75
 6355 1124 01       		.byte	0x1
 6356 1125 3505     		.2byte	0x535
 6357 1127 A2000000 		.4byte	0xa2
 6358 112b 77090000 		.4byte	.LLST44
 6359 112f 00       		.byte	0
 6360 1130 1B       		.uleb128 0x1b
 6361 1131 010E0000 		.4byte	.LASF138
 6362 1135 01       		.byte	0x1
 6363 1136 5005     		.2byte	0x550
 6364 1138 00000000 		.4byte	.LFB156
 6365 113c 0E000000 		.4byte	.LFE156-.LFB156
 6366 1140 01       		.uleb128 0x1
 6367 1141 9C       		.byte	0x9c
 6368 1142 75110000 		.4byte	0x1175
 6369 1146 1C       		.uleb128 0x1c
 6370 1147 76050000 		.4byte	.LASF65
 6371 114b 01       		.byte	0x1
 6372 114c 5005     		.2byte	0x550
 6373 114e E9030000 		.4byte	0x3e9
 6374 1152 01       		.uleb128 0x1
 6375 1153 50       		.byte	0x50
 6376 1154 1E       		.uleb128 0x1e
 6377 1155 4F020000 		.4byte	.LASF139
 6378 1159 01       		.byte	0x1
 6379 115a 5005     		.2byte	0x550
 6380 115c A2000000 		.4byte	0xa2
 6381 1160 BB090000 		.4byte	.LLST45
 6382 1164 1D       		.uleb128 0x1d
 6383 1165 4E010000 		.4byte	.LASF67
 6384 1169 01       		.byte	0x1
ARM GAS  /var/folders/m4/4md61f0s1_g0rzfghffqnxvr0000gn/T//ccSRVwbo.s 			page 113


 6385 116a 5205     		.2byte	0x552
 6386 116c A2000000 		.4byte	0xa2
 6387 1170 DC090000 		.4byte	.LLST46
 6388 1174 00       		.byte	0
 6389 1175 1B       		.uleb128 0x1b
 6390 1176 C00A0000 		.4byte	.LASF140
 6391 117a 01       		.byte	0x1
 6392 117b 6F05     		.2byte	0x56f
 6393 117d 00000000 		.4byte	.LFB157
 6394 1181 12000000 		.4byte	.LFE157-.LFB157
 6395 1185 01       		.uleb128 0x1
 6396 1186 9C       		.byte	0x9c
 6397 1187 BA110000 		.4byte	0x11ba
 6398 118b 1C       		.uleb128 0x1c
 6399 118c 76050000 		.4byte	.LASF65
 6400 1190 01       		.byte	0x1
 6401 1191 6F05     		.2byte	0x56f
 6402 1193 E9030000 		.4byte	0x3e9
 6403 1197 01       		.uleb128 0x1
 6404 1198 50       		.byte	0x50
 6405 1199 1E       		.uleb128 0x1e
 6406 119a 4F020000 		.4byte	.LASF139
 6407 119e 01       		.byte	0x1
 6408 119f 6F05     		.2byte	0x56f
 6409 11a1 A2000000 		.4byte	0xa2
 6410 11a5 1C0A0000 		.4byte	.LLST47
 6411 11a9 1D       		.uleb128 0x1d
 6412 11aa 4E010000 		.4byte	.LASF67
 6413 11ae 01       		.byte	0x1
 6414 11af 7105     		.2byte	0x571
 6415 11b1 A2000000 		.4byte	0xa2
 6416 11b5 3D0A0000 		.4byte	.LLST48
 6417 11b9 00       		.byte	0
 6418 11ba 1B       		.uleb128 0x1b
 6419 11bb C60D0000 		.4byte	.LASF141
 6420 11bf 01       		.byte	0x1
 6421 11c0 8D05     		.2byte	0x58d
 6422 11c2 00000000 		.4byte	.LFB158
 6423 11c6 0E000000 		.4byte	.LFE158-.LFB158
 6424 11ca 01       		.uleb128 0x1
 6425 11cb 9C       		.byte	0x9c
 6426 11cc FF110000 		.4byte	0x11ff
 6427 11d0 1C       		.uleb128 0x1c
 6428 11d1 76050000 		.4byte	.LASF65
 6429 11d5 01       		.byte	0x1
 6430 11d6 8D05     		.2byte	0x58d
 6431 11d8 E9030000 		.4byte	0x3e9
 6432 11dc 01       		.uleb128 0x1
 6433 11dd 50       		.byte	0x50
 6434 11de 1E       		.uleb128 0x1e
 6435 11df 4F020000 		.4byte	.LASF139
 6436 11e3 01       		.byte	0x1
 6437 11e4 8D05     		.2byte	0x58d
 6438 11e6 A2000000 		.4byte	0xa2
 6439 11ea 810A0000 		.4byte	.LLST49
 6440 11ee 1D       		.uleb128 0x1d
 6441 11ef 57010000 		.4byte	.LASF75
ARM GAS  /var/folders/m4/4md61f0s1_g0rzfghffqnxvr0000gn/T//ccSRVwbo.s 			page 114


 6442 11f3 01       		.byte	0x1
 6443 11f4 8F05     		.2byte	0x58f
 6444 11f6 A2000000 		.4byte	0xa2
 6445 11fa A20A0000 		.4byte	.LLST50
 6446 11fe 00       		.byte	0
 6447 11ff 1B       		.uleb128 0x1b
 6448 1200 D20A0000 		.4byte	.LASF142
 6449 1204 01       		.byte	0x1
 6450 1205 AB05     		.2byte	0x5ab
 6451 1207 00000000 		.4byte	.LFB159
 6452 120b 12000000 		.4byte	.LFE159-.LFB159
 6453 120f 01       		.uleb128 0x1
 6454 1210 9C       		.byte	0x9c
 6455 1211 44120000 		.4byte	0x1244
 6456 1215 1C       		.uleb128 0x1c
 6457 1216 76050000 		.4byte	.LASF65
 6458 121a 01       		.byte	0x1
 6459 121b AB05     		.2byte	0x5ab
 6460 121d E9030000 		.4byte	0x3e9
 6461 1221 01       		.uleb128 0x1
 6462 1222 50       		.byte	0x50
 6463 1223 1E       		.uleb128 0x1e
 6464 1224 4F020000 		.4byte	.LASF139
 6465 1228 01       		.byte	0x1
 6466 1229 AB05     		.2byte	0x5ab
 6467 122b A2000000 		.4byte	0xa2
 6468 122f E20A0000 		.4byte	.LLST51
 6469 1233 1D       		.uleb128 0x1d
 6470 1234 57010000 		.4byte	.LASF75
 6471 1238 01       		.byte	0x1
 6472 1239 AD05     		.2byte	0x5ad
 6473 123b A2000000 		.4byte	0xa2
 6474 123f 030B0000 		.4byte	.LLST52
 6475 1243 00       		.byte	0
 6476 1244 1B       		.uleb128 0x1b
 6477 1245 B5000000 		.4byte	.LASF143
 6478 1249 01       		.byte	0x1
 6479 124a C905     		.2byte	0x5c9
 6480 124c 00000000 		.4byte	.LFB160
 6481 1250 0E000000 		.4byte	.LFE160-.LFB160
 6482 1254 01       		.uleb128 0x1
 6483 1255 9C       		.byte	0x9c
 6484 1256 89120000 		.4byte	0x1289
 6485 125a 1C       		.uleb128 0x1c
 6486 125b 76050000 		.4byte	.LASF65
 6487 125f 01       		.byte	0x1
 6488 1260 C905     		.2byte	0x5c9
 6489 1262 E9030000 		.4byte	0x3e9
 6490 1266 01       		.uleb128 0x1
 6491 1267 50       		.byte	0x50
 6492 1268 1E       		.uleb128 0x1e
 6493 1269 970D0000 		.4byte	.LASF144
 6494 126d 01       		.byte	0x1
 6495 126e C905     		.2byte	0x5c9
 6496 1270 A2000000 		.4byte	0xa2
 6497 1274 470B0000 		.4byte	.LLST53
 6498 1278 1D       		.uleb128 0x1d
ARM GAS  /var/folders/m4/4md61f0s1_g0rzfghffqnxvr0000gn/T//ccSRVwbo.s 			page 115


 6499 1279 4E010000 		.4byte	.LASF67
 6500 127d 01       		.byte	0x1
 6501 127e CB05     		.2byte	0x5cb
 6502 1280 A2000000 		.4byte	0xa2
 6503 1284 680B0000 		.4byte	.LLST54
 6504 1288 00       		.byte	0
 6505 1289 1B       		.uleb128 0x1b
 6506 128a 6A0D0000 		.4byte	.LASF145
 6507 128e 01       		.byte	0x1
 6508 128f E705     		.2byte	0x5e7
 6509 1291 00000000 		.4byte	.LFB161
 6510 1295 10000000 		.4byte	.LFE161-.LFB161
 6511 1299 01       		.uleb128 0x1
 6512 129a 9C       		.byte	0x9c
 6513 129b CE120000 		.4byte	0x12ce
 6514 129f 1C       		.uleb128 0x1c
 6515 12a0 76050000 		.4byte	.LASF65
 6516 12a4 01       		.byte	0x1
 6517 12a5 E705     		.2byte	0x5e7
 6518 12a7 E9030000 		.4byte	0x3e9
 6519 12ab 01       		.uleb128 0x1
 6520 12ac 50       		.byte	0x50
 6521 12ad 1E       		.uleb128 0x1e
 6522 12ae 970D0000 		.4byte	.LASF144
 6523 12b2 01       		.byte	0x1
 6524 12b3 E705     		.2byte	0x5e7
 6525 12b5 A2000000 		.4byte	0xa2
 6526 12b9 A80B0000 		.4byte	.LLST55
 6527 12bd 1D       		.uleb128 0x1d
 6528 12be 4E010000 		.4byte	.LASF67
 6529 12c2 01       		.byte	0x1
 6530 12c3 E905     		.2byte	0x5e9
 6531 12c5 A2000000 		.4byte	0xa2
 6532 12c9 C90B0000 		.4byte	.LLST56
 6533 12cd 00       		.byte	0
 6534 12ce 1B       		.uleb128 0x1b
 6535 12cf D7060000 		.4byte	.LASF146
 6536 12d3 01       		.byte	0x1
 6537 12d4 0406     		.2byte	0x604
 6538 12d6 00000000 		.4byte	.LFB162
 6539 12da 0E000000 		.4byte	.LFE162-.LFB162
 6540 12de 01       		.uleb128 0x1
 6541 12df 9C       		.byte	0x9c
 6542 12e0 13130000 		.4byte	0x1313
 6543 12e4 1C       		.uleb128 0x1c
 6544 12e5 76050000 		.4byte	.LASF65
 6545 12e9 01       		.byte	0x1
 6546 12ea 0406     		.2byte	0x604
 6547 12ec E9030000 		.4byte	0x3e9
 6548 12f0 01       		.uleb128 0x1
 6549 12f1 50       		.byte	0x50
 6550 12f2 1E       		.uleb128 0x1e
 6551 12f3 970D0000 		.4byte	.LASF144
 6552 12f7 01       		.byte	0x1
 6553 12f8 0406     		.2byte	0x604
 6554 12fa A2000000 		.4byte	0xa2
 6555 12fe 0D0C0000 		.4byte	.LLST57
ARM GAS  /var/folders/m4/4md61f0s1_g0rzfghffqnxvr0000gn/T//ccSRVwbo.s 			page 116


 6556 1302 1D       		.uleb128 0x1d
 6557 1303 57010000 		.4byte	.LASF75
 6558 1307 01       		.byte	0x1
 6559 1308 0606     		.2byte	0x606
 6560 130a A2000000 		.4byte	0xa2
 6561 130e 2E0C0000 		.4byte	.LLST58
 6562 1312 00       		.byte	0
 6563 1313 1B       		.uleb128 0x1b
 6564 1314 390C0000 		.4byte	.LASF147
 6565 1318 01       		.byte	0x1
 6566 1319 2106     		.2byte	0x621
 6567 131b 00000000 		.4byte	.LFB163
 6568 131f 10000000 		.4byte	.LFE163-.LFB163
 6569 1323 01       		.uleb128 0x1
 6570 1324 9C       		.byte	0x9c
 6571 1325 58130000 		.4byte	0x1358
 6572 1329 1C       		.uleb128 0x1c
 6573 132a 76050000 		.4byte	.LASF65
 6574 132e 01       		.byte	0x1
 6575 132f 2106     		.2byte	0x621
 6576 1331 E9030000 		.4byte	0x3e9
 6577 1335 01       		.uleb128 0x1
 6578 1336 50       		.byte	0x50
 6579 1337 1E       		.uleb128 0x1e
 6580 1338 970D0000 		.4byte	.LASF144
 6581 133c 01       		.byte	0x1
 6582 133d 2106     		.2byte	0x621
 6583 133f A2000000 		.4byte	0xa2
 6584 1343 6E0C0000 		.4byte	.LLST59
 6585 1347 1D       		.uleb128 0x1d
 6586 1348 57010000 		.4byte	.LASF75
 6587 134c 01       		.byte	0x1
 6588 134d 2306     		.2byte	0x623
 6589 134f A2000000 		.4byte	0xa2
 6590 1353 8F0C0000 		.4byte	.LLST60
 6591 1357 00       		.byte	0
 6592 1358 1B       		.uleb128 0x1b
 6593 1359 F4060000 		.4byte	.LASF148
 6594 135d 01       		.byte	0x1
 6595 135e 3E06     		.2byte	0x63e
 6596 1360 00000000 		.4byte	.LFB164
 6597 1364 0E000000 		.4byte	.LFE164-.LFB164
 6598 1368 01       		.uleb128 0x1
 6599 1369 9C       		.byte	0x9c
 6600 136a 9D130000 		.4byte	0x139d
 6601 136e 1C       		.uleb128 0x1c
 6602 136f 76050000 		.4byte	.LASF65
 6603 1373 01       		.byte	0x1
 6604 1374 3E06     		.2byte	0x63e
 6605 1376 E9030000 		.4byte	0x3e9
 6606 137a 01       		.uleb128 0x1
 6607 137b 50       		.byte	0x50
 6608 137c 1E       		.uleb128 0x1e
 6609 137d 82040000 		.4byte	.LASF46
 6610 1381 01       		.byte	0x1
 6611 1382 3E06     		.2byte	0x63e
 6612 1384 A2000000 		.4byte	0xa2
ARM GAS  /var/folders/m4/4md61f0s1_g0rzfghffqnxvr0000gn/T//ccSRVwbo.s 			page 117


 6613 1388 D30C0000 		.4byte	.LLST61
 6614 138c 1D       		.uleb128 0x1d
 6615 138d 4B040000 		.4byte	.LASF68
 6616 1391 01       		.byte	0x1
 6617 1392 4006     		.2byte	0x640
 6618 1394 A2000000 		.4byte	0xa2
 6619 1398 F40C0000 		.4byte	.LLST62
 6620 139c 00       		.byte	0
 6621 139d 1B       		.uleb128 0x1b
 6622 139e 5B0C0000 		.4byte	.LASF149
 6623 13a2 01       		.byte	0x1
 6624 13a3 5906     		.2byte	0x659
 6625 13a5 00000000 		.4byte	.LFB165
 6626 13a9 0E000000 		.4byte	.LFE165-.LFB165
 6627 13ad 01       		.uleb128 0x1
 6628 13ae 9C       		.byte	0x9c
 6629 13af E2130000 		.4byte	0x13e2
 6630 13b3 1C       		.uleb128 0x1c
 6631 13b4 76050000 		.4byte	.LASF65
 6632 13b8 01       		.byte	0x1
 6633 13b9 5906     		.2byte	0x659
 6634 13bb E9030000 		.4byte	0x3e9
 6635 13bf 01       		.uleb128 0x1
 6636 13c0 50       		.byte	0x50
 6637 13c1 1E       		.uleb128 0x1e
 6638 13c2 F60A0000 		.4byte	.LASF47
 6639 13c6 01       		.byte	0x1
 6640 13c7 5906     		.2byte	0x659
 6641 13c9 A2000000 		.4byte	0xa2
 6642 13cd 340D0000 		.4byte	.LLST63
 6643 13d1 1D       		.uleb128 0x1d
 6644 13d2 4B040000 		.4byte	.LASF68
 6645 13d6 01       		.byte	0x1
 6646 13d7 5B06     		.2byte	0x65b
 6647 13d9 A2000000 		.4byte	0xa2
 6648 13dd 550D0000 		.4byte	.LLST64
 6649 13e1 00       		.byte	0
 6650 13e2 1B       		.uleb128 0x1b
 6651 13e3 B0010000 		.4byte	.LASF150
 6652 13e7 01       		.byte	0x1
 6653 13e8 7406     		.2byte	0x674
 6654 13ea 00000000 		.4byte	.LFB166
 6655 13ee 12000000 		.4byte	.LFE166-.LFB166
 6656 13f2 01       		.uleb128 0x1
 6657 13f3 9C       		.byte	0x9c
 6658 13f4 27140000 		.4byte	0x1427
 6659 13f8 1C       		.uleb128 0x1c
 6660 13f9 76050000 		.4byte	.LASF65
 6661 13fd 01       		.byte	0x1
 6662 13fe 7406     		.2byte	0x674
 6663 1400 E9030000 		.4byte	0x3e9
 6664 1404 01       		.uleb128 0x1
 6665 1405 50       		.byte	0x50
 6666 1406 1E       		.uleb128 0x1e
 6667 1407 82040000 		.4byte	.LASF46
 6668 140b 01       		.byte	0x1
 6669 140c 7406     		.2byte	0x674
ARM GAS  /var/folders/m4/4md61f0s1_g0rzfghffqnxvr0000gn/T//ccSRVwbo.s 			page 118


 6670 140e A2000000 		.4byte	0xa2
 6671 1412 950D0000 		.4byte	.LLST65
 6672 1416 1D       		.uleb128 0x1d
 6673 1417 4B040000 		.4byte	.LASF68
 6674 141b 01       		.byte	0x1
 6675 141c 7606     		.2byte	0x676
 6676 141e A2000000 		.4byte	0xa2
 6677 1422 B60D0000 		.4byte	.LLST66
 6678 1426 00       		.byte	0
 6679 1427 1B       		.uleb128 0x1b
 6680 1428 53040000 		.4byte	.LASF151
 6681 142c 01       		.byte	0x1
 6682 142d 8F06     		.2byte	0x68f
 6683 142f 00000000 		.4byte	.LFB167
 6684 1433 12000000 		.4byte	.LFE167-.LFB167
 6685 1437 01       		.uleb128 0x1
 6686 1438 9C       		.byte	0x9c
 6687 1439 6C140000 		.4byte	0x146c
 6688 143d 1C       		.uleb128 0x1c
 6689 143e 76050000 		.4byte	.LASF65
 6690 1442 01       		.byte	0x1
 6691 1443 8F06     		.2byte	0x68f
 6692 1445 E9030000 		.4byte	0x3e9
 6693 1449 01       		.uleb128 0x1
 6694 144a 50       		.byte	0x50
 6695 144b 1E       		.uleb128 0x1e
 6696 144c F60A0000 		.4byte	.LASF47
 6697 1450 01       		.byte	0x1
 6698 1451 8F06     		.2byte	0x68f
 6699 1453 A2000000 		.4byte	0xa2
 6700 1457 FA0D0000 		.4byte	.LLST67
 6701 145b 1D       		.uleb128 0x1d
 6702 145c 4B040000 		.4byte	.LASF68
 6703 1460 01       		.byte	0x1
 6704 1461 9106     		.2byte	0x691
 6705 1463 A2000000 		.4byte	0xa2
 6706 1467 1B0E0000 		.4byte	.LLST68
 6707 146b 00       		.byte	0
 6708 146c 1B       		.uleb128 0x1b
 6709 146d E90C0000 		.4byte	.LASF152
 6710 1471 01       		.byte	0x1
 6711 1472 AA06     		.2byte	0x6aa
 6712 1474 00000000 		.4byte	.LFB168
 6713 1478 12000000 		.4byte	.LFE168-.LFB168
 6714 147c 01       		.uleb128 0x1
 6715 147d 9C       		.byte	0x9c
 6716 147e B1140000 		.4byte	0x14b1
 6717 1482 1C       		.uleb128 0x1c
 6718 1483 76050000 		.4byte	.LASF65
 6719 1487 01       		.byte	0x1
 6720 1488 AA06     		.2byte	0x6aa
 6721 148a E9030000 		.4byte	0x3e9
 6722 148e 01       		.uleb128 0x1
 6723 148f 50       		.byte	0x50
 6724 1490 1E       		.uleb128 0x1e
 6725 1491 82040000 		.4byte	.LASF46
 6726 1495 01       		.byte	0x1
ARM GAS  /var/folders/m4/4md61f0s1_g0rzfghffqnxvr0000gn/T//ccSRVwbo.s 			page 119


 6727 1496 AA06     		.2byte	0x6aa
 6728 1498 A2000000 		.4byte	0xa2
 6729 149c 5F0E0000 		.4byte	.LLST69
 6730 14a0 1D       		.uleb128 0x1d
 6731 14a1 4B040000 		.4byte	.LASF68
 6732 14a5 01       		.byte	0x1
 6733 14a6 AC06     		.2byte	0x6ac
 6734 14a8 A2000000 		.4byte	0xa2
 6735 14ac 800E0000 		.4byte	.LLST70
 6736 14b0 00       		.byte	0
 6737 14b1 1B       		.uleb128 0x1b
 6738 14b2 530A0000 		.4byte	.LASF153
 6739 14b6 01       		.byte	0x1
 6740 14b7 C506     		.2byte	0x6c5
 6741 14b9 00000000 		.4byte	.LFB169
 6742 14bd 12000000 		.4byte	.LFE169-.LFB169
 6743 14c1 01       		.uleb128 0x1
 6744 14c2 9C       		.byte	0x9c
 6745 14c3 F6140000 		.4byte	0x14f6
 6746 14c7 1C       		.uleb128 0x1c
 6747 14c8 76050000 		.4byte	.LASF65
 6748 14cc 01       		.byte	0x1
 6749 14cd C506     		.2byte	0x6c5
 6750 14cf E9030000 		.4byte	0x3e9
 6751 14d3 01       		.uleb128 0x1
 6752 14d4 50       		.byte	0x50
 6753 14d5 1E       		.uleb128 0x1e
 6754 14d6 F60A0000 		.4byte	.LASF47
 6755 14da 01       		.byte	0x1
 6756 14db C506     		.2byte	0x6c5
 6757 14dd A2000000 		.4byte	0xa2
 6758 14e1 C40E0000 		.4byte	.LLST71
 6759 14e5 1D       		.uleb128 0x1d
 6760 14e6 4B040000 		.4byte	.LASF68
 6761 14ea 01       		.byte	0x1
 6762 14eb C706     		.2byte	0x6c7
 6763 14ed A2000000 		.4byte	0xa2
 6764 14f1 E50E0000 		.4byte	.LLST72
 6765 14f5 00       		.byte	0
 6766 14f6 1B       		.uleb128 0x1b
 6767 14f7 8B050000 		.4byte	.LASF154
 6768 14fb 01       		.byte	0x1
 6769 14fc E006     		.2byte	0x6e0
 6770 14fe 00000000 		.4byte	.LFB170
 6771 1502 12000000 		.4byte	.LFE170-.LFB170
 6772 1506 01       		.uleb128 0x1
 6773 1507 9C       		.byte	0x9c
 6774 1508 3B150000 		.4byte	0x153b
 6775 150c 1C       		.uleb128 0x1c
 6776 150d 76050000 		.4byte	.LASF65
 6777 1511 01       		.byte	0x1
 6778 1512 E006     		.2byte	0x6e0
 6779 1514 E9030000 		.4byte	0x3e9
 6780 1518 01       		.uleb128 0x1
 6781 1519 50       		.byte	0x50
 6782 151a 1E       		.uleb128 0x1e
 6783 151b 82040000 		.4byte	.LASF46
ARM GAS  /var/folders/m4/4md61f0s1_g0rzfghffqnxvr0000gn/T//ccSRVwbo.s 			page 120


 6784 151f 01       		.byte	0x1
 6785 1520 E006     		.2byte	0x6e0
 6786 1522 A2000000 		.4byte	0xa2
 6787 1526 290F0000 		.4byte	.LLST73
 6788 152a 1D       		.uleb128 0x1d
 6789 152b 4B040000 		.4byte	.LASF68
 6790 152f 01       		.byte	0x1
 6791 1530 E206     		.2byte	0x6e2
 6792 1532 A2000000 		.4byte	0xa2
 6793 1536 4A0F0000 		.4byte	.LLST74
 6794 153a 00       		.byte	0
 6795 153b 1B       		.uleb128 0x1b
 6796 153c A2020000 		.4byte	.LASF155
 6797 1540 01       		.byte	0x1
 6798 1541 FF06     		.2byte	0x6ff
 6799 1543 00000000 		.4byte	.LFB171
 6800 1547 20000000 		.4byte	.LFE171-.LFB171
 6801 154b 01       		.uleb128 0x1
 6802 154c 9C       		.byte	0x9c
 6803 154d 90150000 		.4byte	0x1590
 6804 1551 1C       		.uleb128 0x1c
 6805 1552 76050000 		.4byte	.LASF65
 6806 1556 01       		.byte	0x1
 6807 1557 FF06     		.2byte	0x6ff
 6808 1559 E9030000 		.4byte	0x3e9
 6809 155d 01       		.uleb128 0x1
 6810 155e 50       		.byte	0x50
 6811 155f 1E       		.uleb128 0x1e
 6812 1560 5A020000 		.4byte	.LASF51
 6813 1564 01       		.byte	0x1
 6814 1565 FF06     		.2byte	0x6ff
 6815 1567 A2000000 		.4byte	0xa2
 6816 156b 8E0F0000 		.4byte	.LLST75
 6817 156f 1E       		.uleb128 0x1e
 6818 1570 45090000 		.4byte	.LASF156
 6819 1574 01       		.byte	0x1
 6820 1575 FF06     		.2byte	0x6ff
 6821 1577 A2000000 		.4byte	0xa2
 6822 157b AF0F0000 		.4byte	.LLST76
 6823 157f 20       		.uleb128 0x20
 6824 1580 746D7000 		.ascii	"tmp\000"
 6825 1584 01       		.byte	0x1
 6826 1585 0107     		.2byte	0x701
 6827 1587 A2000000 		.4byte	0xa2
 6828 158b D00F0000 		.4byte	.LLST77
 6829 158f 00       		.byte	0
 6830 1590 1B       		.uleb128 0x1b
 6831 1591 2E070000 		.4byte	.LASF157
 6832 1595 01       		.byte	0x1
 6833 1596 1D07     		.2byte	0x71d
 6834 1598 00000000 		.4byte	.LFB172
 6835 159c 20000000 		.4byte	.LFE172-.LFB172
 6836 15a0 01       		.uleb128 0x1
 6837 15a1 9C       		.byte	0x9c
 6838 15a2 E5150000 		.4byte	0x15e5
 6839 15a6 1C       		.uleb128 0x1c
 6840 15a7 76050000 		.4byte	.LASF65
ARM GAS  /var/folders/m4/4md61f0s1_g0rzfghffqnxvr0000gn/T//ccSRVwbo.s 			page 121


 6841 15ab 01       		.byte	0x1
 6842 15ac 1D07     		.2byte	0x71d
 6843 15ae E9030000 		.4byte	0x3e9
 6844 15b2 01       		.uleb128 0x1
 6845 15b3 50       		.byte	0x50
 6846 15b4 1E       		.uleb128 0x1e
 6847 15b5 5A020000 		.4byte	.LASF51
 6848 15b9 01       		.byte	0x1
 6849 15ba 1D07     		.2byte	0x71d
 6850 15bc A2000000 		.4byte	0xa2
 6851 15c0 F70F0000 		.4byte	.LLST78
 6852 15c4 1E       		.uleb128 0x1e
 6853 15c5 AA030000 		.4byte	.LASF158
 6854 15c9 01       		.byte	0x1
 6855 15ca 1D07     		.2byte	0x71d
 6856 15cc A2000000 		.4byte	0xa2
 6857 15d0 18100000 		.4byte	.LLST79
 6858 15d4 20       		.uleb128 0x20
 6859 15d5 746D7000 		.ascii	"tmp\000"
 6860 15d9 01       		.byte	0x1
 6861 15da 1F07     		.2byte	0x71f
 6862 15dc A2000000 		.4byte	0xa2
 6863 15e0 39100000 		.4byte	.LLST80
 6864 15e4 00       		.byte	0
 6865 15e5 1B       		.uleb128 0x1b
 6866 15e6 AC0B0000 		.4byte	.LASF159
 6867 15ea 01       		.byte	0x1
 6868 15eb 7107     		.2byte	0x771
 6869 15ed 00000000 		.4byte	.LFB173
 6870 15f1 42010000 		.4byte	.LFE173-.LFB173
 6871 15f5 01       		.uleb128 0x1
 6872 15f6 9C       		.byte	0x9c
 6873 15f7 11180000 		.4byte	0x1811
 6874 15fb 1C       		.uleb128 0x1c
 6875 15fc 76050000 		.4byte	.LASF65
 6876 1600 01       		.byte	0x1
 6877 1601 7107     		.2byte	0x771
 6878 1603 E9030000 		.4byte	0x3e9
 6879 1607 01       		.uleb128 0x1
 6880 1608 50       		.byte	0x50
 6881 1609 1E       		.uleb128 0x1e
 6882 160a 460D0000 		.4byte	.LASF160
 6883 160e 01       		.byte	0x1
 6884 160f 7107     		.2byte	0x771
 6885 1611 11180000 		.4byte	0x1811
 6886 1615 60100000 		.4byte	.LLST81
 6887 1619 21       		.uleb128 0x21
 6888 161a F3040000 		.4byte	0x4f3
 6889 161e 0E000000 		.4byte	.LBB46
 6890 1622 00000000 		.4byte	.Ldebug_ranges0+0
 6891 1626 01       		.byte	0x1
 6892 1627 9107     		.2byte	0x791
 6893 1629 73160000 		.4byte	0x1673
 6894 162d 22       		.uleb128 0x22
 6895 162e 24050000 		.4byte	0x524
 6896 1632 CC100000 		.4byte	.LLST82
 6897 1636 22       		.uleb128 0x22
ARM GAS  /var/folders/m4/4md61f0s1_g0rzfghffqnxvr0000gn/T//ccSRVwbo.s 			page 122


 6898 1637 18050000 		.4byte	0x518
 6899 163b EE100000 		.4byte	.LLST83
 6900 163f 22       		.uleb128 0x22
 6901 1640 0C050000 		.4byte	0x50c
 6902 1644 01110000 		.4byte	.LLST84
 6903 1648 22       		.uleb128 0x22
 6904 1649 00050000 		.4byte	0x500
 6905 164d 14110000 		.4byte	.LLST85
 6906 1651 23       		.uleb128 0x23
 6907 1652 00000000 		.4byte	.Ldebug_ranges0+0
 6908 1656 24       		.uleb128 0x24
 6909 1657 30050000 		.4byte	0x530
 6910 165b 27110000 		.4byte	.LLST86
 6911 165f 24       		.uleb128 0x24
 6912 1660 3C050000 		.4byte	0x53c
 6913 1664 60110000 		.4byte	.LLST87
 6914 1668 24       		.uleb128 0x24
 6915 1669 48050000 		.4byte	0x548
 6916 166d 95110000 		.4byte	.LLST88
 6917 1671 00       		.byte	0
 6918 1672 00       		.byte	0
 6919 1673 25       		.uleb128 0x25
 6920 1674 7B050000 		.4byte	0x57b
 6921 1678 18000000 		.4byte	.LBB49
 6922 167c 34000000 		.4byte	.LBE49-.LBB49
 6923 1680 01       		.byte	0x1
 6924 1681 9B07     		.2byte	0x79b
 6925 1683 D1160000 		.4byte	0x16d1
 6926 1687 22       		.uleb128 0x22
 6927 1688 AC050000 		.4byte	0x5ac
 6928 168c B8110000 		.4byte	.LLST89
 6929 1690 22       		.uleb128 0x22
 6930 1691 A0050000 		.4byte	0x5a0
 6931 1695 DA110000 		.4byte	.LLST90
 6932 1699 22       		.uleb128 0x22
 6933 169a 94050000 		.4byte	0x594
 6934 169e FC110000 		.4byte	.LLST91
 6935 16a2 22       		.uleb128 0x22
 6936 16a3 88050000 		.4byte	0x588
 6937 16a7 0F120000 		.4byte	.LLST92
 6938 16ab 26       		.uleb128 0x26
 6939 16ac 18000000 		.4byte	.LBB50
 6940 16b0 34000000 		.4byte	.LBE50-.LBB50
 6941 16b4 24       		.uleb128 0x24
 6942 16b5 B8050000 		.4byte	0x5b8
 6943 16b9 22120000 		.4byte	.LLST93
 6944 16bd 24       		.uleb128 0x24
 6945 16be C4050000 		.4byte	0x5c4
 6946 16c2 62120000 		.4byte	.LLST94
 6947 16c6 24       		.uleb128 0x24
 6948 16c7 D0050000 		.4byte	0x5d0
 6949 16cb B1120000 		.4byte	.LLST95
 6950 16cf 00       		.byte	0
 6951 16d0 00       		.byte	0
 6952 16d1 25       		.uleb128 0x25
 6953 16d2 55050000 		.4byte	0x555
 6954 16d6 4C000000 		.4byte	.LBB51
ARM GAS  /var/folders/m4/4md61f0s1_g0rzfghffqnxvr0000gn/T//ccSRVwbo.s 			page 123


 6955 16da 16000000 		.4byte	.LBE51-.LBB51
 6956 16de 01       		.byte	0x1
 6957 16df 9F07     		.2byte	0x79f
 6958 16e1 F8160000 		.4byte	0x16f8
 6959 16e5 22       		.uleb128 0x22
 6960 16e6 6E050000 		.4byte	0x56e
 6961 16ea D4120000 		.4byte	.LLST96
 6962 16ee 22       		.uleb128 0x22
 6963 16ef 62050000 		.4byte	0x562
 6964 16f3 E7120000 		.4byte	.LLST97
 6965 16f7 00       		.byte	0
 6966 16f8 21       		.uleb128 0x21
 6967 16f9 77040000 		.4byte	0x477
 6968 16fd 62000000 		.4byte	.LBB53
 6969 1701 18000000 		.4byte	.Ldebug_ranges0+0x18
 6970 1705 01       		.byte	0x1
 6971 1706 7D07     		.2byte	0x77d
 6972 1708 49170000 		.4byte	0x1749
 6973 170c 22       		.uleb128 0x22
 6974 170d A8040000 		.4byte	0x4a8
 6975 1711 FA120000 		.4byte	.LLST98
 6976 1715 22       		.uleb128 0x22
 6977 1716 9C040000 		.4byte	0x49c
 6978 171a 1C130000 		.4byte	.LLST99
 6979 171e 22       		.uleb128 0x22
 6980 171f 90040000 		.4byte	0x490
 6981 1723 3E130000 		.4byte	.LLST100
 6982 1727 22       		.uleb128 0x22
 6983 1728 84040000 		.4byte	0x484
 6984 172c 51130000 		.4byte	.LLST101
 6985 1730 23       		.uleb128 0x23
 6986 1731 18000000 		.4byte	.Ldebug_ranges0+0x18
 6987 1735 24       		.uleb128 0x24
 6988 1736 B4040000 		.4byte	0x4b4
 6989 173a 64130000 		.4byte	.LLST102
 6990 173e 24       		.uleb128 0x24
 6991 173f C0040000 		.4byte	0x4c0
 6992 1743 BC130000 		.4byte	.LLST103
 6993 1747 00       		.byte	0
 6994 1748 00       		.byte	0
 6995 1749 25       		.uleb128 0x25
 6996 174a 51040000 		.4byte	0x451
 6997 174e 96000000 		.4byte	.LBB57
 6998 1752 12000000 		.4byte	.LBE57-.LBB57
 6999 1756 01       		.byte	0x1
 7000 1757 8107     		.2byte	0x781
 7001 1759 70170000 		.4byte	0x1770
 7002 175d 22       		.uleb128 0x22
 7003 175e 6A040000 		.4byte	0x46a
 7004 1762 ED130000 		.4byte	.LLST104
 7005 1766 22       		.uleb128 0x22
 7006 1767 5E040000 		.4byte	0x45e
 7007 176b 00140000 		.4byte	.LLST105
 7008 176f 00       		.byte	0
 7009 1770 21       		.uleb128 0x21
 7010 1771 EF030000 		.4byte	0x3ef
 7011 1775 A8000000 		.4byte	.LBB59
ARM GAS  /var/folders/m4/4md61f0s1_g0rzfghffqnxvr0000gn/T//ccSRVwbo.s 			page 124


 7012 1779 30000000 		.4byte	.Ldebug_ranges0+0x30
 7013 177d 01       		.byte	0x1
 7014 177e 8707     		.2byte	0x787
 7015 1780 CA170000 		.4byte	0x17ca
 7016 1784 22       		.uleb128 0x22
 7017 1785 20040000 		.4byte	0x420
 7018 1789 13140000 		.4byte	.LLST106
 7019 178d 22       		.uleb128 0x22
 7020 178e 14040000 		.4byte	0x414
 7021 1792 35140000 		.4byte	.LLST107
 7022 1796 22       		.uleb128 0x22
 7023 1797 08040000 		.4byte	0x408
 7024 179b 57140000 		.4byte	.LLST108
 7025 179f 22       		.uleb128 0x22
 7026 17a0 FC030000 		.4byte	0x3fc
 7027 17a4 6A140000 		.4byte	.LLST109
 7028 17a8 23       		.uleb128 0x23
 7029 17a9 30000000 		.4byte	.Ldebug_ranges0+0x30
 7030 17ad 24       		.uleb128 0x24
 7031 17ae 2C040000 		.4byte	0x42c
 7032 17b2 7D140000 		.4byte	.LLST110
 7033 17b6 24       		.uleb128 0x24
 7034 17b7 38040000 		.4byte	0x438
 7035 17bb BD140000 		.4byte	.LLST111
 7036 17bf 24       		.uleb128 0x24
 7037 17c0 44040000 		.4byte	0x444
 7038 17c4 08150000 		.4byte	.LLST112
 7039 17c8 00       		.byte	0
 7040 17c9 00       		.byte	0
 7041 17ca 25       		.uleb128 0x25
 7042 17cb C3030000 		.4byte	0x3c3
 7043 17cf E6000000 		.4byte	.LBB63
 7044 17d3 16000000 		.4byte	.LBE63-.LBB63
 7045 17d7 01       		.byte	0x1
 7046 17d8 8B07     		.2byte	0x78b
 7047 17da F1170000 		.4byte	0x17f1
 7048 17de 22       		.uleb128 0x22
 7049 17df DC030000 		.4byte	0x3dc
 7050 17e3 2B150000 		.4byte	.LLST113
 7051 17e7 22       		.uleb128 0x22
 7052 17e8 D0030000 		.4byte	0x3d0
 7053 17ec 3E150000 		.4byte	.LLST114
 7054 17f0 00       		.byte	0
 7055 17f1 27       		.uleb128 0x27
 7056 17f2 CD040000 		.4byte	0x4cd
 7057 17f6 30010000 		.4byte	.LBB66
 7058 17fa 12000000 		.4byte	.LBE66-.LBB66
 7059 17fe 01       		.byte	0x1
 7060 17ff 9507     		.2byte	0x795
 7061 1801 28       		.uleb128 0x28
 7062 1802 E6040000 		.4byte	0x4e6
 7063 1806 01       		.uleb128 0x1
 7064 1807 55       		.byte	0x55
 7065 1808 28       		.uleb128 0x28
 7066 1809 DA040000 		.4byte	0x4da
 7067 180d 01       		.uleb128 0x1
 7068 180e 50       		.byte	0x50
ARM GAS  /var/folders/m4/4md61f0s1_g0rzfghffqnxvr0000gn/T//ccSRVwbo.s 			page 125


 7069 180f 00       		.byte	0
 7070 1810 00       		.byte	0
 7071 1811 11       		.uleb128 0x11
 7072 1812 04       		.byte	0x4
 7073 1813 50030000 		.4byte	0x350
 7074 1817 1B       		.uleb128 0x1b
 7075 1818 45030000 		.4byte	.LASF161
 7076 181c 01       		.byte	0x1
 7077 181d A907     		.2byte	0x7a9
 7078 181f 00000000 		.4byte	.LFB174
 7079 1823 10000000 		.4byte	.LFE174-.LFB174
 7080 1827 01       		.uleb128 0x1
 7081 1828 9C       		.byte	0x9c
 7082 1829 3C180000 		.4byte	0x183c
 7083 182d 1C       		.uleb128 0x1c
 7084 182e 460D0000 		.4byte	.LASF160
 7085 1832 01       		.byte	0x1
 7086 1833 A907     		.2byte	0x7a9
 7087 1835 11180000 		.4byte	0x1811
 7088 1839 01       		.uleb128 0x1
 7089 183a 50       		.byte	0x50
 7090 183b 00       		.byte	0
 7091 183c 1B       		.uleb128 0x1b
 7092 183d 16060000 		.4byte	.LASF162
 7093 1841 01       		.byte	0x1
 7094 1842 BC07     		.2byte	0x7bc
 7095 1844 00000000 		.4byte	.LFB175
 7096 1848 42010000 		.4byte	.LFE175-.LFB175
 7097 184c 01       		.uleb128 0x1
 7098 184d 9C       		.byte	0x9c
 7099 184e 851A0000 		.4byte	0x1a85
 7100 1852 1C       		.uleb128 0x1c
 7101 1853 76050000 		.4byte	.LASF65
 7102 1857 01       		.byte	0x1
 7103 1858 BC07     		.2byte	0x7bc
 7104 185a E9030000 		.4byte	0x3e9
 7105 185e 01       		.uleb128 0x1
 7106 185f 50       		.byte	0x50
 7107 1860 1E       		.uleb128 0x1e
 7108 1861 460D0000 		.4byte	.LASF160
 7109 1865 01       		.byte	0x1
 7110 1866 BC07     		.2byte	0x7bc
 7111 1868 11180000 		.4byte	0x1811
 7112 186c 51150000 		.4byte	.LLST115
 7113 1870 1D       		.uleb128 0x1d
 7114 1871 86030000 		.4byte	.LASF163
 7115 1875 01       		.byte	0x1
 7116 1876 BE07     		.2byte	0x7be
 7117 1878 A2000000 		.4byte	0xa2
 7118 187c 8B150000 		.4byte	.LLST116
 7119 1880 1D       		.uleb128 0x1d
 7120 1881 69070000 		.4byte	.LASF164
 7121 1885 01       		.byte	0x1
 7122 1886 BF07     		.2byte	0x7bf
 7123 1888 A2000000 		.4byte	0xa2
 7124 188c AA150000 		.4byte	.LLST117
 7125 1890 21       		.uleb128 0x21
ARM GAS  /var/folders/m4/4md61f0s1_g0rzfghffqnxvr0000gn/T//ccSRVwbo.s 			page 126


 7126 1891 EF030000 		.4byte	0x3ef
 7127 1895 22000000 		.4byte	.LBB68
 7128 1899 48000000 		.4byte	.Ldebug_ranges0+0x48
 7129 189d 01       		.byte	0x1
 7130 189e E507     		.2byte	0x7e5
 7131 18a0 EA180000 		.4byte	0x18ea
 7132 18a4 22       		.uleb128 0x22
 7133 18a5 20040000 		.4byte	0x420
 7134 18a9 C9150000 		.4byte	.LLST118
 7135 18ad 22       		.uleb128 0x22
 7136 18ae 14040000 		.4byte	0x414
 7137 18b2 DC150000 		.4byte	.LLST119
 7138 18b6 22       		.uleb128 0x22
 7139 18b7 08040000 		.4byte	0x408
 7140 18bb FE150000 		.4byte	.LLST120
 7141 18bf 22       		.uleb128 0x22
 7142 18c0 FC030000 		.4byte	0x3fc
 7143 18c4 11160000 		.4byte	.LLST121
 7144 18c8 23       		.uleb128 0x23
 7145 18c9 48000000 		.4byte	.Ldebug_ranges0+0x48
 7146 18cd 24       		.uleb128 0x24
 7147 18ce 2C040000 		.4byte	0x42c
 7148 18d2 24160000 		.4byte	.LLST122
 7149 18d6 24       		.uleb128 0x24
 7150 18d7 38040000 		.4byte	0x438
 7151 18db 76160000 		.4byte	.LLST123
 7152 18df 24       		.uleb128 0x24
 7153 18e0 44040000 		.4byte	0x444
 7154 18e4 C1160000 		.4byte	.LLST124
 7155 18e8 00       		.byte	0
 7156 18e9 00       		.byte	0
 7157 18ea 25       		.uleb128 0x25
 7158 18eb C3030000 		.4byte	0x3c3
 7159 18ef 5C000000 		.4byte	.LBB72
 7160 18f3 14000000 		.4byte	.LBE72-.LBB72
 7161 18f7 01       		.byte	0x1
 7162 18f8 E807     		.2byte	0x7e8
 7163 18fa 11190000 		.4byte	0x1911
 7164 18fe 22       		.uleb128 0x22
 7165 18ff DC030000 		.4byte	0x3dc
 7166 1903 E4160000 		.4byte	.LLST125
 7167 1907 22       		.uleb128 0x22
 7168 1908 D0030000 		.4byte	0x3d0
 7169 190c F7160000 		.4byte	.LLST126
 7170 1910 00       		.byte	0
 7171 1911 25       		.uleb128 0x25
 7172 1912 77040000 		.4byte	0x477
 7173 1916 70000000 		.4byte	.LBB74
 7174 191a 2C000000 		.4byte	.LBE74-.LBB74
 7175 191e 01       		.byte	0x1
 7176 191f EA07     		.2byte	0x7ea
 7177 1921 66190000 		.4byte	0x1966
 7178 1925 22       		.uleb128 0x22
 7179 1926 A8040000 		.4byte	0x4a8
 7180 192a 0A170000 		.4byte	.LLST127
 7181 192e 22       		.uleb128 0x22
 7182 192f 9C040000 		.4byte	0x49c
ARM GAS  /var/folders/m4/4md61f0s1_g0rzfghffqnxvr0000gn/T//ccSRVwbo.s 			page 127


 7183 1933 1D170000 		.4byte	.LLST128
 7184 1937 22       		.uleb128 0x22
 7185 1938 90040000 		.4byte	0x490
 7186 193c 30170000 		.4byte	.LLST129
 7187 1940 22       		.uleb128 0x22
 7188 1941 84040000 		.4byte	0x484
 7189 1945 43170000 		.4byte	.LLST130
 7190 1949 26       		.uleb128 0x26
 7191 194a 70000000 		.4byte	.LBB75
 7192 194e 2C000000 		.4byte	.LBE75-.LBB75
 7193 1952 24       		.uleb128 0x24
 7194 1953 B4040000 		.4byte	0x4b4
 7195 1957 56170000 		.4byte	.LLST131
 7196 195b 24       		.uleb128 0x24
 7197 195c C0040000 		.4byte	0x4c0
 7198 1960 85170000 		.4byte	.LLST132
 7199 1964 00       		.byte	0
 7200 1965 00       		.byte	0
 7201 1966 25       		.uleb128 0x25
 7202 1967 51040000 		.4byte	0x451
 7203 196b 9C000000 		.4byte	.LBB76
 7204 196f 14000000 		.4byte	.LBE76-.LBB76
 7205 1973 01       		.byte	0x1
 7206 1974 EC07     		.2byte	0x7ec
 7207 1976 8D190000 		.4byte	0x198d
 7208 197a 22       		.uleb128 0x22
 7209 197b 6A040000 		.4byte	0x46a
 7210 197f D9170000 		.4byte	.LLST133
 7211 1983 22       		.uleb128 0x22
 7212 1984 5E040000 		.4byte	0x45e
 7213 1988 FB170000 		.4byte	.LLST134
 7214 198c 00       		.byte	0
 7215 198d 21       		.uleb128 0x21
 7216 198e 77040000 		.4byte	0x477
 7217 1992 B0000000 		.4byte	.LBB78
 7218 1996 60000000 		.4byte	.Ldebug_ranges0+0x60
 7219 199a 01       		.byte	0x1
 7220 199b D907     		.2byte	0x7d9
 7221 199d DE190000 		.4byte	0x19de
 7222 19a1 22       		.uleb128 0x22
 7223 19a2 A8040000 		.4byte	0x4a8
 7224 19a6 0E180000 		.4byte	.LLST135
 7225 19aa 22       		.uleb128 0x22
 7226 19ab 9C040000 		.4byte	0x49c
 7227 19af 21180000 		.4byte	.LLST136
 7228 19b3 22       		.uleb128 0x22
 7229 19b4 90040000 		.4byte	0x490
 7230 19b8 34180000 		.4byte	.LLST137
 7231 19bc 22       		.uleb128 0x22
 7232 19bd 84040000 		.4byte	0x484
 7233 19c1 47180000 		.4byte	.LLST138
 7234 19c5 23       		.uleb128 0x23
 7235 19c6 60000000 		.4byte	.Ldebug_ranges0+0x60
 7236 19ca 24       		.uleb128 0x24
 7237 19cb B4040000 		.4byte	0x4b4
 7238 19cf 5A180000 		.4byte	.LLST139
 7239 19d3 24       		.uleb128 0x24
ARM GAS  /var/folders/m4/4md61f0s1_g0rzfghffqnxvr0000gn/T//ccSRVwbo.s 			page 128


 7240 19d4 C0040000 		.4byte	0x4c0
 7241 19d8 8E180000 		.4byte	.LLST140
 7242 19dc 00       		.byte	0
 7243 19dd 00       		.byte	0
 7244 19de 25       		.uleb128 0x25
 7245 19df 51040000 		.4byte	0x451
 7246 19e3 EA000000 		.4byte	.LBB82
 7247 19e7 10000000 		.4byte	.LBE82-.LBB82
 7248 19eb 01       		.byte	0x1
 7249 19ec DC07     		.2byte	0x7dc
 7250 19ee 051A0000 		.4byte	0x1a05
 7251 19f2 22       		.uleb128 0x22
 7252 19f3 6A040000 		.4byte	0x46a
 7253 19f7 BF180000 		.4byte	.LLST141
 7254 19fb 22       		.uleb128 0x22
 7255 19fc 5E040000 		.4byte	0x45e
 7256 1a00 D2180000 		.4byte	.LLST142
 7257 1a04 00       		.byte	0
 7258 1a05 25       		.uleb128 0x25
 7259 1a06 EF030000 		.4byte	0x3ef
 7260 1a0a FA000000 		.4byte	.LBB84
 7261 1a0e 30000000 		.4byte	.LBE84-.LBB84
 7262 1a12 01       		.byte	0x1
 7263 1a13 DE07     		.2byte	0x7de
 7264 1a15 631A0000 		.4byte	0x1a63
 7265 1a19 22       		.uleb128 0x22
 7266 1a1a 20040000 		.4byte	0x420
 7267 1a1e E5180000 		.4byte	.LLST143
 7268 1a22 22       		.uleb128 0x22
 7269 1a23 14040000 		.4byte	0x414
 7270 1a27 F8180000 		.4byte	.LLST144
 7271 1a2b 22       		.uleb128 0x22
 7272 1a2c 08040000 		.4byte	0x408
 7273 1a30 0B190000 		.4byte	.LLST145
 7274 1a34 22       		.uleb128 0x22
 7275 1a35 FC030000 		.4byte	0x3fc
 7276 1a39 1E190000 		.4byte	.LLST146
 7277 1a3d 26       		.uleb128 0x26
 7278 1a3e FA000000 		.4byte	.LBB85
 7279 1a42 30000000 		.4byte	.LBE85-.LBB85
 7280 1a46 24       		.uleb128 0x24
 7281 1a47 2C040000 		.4byte	0x42c
 7282 1a4b 31190000 		.4byte	.LLST147
 7283 1a4f 24       		.uleb128 0x24
 7284 1a50 38040000 		.4byte	0x438
 7285 1a54 99190000 		.4byte	.LLST148
 7286 1a58 24       		.uleb128 0x24
 7287 1a59 44040000 		.4byte	0x444
 7288 1a5d CA190000 		.4byte	.LLST149
 7289 1a61 00       		.byte	0
 7290 1a62 00       		.byte	0
 7291 1a63 27       		.uleb128 0x27
 7292 1a64 C3030000 		.4byte	0x3c3
 7293 1a68 2A010000 		.4byte	.LBB86
 7294 1a6c 18000000 		.4byte	.LBE86-.LBB86
 7295 1a70 01       		.byte	0x1
 7296 1a71 E007     		.2byte	0x7e0
ARM GAS  /var/folders/m4/4md61f0s1_g0rzfghffqnxvr0000gn/T//ccSRVwbo.s 			page 129


 7297 1a73 22       		.uleb128 0x22
 7298 1a74 DC030000 		.4byte	0x3dc
 7299 1a78 ED190000 		.4byte	.LLST150
 7300 1a7c 28       		.uleb128 0x28
 7301 1a7d D0030000 		.4byte	0x3d0
 7302 1a81 01       		.uleb128 0x1
 7303 1a82 50       		.byte	0x50
 7304 1a83 00       		.byte	0
 7305 1a84 00       		.byte	0
 7306 1a85 1F       		.uleb128 0x1f
 7307 1a86 DA040000 		.4byte	.LASF165
 7308 1a8a 01       		.byte	0x1
 7309 1a8b F507     		.2byte	0x7f5
 7310 1a8d B8000000 		.4byte	0xb8
 7311 1a91 00000000 		.4byte	.LFB176
 7312 1a95 04000000 		.4byte	.LFE176-.LFB176
 7313 1a99 01       		.uleb128 0x1
 7314 1a9a 9C       		.byte	0x9c
 7315 1a9b B01A0000 		.4byte	0x1ab0
 7316 1a9f 1E       		.uleb128 0x1e
 7317 1aa0 76050000 		.4byte	.LASF65
 7318 1aa4 01       		.byte	0x1
 7319 1aa5 F507     		.2byte	0x7f5
 7320 1aa7 E9030000 		.4byte	0x3e9
 7321 1aab 0F1A0000 		.4byte	.LLST151
 7322 1aaf 00       		.byte	0
 7323 1ab0 1F       		.uleb128 0x1f
 7324 1ab1 56030000 		.4byte	.LASF166
 7325 1ab5 01       		.byte	0x1
 7326 1ab6 0408     		.2byte	0x804
 7327 1ab8 B8000000 		.4byte	0xb8
 7328 1abc 00000000 		.4byte	.LFB177
 7329 1ac0 04000000 		.4byte	.LFE177-.LFB177
 7330 1ac4 01       		.uleb128 0x1
 7331 1ac5 9C       		.byte	0x9c
 7332 1ac6 DB1A0000 		.4byte	0x1adb
 7333 1aca 1E       		.uleb128 0x1e
 7334 1acb 76050000 		.4byte	.LASF65
 7335 1acf 01       		.byte	0x1
 7336 1ad0 0408     		.2byte	0x804
 7337 1ad2 E9030000 		.4byte	0x3e9
 7338 1ad6 301A0000 		.4byte	.LLST152
 7339 1ada 00       		.byte	0
 7340 1adb 1F       		.uleb128 0x1f
 7341 1adc 66030000 		.4byte	.LASF167
 7342 1ae0 01       		.byte	0x1
 7343 1ae1 1208     		.2byte	0x812
 7344 1ae3 B8000000 		.4byte	0xb8
 7345 1ae7 00000000 		.4byte	.LFB178
 7346 1aeb 04000000 		.4byte	.LFE178-.LFB178
 7347 1aef 01       		.uleb128 0x1
 7348 1af0 9C       		.byte	0x9c
 7349 1af1 061B0000 		.4byte	0x1b06
 7350 1af5 1E       		.uleb128 0x1e
 7351 1af6 76050000 		.4byte	.LASF65
 7352 1afa 01       		.byte	0x1
 7353 1afb 1208     		.2byte	0x812
ARM GAS  /var/folders/m4/4md61f0s1_g0rzfghffqnxvr0000gn/T//ccSRVwbo.s 			page 130


 7354 1afd E9030000 		.4byte	0x3e9
 7355 1b01 511A0000 		.4byte	.LLST153
 7356 1b05 00       		.byte	0
 7357 1b06 1F       		.uleb128 0x1f
 7358 1b07 76030000 		.4byte	.LASF168
 7359 1b0b 01       		.byte	0x1
 7360 1b0c 2008     		.2byte	0x820
 7361 1b0e B8000000 		.4byte	0xb8
 7362 1b12 00000000 		.4byte	.LFB179
 7363 1b16 04000000 		.4byte	.LFE179-.LFB179
 7364 1b1a 01       		.uleb128 0x1
 7365 1b1b 9C       		.byte	0x9c
 7366 1b1c 311B0000 		.4byte	0x1b31
 7367 1b20 1E       		.uleb128 0x1e
 7368 1b21 76050000 		.4byte	.LASF65
 7369 1b25 01       		.byte	0x1
 7370 1b26 2008     		.2byte	0x820
 7371 1b28 E9030000 		.4byte	0x3e9
 7372 1b2c 721A0000 		.4byte	.LLST154
 7373 1b30 00       		.byte	0
 7374 1b31 29       		.uleb128 0x29
 7375 1b32 51040000 		.4byte	0x451
 7376 1b36 00000000 		.4byte	.LFB180
 7377 1b3a 12000000 		.4byte	.LFE180-.LFB180
 7378 1b3e 01       		.uleb128 0x1
 7379 1b3f 9C       		.byte	0x9c
 7380 1b40 551B0000 		.4byte	0x1b55
 7381 1b44 28       		.uleb128 0x28
 7382 1b45 5E040000 		.4byte	0x45e
 7383 1b49 01       		.uleb128 0x1
 7384 1b4a 50       		.byte	0x50
 7385 1b4b 22       		.uleb128 0x22
 7386 1b4c 6A040000 		.4byte	0x46a
 7387 1b50 931A0000 		.4byte	.LLST155
 7388 1b54 00       		.byte	0
 7389 1b55 29       		.uleb128 0x29
 7390 1b56 C3030000 		.4byte	0x3c3
 7391 1b5a 00000000 		.4byte	.LFB181
 7392 1b5e 16000000 		.4byte	.LFE181-.LFB181
 7393 1b62 01       		.uleb128 0x1
 7394 1b63 9C       		.byte	0x9c
 7395 1b64 791B0000 		.4byte	0x1b79
 7396 1b68 28       		.uleb128 0x28
 7397 1b69 D0030000 		.4byte	0x3d0
 7398 1b6d 01       		.uleb128 0x1
 7399 1b6e 50       		.byte	0x50
 7400 1b6f 22       		.uleb128 0x22
 7401 1b70 DC030000 		.4byte	0x3dc
 7402 1b74 B41A0000 		.4byte	.LLST156
 7403 1b78 00       		.byte	0
 7404 1b79 29       		.uleb128 0x29
 7405 1b7a CD040000 		.4byte	0x4cd
 7406 1b7e 00000000 		.4byte	.LFB182
 7407 1b82 12000000 		.4byte	.LFE182-.LFB182
 7408 1b86 01       		.uleb128 0x1
 7409 1b87 9C       		.byte	0x9c
 7410 1b88 9D1B0000 		.4byte	0x1b9d
ARM GAS  /var/folders/m4/4md61f0s1_g0rzfghffqnxvr0000gn/T//ccSRVwbo.s 			page 131


 7411 1b8c 28       		.uleb128 0x28
 7412 1b8d DA040000 		.4byte	0x4da
 7413 1b91 01       		.uleb128 0x1
 7414 1b92 50       		.byte	0x50
 7415 1b93 22       		.uleb128 0x22
 7416 1b94 E6040000 		.4byte	0x4e6
 7417 1b98 D51A0000 		.4byte	.LLST157
 7418 1b9c 00       		.byte	0
 7419 1b9d 29       		.uleb128 0x29
 7420 1b9e 55050000 		.4byte	0x555
 7421 1ba2 00000000 		.4byte	.LFB183
 7422 1ba6 16000000 		.4byte	.LFE183-.LFB183
 7423 1baa 01       		.uleb128 0x1
 7424 1bab 9C       		.byte	0x9c
 7425 1bac C11B0000 		.4byte	0x1bc1
 7426 1bb0 28       		.uleb128 0x28
 7427 1bb1 62050000 		.4byte	0x562
 7428 1bb5 01       		.uleb128 0x1
 7429 1bb6 50       		.byte	0x50
 7430 1bb7 22       		.uleb128 0x22
 7431 1bb8 6E050000 		.4byte	0x56e
 7432 1bbc F61A0000 		.4byte	.LLST158
 7433 1bc0 00       		.byte	0
 7434 1bc1 1B       		.uleb128 0x1b
 7435 1bc2 F1090000 		.4byte	.LASF169
 7436 1bc6 01       		.byte	0x1
 7437 1bc7 B208     		.2byte	0x8b2
 7438 1bc9 00000000 		.4byte	.LFB184
 7439 1bcd 26000000 		.4byte	.LFE184-.LFB184
 7440 1bd1 01       		.uleb128 0x1
 7441 1bd2 9C       		.byte	0x9c
 7442 1bd3 F41B0000 		.4byte	0x1bf4
 7443 1bd7 1C       		.uleb128 0x1c
 7444 1bd8 76050000 		.4byte	.LASF65
 7445 1bdc 01       		.byte	0x1
 7446 1bdd B208     		.2byte	0x8b2
 7447 1bdf E9030000 		.4byte	0x3e9
 7448 1be3 01       		.uleb128 0x1
 7449 1be4 50       		.byte	0x50
 7450 1be5 1C       		.uleb128 0x1c
 7451 1be6 A20A0000 		.4byte	.LASF170
 7452 1bea 01       		.byte	0x1
 7453 1beb B208     		.2byte	0x8b2
 7454 1bed F41B0000 		.4byte	0x1bf4
 7455 1bf1 01       		.uleb128 0x1
 7456 1bf2 51       		.byte	0x51
 7457 1bf3 00       		.byte	0
 7458 1bf4 11       		.uleb128 0x11
 7459 1bf5 04       		.byte	0x4
 7460 1bf6 B8030000 		.4byte	0x3b8
 7461 1bfa 1B       		.uleb128 0x1b
 7462 1bfb 82060000 		.4byte	.LASF171
 7463 1bff 01       		.byte	0x1
 7464 1c00 CB08     		.2byte	0x8cb
 7465 1c02 00000000 		.4byte	.LFB185
 7466 1c06 12000000 		.4byte	.LFE185-.LFB185
 7467 1c0a 01       		.uleb128 0x1
ARM GAS  /var/folders/m4/4md61f0s1_g0rzfghffqnxvr0000gn/T//ccSRVwbo.s 			page 132


 7468 1c0b 9C       		.byte	0x9c
 7469 1c0c 1F1C0000 		.4byte	0x1c1f
 7470 1c10 1C       		.uleb128 0x1c
 7471 1c11 A20A0000 		.4byte	.LASF170
 7472 1c15 01       		.byte	0x1
 7473 1c16 CB08     		.2byte	0x8cb
 7474 1c18 F41B0000 		.4byte	0x1bf4
 7475 1c1c 01       		.uleb128 0x1
 7476 1c1d 50       		.byte	0x50
 7477 1c1e 00       		.byte	0
 7478 1c1f 1B       		.uleb128 0x1b
 7479 1c20 DE090000 		.4byte	.LASF172
 7480 1c24 01       		.byte	0x1
 7481 1c25 DE08     		.2byte	0x8de
 7482 1c27 00000000 		.4byte	.LFB186
 7483 1c2b 14000000 		.4byte	.LFE186-.LFB186
 7484 1c2f 01       		.uleb128 0x1
 7485 1c30 9C       		.byte	0x9c
 7486 1c31 521C0000 		.4byte	0x1c52
 7487 1c35 1C       		.uleb128 0x1c
 7488 1c36 76050000 		.4byte	.LASF65
 7489 1c3a 01       		.byte	0x1
 7490 1c3b DE08     		.2byte	0x8de
 7491 1c3d E9030000 		.4byte	0x3e9
 7492 1c41 01       		.uleb128 0x1
 7493 1c42 50       		.byte	0x50
 7494 1c43 1C       		.uleb128 0x1c
 7495 1c44 0B000000 		.4byte	.LASF101
 7496 1c48 01       		.byte	0x1
 7497 1c49 DE08     		.2byte	0x8de
 7498 1c4b 3C020000 		.4byte	0x23c
 7499 1c4f 01       		.uleb128 0x1
 7500 1c50 51       		.byte	0x51
 7501 1c51 00       		.byte	0
 7502 1c52 1B       		.uleb128 0x1b
 7503 1c53 3D040000 		.4byte	.LASF173
 7504 1c57 01       		.byte	0x1
 7505 1c58 F708     		.2byte	0x8f7
 7506 1c5a 00000000 		.4byte	.LFB187
 7507 1c5e 18000000 		.4byte	.LFE187-.LFB187
 7508 1c62 01       		.uleb128 0x1
 7509 1c63 9C       		.byte	0x9c
 7510 1c64 851C0000 		.4byte	0x1c85
 7511 1c68 1C       		.uleb128 0x1c
 7512 1c69 76050000 		.4byte	.LASF65
 7513 1c6d 01       		.byte	0x1
 7514 1c6e F708     		.2byte	0x8f7
 7515 1c70 E9030000 		.4byte	0x3e9
 7516 1c74 01       		.uleb128 0x1
 7517 1c75 50       		.byte	0x50
 7518 1c76 1C       		.uleb128 0x1c
 7519 1c77 0B000000 		.4byte	.LASF101
 7520 1c7b 01       		.byte	0x1
 7521 1c7c F708     		.2byte	0x8f7
 7522 1c7e 3C020000 		.4byte	0x23c
 7523 1c82 01       		.uleb128 0x1
 7524 1c83 51       		.byte	0x51
ARM GAS  /var/folders/m4/4md61f0s1_g0rzfghffqnxvr0000gn/T//ccSRVwbo.s 			page 133


 7525 1c84 00       		.byte	0
 7526 1c85 1B       		.uleb128 0x1b
 7527 1c86 720C0000 		.4byte	.LASF174
 7528 1c8a 01       		.byte	0x1
 7529 1c8b 1009     		.2byte	0x910
 7530 1c8d 00000000 		.4byte	.LFB188
 7531 1c91 18000000 		.4byte	.LFE188-.LFB188
 7532 1c95 01       		.uleb128 0x1
 7533 1c96 9C       		.byte	0x9c
 7534 1c97 B81C0000 		.4byte	0x1cb8
 7535 1c9b 1C       		.uleb128 0x1c
 7536 1c9c 76050000 		.4byte	.LASF65
 7537 1ca0 01       		.byte	0x1
 7538 1ca1 1009     		.2byte	0x910
 7539 1ca3 E9030000 		.4byte	0x3e9
 7540 1ca7 01       		.uleb128 0x1
 7541 1ca8 50       		.byte	0x50
 7542 1ca9 1C       		.uleb128 0x1c
 7543 1caa 0B000000 		.4byte	.LASF101
 7544 1cae 01       		.byte	0x1
 7545 1caf 1009     		.2byte	0x910
 7546 1cb1 3C020000 		.4byte	0x23c
 7547 1cb5 01       		.uleb128 0x1
 7548 1cb6 51       		.byte	0x51
 7549 1cb7 00       		.byte	0
 7550 1cb8 1B       		.uleb128 0x1b
 7551 1cb9 2D020000 		.4byte	.LASF175
 7552 1cbd 01       		.byte	0x1
 7553 1cbe 6F09     		.2byte	0x96f
 7554 1cc0 00000000 		.4byte	.LFB190
 7555 1cc4 04000000 		.4byte	.LFE190-.LFB190
 7556 1cc8 01       		.uleb128 0x1
 7557 1cc9 9C       		.byte	0x9c
 7558 1cca EB1C0000 		.4byte	0x1ceb
 7559 1cce 1C       		.uleb128 0x1c
 7560 1ccf 76050000 		.4byte	.LASF65
 7561 1cd3 01       		.byte	0x1
 7562 1cd4 6F09     		.2byte	0x96f
 7563 1cd6 E9030000 		.4byte	0x3e9
 7564 1cda 01       		.uleb128 0x1
 7565 1cdb 50       		.byte	0x50
 7566 1cdc 1C       		.uleb128 0x1c
 7567 1cdd 5E090000 		.4byte	.LASF176
 7568 1ce1 01       		.byte	0x1
 7569 1ce2 6F09     		.2byte	0x96f
 7570 1ce4 A2000000 		.4byte	0xa2
 7571 1ce8 01       		.uleb128 0x1
 7572 1ce9 51       		.byte	0x51
 7573 1cea 00       		.byte	0
 7574 1ceb 1F       		.uleb128 0x1f
 7575 1cec 2C050000 		.4byte	.LASF177
 7576 1cf0 01       		.byte	0x1
 7577 1cf1 9009     		.2byte	0x990
 7578 1cf3 0D020000 		.4byte	0x20d
 7579 1cf7 00000000 		.4byte	.LFB191
 7580 1cfb 0C000000 		.4byte	.LFE191-.LFB191
 7581 1cff 01       		.uleb128 0x1
ARM GAS  /var/folders/m4/4md61f0s1_g0rzfghffqnxvr0000gn/T//ccSRVwbo.s 			page 134


 7582 1d00 9C       		.byte	0x9c
 7583 1d01 341D0000 		.4byte	0x1d34
 7584 1d05 1E       		.uleb128 0x1e
 7585 1d06 76050000 		.4byte	.LASF65
 7586 1d0a 01       		.byte	0x1
 7587 1d0b 9009     		.2byte	0x990
 7588 1d0d E9030000 		.4byte	0x3e9
 7589 1d11 171B0000 		.4byte	.LLST159
 7590 1d15 1C       		.uleb128 0x1c
 7591 1d16 DA000000 		.4byte	.LASF178
 7592 1d1a 01       		.byte	0x1
 7593 1d1b 9009     		.2byte	0x990
 7594 1d1d A2000000 		.4byte	0xa2
 7595 1d21 01       		.uleb128 0x1
 7596 1d22 51       		.byte	0x51
 7597 1d23 1D       		.uleb128 0x1d
 7598 1d24 570D0000 		.4byte	.LASF179
 7599 1d28 01       		.byte	0x1
 7600 1d29 9209     		.2byte	0x992
 7601 1d2b 18020000 		.4byte	0x218
 7602 1d2f 381B0000 		.4byte	.LLST160
 7603 1d33 00       		.byte	0
 7604 1d34 1F       		.uleb128 0x1f
 7605 1d35 B9080000 		.4byte	.LASF180
 7606 1d39 01       		.byte	0x1
 7607 1d3a D609     		.2byte	0x9d6
 7608 1d3c 18020000 		.4byte	0x218
 7609 1d40 00000000 		.4byte	.LFB193
 7610 1d44 14000000 		.4byte	.LFE193-.LFB193
 7611 1d48 01       		.uleb128 0x1
 7612 1d49 9C       		.byte	0x9c
 7613 1d4a 9D1D0000 		.4byte	0x1d9d
 7614 1d4e 1E       		.uleb128 0x1e
 7615 1d4f 76050000 		.4byte	.LASF65
 7616 1d53 01       		.byte	0x1
 7617 1d54 D609     		.2byte	0x9d6
 7618 1d56 E9030000 		.4byte	0x3e9
 7619 1d5a 621B0000 		.4byte	.LLST161
 7620 1d5e 1C       		.uleb128 0x1c
 7621 1d5f DE020000 		.4byte	.LASF181
 7622 1d63 01       		.byte	0x1
 7623 1d64 D609     		.2byte	0x9d6
 7624 1d66 A2000000 		.4byte	0xa2
 7625 1d6a 01       		.uleb128 0x1
 7626 1d6b 51       		.byte	0x51
 7627 1d6c 1D       		.uleb128 0x1d
 7628 1d6d 570D0000 		.4byte	.LASF179
 7629 1d71 01       		.byte	0x1
 7630 1d72 D809     		.2byte	0x9d8
 7631 1d74 18020000 		.4byte	0x218
 7632 1d78 831B0000 		.4byte	.LLST162
 7633 1d7c 1D       		.uleb128 0x1d
 7634 1d7d 54070000 		.4byte	.LASF182
 7635 1d81 01       		.byte	0x1
 7636 1d82 D909     		.2byte	0x9d9
 7637 1d84 A2000000 		.4byte	0xa2
 7638 1d88 A21B0000 		.4byte	.LLST163
ARM GAS  /var/folders/m4/4md61f0s1_g0rzfghffqnxvr0000gn/T//ccSRVwbo.s 			page 135


 7639 1d8c 1D       		.uleb128 0x1d
 7640 1d8d D80C0000 		.4byte	.LASF183
 7641 1d91 01       		.byte	0x1
 7642 1d92 D909     		.2byte	0x9d9
 7643 1d94 A2000000 		.4byte	0xa2
 7644 1d98 C61B0000 		.4byte	.LLST164
 7645 1d9c 00       		.byte	0
 7646 1d9d 0F       		.uleb128 0xf
 7647 1d9e 6E0B0000 		.4byte	.LASF184
 7648 1da2 01       		.byte	0x1
 7649 1da3 FF09     		.2byte	0x9ff
 7650 1da5 01       		.byte	0x1
 7651 1da6 C31D0000 		.4byte	0x1dc3
 7652 1daa 10       		.uleb128 0x10
 7653 1dab 76050000 		.4byte	.LASF65
 7654 1daf 01       		.byte	0x1
 7655 1db0 FF09     		.2byte	0x9ff
 7656 1db2 E9030000 		.4byte	0x3e9
 7657 1db6 10       		.uleb128 0x10
 7658 1db7 DE020000 		.4byte	.LASF181
 7659 1dbb 01       		.byte	0x1
 7660 1dbc FF09     		.2byte	0x9ff
 7661 1dbe A2000000 		.4byte	0xa2
 7662 1dc2 00       		.byte	0
 7663 1dc3 29       		.uleb128 0x29
 7664 1dc4 9D1D0000 		.4byte	0x1d9d
 7665 1dc8 00000000 		.4byte	.LFB194
 7666 1dcc 08000000 		.4byte	.LFE194-.LFB194
 7667 1dd0 01       		.uleb128 0x1
 7668 1dd1 9C       		.byte	0x9c
 7669 1dd2 E71D0000 		.4byte	0x1de7
 7670 1dd6 28       		.uleb128 0x28
 7671 1dd7 AA1D0000 		.4byte	0x1daa
 7672 1ddb 01       		.uleb128 0x1
 7673 1ddc 50       		.byte	0x50
 7674 1ddd 22       		.uleb128 0x22
 7675 1dde B61D0000 		.4byte	0x1db6
 7676 1de2 EA1B0000 		.4byte	.LLST165
 7677 1de6 00       		.byte	0
 7678 1de7 1B       		.uleb128 0x1b
 7679 1de8 94020000 		.4byte	.LASF185
 7680 1dec 01       		.byte	0x1
 7681 1ded 240A     		.2byte	0xa24
 7682 1def 00000000 		.4byte	.LFB195
 7683 1df3 06000000 		.4byte	.LFE195-.LFB195
 7684 1df7 01       		.uleb128 0x1
 7685 1df8 9C       		.byte	0x9c
 7686 1df9 2A1E0000 		.4byte	0x1e2a
 7687 1dfd 1C       		.uleb128 0x1c
 7688 1dfe 76050000 		.4byte	.LASF65
 7689 1e02 01       		.byte	0x1
 7690 1e03 240A     		.2byte	0xa24
 7691 1e05 E9030000 		.4byte	0x3e9
 7692 1e09 01       		.uleb128 0x1
 7693 1e0a 50       		.byte	0x50
 7694 1e0b 1C       		.uleb128 0x1c
 7695 1e0c 5D070000 		.4byte	.LASF186
ARM GAS  /var/folders/m4/4md61f0s1_g0rzfghffqnxvr0000gn/T//ccSRVwbo.s 			page 136


 7696 1e10 01       		.byte	0x1
 7697 1e11 240A     		.2byte	0xa24
 7698 1e13 A2000000 		.4byte	0xa2
 7699 1e17 01       		.uleb128 0x1
 7700 1e18 51       		.byte	0x51
 7701 1e19 1E       		.uleb128 0x1e
 7702 1e1a FA030000 		.4byte	.LASF187
 7703 1e1e 01       		.byte	0x1
 7704 1e1f 240A     		.2byte	0xa24
 7705 1e21 A2000000 		.4byte	0xa2
 7706 1e25 0B1C0000 		.4byte	.LLST166
 7707 1e29 00       		.byte	0
 7708 1e2a 1B       		.uleb128 0x1b
 7709 1e2b 3F000000 		.4byte	.LASF188
 7710 1e2f 01       		.byte	0x1
 7711 1e30 3F0A     		.2byte	0xa3f
 7712 1e32 00000000 		.4byte	.LFB196
 7713 1e36 16000000 		.4byte	.LFE196-.LFB196
 7714 1e3a 01       		.uleb128 0x1
 7715 1e3b 9C       		.byte	0x9c
 7716 1e3c 6D1E0000 		.4byte	0x1e6d
 7717 1e40 1C       		.uleb128 0x1c
 7718 1e41 76050000 		.4byte	.LASF65
 7719 1e45 01       		.byte	0x1
 7720 1e46 3F0A     		.2byte	0xa3f
 7721 1e48 E9030000 		.4byte	0x3e9
 7722 1e4c 01       		.uleb128 0x1
 7723 1e4d 50       		.byte	0x50
 7724 1e4e 1E       		.uleb128 0x1e
 7725 1e4f 30060000 		.4byte	.LASF189
 7726 1e53 01       		.byte	0x1
 7727 1e54 3F0A     		.2byte	0xa3f
 7728 1e56 A2000000 		.4byte	0xa2
 7729 1e5a 2C1C0000 		.4byte	.LLST167
 7730 1e5e 1C       		.uleb128 0x1c
 7731 1e5f 0B000000 		.4byte	.LASF101
 7732 1e63 01       		.byte	0x1
 7733 1e64 3F0A     		.2byte	0xa3f
 7734 1e66 3C020000 		.4byte	0x23c
 7735 1e6a 01       		.uleb128 0x1
 7736 1e6b 52       		.byte	0x52
 7737 1e6c 00       		.byte	0
 7738 1e6d 1B       		.uleb128 0x1b
 7739 1e6e B3030000 		.4byte	.LASF190
 7740 1e72 01       		.byte	0x1
 7741 1e73 590A     		.2byte	0xa59
 7742 1e75 00000000 		.4byte	.LFB197
 7743 1e79 18000000 		.4byte	.LFE197-.LFB197
 7744 1e7d 01       		.uleb128 0x1
 7745 1e7e 9C       		.byte	0x9c
 7746 1e7f A01E0000 		.4byte	0x1ea0
 7747 1e83 1C       		.uleb128 0x1c
 7748 1e84 76050000 		.4byte	.LASF65
 7749 1e88 01       		.byte	0x1
 7750 1e89 590A     		.2byte	0xa59
 7751 1e8b E9030000 		.4byte	0x3e9
 7752 1e8f 01       		.uleb128 0x1
ARM GAS  /var/folders/m4/4md61f0s1_g0rzfghffqnxvr0000gn/T//ccSRVwbo.s 			page 137


 7753 1e90 50       		.byte	0x50
 7754 1e91 1C       		.uleb128 0x1c
 7755 1e92 0B000000 		.4byte	.LASF101
 7756 1e96 01       		.byte	0x1
 7757 1e97 590A     		.2byte	0xa59
 7758 1e99 3C020000 		.4byte	0x23c
 7759 1e9d 01       		.uleb128 0x1
 7760 1e9e 51       		.byte	0x51
 7761 1e9f 00       		.byte	0
 7762 1ea0 1B       		.uleb128 0x1b
 7763 1ea1 98010000 		.4byte	.LASF191
 7764 1ea5 01       		.byte	0x1
 7765 1ea6 800A     		.2byte	0xa80
 7766 1ea8 00000000 		.4byte	.LFB198
 7767 1eac 0C000000 		.4byte	.LFE198-.LFB198
 7768 1eb0 01       		.uleb128 0x1
 7769 1eb1 9C       		.byte	0x9c
 7770 1eb2 C51E0000 		.4byte	0x1ec5
 7771 1eb6 1C       		.uleb128 0x1c
 7772 1eb7 76050000 		.4byte	.LASF65
 7773 1ebb 01       		.byte	0x1
 7774 1ebc 800A     		.2byte	0xa80
 7775 1ebe E9030000 		.4byte	0x3e9
 7776 1ec2 01       		.uleb128 0x1
 7777 1ec3 50       		.byte	0x50
 7778 1ec4 00       		.byte	0
 7779 1ec5 1B       		.uleb128 0x1b
 7780 1ec6 370A0000 		.4byte	.LASF192
 7781 1eca 01       		.byte	0x1
 7782 1ecb 950A     		.2byte	0xa95
 7783 1ecd 00000000 		.4byte	.LFB199
 7784 1ed1 16000000 		.4byte	.LFE199-.LFB199
 7785 1ed5 01       		.uleb128 0x1
 7786 1ed6 9C       		.byte	0x9c
 7787 1ed7 301F0000 		.4byte	0x1f30
 7788 1edb 1C       		.uleb128 0x1c
 7789 1edc 76050000 		.4byte	.LASF65
 7790 1ee0 01       		.byte	0x1
 7791 1ee1 950A     		.2byte	0xa95
 7792 1ee3 E9030000 		.4byte	0x3e9
 7793 1ee7 01       		.uleb128 0x1
 7794 1ee8 50       		.byte	0x50
 7795 1ee9 1E       		.uleb128 0x1e
 7796 1eea 60000000 		.4byte	.LASF79
 7797 1eee 01       		.byte	0x1
 7798 1eef 950A     		.2byte	0xa95
 7799 1ef1 A2000000 		.4byte	0xa2
 7800 1ef5 661C0000 		.4byte	.LLST168
 7801 1ef9 27       		.uleb128 0x27
 7802 1efa DD050000 		.4byte	0x5dd
 7803 1efe 00000000 		.4byte	.LBB88
 7804 1f02 0C000000 		.4byte	.LBE88-.LBB88
 7805 1f06 01       		.byte	0x1
 7806 1f07 9C0A     		.2byte	0xa9c
 7807 1f09 22       		.uleb128 0x22
 7808 1f0a F6050000 		.4byte	0x5f6
 7809 1f0e 871C0000 		.4byte	.LLST169
ARM GAS  /var/folders/m4/4md61f0s1_g0rzfghffqnxvr0000gn/T//ccSRVwbo.s 			page 138


 7810 1f12 22       		.uleb128 0x22
 7811 1f13 EA050000 		.4byte	0x5ea
 7812 1f17 A81C0000 		.4byte	.LLST170
 7813 1f1b 26       		.uleb128 0x26
 7814 1f1c 00000000 		.4byte	.LBB89
 7815 1f20 0C000000 		.4byte	.LBE89-.LBB89
 7816 1f24 24       		.uleb128 0x24
 7817 1f25 02060000 		.4byte	0x602
 7818 1f29 BB1C0000 		.4byte	.LLST171
 7819 1f2d 00       		.byte	0
 7820 1f2e 00       		.byte	0
 7821 1f2f 00       		.byte	0
 7822 1f30 1B       		.uleb128 0x1b
 7823 1f31 9F090000 		.4byte	.LASF193
 7824 1f35 01       		.byte	0x1
 7825 1f36 B30A     		.2byte	0xab3
 7826 1f38 00000000 		.4byte	.LFB200
 7827 1f3c 7E000000 		.4byte	.LFE200-.LFB200
 7828 1f40 01       		.uleb128 0x1
 7829 1f41 9C       		.byte	0x9c
 7830 1f42 65200000 		.4byte	0x2065
 7831 1f46 1C       		.uleb128 0x1c
 7832 1f47 76050000 		.4byte	.LASF65
 7833 1f4b 01       		.byte	0x1
 7834 1f4c B30A     		.2byte	0xab3
 7835 1f4e E9030000 		.4byte	0x3e9
 7836 1f52 01       		.uleb128 0x1
 7837 1f53 50       		.byte	0x50
 7838 1f54 1E       		.uleb128 0x1e
 7839 1f55 890A0000 		.4byte	.LASF194
 7840 1f59 01       		.byte	0x1
 7841 1f5a B30A     		.2byte	0xab3
 7842 1f5c A2000000 		.4byte	0xa2
 7843 1f60 FB1C0000 		.4byte	.LLST172
 7844 1f64 1E       		.uleb128 0x1e
 7845 1f65 6E090000 		.4byte	.LASF52
 7846 1f69 01       		.byte	0x1
 7847 1f6a B40A     		.2byte	0xab4
 7848 1f6c A2000000 		.4byte	0xa2
 7849 1f70 271D0000 		.4byte	.LLST173
 7850 1f74 1E       		.uleb128 0x1e
 7851 1f75 610D0000 		.4byte	.LASF195
 7852 1f79 01       		.byte	0x1
 7853 1f7a B40A     		.2byte	0xab4
 7854 1f7c A2000000 		.4byte	0xa2
 7855 1f80 611D0000 		.4byte	.LLST174
 7856 1f84 21       		.uleb128 0x21
 7857 1f85 EF030000 		.4byte	0x3ef
 7858 1f89 04000000 		.4byte	.LBB90
 7859 1f8d 78000000 		.4byte	.Ldebug_ranges0+0x78
 7860 1f91 01       		.byte	0x1
 7861 1f92 BE0A     		.2byte	0xabe
 7862 1f94 D91F0000 		.4byte	0x1fd9
 7863 1f98 22       		.uleb128 0x22
 7864 1f99 20040000 		.4byte	0x420
 7865 1f9d 9B1D0000 		.4byte	.LLST175
 7866 1fa1 2A       		.uleb128 0x2a
ARM GAS  /var/folders/m4/4md61f0s1_g0rzfghffqnxvr0000gn/T//ccSRVwbo.s 			page 139


 7867 1fa2 14040000 		.4byte	0x414
 7868 1fa6 01       		.byte	0x1
 7869 1fa7 22       		.uleb128 0x22
 7870 1fa8 08040000 		.4byte	0x408
 7871 1fac BC1D0000 		.4byte	.LLST176
 7872 1fb0 28       		.uleb128 0x28
 7873 1fb1 FC030000 		.4byte	0x3fc
 7874 1fb5 01       		.uleb128 0x1
 7875 1fb6 50       		.byte	0x50
 7876 1fb7 23       		.uleb128 0x23
 7877 1fb8 78000000 		.4byte	.Ldebug_ranges0+0x78
 7878 1fbc 24       		.uleb128 0x24
 7879 1fbd 2C040000 		.4byte	0x42c
 7880 1fc1 DD1D0000 		.4byte	.LLST177
 7881 1fc5 24       		.uleb128 0x24
 7882 1fc6 38040000 		.4byte	0x438
 7883 1fca 321E0000 		.4byte	.LLST178
 7884 1fce 24       		.uleb128 0x24
 7885 1fcf 44040000 		.4byte	0x444
 7886 1fd3 761E0000 		.4byte	.LLST179
 7887 1fd7 00       		.byte	0
 7888 1fd8 00       		.byte	0
 7889 1fd9 25       		.uleb128 0x25
 7890 1fda 77040000 		.4byte	0x477
 7891 1fde 08000000 		.4byte	.LBB93
 7892 1fe2 2C000000 		.4byte	.LBE93-.LBB93
 7893 1fe6 01       		.byte	0x1
 7894 1fe7 C20A     		.2byte	0xac2
 7895 1fe9 2E200000 		.4byte	0x202e
 7896 1fed 22       		.uleb128 0x22
 7897 1fee A8040000 		.4byte	0x4a8
 7898 1ff2 A91E0000 		.4byte	.LLST180
 7899 1ff6 22       		.uleb128 0x22
 7900 1ff7 9C040000 		.4byte	0x49c
 7901 1ffb CA1E0000 		.4byte	.LLST181
 7902 1fff 22       		.uleb128 0x22
 7903 2000 90040000 		.4byte	0x490
 7904 2004 DE1E0000 		.4byte	.LLST182
 7905 2008 22       		.uleb128 0x22
 7906 2009 84040000 		.4byte	0x484
 7907 200d FF1E0000 		.4byte	.LLST183
 7908 2011 26       		.uleb128 0x26
 7909 2012 08000000 		.4byte	.LBB94
 7910 2016 2C000000 		.4byte	.LBE94-.LBB94
 7911 201a 24       		.uleb128 0x24
 7912 201b B4040000 		.4byte	0x4b4
 7913 201f 121F0000 		.4byte	.LLST184
 7914 2023 24       		.uleb128 0x24
 7915 2024 C0040000 		.4byte	0x4c0
 7916 2028 561F0000 		.4byte	.LLST185
 7917 202c 00       		.byte	0
 7918 202d 00       		.byte	0
 7919 202e 27       		.uleb128 0x27
 7920 202f DD050000 		.4byte	0x5dd
 7921 2033 34000000 		.4byte	.LBB95
 7922 2037 0C000000 		.4byte	.LBE95-.LBB95
 7923 203b 01       		.byte	0x1
ARM GAS  /var/folders/m4/4md61f0s1_g0rzfghffqnxvr0000gn/T//ccSRVwbo.s 			page 140


 7924 203c C50A     		.2byte	0xac5
 7925 203e 22       		.uleb128 0x22
 7926 203f F6050000 		.4byte	0x5f6
 7927 2043 A61F0000 		.4byte	.LLST186
 7928 2047 22       		.uleb128 0x22
 7929 2048 EA050000 		.4byte	0x5ea
 7930 204c C71F0000 		.4byte	.LLST187
 7931 2050 26       		.uleb128 0x26
 7932 2051 34000000 		.4byte	.LBB96
 7933 2055 0C000000 		.4byte	.LBE96-.LBB96
 7934 2059 24       		.uleb128 0x24
 7935 205a 02060000 		.4byte	0x602
 7936 205e DA1F0000 		.4byte	.LLST188
 7937 2062 00       		.byte	0
 7938 2063 00       		.byte	0
 7939 2064 00       		.byte	0
 7940 2065 1B       		.uleb128 0x1b
 7941 2066 950C0000 		.4byte	.LASF196
 7942 206a 01       		.byte	0x1
 7943 206b DB0A     		.2byte	0xadb
 7944 206d 00000000 		.4byte	.LFB201
 7945 2071 26000000 		.4byte	.LFE201-.LFB201
 7946 2075 01       		.uleb128 0x1
 7947 2076 9C       		.byte	0x9c
 7948 2077 10210000 		.4byte	0x2110
 7949 207b 1C       		.uleb128 0x1c
 7950 207c 76050000 		.4byte	.LASF65
 7951 2080 01       		.byte	0x1
 7952 2081 DB0A     		.2byte	0xadb
 7953 2083 E9030000 		.4byte	0x3e9
 7954 2087 01       		.uleb128 0x1
 7955 2088 50       		.byte	0x50
 7956 2089 1E       		.uleb128 0x1e
 7957 208a B9060000 		.4byte	.LASF82
 7958 208e 01       		.byte	0x1
 7959 208f DB0A     		.2byte	0xadb
 7960 2091 A2000000 		.4byte	0xa2
 7961 2095 1A200000 		.4byte	.LLST189
 7962 2099 1C       		.uleb128 0x1c
 7963 209a 6F060000 		.4byte	.LASF83
 7964 209e 01       		.byte	0x1
 7965 209f DC0A     		.2byte	0xadc
 7966 20a1 A2000000 		.4byte	0xa2
 7967 20a5 01       		.uleb128 0x1
 7968 20a6 52       		.byte	0x52
 7969 20a7 1E       		.uleb128 0x1e
 7970 20a8 7A0D0000 		.4byte	.LASF84
 7971 20ac 01       		.byte	0x1
 7972 20ad DC0A     		.2byte	0xadc
 7973 20af A2000000 		.4byte	0xa2
 7974 20b3 3B200000 		.4byte	.LLST190
 7975 20b7 1D       		.uleb128 0x1d
 7976 20b8 67060000 		.4byte	.LASF80
 7977 20bc 01       		.byte	0x1
 7978 20bd DE0A     		.2byte	0xade
 7979 20bf A2000000 		.4byte	0xa2
 7980 20c3 5C200000 		.4byte	.LLST191
ARM GAS  /var/folders/m4/4md61f0s1_g0rzfghffqnxvr0000gn/T//ccSRVwbo.s 			page 141


 7981 20c7 27       		.uleb128 0x27
 7982 20c8 0F060000 		.4byte	0x60f
 7983 20cc 02000000 		.4byte	.LBB98
 7984 20d0 10000000 		.4byte	.LBE98-.LBB98
 7985 20d4 01       		.byte	0x1
 7986 20d5 E60A     		.2byte	0xae6
 7987 20d7 22       		.uleb128 0x22
 7988 20d8 40060000 		.4byte	0x640
 7989 20dc 8F200000 		.4byte	.LLST192
 7990 20e0 22       		.uleb128 0x22
 7991 20e1 34060000 		.4byte	0x634
 7992 20e5 B0200000 		.4byte	.LLST193
 7993 20e9 22       		.uleb128 0x22
 7994 20ea 28060000 		.4byte	0x628
 7995 20ee C3200000 		.4byte	.LLST194
 7996 20f2 22       		.uleb128 0x22
 7997 20f3 1C060000 		.4byte	0x61c
 7998 20f7 E4200000 		.4byte	.LLST195
 7999 20fb 26       		.uleb128 0x26
 8000 20fc 02000000 		.4byte	.LBB99
 8001 2100 10000000 		.4byte	.LBE99-.LBB99
 8002 2104 24       		.uleb128 0x24
 8003 2105 4C060000 		.4byte	0x64c
 8004 2109 F7200000 		.4byte	.LLST196
 8005 210d 00       		.byte	0
 8006 210e 00       		.byte	0
 8007 210f 00       		.byte	0
 8008 2110 1B       		.uleb128 0x1b
 8009 2111 060B0000 		.4byte	.LASF197
 8010 2115 01       		.byte	0x1
 8011 2116 0A0B     		.2byte	0xb0a
 8012 2118 00000000 		.4byte	.LFB202
 8013 211c 20000000 		.4byte	.LFE202-.LFB202
 8014 2120 01       		.uleb128 0x1
 8015 2121 9C       		.byte	0x9c
 8016 2122 AB210000 		.4byte	0x21ab
 8017 2126 1C       		.uleb128 0x1c
 8018 2127 76050000 		.4byte	.LASF65
 8019 212b 01       		.byte	0x1
 8020 212c 0A0B     		.2byte	0xb0a
 8021 212e E9030000 		.4byte	0x3e9
 8022 2132 01       		.uleb128 0x1
 8023 2133 50       		.byte	0x50
 8024 2134 1E       		.uleb128 0x1e
 8025 2135 B9060000 		.4byte	.LASF82
 8026 2139 01       		.byte	0x1
 8027 213a 0A0B     		.2byte	0xb0a
 8028 213c A2000000 		.4byte	0xa2
 8029 2140 3C210000 		.4byte	.LLST197
 8030 2144 1C       		.uleb128 0x1c
 8031 2145 6F060000 		.4byte	.LASF83
 8032 2149 01       		.byte	0x1
 8033 214a 0B0B     		.2byte	0xb0b
 8034 214c A2000000 		.4byte	0xa2
 8035 2150 01       		.uleb128 0x1
 8036 2151 52       		.byte	0x52
 8037 2152 1E       		.uleb128 0x1e
ARM GAS  /var/folders/m4/4md61f0s1_g0rzfghffqnxvr0000gn/T//ccSRVwbo.s 			page 142


 8038 2153 7A0D0000 		.4byte	.LASF84
 8039 2157 01       		.byte	0x1
 8040 2158 0B0B     		.2byte	0xb0b
 8041 215a A2000000 		.4byte	0xa2
 8042 215e 5D210000 		.4byte	.LLST198
 8043 2162 27       		.uleb128 0x27
 8044 2163 0F060000 		.4byte	0x60f
 8045 2167 02000000 		.4byte	.LBB100
 8046 216b 10000000 		.4byte	.LBE100-.LBB100
 8047 216f 01       		.byte	0x1
 8048 2170 140B     		.2byte	0xb14
 8049 2172 22       		.uleb128 0x22
 8050 2173 40060000 		.4byte	0x640
 8051 2177 7E210000 		.4byte	.LLST199
 8052 217b 22       		.uleb128 0x22
 8053 217c 34060000 		.4byte	0x634
 8054 2180 9F210000 		.4byte	.LLST200
 8055 2184 22       		.uleb128 0x22
 8056 2185 28060000 		.4byte	0x628
 8057 2189 B2210000 		.4byte	.LLST201
 8058 218d 22       		.uleb128 0x22
 8059 218e 1C060000 		.4byte	0x61c
 8060 2192 D3210000 		.4byte	.LLST202
 8061 2196 26       		.uleb128 0x26
 8062 2197 02000000 		.4byte	.LBB101
 8063 219b 10000000 		.4byte	.LBE101-.LBB101
 8064 219f 24       		.uleb128 0x24
 8065 21a0 4C060000 		.4byte	0x64c
 8066 21a4 E6210000 		.4byte	.LLST203
 8067 21a8 00       		.byte	0
 8068 21a9 00       		.byte	0
 8069 21aa 00       		.byte	0
 8070 21ab 29       		.uleb128 0x29
 8071 21ac DD050000 		.4byte	0x5dd
 8072 21b0 00000000 		.4byte	.LFB203
 8073 21b4 0E000000 		.4byte	.LFE203-.LFB203
 8074 21b8 01       		.uleb128 0x1
 8075 21b9 9C       		.byte	0x9c
 8076 21ba D8210000 		.4byte	0x21d8
 8077 21be 28       		.uleb128 0x28
 8078 21bf EA050000 		.4byte	0x5ea
 8079 21c3 01       		.uleb128 0x1
 8080 21c4 50       		.byte	0x50
 8081 21c5 22       		.uleb128 0x22
 8082 21c6 F6050000 		.4byte	0x5f6
 8083 21ca 2B220000 		.4byte	.LLST204
 8084 21ce 24       		.uleb128 0x24
 8085 21cf 02060000 		.4byte	0x602
 8086 21d3 4C220000 		.4byte	.LLST205
 8087 21d7 00       		.byte	0
 8088 21d8 1B       		.uleb128 0x1b
 8089 21d9 EA050000 		.4byte	.LASF198
 8090 21dd 01       		.byte	0x1
 8091 21de 7C0B     		.2byte	0xb7c
 8092 21e0 00000000 		.4byte	.LFB204
 8093 21e4 12000000 		.4byte	.LFE204-.LFB204
 8094 21e8 01       		.uleb128 0x1
ARM GAS  /var/folders/m4/4md61f0s1_g0rzfghffqnxvr0000gn/T//ccSRVwbo.s 			page 143


 8095 21e9 9C       		.byte	0x9c
 8096 21ea 0D220000 		.4byte	0x220d
 8097 21ee 1C       		.uleb128 0x1c
 8098 21ef 76050000 		.4byte	.LASF65
 8099 21f3 01       		.byte	0x1
 8100 21f4 7C0B     		.2byte	0xb7c
 8101 21f6 E9030000 		.4byte	0x3e9
 8102 21fa 01       		.uleb128 0x1
 8103 21fb 50       		.byte	0x50
 8104 21fc 1E       		.uleb128 0x1e
 8105 21fd 77000000 		.4byte	.LASF199
 8106 2201 01       		.byte	0x1
 8107 2202 7C0B     		.2byte	0xb7c
 8108 2204 A2000000 		.4byte	0xa2
 8109 2208 8C220000 		.4byte	.LLST206
 8110 220c 00       		.byte	0
 8111 220d 1B       		.uleb128 0x1b
 8112 220e FE040000 		.4byte	.LASF200
 8113 2212 01       		.byte	0x1
 8114 2213 940B     		.2byte	0xb94
 8115 2215 00000000 		.4byte	.LFB205
 8116 2219 12000000 		.4byte	.LFE205-.LFB205
 8117 221d 01       		.uleb128 0x1
 8118 221e 9C       		.byte	0x9c
 8119 221f 42220000 		.4byte	0x2242
 8120 2223 1C       		.uleb128 0x1c
 8121 2224 76050000 		.4byte	.LASF65
 8122 2228 01       		.byte	0x1
 8123 2229 940B     		.2byte	0xb94
 8124 222b E9030000 		.4byte	0x3e9
 8125 222f 01       		.uleb128 0x1
 8126 2230 50       		.byte	0x50
 8127 2231 1E       		.uleb128 0x1e
 8128 2232 200C0000 		.4byte	.LASF201
 8129 2236 01       		.byte	0x1
 8130 2237 940B     		.2byte	0xb94
 8131 2239 A2000000 		.4byte	0xa2
 8132 223d AD220000 		.4byte	.LLST207
 8133 2241 00       		.byte	0
 8134 2242 1B       		.uleb128 0x1b
 8135 2243 12050000 		.4byte	.LASF202
 8136 2247 01       		.byte	0x1
 8137 2248 AB0B     		.2byte	0xbab
 8138 224a 00000000 		.4byte	.LFB206
 8139 224e 12000000 		.4byte	.LFE206-.LFB206
 8140 2252 01       		.uleb128 0x1
 8141 2253 9C       		.byte	0x9c
 8142 2254 77220000 		.4byte	0x2277
 8143 2258 1C       		.uleb128 0x1c
 8144 2259 76050000 		.4byte	.LASF65
 8145 225d 01       		.byte	0x1
 8146 225e AB0B     		.2byte	0xbab
 8147 2260 E9030000 		.4byte	0x3e9
 8148 2264 01       		.uleb128 0x1
 8149 2265 50       		.byte	0x50
 8150 2266 1E       		.uleb128 0x1e
 8151 2267 EA040000 		.4byte	.LASF203
ARM GAS  /var/folders/m4/4md61f0s1_g0rzfghffqnxvr0000gn/T//ccSRVwbo.s 			page 144


 8152 226b 01       		.byte	0x1
 8153 226c AB0B     		.2byte	0xbab
 8154 226e A2000000 		.4byte	0xa2
 8155 2272 CE220000 		.4byte	.LLST208
 8156 2276 00       		.byte	0
 8157 2277 29       		.uleb128 0x29
 8158 2278 0F060000 		.4byte	0x60f
 8159 227c 00000000 		.4byte	.LFB207
 8160 2280 18000000 		.4byte	.LFE207-.LFB207
 8161 2284 01       		.uleb128 0x1
 8162 2285 9C       		.byte	0x9c
 8163 2286 B6220000 		.4byte	0x22b6
 8164 228a 28       		.uleb128 0x28
 8165 228b 1C060000 		.4byte	0x61c
 8166 228f 01       		.uleb128 0x1
 8167 2290 50       		.byte	0x50
 8168 2291 22       		.uleb128 0x22
 8169 2292 28060000 		.4byte	0x628
 8170 2296 EF220000 		.4byte	.LLST209
 8171 229a 22       		.uleb128 0x22
 8172 229b 34060000 		.4byte	0x634
 8173 229f 10230000 		.4byte	.LLST210
 8174 22a3 22       		.uleb128 0x22
 8175 22a4 40060000 		.4byte	0x640
 8176 22a8 31230000 		.4byte	.LLST211
 8177 22ac 24       		.uleb128 0x24
 8178 22ad 4C060000 		.4byte	0x64c
 8179 22b1 52230000 		.4byte	.LLST212
 8180 22b5 00       		.byte	0
 8181 22b6 1B       		.uleb128 0x1b
 8182 22b7 FD010000 		.4byte	.LASF204
 8183 22bb 01       		.byte	0x1
 8184 22bc 030C     		.2byte	0xc03
 8185 22be 00000000 		.4byte	.LFB208
 8186 22c2 38000000 		.4byte	.LFE208-.LFB208
 8187 22c6 01       		.uleb128 0x1
 8188 22c7 9C       		.byte	0x9c
 8189 22c8 3B230000 		.4byte	0x233b
 8190 22cc 1C       		.uleb128 0x1c
 8191 22cd 76050000 		.4byte	.LASF65
 8192 22d1 01       		.byte	0x1
 8193 22d2 030C     		.2byte	0xc03
 8194 22d4 E9030000 		.4byte	0x3e9
 8195 22d8 01       		.uleb128 0x1
 8196 22d9 50       		.byte	0x50
 8197 22da 1E       		.uleb128 0x1e
 8198 22db 7B050000 		.4byte	.LASF205
 8199 22df 01       		.byte	0x1
 8200 22e0 030C     		.2byte	0xc03
 8201 22e2 A2000000 		.4byte	0xa2
 8202 22e6 9B230000 		.4byte	.LLST213
 8203 22ea 1E       		.uleb128 0x1e
 8204 22eb 3F020000 		.4byte	.LASF206
 8205 22ef 01       		.byte	0x1
 8206 22f0 040C     		.2byte	0xc04
 8207 22f2 A2000000 		.4byte	0xa2
 8208 22f6 BC230000 		.4byte	.LLST214
ARM GAS  /var/folders/m4/4md61f0s1_g0rzfghffqnxvr0000gn/T//ccSRVwbo.s 			page 145


 8209 22fa 1E       		.uleb128 0x1e
 8210 22fb FC000000 		.4byte	.LASF207
 8211 22ff 01       		.byte	0x1
 8212 2300 040C     		.2byte	0xc04
 8213 2302 A2000000 		.4byte	0xa2
 8214 2306 DD230000 		.4byte	.LLST215
 8215 230a 1D       		.uleb128 0x1d
 8216 230b 67060000 		.4byte	.LASF80
 8217 230f 01       		.byte	0x1
 8218 2310 060C     		.2byte	0xc06
 8219 2312 A2000000 		.4byte	0xa2
 8220 2316 FE230000 		.4byte	.LLST216
 8221 231a 1D       		.uleb128 0x1d
 8222 231b 4E010000 		.4byte	.LASF67
 8223 231f 01       		.byte	0x1
 8224 2320 070C     		.2byte	0xc07
 8225 2322 A2000000 		.4byte	0xa2
 8226 2326 3E240000 		.4byte	.LLST217
 8227 232a 1D       		.uleb128 0x1d
 8228 232b 4B040000 		.4byte	.LASF68
 8229 232f 01       		.byte	0x1
 8230 2330 080C     		.2byte	0xc08
 8231 2332 A2000000 		.4byte	0xa2
 8232 2336 83240000 		.4byte	.LLST218
 8233 233a 00       		.byte	0
 8234 233b 1B       		.uleb128 0x1b
 8235 233c 310D0000 		.4byte	.LASF208
 8236 2340 01       		.byte	0x1
 8237 2341 370C     		.2byte	0xc37
 8238 2343 00000000 		.4byte	.LFB209
 8239 2347 18000000 		.4byte	.LFE209-.LFB209
 8240 234b 01       		.uleb128 0x1
 8241 234c 9C       		.byte	0x9c
 8242 234d 6E230000 		.4byte	0x236e
 8243 2351 1C       		.uleb128 0x1c
 8244 2352 76050000 		.4byte	.LASF65
 8245 2356 01       		.byte	0x1
 8246 2357 370C     		.2byte	0xc37
 8247 2359 E9030000 		.4byte	0x3e9
 8248 235d 01       		.uleb128 0x1
 8249 235e 50       		.byte	0x50
 8250 235f 1C       		.uleb128 0x1c
 8251 2360 0B000000 		.4byte	.LASF101
 8252 2364 01       		.byte	0x1
 8253 2365 370C     		.2byte	0xc37
 8254 2367 3C020000 		.4byte	0x23c
 8255 236b 01       		.uleb128 0x1
 8256 236c 51       		.byte	0x51
 8257 236d 00       		.byte	0
 8258 236e 1B       		.uleb128 0x1b
 8259 236f FF0C0000 		.4byte	.LASF209
 8260 2373 01       		.byte	0x1
 8261 2374 6A0C     		.2byte	0xc6a
 8262 2376 00000000 		.4byte	.LFB210
 8263 237a 04000000 		.4byte	.LFE210-.LFB210
 8264 237e 01       		.uleb128 0x1
 8265 237f 9C       		.byte	0x9c
ARM GAS  /var/folders/m4/4md61f0s1_g0rzfghffqnxvr0000gn/T//ccSRVwbo.s 			page 146


 8266 2380 A1230000 		.4byte	0x23a1
 8267 2384 1C       		.uleb128 0x1c
 8268 2385 76050000 		.4byte	.LASF65
 8269 2389 01       		.byte	0x1
 8270 238a 6A0C     		.2byte	0xc6a
 8271 238c E9030000 		.4byte	0x3e9
 8272 2390 01       		.uleb128 0x1
 8273 2391 50       		.byte	0x50
 8274 2392 1C       		.uleb128 0x1c
 8275 2393 AF080000 		.4byte	.LASF210
 8276 2397 01       		.byte	0x1
 8277 2398 6A0C     		.2byte	0xc6a
 8278 239a A2000000 		.4byte	0xa2
 8279 239e 01       		.uleb128 0x1
 8280 239f 51       		.byte	0x51
 8281 23a0 00       		.byte	0
 8282 23a1 2B       		.uleb128 0x2b
 8283 23a2 DB010000 		.4byte	.LASF216
 8284 23a6 08       		.byte	0x8
 8285 23a7 FA06     		.2byte	0x6fa
 8286 23a9 AD230000 		.4byte	0x23ad
 8287 23ad 05       		.uleb128 0x5
 8288 23ae AD000000 		.4byte	0xad
 8289 23b2 2C       		.uleb128 0x2c
 8290 23b3 37010000 		.4byte	.LASF211
 8291 23b7 37010000 		.4byte	.LASF211
 8292 23bb 07       		.byte	0x7
 8293 23bc 6103     		.2byte	0x361
 8294 23be 2C       		.uleb128 0x2c
 8295 23bf E0080000 		.4byte	.LASF212
 8296 23c3 E0080000 		.4byte	.LASF212
 8297 23c7 07       		.byte	0x7
 8298 23c8 6203     		.2byte	0x362
 8299 23ca 00       		.byte	0
 8300              		.section	.debug_abbrev,"",%progbits
 8301              	.Ldebug_abbrev0:
 8302 0000 01       		.uleb128 0x1
 8303 0001 11       		.uleb128 0x11
 8304 0002 01       		.byte	0x1
 8305 0003 25       		.uleb128 0x25
 8306 0004 0E       		.uleb128 0xe
 8307 0005 13       		.uleb128 0x13
 8308 0006 0B       		.uleb128 0xb
 8309 0007 03       		.uleb128 0x3
 8310 0008 0E       		.uleb128 0xe
 8311 0009 1B       		.uleb128 0x1b
 8312 000a 0E       		.uleb128 0xe
 8313 000b 55       		.uleb128 0x55
 8314 000c 17       		.uleb128 0x17
 8315 000d 11       		.uleb128 0x11
 8316 000e 01       		.uleb128 0x1
 8317 000f 10       		.uleb128 0x10
 8318 0010 17       		.uleb128 0x17
 8319 0011 00       		.byte	0
 8320 0012 00       		.byte	0
 8321 0013 02       		.uleb128 0x2
 8322 0014 24       		.uleb128 0x24
ARM GAS  /var/folders/m4/4md61f0s1_g0rzfghffqnxvr0000gn/T//ccSRVwbo.s 			page 147


 8323 0015 00       		.byte	0
 8324 0016 0B       		.uleb128 0xb
 8325 0017 0B       		.uleb128 0xb
 8326 0018 3E       		.uleb128 0x3e
 8327 0019 0B       		.uleb128 0xb
 8328 001a 03       		.uleb128 0x3
 8329 001b 0E       		.uleb128 0xe
 8330 001c 00       		.byte	0
 8331 001d 00       		.byte	0
 8332 001e 03       		.uleb128 0x3
 8333 001f 16       		.uleb128 0x16
 8334 0020 00       		.byte	0
 8335 0021 03       		.uleb128 0x3
 8336 0022 0E       		.uleb128 0xe
 8337 0023 3A       		.uleb128 0x3a
 8338 0024 0B       		.uleb128 0xb
 8339 0025 3B       		.uleb128 0x3b
 8340 0026 0B       		.uleb128 0xb
 8341 0027 49       		.uleb128 0x49
 8342 0028 13       		.uleb128 0x13
 8343 0029 00       		.byte	0
 8344 002a 00       		.byte	0
 8345 002b 04       		.uleb128 0x4
 8346 002c 24       		.uleb128 0x24
 8347 002d 00       		.byte	0
 8348 002e 0B       		.uleb128 0xb
 8349 002f 0B       		.uleb128 0xb
 8350 0030 3E       		.uleb128 0x3e
 8351 0031 0B       		.uleb128 0xb
 8352 0032 03       		.uleb128 0x3
 8353 0033 08       		.uleb128 0x8
 8354 0034 00       		.byte	0
 8355 0035 00       		.byte	0
 8356 0036 05       		.uleb128 0x5
 8357 0037 35       		.uleb128 0x35
 8358 0038 00       		.byte	0
 8359 0039 49       		.uleb128 0x49
 8360 003a 13       		.uleb128 0x13
 8361 003b 00       		.byte	0
 8362 003c 00       		.byte	0
 8363 003d 06       		.uleb128 0x6
 8364 003e 13       		.uleb128 0x13
 8365 003f 01       		.byte	0x1
 8366 0040 0B       		.uleb128 0xb
 8367 0041 0B       		.uleb128 0xb
 8368 0042 3A       		.uleb128 0x3a
 8369 0043 0B       		.uleb128 0xb
 8370 0044 3B       		.uleb128 0x3b
 8371 0045 05       		.uleb128 0x5
 8372 0046 01       		.uleb128 0x1
 8373 0047 13       		.uleb128 0x13
 8374 0048 00       		.byte	0
 8375 0049 00       		.byte	0
 8376 004a 07       		.uleb128 0x7
 8377 004b 0D       		.uleb128 0xd
 8378 004c 00       		.byte	0
 8379 004d 03       		.uleb128 0x3
ARM GAS  /var/folders/m4/4md61f0s1_g0rzfghffqnxvr0000gn/T//ccSRVwbo.s 			page 148


 8380 004e 08       		.uleb128 0x8
 8381 004f 3A       		.uleb128 0x3a
 8382 0050 0B       		.uleb128 0xb
 8383 0051 3B       		.uleb128 0x3b
 8384 0052 05       		.uleb128 0x5
 8385 0053 49       		.uleb128 0x49
 8386 0054 13       		.uleb128 0x13
 8387 0055 38       		.uleb128 0x38
 8388 0056 0B       		.uleb128 0xb
 8389 0057 00       		.byte	0
 8390 0058 00       		.byte	0
 8391 0059 08       		.uleb128 0x8
 8392 005a 0D       		.uleb128 0xd
 8393 005b 00       		.byte	0
 8394 005c 03       		.uleb128 0x3
 8395 005d 0E       		.uleb128 0xe
 8396 005e 3A       		.uleb128 0x3a
 8397 005f 0B       		.uleb128 0xb
 8398 0060 3B       		.uleb128 0x3b
 8399 0061 05       		.uleb128 0x5
 8400 0062 49       		.uleb128 0x49
 8401 0063 13       		.uleb128 0x13
 8402 0064 38       		.uleb128 0x38
 8403 0065 0B       		.uleb128 0xb
 8404 0066 00       		.byte	0
 8405 0067 00       		.byte	0
 8406 0068 09       		.uleb128 0x9
 8407 0069 16       		.uleb128 0x16
 8408 006a 00       		.byte	0
 8409 006b 03       		.uleb128 0x3
 8410 006c 0E       		.uleb128 0xe
 8411 006d 3A       		.uleb128 0x3a
 8412 006e 0B       		.uleb128 0xb
 8413 006f 3B       		.uleb128 0x3b
 8414 0070 05       		.uleb128 0x5
 8415 0071 49       		.uleb128 0x49
 8416 0072 13       		.uleb128 0x13
 8417 0073 00       		.byte	0
 8418 0074 00       		.byte	0
 8419 0075 0A       		.uleb128 0xa
 8420 0076 04       		.uleb128 0x4
 8421 0077 01       		.byte	0x1
 8422 0078 0B       		.uleb128 0xb
 8423 0079 0B       		.uleb128 0xb
 8424 007a 49       		.uleb128 0x49
 8425 007b 13       		.uleb128 0x13
 8426 007c 3A       		.uleb128 0x3a
 8427 007d 0B       		.uleb128 0xb
 8428 007e 3B       		.uleb128 0x3b
 8429 007f 0B       		.uleb128 0xb
 8430 0080 01       		.uleb128 0x1
 8431 0081 13       		.uleb128 0x13
 8432 0082 00       		.byte	0
 8433 0083 00       		.byte	0
 8434 0084 0B       		.uleb128 0xb
 8435 0085 28       		.uleb128 0x28
 8436 0086 00       		.byte	0
ARM GAS  /var/folders/m4/4md61f0s1_g0rzfghffqnxvr0000gn/T//ccSRVwbo.s 			page 149


 8437 0087 03       		.uleb128 0x3
 8438 0088 0E       		.uleb128 0xe
 8439 0089 1C       		.uleb128 0x1c
 8440 008a 0B       		.uleb128 0xb
 8441 008b 00       		.byte	0
 8442 008c 00       		.byte	0
 8443 008d 0C       		.uleb128 0xc
 8444 008e 28       		.uleb128 0x28
 8445 008f 00       		.byte	0
 8446 0090 03       		.uleb128 0x3
 8447 0091 08       		.uleb128 0x8
 8448 0092 1C       		.uleb128 0x1c
 8449 0093 0B       		.uleb128 0xb
 8450 0094 00       		.byte	0
 8451 0095 00       		.byte	0
 8452 0096 0D       		.uleb128 0xd
 8453 0097 13       		.uleb128 0x13
 8454 0098 01       		.byte	0x1
 8455 0099 0B       		.uleb128 0xb
 8456 009a 0B       		.uleb128 0xb
 8457 009b 3A       		.uleb128 0x3a
 8458 009c 0B       		.uleb128 0xb
 8459 009d 3B       		.uleb128 0x3b
 8460 009e 0B       		.uleb128 0xb
 8461 009f 01       		.uleb128 0x1
 8462 00a0 13       		.uleb128 0x13
 8463 00a1 00       		.byte	0
 8464 00a2 00       		.byte	0
 8465 00a3 0E       		.uleb128 0xe
 8466 00a4 0D       		.uleb128 0xd
 8467 00a5 00       		.byte	0
 8468 00a6 03       		.uleb128 0x3
 8469 00a7 0E       		.uleb128 0xe
 8470 00a8 3A       		.uleb128 0x3a
 8471 00a9 0B       		.uleb128 0xb
 8472 00aa 3B       		.uleb128 0x3b
 8473 00ab 0B       		.uleb128 0xb
 8474 00ac 49       		.uleb128 0x49
 8475 00ad 13       		.uleb128 0x13
 8476 00ae 38       		.uleb128 0x38
 8477 00af 0B       		.uleb128 0xb
 8478 00b0 00       		.byte	0
 8479 00b1 00       		.byte	0
 8480 00b2 0F       		.uleb128 0xf
 8481 00b3 2E       		.uleb128 0x2e
 8482 00b4 01       		.byte	0x1
 8483 00b5 3F       		.uleb128 0x3f
 8484 00b6 19       		.uleb128 0x19
 8485 00b7 03       		.uleb128 0x3
 8486 00b8 0E       		.uleb128 0xe
 8487 00b9 3A       		.uleb128 0x3a
 8488 00ba 0B       		.uleb128 0xb
 8489 00bb 3B       		.uleb128 0x3b
 8490 00bc 05       		.uleb128 0x5
 8491 00bd 27       		.uleb128 0x27
 8492 00be 19       		.uleb128 0x19
 8493 00bf 20       		.uleb128 0x20
ARM GAS  /var/folders/m4/4md61f0s1_g0rzfghffqnxvr0000gn/T//ccSRVwbo.s 			page 150


 8494 00c0 0B       		.uleb128 0xb
 8495 00c1 01       		.uleb128 0x1
 8496 00c2 13       		.uleb128 0x13
 8497 00c3 00       		.byte	0
 8498 00c4 00       		.byte	0
 8499 00c5 10       		.uleb128 0x10
 8500 00c6 05       		.uleb128 0x5
 8501 00c7 00       		.byte	0
 8502 00c8 03       		.uleb128 0x3
 8503 00c9 0E       		.uleb128 0xe
 8504 00ca 3A       		.uleb128 0x3a
 8505 00cb 0B       		.uleb128 0xb
 8506 00cc 3B       		.uleb128 0x3b
 8507 00cd 05       		.uleb128 0x5
 8508 00ce 49       		.uleb128 0x49
 8509 00cf 13       		.uleb128 0x13
 8510 00d0 00       		.byte	0
 8511 00d1 00       		.byte	0
 8512 00d2 11       		.uleb128 0x11
 8513 00d3 0F       		.uleb128 0xf
 8514 00d4 00       		.byte	0
 8515 00d5 0B       		.uleb128 0xb
 8516 00d6 0B       		.uleb128 0xb
 8517 00d7 49       		.uleb128 0x49
 8518 00d8 13       		.uleb128 0x13
 8519 00d9 00       		.byte	0
 8520 00da 00       		.byte	0
 8521 00db 12       		.uleb128 0x12
 8522 00dc 2E       		.uleb128 0x2e
 8523 00dd 01       		.byte	0x1
 8524 00de 03       		.uleb128 0x3
 8525 00df 0E       		.uleb128 0xe
 8526 00e0 3A       		.uleb128 0x3a
 8527 00e1 0B       		.uleb128 0xb
 8528 00e2 3B       		.uleb128 0x3b
 8529 00e3 05       		.uleb128 0x5
 8530 00e4 27       		.uleb128 0x27
 8531 00e5 19       		.uleb128 0x19
 8532 00e6 20       		.uleb128 0x20
 8533 00e7 0B       		.uleb128 0xb
 8534 00e8 01       		.uleb128 0x1
 8535 00e9 13       		.uleb128 0x13
 8536 00ea 00       		.byte	0
 8537 00eb 00       		.byte	0
 8538 00ec 13       		.uleb128 0x13
 8539 00ed 34       		.uleb128 0x34
 8540 00ee 00       		.byte	0
 8541 00ef 03       		.uleb128 0x3
 8542 00f0 0E       		.uleb128 0xe
 8543 00f1 3A       		.uleb128 0x3a
 8544 00f2 0B       		.uleb128 0xb
 8545 00f3 3B       		.uleb128 0x3b
 8546 00f4 05       		.uleb128 0x5
 8547 00f5 49       		.uleb128 0x49
 8548 00f6 13       		.uleb128 0x13
 8549 00f7 00       		.byte	0
 8550 00f8 00       		.byte	0
ARM GAS  /var/folders/m4/4md61f0s1_g0rzfghffqnxvr0000gn/T//ccSRVwbo.s 			page 151


 8551 00f9 14       		.uleb128 0x14
 8552 00fa 34       		.uleb128 0x34
 8553 00fb 00       		.byte	0
 8554 00fc 03       		.uleb128 0x3
 8555 00fd 08       		.uleb128 0x8
 8556 00fe 3A       		.uleb128 0x3a
 8557 00ff 0B       		.uleb128 0xb
 8558 0100 3B       		.uleb128 0x3b
 8559 0101 05       		.uleb128 0x5
 8560 0102 49       		.uleb128 0x49
 8561 0103 13       		.uleb128 0x13
 8562 0104 00       		.byte	0
 8563 0105 00       		.byte	0
 8564 0106 15       		.uleb128 0x15
 8565 0107 2E       		.uleb128 0x2e
 8566 0108 01       		.byte	0x1
 8567 0109 3F       		.uleb128 0x3f
 8568 010a 19       		.uleb128 0x19
 8569 010b 03       		.uleb128 0x3
 8570 010c 0E       		.uleb128 0xe
 8571 010d 3A       		.uleb128 0x3a
 8572 010e 0B       		.uleb128 0xb
 8573 010f 3B       		.uleb128 0x3b
 8574 0110 0B       		.uleb128 0xb
 8575 0111 27       		.uleb128 0x27
 8576 0112 19       		.uleb128 0x19
 8577 0113 11       		.uleb128 0x11
 8578 0114 01       		.uleb128 0x1
 8579 0115 12       		.uleb128 0x12
 8580 0116 06       		.uleb128 0x6
 8581 0117 40       		.uleb128 0x40
 8582 0118 18       		.uleb128 0x18
 8583 0119 9742     		.uleb128 0x2117
 8584 011b 19       		.uleb128 0x19
 8585 011c 01       		.uleb128 0x1
 8586 011d 13       		.uleb128 0x13
 8587 011e 00       		.byte	0
 8588 011f 00       		.byte	0
 8589 0120 16       		.uleb128 0x16
 8590 0121 05       		.uleb128 0x5
 8591 0122 00       		.byte	0
 8592 0123 03       		.uleb128 0x3
 8593 0124 0E       		.uleb128 0xe
 8594 0125 3A       		.uleb128 0x3a
 8595 0126 0B       		.uleb128 0xb
 8596 0127 3B       		.uleb128 0x3b
 8597 0128 0B       		.uleb128 0xb
 8598 0129 49       		.uleb128 0x49
 8599 012a 13       		.uleb128 0x13
 8600 012b 02       		.uleb128 0x2
 8601 012c 17       		.uleb128 0x17
 8602 012d 00       		.byte	0
 8603 012e 00       		.byte	0
 8604 012f 17       		.uleb128 0x17
 8605 0130 898201   		.uleb128 0x4109
 8606 0133 01       		.byte	0x1
 8607 0134 11       		.uleb128 0x11
ARM GAS  /var/folders/m4/4md61f0s1_g0rzfghffqnxvr0000gn/T//ccSRVwbo.s 			page 152


 8608 0135 01       		.uleb128 0x1
 8609 0136 31       		.uleb128 0x31
 8610 0137 13       		.uleb128 0x13
 8611 0138 01       		.uleb128 0x1
 8612 0139 13       		.uleb128 0x13
 8613 013a 00       		.byte	0
 8614 013b 00       		.byte	0
 8615 013c 18       		.uleb128 0x18
 8616 013d 8A8201   		.uleb128 0x410a
 8617 0140 00       		.byte	0
 8618 0141 02       		.uleb128 0x2
 8619 0142 18       		.uleb128 0x18
 8620 0143 9142     		.uleb128 0x2111
 8621 0145 18       		.uleb128 0x18
 8622 0146 00       		.byte	0
 8623 0147 00       		.byte	0
 8624 0148 19       		.uleb128 0x19
 8625 0149 898201   		.uleb128 0x4109
 8626 014c 01       		.byte	0x1
 8627 014d 11       		.uleb128 0x11
 8628 014e 01       		.uleb128 0x1
 8629 014f 9542     		.uleb128 0x2115
 8630 0151 19       		.uleb128 0x19
 8631 0152 31       		.uleb128 0x31
 8632 0153 13       		.uleb128 0x13
 8633 0154 01       		.uleb128 0x1
 8634 0155 13       		.uleb128 0x13
 8635 0156 00       		.byte	0
 8636 0157 00       		.byte	0
 8637 0158 1A       		.uleb128 0x1a
 8638 0159 898201   		.uleb128 0x4109
 8639 015c 01       		.byte	0x1
 8640 015d 11       		.uleb128 0x11
 8641 015e 01       		.uleb128 0x1
 8642 015f 9542     		.uleb128 0x2115
 8643 0161 19       		.uleb128 0x19
 8644 0162 31       		.uleb128 0x31
 8645 0163 13       		.uleb128 0x13
 8646 0164 00       		.byte	0
 8647 0165 00       		.byte	0
 8648 0166 1B       		.uleb128 0x1b
 8649 0167 2E       		.uleb128 0x2e
 8650 0168 01       		.byte	0x1
 8651 0169 3F       		.uleb128 0x3f
 8652 016a 19       		.uleb128 0x19
 8653 016b 03       		.uleb128 0x3
 8654 016c 0E       		.uleb128 0xe
 8655 016d 3A       		.uleb128 0x3a
 8656 016e 0B       		.uleb128 0xb
 8657 016f 3B       		.uleb128 0x3b
 8658 0170 05       		.uleb128 0x5
 8659 0171 27       		.uleb128 0x27
 8660 0172 19       		.uleb128 0x19
 8661 0173 11       		.uleb128 0x11
 8662 0174 01       		.uleb128 0x1
 8663 0175 12       		.uleb128 0x12
 8664 0176 06       		.uleb128 0x6
ARM GAS  /var/folders/m4/4md61f0s1_g0rzfghffqnxvr0000gn/T//ccSRVwbo.s 			page 153


 8665 0177 40       		.uleb128 0x40
 8666 0178 18       		.uleb128 0x18
 8667 0179 9742     		.uleb128 0x2117
 8668 017b 19       		.uleb128 0x19
 8669 017c 01       		.uleb128 0x1
 8670 017d 13       		.uleb128 0x13
 8671 017e 00       		.byte	0
 8672 017f 00       		.byte	0
 8673 0180 1C       		.uleb128 0x1c
 8674 0181 05       		.uleb128 0x5
 8675 0182 00       		.byte	0
 8676 0183 03       		.uleb128 0x3
 8677 0184 0E       		.uleb128 0xe
 8678 0185 3A       		.uleb128 0x3a
 8679 0186 0B       		.uleb128 0xb
 8680 0187 3B       		.uleb128 0x3b
 8681 0188 05       		.uleb128 0x5
 8682 0189 49       		.uleb128 0x49
 8683 018a 13       		.uleb128 0x13
 8684 018b 02       		.uleb128 0x2
 8685 018c 18       		.uleb128 0x18
 8686 018d 00       		.byte	0
 8687 018e 00       		.byte	0
 8688 018f 1D       		.uleb128 0x1d
 8689 0190 34       		.uleb128 0x34
 8690 0191 00       		.byte	0
 8691 0192 03       		.uleb128 0x3
 8692 0193 0E       		.uleb128 0xe
 8693 0194 3A       		.uleb128 0x3a
 8694 0195 0B       		.uleb128 0xb
 8695 0196 3B       		.uleb128 0x3b
 8696 0197 05       		.uleb128 0x5
 8697 0198 49       		.uleb128 0x49
 8698 0199 13       		.uleb128 0x13
 8699 019a 02       		.uleb128 0x2
 8700 019b 17       		.uleb128 0x17
 8701 019c 00       		.byte	0
 8702 019d 00       		.byte	0
 8703 019e 1E       		.uleb128 0x1e
 8704 019f 05       		.uleb128 0x5
 8705 01a0 00       		.byte	0
 8706 01a1 03       		.uleb128 0x3
 8707 01a2 0E       		.uleb128 0xe
 8708 01a3 3A       		.uleb128 0x3a
 8709 01a4 0B       		.uleb128 0xb
 8710 01a5 3B       		.uleb128 0x3b
 8711 01a6 05       		.uleb128 0x5
 8712 01a7 49       		.uleb128 0x49
 8713 01a8 13       		.uleb128 0x13
 8714 01a9 02       		.uleb128 0x2
 8715 01aa 17       		.uleb128 0x17
 8716 01ab 00       		.byte	0
 8717 01ac 00       		.byte	0
 8718 01ad 1F       		.uleb128 0x1f
 8719 01ae 2E       		.uleb128 0x2e
 8720 01af 01       		.byte	0x1
 8721 01b0 3F       		.uleb128 0x3f
ARM GAS  /var/folders/m4/4md61f0s1_g0rzfghffqnxvr0000gn/T//ccSRVwbo.s 			page 154


 8722 01b1 19       		.uleb128 0x19
 8723 01b2 03       		.uleb128 0x3
 8724 01b3 0E       		.uleb128 0xe
 8725 01b4 3A       		.uleb128 0x3a
 8726 01b5 0B       		.uleb128 0xb
 8727 01b6 3B       		.uleb128 0x3b
 8728 01b7 05       		.uleb128 0x5
 8729 01b8 27       		.uleb128 0x27
 8730 01b9 19       		.uleb128 0x19
 8731 01ba 49       		.uleb128 0x49
 8732 01bb 13       		.uleb128 0x13
 8733 01bc 11       		.uleb128 0x11
 8734 01bd 01       		.uleb128 0x1
 8735 01be 12       		.uleb128 0x12
 8736 01bf 06       		.uleb128 0x6
 8737 01c0 40       		.uleb128 0x40
 8738 01c1 18       		.uleb128 0x18
 8739 01c2 9742     		.uleb128 0x2117
 8740 01c4 19       		.uleb128 0x19
 8741 01c5 01       		.uleb128 0x1
 8742 01c6 13       		.uleb128 0x13
 8743 01c7 00       		.byte	0
 8744 01c8 00       		.byte	0
 8745 01c9 20       		.uleb128 0x20
 8746 01ca 34       		.uleb128 0x34
 8747 01cb 00       		.byte	0
 8748 01cc 03       		.uleb128 0x3
 8749 01cd 08       		.uleb128 0x8
 8750 01ce 3A       		.uleb128 0x3a
 8751 01cf 0B       		.uleb128 0xb
 8752 01d0 3B       		.uleb128 0x3b
 8753 01d1 05       		.uleb128 0x5
 8754 01d2 49       		.uleb128 0x49
 8755 01d3 13       		.uleb128 0x13
 8756 01d4 02       		.uleb128 0x2
 8757 01d5 17       		.uleb128 0x17
 8758 01d6 00       		.byte	0
 8759 01d7 00       		.byte	0
 8760 01d8 21       		.uleb128 0x21
 8761 01d9 1D       		.uleb128 0x1d
 8762 01da 01       		.byte	0x1
 8763 01db 31       		.uleb128 0x31
 8764 01dc 13       		.uleb128 0x13
 8765 01dd 52       		.uleb128 0x52
 8766 01de 01       		.uleb128 0x1
 8767 01df 55       		.uleb128 0x55
 8768 01e0 17       		.uleb128 0x17
 8769 01e1 58       		.uleb128 0x58
 8770 01e2 0B       		.uleb128 0xb
 8771 01e3 59       		.uleb128 0x59
 8772 01e4 05       		.uleb128 0x5
 8773 01e5 01       		.uleb128 0x1
 8774 01e6 13       		.uleb128 0x13
 8775 01e7 00       		.byte	0
 8776 01e8 00       		.byte	0
 8777 01e9 22       		.uleb128 0x22
 8778 01ea 05       		.uleb128 0x5
ARM GAS  /var/folders/m4/4md61f0s1_g0rzfghffqnxvr0000gn/T//ccSRVwbo.s 			page 155


 8779 01eb 00       		.byte	0
 8780 01ec 31       		.uleb128 0x31
 8781 01ed 13       		.uleb128 0x13
 8782 01ee 02       		.uleb128 0x2
 8783 01ef 17       		.uleb128 0x17
 8784 01f0 00       		.byte	0
 8785 01f1 00       		.byte	0
 8786 01f2 23       		.uleb128 0x23
 8787 01f3 0B       		.uleb128 0xb
 8788 01f4 01       		.byte	0x1
 8789 01f5 55       		.uleb128 0x55
 8790 01f6 17       		.uleb128 0x17
 8791 01f7 00       		.byte	0
 8792 01f8 00       		.byte	0
 8793 01f9 24       		.uleb128 0x24
 8794 01fa 34       		.uleb128 0x34
 8795 01fb 00       		.byte	0
 8796 01fc 31       		.uleb128 0x31
 8797 01fd 13       		.uleb128 0x13
 8798 01fe 02       		.uleb128 0x2
 8799 01ff 17       		.uleb128 0x17
 8800 0200 00       		.byte	0
 8801 0201 00       		.byte	0
 8802 0202 25       		.uleb128 0x25
 8803 0203 1D       		.uleb128 0x1d
 8804 0204 01       		.byte	0x1
 8805 0205 31       		.uleb128 0x31
 8806 0206 13       		.uleb128 0x13
 8807 0207 11       		.uleb128 0x11
 8808 0208 01       		.uleb128 0x1
 8809 0209 12       		.uleb128 0x12
 8810 020a 06       		.uleb128 0x6
 8811 020b 58       		.uleb128 0x58
 8812 020c 0B       		.uleb128 0xb
 8813 020d 59       		.uleb128 0x59
 8814 020e 05       		.uleb128 0x5
 8815 020f 01       		.uleb128 0x1
 8816 0210 13       		.uleb128 0x13
 8817 0211 00       		.byte	0
 8818 0212 00       		.byte	0
 8819 0213 26       		.uleb128 0x26
 8820 0214 0B       		.uleb128 0xb
 8821 0215 01       		.byte	0x1
 8822 0216 11       		.uleb128 0x11
 8823 0217 01       		.uleb128 0x1
 8824 0218 12       		.uleb128 0x12
 8825 0219 06       		.uleb128 0x6
 8826 021a 00       		.byte	0
 8827 021b 00       		.byte	0
 8828 021c 27       		.uleb128 0x27
 8829 021d 1D       		.uleb128 0x1d
 8830 021e 01       		.byte	0x1
 8831 021f 31       		.uleb128 0x31
 8832 0220 13       		.uleb128 0x13
 8833 0221 11       		.uleb128 0x11
 8834 0222 01       		.uleb128 0x1
 8835 0223 12       		.uleb128 0x12
ARM GAS  /var/folders/m4/4md61f0s1_g0rzfghffqnxvr0000gn/T//ccSRVwbo.s 			page 156


 8836 0224 06       		.uleb128 0x6
 8837 0225 58       		.uleb128 0x58
 8838 0226 0B       		.uleb128 0xb
 8839 0227 59       		.uleb128 0x59
 8840 0228 05       		.uleb128 0x5
 8841 0229 00       		.byte	0
 8842 022a 00       		.byte	0
 8843 022b 28       		.uleb128 0x28
 8844 022c 05       		.uleb128 0x5
 8845 022d 00       		.byte	0
 8846 022e 31       		.uleb128 0x31
 8847 022f 13       		.uleb128 0x13
 8848 0230 02       		.uleb128 0x2
 8849 0231 18       		.uleb128 0x18
 8850 0232 00       		.byte	0
 8851 0233 00       		.byte	0
 8852 0234 29       		.uleb128 0x29
 8853 0235 2E       		.uleb128 0x2e
 8854 0236 01       		.byte	0x1
 8855 0237 31       		.uleb128 0x31
 8856 0238 13       		.uleb128 0x13
 8857 0239 11       		.uleb128 0x11
 8858 023a 01       		.uleb128 0x1
 8859 023b 12       		.uleb128 0x12
 8860 023c 06       		.uleb128 0x6
 8861 023d 40       		.uleb128 0x40
 8862 023e 18       		.uleb128 0x18
 8863 023f 9742     		.uleb128 0x2117
 8864 0241 19       		.uleb128 0x19
 8865 0242 01       		.uleb128 0x1
 8866 0243 13       		.uleb128 0x13
 8867 0244 00       		.byte	0
 8868 0245 00       		.byte	0
 8869 0246 2A       		.uleb128 0x2a
 8870 0247 05       		.uleb128 0x5
 8871 0248 00       		.byte	0
 8872 0249 31       		.uleb128 0x31
 8873 024a 13       		.uleb128 0x13
 8874 024b 1C       		.uleb128 0x1c
 8875 024c 0B       		.uleb128 0xb
 8876 024d 00       		.byte	0
 8877 024e 00       		.byte	0
 8878 024f 2B       		.uleb128 0x2b
 8879 0250 34       		.uleb128 0x34
 8880 0251 00       		.byte	0
 8881 0252 03       		.uleb128 0x3
 8882 0253 0E       		.uleb128 0xe
 8883 0254 3A       		.uleb128 0x3a
 8884 0255 0B       		.uleb128 0xb
 8885 0256 3B       		.uleb128 0x3b
 8886 0257 05       		.uleb128 0x5
 8887 0258 49       		.uleb128 0x49
 8888 0259 13       		.uleb128 0x13
 8889 025a 3F       		.uleb128 0x3f
 8890 025b 19       		.uleb128 0x19
 8891 025c 3C       		.uleb128 0x3c
 8892 025d 19       		.uleb128 0x19
ARM GAS  /var/folders/m4/4md61f0s1_g0rzfghffqnxvr0000gn/T//ccSRVwbo.s 			page 157


 8893 025e 00       		.byte	0
 8894 025f 00       		.byte	0
 8895 0260 2C       		.uleb128 0x2c
 8896 0261 2E       		.uleb128 0x2e
 8897 0262 00       		.byte	0
 8898 0263 3F       		.uleb128 0x3f
 8899 0264 19       		.uleb128 0x19
 8900 0265 3C       		.uleb128 0x3c
 8901 0266 19       		.uleb128 0x19
 8902 0267 6E       		.uleb128 0x6e
 8903 0268 0E       		.uleb128 0xe
 8904 0269 03       		.uleb128 0x3
 8905 026a 0E       		.uleb128 0xe
 8906 026b 3A       		.uleb128 0x3a
 8907 026c 0B       		.uleb128 0xb
 8908 026d 3B       		.uleb128 0x3b
 8909 026e 05       		.uleb128 0x5
 8910 026f 00       		.byte	0
 8911 0270 00       		.byte	0
 8912 0271 00       		.byte	0
 8913              		.section	.debug_loc,"",%progbits
 8914              	.Ldebug_loc0:
 8915              	.LLST0:
 8916 0000 00000000 		.4byte	.LVL0
 8917 0004 62000000 		.4byte	.LVL1
 8918 0008 0100     		.2byte	0x1
 8919 000a 50       		.byte	0x50
 8920 000b 62000000 		.4byte	.LVL1
 8921 000f 74000000 		.4byte	.LVL3
 8922 0013 0400     		.2byte	0x4
 8923 0015 F3       		.byte	0xf3
 8924 0016 01       		.uleb128 0x1
 8925 0017 50       		.byte	0x50
 8926 0018 9F       		.byte	0x9f
 8927 0019 74000000 		.4byte	.LVL3
 8928 001d 78000000 		.4byte	.LVL4
 8929 0021 0100     		.2byte	0x1
 8930 0023 50       		.byte	0x50
 8931 0024 78000000 		.4byte	.LVL4
 8932 0028 88000000 		.4byte	.LVL6
 8933 002c 0400     		.2byte	0x4
 8934 002e F3       		.byte	0xf3
 8935 002f 01       		.uleb128 0x1
 8936 0030 50       		.byte	0x50
 8937 0031 9F       		.byte	0x9f
 8938 0032 88000000 		.4byte	.LVL6
 8939 0036 8C000000 		.4byte	.LVL7
 8940 003a 0100     		.2byte	0x1
 8941 003c 50       		.byte	0x50
 8942 003d 8C000000 		.4byte	.LVL7
 8943 0041 9C000000 		.4byte	.LVL9
 8944 0045 0400     		.2byte	0x4
 8945 0047 F3       		.byte	0xf3
 8946 0048 01       		.uleb128 0x1
 8947 0049 50       		.byte	0x50
 8948 004a 9F       		.byte	0x9f
 8949 004b 9C000000 		.4byte	.LVL9
ARM GAS  /var/folders/m4/4md61f0s1_g0rzfghffqnxvr0000gn/T//ccSRVwbo.s 			page 158


 8950 004f A0000000 		.4byte	.LVL10
 8951 0053 0100     		.2byte	0x1
 8952 0055 50       		.byte	0x50
 8953 0056 A0000000 		.4byte	.LVL10
 8954 005a B0000000 		.4byte	.LVL12
 8955 005e 0400     		.2byte	0x4
 8956 0060 F3       		.byte	0xf3
 8957 0061 01       		.uleb128 0x1
 8958 0062 50       		.byte	0x50
 8959 0063 9F       		.byte	0x9f
 8960 0064 B0000000 		.4byte	.LVL12
 8961 0068 B4000000 		.4byte	.LVL13
 8962 006c 0100     		.2byte	0x1
 8963 006e 50       		.byte	0x50
 8964 006f B4000000 		.4byte	.LVL13
 8965 0073 C4000000 		.4byte	.LVL15
 8966 0077 0400     		.2byte	0x4
 8967 0079 F3       		.byte	0xf3
 8968 007a 01       		.uleb128 0x1
 8969 007b 50       		.byte	0x50
 8970 007c 9F       		.byte	0x9f
 8971 007d C4000000 		.4byte	.LVL15
 8972 0081 C8000000 		.4byte	.LVL16
 8973 0085 0100     		.2byte	0x1
 8974 0087 50       		.byte	0x50
 8975 0088 C8000000 		.4byte	.LVL16
 8976 008c D8000000 		.4byte	.LVL18
 8977 0090 0400     		.2byte	0x4
 8978 0092 F3       		.byte	0xf3
 8979 0093 01       		.uleb128 0x1
 8980 0094 50       		.byte	0x50
 8981 0095 9F       		.byte	0x9f
 8982 0096 D8000000 		.4byte	.LVL18
 8983 009a DC000000 		.4byte	.LVL19
 8984 009e 0100     		.2byte	0x1
 8985 00a0 50       		.byte	0x50
 8986 00a1 DC000000 		.4byte	.LVL19
 8987 00a5 EC000000 		.4byte	.LVL21
 8988 00a9 0400     		.2byte	0x4
 8989 00ab F3       		.byte	0xf3
 8990 00ac 01       		.uleb128 0x1
 8991 00ad 50       		.byte	0x50
 8992 00ae 9F       		.byte	0x9f
 8993 00af EC000000 		.4byte	.LVL21
 8994 00b3 F0000000 		.4byte	.LVL22
 8995 00b7 0100     		.2byte	0x1
 8996 00b9 50       		.byte	0x50
 8997 00ba F0000000 		.4byte	.LVL22
 8998 00be 00010000 		.4byte	.LVL24
 8999 00c2 0400     		.2byte	0x4
 9000 00c4 F3       		.byte	0xf3
 9001 00c5 01       		.uleb128 0x1
 9002 00c6 50       		.byte	0x50
 9003 00c7 9F       		.byte	0x9f
 9004 00c8 00010000 		.4byte	.LVL24
 9005 00cc 04010000 		.4byte	.LVL25
 9006 00d0 0100     		.2byte	0x1
ARM GAS  /var/folders/m4/4md61f0s1_g0rzfghffqnxvr0000gn/T//ccSRVwbo.s 			page 159


 9007 00d2 50       		.byte	0x50
 9008 00d3 04010000 		.4byte	.LVL25
 9009 00d7 14010000 		.4byte	.LVL27
 9010 00db 0400     		.2byte	0x4
 9011 00dd F3       		.byte	0xf3
 9012 00de 01       		.uleb128 0x1
 9013 00df 50       		.byte	0x50
 9014 00e0 9F       		.byte	0x9f
 9015 00e1 14010000 		.4byte	.LVL27
 9016 00e5 1A010000 		.4byte	.LVL28
 9017 00e9 0100     		.2byte	0x1
 9018 00eb 50       		.byte	0x50
 9019 00ec 1A010000 		.4byte	.LVL28
 9020 00f0 2C010000 		.4byte	.LVL30
 9021 00f4 0400     		.2byte	0x4
 9022 00f6 F3       		.byte	0xf3
 9023 00f7 01       		.uleb128 0x1
 9024 00f8 50       		.byte	0x50
 9025 00f9 9F       		.byte	0x9f
 9026 00fa 2C010000 		.4byte	.LVL30
 9027 00fe 32010000 		.4byte	.LVL31
 9028 0102 0100     		.2byte	0x1
 9029 0104 50       		.byte	0x50
 9030 0105 32010000 		.4byte	.LVL31
 9031 0109 44010000 		.4byte	.LVL33
 9032 010d 0400     		.2byte	0x4
 9033 010f F3       		.byte	0xf3
 9034 0110 01       		.uleb128 0x1
 9035 0111 50       		.byte	0x50
 9036 0112 9F       		.byte	0x9f
 9037 0113 44010000 		.4byte	.LVL33
 9038 0117 4A010000 		.4byte	.LVL34
 9039 011b 0100     		.2byte	0x1
 9040 011d 50       		.byte	0x50
 9041 011e 4A010000 		.4byte	.LVL34
 9042 0122 5C010000 		.4byte	.LVL36
 9043 0126 0400     		.2byte	0x4
 9044 0128 F3       		.byte	0xf3
 9045 0129 01       		.uleb128 0x1
 9046 012a 50       		.byte	0x50
 9047 012b 9F       		.byte	0x9f
 9048 012c 5C010000 		.4byte	.LVL36
 9049 0130 60010000 		.4byte	.LVL37
 9050 0134 0100     		.2byte	0x1
 9051 0136 50       		.byte	0x50
 9052 0137 60010000 		.4byte	.LVL37
 9053 013b 70010000 		.4byte	.LVL39
 9054 013f 0400     		.2byte	0x4
 9055 0141 F3       		.byte	0xf3
 9056 0142 01       		.uleb128 0x1
 9057 0143 50       		.byte	0x50
 9058 0144 9F       		.byte	0x9f
 9059 0145 70010000 		.4byte	.LVL39
 9060 0149 74010000 		.4byte	.LVL40
 9061 014d 0100     		.2byte	0x1
 9062 014f 50       		.byte	0x50
 9063 0150 74010000 		.4byte	.LVL40
ARM GAS  /var/folders/m4/4md61f0s1_g0rzfghffqnxvr0000gn/T//ccSRVwbo.s 			page 160


 9064 0154 B8010000 		.4byte	.LFE123
 9065 0158 0400     		.2byte	0x4
 9066 015a F3       		.byte	0xf3
 9067 015b 01       		.uleb128 0x1
 9068 015c 50       		.byte	0x50
 9069 015d 9F       		.byte	0x9f
 9070 015e 00000000 		.4byte	0
 9071 0162 00000000 		.4byte	0
 9072              	.LLST1:
 9073 0166 00000000 		.4byte	.LVL43
 9074 016a 08000000 		.4byte	.LVL44
 9075 016e 0200     		.2byte	0x2
 9076 0170 30       		.byte	0x30
 9077 0171 9F       		.byte	0x9f
 9078 0172 08000000 		.4byte	.LVL44
 9079 0176 4E000000 		.4byte	.LVL47
 9080 017a 0100     		.2byte	0x1
 9081 017c 53       		.byte	0x53
 9082 017d 56000000 		.4byte	.LVL48
 9083 0181 58000000 		.4byte	.LVL49
 9084 0185 0800     		.2byte	0x8
 9085 0187 71       		.byte	0x71
 9086 0188 08       		.sleb128 8
 9087 0189 94       		.byte	0x94
 9088 018a 02       		.byte	0x2
 9089 018b 73       		.byte	0x73
 9090 018c 00       		.sleb128 0
 9091 018d 21       		.byte	0x21
 9092 018e 9F       		.byte	0x9f
 9093 018f 7C000000 		.4byte	.LVL50
 9094 0193 82000000 		.4byte	.LVL51
 9095 0197 0100     		.2byte	0x1
 9096 0199 53       		.byte	0x53
 9097 019a 00000000 		.4byte	0
 9098 019e 00000000 		.4byte	0
 9099              	.LLST2:
 9100 01a2 00000000 		.4byte	.LVL54
 9101 01a6 0A000000 		.4byte	.LVL57
 9102 01aa 0100     		.2byte	0x1
 9103 01ac 51       		.byte	0x51
 9104 01ad 0A000000 		.4byte	.LVL57
 9105 01b1 0E000000 		.4byte	.LFE127
 9106 01b5 0400     		.2byte	0x4
 9107 01b7 F3       		.byte	0xf3
 9108 01b8 01       		.uleb128 0x1
 9109 01b9 51       		.byte	0x51
 9110 01ba 9F       		.byte	0x9f
 9111 01bb 00000000 		.4byte	0
 9112 01bf 00000000 		.4byte	0
 9113              	.LLST3:
 9114 01c3 00000000 		.4byte	.LVL54
 9115 01c7 02000000 		.4byte	.LVL55
 9116 01cb 0200     		.2byte	0x2
 9117 01cd 30       		.byte	0x30
 9118 01ce 9F       		.byte	0x9f
 9119 01cf 02000000 		.4byte	.LVL55
 9120 01d3 08000000 		.4byte	.LVL56
ARM GAS  /var/folders/m4/4md61f0s1_g0rzfghffqnxvr0000gn/T//ccSRVwbo.s 			page 161


 9121 01d7 0100     		.2byte	0x1
 9122 01d9 52       		.byte	0x52
 9123 01da 08000000 		.4byte	.LVL56
 9124 01de 0A000000 		.4byte	.LVL57
 9125 01e2 0600     		.2byte	0x6
 9126 01e4 71       		.byte	0x71
 9127 01e5 00       		.sleb128 0
 9128 01e6 73       		.byte	0x73
 9129 01e7 00       		.sleb128 0
 9130 01e8 21       		.byte	0x21
 9131 01e9 9F       		.byte	0x9f
 9132 01ea 0A000000 		.4byte	.LVL57
 9133 01ee 0E000000 		.4byte	.LFE127
 9134 01f2 0700     		.2byte	0x7
 9135 01f4 F3       		.byte	0xf3
 9136 01f5 01       		.uleb128 0x1
 9137 01f6 51       		.byte	0x51
 9138 01f7 73       		.byte	0x73
 9139 01f8 00       		.sleb128 0
 9140 01f9 21       		.byte	0x21
 9141 01fa 9F       		.byte	0x9f
 9142 01fb 00000000 		.4byte	0
 9143 01ff 00000000 		.4byte	0
 9144              	.LLST4:
 9145 0203 00000000 		.4byte	.LVL60
 9146 0207 02000000 		.4byte	.LVL61
 9147 020b 0100     		.2byte	0x1
 9148 020d 50       		.byte	0x50
 9149 020e 02000000 		.4byte	.LVL61
 9150 0212 04000000 		.4byte	.LFE130
 9151 0216 0400     		.2byte	0x4
 9152 0218 F3       		.byte	0xf3
 9153 0219 01       		.uleb128 0x1
 9154 021a 50       		.byte	0x50
 9155 021b 9F       		.byte	0x9f
 9156 021c 00000000 		.4byte	0
 9157 0220 00000000 		.4byte	0
 9158              	.LLST5:
 9159 0224 00000000 		.4byte	.LVL62
 9160 0228 02000000 		.4byte	.LVL63
 9161 022c 0100     		.2byte	0x1
 9162 022e 50       		.byte	0x50
 9163 022f 02000000 		.4byte	.LVL63
 9164 0233 06000000 		.4byte	.LFE131
 9165 0237 0400     		.2byte	0x4
 9166 0239 F3       		.byte	0xf3
 9167 023a 01       		.uleb128 0x1
 9168 023b 50       		.byte	0x50
 9169 023c 9F       		.byte	0x9f
 9170 023d 00000000 		.4byte	0
 9171 0241 00000000 		.4byte	0
 9172              	.LLST6:
 9173 0245 00000000 		.4byte	.LVL67
 9174 0249 0E000000 		.4byte	.LVL68
 9175 024d 0100     		.2byte	0x1
 9176 024f 51       		.byte	0x51
 9177 0250 0E000000 		.4byte	.LVL68
ARM GAS  /var/folders/m4/4md61f0s1_g0rzfghffqnxvr0000gn/T//ccSRVwbo.s 			page 162


 9178 0254 12000000 		.4byte	.LFE135
 9179 0258 0400     		.2byte	0x4
 9180 025a F3       		.byte	0xf3
 9181 025b 01       		.uleb128 0x1
 9182 025c 51       		.byte	0x51
 9183 025d 9F       		.byte	0x9f
 9184 025e 00000000 		.4byte	0
 9185 0262 00000000 		.4byte	0
 9186              	.LLST7:
 9187 0266 00000000 		.4byte	.LVL69
 9188 026a 0E000000 		.4byte	.LVL70
 9189 026e 0100     		.2byte	0x1
 9190 0270 51       		.byte	0x51
 9191 0271 0E000000 		.4byte	.LVL70
 9192 0275 12000000 		.4byte	.LFE136
 9193 0279 0400     		.2byte	0x4
 9194 027b F3       		.byte	0xf3
 9195 027c 01       		.uleb128 0x1
 9196 027d 51       		.byte	0x51
 9197 027e 9F       		.byte	0x9f
 9198 027f 00000000 		.4byte	0
 9199 0283 00000000 		.4byte	0
 9200              	.LLST8:
 9201 0287 00000000 		.4byte	.LVL72
 9202 028b 42000000 		.4byte	.LVL77
 9203 028f 0100     		.2byte	0x1
 9204 0291 51       		.byte	0x51
 9205 0292 42000000 		.4byte	.LVL77
 9206 0296 4C000000 		.4byte	.LVL78
 9207 029a 0400     		.2byte	0x4
 9208 029c F3       		.byte	0xf3
 9209 029d 01       		.uleb128 0x1
 9210 029e 51       		.byte	0x51
 9211 029f 9F       		.byte	0x9f
 9212 02a0 4C000000 		.4byte	.LVL78
 9213 02a4 74000000 		.4byte	.LFE138
 9214 02a8 0100     		.2byte	0x1
 9215 02aa 51       		.byte	0x51
 9216 02ab 00000000 		.4byte	0
 9217 02af 00000000 		.4byte	0
 9218              	.LLST9:
 9219 02b3 00000000 		.4byte	.LVL72
 9220 02b7 32000000 		.4byte	.LVL75
 9221 02bb 0200     		.2byte	0x2
 9222 02bd 30       		.byte	0x30
 9223 02be 9F       		.byte	0x9f
 9224 02bf 32000000 		.4byte	.LVL75
 9225 02c3 38000000 		.4byte	.LVL76
 9226 02c7 0100     		.2byte	0x1
 9227 02c9 55       		.byte	0x55
 9228 02ca 38000000 		.4byte	.LVL76
 9229 02ce 74000000 		.4byte	.LFE138
 9230 02d2 0100     		.2byte	0x1
 9231 02d4 54       		.byte	0x54
 9232 02d5 00000000 		.4byte	0
 9233 02d9 00000000 		.4byte	0
 9234              	.LLST10:
ARM GAS  /var/folders/m4/4md61f0s1_g0rzfghffqnxvr0000gn/T//ccSRVwbo.s 			page 163


 9235 02dd 00000000 		.4byte	.LVL72
 9236 02e1 10000000 		.4byte	.LVL73
 9237 02e5 0200     		.2byte	0x2
 9238 02e7 30       		.byte	0x30
 9239 02e8 9F       		.byte	0x9f
 9240 02e9 10000000 		.4byte	.LVL73
 9241 02ed 28000000 		.4byte	.LVL74
 9242 02f1 0100     		.2byte	0x1
 9243 02f3 55       		.byte	0x55
 9244 02f4 38000000 		.4byte	.LVL76
 9245 02f8 74000000 		.4byte	.LFE138
 9246 02fc 0100     		.2byte	0x1
 9247 02fe 53       		.byte	0x53
 9248 02ff 00000000 		.4byte	0
 9249 0303 00000000 		.4byte	0
 9250              	.LLST11:
 9251 0307 00000000 		.4byte	.LVL72
 9252 030b 32000000 		.4byte	.LVL75
 9253 030f 0200     		.2byte	0x2
 9254 0311 30       		.byte	0x30
 9255 0312 9F       		.byte	0x9f
 9256 0313 32000000 		.4byte	.LVL75
 9257 0317 5C000000 		.4byte	.LVL81
 9258 031b 0100     		.2byte	0x1
 9259 031d 52       		.byte	0x52
 9260 031e 6A000000 		.4byte	.LVL84
 9261 0322 74000000 		.4byte	.LFE138
 9262 0326 0100     		.2byte	0x1
 9263 0328 52       		.byte	0x52
 9264 0329 00000000 		.4byte	0
 9265 032d 00000000 		.4byte	0
 9266              	.LLST12:
 9267 0331 00000000 		.4byte	.LVL85
 9268 0335 48000000 		.4byte	.LVL89
 9269 0339 0100     		.2byte	0x1
 9270 033b 51       		.byte	0x51
 9271 033c 48000000 		.4byte	.LVL89
 9272 0340 52000000 		.4byte	.LVL90
 9273 0344 0400     		.2byte	0x4
 9274 0346 F3       		.byte	0xf3
 9275 0347 01       		.uleb128 0x1
 9276 0348 51       		.byte	0x51
 9277 0349 9F       		.byte	0x9f
 9278 034a 52000000 		.4byte	.LVL90
 9279 034e 80000000 		.4byte	.LFE139
 9280 0352 0100     		.2byte	0x1
 9281 0354 51       		.byte	0x51
 9282 0355 00000000 		.4byte	0
 9283 0359 00000000 		.4byte	0
 9284              	.LLST13:
 9285 035d 00000000 		.4byte	.LVL85
 9286 0361 3A000000 		.4byte	.LVL87
 9287 0365 0200     		.2byte	0x2
 9288 0367 30       		.byte	0x30
 9289 0368 9F       		.byte	0x9f
 9290 0369 3C000000 		.4byte	.LVL88
 9291 036d 80000000 		.4byte	.LFE139
ARM GAS  /var/folders/m4/4md61f0s1_g0rzfghffqnxvr0000gn/T//ccSRVwbo.s 			page 164


 9292 0371 0100     		.2byte	0x1
 9293 0373 52       		.byte	0x52
 9294 0374 00000000 		.4byte	0
 9295 0378 00000000 		.4byte	0
 9296              	.LLST14:
 9297 037c 00000000 		.4byte	.LVL85
 9298 0380 14000000 		.4byte	.LVL86
 9299 0384 0200     		.2byte	0x2
 9300 0386 30       		.byte	0x30
 9301 0387 9F       		.byte	0x9f
 9302 0388 14000000 		.4byte	.LVL86
 9303 038c 3C000000 		.4byte	.LVL88
 9304 0390 0100     		.2byte	0x1
 9305 0392 5E       		.byte	0x5e
 9306 0393 3C000000 		.4byte	.LVL88
 9307 0397 66000000 		.4byte	.LVL93
 9308 039b 0100     		.2byte	0x1
 9309 039d 53       		.byte	0x53
 9310 039e 66000000 		.4byte	.LVL93
 9311 03a2 78000000 		.4byte	.LVL95
 9312 03a6 0100     		.2byte	0x1
 9313 03a8 55       		.byte	0x55
 9314 03a9 78000000 		.4byte	.LVL95
 9315 03ad 80000000 		.4byte	.LFE139
 9316 03b1 0100     		.2byte	0x1
 9317 03b3 53       		.byte	0x53
 9318 03b4 00000000 		.4byte	0
 9319 03b8 00000000 		.4byte	0
 9320              	.LLST15:
 9321 03bc 00000000 		.4byte	.LVL85
 9322 03c0 3A000000 		.4byte	.LVL87
 9323 03c4 0200     		.2byte	0x2
 9324 03c6 30       		.byte	0x30
 9325 03c7 9F       		.byte	0x9f
 9326 03c8 3A000000 		.4byte	.LVL87
 9327 03cc 6C000000 		.4byte	.LVL94
 9328 03d0 0100     		.2byte	0x1
 9329 03d2 54       		.byte	0x54
 9330 03d3 7A000000 		.4byte	.LVL96
 9331 03d7 80000000 		.4byte	.LFE139
 9332 03db 0100     		.2byte	0x1
 9333 03dd 54       		.byte	0x54
 9334 03de 00000000 		.4byte	0
 9335 03e2 00000000 		.4byte	0
 9336              	.LLST16:
 9337 03e6 00000000 		.4byte	.LVL97
 9338 03ea 46000000 		.4byte	.LVL101
 9339 03ee 0100     		.2byte	0x1
 9340 03f0 51       		.byte	0x51
 9341 03f1 46000000 		.4byte	.LVL101
 9342 03f5 50000000 		.4byte	.LVL102
 9343 03f9 0400     		.2byte	0x4
 9344 03fb F3       		.byte	0xf3
 9345 03fc 01       		.uleb128 0x1
 9346 03fd 51       		.byte	0x51
 9347 03fe 9F       		.byte	0x9f
 9348 03ff 50000000 		.4byte	.LVL102
ARM GAS  /var/folders/m4/4md61f0s1_g0rzfghffqnxvr0000gn/T//ccSRVwbo.s 			page 165


 9349 0403 84000000 		.4byte	.LFE140
 9350 0407 0100     		.2byte	0x1
 9351 0409 51       		.byte	0x51
 9352 040a 00000000 		.4byte	0
 9353 040e 00000000 		.4byte	0
 9354              	.LLST17:
 9355 0412 00000000 		.4byte	.LVL97
 9356 0416 36000000 		.4byte	.LVL99
 9357 041a 0200     		.2byte	0x2
 9358 041c 30       		.byte	0x30
 9359 041d 9F       		.byte	0x9f
 9360 041e 36000000 		.4byte	.LVL99
 9361 0422 84000000 		.4byte	.LFE140
 9362 0426 0100     		.2byte	0x1
 9363 0428 52       		.byte	0x52
 9364 0429 00000000 		.4byte	0
 9365 042d 00000000 		.4byte	0
 9366              	.LLST18:
 9367 0431 00000000 		.4byte	.LVL97
 9368 0435 12000000 		.4byte	.LVL98
 9369 0439 0200     		.2byte	0x2
 9370 043b 30       		.byte	0x30
 9371 043c 9F       		.byte	0x9f
 9372 043d 12000000 		.4byte	.LVL98
 9373 0441 3A000000 		.4byte	.LVL100
 9374 0445 0100     		.2byte	0x1
 9375 0447 5E       		.byte	0x5e
 9376 0448 3A000000 		.4byte	.LVL100
 9377 044c 66000000 		.4byte	.LVL105
 9378 0450 0100     		.2byte	0x1
 9379 0452 53       		.byte	0x53
 9380 0453 66000000 		.4byte	.LVL105
 9381 0457 7A000000 		.4byte	.LVL107
 9382 045b 0100     		.2byte	0x1
 9383 045d 56       		.byte	0x56
 9384 045e 7A000000 		.4byte	.LVL107
 9385 0462 84000000 		.4byte	.LFE140
 9386 0466 0100     		.2byte	0x1
 9387 0468 53       		.byte	0x53
 9388 0469 00000000 		.4byte	0
 9389 046d 00000000 		.4byte	0
 9390              	.LLST19:
 9391 0471 00000000 		.4byte	.LVL97
 9392 0475 36000000 		.4byte	.LVL99
 9393 0479 0200     		.2byte	0x2
 9394 047b 30       		.byte	0x30
 9395 047c 9F       		.byte	0x9f
 9396 047d 36000000 		.4byte	.LVL99
 9397 0481 70000000 		.4byte	.LVL106
 9398 0485 0100     		.2byte	0x1
 9399 0487 55       		.byte	0x55
 9400 0488 7A000000 		.4byte	.LVL107
 9401 048c 7C000000 		.4byte	.LVL108
 9402 0490 0A00     		.2byte	0xa
 9403 0492 71       		.byte	0x71
 9404 0493 10       		.sleb128 16
 9405 0494 94       		.byte	0x94
ARM GAS  /var/folders/m4/4md61f0s1_g0rzfghffqnxvr0000gn/T//ccSRVwbo.s 			page 166


 9406 0495 02       		.byte	0x2
 9407 0496 34       		.byte	0x34
 9408 0497 24       		.byte	0x24
 9409 0498 77       		.byte	0x77
 9410 0499 00       		.sleb128 0
 9411 049a 21       		.byte	0x21
 9412 049b 9F       		.byte	0x9f
 9413 049c 7C000000 		.4byte	.LVL108
 9414 04a0 84000000 		.4byte	.LFE140
 9415 04a4 0100     		.2byte	0x1
 9416 04a6 55       		.byte	0x55
 9417 04a7 00000000 		.4byte	0
 9418 04ab 00000000 		.4byte	0
 9419              	.LLST20:
 9420 04af 00000000 		.4byte	.LVL109
 9421 04b3 46000000 		.4byte	.LVL113
 9422 04b7 0100     		.2byte	0x1
 9423 04b9 51       		.byte	0x51
 9424 04ba 46000000 		.4byte	.LVL113
 9425 04be 50000000 		.4byte	.LVL114
 9426 04c2 0400     		.2byte	0x4
 9427 04c4 F3       		.byte	0xf3
 9428 04c5 01       		.uleb128 0x1
 9429 04c6 51       		.byte	0x51
 9430 04c7 9F       		.byte	0x9f
 9431 04c8 50000000 		.4byte	.LVL114
 9432 04cc 68000000 		.4byte	.LFE141
 9433 04d0 0100     		.2byte	0x1
 9434 04d2 51       		.byte	0x51
 9435 04d3 00000000 		.4byte	0
 9436 04d7 00000000 		.4byte	0
 9437              	.LLST21:
 9438 04db 00000000 		.4byte	.LVL109
 9439 04df 3A000000 		.4byte	.LVL111
 9440 04e3 0200     		.2byte	0x2
 9441 04e5 30       		.byte	0x30
 9442 04e6 9F       		.byte	0x9f
 9443 04e7 3C000000 		.4byte	.LVL112
 9444 04eb 68000000 		.4byte	.LFE141
 9445 04ef 0100     		.2byte	0x1
 9446 04f1 52       		.byte	0x52
 9447 04f2 00000000 		.4byte	0
 9448 04f6 00000000 		.4byte	0
 9449              	.LLST22:
 9450 04fa 00000000 		.4byte	.LVL109
 9451 04fe 14000000 		.4byte	.LVL110
 9452 0502 0200     		.2byte	0x2
 9453 0504 30       		.byte	0x30
 9454 0505 9F       		.byte	0x9f
 9455 0506 14000000 		.4byte	.LVL110
 9456 050a 3C000000 		.4byte	.LVL112
 9457 050e 0100     		.2byte	0x1
 9458 0510 5E       		.byte	0x5e
 9459 0511 3C000000 		.4byte	.LVL112
 9460 0515 68000000 		.4byte	.LFE141
 9461 0519 0100     		.2byte	0x1
 9462 051b 53       		.byte	0x53
ARM GAS  /var/folders/m4/4md61f0s1_g0rzfghffqnxvr0000gn/T//ccSRVwbo.s 			page 167


 9463 051c 00000000 		.4byte	0
 9464 0520 00000000 		.4byte	0
 9465              	.LLST23:
 9466 0524 00000000 		.4byte	.LVL109
 9467 0528 3A000000 		.4byte	.LVL111
 9468 052c 0200     		.2byte	0x2
 9469 052e 30       		.byte	0x30
 9470 052f 9F       		.byte	0x9f
 9471 0530 3A000000 		.4byte	.LVL111
 9472 0534 5A000000 		.4byte	.LVL116
 9473 0538 0100     		.2byte	0x1
 9474 053a 54       		.byte	0x54
 9475 053b 5C000000 		.4byte	.LVL117
 9476 053f 68000000 		.4byte	.LFE141
 9477 0543 0100     		.2byte	0x1
 9478 0545 54       		.byte	0x54
 9479 0546 00000000 		.4byte	0
 9480 054a 00000000 		.4byte	0
 9481              	.LLST24:
 9482 054e 00000000 		.4byte	.LVL119
 9483 0552 16000000 		.4byte	.LVL120
 9484 0556 0100     		.2byte	0x1
 9485 0558 50       		.byte	0x50
 9486 0559 16000000 		.4byte	.LVL120
 9487 055d 50000000 		.4byte	.LFE143
 9488 0561 0300     		.2byte	0x3
 9489 0563 70       		.byte	0x70
 9490 0564 68       		.sleb128 -24
 9491 0565 9F       		.byte	0x9f
 9492 0566 00000000 		.4byte	0
 9493 056a 00000000 		.4byte	0
 9494              	.LLST25:
 9495 056e 00000000 		.4byte	.LVL119
 9496 0572 1A000000 		.4byte	.LVL122
 9497 0576 0100     		.2byte	0x1
 9498 0578 51       		.byte	0x51
 9499 0579 1A000000 		.4byte	.LVL122
 9500 057d 38000000 		.4byte	.LVL124
 9501 0581 0400     		.2byte	0x4
 9502 0583 F3       		.byte	0xf3
 9503 0584 01       		.uleb128 0x1
 9504 0585 51       		.byte	0x51
 9505 0586 9F       		.byte	0x9f
 9506 0587 38000000 		.4byte	.LVL124
 9507 058b 3A000000 		.4byte	.LVL125
 9508 058f 0100     		.2byte	0x1
 9509 0591 51       		.byte	0x51
 9510 0592 3A000000 		.4byte	.LVL125
 9511 0596 50000000 		.4byte	.LFE143
 9512 059a 0400     		.2byte	0x4
 9513 059c F3       		.byte	0xf3
 9514 059d 01       		.uleb128 0x1
 9515 059e 51       		.byte	0x51
 9516 059f 9F       		.byte	0x9f
 9517 05a0 00000000 		.4byte	0
 9518 05a4 00000000 		.4byte	0
 9519              	.LLST26:
ARM GAS  /var/folders/m4/4md61f0s1_g0rzfghffqnxvr0000gn/T//ccSRVwbo.s 			page 168


 9520 05a8 00000000 		.4byte	.LVL119
 9521 05ac 2A000000 		.4byte	.LVL123
 9522 05b0 0100     		.2byte	0x1
 9523 05b2 52       		.byte	0x52
 9524 05b3 2A000000 		.4byte	.LVL123
 9525 05b7 38000000 		.4byte	.LVL124
 9526 05bb 0400     		.2byte	0x4
 9527 05bd F3       		.byte	0xf3
 9528 05be 01       		.uleb128 0x1
 9529 05bf 52       		.byte	0x52
 9530 05c0 9F       		.byte	0x9f
 9531 05c1 38000000 		.4byte	.LVL124
 9532 05c5 4C000000 		.4byte	.LVL126
 9533 05c9 0100     		.2byte	0x1
 9534 05cb 52       		.byte	0x52
 9535 05cc 4C000000 		.4byte	.LVL126
 9536 05d0 50000000 		.4byte	.LFE143
 9537 05d4 0400     		.2byte	0x4
 9538 05d6 F3       		.byte	0xf3
 9539 05d7 01       		.uleb128 0x1
 9540 05d8 52       		.byte	0x52
 9541 05d9 9F       		.byte	0x9f
 9542 05da 00000000 		.4byte	0
 9543 05de 00000000 		.4byte	0
 9544              	.LLST27:
 9545 05e2 00000000 		.4byte	.LVL119
 9546 05e6 18000000 		.4byte	.LVL121
 9547 05ea 0100     		.2byte	0x1
 9548 05ec 50       		.byte	0x50
 9549 05ed 18000000 		.4byte	.LVL121
 9550 05f1 1A000000 		.4byte	.LVL122
 9551 05f5 0C00     		.2byte	0xc
 9552 05f7 71       		.byte	0x71
 9553 05f8 7C       		.sleb128 -4
 9554 05f9 31       		.byte	0x31
 9555 05fa 25       		.byte	0x25
 9556 05fb 0A       		.byte	0xa
 9557 05fc FFFF     		.2byte	0xffff
 9558 05fe 1A       		.byte	0x1a
 9559 05ff 70       		.byte	0x70
 9560 0600 00       		.sleb128 0
 9561 0601 22       		.byte	0x22
 9562 0602 9F       		.byte	0x9f
 9563 0603 1A000000 		.4byte	.LVL122
 9564 0607 38000000 		.4byte	.LVL124
 9565 060b 0F00     		.2byte	0xf
 9566 060d F3       		.byte	0xf3
 9567 060e 01       		.uleb128 0x1
 9568 060f 51       		.byte	0x51
 9569 0610 34       		.byte	0x34
 9570 0611 1C       		.byte	0x1c
 9571 0612 31       		.byte	0x31
 9572 0613 25       		.byte	0x25
 9573 0614 0A       		.byte	0xa
 9574 0615 FFFF     		.2byte	0xffff
 9575 0617 1A       		.byte	0x1a
 9576 0618 70       		.byte	0x70
ARM GAS  /var/folders/m4/4md61f0s1_g0rzfghffqnxvr0000gn/T//ccSRVwbo.s 			page 169


 9577 0619 00       		.sleb128 0
 9578 061a 22       		.byte	0x22
 9579 061b 9F       		.byte	0x9f
 9580 061c 38000000 		.4byte	.LVL124
 9581 0620 3A000000 		.4byte	.LVL125
 9582 0624 0C00     		.2byte	0xc
 9583 0626 71       		.byte	0x71
 9584 0627 00       		.sleb128 0
 9585 0628 31       		.byte	0x31
 9586 0629 25       		.byte	0x25
 9587 062a 0A       		.byte	0xa
 9588 062b FFFF     		.2byte	0xffff
 9589 062d 1A       		.byte	0x1a
 9590 062e 70       		.byte	0x70
 9591 062f 00       		.sleb128 0
 9592 0630 22       		.byte	0x22
 9593 0631 9F       		.byte	0x9f
 9594 0632 3A000000 		.4byte	.LVL125
 9595 0636 50000000 		.4byte	.LFE143
 9596 063a 0D00     		.2byte	0xd
 9597 063c F3       		.byte	0xf3
 9598 063d 01       		.uleb128 0x1
 9599 063e 51       		.byte	0x51
 9600 063f 31       		.byte	0x31
 9601 0640 25       		.byte	0x25
 9602 0641 0A       		.byte	0xa
 9603 0642 FFFF     		.2byte	0xffff
 9604 0644 1A       		.byte	0x1a
 9605 0645 70       		.byte	0x70
 9606 0646 00       		.sleb128 0
 9607 0647 22       		.byte	0x22
 9608 0648 9F       		.byte	0x9f
 9609 0649 00000000 		.4byte	0
 9610 064d 00000000 		.4byte	0
 9611              	.LLST28:
 9612 0651 00000000 		.4byte	.LVL119
 9613 0655 16000000 		.4byte	.LVL120
 9614 0659 0200     		.2byte	0x2
 9615 065b 30       		.byte	0x30
 9616 065c 9F       		.byte	0x9f
 9617 065d 16000000 		.4byte	.LVL120
 9618 0661 1A000000 		.4byte	.LVL122
 9619 0665 0500     		.2byte	0x5
 9620 0667 31       		.byte	0x31
 9621 0668 71       		.byte	0x71
 9622 0669 00       		.sleb128 0
 9623 066a 24       		.byte	0x24
 9624 066b 9F       		.byte	0x9f
 9625 066c 1A000000 		.4byte	.LVL122
 9626 0670 38000000 		.4byte	.LVL124
 9627 0674 0600     		.2byte	0x6
 9628 0676 31       		.byte	0x31
 9629 0677 F3       		.byte	0xf3
 9630 0678 01       		.uleb128 0x1
 9631 0679 51       		.byte	0x51
 9632 067a 24       		.byte	0x24
 9633 067b 9F       		.byte	0x9f
ARM GAS  /var/folders/m4/4md61f0s1_g0rzfghffqnxvr0000gn/T//ccSRVwbo.s 			page 170


 9634 067c 38000000 		.4byte	.LVL124
 9635 0680 3A000000 		.4byte	.LVL125
 9636 0684 0500     		.2byte	0x5
 9637 0686 31       		.byte	0x31
 9638 0687 71       		.byte	0x71
 9639 0688 00       		.sleb128 0
 9640 0689 24       		.byte	0x24
 9641 068a 9F       		.byte	0x9f
 9642 068b 3A000000 		.4byte	.LVL125
 9643 068f 50000000 		.4byte	.LFE143
 9644 0693 0600     		.2byte	0x6
 9645 0695 31       		.byte	0x31
 9646 0696 F3       		.byte	0xf3
 9647 0697 01       		.uleb128 0x1
 9648 0698 51       		.byte	0x51
 9649 0699 24       		.byte	0x24
 9650 069a 9F       		.byte	0x9f
 9651 069b 00000000 		.4byte	0
 9652 069f 00000000 		.4byte	0
 9653              	.LLST29:
 9654 06a3 00000000 		.4byte	.LVL131
 9655 06a7 0A000000 		.4byte	.LVL134
 9656 06ab 0100     		.2byte	0x1
 9657 06ad 51       		.byte	0x51
 9658 06ae 0A000000 		.4byte	.LVL134
 9659 06b2 0E000000 		.4byte	.LFE148
 9660 06b6 0400     		.2byte	0x4
 9661 06b8 F3       		.byte	0xf3
 9662 06b9 01       		.uleb128 0x1
 9663 06ba 51       		.byte	0x51
 9664 06bb 9F       		.byte	0x9f
 9665 06bc 00000000 		.4byte	0
 9666 06c0 00000000 		.4byte	0
 9667              	.LLST30:
 9668 06c4 00000000 		.4byte	.LVL131
 9669 06c8 02000000 		.4byte	.LVL132
 9670 06cc 0200     		.2byte	0x2
 9671 06ce 30       		.byte	0x30
 9672 06cf 9F       		.byte	0x9f
 9673 06d0 02000000 		.4byte	.LVL132
 9674 06d4 08000000 		.4byte	.LVL133
 9675 06d8 0100     		.2byte	0x1
 9676 06da 52       		.byte	0x52
 9677 06db 08000000 		.4byte	.LVL133
 9678 06df 0A000000 		.4byte	.LVL134
 9679 06e3 0600     		.2byte	0x6
 9680 06e5 71       		.byte	0x71
 9681 06e6 00       		.sleb128 0
 9682 06e7 73       		.byte	0x73
 9683 06e8 00       		.sleb128 0
 9684 06e9 21       		.byte	0x21
 9685 06ea 9F       		.byte	0x9f
 9686 06eb 0A000000 		.4byte	.LVL134
 9687 06ef 0E000000 		.4byte	.LFE148
 9688 06f3 0700     		.2byte	0x7
 9689 06f5 F3       		.byte	0xf3
 9690 06f6 01       		.uleb128 0x1
ARM GAS  /var/folders/m4/4md61f0s1_g0rzfghffqnxvr0000gn/T//ccSRVwbo.s 			page 171


 9691 06f7 51       		.byte	0x51
 9692 06f8 73       		.byte	0x73
 9693 06f9 00       		.sleb128 0
 9694 06fa 21       		.byte	0x21
 9695 06fb 9F       		.byte	0x9f
 9696 06fc 00000000 		.4byte	0
 9697 0700 00000000 		.4byte	0
 9698              	.LLST31:
 9699 0704 00000000 		.4byte	.LVL135
 9700 0708 0C000000 		.4byte	.LVL138
 9701 070c 0100     		.2byte	0x1
 9702 070e 51       		.byte	0x51
 9703 070f 0C000000 		.4byte	.LVL138
 9704 0713 12000000 		.4byte	.LFE149
 9705 0717 0400     		.2byte	0x4
 9706 0719 F3       		.byte	0xf3
 9707 071a 01       		.uleb128 0x1
 9708 071b 51       		.byte	0x51
 9709 071c 9F       		.byte	0x9f
 9710 071d 00000000 		.4byte	0
 9711 0721 00000000 		.4byte	0
 9712              	.LLST32:
 9713 0725 00000000 		.4byte	.LVL135
 9714 0729 02000000 		.4byte	.LVL136
 9715 072d 0200     		.2byte	0x2
 9716 072f 30       		.byte	0x30
 9717 0730 9F       		.byte	0x9f
 9718 0731 02000000 		.4byte	.LVL136
 9719 0735 08000000 		.4byte	.LVL137
 9720 0739 0100     		.2byte	0x1
 9721 073b 52       		.byte	0x52
 9722 073c 08000000 		.4byte	.LVL137
 9723 0740 0C000000 		.4byte	.LVL138
 9724 0744 0800     		.2byte	0x8
 9725 0746 71       		.byte	0x71
 9726 0747 00       		.sleb128 0
 9727 0748 38       		.byte	0x38
 9728 0749 24       		.byte	0x24
 9729 074a 73       		.byte	0x73
 9730 074b 00       		.sleb128 0
 9731 074c 21       		.byte	0x21
 9732 074d 9F       		.byte	0x9f
 9733 074e 0C000000 		.4byte	.LVL138
 9734 0752 12000000 		.4byte	.LFE149
 9735 0756 0900     		.2byte	0x9
 9736 0758 F3       		.byte	0xf3
 9737 0759 01       		.uleb128 0x1
 9738 075a 51       		.byte	0x51
 9739 075b 38       		.byte	0x38
 9740 075c 24       		.byte	0x24
 9741 075d 73       		.byte	0x73
 9742 075e 00       		.sleb128 0
 9743 075f 21       		.byte	0x21
 9744 0760 9F       		.byte	0x9f
 9745 0761 00000000 		.4byte	0
 9746 0765 00000000 		.4byte	0
 9747              	.LLST33:
ARM GAS  /var/folders/m4/4md61f0s1_g0rzfghffqnxvr0000gn/T//ccSRVwbo.s 			page 172


 9748 0769 00000000 		.4byte	.LVL139
 9749 076d 0A000000 		.4byte	.LVL142
 9750 0771 0100     		.2byte	0x1
 9751 0773 51       		.byte	0x51
 9752 0774 0A000000 		.4byte	.LVL142
 9753 0778 0E000000 		.4byte	.LFE150
 9754 077c 0400     		.2byte	0x4
 9755 077e F3       		.byte	0xf3
 9756 077f 01       		.uleb128 0x1
 9757 0780 51       		.byte	0x51
 9758 0781 9F       		.byte	0x9f
 9759 0782 00000000 		.4byte	0
 9760 0786 00000000 		.4byte	0
 9761              	.LLST34:
 9762 078a 00000000 		.4byte	.LVL139
 9763 078e 02000000 		.4byte	.LVL140
 9764 0792 0200     		.2byte	0x2
 9765 0794 30       		.byte	0x30
 9766 0795 9F       		.byte	0x9f
 9767 0796 02000000 		.4byte	.LVL140
 9768 079a 08000000 		.4byte	.LVL141
 9769 079e 0100     		.2byte	0x1
 9770 07a0 52       		.byte	0x52
 9771 07a1 08000000 		.4byte	.LVL141
 9772 07a5 0A000000 		.4byte	.LVL142
 9773 07a9 0600     		.2byte	0x6
 9774 07ab 71       		.byte	0x71
 9775 07ac 00       		.sleb128 0
 9776 07ad 73       		.byte	0x73
 9777 07ae 00       		.sleb128 0
 9778 07af 21       		.byte	0x21
 9779 07b0 9F       		.byte	0x9f
 9780 07b1 0A000000 		.4byte	.LVL142
 9781 07b5 0E000000 		.4byte	.LFE150
 9782 07b9 0700     		.2byte	0x7
 9783 07bb F3       		.byte	0xf3
 9784 07bc 01       		.uleb128 0x1
 9785 07bd 51       		.byte	0x51
 9786 07be 73       		.byte	0x73
 9787 07bf 00       		.sleb128 0
 9788 07c0 21       		.byte	0x21
 9789 07c1 9F       		.byte	0x9f
 9790 07c2 00000000 		.4byte	0
 9791 07c6 00000000 		.4byte	0
 9792              	.LLST35:
 9793 07ca 00000000 		.4byte	.LVL143
 9794 07ce 0C000000 		.4byte	.LVL146
 9795 07d2 0100     		.2byte	0x1
 9796 07d4 51       		.byte	0x51
 9797 07d5 0C000000 		.4byte	.LVL146
 9798 07d9 12000000 		.4byte	.LFE151
 9799 07dd 0400     		.2byte	0x4
 9800 07df F3       		.byte	0xf3
 9801 07e0 01       		.uleb128 0x1
 9802 07e1 51       		.byte	0x51
 9803 07e2 9F       		.byte	0x9f
 9804 07e3 00000000 		.4byte	0
ARM GAS  /var/folders/m4/4md61f0s1_g0rzfghffqnxvr0000gn/T//ccSRVwbo.s 			page 173


 9805 07e7 00000000 		.4byte	0
 9806              	.LLST36:
 9807 07eb 00000000 		.4byte	.LVL143
 9808 07ef 02000000 		.4byte	.LVL144
 9809 07f3 0200     		.2byte	0x2
 9810 07f5 30       		.byte	0x30
 9811 07f6 9F       		.byte	0x9f
 9812 07f7 02000000 		.4byte	.LVL144
 9813 07fb 08000000 		.4byte	.LVL145
 9814 07ff 0100     		.2byte	0x1
 9815 0801 52       		.byte	0x52
 9816 0802 08000000 		.4byte	.LVL145
 9817 0806 0C000000 		.4byte	.LVL146
 9818 080a 0800     		.2byte	0x8
 9819 080c 71       		.byte	0x71
 9820 080d 00       		.sleb128 0
 9821 080e 38       		.byte	0x38
 9822 080f 24       		.byte	0x24
 9823 0810 73       		.byte	0x73
 9824 0811 00       		.sleb128 0
 9825 0812 21       		.byte	0x21
 9826 0813 9F       		.byte	0x9f
 9827 0814 0C000000 		.4byte	.LVL146
 9828 0818 12000000 		.4byte	.LFE151
 9829 081c 0900     		.2byte	0x9
 9830 081e F3       		.byte	0xf3
 9831 081f 01       		.uleb128 0x1
 9832 0820 51       		.byte	0x51
 9833 0821 38       		.byte	0x38
 9834 0822 24       		.byte	0x24
 9835 0823 73       		.byte	0x73
 9836 0824 00       		.sleb128 0
 9837 0825 21       		.byte	0x21
 9838 0826 9F       		.byte	0x9f
 9839 0827 00000000 		.4byte	0
 9840 082b 00000000 		.4byte	0
 9841              	.LLST37:
 9842 082f 00000000 		.4byte	.LVL147
 9843 0833 0A000000 		.4byte	.LVL150
 9844 0837 0100     		.2byte	0x1
 9845 0839 51       		.byte	0x51
 9846 083a 0A000000 		.4byte	.LVL150
 9847 083e 0E000000 		.4byte	.LFE152
 9848 0842 0400     		.2byte	0x4
 9849 0844 F3       		.byte	0xf3
 9850 0845 01       		.uleb128 0x1
 9851 0846 51       		.byte	0x51
 9852 0847 9F       		.byte	0x9f
 9853 0848 00000000 		.4byte	0
 9854 084c 00000000 		.4byte	0
 9855              	.LLST38:
 9856 0850 00000000 		.4byte	.LVL147
 9857 0854 02000000 		.4byte	.LVL148
 9858 0858 0200     		.2byte	0x2
 9859 085a 30       		.byte	0x30
 9860 085b 9F       		.byte	0x9f
 9861 085c 02000000 		.4byte	.LVL148
ARM GAS  /var/folders/m4/4md61f0s1_g0rzfghffqnxvr0000gn/T//ccSRVwbo.s 			page 174


 9862 0860 08000000 		.4byte	.LVL149
 9863 0864 0100     		.2byte	0x1
 9864 0866 52       		.byte	0x52
 9865 0867 08000000 		.4byte	.LVL149
 9866 086b 0A000000 		.4byte	.LVL150
 9867 086f 0600     		.2byte	0x6
 9868 0871 71       		.byte	0x71
 9869 0872 00       		.sleb128 0
 9870 0873 73       		.byte	0x73
 9871 0874 00       		.sleb128 0
 9872 0875 21       		.byte	0x21
 9873 0876 9F       		.byte	0x9f
 9874 0877 0A000000 		.4byte	.LVL150
 9875 087b 0E000000 		.4byte	.LFE152
 9876 087f 0700     		.2byte	0x7
 9877 0881 F3       		.byte	0xf3
 9878 0882 01       		.uleb128 0x1
 9879 0883 51       		.byte	0x51
 9880 0884 73       		.byte	0x73
 9881 0885 00       		.sleb128 0
 9882 0886 21       		.byte	0x21
 9883 0887 9F       		.byte	0x9f
 9884 0888 00000000 		.4byte	0
 9885 088c 00000000 		.4byte	0
 9886              	.LLST39:
 9887 0890 00000000 		.4byte	.LVL151
 9888 0894 0C000000 		.4byte	.LVL154
 9889 0898 0100     		.2byte	0x1
 9890 089a 51       		.byte	0x51
 9891 089b 0C000000 		.4byte	.LVL154
 9892 089f 12000000 		.4byte	.LFE153
 9893 08a3 0400     		.2byte	0x4
 9894 08a5 F3       		.byte	0xf3
 9895 08a6 01       		.uleb128 0x1
 9896 08a7 51       		.byte	0x51
 9897 08a8 9F       		.byte	0x9f
 9898 08a9 00000000 		.4byte	0
 9899 08ad 00000000 		.4byte	0
 9900              	.LLST40:
 9901 08b1 00000000 		.4byte	.LVL151
 9902 08b5 02000000 		.4byte	.LVL152
 9903 08b9 0200     		.2byte	0x2
 9904 08bb 30       		.byte	0x30
 9905 08bc 9F       		.byte	0x9f
 9906 08bd 02000000 		.4byte	.LVL152
 9907 08c1 08000000 		.4byte	.LVL153
 9908 08c5 0100     		.2byte	0x1
 9909 08c7 52       		.byte	0x52
 9910 08c8 08000000 		.4byte	.LVL153
 9911 08cc 0C000000 		.4byte	.LVL154
 9912 08d0 0800     		.2byte	0x8
 9913 08d2 71       		.byte	0x71
 9914 08d3 00       		.sleb128 0
 9915 08d4 38       		.byte	0x38
 9916 08d5 24       		.byte	0x24
 9917 08d6 73       		.byte	0x73
 9918 08d7 00       		.sleb128 0
ARM GAS  /var/folders/m4/4md61f0s1_g0rzfghffqnxvr0000gn/T//ccSRVwbo.s 			page 175


 9919 08d8 21       		.byte	0x21
 9920 08d9 9F       		.byte	0x9f
 9921 08da 0C000000 		.4byte	.LVL154
 9922 08de 12000000 		.4byte	.LFE153
 9923 08e2 0900     		.2byte	0x9
 9924 08e4 F3       		.byte	0xf3
 9925 08e5 01       		.uleb128 0x1
 9926 08e6 51       		.byte	0x51
 9927 08e7 38       		.byte	0x38
 9928 08e8 24       		.byte	0x24
 9929 08e9 73       		.byte	0x73
 9930 08ea 00       		.sleb128 0
 9931 08eb 21       		.byte	0x21
 9932 08ec 9F       		.byte	0x9f
 9933 08ed 00000000 		.4byte	0
 9934 08f1 00000000 		.4byte	0
 9935              	.LLST41:
 9936 08f5 00000000 		.4byte	.LVL155
 9937 08f9 0A000000 		.4byte	.LVL158
 9938 08fd 0100     		.2byte	0x1
 9939 08ff 51       		.byte	0x51
 9940 0900 0A000000 		.4byte	.LVL158
 9941 0904 0E000000 		.4byte	.LFE154
 9942 0908 0400     		.2byte	0x4
 9943 090a F3       		.byte	0xf3
 9944 090b 01       		.uleb128 0x1
 9945 090c 51       		.byte	0x51
 9946 090d 9F       		.byte	0x9f
 9947 090e 00000000 		.4byte	0
 9948 0912 00000000 		.4byte	0
 9949              	.LLST42:
 9950 0916 00000000 		.4byte	.LVL155
 9951 091a 02000000 		.4byte	.LVL156
 9952 091e 0200     		.2byte	0x2
 9953 0920 30       		.byte	0x30
 9954 0921 9F       		.byte	0x9f
 9955 0922 02000000 		.4byte	.LVL156
 9956 0926 08000000 		.4byte	.LVL157
 9957 092a 0100     		.2byte	0x1
 9958 092c 52       		.byte	0x52
 9959 092d 08000000 		.4byte	.LVL157
 9960 0931 0A000000 		.4byte	.LVL158
 9961 0935 0600     		.2byte	0x6
 9962 0937 71       		.byte	0x71
 9963 0938 00       		.sleb128 0
 9964 0939 73       		.byte	0x73
 9965 093a 00       		.sleb128 0
 9966 093b 21       		.byte	0x21
 9967 093c 9F       		.byte	0x9f
 9968 093d 0A000000 		.4byte	.LVL158
 9969 0941 0E000000 		.4byte	.LFE154
 9970 0945 0700     		.2byte	0x7
 9971 0947 F3       		.byte	0xf3
 9972 0948 01       		.uleb128 0x1
 9973 0949 51       		.byte	0x51
 9974 094a 73       		.byte	0x73
 9975 094b 00       		.sleb128 0
ARM GAS  /var/folders/m4/4md61f0s1_g0rzfghffqnxvr0000gn/T//ccSRVwbo.s 			page 176


 9976 094c 21       		.byte	0x21
 9977 094d 9F       		.byte	0x9f
 9978 094e 00000000 		.4byte	0
 9979 0952 00000000 		.4byte	0
 9980              	.LLST43:
 9981 0956 00000000 		.4byte	.LVL159
 9982 095a 0C000000 		.4byte	.LVL162
 9983 095e 0100     		.2byte	0x1
 9984 0960 51       		.byte	0x51
 9985 0961 0C000000 		.4byte	.LVL162
 9986 0965 12000000 		.4byte	.LFE155
 9987 0969 0400     		.2byte	0x4
 9988 096b F3       		.byte	0xf3
 9989 096c 01       		.uleb128 0x1
 9990 096d 51       		.byte	0x51
 9991 096e 9F       		.byte	0x9f
 9992 096f 00000000 		.4byte	0
 9993 0973 00000000 		.4byte	0
 9994              	.LLST44:
 9995 0977 00000000 		.4byte	.LVL159
 9996 097b 02000000 		.4byte	.LVL160
 9997 097f 0200     		.2byte	0x2
 9998 0981 30       		.byte	0x30
 9999 0982 9F       		.byte	0x9f
 10000 0983 02000000 		.4byte	.LVL160
 10001 0987 08000000 		.4byte	.LVL161
 10002 098b 0100     		.2byte	0x1
 10003 098d 52       		.byte	0x52
 10004 098e 08000000 		.4byte	.LVL161
 10005 0992 0C000000 		.4byte	.LVL162
 10006 0996 0800     		.2byte	0x8
 10007 0998 71       		.byte	0x71
 10008 0999 00       		.sleb128 0
 10009 099a 38       		.byte	0x38
 10010 099b 24       		.byte	0x24
 10011 099c 73       		.byte	0x73
 10012 099d 00       		.sleb128 0
 10013 099e 21       		.byte	0x21
 10014 099f 9F       		.byte	0x9f
 10015 09a0 0C000000 		.4byte	.LVL162
 10016 09a4 12000000 		.4byte	.LFE155
 10017 09a8 0900     		.2byte	0x9
 10018 09aa F3       		.byte	0xf3
 10019 09ab 01       		.uleb128 0x1
 10020 09ac 51       		.byte	0x51
 10021 09ad 38       		.byte	0x38
 10022 09ae 24       		.byte	0x24
 10023 09af 73       		.byte	0x73
 10024 09b0 00       		.sleb128 0
 10025 09b1 21       		.byte	0x21
 10026 09b2 9F       		.byte	0x9f
 10027 09b3 00000000 		.4byte	0
 10028 09b7 00000000 		.4byte	0
 10029              	.LLST45:
 10030 09bb 00000000 		.4byte	.LVL163
 10031 09bf 0A000000 		.4byte	.LVL166
 10032 09c3 0100     		.2byte	0x1
ARM GAS  /var/folders/m4/4md61f0s1_g0rzfghffqnxvr0000gn/T//ccSRVwbo.s 			page 177


 10033 09c5 51       		.byte	0x51
 10034 09c6 0A000000 		.4byte	.LVL166
 10035 09ca 0E000000 		.4byte	.LFE156
 10036 09ce 0400     		.2byte	0x4
 10037 09d0 F3       		.byte	0xf3
 10038 09d1 01       		.uleb128 0x1
 10039 09d2 51       		.byte	0x51
 10040 09d3 9F       		.byte	0x9f
 10041 09d4 00000000 		.4byte	0
 10042 09d8 00000000 		.4byte	0
 10043              	.LLST46:
 10044 09dc 00000000 		.4byte	.LVL163
 10045 09e0 02000000 		.4byte	.LVL164
 10046 09e4 0200     		.2byte	0x2
 10047 09e6 30       		.byte	0x30
 10048 09e7 9F       		.byte	0x9f
 10049 09e8 02000000 		.4byte	.LVL164
 10050 09ec 08000000 		.4byte	.LVL165
 10051 09f0 0100     		.2byte	0x1
 10052 09f2 52       		.byte	0x52
 10053 09f3 08000000 		.4byte	.LVL165
 10054 09f7 0A000000 		.4byte	.LVL166
 10055 09fb 0600     		.2byte	0x6
 10056 09fd 71       		.byte	0x71
 10057 09fe 00       		.sleb128 0
 10058 09ff 73       		.byte	0x73
 10059 0a00 00       		.sleb128 0
 10060 0a01 21       		.byte	0x21
 10061 0a02 9F       		.byte	0x9f
 10062 0a03 0A000000 		.4byte	.LVL166
 10063 0a07 0E000000 		.4byte	.LFE156
 10064 0a0b 0700     		.2byte	0x7
 10065 0a0d F3       		.byte	0xf3
 10066 0a0e 01       		.uleb128 0x1
 10067 0a0f 51       		.byte	0x51
 10068 0a10 73       		.byte	0x73
 10069 0a11 00       		.sleb128 0
 10070 0a12 21       		.byte	0x21
 10071 0a13 9F       		.byte	0x9f
 10072 0a14 00000000 		.4byte	0
 10073 0a18 00000000 		.4byte	0
 10074              	.LLST47:
 10075 0a1c 00000000 		.4byte	.LVL167
 10076 0a20 0C000000 		.4byte	.LVL170
 10077 0a24 0100     		.2byte	0x1
 10078 0a26 51       		.byte	0x51
 10079 0a27 0C000000 		.4byte	.LVL170
 10080 0a2b 12000000 		.4byte	.LFE157
 10081 0a2f 0400     		.2byte	0x4
 10082 0a31 F3       		.byte	0xf3
 10083 0a32 01       		.uleb128 0x1
 10084 0a33 51       		.byte	0x51
 10085 0a34 9F       		.byte	0x9f
 10086 0a35 00000000 		.4byte	0
 10087 0a39 00000000 		.4byte	0
 10088              	.LLST48:
 10089 0a3d 00000000 		.4byte	.LVL167
ARM GAS  /var/folders/m4/4md61f0s1_g0rzfghffqnxvr0000gn/T//ccSRVwbo.s 			page 178


 10090 0a41 02000000 		.4byte	.LVL168
 10091 0a45 0200     		.2byte	0x2
 10092 0a47 30       		.byte	0x30
 10093 0a48 9F       		.byte	0x9f
 10094 0a49 02000000 		.4byte	.LVL168
 10095 0a4d 08000000 		.4byte	.LVL169
 10096 0a51 0100     		.2byte	0x1
 10097 0a53 52       		.byte	0x52
 10098 0a54 08000000 		.4byte	.LVL169
 10099 0a58 0C000000 		.4byte	.LVL170
 10100 0a5c 0800     		.2byte	0x8
 10101 0a5e 71       		.byte	0x71
 10102 0a5f 00       		.sleb128 0
 10103 0a60 38       		.byte	0x38
 10104 0a61 24       		.byte	0x24
 10105 0a62 73       		.byte	0x73
 10106 0a63 00       		.sleb128 0
 10107 0a64 21       		.byte	0x21
 10108 0a65 9F       		.byte	0x9f
 10109 0a66 0C000000 		.4byte	.LVL170
 10110 0a6a 12000000 		.4byte	.LFE157
 10111 0a6e 0900     		.2byte	0x9
 10112 0a70 F3       		.byte	0xf3
 10113 0a71 01       		.uleb128 0x1
 10114 0a72 51       		.byte	0x51
 10115 0a73 38       		.byte	0x38
 10116 0a74 24       		.byte	0x24
 10117 0a75 73       		.byte	0x73
 10118 0a76 00       		.sleb128 0
 10119 0a77 21       		.byte	0x21
 10120 0a78 9F       		.byte	0x9f
 10121 0a79 00000000 		.4byte	0
 10122 0a7d 00000000 		.4byte	0
 10123              	.LLST49:
 10124 0a81 00000000 		.4byte	.LVL171
 10125 0a85 0A000000 		.4byte	.LVL174
 10126 0a89 0100     		.2byte	0x1
 10127 0a8b 51       		.byte	0x51
 10128 0a8c 0A000000 		.4byte	.LVL174
 10129 0a90 0E000000 		.4byte	.LFE158
 10130 0a94 0400     		.2byte	0x4
 10131 0a96 F3       		.byte	0xf3
 10132 0a97 01       		.uleb128 0x1
 10133 0a98 51       		.byte	0x51
 10134 0a99 9F       		.byte	0x9f
 10135 0a9a 00000000 		.4byte	0
 10136 0a9e 00000000 		.4byte	0
 10137              	.LLST50:
 10138 0aa2 00000000 		.4byte	.LVL171
 10139 0aa6 02000000 		.4byte	.LVL172
 10140 0aaa 0200     		.2byte	0x2
 10141 0aac 30       		.byte	0x30
 10142 0aad 9F       		.byte	0x9f
 10143 0aae 02000000 		.4byte	.LVL172
 10144 0ab2 08000000 		.4byte	.LVL173
 10145 0ab6 0100     		.2byte	0x1
 10146 0ab8 52       		.byte	0x52
ARM GAS  /var/folders/m4/4md61f0s1_g0rzfghffqnxvr0000gn/T//ccSRVwbo.s 			page 179


 10147 0ab9 08000000 		.4byte	.LVL173
 10148 0abd 0A000000 		.4byte	.LVL174
 10149 0ac1 0600     		.2byte	0x6
 10150 0ac3 71       		.byte	0x71
 10151 0ac4 00       		.sleb128 0
 10152 0ac5 73       		.byte	0x73
 10153 0ac6 00       		.sleb128 0
 10154 0ac7 21       		.byte	0x21
 10155 0ac8 9F       		.byte	0x9f
 10156 0ac9 0A000000 		.4byte	.LVL174
 10157 0acd 0E000000 		.4byte	.LFE158
 10158 0ad1 0700     		.2byte	0x7
 10159 0ad3 F3       		.byte	0xf3
 10160 0ad4 01       		.uleb128 0x1
 10161 0ad5 51       		.byte	0x51
 10162 0ad6 73       		.byte	0x73
 10163 0ad7 00       		.sleb128 0
 10164 0ad8 21       		.byte	0x21
 10165 0ad9 9F       		.byte	0x9f
 10166 0ada 00000000 		.4byte	0
 10167 0ade 00000000 		.4byte	0
 10168              	.LLST51:
 10169 0ae2 00000000 		.4byte	.LVL175
 10170 0ae6 0C000000 		.4byte	.LVL178
 10171 0aea 0100     		.2byte	0x1
 10172 0aec 51       		.byte	0x51
 10173 0aed 0C000000 		.4byte	.LVL178
 10174 0af1 12000000 		.4byte	.LFE159
 10175 0af5 0400     		.2byte	0x4
 10176 0af7 F3       		.byte	0xf3
 10177 0af8 01       		.uleb128 0x1
 10178 0af9 51       		.byte	0x51
 10179 0afa 9F       		.byte	0x9f
 10180 0afb 00000000 		.4byte	0
 10181 0aff 00000000 		.4byte	0
 10182              	.LLST52:
 10183 0b03 00000000 		.4byte	.LVL175
 10184 0b07 02000000 		.4byte	.LVL176
 10185 0b0b 0200     		.2byte	0x2
 10186 0b0d 30       		.byte	0x30
 10187 0b0e 9F       		.byte	0x9f
 10188 0b0f 02000000 		.4byte	.LVL176
 10189 0b13 08000000 		.4byte	.LVL177
 10190 0b17 0100     		.2byte	0x1
 10191 0b19 52       		.byte	0x52
 10192 0b1a 08000000 		.4byte	.LVL177
 10193 0b1e 0C000000 		.4byte	.LVL178
 10194 0b22 0800     		.2byte	0x8
 10195 0b24 71       		.byte	0x71
 10196 0b25 00       		.sleb128 0
 10197 0b26 38       		.byte	0x38
 10198 0b27 24       		.byte	0x24
 10199 0b28 73       		.byte	0x73
 10200 0b29 00       		.sleb128 0
 10201 0b2a 21       		.byte	0x21
 10202 0b2b 9F       		.byte	0x9f
 10203 0b2c 0C000000 		.4byte	.LVL178
ARM GAS  /var/folders/m4/4md61f0s1_g0rzfghffqnxvr0000gn/T//ccSRVwbo.s 			page 180


 10204 0b30 12000000 		.4byte	.LFE159
 10205 0b34 0900     		.2byte	0x9
 10206 0b36 F3       		.byte	0xf3
 10207 0b37 01       		.uleb128 0x1
 10208 0b38 51       		.byte	0x51
 10209 0b39 38       		.byte	0x38
 10210 0b3a 24       		.byte	0x24
 10211 0b3b 73       		.byte	0x73
 10212 0b3c 00       		.sleb128 0
 10213 0b3d 21       		.byte	0x21
 10214 0b3e 9F       		.byte	0x9f
 10215 0b3f 00000000 		.4byte	0
 10216 0b43 00000000 		.4byte	0
 10217              	.LLST53:
 10218 0b47 00000000 		.4byte	.LVL179
 10219 0b4b 0A000000 		.4byte	.LVL182
 10220 0b4f 0100     		.2byte	0x1
 10221 0b51 51       		.byte	0x51
 10222 0b52 0A000000 		.4byte	.LVL182
 10223 0b56 0E000000 		.4byte	.LFE160
 10224 0b5a 0400     		.2byte	0x4
 10225 0b5c F3       		.byte	0xf3
 10226 0b5d 01       		.uleb128 0x1
 10227 0b5e 51       		.byte	0x51
 10228 0b5f 9F       		.byte	0x9f
 10229 0b60 00000000 		.4byte	0
 10230 0b64 00000000 		.4byte	0
 10231              	.LLST54:
 10232 0b68 00000000 		.4byte	.LVL179
 10233 0b6c 02000000 		.4byte	.LVL180
 10234 0b70 0200     		.2byte	0x2
 10235 0b72 30       		.byte	0x30
 10236 0b73 9F       		.byte	0x9f
 10237 0b74 02000000 		.4byte	.LVL180
 10238 0b78 08000000 		.4byte	.LVL181
 10239 0b7c 0100     		.2byte	0x1
 10240 0b7e 52       		.byte	0x52
 10241 0b7f 08000000 		.4byte	.LVL181
 10242 0b83 0A000000 		.4byte	.LVL182
 10243 0b87 0600     		.2byte	0x6
 10244 0b89 71       		.byte	0x71
 10245 0b8a 00       		.sleb128 0
 10246 0b8b 73       		.byte	0x73
 10247 0b8c 00       		.sleb128 0
 10248 0b8d 21       		.byte	0x21
 10249 0b8e 9F       		.byte	0x9f
 10250 0b8f 0A000000 		.4byte	.LVL182
 10251 0b93 0E000000 		.4byte	.LFE160
 10252 0b97 0700     		.2byte	0x7
 10253 0b99 F3       		.byte	0xf3
 10254 0b9a 01       		.uleb128 0x1
 10255 0b9b 51       		.byte	0x51
 10256 0b9c 73       		.byte	0x73
 10257 0b9d 00       		.sleb128 0
 10258 0b9e 21       		.byte	0x21
 10259 0b9f 9F       		.byte	0x9f
 10260 0ba0 00000000 		.4byte	0
ARM GAS  /var/folders/m4/4md61f0s1_g0rzfghffqnxvr0000gn/T//ccSRVwbo.s 			page 181


 10261 0ba4 00000000 		.4byte	0
 10262              	.LLST55:
 10263 0ba8 00000000 		.4byte	.LVL183
 10264 0bac 0A000000 		.4byte	.LVL186
 10265 0bb0 0100     		.2byte	0x1
 10266 0bb2 51       		.byte	0x51
 10267 0bb3 0A000000 		.4byte	.LVL186
 10268 0bb7 10000000 		.4byte	.LFE161
 10269 0bbb 0400     		.2byte	0x4
 10270 0bbd F3       		.byte	0xf3
 10271 0bbe 01       		.uleb128 0x1
 10272 0bbf 51       		.byte	0x51
 10273 0bc0 9F       		.byte	0x9f
 10274 0bc1 00000000 		.4byte	0
 10275 0bc5 00000000 		.4byte	0
 10276              	.LLST56:
 10277 0bc9 00000000 		.4byte	.LVL183
 10278 0bcd 02000000 		.4byte	.LVL184
 10279 0bd1 0200     		.2byte	0x2
 10280 0bd3 30       		.byte	0x30
 10281 0bd4 9F       		.byte	0x9f
 10282 0bd5 02000000 		.4byte	.LVL184
 10283 0bd9 06000000 		.4byte	.LVL185
 10284 0bdd 0100     		.2byte	0x1
 10285 0bdf 53       		.byte	0x53
 10286 0be0 06000000 		.4byte	.LVL185
 10287 0be4 0A000000 		.4byte	.LVL186
 10288 0be8 0800     		.2byte	0x8
 10289 0bea 71       		.byte	0x71
 10290 0beb 00       		.sleb128 0
 10291 0bec 38       		.byte	0x38
 10292 0bed 24       		.byte	0x24
 10293 0bee 73       		.byte	0x73
 10294 0bef 00       		.sleb128 0
 10295 0bf0 21       		.byte	0x21
 10296 0bf1 9F       		.byte	0x9f
 10297 0bf2 0A000000 		.4byte	.LVL186
 10298 0bf6 10000000 		.4byte	.LFE161
 10299 0bfa 0900     		.2byte	0x9
 10300 0bfc F3       		.byte	0xf3
 10301 0bfd 01       		.uleb128 0x1
 10302 0bfe 51       		.byte	0x51
 10303 0bff 38       		.byte	0x38
 10304 0c00 24       		.byte	0x24
 10305 0c01 73       		.byte	0x73
 10306 0c02 00       		.sleb128 0
 10307 0c03 21       		.byte	0x21
 10308 0c04 9F       		.byte	0x9f
 10309 0c05 00000000 		.4byte	0
 10310 0c09 00000000 		.4byte	0
 10311              	.LLST57:
 10312 0c0d 00000000 		.4byte	.LVL187
 10313 0c11 0A000000 		.4byte	.LVL190
 10314 0c15 0100     		.2byte	0x1
 10315 0c17 51       		.byte	0x51
 10316 0c18 0A000000 		.4byte	.LVL190
 10317 0c1c 0E000000 		.4byte	.LFE162
ARM GAS  /var/folders/m4/4md61f0s1_g0rzfghffqnxvr0000gn/T//ccSRVwbo.s 			page 182


 10318 0c20 0400     		.2byte	0x4
 10319 0c22 F3       		.byte	0xf3
 10320 0c23 01       		.uleb128 0x1
 10321 0c24 51       		.byte	0x51
 10322 0c25 9F       		.byte	0x9f
 10323 0c26 00000000 		.4byte	0
 10324 0c2a 00000000 		.4byte	0
 10325              	.LLST58:
 10326 0c2e 00000000 		.4byte	.LVL187
 10327 0c32 02000000 		.4byte	.LVL188
 10328 0c36 0200     		.2byte	0x2
 10329 0c38 30       		.byte	0x30
 10330 0c39 9F       		.byte	0x9f
 10331 0c3a 02000000 		.4byte	.LVL188
 10332 0c3e 08000000 		.4byte	.LVL189
 10333 0c42 0100     		.2byte	0x1
 10334 0c44 52       		.byte	0x52
 10335 0c45 08000000 		.4byte	.LVL189
 10336 0c49 0A000000 		.4byte	.LVL190
 10337 0c4d 0600     		.2byte	0x6
 10338 0c4f 71       		.byte	0x71
 10339 0c50 00       		.sleb128 0
 10340 0c51 73       		.byte	0x73
 10341 0c52 00       		.sleb128 0
 10342 0c53 21       		.byte	0x21
 10343 0c54 9F       		.byte	0x9f
 10344 0c55 0A000000 		.4byte	.LVL190
 10345 0c59 0E000000 		.4byte	.LFE162
 10346 0c5d 0700     		.2byte	0x7
 10347 0c5f F3       		.byte	0xf3
 10348 0c60 01       		.uleb128 0x1
 10349 0c61 51       		.byte	0x51
 10350 0c62 73       		.byte	0x73
 10351 0c63 00       		.sleb128 0
 10352 0c64 21       		.byte	0x21
 10353 0c65 9F       		.byte	0x9f
 10354 0c66 00000000 		.4byte	0
 10355 0c6a 00000000 		.4byte	0
 10356              	.LLST59:
 10357 0c6e 00000000 		.4byte	.LVL191
 10358 0c72 0A000000 		.4byte	.LVL194
 10359 0c76 0100     		.2byte	0x1
 10360 0c78 51       		.byte	0x51
 10361 0c79 0A000000 		.4byte	.LVL194
 10362 0c7d 10000000 		.4byte	.LFE163
 10363 0c81 0400     		.2byte	0x4
 10364 0c83 F3       		.byte	0xf3
 10365 0c84 01       		.uleb128 0x1
 10366 0c85 51       		.byte	0x51
 10367 0c86 9F       		.byte	0x9f
 10368 0c87 00000000 		.4byte	0
 10369 0c8b 00000000 		.4byte	0
 10370              	.LLST60:
 10371 0c8f 00000000 		.4byte	.LVL191
 10372 0c93 02000000 		.4byte	.LVL192
 10373 0c97 0200     		.2byte	0x2
 10374 0c99 30       		.byte	0x30
ARM GAS  /var/folders/m4/4md61f0s1_g0rzfghffqnxvr0000gn/T//ccSRVwbo.s 			page 183


 10375 0c9a 9F       		.byte	0x9f
 10376 0c9b 02000000 		.4byte	.LVL192
 10377 0c9f 06000000 		.4byte	.LVL193
 10378 0ca3 0100     		.2byte	0x1
 10379 0ca5 53       		.byte	0x53
 10380 0ca6 06000000 		.4byte	.LVL193
 10381 0caa 0A000000 		.4byte	.LVL194
 10382 0cae 0800     		.2byte	0x8
 10383 0cb0 71       		.byte	0x71
 10384 0cb1 00       		.sleb128 0
 10385 0cb2 38       		.byte	0x38
 10386 0cb3 24       		.byte	0x24
 10387 0cb4 73       		.byte	0x73
 10388 0cb5 00       		.sleb128 0
 10389 0cb6 21       		.byte	0x21
 10390 0cb7 9F       		.byte	0x9f
 10391 0cb8 0A000000 		.4byte	.LVL194
 10392 0cbc 10000000 		.4byte	.LFE163
 10393 0cc0 0900     		.2byte	0x9
 10394 0cc2 F3       		.byte	0xf3
 10395 0cc3 01       		.uleb128 0x1
 10396 0cc4 51       		.byte	0x51
 10397 0cc5 38       		.byte	0x38
 10398 0cc6 24       		.byte	0x24
 10399 0cc7 73       		.byte	0x73
 10400 0cc8 00       		.sleb128 0
 10401 0cc9 21       		.byte	0x21
 10402 0cca 9F       		.byte	0x9f
 10403 0ccb 00000000 		.4byte	0
 10404 0ccf 00000000 		.4byte	0
 10405              	.LLST61:
 10406 0cd3 00000000 		.4byte	.LVL195
 10407 0cd7 0A000000 		.4byte	.LVL198
 10408 0cdb 0100     		.2byte	0x1
 10409 0cdd 51       		.byte	0x51
 10410 0cde 0A000000 		.4byte	.LVL198
 10411 0ce2 0E000000 		.4byte	.LFE164
 10412 0ce6 0400     		.2byte	0x4
 10413 0ce8 F3       		.byte	0xf3
 10414 0ce9 01       		.uleb128 0x1
 10415 0cea 51       		.byte	0x51
 10416 0ceb 9F       		.byte	0x9f
 10417 0cec 00000000 		.4byte	0
 10418 0cf0 00000000 		.4byte	0
 10419              	.LLST62:
 10420 0cf4 00000000 		.4byte	.LVL195
 10421 0cf8 02000000 		.4byte	.LVL196
 10422 0cfc 0200     		.2byte	0x2
 10423 0cfe 30       		.byte	0x30
 10424 0cff 9F       		.byte	0x9f
 10425 0d00 02000000 		.4byte	.LVL196
 10426 0d04 08000000 		.4byte	.LVL197
 10427 0d08 0100     		.2byte	0x1
 10428 0d0a 52       		.byte	0x52
 10429 0d0b 08000000 		.4byte	.LVL197
 10430 0d0f 0A000000 		.4byte	.LVL198
 10431 0d13 0600     		.2byte	0x6
ARM GAS  /var/folders/m4/4md61f0s1_g0rzfghffqnxvr0000gn/T//ccSRVwbo.s 			page 184


 10432 0d15 71       		.byte	0x71
 10433 0d16 00       		.sleb128 0
 10434 0d17 73       		.byte	0x73
 10435 0d18 00       		.sleb128 0
 10436 0d19 21       		.byte	0x21
 10437 0d1a 9F       		.byte	0x9f
 10438 0d1b 0A000000 		.4byte	.LVL198
 10439 0d1f 0E000000 		.4byte	.LFE164
 10440 0d23 0700     		.2byte	0x7
 10441 0d25 F3       		.byte	0xf3
 10442 0d26 01       		.uleb128 0x1
 10443 0d27 51       		.byte	0x51
 10444 0d28 73       		.byte	0x73
 10445 0d29 00       		.sleb128 0
 10446 0d2a 21       		.byte	0x21
 10447 0d2b 9F       		.byte	0x9f
 10448 0d2c 00000000 		.4byte	0
 10449 0d30 00000000 		.4byte	0
 10450              	.LLST63:
 10451 0d34 00000000 		.4byte	.LVL199
 10452 0d38 0A000000 		.4byte	.LVL202
 10453 0d3c 0100     		.2byte	0x1
 10454 0d3e 51       		.byte	0x51
 10455 0d3f 0A000000 		.4byte	.LVL202
 10456 0d43 0E000000 		.4byte	.LFE165
 10457 0d47 0400     		.2byte	0x4
 10458 0d49 F3       		.byte	0xf3
 10459 0d4a 01       		.uleb128 0x1
 10460 0d4b 51       		.byte	0x51
 10461 0d4c 9F       		.byte	0x9f
 10462 0d4d 00000000 		.4byte	0
 10463 0d51 00000000 		.4byte	0
 10464              	.LLST64:
 10465 0d55 00000000 		.4byte	.LVL199
 10466 0d59 02000000 		.4byte	.LVL200
 10467 0d5d 0200     		.2byte	0x2
 10468 0d5f 30       		.byte	0x30
 10469 0d60 9F       		.byte	0x9f
 10470 0d61 02000000 		.4byte	.LVL200
 10471 0d65 08000000 		.4byte	.LVL201
 10472 0d69 0100     		.2byte	0x1
 10473 0d6b 52       		.byte	0x52
 10474 0d6c 08000000 		.4byte	.LVL201
 10475 0d70 0A000000 		.4byte	.LVL202
 10476 0d74 0600     		.2byte	0x6
 10477 0d76 71       		.byte	0x71
 10478 0d77 00       		.sleb128 0
 10479 0d78 73       		.byte	0x73
 10480 0d79 00       		.sleb128 0
 10481 0d7a 21       		.byte	0x21
 10482 0d7b 9F       		.byte	0x9f
 10483 0d7c 0A000000 		.4byte	.LVL202
 10484 0d80 0E000000 		.4byte	.LFE165
 10485 0d84 0700     		.2byte	0x7
 10486 0d86 F3       		.byte	0xf3
 10487 0d87 01       		.uleb128 0x1
 10488 0d88 51       		.byte	0x51
ARM GAS  /var/folders/m4/4md61f0s1_g0rzfghffqnxvr0000gn/T//ccSRVwbo.s 			page 185


 10489 0d89 73       		.byte	0x73
 10490 0d8a 00       		.sleb128 0
 10491 0d8b 21       		.byte	0x21
 10492 0d8c 9F       		.byte	0x9f
 10493 0d8d 00000000 		.4byte	0
 10494 0d91 00000000 		.4byte	0
 10495              	.LLST65:
 10496 0d95 00000000 		.4byte	.LVL203
 10497 0d99 0C000000 		.4byte	.LVL206
 10498 0d9d 0100     		.2byte	0x1
 10499 0d9f 51       		.byte	0x51
 10500 0da0 0C000000 		.4byte	.LVL206
 10501 0da4 12000000 		.4byte	.LFE166
 10502 0da8 0400     		.2byte	0x4
 10503 0daa F3       		.byte	0xf3
 10504 0dab 01       		.uleb128 0x1
 10505 0dac 51       		.byte	0x51
 10506 0dad 9F       		.byte	0x9f
 10507 0dae 00000000 		.4byte	0
 10508 0db2 00000000 		.4byte	0
 10509              	.LLST66:
 10510 0db6 00000000 		.4byte	.LVL203
 10511 0dba 02000000 		.4byte	.LVL204
 10512 0dbe 0200     		.2byte	0x2
 10513 0dc0 30       		.byte	0x30
 10514 0dc1 9F       		.byte	0x9f
 10515 0dc2 02000000 		.4byte	.LVL204
 10516 0dc6 08000000 		.4byte	.LVL205
 10517 0dca 0100     		.2byte	0x1
 10518 0dcc 52       		.byte	0x52
 10519 0dcd 08000000 		.4byte	.LVL205
 10520 0dd1 0C000000 		.4byte	.LVL206
 10521 0dd5 0800     		.2byte	0x8
 10522 0dd7 71       		.byte	0x71
 10523 0dd8 00       		.sleb128 0
 10524 0dd9 34       		.byte	0x34
 10525 0dda 24       		.byte	0x24
 10526 0ddb 73       		.byte	0x73
 10527 0ddc 00       		.sleb128 0
 10528 0ddd 21       		.byte	0x21
 10529 0dde 9F       		.byte	0x9f
 10530 0ddf 0C000000 		.4byte	.LVL206
 10531 0de3 12000000 		.4byte	.LFE166
 10532 0de7 0900     		.2byte	0x9
 10533 0de9 F3       		.byte	0xf3
 10534 0dea 01       		.uleb128 0x1
 10535 0deb 51       		.byte	0x51
 10536 0dec 34       		.byte	0x34
 10537 0ded 24       		.byte	0x24
 10538 0dee 73       		.byte	0x73
 10539 0def 00       		.sleb128 0
 10540 0df0 21       		.byte	0x21
 10541 0df1 9F       		.byte	0x9f
 10542 0df2 00000000 		.4byte	0
 10543 0df6 00000000 		.4byte	0
 10544              	.LLST67:
 10545 0dfa 00000000 		.4byte	.LVL207
ARM GAS  /var/folders/m4/4md61f0s1_g0rzfghffqnxvr0000gn/T//ccSRVwbo.s 			page 186


 10546 0dfe 0C000000 		.4byte	.LVL210
 10547 0e02 0100     		.2byte	0x1
 10548 0e04 51       		.byte	0x51
 10549 0e05 0C000000 		.4byte	.LVL210
 10550 0e09 12000000 		.4byte	.LFE167
 10551 0e0d 0400     		.2byte	0x4
 10552 0e0f F3       		.byte	0xf3
 10553 0e10 01       		.uleb128 0x1
 10554 0e11 51       		.byte	0x51
 10555 0e12 9F       		.byte	0x9f
 10556 0e13 00000000 		.4byte	0
 10557 0e17 00000000 		.4byte	0
 10558              	.LLST68:
 10559 0e1b 00000000 		.4byte	.LVL207
 10560 0e1f 02000000 		.4byte	.LVL208
 10561 0e23 0200     		.2byte	0x2
 10562 0e25 30       		.byte	0x30
 10563 0e26 9F       		.byte	0x9f
 10564 0e27 02000000 		.4byte	.LVL208
 10565 0e2b 08000000 		.4byte	.LVL209
 10566 0e2f 0100     		.2byte	0x1
 10567 0e31 52       		.byte	0x52
 10568 0e32 08000000 		.4byte	.LVL209
 10569 0e36 0C000000 		.4byte	.LVL210
 10570 0e3a 0800     		.2byte	0x8
 10571 0e3c 71       		.byte	0x71
 10572 0e3d 00       		.sleb128 0
 10573 0e3e 34       		.byte	0x34
 10574 0e3f 24       		.byte	0x24
 10575 0e40 73       		.byte	0x73
 10576 0e41 00       		.sleb128 0
 10577 0e42 21       		.byte	0x21
 10578 0e43 9F       		.byte	0x9f
 10579 0e44 0C000000 		.4byte	.LVL210
 10580 0e48 12000000 		.4byte	.LFE167
 10581 0e4c 0900     		.2byte	0x9
 10582 0e4e F3       		.byte	0xf3
 10583 0e4f 01       		.uleb128 0x1
 10584 0e50 51       		.byte	0x51
 10585 0e51 34       		.byte	0x34
 10586 0e52 24       		.byte	0x24
 10587 0e53 73       		.byte	0x73
 10588 0e54 00       		.sleb128 0
 10589 0e55 21       		.byte	0x21
 10590 0e56 9F       		.byte	0x9f
 10591 0e57 00000000 		.4byte	0
 10592 0e5b 00000000 		.4byte	0
 10593              	.LLST69:
 10594 0e5f 00000000 		.4byte	.LVL211
 10595 0e63 0C000000 		.4byte	.LVL214
 10596 0e67 0100     		.2byte	0x1
 10597 0e69 51       		.byte	0x51
 10598 0e6a 0C000000 		.4byte	.LVL214
 10599 0e6e 12000000 		.4byte	.LFE168
 10600 0e72 0400     		.2byte	0x4
 10601 0e74 F3       		.byte	0xf3
 10602 0e75 01       		.uleb128 0x1
ARM GAS  /var/folders/m4/4md61f0s1_g0rzfghffqnxvr0000gn/T//ccSRVwbo.s 			page 187


 10603 0e76 51       		.byte	0x51
 10604 0e77 9F       		.byte	0x9f
 10605 0e78 00000000 		.4byte	0
 10606 0e7c 00000000 		.4byte	0
 10607              	.LLST70:
 10608 0e80 00000000 		.4byte	.LVL211
 10609 0e84 02000000 		.4byte	.LVL212
 10610 0e88 0200     		.2byte	0x2
 10611 0e8a 30       		.byte	0x30
 10612 0e8b 9F       		.byte	0x9f
 10613 0e8c 02000000 		.4byte	.LVL212
 10614 0e90 08000000 		.4byte	.LVL213
 10615 0e94 0100     		.2byte	0x1
 10616 0e96 52       		.byte	0x52
 10617 0e97 08000000 		.4byte	.LVL213
 10618 0e9b 0C000000 		.4byte	.LVL214
 10619 0e9f 0800     		.2byte	0x8
 10620 0ea1 71       		.byte	0x71
 10621 0ea2 00       		.sleb128 0
 10622 0ea3 38       		.byte	0x38
 10623 0ea4 24       		.byte	0x24
 10624 0ea5 73       		.byte	0x73
 10625 0ea6 00       		.sleb128 0
 10626 0ea7 21       		.byte	0x21
 10627 0ea8 9F       		.byte	0x9f
 10628 0ea9 0C000000 		.4byte	.LVL214
 10629 0ead 12000000 		.4byte	.LFE168
 10630 0eb1 0900     		.2byte	0x9
 10631 0eb3 F3       		.byte	0xf3
 10632 0eb4 01       		.uleb128 0x1
 10633 0eb5 51       		.byte	0x51
 10634 0eb6 38       		.byte	0x38
 10635 0eb7 24       		.byte	0x24
 10636 0eb8 73       		.byte	0x73
 10637 0eb9 00       		.sleb128 0
 10638 0eba 21       		.byte	0x21
 10639 0ebb 9F       		.byte	0x9f
 10640 0ebc 00000000 		.4byte	0
 10641 0ec0 00000000 		.4byte	0
 10642              	.LLST71:
 10643 0ec4 00000000 		.4byte	.LVL215
 10644 0ec8 0C000000 		.4byte	.LVL218
 10645 0ecc 0100     		.2byte	0x1
 10646 0ece 51       		.byte	0x51
 10647 0ecf 0C000000 		.4byte	.LVL218
 10648 0ed3 12000000 		.4byte	.LFE169
 10649 0ed7 0400     		.2byte	0x4
 10650 0ed9 F3       		.byte	0xf3
 10651 0eda 01       		.uleb128 0x1
 10652 0edb 51       		.byte	0x51
 10653 0edc 9F       		.byte	0x9f
 10654 0edd 00000000 		.4byte	0
 10655 0ee1 00000000 		.4byte	0
 10656              	.LLST72:
 10657 0ee5 00000000 		.4byte	.LVL215
 10658 0ee9 02000000 		.4byte	.LVL216
 10659 0eed 0200     		.2byte	0x2
ARM GAS  /var/folders/m4/4md61f0s1_g0rzfghffqnxvr0000gn/T//ccSRVwbo.s 			page 188


 10660 0eef 30       		.byte	0x30
 10661 0ef0 9F       		.byte	0x9f
 10662 0ef1 02000000 		.4byte	.LVL216
 10663 0ef5 08000000 		.4byte	.LVL217
 10664 0ef9 0100     		.2byte	0x1
 10665 0efb 52       		.byte	0x52
 10666 0efc 08000000 		.4byte	.LVL217
 10667 0f00 0C000000 		.4byte	.LVL218
 10668 0f04 0800     		.2byte	0x8
 10669 0f06 71       		.byte	0x71
 10670 0f07 00       		.sleb128 0
 10671 0f08 38       		.byte	0x38
 10672 0f09 24       		.byte	0x24
 10673 0f0a 73       		.byte	0x73
 10674 0f0b 00       		.sleb128 0
 10675 0f0c 21       		.byte	0x21
 10676 0f0d 9F       		.byte	0x9f
 10677 0f0e 0C000000 		.4byte	.LVL218
 10678 0f12 12000000 		.4byte	.LFE169
 10679 0f16 0900     		.2byte	0x9
 10680 0f18 F3       		.byte	0xf3
 10681 0f19 01       		.uleb128 0x1
 10682 0f1a 51       		.byte	0x51
 10683 0f1b 38       		.byte	0x38
 10684 0f1c 24       		.byte	0x24
 10685 0f1d 73       		.byte	0x73
 10686 0f1e 00       		.sleb128 0
 10687 0f1f 21       		.byte	0x21
 10688 0f20 9F       		.byte	0x9f
 10689 0f21 00000000 		.4byte	0
 10690 0f25 00000000 		.4byte	0
 10691              	.LLST73:
 10692 0f29 00000000 		.4byte	.LVL219
 10693 0f2d 0C000000 		.4byte	.LVL222
 10694 0f31 0100     		.2byte	0x1
 10695 0f33 51       		.byte	0x51
 10696 0f34 0C000000 		.4byte	.LVL222
 10697 0f38 12000000 		.4byte	.LFE170
 10698 0f3c 0400     		.2byte	0x4
 10699 0f3e F3       		.byte	0xf3
 10700 0f3f 01       		.uleb128 0x1
 10701 0f40 51       		.byte	0x51
 10702 0f41 9F       		.byte	0x9f
 10703 0f42 00000000 		.4byte	0
 10704 0f46 00000000 		.4byte	0
 10705              	.LLST74:
 10706 0f4a 00000000 		.4byte	.LVL219
 10707 0f4e 02000000 		.4byte	.LVL220
 10708 0f52 0200     		.2byte	0x2
 10709 0f54 30       		.byte	0x30
 10710 0f55 9F       		.byte	0x9f
 10711 0f56 02000000 		.4byte	.LVL220
 10712 0f5a 08000000 		.4byte	.LVL221
 10713 0f5e 0100     		.2byte	0x1
 10714 0f60 52       		.byte	0x52
 10715 0f61 08000000 		.4byte	.LVL221
 10716 0f65 0C000000 		.4byte	.LVL222
ARM GAS  /var/folders/m4/4md61f0s1_g0rzfghffqnxvr0000gn/T//ccSRVwbo.s 			page 189


 10717 0f69 0800     		.2byte	0x8
 10718 0f6b 71       		.byte	0x71
 10719 0f6c 00       		.sleb128 0
 10720 0f6d 3C       		.byte	0x3c
 10721 0f6e 24       		.byte	0x24
 10722 0f6f 73       		.byte	0x73
 10723 0f70 00       		.sleb128 0
 10724 0f71 21       		.byte	0x21
 10725 0f72 9F       		.byte	0x9f
 10726 0f73 0C000000 		.4byte	.LVL222
 10727 0f77 12000000 		.4byte	.LFE170
 10728 0f7b 0900     		.2byte	0x9
 10729 0f7d F3       		.byte	0xf3
 10730 0f7e 01       		.uleb128 0x1
 10731 0f7f 51       		.byte	0x51
 10732 0f80 3C       		.byte	0x3c
 10733 0f81 24       		.byte	0x24
 10734 0f82 73       		.byte	0x73
 10735 0f83 00       		.sleb128 0
 10736 0f84 21       		.byte	0x21
 10737 0f85 9F       		.byte	0x9f
 10738 0f86 00000000 		.4byte	0
 10739 0f8a 00000000 		.4byte	0
 10740              	.LLST75:
 10741 0f8e 00000000 		.4byte	.LVL223
 10742 0f92 14000000 		.4byte	.LVL225
 10743 0f96 0100     		.2byte	0x1
 10744 0f98 51       		.byte	0x51
 10745 0f99 14000000 		.4byte	.LVL225
 10746 0f9d 20000000 		.4byte	.LFE171
 10747 0fa1 0400     		.2byte	0x4
 10748 0fa3 F3       		.byte	0xf3
 10749 0fa4 01       		.uleb128 0x1
 10750 0fa5 51       		.byte	0x51
 10751 0fa6 9F       		.byte	0x9f
 10752 0fa7 00000000 		.4byte	0
 10753 0fab 00000000 		.4byte	0
 10754              	.LLST76:
 10755 0faf 00000000 		.4byte	.LVL223
 10756 0fb3 12000000 		.4byte	.LVL224
 10757 0fb7 0100     		.2byte	0x1
 10758 0fb9 52       		.byte	0x52
 10759 0fba 12000000 		.4byte	.LVL224
 10760 0fbe 20000000 		.4byte	.LFE171
 10761 0fc2 0400     		.2byte	0x4
 10762 0fc4 F3       		.byte	0xf3
 10763 0fc5 01       		.uleb128 0x1
 10764 0fc6 52       		.byte	0x52
 10765 0fc7 9F       		.byte	0x9f
 10766 0fc8 00000000 		.4byte	0
 10767 0fcc 00000000 		.4byte	0
 10768              	.LLST77:
 10769 0fd0 00000000 		.4byte	.LVL223
 10770 0fd4 14000000 		.4byte	.LVL225
 10771 0fd8 0500     		.2byte	0x5
 10772 0fda 31       		.byte	0x31
 10773 0fdb 71       		.byte	0x71
ARM GAS  /var/folders/m4/4md61f0s1_g0rzfghffqnxvr0000gn/T//ccSRVwbo.s 			page 190


 10774 0fdc 00       		.sleb128 0
 10775 0fdd 24       		.byte	0x24
 10776 0fde 9F       		.byte	0x9f
 10777 0fdf 14000000 		.4byte	.LVL225
 10778 0fe3 20000000 		.4byte	.LFE171
 10779 0fe7 0600     		.2byte	0x6
 10780 0fe9 31       		.byte	0x31
 10781 0fea F3       		.byte	0xf3
 10782 0feb 01       		.uleb128 0x1
 10783 0fec 51       		.byte	0x51
 10784 0fed 24       		.byte	0x24
 10785 0fee 9F       		.byte	0x9f
 10786 0fef 00000000 		.4byte	0
 10787 0ff3 00000000 		.4byte	0
 10788              	.LLST78:
 10789 0ff7 00000000 		.4byte	.LVL226
 10790 0ffb 14000000 		.4byte	.LVL228
 10791 0fff 0100     		.2byte	0x1
 10792 1001 51       		.byte	0x51
 10793 1002 14000000 		.4byte	.LVL228
 10794 1006 20000000 		.4byte	.LFE172
 10795 100a 0400     		.2byte	0x4
 10796 100c F3       		.byte	0xf3
 10797 100d 01       		.uleb128 0x1
 10798 100e 51       		.byte	0x51
 10799 100f 9F       		.byte	0x9f
 10800 1010 00000000 		.4byte	0
 10801 1014 00000000 		.4byte	0
 10802              	.LLST79:
 10803 1018 00000000 		.4byte	.LVL226
 10804 101c 12000000 		.4byte	.LVL227
 10805 1020 0100     		.2byte	0x1
 10806 1022 52       		.byte	0x52
 10807 1023 12000000 		.4byte	.LVL227
 10808 1027 20000000 		.4byte	.LFE172
 10809 102b 0400     		.2byte	0x4
 10810 102d F3       		.byte	0xf3
 10811 102e 01       		.uleb128 0x1
 10812 102f 52       		.byte	0x52
 10813 1030 9F       		.byte	0x9f
 10814 1031 00000000 		.4byte	0
 10815 1035 00000000 		.4byte	0
 10816              	.LLST80:
 10817 1039 00000000 		.4byte	.LVL226
 10818 103d 14000000 		.4byte	.LVL228
 10819 1041 0500     		.2byte	0x5
 10820 1043 34       		.byte	0x34
 10821 1044 71       		.byte	0x71
 10822 1045 00       		.sleb128 0
 10823 1046 24       		.byte	0x24
 10824 1047 9F       		.byte	0x9f
 10825 1048 14000000 		.4byte	.LVL228
 10826 104c 20000000 		.4byte	.LFE172
 10827 1050 0600     		.2byte	0x6
 10828 1052 34       		.byte	0x34
 10829 1053 F3       		.byte	0xf3
 10830 1054 01       		.uleb128 0x1
ARM GAS  /var/folders/m4/4md61f0s1_g0rzfghffqnxvr0000gn/T//ccSRVwbo.s 			page 191


 10831 1055 51       		.byte	0x51
 10832 1056 24       		.byte	0x24
 10833 1057 9F       		.byte	0x9f
 10834 1058 00000000 		.4byte	0
 10835 105c 00000000 		.4byte	0
 10836              	.LLST81:
 10837 1060 00000000 		.4byte	.LVL229
 10838 1064 1C000000 		.4byte	.LVL232
 10839 1068 0100     		.2byte	0x1
 10840 106a 51       		.byte	0x51
 10841 106b 1C000000 		.4byte	.LVL232
 10842 106f 62000000 		.4byte	.LVL240
 10843 1073 0400     		.2byte	0x4
 10844 1075 F3       		.byte	0xf3
 10845 1076 01       		.uleb128 0x1
 10846 1077 51       		.byte	0x51
 10847 1078 9F       		.byte	0x9f
 10848 1079 62000000 		.4byte	.LVL240
 10849 107d 70000000 		.4byte	.LVL242
 10850 1081 0100     		.2byte	0x1
 10851 1083 51       		.byte	0x51
 10852 1084 70000000 		.4byte	.LVL242
 10853 1088 A8000000 		.4byte	.LVL250
 10854 108c 0400     		.2byte	0x4
 10855 108e F3       		.byte	0xf3
 10856 108f 01       		.uleb128 0x1
 10857 1090 51       		.byte	0x51
 10858 1091 9F       		.byte	0x9f
 10859 1092 A8000000 		.4byte	.LVL250
 10860 1096 B6000000 		.4byte	.LVL252
 10861 109a 0100     		.2byte	0x1
 10862 109c 51       		.byte	0x51
 10863 109d B6000000 		.4byte	.LVL252
 10864 10a1 FC000000 		.4byte	.LVL260
 10865 10a5 0400     		.2byte	0x4
 10866 10a7 F3       		.byte	0xf3
 10867 10a8 01       		.uleb128 0x1
 10868 10a9 51       		.byte	0x51
 10869 10aa 9F       		.byte	0x9f
 10870 10ab FC000000 		.4byte	.LVL260
 10871 10af 06010000 		.4byte	.LVL262
 10872 10b3 0100     		.2byte	0x1
 10873 10b5 51       		.byte	0x51
 10874 10b6 06010000 		.4byte	.LVL262
 10875 10ba 42010000 		.4byte	.LFE173
 10876 10be 0400     		.2byte	0x4
 10877 10c0 F3       		.byte	0xf3
 10878 10c1 01       		.uleb128 0x1
 10879 10c2 51       		.byte	0x51
 10880 10c3 9F       		.byte	0x9f
 10881 10c4 00000000 		.4byte	0
 10882 10c8 00000000 		.4byte	0
 10883              	.LLST82:
 10884 10cc 00010000 		.4byte	.LVL261
 10885 10d0 1C010000 		.4byte	.LVL266
 10886 10d4 0100     		.2byte	0x1
 10887 10d6 52       		.byte	0x52
ARM GAS  /var/folders/m4/4md61f0s1_g0rzfghffqnxvr0000gn/T//ccSRVwbo.s 			page 192


 10888 10d7 1C010000 		.4byte	.LVL266
 10889 10db 30010000 		.4byte	.LVL269
 10890 10df 0500     		.2byte	0x5
 10891 10e1 F3       		.byte	0xf3
 10892 10e2 01       		.uleb128 0x1
 10893 10e3 51       		.byte	0x51
 10894 10e4 23       		.byte	0x23
 10895 10e5 08       		.uleb128 0x8
 10896 10e6 00000000 		.4byte	0
 10897 10ea 00000000 		.4byte	0
 10898              	.LLST83:
 10899 10ee 00010000 		.4byte	.LVL261
 10900 10f2 30010000 		.4byte	.LVL269
 10901 10f6 0100     		.2byte	0x1
 10902 10f8 54       		.byte	0x54
 10903 10f9 00000000 		.4byte	0
 10904 10fd 00000000 		.4byte	0
 10905              	.LLST84:
 10906 1101 00010000 		.4byte	.LVL261
 10907 1105 30010000 		.4byte	.LVL269
 10908 1109 0100     		.2byte	0x1
 10909 110b 56       		.byte	0x56
 10910 110c 00000000 		.4byte	0
 10911 1110 00000000 		.4byte	0
 10912              	.LLST85:
 10913 1114 00010000 		.4byte	.LVL261
 10914 1118 30010000 		.4byte	.LVL269
 10915 111c 0100     		.2byte	0x1
 10916 111e 50       		.byte	0x50
 10917 111f 00000000 		.4byte	0
 10918 1123 00000000 		.4byte	0
 10919              	.LLST86:
 10920 1127 00010000 		.4byte	.LVL261
 10921 112b 0C010000 		.4byte	.LVL263
 10922 112f 0200     		.2byte	0x2
 10923 1131 30       		.byte	0x30
 10924 1132 9F       		.byte	0x9f
 10925 1133 0C010000 		.4byte	.LVL263
 10926 1137 1E010000 		.4byte	.LVL267
 10927 113b 0100     		.2byte	0x1
 10928 113d 57       		.byte	0x57
 10929 113e 1E010000 		.4byte	.LVL267
 10930 1142 30010000 		.4byte	.LVL269
 10931 1146 1000     		.2byte	0x10
 10932 1148 F3       		.byte	0xf3
 10933 1149 01       		.uleb128 0x1
 10934 114a 51       		.byte	0x51
 10935 114b 23       		.byte	0x23
 10936 114c 08       		.uleb128 0x8
 10937 114d 94       		.byte	0x94
 10938 114e 02       		.byte	0x2
 10939 114f 34       		.byte	0x34
 10940 1150 24       		.byte	0x24
 10941 1151 74       		.byte	0x74
 10942 1152 00       		.sleb128 0
 10943 1153 21       		.byte	0x21
 10944 1154 71       		.byte	0x71
ARM GAS  /var/folders/m4/4md61f0s1_g0rzfghffqnxvr0000gn/T//ccSRVwbo.s 			page 193


 10945 1155 00       		.sleb128 0
 10946 1156 21       		.byte	0x21
 10947 1157 9F       		.byte	0x9f
 10948 1158 00000000 		.4byte	0
 10949 115c 00000000 		.4byte	0
 10950              	.LLST87:
 10951 1160 00010000 		.4byte	.LVL261
 10952 1164 0E010000 		.4byte	.LVL264
 10953 1168 0200     		.2byte	0x2
 10954 116a 30       		.byte	0x30
 10955 116b 9F       		.byte	0x9f
 10956 116c 0E010000 		.4byte	.LVL264
 10957 1170 18010000 		.4byte	.LVL265
 10958 1174 0100     		.2byte	0x1
 10959 1176 51       		.byte	0x51
 10960 1177 1E010000 		.4byte	.LVL267
 10961 117b 22010000 		.4byte	.LVL268
 10962 117f 0C00     		.2byte	0xc
 10963 1181 76       		.byte	0x76
 10964 1182 00       		.sleb128 0
 10965 1183 38       		.byte	0x38
 10966 1184 24       		.byte	0x24
 10967 1185 73       		.byte	0x73
 10968 1186 00       		.sleb128 0
 10969 1187 21       		.byte	0x21
 10970 1188 0A       		.byte	0xa
 10971 1189 0001     		.2byte	0x100
 10972 118b 21       		.byte	0x21
 10973 118c 9F       		.byte	0x9f
 10974 118d 00000000 		.4byte	0
 10975 1191 00000000 		.4byte	0
 10976              	.LLST88:
 10977 1195 00010000 		.4byte	.LVL261
 10978 1199 0E010000 		.4byte	.LVL264
 10979 119d 0200     		.2byte	0x2
 10980 119f 30       		.byte	0x30
 10981 11a0 9F       		.byte	0x9f
 10982 11a1 0E010000 		.4byte	.LVL264
 10983 11a5 30010000 		.4byte	.LVL269
 10984 11a9 0500     		.2byte	0x5
 10985 11ab 76       		.byte	0x76
 10986 11ac 00       		.sleb128 0
 10987 11ad 38       		.byte	0x38
 10988 11ae 24       		.byte	0x24
 10989 11af 9F       		.byte	0x9f
 10990 11b0 00000000 		.4byte	0
 10991 11b4 00000000 		.4byte	0
 10992              	.LLST89:
 10993 11b8 16000000 		.4byte	.LVL231
 10994 11bc 34000000 		.4byte	.LVL235
 10995 11c0 0100     		.2byte	0x1
 10996 11c2 54       		.byte	0x54
 10997 11c3 34000000 		.4byte	.LVL235
 10998 11c7 4C000000 		.4byte	.LVL239
 10999 11cb 0500     		.2byte	0x5
 11000 11cd F3       		.byte	0xf3
 11001 11ce 01       		.uleb128 0x1
ARM GAS  /var/folders/m4/4md61f0s1_g0rzfghffqnxvr0000gn/T//ccSRVwbo.s 			page 194


 11002 11cf 51       		.byte	0x51
 11003 11d0 23       		.byte	0x23
 11004 11d1 08       		.uleb128 0x8
 11005 11d2 00000000 		.4byte	0
 11006 11d6 00000000 		.4byte	0
 11007              	.LLST90:
 11008 11da 16000000 		.4byte	.LVL231
 11009 11de 38000000 		.4byte	.LVL236
 11010 11e2 0100     		.2byte	0x1
 11011 11e4 52       		.byte	0x52
 11012 11e5 38000000 		.4byte	.LVL236
 11013 11e9 4C000000 		.4byte	.LVL239
 11014 11ed 0500     		.2byte	0x5
 11015 11ef F3       		.byte	0xf3
 11016 11f0 01       		.uleb128 0x1
 11017 11f1 51       		.byte	0x51
 11018 11f2 23       		.byte	0x23
 11019 11f3 04       		.uleb128 0x4
 11020 11f4 00000000 		.4byte	0
 11021 11f8 00000000 		.4byte	0
 11022              	.LLST91:
 11023 11fc 14000000 		.4byte	.LVL230
 11024 1200 4C000000 		.4byte	.LVL239
 11025 1204 0100     		.2byte	0x1
 11026 1206 56       		.byte	0x56
 11027 1207 00000000 		.4byte	0
 11028 120b 00000000 		.4byte	0
 11029              	.LLST92:
 11030 120f 14000000 		.4byte	.LVL230
 11031 1213 4C000000 		.4byte	.LVL239
 11032 1217 0100     		.2byte	0x1
 11033 1219 50       		.byte	0x50
 11034 121a 00000000 		.4byte	0
 11035 121e 00000000 		.4byte	0
 11036              	.LLST93:
 11037 1222 16000000 		.4byte	.LVL231
 11038 1226 22000000 		.4byte	.LVL233
 11039 122a 0200     		.2byte	0x2
 11040 122c 30       		.byte	0x30
 11041 122d 9F       		.byte	0x9f
 11042 122e 22000000 		.4byte	.LVL233
 11043 1232 3A000000 		.4byte	.LVL237
 11044 1236 0100     		.2byte	0x1
 11045 1238 57       		.byte	0x57
 11046 1239 3A000000 		.4byte	.LVL237
 11047 123d 4C000000 		.4byte	.LVL239
 11048 1241 1700     		.2byte	0x17
 11049 1243 F3       		.byte	0xf3
 11050 1244 01       		.uleb128 0x1
 11051 1245 51       		.byte	0x51
 11052 1246 23       		.byte	0x23
 11053 1247 04       		.uleb128 0x4
 11054 1248 94       		.byte	0x94
 11055 1249 02       		.byte	0x2
 11056 124a 38       		.byte	0x38
 11057 124b 24       		.byte	0x24
 11058 124c F3       		.byte	0xf3
ARM GAS  /var/folders/m4/4md61f0s1_g0rzfghffqnxvr0000gn/T//ccSRVwbo.s 			page 195


 11059 124d 01       		.uleb128 0x1
 11060 124e 51       		.byte	0x51
 11061 124f 23       		.byte	0x23
 11062 1250 08       		.uleb128 0x8
 11063 1251 94       		.byte	0x94
 11064 1252 02       		.byte	0x2
 11065 1253 3C       		.byte	0x3c
 11066 1254 24       		.byte	0x24
 11067 1255 21       		.byte	0x21
 11068 1256 74       		.byte	0x74
 11069 1257 00       		.sleb128 0
 11070 1258 21       		.byte	0x21
 11071 1259 9F       		.byte	0x9f
 11072 125a 00000000 		.4byte	0
 11073 125e 00000000 		.4byte	0
 11074              	.LLST94:
 11075 1262 16000000 		.4byte	.LVL231
 11076 1266 26000000 		.4byte	.LVL234
 11077 126a 0200     		.2byte	0x2
 11078 126c 30       		.byte	0x30
 11079 126d 9F       		.byte	0x9f
 11080 126e 26000000 		.4byte	.LVL234
 11081 1272 3A000000 		.4byte	.LVL237
 11082 1276 0100     		.2byte	0x1
 11083 1278 5E       		.byte	0x5e
 11084 1279 3A000000 		.4byte	.LVL237
 11085 127d 3E000000 		.4byte	.LVL238
 11086 1281 0C00     		.2byte	0xc
 11087 1283 76       		.byte	0x76
 11088 1284 00       		.sleb128 0
 11089 1285 3C       		.byte	0x3c
 11090 1286 24       		.byte	0x24
 11091 1287 73       		.byte	0x73
 11092 1288 00       		.sleb128 0
 11093 1289 21       		.byte	0x21
 11094 128a 0A       		.byte	0xa
 11095 128b 0010     		.2byte	0x1000
 11096 128d 21       		.byte	0x21
 11097 128e 9F       		.byte	0x9f
 11098 128f 3E000000 		.4byte	.LVL238
 11099 1293 4C000000 		.4byte	.LVL239
 11100 1297 1000     		.2byte	0x10
 11101 1299 76       		.byte	0x76
 11102 129a 00       		.sleb128 0
 11103 129b 3C       		.byte	0x3c
 11104 129c 24       		.byte	0x24
 11105 129d 7E       		.byte	0x7e
 11106 129e 00       		.sleb128 0
 11107 129f 0A       		.byte	0xa
 11108 12a0 FF5F     		.2byte	0x5fff
 11109 12a2 1A       		.byte	0x1a
 11110 12a3 21       		.byte	0x21
 11111 12a4 0A       		.byte	0xa
 11112 12a5 0010     		.2byte	0x1000
 11113 12a7 21       		.byte	0x21
 11114 12a8 9F       		.byte	0x9f
 11115 12a9 00000000 		.4byte	0
ARM GAS  /var/folders/m4/4md61f0s1_g0rzfghffqnxvr0000gn/T//ccSRVwbo.s 			page 196


 11116 12ad 00000000 		.4byte	0
 11117              	.LLST95:
 11118 12b1 16000000 		.4byte	.LVL231
 11119 12b5 26000000 		.4byte	.LVL234
 11120 12b9 0200     		.2byte	0x2
 11121 12bb 30       		.byte	0x30
 11122 12bc 9F       		.byte	0x9f
 11123 12bd 26000000 		.4byte	.LVL234
 11124 12c1 4C000000 		.4byte	.LVL239
 11125 12c5 0500     		.2byte	0x5
 11126 12c7 76       		.byte	0x76
 11127 12c8 00       		.sleb128 0
 11128 12c9 3C       		.byte	0x3c
 11129 12ca 24       		.byte	0x24
 11130 12cb 9F       		.byte	0x9f
 11131 12cc 00000000 		.4byte	0
 11132 12d0 00000000 		.4byte	0
 11133              	.LLST96:
 11134 12d4 4C000000 		.4byte	.LVL239
 11135 12d8 62000000 		.4byte	.LVL240
 11136 12dc 0100     		.2byte	0x1
 11137 12de 55       		.byte	0x55
 11138 12df 00000000 		.4byte	0
 11139 12e3 00000000 		.4byte	0
 11140              	.LLST97:
 11141 12e7 4C000000 		.4byte	.LVL239
 11142 12eb 62000000 		.4byte	.LVL240
 11143 12ef 0100     		.2byte	0x1
 11144 12f1 50       		.byte	0x50
 11145 12f2 00000000 		.4byte	0
 11146 12f6 00000000 		.4byte	0
 11147              	.LLST98:
 11148 12fa 6A000000 		.4byte	.LVL241
 11149 12fe 80000000 		.4byte	.LVL245
 11150 1302 0100     		.2byte	0x1
 11151 1304 53       		.byte	0x53
 11152 1305 80000000 		.4byte	.LVL245
 11153 1309 96000000 		.4byte	.LVL249
 11154 130d 0500     		.2byte	0x5
 11155 130f F3       		.byte	0xf3
 11156 1310 01       		.uleb128 0x1
 11157 1311 51       		.byte	0x51
 11158 1312 23       		.byte	0x23
 11159 1313 08       		.uleb128 0x8
 11160 1314 00000000 		.4byte	0
 11161 1318 00000000 		.4byte	0
 11162              	.LLST99:
 11163 131c 6A000000 		.4byte	.LVL241
 11164 1320 8A000000 		.4byte	.LVL247
 11165 1324 0100     		.2byte	0x1
 11166 1326 52       		.byte	0x52
 11167 1327 8A000000 		.4byte	.LVL247
 11168 132b 96000000 		.4byte	.LVL249
 11169 132f 0500     		.2byte	0x5
 11170 1331 F3       		.byte	0xf3
 11171 1332 01       		.uleb128 0x1
 11172 1333 51       		.byte	0x51
ARM GAS  /var/folders/m4/4md61f0s1_g0rzfghffqnxvr0000gn/T//ccSRVwbo.s 			page 197


 11173 1334 23       		.byte	0x23
 11174 1335 04       		.uleb128 0x4
 11175 1336 00000000 		.4byte	0
 11176 133a 00000000 		.4byte	0
 11177              	.LLST100:
 11178 133e 6A000000 		.4byte	.LVL241
 11179 1342 96000000 		.4byte	.LVL249
 11180 1346 0100     		.2byte	0x1
 11181 1348 54       		.byte	0x54
 11182 1349 00000000 		.4byte	0
 11183 134d 00000000 		.4byte	0
 11184              	.LLST101:
 11185 1351 6A000000 		.4byte	.LVL241
 11186 1355 96000000 		.4byte	.LVL249
 11187 1359 0100     		.2byte	0x1
 11188 135b 50       		.byte	0x50
 11189 135c 00000000 		.4byte	0
 11190 1360 00000000 		.4byte	0
 11191              	.LLST102:
 11192 1364 6A000000 		.4byte	.LVL241
 11193 1368 76000000 		.4byte	.LVL243
 11194 136c 0200     		.2byte	0x2
 11195 136e 30       		.byte	0x30
 11196 136f 9F       		.byte	0x9f
 11197 1370 76000000 		.4byte	.LVL243
 11198 1374 82000000 		.4byte	.LVL246
 11199 1378 0100     		.2byte	0x1
 11200 137a 51       		.byte	0x51
 11201 137b 82000000 		.4byte	.LVL246
 11202 137f 8A000000 		.4byte	.LVL247
 11203 1383 1000     		.2byte	0x10
 11204 1385 F3       		.byte	0xf3
 11205 1386 01       		.uleb128 0x1
 11206 1387 51       		.byte	0x51
 11207 1388 23       		.byte	0x23
 11208 1389 08       		.uleb128 0x8
 11209 138a 94       		.byte	0x94
 11210 138b 02       		.byte	0x2
 11211 138c 34       		.byte	0x34
 11212 138d 24       		.byte	0x24
 11213 138e 72       		.byte	0x72
 11214 138f 00       		.sleb128 0
 11215 1390 21       		.byte	0x21
 11216 1391 75       		.byte	0x75
 11217 1392 00       		.sleb128 0
 11218 1393 21       		.byte	0x21
 11219 1394 9F       		.byte	0x9f
 11220 1395 8A000000 		.4byte	.LVL247
 11221 1399 96000000 		.4byte	.LVL249
 11222 139d 1500     		.2byte	0x15
 11223 139f F3       		.byte	0xf3
 11224 13a0 01       		.uleb128 0x1
 11225 13a1 51       		.byte	0x51
 11226 13a2 23       		.byte	0x23
 11227 13a3 08       		.uleb128 0x8
 11228 13a4 94       		.byte	0x94
 11229 13a5 02       		.byte	0x2
ARM GAS  /var/folders/m4/4md61f0s1_g0rzfghffqnxvr0000gn/T//ccSRVwbo.s 			page 198


 11230 13a6 34       		.byte	0x34
 11231 13a7 24       		.byte	0x24
 11232 13a8 F3       		.byte	0xf3
 11233 13a9 01       		.uleb128 0x1
 11234 13aa 51       		.byte	0x51
 11235 13ab 23       		.byte	0x23
 11236 13ac 04       		.uleb128 0x4
 11237 13ad 94       		.byte	0x94
 11238 13ae 02       		.byte	0x2
 11239 13af 21       		.byte	0x21
 11240 13b0 75       		.byte	0x75
 11241 13b1 00       		.sleb128 0
 11242 13b2 21       		.byte	0x21
 11243 13b3 9F       		.byte	0x9f
 11244 13b4 00000000 		.4byte	0
 11245 13b8 00000000 		.4byte	0
 11246              	.LLST103:
 11247 13bc 6A000000 		.4byte	.LVL241
 11248 13c0 78000000 		.4byte	.LVL244
 11249 13c4 0200     		.2byte	0x2
 11250 13c6 30       		.byte	0x30
 11251 13c7 9F       		.byte	0x9f
 11252 13c8 78000000 		.4byte	.LVL244
 11253 13cc 8E000000 		.4byte	.LVL248
 11254 13d0 0100     		.2byte	0x1
 11255 13d2 57       		.byte	0x57
 11256 13d3 8E000000 		.4byte	.LVL248
 11257 13d7 96000000 		.4byte	.LVL249
 11258 13db 0800     		.2byte	0x8
 11259 13dd 74       		.byte	0x74
 11260 13de 00       		.sleb128 0
 11261 13df 71       		.byte	0x71
 11262 13e0 00       		.sleb128 0
 11263 13e1 21       		.byte	0x21
 11264 13e2 31       		.byte	0x31
 11265 13e3 21       		.byte	0x21
 11266 13e4 9F       		.byte	0x9f
 11267 13e5 00000000 		.4byte	0
 11268 13e9 00000000 		.4byte	0
 11269              	.LLST104:
 11270 13ed 96000000 		.4byte	.LVL249
 11271 13f1 A8000000 		.4byte	.LVL250
 11272 13f5 0100     		.2byte	0x1
 11273 13f7 56       		.byte	0x56
 11274 13f8 00000000 		.4byte	0
 11275 13fc 00000000 		.4byte	0
 11276              	.LLST105:
 11277 1400 96000000 		.4byte	.LVL249
 11278 1404 A8000000 		.4byte	.LVL250
 11279 1408 0100     		.2byte	0x1
 11280 140a 50       		.byte	0x50
 11281 140b 00000000 		.4byte	0
 11282 140f 00000000 		.4byte	0
 11283              	.LLST106:
 11284 1413 B0000000 		.4byte	.LVL251
 11285 1417 D2000000 		.4byte	.LVL256
 11286 141b 0100     		.2byte	0x1
ARM GAS  /var/folders/m4/4md61f0s1_g0rzfghffqnxvr0000gn/T//ccSRVwbo.s 			page 199


 11287 141d 52       		.byte	0x52
 11288 141e D2000000 		.4byte	.LVL256
 11289 1422 E6000000 		.4byte	.LVL259
 11290 1426 0500     		.2byte	0x5
 11291 1428 F3       		.byte	0xf3
 11292 1429 01       		.uleb128 0x1
 11293 142a 51       		.byte	0x51
 11294 142b 23       		.byte	0x23
 11295 142c 08       		.uleb128 0x8
 11296 142d 00000000 		.4byte	0
 11297 1431 00000000 		.4byte	0
 11298              	.LLST107:
 11299 1435 B0000000 		.4byte	.LVL251
 11300 1439 CE000000 		.4byte	.LVL255
 11301 143d 0100     		.2byte	0x1
 11302 143f 54       		.byte	0x54
 11303 1440 CE000000 		.4byte	.LVL255
 11304 1444 E6000000 		.4byte	.LVL259
 11305 1448 0500     		.2byte	0x5
 11306 144a F3       		.byte	0xf3
 11307 144b 01       		.uleb128 0x1
 11308 144c 51       		.byte	0x51
 11309 144d 23       		.byte	0x23
 11310 144e 04       		.uleb128 0x4
 11311 144f 00000000 		.4byte	0
 11312 1453 00000000 		.4byte	0
 11313              	.LLST108:
 11314 1457 B0000000 		.4byte	.LVL251
 11315 145b E6000000 		.4byte	.LVL259
 11316 145f 0100     		.2byte	0x1
 11317 1461 56       		.byte	0x56
 11318 1462 00000000 		.4byte	0
 11319 1466 00000000 		.4byte	0
 11320              	.LLST109:
 11321 146a B0000000 		.4byte	.LVL251
 11322 146e E6000000 		.4byte	.LVL259
 11323 1472 0100     		.2byte	0x1
 11324 1474 50       		.byte	0x50
 11325 1475 00000000 		.4byte	0
 11326 1479 00000000 		.4byte	0
 11327              	.LLST110:
 11328 147d B0000000 		.4byte	.LVL251
 11329 1481 BC000000 		.4byte	.LVL253
 11330 1485 0200     		.2byte	0x2
 11331 1487 30       		.byte	0x30
 11332 1488 9F       		.byte	0x9f
 11333 1489 BC000000 		.4byte	.LVL253
 11334 148d D4000000 		.4byte	.LVL257
 11335 1491 0100     		.2byte	0x1
 11336 1493 57       		.byte	0x57
 11337 1494 D4000000 		.4byte	.LVL257
 11338 1498 E6000000 		.4byte	.LVL259
 11339 149c 1700     		.2byte	0x17
 11340 149e F3       		.byte	0xf3
 11341 149f 01       		.uleb128 0x1
 11342 14a0 51       		.byte	0x51
 11343 14a1 23       		.byte	0x23
ARM GAS  /var/folders/m4/4md61f0s1_g0rzfghffqnxvr0000gn/T//ccSRVwbo.s 			page 200


 11344 14a2 08       		.uleb128 0x8
 11345 14a3 94       		.byte	0x94
 11346 14a4 02       		.byte	0x2
 11347 14a5 3C       		.byte	0x3c
 11348 14a6 24       		.byte	0x24
 11349 14a7 F3       		.byte	0xf3
 11350 14a8 01       		.uleb128 0x1
 11351 14a9 51       		.byte	0x51
 11352 14aa 23       		.byte	0x23
 11353 14ab 04       		.uleb128 0x4
 11354 14ac 94       		.byte	0x94
 11355 14ad 02       		.byte	0x2
 11356 14ae 38       		.byte	0x38
 11357 14af 24       		.byte	0x24
 11358 14b0 21       		.byte	0x21
 11359 14b1 74       		.byte	0x74
 11360 14b2 00       		.sleb128 0
 11361 14b3 21       		.byte	0x21
 11362 14b4 9F       		.byte	0x9f
 11363 14b5 00000000 		.4byte	0
 11364 14b9 00000000 		.4byte	0
 11365              	.LLST111:
 11366 14bd B0000000 		.4byte	.LVL251
 11367 14c1 C0000000 		.4byte	.LVL254
 11368 14c5 0200     		.2byte	0x2
 11369 14c7 30       		.byte	0x30
 11370 14c8 9F       		.byte	0x9f
 11371 14c9 C0000000 		.4byte	.LVL254
 11372 14cd D4000000 		.4byte	.LVL257
 11373 14d1 0100     		.2byte	0x1
 11374 14d3 5E       		.byte	0x5e
 11375 14d4 D4000000 		.4byte	.LVL257
 11376 14d8 D8000000 		.4byte	.LVL258
 11377 14dc 0A00     		.2byte	0xa
 11378 14de 76       		.byte	0x76
 11379 14df 00       		.sleb128 0
 11380 14e0 34       		.byte	0x34
 11381 14e1 24       		.byte	0x24
 11382 14e2 73       		.byte	0x73
 11383 14e3 00       		.sleb128 0
 11384 14e4 21       		.byte	0x21
 11385 14e5 40       		.byte	0x40
 11386 14e6 21       		.byte	0x21
 11387 14e7 9F       		.byte	0x9f
 11388 14e8 D8000000 		.4byte	.LVL258
 11389 14ec E6000000 		.4byte	.LVL259
 11390 14f0 0E00     		.2byte	0xe
 11391 14f2 76       		.byte	0x76
 11392 14f3 00       		.sleb128 0
 11393 14f4 34       		.byte	0x34
 11394 14f5 24       		.byte	0x24
 11395 14f6 7E       		.byte	0x7e
 11396 14f7 00       		.sleb128 0
 11397 14f8 0A       		.byte	0xa
 11398 14f9 5FFF     		.2byte	0xff5f
 11399 14fb 1A       		.byte	0x1a
 11400 14fc 21       		.byte	0x21
ARM GAS  /var/folders/m4/4md61f0s1_g0rzfghffqnxvr0000gn/T//ccSRVwbo.s 			page 201


 11401 14fd 40       		.byte	0x40
 11402 14fe 21       		.byte	0x21
 11403 14ff 9F       		.byte	0x9f
 11404 1500 00000000 		.4byte	0
 11405 1504 00000000 		.4byte	0
 11406              	.LLST112:
 11407 1508 B0000000 		.4byte	.LVL251
 11408 150c C0000000 		.4byte	.LVL254
 11409 1510 0200     		.2byte	0x2
 11410 1512 30       		.byte	0x30
 11411 1513 9F       		.byte	0x9f
 11412 1514 C0000000 		.4byte	.LVL254
 11413 1518 E6000000 		.4byte	.LVL259
 11414 151c 0500     		.2byte	0x5
 11415 151e 76       		.byte	0x76
 11416 151f 00       		.sleb128 0
 11417 1520 34       		.byte	0x34
 11418 1521 24       		.byte	0x24
 11419 1522 9F       		.byte	0x9f
 11420 1523 00000000 		.4byte	0
 11421 1527 00000000 		.4byte	0
 11422              	.LLST113:
 11423 152b E6000000 		.4byte	.LVL259
 11424 152f FC000000 		.4byte	.LVL260
 11425 1533 0100     		.2byte	0x1
 11426 1535 55       		.byte	0x55
 11427 1536 00000000 		.4byte	0
 11428 153a 00000000 		.4byte	0
 11429              	.LLST114:
 11430 153e E6000000 		.4byte	.LVL259
 11431 1542 FC000000 		.4byte	.LVL260
 11432 1546 0100     		.2byte	0x1
 11433 1548 50       		.byte	0x50
 11434 1549 00000000 		.4byte	0
 11435 154d 00000000 		.4byte	0
 11436              	.LLST115:
 11437 1551 00000000 		.4byte	.LVL271
 11438 1555 28000000 		.4byte	.LVL275
 11439 1559 0100     		.2byte	0x1
 11440 155b 51       		.byte	0x51
 11441 155c 28000000 		.4byte	.LVL275
 11442 1560 B0000000 		.4byte	.LVL293
 11443 1564 0400     		.2byte	0x4
 11444 1566 F3       		.byte	0xf3
 11445 1567 01       		.uleb128 0x1
 11446 1568 51       		.byte	0x51
 11447 1569 9F       		.byte	0x9f
 11448 156a B0000000 		.4byte	.LVL293
 11449 156e B6000000 		.4byte	.LVL295
 11450 1572 0100     		.2byte	0x1
 11451 1574 51       		.byte	0x51
 11452 1575 B6000000 		.4byte	.LVL295
 11453 1579 42010000 		.4byte	.LFE175
 11454 157d 0400     		.2byte	0x4
 11455 157f F3       		.byte	0xf3
 11456 1580 01       		.uleb128 0x1
 11457 1581 51       		.byte	0x51
ARM GAS  /var/folders/m4/4md61f0s1_g0rzfghffqnxvr0000gn/T//ccSRVwbo.s 			page 202


 11458 1582 9F       		.byte	0x9f
 11459 1583 00000000 		.4byte	0
 11460 1587 00000000 		.4byte	0
 11461              	.LLST116:
 11462 158b 00000000 		.4byte	.LVL271
 11463 158f 16000000 		.4byte	.LVL272
 11464 1593 0200     		.2byte	0x2
 11465 1595 30       		.byte	0x30
 11466 1596 9F       		.byte	0x9f
 11467 1597 16000000 		.4byte	.LVL272
 11468 159b 42010000 		.4byte	.LFE175
 11469 159f 0100     		.2byte	0x1
 11470 15a1 54       		.byte	0x54
 11471 15a2 00000000 		.4byte	0
 11472 15a6 00000000 		.4byte	0
 11473              	.LLST117:
 11474 15aa 00000000 		.4byte	.LVL271
 11475 15ae 1E000000 		.4byte	.LVL273
 11476 15b2 0200     		.2byte	0x2
 11477 15b4 31       		.byte	0x31
 11478 15b5 9F       		.byte	0x9f
 11479 15b6 1E000000 		.4byte	.LVL273
 11480 15ba 42010000 		.4byte	.LFE175
 11481 15be 0100     		.2byte	0x1
 11482 15c0 55       		.byte	0x55
 11483 15c1 00000000 		.4byte	0
 11484 15c5 00000000 		.4byte	0
 11485              	.LLST118:
 11486 15c9 26000000 		.4byte	.LVL274
 11487 15cd 5C000000 		.4byte	.LVL282
 11488 15d1 0100     		.2byte	0x1
 11489 15d3 57       		.byte	0x57
 11490 15d4 00000000 		.4byte	0
 11491 15d8 00000000 		.4byte	0
 11492              	.LLST119:
 11493 15dc 26000000 		.4byte	.LVL274
 11494 15e0 42000000 		.4byte	.LVL279
 11495 15e4 0100     		.2byte	0x1
 11496 15e6 53       		.byte	0x53
 11497 15e7 42000000 		.4byte	.LVL279
 11498 15eb 5C000000 		.4byte	.LVL282
 11499 15ef 0500     		.2byte	0x5
 11500 15f1 F3       		.byte	0xf3
 11501 15f2 01       		.uleb128 0x1
 11502 15f3 51       		.byte	0x51
 11503 15f4 23       		.byte	0x23
 11504 15f5 04       		.uleb128 0x4
 11505 15f6 00000000 		.4byte	0
 11506 15fa 00000000 		.4byte	0
 11507              	.LLST120:
 11508 15fe 26000000 		.4byte	.LVL274
 11509 1602 5C000000 		.4byte	.LVL282
 11510 1606 0100     		.2byte	0x1
 11511 1608 5E       		.byte	0x5e
 11512 1609 00000000 		.4byte	0
 11513 160d 00000000 		.4byte	0
 11514              	.LLST121:
ARM GAS  /var/folders/m4/4md61f0s1_g0rzfghffqnxvr0000gn/T//ccSRVwbo.s 			page 203


 11515 1611 26000000 		.4byte	.LVL274
 11516 1615 5C000000 		.4byte	.LVL282
 11517 1619 0100     		.2byte	0x1
 11518 161b 50       		.byte	0x50
 11519 161c 00000000 		.4byte	0
 11520 1620 00000000 		.4byte	0
 11521              	.LLST122:
 11522 1624 26000000 		.4byte	.LVL274
 11523 1628 32000000 		.4byte	.LVL276
 11524 162c 0200     		.2byte	0x2
 11525 162e 30       		.byte	0x30
 11526 162f 9F       		.byte	0x9f
 11527 1630 32000000 		.4byte	.LVL276
 11528 1634 3C000000 		.4byte	.LVL278
 11529 1638 0100     		.2byte	0x1
 11530 163a 52       		.byte	0x52
 11531 163b 3C000000 		.4byte	.LVL278
 11532 163f 42000000 		.4byte	.LVL279
 11533 1643 0D00     		.2byte	0xd
 11534 1645 77       		.byte	0x77
 11535 1646 00       		.sleb128 0
 11536 1647 3C       		.byte	0x3c
 11537 1648 24       		.byte	0x24
 11538 1649 73       		.byte	0x73
 11539 164a 00       		.sleb128 0
 11540 164b 38       		.byte	0x38
 11541 164c 24       		.byte	0x24
 11542 164d 21       		.byte	0x21
 11543 164e 76       		.byte	0x76
 11544 164f 00       		.sleb128 0
 11545 1650 21       		.byte	0x21
 11546 1651 9F       		.byte	0x9f
 11547 1652 42000000 		.4byte	.LVL279
 11548 1656 5C000000 		.4byte	.LVL282
 11549 165a 1200     		.2byte	0x12
 11550 165c 77       		.byte	0x77
 11551 165d 00       		.sleb128 0
 11552 165e 3C       		.byte	0x3c
 11553 165f 24       		.byte	0x24
 11554 1660 F3       		.byte	0xf3
 11555 1661 01       		.uleb128 0x1
 11556 1662 51       		.byte	0x51
 11557 1663 23       		.byte	0x23
 11558 1664 04       		.uleb128 0x4
 11559 1665 94       		.byte	0x94
 11560 1666 02       		.byte	0x2
 11561 1667 38       		.byte	0x38
 11562 1668 24       		.byte	0x24
 11563 1669 21       		.byte	0x21
 11564 166a 76       		.byte	0x76
 11565 166b 00       		.sleb128 0
 11566 166c 21       		.byte	0x21
 11567 166d 9F       		.byte	0x9f
 11568 166e 00000000 		.4byte	0
 11569 1672 00000000 		.4byte	0
 11570              	.LLST123:
 11571 1676 26000000 		.4byte	.LVL274
ARM GAS  /var/folders/m4/4md61f0s1_g0rzfghffqnxvr0000gn/T//ccSRVwbo.s 			page 204


 11572 167a 36000000 		.4byte	.LVL277
 11573 167e 0200     		.2byte	0x2
 11574 1680 30       		.byte	0x30
 11575 1681 9F       		.byte	0x9f
 11576 1682 36000000 		.4byte	.LVL277
 11577 1686 46000000 		.4byte	.LVL280
 11578 168a 0100     		.2byte	0x1
 11579 168c 5C       		.byte	0x5c
 11580 168d 46000000 		.4byte	.LVL280
 11581 1691 4E000000 		.4byte	.LVL281
 11582 1695 0A00     		.2byte	0xa
 11583 1697 7E       		.byte	0x7e
 11584 1698 00       		.sleb128 0
 11585 1699 34       		.byte	0x34
 11586 169a 24       		.byte	0x24
 11587 169b 72       		.byte	0x72
 11588 169c 00       		.sleb128 0
 11589 169d 21       		.byte	0x21
 11590 169e 40       		.byte	0x40
 11591 169f 21       		.byte	0x21
 11592 16a0 9F       		.byte	0x9f
 11593 16a1 4E000000 		.4byte	.LVL281
 11594 16a5 5C000000 		.4byte	.LVL282
 11595 16a9 0E00     		.2byte	0xe
 11596 16ab 7E       		.byte	0x7e
 11597 16ac 00       		.sleb128 0
 11598 16ad 34       		.byte	0x34
 11599 16ae 24       		.byte	0x24
 11600 16af 7C       		.byte	0x7c
 11601 16b0 00       		.sleb128 0
 11602 16b1 0A       		.byte	0xa
 11603 16b2 5FFF     		.2byte	0xff5f
 11604 16b4 1A       		.byte	0x1a
 11605 16b5 21       		.byte	0x21
 11606 16b6 40       		.byte	0x40
 11607 16b7 21       		.byte	0x21
 11608 16b8 9F       		.byte	0x9f
 11609 16b9 00000000 		.4byte	0
 11610 16bd 00000000 		.4byte	0
 11611              	.LLST124:
 11612 16c1 26000000 		.4byte	.LVL274
 11613 16c5 36000000 		.4byte	.LVL277
 11614 16c9 0200     		.2byte	0x2
 11615 16cb 30       		.byte	0x30
 11616 16cc 9F       		.byte	0x9f
 11617 16cd 36000000 		.4byte	.LVL277
 11618 16d1 5C000000 		.4byte	.LVL282
 11619 16d5 0500     		.2byte	0x5
 11620 16d7 7E       		.byte	0x7e
 11621 16d8 00       		.sleb128 0
 11622 16d9 34       		.byte	0x34
 11623 16da 24       		.byte	0x24
 11624 16db 9F       		.byte	0x9f
 11625 16dc 00000000 		.4byte	0
 11626 16e0 00000000 		.4byte	0
 11627              	.LLST125:
 11628 16e4 5C000000 		.4byte	.LVL282
ARM GAS  /var/folders/m4/4md61f0s1_g0rzfghffqnxvr0000gn/T//ccSRVwbo.s 			page 205


 11629 16e8 70000000 		.4byte	.LVL283
 11630 16ec 0100     		.2byte	0x1
 11631 16ee 51       		.byte	0x51
 11632 16ef 00000000 		.4byte	0
 11633 16f3 00000000 		.4byte	0
 11634              	.LLST126:
 11635 16f7 5C000000 		.4byte	.LVL282
 11636 16fb 70000000 		.4byte	.LVL283
 11637 16ff 0100     		.2byte	0x1
 11638 1701 50       		.byte	0x50
 11639 1702 00000000 		.4byte	0
 11640 1706 00000000 		.4byte	0
 11641              	.LLST127:
 11642 170a 70000000 		.4byte	.LVL283
 11643 170e 9C000000 		.4byte	.LVL291
 11644 1712 0100     		.2byte	0x1
 11645 1714 57       		.byte	0x57
 11646 1715 00000000 		.4byte	0
 11647 1719 00000000 		.4byte	0
 11648              	.LLST128:
 11649 171d 70000000 		.4byte	.LVL283
 11650 1721 9C000000 		.4byte	.LVL291
 11651 1725 0100     		.2byte	0x1
 11652 1727 55       		.byte	0x55
 11653 1728 00000000 		.4byte	0
 11654 172c 00000000 		.4byte	0
 11655              	.LLST129:
 11656 1730 70000000 		.4byte	.LVL283
 11657 1734 9C000000 		.4byte	.LVL291
 11658 1738 0100     		.2byte	0x1
 11659 173a 54       		.byte	0x54
 11660 173b 00000000 		.4byte	0
 11661 173f 00000000 		.4byte	0
 11662              	.LLST130:
 11663 1743 70000000 		.4byte	.LVL283
 11664 1747 9C000000 		.4byte	.LVL291
 11665 174b 0100     		.2byte	0x1
 11666 174d 50       		.byte	0x50
 11667 174e 00000000 		.4byte	0
 11668 1752 00000000 		.4byte	0
 11669              	.LLST131:
 11670 1756 70000000 		.4byte	.LVL283
 11671 175a 80000000 		.4byte	.LVL284
 11672 175e 0200     		.2byte	0x2
 11673 1760 30       		.byte	0x30
 11674 1761 9F       		.byte	0x9f
 11675 1762 80000000 		.4byte	.LVL284
 11676 1766 84000000 		.4byte	.LVL285
 11677 176a 0100     		.2byte	0x1
 11678 176c 52       		.byte	0x52
 11679 176d 90000000 		.4byte	.LVL287
 11680 1771 96000000 		.4byte	.LVL289
 11681 1775 0600     		.2byte	0x6
 11682 1777 75       		.byte	0x75
 11683 1778 00       		.sleb128 0
 11684 1779 73       		.byte	0x73
 11685 177a 00       		.sleb128 0
ARM GAS  /var/folders/m4/4md61f0s1_g0rzfghffqnxvr0000gn/T//ccSRVwbo.s 			page 206


 11686 177b 21       		.byte	0x21
 11687 177c 9F       		.byte	0x9f
 11688 177d 00000000 		.4byte	0
 11689 1781 00000000 		.4byte	0
 11690              	.LLST132:
 11691 1785 70000000 		.4byte	.LVL283
 11692 1789 86000000 		.4byte	.LVL286
 11693 178d 0200     		.2byte	0x2
 11694 178f 30       		.byte	0x30
 11695 1790 9F       		.byte	0x9f
 11696 1791 86000000 		.4byte	.LVL286
 11697 1795 90000000 		.4byte	.LVL287
 11698 1799 0100     		.2byte	0x1
 11699 179b 56       		.byte	0x56
 11700 179c 90000000 		.4byte	.LVL287
 11701 17a0 94000000 		.4byte	.LVL288
 11702 17a4 0600     		.2byte	0x6
 11703 17a6 76       		.byte	0x76
 11704 17a7 00       		.sleb128 0
 11705 17a8 09       		.byte	0x9
 11706 17a9 F5       		.byte	0xf5
 11707 17aa 1A       		.byte	0x1a
 11708 17ab 9F       		.byte	0x9f
 11709 17ac 94000000 		.4byte	.LVL288
 11710 17b0 98000000 		.4byte	.LVL290
 11711 17b4 0600     		.2byte	0x6
 11712 17b6 74       		.byte	0x74
 11713 17b7 00       		.sleb128 0
 11714 17b8 72       		.byte	0x72
 11715 17b9 00       		.sleb128 0
 11716 17ba 21       		.byte	0x21
 11717 17bb 9F       		.byte	0x9f
 11718 17bc 98000000 		.4byte	.LVL290
 11719 17c0 9C000000 		.4byte	.LVL291
 11720 17c4 0B00     		.2byte	0xb
 11721 17c6 76       		.byte	0x76
 11722 17c7 00       		.sleb128 0
 11723 17c8 09       		.byte	0x9
 11724 17c9 F4       		.byte	0xf4
 11725 17ca 1A       		.byte	0x1a
 11726 17cb 31       		.byte	0x31
 11727 17cc 21       		.byte	0x21
 11728 17cd 74       		.byte	0x74
 11729 17ce 00       		.sleb128 0
 11730 17cf 21       		.byte	0x21
 11731 17d0 9F       		.byte	0x9f
 11732 17d1 00000000 		.4byte	0
 11733 17d5 00000000 		.4byte	0
 11734              	.LLST133:
 11735 17d9 9C000000 		.4byte	.LVL291
 11736 17dd AA000000 		.4byte	.LVL292
 11737 17e1 0100     		.2byte	0x1
 11738 17e3 51       		.byte	0x51
 11739 17e4 AA000000 		.4byte	.LVL292
 11740 17e8 B0000000 		.4byte	.LVL293
 11741 17ec 0500     		.2byte	0x5
 11742 17ee F3       		.byte	0xf3
ARM GAS  /var/folders/m4/4md61f0s1_g0rzfghffqnxvr0000gn/T//ccSRVwbo.s 			page 207


 11743 17ef 01       		.uleb128 0x1
 11744 17f0 51       		.byte	0x51
 11745 17f1 23       		.byte	0x23
 11746 17f2 06       		.uleb128 0x6
 11747 17f3 00000000 		.4byte	0
 11748 17f7 00000000 		.4byte	0
 11749              	.LLST134:
 11750 17fb 9C000000 		.4byte	.LVL291
 11751 17ff B0000000 		.4byte	.LVL293
 11752 1803 0100     		.2byte	0x1
 11753 1805 50       		.byte	0x50
 11754 1806 00000000 		.4byte	0
 11755 180a 00000000 		.4byte	0
 11756              	.LLST135:
 11757 180e B4000000 		.4byte	.LVL294
 11758 1812 EA000000 		.4byte	.LVL300
 11759 1816 0100     		.2byte	0x1
 11760 1818 57       		.byte	0x57
 11761 1819 00000000 		.4byte	0
 11762 181d 00000000 		.4byte	0
 11763              	.LLST136:
 11764 1821 B4000000 		.4byte	.LVL294
 11765 1825 EA000000 		.4byte	.LVL300
 11766 1829 0100     		.2byte	0x1
 11767 182b 53       		.byte	0x53
 11768 182c 00000000 		.4byte	0
 11769 1830 00000000 		.4byte	0
 11770              	.LLST137:
 11771 1834 B4000000 		.4byte	.LVL294
 11772 1838 EA000000 		.4byte	.LVL300
 11773 183c 0100     		.2byte	0x1
 11774 183e 5E       		.byte	0x5e
 11775 183f 00000000 		.4byte	0
 11776 1843 00000000 		.4byte	0
 11777              	.LLST138:
 11778 1847 B4000000 		.4byte	.LVL294
 11779 184b EA000000 		.4byte	.LVL300
 11780 184f 0100     		.2byte	0x1
 11781 1851 50       		.byte	0x50
 11782 1852 00000000 		.4byte	0
 11783 1856 00000000 		.4byte	0
 11784              	.LLST139:
 11785 185a B4000000 		.4byte	.LVL294
 11786 185e C0000000 		.4byte	.LVL296
 11787 1862 0200     		.2byte	0x2
 11788 1864 30       		.byte	0x30
 11789 1865 9F       		.byte	0x9f
 11790 1866 C0000000 		.4byte	.LVL296
 11791 186a D0000000 		.4byte	.LVL298
 11792 186e 0100     		.2byte	0x1
 11793 1870 52       		.byte	0x52
 11794 1871 D0000000 		.4byte	.LVL298
 11795 1875 EA000000 		.4byte	.LVL300
 11796 1879 0B00     		.2byte	0xb
 11797 187b 77       		.byte	0x77
 11798 187c 00       		.sleb128 0
 11799 187d 34       		.byte	0x34
ARM GAS  /var/folders/m4/4md61f0s1_g0rzfghffqnxvr0000gn/T//ccSRVwbo.s 			page 208


 11800 187e 24       		.byte	0x24
 11801 187f 73       		.byte	0x73
 11802 1880 00       		.sleb128 0
 11803 1881 21       		.byte	0x21
 11804 1882 78       		.byte	0x78
 11805 1883 00       		.sleb128 0
 11806 1884 21       		.byte	0x21
 11807 1885 9F       		.byte	0x9f
 11808 1886 00000000 		.4byte	0
 11809 188a 00000000 		.4byte	0
 11810              	.LLST140:
 11811 188e B4000000 		.4byte	.LVL294
 11812 1892 C4000000 		.4byte	.LVL297
 11813 1896 0200     		.2byte	0x2
 11814 1898 30       		.byte	0x30
 11815 1899 9F       		.byte	0x9f
 11816 189a C4000000 		.4byte	.LVL297
 11817 189e DC000000 		.4byte	.LVL299
 11818 18a2 0100     		.2byte	0x1
 11819 18a4 59       		.byte	0x59
 11820 18a5 DC000000 		.4byte	.LVL299
 11821 18a9 EA000000 		.4byte	.LVL300
 11822 18ad 0800     		.2byte	0x8
 11823 18af 7E       		.byte	0x7e
 11824 18b0 00       		.sleb128 0
 11825 18b1 7C       		.byte	0x7c
 11826 18b2 00       		.sleb128 0
 11827 18b3 21       		.byte	0x21
 11828 18b4 31       		.byte	0x31
 11829 18b5 21       		.byte	0x21
 11830 18b6 9F       		.byte	0x9f
 11831 18b7 00000000 		.4byte	0
 11832 18bb 00000000 		.4byte	0
 11833              	.LLST141:
 11834 18bf EA000000 		.4byte	.LVL300
 11835 18c3 FA000000 		.4byte	.LVL301
 11836 18c7 0100     		.2byte	0x1
 11837 18c9 51       		.byte	0x51
 11838 18ca 00000000 		.4byte	0
 11839 18ce 00000000 		.4byte	0
 11840              	.LLST142:
 11841 18d2 EA000000 		.4byte	.LVL300
 11842 18d6 FA000000 		.4byte	.LVL301
 11843 18da 0100     		.2byte	0x1
 11844 18dc 50       		.byte	0x50
 11845 18dd 00000000 		.4byte	0
 11846 18e1 00000000 		.4byte	0
 11847              	.LLST143:
 11848 18e5 FA000000 		.4byte	.LVL301
 11849 18e9 2A010000 		.4byte	.LVL310
 11850 18ed 0100     		.2byte	0x1
 11851 18ef 57       		.byte	0x57
 11852 18f0 00000000 		.4byte	0
 11853 18f4 00000000 		.4byte	0
 11854              	.LLST144:
 11855 18f8 FA000000 		.4byte	.LVL301
 11856 18fc 2A010000 		.4byte	.LVL310
ARM GAS  /var/folders/m4/4md61f0s1_g0rzfghffqnxvr0000gn/T//ccSRVwbo.s 			page 209


 11857 1900 0100     		.2byte	0x1
 11858 1902 55       		.byte	0x55
 11859 1903 00000000 		.4byte	0
 11860 1907 00000000 		.4byte	0
 11861              	.LLST145:
 11862 190b FA000000 		.4byte	.LVL301
 11863 190f 2A010000 		.4byte	.LVL310
 11864 1913 0100     		.2byte	0x1
 11865 1915 54       		.byte	0x54
 11866 1916 00000000 		.4byte	0
 11867 191a 00000000 		.4byte	0
 11868              	.LLST146:
 11869 191e FA000000 		.4byte	.LVL301
 11870 1922 2A010000 		.4byte	.LVL310
 11871 1926 0100     		.2byte	0x1
 11872 1928 50       		.byte	0x50
 11873 1929 00000000 		.4byte	0
 11874 192d 00000000 		.4byte	0
 11875              	.LLST147:
 11876 1931 FA000000 		.4byte	.LVL301
 11877 1935 06010000 		.4byte	.LVL302
 11878 1939 0200     		.2byte	0x2
 11879 193b 30       		.byte	0x30
 11880 193c 9F       		.byte	0x9f
 11881 193d 06010000 		.4byte	.LVL302
 11882 1941 10010000 		.4byte	.LVL303
 11883 1945 0100     		.2byte	0x1
 11884 1947 56       		.byte	0x56
 11885 1948 10010000 		.4byte	.LVL303
 11886 194c 14010000 		.4byte	.LVL304
 11887 1950 0100     		.2byte	0x1
 11888 1952 53       		.byte	0x53
 11889 1953 14010000 		.4byte	.LVL304
 11890 1957 1A010000 		.4byte	.LVL306
 11891 195b 0700     		.2byte	0x7
 11892 195d 76       		.byte	0x76
 11893 195e 00       		.sleb128 0
 11894 195f 0A       		.byte	0xa
 11895 1960 FF0C     		.2byte	0xcff
 11896 1962 1A       		.byte	0x1a
 11897 1963 9F       		.byte	0x9f
 11898 1964 1A010000 		.4byte	.LVL306
 11899 1968 22010000 		.4byte	.LVL308
 11900 196c 0800     		.2byte	0x8
 11901 196e 75       		.byte	0x75
 11902 196f 00       		.sleb128 0
 11903 1970 38       		.byte	0x38
 11904 1971 24       		.byte	0x24
 11905 1972 73       		.byte	0x73
 11906 1973 00       		.sleb128 0
 11907 1974 21       		.byte	0x21
 11908 1975 9F       		.byte	0x9f
 11909 1976 22010000 		.4byte	.LVL308
 11910 197a 2A010000 		.4byte	.LVL310
 11911 197e 1100     		.2byte	0x11
 11912 1980 75       		.byte	0x75
 11913 1981 00       		.sleb128 0
ARM GAS  /var/folders/m4/4md61f0s1_g0rzfghffqnxvr0000gn/T//ccSRVwbo.s 			page 210


 11914 1982 38       		.byte	0x38
 11915 1983 24       		.byte	0x24
 11916 1984 76       		.byte	0x76
 11917 1985 00       		.sleb128 0
 11918 1986 0A       		.byte	0xa
 11919 1987 FF0C     		.2byte	0xcff
 11920 1989 1A       		.byte	0x1a
 11921 198a 77       		.byte	0x77
 11922 198b 00       		.sleb128 0
 11923 198c 3C       		.byte	0x3c
 11924 198d 24       		.byte	0x24
 11925 198e 21       		.byte	0x21
 11926 198f 21       		.byte	0x21
 11927 1990 9F       		.byte	0x9f
 11928 1991 00000000 		.4byte	0
 11929 1995 00000000 		.4byte	0
 11930              	.LLST148:
 11931 1999 FA000000 		.4byte	.LVL301
 11932 199d 10010000 		.4byte	.LVL303
 11933 19a1 0200     		.2byte	0x2
 11934 19a3 30       		.byte	0x30
 11935 19a4 9F       		.byte	0x9f
 11936 19a5 10010000 		.4byte	.LVL303
 11937 19a9 18010000 		.4byte	.LVL305
 11938 19ad 0100     		.2byte	0x1
 11939 19af 52       		.byte	0x52
 11940 19b0 1E010000 		.4byte	.LVL307
 11941 19b4 26010000 		.4byte	.LVL309
 11942 19b8 0800     		.2byte	0x8
 11943 19ba 74       		.byte	0x74
 11944 19bb 00       		.sleb128 0
 11945 19bc 34       		.byte	0x34
 11946 19bd 24       		.byte	0x24
 11947 19be 72       		.byte	0x72
 11948 19bf 00       		.sleb128 0
 11949 19c0 21       		.byte	0x21
 11950 19c1 9F       		.byte	0x9f
 11951 19c2 00000000 		.4byte	0
 11952 19c6 00000000 		.4byte	0
 11953              	.LLST149:
 11954 19ca FA000000 		.4byte	.LVL301
 11955 19ce 10010000 		.4byte	.LVL303
 11956 19d2 0200     		.2byte	0x2
 11957 19d4 30       		.byte	0x30
 11958 19d5 9F       		.byte	0x9f
 11959 19d6 10010000 		.4byte	.LVL303
 11960 19da 2A010000 		.4byte	.LVL310
 11961 19de 0500     		.2byte	0x5
 11962 19e0 74       		.byte	0x74
 11963 19e1 00       		.sleb128 0
 11964 19e2 34       		.byte	0x34
 11965 19e3 24       		.byte	0x24
 11966 19e4 9F       		.byte	0x9f
 11967 19e5 00000000 		.4byte	0
 11968 19e9 00000000 		.4byte	0
 11969              	.LLST150:
 11970 19ed 2A010000 		.4byte	.LVL310
ARM GAS  /var/folders/m4/4md61f0s1_g0rzfghffqnxvr0000gn/T//ccSRVwbo.s 			page 211


 11971 19f1 38010000 		.4byte	.LVL311
 11972 19f5 0100     		.2byte	0x1
 11973 19f7 51       		.byte	0x51
 11974 19f8 38010000 		.4byte	.LVL311
 11975 19fc 42010000 		.4byte	.LFE175
 11976 1a00 0500     		.2byte	0x5
 11977 1a02 F3       		.byte	0xf3
 11978 1a03 01       		.uleb128 0x1
 11979 1a04 51       		.byte	0x51
 11980 1a05 23       		.byte	0x23
 11981 1a06 06       		.uleb128 0x6
 11982 1a07 00000000 		.4byte	0
 11983 1a0b 00000000 		.4byte	0
 11984              	.LLST151:
 11985 1a0f 00000000 		.4byte	.LVL312
 11986 1a13 02000000 		.4byte	.LVL313
 11987 1a17 0100     		.2byte	0x1
 11988 1a19 50       		.byte	0x50
 11989 1a1a 02000000 		.4byte	.LVL313
 11990 1a1e 04000000 		.4byte	.LFE176
 11991 1a22 0400     		.2byte	0x4
 11992 1a24 F3       		.byte	0xf3
 11993 1a25 01       		.uleb128 0x1
 11994 1a26 50       		.byte	0x50
 11995 1a27 9F       		.byte	0x9f
 11996 1a28 00000000 		.4byte	0
 11997 1a2c 00000000 		.4byte	0
 11998              	.LLST152:
 11999 1a30 00000000 		.4byte	.LVL314
 12000 1a34 02000000 		.4byte	.LVL315
 12001 1a38 0100     		.2byte	0x1
 12002 1a3a 50       		.byte	0x50
 12003 1a3b 02000000 		.4byte	.LVL315
 12004 1a3f 04000000 		.4byte	.LFE177
 12005 1a43 0400     		.2byte	0x4
 12006 1a45 F3       		.byte	0xf3
 12007 1a46 01       		.uleb128 0x1
 12008 1a47 50       		.byte	0x50
 12009 1a48 9F       		.byte	0x9f
 12010 1a49 00000000 		.4byte	0
 12011 1a4d 00000000 		.4byte	0
 12012              	.LLST153:
 12013 1a51 00000000 		.4byte	.LVL316
 12014 1a55 02000000 		.4byte	.LVL317
 12015 1a59 0100     		.2byte	0x1
 12016 1a5b 50       		.byte	0x50
 12017 1a5c 02000000 		.4byte	.LVL317
 12018 1a60 04000000 		.4byte	.LFE178
 12019 1a64 0400     		.2byte	0x4
 12020 1a66 F3       		.byte	0xf3
 12021 1a67 01       		.uleb128 0x1
 12022 1a68 50       		.byte	0x50
 12023 1a69 9F       		.byte	0x9f
 12024 1a6a 00000000 		.4byte	0
 12025 1a6e 00000000 		.4byte	0
 12026              	.LLST154:
 12027 1a72 00000000 		.4byte	.LVL318
ARM GAS  /var/folders/m4/4md61f0s1_g0rzfghffqnxvr0000gn/T//ccSRVwbo.s 			page 212


 12028 1a76 02000000 		.4byte	.LVL319
 12029 1a7a 0100     		.2byte	0x1
 12030 1a7c 50       		.byte	0x50
 12031 1a7d 02000000 		.4byte	.LVL319
 12032 1a81 04000000 		.4byte	.LFE179
 12033 1a85 0400     		.2byte	0x4
 12034 1a87 F3       		.byte	0xf3
 12035 1a88 01       		.uleb128 0x1
 12036 1a89 50       		.byte	0x50
 12037 1a8a 9F       		.byte	0x9f
 12038 1a8b 00000000 		.4byte	0
 12039 1a8f 00000000 		.4byte	0
 12040              	.LLST155:
 12041 1a93 00000000 		.4byte	.LVL320
 12042 1a97 0E000000 		.4byte	.LVL321
 12043 1a9b 0100     		.2byte	0x1
 12044 1a9d 51       		.byte	0x51
 12045 1a9e 0E000000 		.4byte	.LVL321
 12046 1aa2 12000000 		.4byte	.LFE180
 12047 1aa6 0400     		.2byte	0x4
 12048 1aa8 F3       		.byte	0xf3
 12049 1aa9 01       		.uleb128 0x1
 12050 1aaa 51       		.byte	0x51
 12051 1aab 9F       		.byte	0x9f
 12052 1aac 00000000 		.4byte	0
 12053 1ab0 00000000 		.4byte	0
 12054              	.LLST156:
 12055 1ab4 00000000 		.4byte	.LVL322
 12056 1ab8 0E000000 		.4byte	.LVL323
 12057 1abc 0100     		.2byte	0x1
 12058 1abe 51       		.byte	0x51
 12059 1abf 0E000000 		.4byte	.LVL323
 12060 1ac3 16000000 		.4byte	.LFE181
 12061 1ac7 0400     		.2byte	0x4
 12062 1ac9 F3       		.byte	0xf3
 12063 1aca 01       		.uleb128 0x1
 12064 1acb 51       		.byte	0x51
 12065 1acc 9F       		.byte	0x9f
 12066 1acd 00000000 		.4byte	0
 12067 1ad1 00000000 		.4byte	0
 12068              	.LLST157:
 12069 1ad5 00000000 		.4byte	.LVL324
 12070 1ad9 0E000000 		.4byte	.LVL325
 12071 1add 0100     		.2byte	0x1
 12072 1adf 51       		.byte	0x51
 12073 1ae0 0E000000 		.4byte	.LVL325
 12074 1ae4 12000000 		.4byte	.LFE182
 12075 1ae8 0400     		.2byte	0x4
 12076 1aea F3       		.byte	0xf3
 12077 1aeb 01       		.uleb128 0x1
 12078 1aec 51       		.byte	0x51
 12079 1aed 9F       		.byte	0x9f
 12080 1aee 00000000 		.4byte	0
 12081 1af2 00000000 		.4byte	0
 12082              	.LLST158:
 12083 1af6 00000000 		.4byte	.LVL326
 12084 1afa 0E000000 		.4byte	.LVL327
ARM GAS  /var/folders/m4/4md61f0s1_g0rzfghffqnxvr0000gn/T//ccSRVwbo.s 			page 213


 12085 1afe 0100     		.2byte	0x1
 12086 1b00 51       		.byte	0x51
 12087 1b01 0E000000 		.4byte	.LVL327
 12088 1b05 16000000 		.4byte	.LFE183
 12089 1b09 0400     		.2byte	0x4
 12090 1b0b F3       		.byte	0xf3
 12091 1b0c 01       		.uleb128 0x1
 12092 1b0d 51       		.byte	0x51
 12093 1b0e 9F       		.byte	0x9f
 12094 1b0f 00000000 		.4byte	0
 12095 1b13 00000000 		.4byte	0
 12096              	.LLST159:
 12097 1b17 00000000 		.4byte	.LVL334
 12098 1b1b 08000000 		.4byte	.LVL336
 12099 1b1f 0100     		.2byte	0x1
 12100 1b21 50       		.byte	0x50
 12101 1b22 08000000 		.4byte	.LVL336
 12102 1b26 0C000000 		.4byte	.LFE191
 12103 1b2a 0400     		.2byte	0x4
 12104 1b2c F3       		.byte	0xf3
 12105 1b2d 01       		.uleb128 0x1
 12106 1b2e 50       		.byte	0x50
 12107 1b2f 9F       		.byte	0x9f
 12108 1b30 00000000 		.4byte	0
 12109 1b34 00000000 		.4byte	0
 12110              	.LLST160:
 12111 1b38 00000000 		.4byte	.LVL334
 12112 1b3c 02000000 		.4byte	.LVL335
 12113 1b40 0200     		.2byte	0x2
 12114 1b42 30       		.byte	0x30
 12115 1b43 9F       		.byte	0x9f
 12116 1b44 02000000 		.4byte	.LVL335
 12117 1b48 0C000000 		.4byte	.LFE191
 12118 1b4c 0C00     		.2byte	0xc
 12119 1b4e 71       		.byte	0x71
 12120 1b4f 00       		.sleb128 0
 12121 1b50 0A       		.byte	0xa
 12122 1b51 FFFF     		.2byte	0xffff
 12123 1b53 1A       		.byte	0x1a
 12124 1b54 73       		.byte	0x73
 12125 1b55 00       		.sleb128 0
 12126 1b56 1A       		.byte	0x1a
 12127 1b57 30       		.byte	0x30
 12128 1b58 2E       		.byte	0x2e
 12129 1b59 9F       		.byte	0x9f
 12130 1b5a 00000000 		.4byte	0
 12131 1b5e 00000000 		.4byte	0
 12132              	.LLST161:
 12133 1b62 00000000 		.4byte	.LVL337
 12134 1b66 08000000 		.4byte	.LVL340
 12135 1b6a 0100     		.2byte	0x1
 12136 1b6c 50       		.byte	0x50
 12137 1b6d 08000000 		.4byte	.LVL340
 12138 1b71 14000000 		.4byte	.LFE193
 12139 1b75 0400     		.2byte	0x4
 12140 1b77 F3       		.byte	0xf3
 12141 1b78 01       		.uleb128 0x1
ARM GAS  /var/folders/m4/4md61f0s1_g0rzfghffqnxvr0000gn/T//ccSRVwbo.s 			page 214


 12142 1b79 50       		.byte	0x50
 12143 1b7a 9F       		.byte	0x9f
 12144 1b7b 00000000 		.4byte	0
 12145 1b7f 00000000 		.4byte	0
 12146              	.LLST162:
 12147 1b83 00000000 		.4byte	.LVL337
 12148 1b87 12000000 		.4byte	.LVL341
 12149 1b8b 0200     		.2byte	0x2
 12150 1b8d 30       		.byte	0x30
 12151 1b8e 9F       		.byte	0x9f
 12152 1b8f 12000000 		.4byte	.LVL341
 12153 1b93 14000000 		.4byte	.LFE193
 12154 1b97 0100     		.2byte	0x1
 12155 1b99 50       		.byte	0x50
 12156 1b9a 00000000 		.4byte	0
 12157 1b9e 00000000 		.4byte	0
 12158              	.LLST163:
 12159 1ba2 00000000 		.4byte	.LVL337
 12160 1ba6 02000000 		.4byte	.LVL338
 12161 1baa 0200     		.2byte	0x2
 12162 1bac 30       		.byte	0x30
 12163 1bad 9F       		.byte	0x9f
 12164 1bae 02000000 		.4byte	.LVL338
 12165 1bb2 14000000 		.4byte	.LFE193
 12166 1bb6 0600     		.2byte	0x6
 12167 1bb8 73       		.byte	0x73
 12168 1bb9 00       		.sleb128 0
 12169 1bba 71       		.byte	0x71
 12170 1bbb 00       		.sleb128 0
 12171 1bbc 1A       		.byte	0x1a
 12172 1bbd 9F       		.byte	0x9f
 12173 1bbe 00000000 		.4byte	0
 12174 1bc2 00000000 		.4byte	0
 12175              	.LLST164:
 12176 1bc6 00000000 		.4byte	.LVL337
 12177 1bca 04000000 		.4byte	.LVL339
 12178 1bce 0200     		.2byte	0x2
 12179 1bd0 30       		.byte	0x30
 12180 1bd1 9F       		.byte	0x9f
 12181 1bd2 04000000 		.4byte	.LVL339
 12182 1bd6 14000000 		.4byte	.LFE193
 12183 1bda 0600     		.2byte	0x6
 12184 1bdc 72       		.byte	0x72
 12185 1bdd 00       		.sleb128 0
 12186 1bde 71       		.byte	0x71
 12187 1bdf 00       		.sleb128 0
 12188 1be0 1A       		.byte	0x1a
 12189 1be1 9F       		.byte	0x9f
 12190 1be2 00000000 		.4byte	0
 12191 1be6 00000000 		.4byte	0
 12192              	.LLST165:
 12193 1bea 00000000 		.4byte	.LVL342
 12194 1bee 02000000 		.4byte	.LVL343
 12195 1bf2 0100     		.2byte	0x1
 12196 1bf4 51       		.byte	0x51
 12197 1bf5 02000000 		.4byte	.LVL343
 12198 1bf9 08000000 		.4byte	.LFE194
ARM GAS  /var/folders/m4/4md61f0s1_g0rzfghffqnxvr0000gn/T//ccSRVwbo.s 			page 215


 12199 1bfd 0400     		.2byte	0x4
 12200 1bff F3       		.byte	0xf3
 12201 1c00 01       		.uleb128 0x1
 12202 1c01 51       		.byte	0x51
 12203 1c02 9F       		.byte	0x9f
 12204 1c03 00000000 		.4byte	0
 12205 1c07 00000000 		.4byte	0
 12206              	.LLST166:
 12207 1c0b 00000000 		.4byte	.LVL344
 12208 1c0f 02000000 		.4byte	.LVL345
 12209 1c13 0100     		.2byte	0x1
 12210 1c15 52       		.byte	0x52
 12211 1c16 02000000 		.4byte	.LVL345
 12212 1c1a 06000000 		.4byte	.LFE195
 12213 1c1e 0400     		.2byte	0x4
 12214 1c20 F3       		.byte	0xf3
 12215 1c21 01       		.uleb128 0x1
 12216 1c22 52       		.byte	0x52
 12217 1c23 9F       		.byte	0x9f
 12218 1c24 00000000 		.4byte	0
 12219 1c28 00000000 		.4byte	0
 12220              	.LLST167:
 12221 1c2c 00000000 		.4byte	.LVL346
 12222 1c30 06000000 		.4byte	.LVL347
 12223 1c34 0100     		.2byte	0x1
 12224 1c36 51       		.byte	0x51
 12225 1c37 06000000 		.4byte	.LVL347
 12226 1c3b 0E000000 		.4byte	.LVL348
 12227 1c3f 0400     		.2byte	0x4
 12228 1c41 F3       		.byte	0xf3
 12229 1c42 01       		.uleb128 0x1
 12230 1c43 51       		.byte	0x51
 12231 1c44 9F       		.byte	0x9f
 12232 1c45 0E000000 		.4byte	.LVL348
 12233 1c49 12000000 		.4byte	.LVL349
 12234 1c4d 0100     		.2byte	0x1
 12235 1c4f 51       		.byte	0x51
 12236 1c50 12000000 		.4byte	.LVL349
 12237 1c54 16000000 		.4byte	.LFE196
 12238 1c58 0400     		.2byte	0x4
 12239 1c5a F3       		.byte	0xf3
 12240 1c5b 01       		.uleb128 0x1
 12241 1c5c 51       		.byte	0x51
 12242 1c5d 9F       		.byte	0x9f
 12243 1c5e 00000000 		.4byte	0
 12244 1c62 00000000 		.4byte	0
 12245              	.LLST168:
 12246 1c66 00000000 		.4byte	.LVL352
 12247 1c6a 0A000000 		.4byte	.LVL355
 12248 1c6e 0100     		.2byte	0x1
 12249 1c70 51       		.byte	0x51
 12250 1c71 0A000000 		.4byte	.LVL355
 12251 1c75 16000000 		.4byte	.LFE199
 12252 1c79 0400     		.2byte	0x4
 12253 1c7b F3       		.byte	0xf3
 12254 1c7c 01       		.uleb128 0x1
 12255 1c7d 51       		.byte	0x51
ARM GAS  /var/folders/m4/4md61f0s1_g0rzfghffqnxvr0000gn/T//ccSRVwbo.s 			page 216


 12256 1c7e 9F       		.byte	0x9f
 12257 1c7f 00000000 		.4byte	0
 12258 1c83 00000000 		.4byte	0
 12259              	.LLST169:
 12260 1c87 00000000 		.4byte	.LVL352
 12261 1c8b 0A000000 		.4byte	.LVL355
 12262 1c8f 0100     		.2byte	0x1
 12263 1c91 51       		.byte	0x51
 12264 1c92 0A000000 		.4byte	.LVL355
 12265 1c96 0C000000 		.4byte	.LVL356
 12266 1c9a 0400     		.2byte	0x4
 12267 1c9c F3       		.byte	0xf3
 12268 1c9d 01       		.uleb128 0x1
 12269 1c9e 51       		.byte	0x51
 12270 1c9f 9F       		.byte	0x9f
 12271 1ca0 00000000 		.4byte	0
 12272 1ca4 00000000 		.4byte	0
 12273              	.LLST170:
 12274 1ca8 00000000 		.4byte	.LVL352
 12275 1cac 0C000000 		.4byte	.LVL356
 12276 1cb0 0100     		.2byte	0x1
 12277 1cb2 50       		.byte	0x50
 12278 1cb3 00000000 		.4byte	0
 12279 1cb7 00000000 		.4byte	0
 12280              	.LLST171:
 12281 1cbb 00000000 		.4byte	.LVL352
 12282 1cbf 02000000 		.4byte	.LVL353
 12283 1cc3 0200     		.2byte	0x2
 12284 1cc5 30       		.byte	0x30
 12285 1cc6 9F       		.byte	0x9f
 12286 1cc7 02000000 		.4byte	.LVL353
 12287 1ccb 08000000 		.4byte	.LVL354
 12288 1ccf 0100     		.2byte	0x1
 12289 1cd1 52       		.byte	0x52
 12290 1cd2 08000000 		.4byte	.LVL354
 12291 1cd6 0A000000 		.4byte	.LVL355
 12292 1cda 0600     		.2byte	0x6
 12293 1cdc 71       		.byte	0x71
 12294 1cdd 00       		.sleb128 0
 12295 1cde 73       		.byte	0x73
 12296 1cdf 00       		.sleb128 0
 12297 1ce0 21       		.byte	0x21
 12298 1ce1 9F       		.byte	0x9f
 12299 1ce2 0A000000 		.4byte	.LVL355
 12300 1ce6 0C000000 		.4byte	.LVL356
 12301 1cea 0700     		.2byte	0x7
 12302 1cec F3       		.byte	0xf3
 12303 1ced 01       		.uleb128 0x1
 12304 1cee 51       		.byte	0x51
 12305 1cef 73       		.byte	0x73
 12306 1cf0 00       		.sleb128 0
 12307 1cf1 21       		.byte	0x21
 12308 1cf2 9F       		.byte	0x9f
 12309 1cf3 00000000 		.4byte	0
 12310 1cf7 00000000 		.4byte	0
 12311              	.LLST172:
 12312 1cfb 00000000 		.4byte	.LVL357
ARM GAS  /var/folders/m4/4md61f0s1_g0rzfghffqnxvr0000gn/T//ccSRVwbo.s 			page 217


 12313 1cff 3E000000 		.4byte	.LVL370
 12314 1d03 0100     		.2byte	0x1
 12315 1d05 51       		.byte	0x51
 12316 1d06 3E000000 		.4byte	.LVL370
 12317 1d0a 4C000000 		.4byte	.LVL372
 12318 1d0e 0400     		.2byte	0x4
 12319 1d10 F3       		.byte	0xf3
 12320 1d11 01       		.uleb128 0x1
 12321 1d12 51       		.byte	0x51
 12322 1d13 9F       		.byte	0x9f
 12323 1d14 4C000000 		.4byte	.LVL372
 12324 1d18 7E000000 		.4byte	.LFE200
 12325 1d1c 0100     		.2byte	0x1
 12326 1d1e 51       		.byte	0x51
 12327 1d1f 00000000 		.4byte	0
 12328 1d23 00000000 		.4byte	0
 12329              	.LLST173:
 12330 1d27 00000000 		.4byte	.LVL357
 12331 1d2b 30000000 		.4byte	.LVL366
 12332 1d2f 0100     		.2byte	0x1
 12333 1d31 52       		.byte	0x52
 12334 1d32 30000000 		.4byte	.LVL366
 12335 1d36 4C000000 		.4byte	.LVL372
 12336 1d3a 0400     		.2byte	0x4
 12337 1d3c F3       		.byte	0xf3
 12338 1d3d 01       		.uleb128 0x1
 12339 1d3e 52       		.byte	0x52
 12340 1d3f 9F       		.byte	0x9f
 12341 1d40 4C000000 		.4byte	.LVL372
 12342 1d44 74000000 		.4byte	.LVL379
 12343 1d48 0100     		.2byte	0x1
 12344 1d4a 52       		.byte	0x52
 12345 1d4b 74000000 		.4byte	.LVL379
 12346 1d4f 7E000000 		.4byte	.LFE200
 12347 1d53 0400     		.2byte	0x4
 12348 1d55 F3       		.byte	0xf3
 12349 1d56 01       		.uleb128 0x1
 12350 1d57 52       		.byte	0x52
 12351 1d58 9F       		.byte	0x9f
 12352 1d59 00000000 		.4byte	0
 12353 1d5d 00000000 		.4byte	0
 12354              	.LLST174:
 12355 1d61 00000000 		.4byte	.LVL357
 12356 1d65 28000000 		.4byte	.LVL364
 12357 1d69 0100     		.2byte	0x1
 12358 1d6b 53       		.byte	0x53
 12359 1d6c 28000000 		.4byte	.LVL364
 12360 1d70 4C000000 		.4byte	.LVL372
 12361 1d74 0400     		.2byte	0x4
 12362 1d76 F3       		.byte	0xf3
 12363 1d77 01       		.uleb128 0x1
 12364 1d78 53       		.byte	0x53
 12365 1d79 9F       		.byte	0x9f
 12366 1d7a 4C000000 		.4byte	.LVL372
 12367 1d7e 70000000 		.4byte	.LVL378
 12368 1d82 0100     		.2byte	0x1
 12369 1d84 53       		.byte	0x53
ARM GAS  /var/folders/m4/4md61f0s1_g0rzfghffqnxvr0000gn/T//ccSRVwbo.s 			page 218


 12370 1d85 70000000 		.4byte	.LVL378
 12371 1d89 7E000000 		.4byte	.LFE200
 12372 1d8d 0400     		.2byte	0x4
 12373 1d8f F3       		.byte	0xf3
 12374 1d90 01       		.uleb128 0x1
 12375 1d91 53       		.byte	0x53
 12376 1d92 9F       		.byte	0x9f
 12377 1d93 00000000 		.4byte	0
 12378 1d97 00000000 		.4byte	0
 12379              	.LLST175:
 12380 1d9b 4C000000 		.4byte	.LVL372
 12381 1d9f 70000000 		.4byte	.LVL378
 12382 1da3 0100     		.2byte	0x1
 12383 1da5 53       		.byte	0x53
 12384 1da6 70000000 		.4byte	.LVL378
 12385 1daa 7E000000 		.4byte	.LFE200
 12386 1dae 0400     		.2byte	0x4
 12387 1db0 F3       		.byte	0xf3
 12388 1db1 01       		.uleb128 0x1
 12389 1db2 53       		.byte	0x53
 12390 1db3 9F       		.byte	0x9f
 12391 1db4 00000000 		.4byte	0
 12392 1db8 00000000 		.4byte	0
 12393              	.LLST176:
 12394 1dbc 4C000000 		.4byte	.LVL372
 12395 1dc0 74000000 		.4byte	.LVL379
 12396 1dc4 0100     		.2byte	0x1
 12397 1dc6 52       		.byte	0x52
 12398 1dc7 74000000 		.4byte	.LVL379
 12399 1dcb 7E000000 		.4byte	.LFE200
 12400 1dcf 0400     		.2byte	0x4
 12401 1dd1 F3       		.byte	0xf3
 12402 1dd2 01       		.uleb128 0x1
 12403 1dd3 52       		.byte	0x52
 12404 1dd4 9F       		.byte	0x9f
 12405 1dd5 00000000 		.4byte	0
 12406 1dd9 00000000 		.4byte	0
 12407              	.LLST177:
 12408 1ddd 4C000000 		.4byte	.LVL372
 12409 1de1 56000000 		.4byte	.LVL373
 12410 1de5 0200     		.2byte	0x2
 12411 1de7 30       		.byte	0x30
 12412 1de8 9F       		.byte	0x9f
 12413 1de9 56000000 		.4byte	.LVL373
 12414 1ded 5E000000 		.4byte	.LVL374
 12415 1df1 0100     		.2byte	0x1
 12416 1df3 56       		.byte	0x56
 12417 1df4 5E000000 		.4byte	.LVL374
 12418 1df8 68000000 		.4byte	.LVL376
 12419 1dfc 0700     		.2byte	0x7
 12420 1dfe 76       		.byte	0x76
 12421 1dff 00       		.sleb128 0
 12422 1e00 0A       		.byte	0xa
 12423 1e01 FF0C     		.2byte	0xcff
 12424 1e03 1A       		.byte	0x1a
 12425 1e04 9F       		.byte	0x9f
 12426 1e05 68000000 		.4byte	.LVL376
ARM GAS  /var/folders/m4/4md61f0s1_g0rzfghffqnxvr0000gn/T//ccSRVwbo.s 			page 219


 12427 1e09 70000000 		.4byte	.LVL378
 12428 1e0d 0800     		.2byte	0x8
 12429 1e0f 73       		.byte	0x73
 12430 1e10 00       		.sleb128 0
 12431 1e11 3C       		.byte	0x3c
 12432 1e12 24       		.byte	0x24
 12433 1e13 75       		.byte	0x75
 12434 1e14 00       		.sleb128 0
 12435 1e15 21       		.byte	0x21
 12436 1e16 9F       		.byte	0x9f
 12437 1e17 70000000 		.4byte	.LVL378
 12438 1e1b 7E000000 		.4byte	.LFE200
 12439 1e1f 0900     		.2byte	0x9
 12440 1e21 F3       		.byte	0xf3
 12441 1e22 01       		.uleb128 0x1
 12442 1e23 53       		.byte	0x53
 12443 1e24 3C       		.byte	0x3c
 12444 1e25 24       		.byte	0x24
 12445 1e26 75       		.byte	0x75
 12446 1e27 00       		.sleb128 0
 12447 1e28 21       		.byte	0x21
 12448 1e29 9F       		.byte	0x9f
 12449 1e2a 00000000 		.4byte	0
 12450 1e2e 00000000 		.4byte	0
 12451              	.LLST178:
 12452 1e32 4C000000 		.4byte	.LVL372
 12453 1e36 5E000000 		.4byte	.LVL374
 12454 1e3a 0200     		.2byte	0x2
 12455 1e3c 30       		.byte	0x30
 12456 1e3d 9F       		.byte	0x9f
 12457 1e3e 5E000000 		.4byte	.LVL374
 12458 1e42 64000000 		.4byte	.LVL375
 12459 1e46 0100     		.2byte	0x1
 12460 1e48 54       		.byte	0x54
 12461 1e49 6C000000 		.4byte	.LVL377
 12462 1e4d 74000000 		.4byte	.LVL379
 12463 1e51 0800     		.2byte	0x8
 12464 1e53 72       		.byte	0x72
 12465 1e54 00       		.sleb128 0
 12466 1e55 34       		.byte	0x34
 12467 1e56 24       		.byte	0x24
 12468 1e57 74       		.byte	0x74
 12469 1e58 00       		.sleb128 0
 12470 1e59 21       		.byte	0x21
 12471 1e5a 9F       		.byte	0x9f
 12472 1e5b 74000000 		.4byte	.LVL379
 12473 1e5f 7E000000 		.4byte	.LFE200
 12474 1e63 0900     		.2byte	0x9
 12475 1e65 F3       		.byte	0xf3
 12476 1e66 01       		.uleb128 0x1
 12477 1e67 52       		.byte	0x52
 12478 1e68 34       		.byte	0x34
 12479 1e69 24       		.byte	0x24
 12480 1e6a 74       		.byte	0x74
 12481 1e6b 00       		.sleb128 0
 12482 1e6c 21       		.byte	0x21
 12483 1e6d 9F       		.byte	0x9f
ARM GAS  /var/folders/m4/4md61f0s1_g0rzfghffqnxvr0000gn/T//ccSRVwbo.s 			page 220


 12484 1e6e 00000000 		.4byte	0
 12485 1e72 00000000 		.4byte	0
 12486              	.LLST179:
 12487 1e76 4C000000 		.4byte	.LVL372
 12488 1e7a 5E000000 		.4byte	.LVL374
 12489 1e7e 0200     		.2byte	0x2
 12490 1e80 30       		.byte	0x30
 12491 1e81 9F       		.byte	0x9f
 12492 1e82 5E000000 		.4byte	.LVL374
 12493 1e86 74000000 		.4byte	.LVL379
 12494 1e8a 0500     		.2byte	0x5
 12495 1e8c 72       		.byte	0x72
 12496 1e8d 00       		.sleb128 0
 12497 1e8e 34       		.byte	0x34
 12498 1e8f 24       		.byte	0x24
 12499 1e90 9F       		.byte	0x9f
 12500 1e91 74000000 		.4byte	.LVL379
 12501 1e95 7E000000 		.4byte	.LFE200
 12502 1e99 0600     		.2byte	0x6
 12503 1e9b F3       		.byte	0xf3
 12504 1e9c 01       		.uleb128 0x1
 12505 1e9d 52       		.byte	0x52
 12506 1e9e 34       		.byte	0x34
 12507 1e9f 24       		.byte	0x24
 12508 1ea0 9F       		.byte	0x9f
 12509 1ea1 00000000 		.4byte	0
 12510 1ea5 00000000 		.4byte	0
 12511              	.LLST180:
 12512 1ea9 08000000 		.4byte	.LVL358
 12513 1ead 28000000 		.4byte	.LVL364
 12514 1eb1 0100     		.2byte	0x1
 12515 1eb3 53       		.byte	0x53
 12516 1eb4 28000000 		.4byte	.LVL364
 12517 1eb8 34000000 		.4byte	.LVL367
 12518 1ebc 0400     		.2byte	0x4
 12519 1ebe F3       		.byte	0xf3
 12520 1ebf 01       		.uleb128 0x1
 12521 1ec0 53       		.byte	0x53
 12522 1ec1 9F       		.byte	0x9f
 12523 1ec2 00000000 		.4byte	0
 12524 1ec6 00000000 		.4byte	0
 12525              	.LLST181:
 12526 1eca 08000000 		.4byte	.LVL358
 12527 1ece 34000000 		.4byte	.LVL367
 12528 1ed2 0200     		.2byte	0x2
 12529 1ed4 31       		.byte	0x31
 12530 1ed5 9F       		.byte	0x9f
 12531 1ed6 00000000 		.4byte	0
 12532 1eda 00000000 		.4byte	0
 12533              	.LLST182:
 12534 1ede 08000000 		.4byte	.LVL358
 12535 1ee2 30000000 		.4byte	.LVL366
 12536 1ee6 0100     		.2byte	0x1
 12537 1ee8 52       		.byte	0x52
 12538 1ee9 30000000 		.4byte	.LVL366
 12539 1eed 34000000 		.4byte	.LVL367
 12540 1ef1 0400     		.2byte	0x4
ARM GAS  /var/folders/m4/4md61f0s1_g0rzfghffqnxvr0000gn/T//ccSRVwbo.s 			page 221


 12541 1ef3 F3       		.byte	0xf3
 12542 1ef4 01       		.uleb128 0x1
 12543 1ef5 52       		.byte	0x52
 12544 1ef6 9F       		.byte	0x9f
 12545 1ef7 00000000 		.4byte	0
 12546 1efb 00000000 		.4byte	0
 12547              	.LLST183:
 12548 1eff 08000000 		.4byte	.LVL358
 12549 1f03 34000000 		.4byte	.LVL367
 12550 1f07 0100     		.2byte	0x1
 12551 1f09 50       		.byte	0x50
 12552 1f0a 00000000 		.4byte	0
 12553 1f0e 00000000 		.4byte	0
 12554              	.LLST184:
 12555 1f12 08000000 		.4byte	.LVL358
 12556 1f16 16000000 		.4byte	.LVL359
 12557 1f1a 0200     		.2byte	0x2
 12558 1f1c 30       		.byte	0x30
 12559 1f1d 9F       		.byte	0x9f
 12560 1f1e 16000000 		.4byte	.LVL359
 12561 1f22 1A000000 		.4byte	.LVL360
 12562 1f26 0100     		.2byte	0x1
 12563 1f28 54       		.byte	0x54
 12564 1f29 20000000 		.4byte	.LVL362
 12565 1f2d 28000000 		.4byte	.LVL364
 12566 1f31 0800     		.2byte	0x8
 12567 1f33 73       		.byte	0x73
 12568 1f34 00       		.sleb128 0
 12569 1f35 34       		.byte	0x34
 12570 1f36 24       		.byte	0x24
 12571 1f37 74       		.byte	0x74
 12572 1f38 00       		.sleb128 0
 12573 1f39 21       		.byte	0x21
 12574 1f3a 9F       		.byte	0x9f
 12575 1f3b 28000000 		.4byte	.LVL364
 12576 1f3f 2C000000 		.4byte	.LVL365
 12577 1f43 0900     		.2byte	0x9
 12578 1f45 F3       		.byte	0xf3
 12579 1f46 01       		.uleb128 0x1
 12580 1f47 53       		.byte	0x53
 12581 1f48 34       		.byte	0x34
 12582 1f49 24       		.byte	0x24
 12583 1f4a 74       		.byte	0x74
 12584 1f4b 00       		.sleb128 0
 12585 1f4c 21       		.byte	0x21
 12586 1f4d 9F       		.byte	0x9f
 12587 1f4e 00000000 		.4byte	0
 12588 1f52 00000000 		.4byte	0
 12589              	.LLST185:
 12590 1f56 08000000 		.4byte	.LVL358
 12591 1f5a 1C000000 		.4byte	.LVL361
 12592 1f5e 0200     		.2byte	0x2
 12593 1f60 30       		.byte	0x30
 12594 1f61 9F       		.byte	0x9f
 12595 1f62 1C000000 		.4byte	.LVL361
 12596 1f66 20000000 		.4byte	.LVL362
 12597 1f6a 0100     		.2byte	0x1
ARM GAS  /var/folders/m4/4md61f0s1_g0rzfghffqnxvr0000gn/T//ccSRVwbo.s 			page 222


 12598 1f6c 55       		.byte	0x55
 12599 1f6d 20000000 		.4byte	.LVL362
 12600 1f71 24000000 		.4byte	.LVL363
 12601 1f75 0600     		.2byte	0x6
 12602 1f77 75       		.byte	0x75
 12603 1f78 00       		.sleb128 0
 12604 1f79 09       		.byte	0x9
 12605 1f7a F5       		.byte	0xf5
 12606 1f7b 1A       		.byte	0x1a
 12607 1f7c 9F       		.byte	0x9f
 12608 1f7d 2C000000 		.4byte	.LVL365
 12609 1f81 30000000 		.4byte	.LVL366
 12610 1f85 0600     		.2byte	0x6
 12611 1f87 72       		.byte	0x72
 12612 1f88 00       		.sleb128 0
 12613 1f89 74       		.byte	0x74
 12614 1f8a 00       		.sleb128 0
 12615 1f8b 21       		.byte	0x21
 12616 1f8c 9F       		.byte	0x9f
 12617 1f8d 30000000 		.4byte	.LVL366
 12618 1f91 34000000 		.4byte	.LVL367
 12619 1f95 0700     		.2byte	0x7
 12620 1f97 F3       		.byte	0xf3
 12621 1f98 01       		.uleb128 0x1
 12622 1f99 52       		.byte	0x52
 12623 1f9a 74       		.byte	0x74
 12624 1f9b 00       		.sleb128 0
 12625 1f9c 21       		.byte	0x21
 12626 1f9d 9F       		.byte	0x9f
 12627 1f9e 00000000 		.4byte	0
 12628 1fa2 00000000 		.4byte	0
 12629              	.LLST186:
 12630 1fa6 34000000 		.4byte	.LVL367
 12631 1faa 3E000000 		.4byte	.LVL370
 12632 1fae 0100     		.2byte	0x1
 12633 1fb0 51       		.byte	0x51
 12634 1fb1 3E000000 		.4byte	.LVL370
 12635 1fb5 40000000 		.4byte	.LVL371
 12636 1fb9 0400     		.2byte	0x4
 12637 1fbb F3       		.byte	0xf3
 12638 1fbc 01       		.uleb128 0x1
 12639 1fbd 51       		.byte	0x51
 12640 1fbe 9F       		.byte	0x9f
 12641 1fbf 00000000 		.4byte	0
 12642 1fc3 00000000 		.4byte	0
 12643              	.LLST187:
 12644 1fc7 34000000 		.4byte	.LVL367
 12645 1fcb 40000000 		.4byte	.LVL371
 12646 1fcf 0100     		.2byte	0x1
 12647 1fd1 50       		.byte	0x50
 12648 1fd2 00000000 		.4byte	0
 12649 1fd6 00000000 		.4byte	0
 12650              	.LLST188:
 12651 1fda 34000000 		.4byte	.LVL367
 12652 1fde 36000000 		.4byte	.LVL368
 12653 1fe2 0200     		.2byte	0x2
 12654 1fe4 30       		.byte	0x30
ARM GAS  /var/folders/m4/4md61f0s1_g0rzfghffqnxvr0000gn/T//ccSRVwbo.s 			page 223


 12655 1fe5 9F       		.byte	0x9f
 12656 1fe6 36000000 		.4byte	.LVL368
 12657 1fea 3C000000 		.4byte	.LVL369
 12658 1fee 0100     		.2byte	0x1
 12659 1ff0 52       		.byte	0x52
 12660 1ff1 3C000000 		.4byte	.LVL369
 12661 1ff5 3E000000 		.4byte	.LVL370
 12662 1ff9 0600     		.2byte	0x6
 12663 1ffb 71       		.byte	0x71
 12664 1ffc 00       		.sleb128 0
 12665 1ffd 73       		.byte	0x73
 12666 1ffe 00       		.sleb128 0
 12667 1fff 21       		.byte	0x21
 12668 2000 9F       		.byte	0x9f
 12669 2001 3E000000 		.4byte	.LVL370
 12670 2005 40000000 		.4byte	.LVL371
 12671 2009 0700     		.2byte	0x7
 12672 200b F3       		.byte	0xf3
 12673 200c 01       		.uleb128 0x1
 12674 200d 51       		.byte	0x51
 12675 200e 73       		.byte	0x73
 12676 200f 00       		.sleb128 0
 12677 2010 21       		.byte	0x21
 12678 2011 9F       		.byte	0x9f
 12679 2012 00000000 		.4byte	0
 12680 2016 00000000 		.4byte	0
 12681              	.LLST189:
 12682 201a 00000000 		.4byte	.LVL380
 12683 201e 10000000 		.4byte	.LVL385
 12684 2022 0100     		.2byte	0x1
 12685 2024 51       		.byte	0x51
 12686 2025 10000000 		.4byte	.LVL385
 12687 2029 26000000 		.4byte	.LFE201
 12688 202d 0400     		.2byte	0x4
 12689 202f F3       		.byte	0xf3
 12690 2030 01       		.uleb128 0x1
 12691 2031 51       		.byte	0x51
 12692 2032 9F       		.byte	0x9f
 12693 2033 00000000 		.4byte	0
 12694 2037 00000000 		.4byte	0
 12695              	.LLST190:
 12696 203b 00000000 		.4byte	.LVL380
 12697 203f 08000000 		.4byte	.LVL382
 12698 2043 0100     		.2byte	0x1
 12699 2045 53       		.byte	0x53
 12700 2046 08000000 		.4byte	.LVL382
 12701 204a 26000000 		.4byte	.LFE201
 12702 204e 0400     		.2byte	0x4
 12703 2050 F3       		.byte	0xf3
 12704 2051 01       		.uleb128 0x1
 12705 2052 53       		.byte	0x53
 12706 2053 9F       		.byte	0x9f
 12707 2054 00000000 		.4byte	0
 12708 2058 00000000 		.4byte	0
 12709              	.LLST191:
 12710 205c 00000000 		.4byte	.LVL380
 12711 2060 14000000 		.4byte	.LVL387
ARM GAS  /var/folders/m4/4md61f0s1_g0rzfghffqnxvr0000gn/T//ccSRVwbo.s 			page 224


 12712 2064 0200     		.2byte	0x2
 12713 2066 30       		.byte	0x30
 12714 2067 9F       		.byte	0x9f
 12715 2068 14000000 		.4byte	.LVL387
 12716 206c 1C000000 		.4byte	.LVL388
 12717 2070 0500     		.2byte	0x5
 12718 2072 73       		.byte	0x73
 12719 2073 00       		.sleb128 0
 12720 2074 37       		.byte	0x37
 12721 2075 21       		.byte	0x21
 12722 2076 9F       		.byte	0x9f
 12723 2077 1E000000 		.4byte	.LVL389
 12724 207b 22000000 		.4byte	.LVL390
 12725 207f 0600     		.2byte	0x6
 12726 2081 73       		.byte	0x73
 12727 2082 00       		.sleb128 0
 12728 2083 08       		.byte	0x8
 12729 2084 77       		.byte	0x77
 12730 2085 21       		.byte	0x21
 12731 2086 9F       		.byte	0x9f
 12732 2087 00000000 		.4byte	0
 12733 208b 00000000 		.4byte	0
 12734              	.LLST192:
 12735 208f 00000000 		.4byte	.LVL380
 12736 2093 08000000 		.4byte	.LVL382
 12737 2097 0100     		.2byte	0x1
 12738 2099 53       		.byte	0x53
 12739 209a 08000000 		.4byte	.LVL382
 12740 209e 12000000 		.4byte	.LVL386
 12741 20a2 0400     		.2byte	0x4
 12742 20a4 F3       		.byte	0xf3
 12743 20a5 01       		.uleb128 0x1
 12744 20a6 53       		.byte	0x53
 12745 20a7 9F       		.byte	0x9f
 12746 20a8 00000000 		.4byte	0
 12747 20ac 00000000 		.4byte	0
 12748              	.LLST193:
 12749 20b0 00000000 		.4byte	.LVL380
 12750 20b4 12000000 		.4byte	.LVL386
 12751 20b8 0100     		.2byte	0x1
 12752 20ba 52       		.byte	0x52
 12753 20bb 00000000 		.4byte	0
 12754 20bf 00000000 		.4byte	0
 12755              	.LLST194:
 12756 20c3 00000000 		.4byte	.LVL380
 12757 20c7 10000000 		.4byte	.LVL385
 12758 20cb 0100     		.2byte	0x1
 12759 20cd 51       		.byte	0x51
 12760 20ce 10000000 		.4byte	.LVL385
 12761 20d2 12000000 		.4byte	.LVL386
 12762 20d6 0400     		.2byte	0x4
 12763 20d8 F3       		.byte	0xf3
 12764 20d9 01       		.uleb128 0x1
 12765 20da 51       		.byte	0x51
 12766 20db 9F       		.byte	0x9f
 12767 20dc 00000000 		.4byte	0
 12768 20e0 00000000 		.4byte	0
ARM GAS  /var/folders/m4/4md61f0s1_g0rzfghffqnxvr0000gn/T//ccSRVwbo.s 			page 225


 12769              	.LLST195:
 12770 20e4 00000000 		.4byte	.LVL380
 12771 20e8 12000000 		.4byte	.LVL386
 12772 20ec 0100     		.2byte	0x1
 12773 20ee 50       		.byte	0x50
 12774 20ef 00000000 		.4byte	0
 12775 20f3 00000000 		.4byte	0
 12776              	.LLST196:
 12777 20f7 00000000 		.4byte	.LVL380
 12778 20fb 04000000 		.4byte	.LVL381
 12779 20ff 0200     		.2byte	0x2
 12780 2101 30       		.byte	0x30
 12781 2102 9F       		.byte	0x9f
 12782 2103 04000000 		.4byte	.LVL381
 12783 2107 0A000000 		.4byte	.LVL383
 12784 210b 0600     		.2byte	0x6
 12785 210d 74       		.byte	0x74
 12786 210e 00       		.sleb128 0
 12787 210f 08       		.byte	0x8
 12788 2110 FF       		.byte	0xff
 12789 2111 1A       		.byte	0x1a
 12790 2112 9F       		.byte	0x9f
 12791 2113 0E000000 		.4byte	.LVL384
 12792 2117 10000000 		.4byte	.LVL385
 12793 211b 0600     		.2byte	0x6
 12794 211d 71       		.byte	0x71
 12795 211e 00       		.sleb128 0
 12796 211f 73       		.byte	0x73
 12797 2120 00       		.sleb128 0
 12798 2121 21       		.byte	0x21
 12799 2122 9F       		.byte	0x9f
 12800 2123 10000000 		.4byte	.LVL385
 12801 2127 12000000 		.4byte	.LVL386
 12802 212b 0700     		.2byte	0x7
 12803 212d F3       		.byte	0xf3
 12804 212e 01       		.uleb128 0x1
 12805 212f 51       		.byte	0x51
 12806 2130 73       		.byte	0x73
 12807 2131 00       		.sleb128 0
 12808 2132 21       		.byte	0x21
 12809 2133 9F       		.byte	0x9f
 12810 2134 00000000 		.4byte	0
 12811 2138 00000000 		.4byte	0
 12812              	.LLST197:
 12813 213c 00000000 		.4byte	.LVL391
 12814 2140 10000000 		.4byte	.LVL396
 12815 2144 0100     		.2byte	0x1
 12816 2146 51       		.byte	0x51
 12817 2147 10000000 		.4byte	.LVL396
 12818 214b 20000000 		.4byte	.LFE202
 12819 214f 0400     		.2byte	0x4
 12820 2151 F3       		.byte	0xf3
 12821 2152 01       		.uleb128 0x1
 12822 2153 51       		.byte	0x51
 12823 2154 9F       		.byte	0x9f
 12824 2155 00000000 		.4byte	0
 12825 2159 00000000 		.4byte	0
ARM GAS  /var/folders/m4/4md61f0s1_g0rzfghffqnxvr0000gn/T//ccSRVwbo.s 			page 226


 12826              	.LLST198:
 12827 215d 00000000 		.4byte	.LVL391
 12828 2161 08000000 		.4byte	.LVL393
 12829 2165 0100     		.2byte	0x1
 12830 2167 53       		.byte	0x53
 12831 2168 08000000 		.4byte	.LVL393
 12832 216c 20000000 		.4byte	.LFE202
 12833 2170 0400     		.2byte	0x4
 12834 2172 F3       		.byte	0xf3
 12835 2173 01       		.uleb128 0x1
 12836 2174 53       		.byte	0x53
 12837 2175 9F       		.byte	0x9f
 12838 2176 00000000 		.4byte	0
 12839 217a 00000000 		.4byte	0
 12840              	.LLST199:
 12841 217e 00000000 		.4byte	.LVL391
 12842 2182 08000000 		.4byte	.LVL393
 12843 2186 0100     		.2byte	0x1
 12844 2188 53       		.byte	0x53
 12845 2189 08000000 		.4byte	.LVL393
 12846 218d 12000000 		.4byte	.LVL397
 12847 2191 0400     		.2byte	0x4
 12848 2193 F3       		.byte	0xf3
 12849 2194 01       		.uleb128 0x1
 12850 2195 53       		.byte	0x53
 12851 2196 9F       		.byte	0x9f
 12852 2197 00000000 		.4byte	0
 12853 219b 00000000 		.4byte	0
 12854              	.LLST200:
 12855 219f 00000000 		.4byte	.LVL391
 12856 21a3 12000000 		.4byte	.LVL397
 12857 21a7 0100     		.2byte	0x1
 12858 21a9 52       		.byte	0x52
 12859 21aa 00000000 		.4byte	0
 12860 21ae 00000000 		.4byte	0
 12861              	.LLST201:
 12862 21b2 00000000 		.4byte	.LVL391
 12863 21b6 10000000 		.4byte	.LVL396
 12864 21ba 0100     		.2byte	0x1
 12865 21bc 51       		.byte	0x51
 12866 21bd 10000000 		.4byte	.LVL396
 12867 21c1 12000000 		.4byte	.LVL397
 12868 21c5 0400     		.2byte	0x4
 12869 21c7 F3       		.byte	0xf3
 12870 21c8 01       		.uleb128 0x1
 12871 21c9 51       		.byte	0x51
 12872 21ca 9F       		.byte	0x9f
 12873 21cb 00000000 		.4byte	0
 12874 21cf 00000000 		.4byte	0
 12875              	.LLST202:
 12876 21d3 00000000 		.4byte	.LVL391
 12877 21d7 12000000 		.4byte	.LVL397
 12878 21db 0100     		.2byte	0x1
 12879 21dd 50       		.byte	0x50
 12880 21de 00000000 		.4byte	0
 12881 21e2 00000000 		.4byte	0
 12882              	.LLST203:
ARM GAS  /var/folders/m4/4md61f0s1_g0rzfghffqnxvr0000gn/T//ccSRVwbo.s 			page 227


 12883 21e6 00000000 		.4byte	.LVL391
 12884 21ea 04000000 		.4byte	.LVL392
 12885 21ee 0200     		.2byte	0x2
 12886 21f0 30       		.byte	0x30
 12887 21f1 9F       		.byte	0x9f
 12888 21f2 04000000 		.4byte	.LVL392
 12889 21f6 0A000000 		.4byte	.LVL394
 12890 21fa 0600     		.2byte	0x6
 12891 21fc 74       		.byte	0x74
 12892 21fd 00       		.sleb128 0
 12893 21fe 08       		.byte	0x8
 12894 21ff FF       		.byte	0xff
 12895 2200 1A       		.byte	0x1a
 12896 2201 9F       		.byte	0x9f
 12897 2202 0E000000 		.4byte	.LVL395
 12898 2206 10000000 		.4byte	.LVL396
 12899 220a 0600     		.2byte	0x6
 12900 220c 71       		.byte	0x71
 12901 220d 00       		.sleb128 0
 12902 220e 73       		.byte	0x73
 12903 220f 00       		.sleb128 0
 12904 2210 21       		.byte	0x21
 12905 2211 9F       		.byte	0x9f
 12906 2212 10000000 		.4byte	.LVL396
 12907 2216 12000000 		.4byte	.LVL397
 12908 221a 0700     		.2byte	0x7
 12909 221c F3       		.byte	0xf3
 12910 221d 01       		.uleb128 0x1
 12911 221e 51       		.byte	0x51
 12912 221f 73       		.byte	0x73
 12913 2220 00       		.sleb128 0
 12914 2221 21       		.byte	0x21
 12915 2222 9F       		.byte	0x9f
 12916 2223 00000000 		.4byte	0
 12917 2227 00000000 		.4byte	0
 12918              	.LLST204:
 12919 222b 00000000 		.4byte	.LVL398
 12920 222f 0A000000 		.4byte	.LVL401
 12921 2233 0100     		.2byte	0x1
 12922 2235 51       		.byte	0x51
 12923 2236 0A000000 		.4byte	.LVL401
 12924 223a 0E000000 		.4byte	.LFE203
 12925 223e 0400     		.2byte	0x4
 12926 2240 F3       		.byte	0xf3
 12927 2241 01       		.uleb128 0x1
 12928 2242 51       		.byte	0x51
 12929 2243 9F       		.byte	0x9f
 12930 2244 00000000 		.4byte	0
 12931 2248 00000000 		.4byte	0
 12932              	.LLST205:
 12933 224c 00000000 		.4byte	.LVL398
 12934 2250 02000000 		.4byte	.LVL399
 12935 2254 0200     		.2byte	0x2
 12936 2256 30       		.byte	0x30
 12937 2257 9F       		.byte	0x9f
 12938 2258 02000000 		.4byte	.LVL399
 12939 225c 08000000 		.4byte	.LVL400
ARM GAS  /var/folders/m4/4md61f0s1_g0rzfghffqnxvr0000gn/T//ccSRVwbo.s 			page 228


 12940 2260 0100     		.2byte	0x1
 12941 2262 52       		.byte	0x52
 12942 2263 08000000 		.4byte	.LVL400
 12943 2267 0A000000 		.4byte	.LVL401
 12944 226b 0600     		.2byte	0x6
 12945 226d 71       		.byte	0x71
 12946 226e 00       		.sleb128 0
 12947 226f 73       		.byte	0x73
 12948 2270 00       		.sleb128 0
 12949 2271 21       		.byte	0x21
 12950 2272 9F       		.byte	0x9f
 12951 2273 0A000000 		.4byte	.LVL401
 12952 2277 0E000000 		.4byte	.LFE203
 12953 227b 0700     		.2byte	0x7
 12954 227d F3       		.byte	0xf3
 12955 227e 01       		.uleb128 0x1
 12956 227f 51       		.byte	0x51
 12957 2280 73       		.byte	0x73
 12958 2281 00       		.sleb128 0
 12959 2282 21       		.byte	0x21
 12960 2283 9F       		.byte	0x9f
 12961 2284 00000000 		.4byte	0
 12962 2288 00000000 		.4byte	0
 12963              	.LLST206:
 12964 228c 00000000 		.4byte	.LVL402
 12965 2290 0E000000 		.4byte	.LVL403
 12966 2294 0100     		.2byte	0x1
 12967 2296 51       		.byte	0x51
 12968 2297 0E000000 		.4byte	.LVL403
 12969 229b 12000000 		.4byte	.LFE204
 12970 229f 0400     		.2byte	0x4
 12971 22a1 F3       		.byte	0xf3
 12972 22a2 01       		.uleb128 0x1
 12973 22a3 51       		.byte	0x51
 12974 22a4 9F       		.byte	0x9f
 12975 22a5 00000000 		.4byte	0
 12976 22a9 00000000 		.4byte	0
 12977              	.LLST207:
 12978 22ad 00000000 		.4byte	.LVL404
 12979 22b1 0E000000 		.4byte	.LVL405
 12980 22b5 0100     		.2byte	0x1
 12981 22b7 51       		.byte	0x51
 12982 22b8 0E000000 		.4byte	.LVL405
 12983 22bc 12000000 		.4byte	.LFE205
 12984 22c0 0400     		.2byte	0x4
 12985 22c2 F3       		.byte	0xf3
 12986 22c3 01       		.uleb128 0x1
 12987 22c4 51       		.byte	0x51
 12988 22c5 9F       		.byte	0x9f
 12989 22c6 00000000 		.4byte	0
 12990 22ca 00000000 		.4byte	0
 12991              	.LLST208:
 12992 22ce 00000000 		.4byte	.LVL406
 12993 22d2 0E000000 		.4byte	.LVL407
 12994 22d6 0100     		.2byte	0x1
 12995 22d8 51       		.byte	0x51
 12996 22d9 0E000000 		.4byte	.LVL407
ARM GAS  /var/folders/m4/4md61f0s1_g0rzfghffqnxvr0000gn/T//ccSRVwbo.s 			page 229


 12997 22dd 12000000 		.4byte	.LFE206
 12998 22e1 0400     		.2byte	0x4
 12999 22e3 F3       		.byte	0xf3
 13000 22e4 01       		.uleb128 0x1
 13001 22e5 51       		.byte	0x51
 13002 22e6 9F       		.byte	0x9f
 13003 22e7 00000000 		.4byte	0
 13004 22eb 00000000 		.4byte	0
 13005              	.LLST209:
 13006 22ef 00000000 		.4byte	.LVL408
 13007 22f3 08000000 		.4byte	.LVL411
 13008 22f7 0100     		.2byte	0x1
 13009 22f9 51       		.byte	0x51
 13010 22fa 08000000 		.4byte	.LVL411
 13011 22fe 18000000 		.4byte	.LFE207
 13012 2302 0400     		.2byte	0x4
 13013 2304 F3       		.byte	0xf3
 13014 2305 01       		.uleb128 0x1
 13015 2306 51       		.byte	0x51
 13016 2307 9F       		.byte	0x9f
 13017 2308 00000000 		.4byte	0
 13018 230c 00000000 		.4byte	0
 13019              	.LLST210:
 13020 2310 00000000 		.4byte	.LVL408
 13021 2314 0A000000 		.4byte	.LVL412
 13022 2318 0100     		.2byte	0x1
 13023 231a 52       		.byte	0x52
 13024 231b 0A000000 		.4byte	.LVL412
 13025 231f 18000000 		.4byte	.LFE207
 13026 2323 0400     		.2byte	0x4
 13027 2325 F3       		.byte	0xf3
 13028 2326 01       		.uleb128 0x1
 13029 2327 52       		.byte	0x52
 13030 2328 9F       		.byte	0x9f
 13031 2329 00000000 		.4byte	0
 13032 232d 00000000 		.4byte	0
 13033              	.LLST211:
 13034 2331 00000000 		.4byte	.LVL408
 13035 2335 0E000000 		.4byte	.LVL413
 13036 2339 0100     		.2byte	0x1
 13037 233b 53       		.byte	0x53
 13038 233c 0E000000 		.4byte	.LVL413
 13039 2340 18000000 		.4byte	.LFE207
 13040 2344 0400     		.2byte	0x4
 13041 2346 F3       		.byte	0xf3
 13042 2347 01       		.uleb128 0x1
 13043 2348 53       		.byte	0x53
 13044 2349 9F       		.byte	0x9f
 13045 234a 00000000 		.4byte	0
 13046 234e 00000000 		.4byte	0
 13047              	.LLST212:
 13048 2352 00000000 		.4byte	.LVL408
 13049 2356 04000000 		.4byte	.LVL409
 13050 235a 0200     		.2byte	0x2
 13051 235c 30       		.byte	0x30
 13052 235d 9F       		.byte	0x9f
 13053 235e 04000000 		.4byte	.LVL409
ARM GAS  /var/folders/m4/4md61f0s1_g0rzfghffqnxvr0000gn/T//ccSRVwbo.s 			page 230


 13054 2362 06000000 		.4byte	.LVL410
 13055 2366 0600     		.2byte	0x6
 13056 2368 74       		.byte	0x74
 13057 2369 00       		.sleb128 0
 13058 236a 08       		.byte	0x8
 13059 236b FF       		.byte	0xff
 13060 236c 1A       		.byte	0x1a
 13061 236d 9F       		.byte	0x9f
 13062 236e 0A000000 		.4byte	.LVL412
 13063 2372 0E000000 		.4byte	.LVL413
 13064 2376 0800     		.2byte	0x8
 13065 2378 73       		.byte	0x73
 13066 2379 00       		.sleb128 0
 13067 237a 38       		.byte	0x38
 13068 237b 24       		.byte	0x24
 13069 237c 72       		.byte	0x72
 13070 237d 00       		.sleb128 0
 13071 237e 21       		.byte	0x21
 13072 237f 9F       		.byte	0x9f
 13073 2380 0E000000 		.4byte	.LVL413
 13074 2384 18000000 		.4byte	.LFE207
 13075 2388 0900     		.2byte	0x9
 13076 238a F3       		.byte	0xf3
 13077 238b 01       		.uleb128 0x1
 13078 238c 53       		.byte	0x53
 13079 238d 38       		.byte	0x38
 13080 238e 24       		.byte	0x24
 13081 238f 72       		.byte	0x72
 13082 2390 00       		.sleb128 0
 13083 2391 21       		.byte	0x21
 13084 2392 9F       		.byte	0x9f
 13085 2393 00000000 		.4byte	0
 13086 2397 00000000 		.4byte	0
 13087              	.LLST213:
 13088 239b 00000000 		.4byte	.LVL414
 13089 239f 2A000000 		.4byte	.LVL423
 13090 23a3 0100     		.2byte	0x1
 13091 23a5 51       		.byte	0x51
 13092 23a6 2A000000 		.4byte	.LVL423
 13093 23aa 38000000 		.4byte	.LFE208
 13094 23ae 0400     		.2byte	0x4
 13095 23b0 F3       		.byte	0xf3
 13096 23b1 01       		.uleb128 0x1
 13097 23b2 51       		.byte	0x51
 13098 23b3 9F       		.byte	0x9f
 13099 23b4 00000000 		.4byte	0
 13100 23b8 00000000 		.4byte	0
 13101              	.LLST214:
 13102 23bc 00000000 		.4byte	.LVL414
 13103 23c0 16000000 		.4byte	.LVL419
 13104 23c4 0100     		.2byte	0x1
 13105 23c6 52       		.byte	0x52
 13106 23c7 16000000 		.4byte	.LVL419
 13107 23cb 38000000 		.4byte	.LFE208
 13108 23cf 0400     		.2byte	0x4
 13109 23d1 F3       		.byte	0xf3
 13110 23d2 01       		.uleb128 0x1
ARM GAS  /var/folders/m4/4md61f0s1_g0rzfghffqnxvr0000gn/T//ccSRVwbo.s 			page 231


 13111 23d3 52       		.byte	0x52
 13112 23d4 9F       		.byte	0x9f
 13113 23d5 00000000 		.4byte	0
 13114 23d9 00000000 		.4byte	0
 13115              	.LLST215:
 13116 23dd 00000000 		.4byte	.LVL414
 13117 23e1 24000000 		.4byte	.LVL421
 13118 23e5 0100     		.2byte	0x1
 13119 23e7 53       		.byte	0x53
 13120 23e8 24000000 		.4byte	.LVL421
 13121 23ec 38000000 		.4byte	.LFE208
 13122 23f0 0400     		.2byte	0x4
 13123 23f2 F3       		.byte	0xf3
 13124 23f3 01       		.uleb128 0x1
 13125 23f4 53       		.byte	0x53
 13126 23f5 9F       		.byte	0x9f
 13127 23f6 00000000 		.4byte	0
 13128 23fa 00000000 		.4byte	0
 13129              	.LLST216:
 13130 23fe 00000000 		.4byte	.LVL414
 13131 2402 04000000 		.4byte	.LVL415
 13132 2406 0200     		.2byte	0x2
 13133 2408 30       		.byte	0x30
 13134 2409 9F       		.byte	0x9f
 13135 240a 04000000 		.4byte	.LVL415
 13136 240e 20000000 		.4byte	.LVL420
 13137 2412 0100     		.2byte	0x1
 13138 2414 57       		.byte	0x57
 13139 2415 20000000 		.4byte	.LVL420
 13140 2419 2A000000 		.4byte	.LVL423
 13141 241d 0600     		.2byte	0x6
 13142 241f 71       		.byte	0x71
 13143 2420 00       		.sleb128 0
 13144 2421 76       		.byte	0x76
 13145 2422 00       		.sleb128 0
 13146 2423 21       		.byte	0x21
 13147 2424 9F       		.byte	0x9f
 13148 2425 2A000000 		.4byte	.LVL423
 13149 2429 38000000 		.4byte	.LFE208
 13150 242d 0700     		.2byte	0x7
 13151 242f F3       		.byte	0xf3
 13152 2430 01       		.uleb128 0x1
 13153 2431 51       		.byte	0x51
 13154 2432 76       		.byte	0x76
 13155 2433 00       		.sleb128 0
 13156 2434 21       		.byte	0x21
 13157 2435 9F       		.byte	0x9f
 13158 2436 00000000 		.4byte	0
 13159 243a 00000000 		.4byte	0
 13160              	.LLST217:
 13161 243e 00000000 		.4byte	.LVL414
 13162 2442 08000000 		.4byte	.LVL416
 13163 2446 0200     		.2byte	0x2
 13164 2448 30       		.byte	0x30
 13165 2449 9F       		.byte	0x9f
 13166 244a 08000000 		.4byte	.LVL416
 13167 244e 20000000 		.4byte	.LVL420
ARM GAS  /var/folders/m4/4md61f0s1_g0rzfghffqnxvr0000gn/T//ccSRVwbo.s 			page 232


 13168 2452 0100     		.2byte	0x1
 13169 2454 5E       		.byte	0x5e
 13170 2455 20000000 		.4byte	.LVL420
 13171 2459 28000000 		.4byte	.LVL422
 13172 245d 0700     		.2byte	0x7
 13173 245f 75       		.byte	0x75
 13174 2460 00       		.sleb128 0
 13175 2461 0A       		.byte	0xa
 13176 2462 0101     		.2byte	0x101
 13177 2464 21       		.byte	0x21
 13178 2465 9F       		.byte	0x9f
 13179 2466 28000000 		.4byte	.LVL422
 13180 246a 38000000 		.4byte	.LFE208
 13181 246e 0B00     		.2byte	0xb
 13182 2470 7E       		.byte	0x7e
 13183 2471 00       		.sleb128 0
 13184 2472 0A       		.byte	0xa
 13185 2473 FCFC     		.2byte	0xfcfc
 13186 2475 1A       		.byte	0x1a
 13187 2476 0A       		.byte	0xa
 13188 2477 0101     		.2byte	0x101
 13189 2479 21       		.byte	0x21
 13190 247a 9F       		.byte	0x9f
 13191 247b 00000000 		.4byte	0
 13192 247f 00000000 		.4byte	0
 13193              	.LLST218:
 13194 2483 00000000 		.4byte	.LVL414
 13195 2487 0C000000 		.4byte	.LVL417
 13196 248b 0200     		.2byte	0x2
 13197 248d 30       		.byte	0x30
 13198 248e 9F       		.byte	0x9f
 13199 248f 0C000000 		.4byte	.LVL417
 13200 2493 14000000 		.4byte	.LVL418
 13201 2497 0100     		.2byte	0x1
 13202 2499 54       		.byte	0x54
 13203 249a 20000000 		.4byte	.LVL420
 13204 249e 24000000 		.4byte	.LVL421
 13205 24a2 0800     		.2byte	0x8
 13206 24a4 73       		.byte	0x73
 13207 24a5 00       		.sleb128 0
 13208 24a6 34       		.byte	0x34
 13209 24a7 24       		.byte	0x24
 13210 24a8 72       		.byte	0x72
 13211 24a9 00       		.sleb128 0
 13212 24aa 21       		.byte	0x21
 13213 24ab 9F       		.byte	0x9f
 13214 24ac 24000000 		.4byte	.LVL421
 13215 24b0 2C000000 		.4byte	.LVL424
 13216 24b4 0900     		.2byte	0x9
 13217 24b6 F3       		.byte	0xf3
 13218 24b7 01       		.uleb128 0x1
 13219 24b8 53       		.byte	0x53
 13220 24b9 34       		.byte	0x34
 13221 24ba 24       		.byte	0x24
 13222 24bb 72       		.byte	0x72
 13223 24bc 00       		.sleb128 0
 13224 24bd 21       		.byte	0x21
ARM GAS  /var/folders/m4/4md61f0s1_g0rzfghffqnxvr0000gn/T//ccSRVwbo.s 			page 233


 13225 24be 9F       		.byte	0x9f
 13226 24bf 00000000 		.4byte	0
 13227 24c3 00000000 		.4byte	0
 13228              		.section	.debug_aranges,"",%progbits
 13229 0000 C4020000 		.4byte	0x2c4
 13230 0004 0200     		.2byte	0x2
 13231 0006 00000000 		.4byte	.Ldebug_info0
 13232 000a 04       		.byte	0x4
 13233 000b 00       		.byte	0
 13234 000c 0000     		.2byte	0
 13235 000e 0000     		.2byte	0
 13236 0010 00000000 		.4byte	.LFB123
 13237 0014 B8010000 		.4byte	.LFE123-.LFB123
 13238 0018 00000000 		.4byte	.LFB124
 13239 001c 98000000 		.4byte	.LFE124-.LFB124
 13240 0020 00000000 		.4byte	.LFB125
 13241 0024 12000000 		.4byte	.LFE125-.LFB125
 13242 0028 00000000 		.4byte	.LFB126
 13243 002c 06000000 		.4byte	.LFE126-.LFB126
 13244 0030 00000000 		.4byte	.LFB127
 13245 0034 0E000000 		.4byte	.LFE127-.LFB127
 13246 0038 00000000 		.4byte	.LFB128
 13247 003c 04000000 		.4byte	.LFE128-.LFB128
 13248 0040 00000000 		.4byte	.LFB129
 13249 0044 04000000 		.4byte	.LFE129-.LFB129
 13250 0048 00000000 		.4byte	.LFB130
 13251 004c 04000000 		.4byte	.LFE130-.LFB130
 13252 0050 00000000 		.4byte	.LFB131
 13253 0054 06000000 		.4byte	.LFE131-.LFB131
 13254 0058 00000000 		.4byte	.LFB132
 13255 005c 18000000 		.4byte	.LFE132-.LFB132
 13256 0060 00000000 		.4byte	.LFB133
 13257 0064 18000000 		.4byte	.LFE133-.LFB133
 13258 0068 00000000 		.4byte	.LFB134
 13259 006c 18000000 		.4byte	.LFE134-.LFB134
 13260 0070 00000000 		.4byte	.LFB135
 13261 0074 12000000 		.4byte	.LFE135-.LFB135
 13262 0078 00000000 		.4byte	.LFB136
 13263 007c 12000000 		.4byte	.LFE136-.LFB136
 13264 0080 00000000 		.4byte	.LFB137
 13265 0084 18000000 		.4byte	.LFE137-.LFB137
 13266 0088 00000000 		.4byte	.LFB138
 13267 008c 74000000 		.4byte	.LFE138-.LFB138
 13268 0090 00000000 		.4byte	.LFB139
 13269 0094 80000000 		.4byte	.LFE139-.LFB139
 13270 0098 00000000 		.4byte	.LFB140
 13271 009c 84000000 		.4byte	.LFE140-.LFB140
 13272 00a0 00000000 		.4byte	.LFB141
 13273 00a4 68000000 		.4byte	.LFE141-.LFB141
 13274 00a8 00000000 		.4byte	.LFB142
 13275 00ac 14000000 		.4byte	.LFE142-.LFB142
 13276 00b0 00000000 		.4byte	.LFB143
 13277 00b4 50000000 		.4byte	.LFE143-.LFB143
 13278 00b8 00000000 		.4byte	.LFB144
 13279 00bc 04000000 		.4byte	.LFE144-.LFB144
 13280 00c0 00000000 		.4byte	.LFB145
 13281 00c4 04000000 		.4byte	.LFE145-.LFB145
ARM GAS  /var/folders/m4/4md61f0s1_g0rzfghffqnxvr0000gn/T//ccSRVwbo.s 			page 234


 13282 00c8 00000000 		.4byte	.LFB146
 13283 00cc 04000000 		.4byte	.LFE146-.LFB146
 13284 00d0 00000000 		.4byte	.LFB147
 13285 00d4 04000000 		.4byte	.LFE147-.LFB147
 13286 00d8 00000000 		.4byte	.LFB148
 13287 00dc 0E000000 		.4byte	.LFE148-.LFB148
 13288 00e0 00000000 		.4byte	.LFB149
 13289 00e4 12000000 		.4byte	.LFE149-.LFB149
 13290 00e8 00000000 		.4byte	.LFB150
 13291 00ec 0E000000 		.4byte	.LFE150-.LFB150
 13292 00f0 00000000 		.4byte	.LFB151
 13293 00f4 12000000 		.4byte	.LFE151-.LFB151
 13294 00f8 00000000 		.4byte	.LFB152
 13295 00fc 0E000000 		.4byte	.LFE152-.LFB152
 13296 0100 00000000 		.4byte	.LFB153
 13297 0104 12000000 		.4byte	.LFE153-.LFB153
 13298 0108 00000000 		.4byte	.LFB154
 13299 010c 0E000000 		.4byte	.LFE154-.LFB154
 13300 0110 00000000 		.4byte	.LFB155
 13301 0114 12000000 		.4byte	.LFE155-.LFB155
 13302 0118 00000000 		.4byte	.LFB156
 13303 011c 0E000000 		.4byte	.LFE156-.LFB156
 13304 0120 00000000 		.4byte	.LFB157
 13305 0124 12000000 		.4byte	.LFE157-.LFB157
 13306 0128 00000000 		.4byte	.LFB158
 13307 012c 0E000000 		.4byte	.LFE158-.LFB158
 13308 0130 00000000 		.4byte	.LFB159
 13309 0134 12000000 		.4byte	.LFE159-.LFB159
 13310 0138 00000000 		.4byte	.LFB160
 13311 013c 0E000000 		.4byte	.LFE160-.LFB160
 13312 0140 00000000 		.4byte	.LFB161
 13313 0144 10000000 		.4byte	.LFE161-.LFB161
 13314 0148 00000000 		.4byte	.LFB162
 13315 014c 0E000000 		.4byte	.LFE162-.LFB162
 13316 0150 00000000 		.4byte	.LFB163
 13317 0154 10000000 		.4byte	.LFE163-.LFB163
 13318 0158 00000000 		.4byte	.LFB164
 13319 015c 0E000000 		.4byte	.LFE164-.LFB164
 13320 0160 00000000 		.4byte	.LFB165
 13321 0164 0E000000 		.4byte	.LFE165-.LFB165
 13322 0168 00000000 		.4byte	.LFB166
 13323 016c 12000000 		.4byte	.LFE166-.LFB166
 13324 0170 00000000 		.4byte	.LFB167
 13325 0174 12000000 		.4byte	.LFE167-.LFB167
 13326 0178 00000000 		.4byte	.LFB168
 13327 017c 12000000 		.4byte	.LFE168-.LFB168
 13328 0180 00000000 		.4byte	.LFB169
 13329 0184 12000000 		.4byte	.LFE169-.LFB169
 13330 0188 00000000 		.4byte	.LFB170
 13331 018c 12000000 		.4byte	.LFE170-.LFB170
 13332 0190 00000000 		.4byte	.LFB171
 13333 0194 20000000 		.4byte	.LFE171-.LFB171
 13334 0198 00000000 		.4byte	.LFB172
 13335 019c 20000000 		.4byte	.LFE172-.LFB172
 13336 01a0 00000000 		.4byte	.LFB173
 13337 01a4 42010000 		.4byte	.LFE173-.LFB173
 13338 01a8 00000000 		.4byte	.LFB174
ARM GAS  /var/folders/m4/4md61f0s1_g0rzfghffqnxvr0000gn/T//ccSRVwbo.s 			page 235


 13339 01ac 10000000 		.4byte	.LFE174-.LFB174
 13340 01b0 00000000 		.4byte	.LFB175
 13341 01b4 42010000 		.4byte	.LFE175-.LFB175
 13342 01b8 00000000 		.4byte	.LFB176
 13343 01bc 04000000 		.4byte	.LFE176-.LFB176
 13344 01c0 00000000 		.4byte	.LFB177
 13345 01c4 04000000 		.4byte	.LFE177-.LFB177
 13346 01c8 00000000 		.4byte	.LFB178
 13347 01cc 04000000 		.4byte	.LFE178-.LFB178
 13348 01d0 00000000 		.4byte	.LFB179
 13349 01d4 04000000 		.4byte	.LFE179-.LFB179
 13350 01d8 00000000 		.4byte	.LFB180
 13351 01dc 12000000 		.4byte	.LFE180-.LFB180
 13352 01e0 00000000 		.4byte	.LFB181
 13353 01e4 16000000 		.4byte	.LFE181-.LFB181
 13354 01e8 00000000 		.4byte	.LFB182
 13355 01ec 12000000 		.4byte	.LFE182-.LFB182
 13356 01f0 00000000 		.4byte	.LFB183
 13357 01f4 16000000 		.4byte	.LFE183-.LFB183
 13358 01f8 00000000 		.4byte	.LFB184
 13359 01fc 26000000 		.4byte	.LFE184-.LFB184
 13360 0200 00000000 		.4byte	.LFB185
 13361 0204 12000000 		.4byte	.LFE185-.LFB185
 13362 0208 00000000 		.4byte	.LFB186
 13363 020c 14000000 		.4byte	.LFE186-.LFB186
 13364 0210 00000000 		.4byte	.LFB187
 13365 0214 18000000 		.4byte	.LFE187-.LFB187
 13366 0218 00000000 		.4byte	.LFB188
 13367 021c 18000000 		.4byte	.LFE188-.LFB188
 13368 0220 00000000 		.4byte	.LFB190
 13369 0224 04000000 		.4byte	.LFE190-.LFB190
 13370 0228 00000000 		.4byte	.LFB191
 13371 022c 0C000000 		.4byte	.LFE191-.LFB191
 13372 0230 00000000 		.4byte	.LFB193
 13373 0234 14000000 		.4byte	.LFE193-.LFB193
 13374 0238 00000000 		.4byte	.LFB194
 13375 023c 08000000 		.4byte	.LFE194-.LFB194
 13376 0240 00000000 		.4byte	.LFB195
 13377 0244 06000000 		.4byte	.LFE195-.LFB195
 13378 0248 00000000 		.4byte	.LFB196
 13379 024c 16000000 		.4byte	.LFE196-.LFB196
 13380 0250 00000000 		.4byte	.LFB197
 13381 0254 18000000 		.4byte	.LFE197-.LFB197
 13382 0258 00000000 		.4byte	.LFB198
 13383 025c 0C000000 		.4byte	.LFE198-.LFB198
 13384 0260 00000000 		.4byte	.LFB199
 13385 0264 16000000 		.4byte	.LFE199-.LFB199
 13386 0268 00000000 		.4byte	.LFB200
 13387 026c 7E000000 		.4byte	.LFE200-.LFB200
 13388 0270 00000000 		.4byte	.LFB201
 13389 0274 26000000 		.4byte	.LFE201-.LFB201
 13390 0278 00000000 		.4byte	.LFB202
 13391 027c 20000000 		.4byte	.LFE202-.LFB202
 13392 0280 00000000 		.4byte	.LFB203
 13393 0284 0E000000 		.4byte	.LFE203-.LFB203
 13394 0288 00000000 		.4byte	.LFB204
 13395 028c 12000000 		.4byte	.LFE204-.LFB204
ARM GAS  /var/folders/m4/4md61f0s1_g0rzfghffqnxvr0000gn/T//ccSRVwbo.s 			page 236


 13396 0290 00000000 		.4byte	.LFB205
 13397 0294 12000000 		.4byte	.LFE205-.LFB205
 13398 0298 00000000 		.4byte	.LFB206
 13399 029c 12000000 		.4byte	.LFE206-.LFB206
 13400 02a0 00000000 		.4byte	.LFB207
 13401 02a4 18000000 		.4byte	.LFE207-.LFB207
 13402 02a8 00000000 		.4byte	.LFB208
 13403 02ac 38000000 		.4byte	.LFE208-.LFB208
 13404 02b0 00000000 		.4byte	.LFB209
 13405 02b4 18000000 		.4byte	.LFE209-.LFB209
 13406 02b8 00000000 		.4byte	.LFB210
 13407 02bc 04000000 		.4byte	.LFE210-.LFB210
 13408 02c0 00000000 		.4byte	0
 13409 02c4 00000000 		.4byte	0
 13410              		.section	.debug_ranges,"",%progbits
 13411              	.Ldebug_ranges0:
 13412 0000 0E000000 		.4byte	.LBB46
 13413 0004 10000000 		.4byte	.LBE46
 13414 0008 02010000 		.4byte	.LBB65
 13415 000c 30010000 		.4byte	.LBE65
 13416 0010 00000000 		.4byte	0
 13417 0014 00000000 		.4byte	0
 13418 0018 62000000 		.4byte	.LBB53
 13419 001c 64000000 		.4byte	.LBE53
 13420 0020 6C000000 		.4byte	.LBB56
 13421 0024 96000000 		.4byte	.LBE56
 13422 0028 00000000 		.4byte	0
 13423 002c 00000000 		.4byte	0
 13424 0030 A8000000 		.4byte	.LBB59
 13425 0034 AA000000 		.4byte	.LBE59
 13426 0038 B2000000 		.4byte	.LBB62
 13427 003c E6000000 		.4byte	.LBE62
 13428 0040 00000000 		.4byte	0
 13429 0044 00000000 		.4byte	0
 13430 0048 22000000 		.4byte	.LBB68
 13431 004c 24000000 		.4byte	.LBE68
 13432 0050 28000000 		.4byte	.LBB71
 13433 0054 5C000000 		.4byte	.LBE71
 13434 0058 00000000 		.4byte	0
 13435 005c 00000000 		.4byte	0
 13436 0060 B0000000 		.4byte	.LBB78
 13437 0064 B2000000 		.4byte	.LBE78
 13438 0068 B6000000 		.4byte	.LBB81
 13439 006c EA000000 		.4byte	.LBE81
 13440 0070 00000000 		.4byte	0
 13441 0074 00000000 		.4byte	0
 13442 0078 04000000 		.4byte	.LBB90
 13443 007c 06000000 		.4byte	.LBE90
 13444 0080 4C000000 		.4byte	.LBB97
 13445 0084 7E000000 		.4byte	.LBE97
 13446 0088 00000000 		.4byte	0
 13447 008c 00000000 		.4byte	0
 13448 0090 00000000 		.4byte	.LFB123
 13449 0094 B8010000 		.4byte	.LFE123
 13450 0098 00000000 		.4byte	.LFB124
 13451 009c 98000000 		.4byte	.LFE124
 13452 00a0 00000000 		.4byte	.LFB125
ARM GAS  /var/folders/m4/4md61f0s1_g0rzfghffqnxvr0000gn/T//ccSRVwbo.s 			page 237


 13453 00a4 12000000 		.4byte	.LFE125
 13454 00a8 00000000 		.4byte	.LFB126
 13455 00ac 06000000 		.4byte	.LFE126
 13456 00b0 00000000 		.4byte	.LFB127
 13457 00b4 0E000000 		.4byte	.LFE127
 13458 00b8 00000000 		.4byte	.LFB128
 13459 00bc 04000000 		.4byte	.LFE128
 13460 00c0 00000000 		.4byte	.LFB129
 13461 00c4 04000000 		.4byte	.LFE129
 13462 00c8 00000000 		.4byte	.LFB130
 13463 00cc 04000000 		.4byte	.LFE130
 13464 00d0 00000000 		.4byte	.LFB131
 13465 00d4 06000000 		.4byte	.LFE131
 13466 00d8 00000000 		.4byte	.LFB132
 13467 00dc 18000000 		.4byte	.LFE132
 13468 00e0 00000000 		.4byte	.LFB133
 13469 00e4 18000000 		.4byte	.LFE133
 13470 00e8 00000000 		.4byte	.LFB134
 13471 00ec 18000000 		.4byte	.LFE134
 13472 00f0 00000000 		.4byte	.LFB135
 13473 00f4 12000000 		.4byte	.LFE135
 13474 00f8 00000000 		.4byte	.LFB136
 13475 00fc 12000000 		.4byte	.LFE136
 13476 0100 00000000 		.4byte	.LFB137
 13477 0104 18000000 		.4byte	.LFE137
 13478 0108 00000000 		.4byte	.LFB138
 13479 010c 74000000 		.4byte	.LFE138
 13480 0110 00000000 		.4byte	.LFB139
 13481 0114 80000000 		.4byte	.LFE139
 13482 0118 00000000 		.4byte	.LFB140
 13483 011c 84000000 		.4byte	.LFE140
 13484 0120 00000000 		.4byte	.LFB141
 13485 0124 68000000 		.4byte	.LFE141
 13486 0128 00000000 		.4byte	.LFB142
 13487 012c 14000000 		.4byte	.LFE142
 13488 0130 00000000 		.4byte	.LFB143
 13489 0134 50000000 		.4byte	.LFE143
 13490 0138 00000000 		.4byte	.LFB144
 13491 013c 04000000 		.4byte	.LFE144
 13492 0140 00000000 		.4byte	.LFB145
 13493 0144 04000000 		.4byte	.LFE145
 13494 0148 00000000 		.4byte	.LFB146
 13495 014c 04000000 		.4byte	.LFE146
 13496 0150 00000000 		.4byte	.LFB147
 13497 0154 04000000 		.4byte	.LFE147
 13498 0158 00000000 		.4byte	.LFB148
 13499 015c 0E000000 		.4byte	.LFE148
 13500 0160 00000000 		.4byte	.LFB149
 13501 0164 12000000 		.4byte	.LFE149
 13502 0168 00000000 		.4byte	.LFB150
 13503 016c 0E000000 		.4byte	.LFE150
 13504 0170 00000000 		.4byte	.LFB151
 13505 0174 12000000 		.4byte	.LFE151
 13506 0178 00000000 		.4byte	.LFB152
 13507 017c 0E000000 		.4byte	.LFE152
 13508 0180 00000000 		.4byte	.LFB153
 13509 0184 12000000 		.4byte	.LFE153
ARM GAS  /var/folders/m4/4md61f0s1_g0rzfghffqnxvr0000gn/T//ccSRVwbo.s 			page 238


 13510 0188 00000000 		.4byte	.LFB154
 13511 018c 0E000000 		.4byte	.LFE154
 13512 0190 00000000 		.4byte	.LFB155
 13513 0194 12000000 		.4byte	.LFE155
 13514 0198 00000000 		.4byte	.LFB156
 13515 019c 0E000000 		.4byte	.LFE156
 13516 01a0 00000000 		.4byte	.LFB157
 13517 01a4 12000000 		.4byte	.LFE157
 13518 01a8 00000000 		.4byte	.LFB158
 13519 01ac 0E000000 		.4byte	.LFE158
 13520 01b0 00000000 		.4byte	.LFB159
 13521 01b4 12000000 		.4byte	.LFE159
 13522 01b8 00000000 		.4byte	.LFB160
 13523 01bc 0E000000 		.4byte	.LFE160
 13524 01c0 00000000 		.4byte	.LFB161
 13525 01c4 10000000 		.4byte	.LFE161
 13526 01c8 00000000 		.4byte	.LFB162
 13527 01cc 0E000000 		.4byte	.LFE162
 13528 01d0 00000000 		.4byte	.LFB163
 13529 01d4 10000000 		.4byte	.LFE163
 13530 01d8 00000000 		.4byte	.LFB164
 13531 01dc 0E000000 		.4byte	.LFE164
 13532 01e0 00000000 		.4byte	.LFB165
 13533 01e4 0E000000 		.4byte	.LFE165
 13534 01e8 00000000 		.4byte	.LFB166
 13535 01ec 12000000 		.4byte	.LFE166
 13536 01f0 00000000 		.4byte	.LFB167
 13537 01f4 12000000 		.4byte	.LFE167
 13538 01f8 00000000 		.4byte	.LFB168
 13539 01fc 12000000 		.4byte	.LFE168
 13540 0200 00000000 		.4byte	.LFB169
 13541 0204 12000000 		.4byte	.LFE169
 13542 0208 00000000 		.4byte	.LFB170
 13543 020c 12000000 		.4byte	.LFE170
 13544 0210 00000000 		.4byte	.LFB171
 13545 0214 20000000 		.4byte	.LFE171
 13546 0218 00000000 		.4byte	.LFB172
 13547 021c 20000000 		.4byte	.LFE172
 13548 0220 00000000 		.4byte	.LFB173
 13549 0224 42010000 		.4byte	.LFE173
 13550 0228 00000000 		.4byte	.LFB174
 13551 022c 10000000 		.4byte	.LFE174
 13552 0230 00000000 		.4byte	.LFB175
 13553 0234 42010000 		.4byte	.LFE175
 13554 0238 00000000 		.4byte	.LFB176
 13555 023c 04000000 		.4byte	.LFE176
 13556 0240 00000000 		.4byte	.LFB177
 13557 0244 04000000 		.4byte	.LFE177
 13558 0248 00000000 		.4byte	.LFB178
 13559 024c 04000000 		.4byte	.LFE178
 13560 0250 00000000 		.4byte	.LFB179
 13561 0254 04000000 		.4byte	.LFE179
 13562 0258 00000000 		.4byte	.LFB180
 13563 025c 12000000 		.4byte	.LFE180
 13564 0260 00000000 		.4byte	.LFB181
 13565 0264 16000000 		.4byte	.LFE181
 13566 0268 00000000 		.4byte	.LFB182
ARM GAS  /var/folders/m4/4md61f0s1_g0rzfghffqnxvr0000gn/T//ccSRVwbo.s 			page 239


 13567 026c 12000000 		.4byte	.LFE182
 13568 0270 00000000 		.4byte	.LFB183
 13569 0274 16000000 		.4byte	.LFE183
 13570 0278 00000000 		.4byte	.LFB184
 13571 027c 26000000 		.4byte	.LFE184
 13572 0280 00000000 		.4byte	.LFB185
 13573 0284 12000000 		.4byte	.LFE185
 13574 0288 00000000 		.4byte	.LFB186
 13575 028c 14000000 		.4byte	.LFE186
 13576 0290 00000000 		.4byte	.LFB187
 13577 0294 18000000 		.4byte	.LFE187
 13578 0298 00000000 		.4byte	.LFB188
 13579 029c 18000000 		.4byte	.LFE188
 13580 02a0 00000000 		.4byte	.LFB190
 13581 02a4 04000000 		.4byte	.LFE190
 13582 02a8 00000000 		.4byte	.LFB191
 13583 02ac 0C000000 		.4byte	.LFE191
 13584 02b0 00000000 		.4byte	.LFB193
 13585 02b4 14000000 		.4byte	.LFE193
 13586 02b8 00000000 		.4byte	.LFB194
 13587 02bc 08000000 		.4byte	.LFE194
 13588 02c0 00000000 		.4byte	.LFB195
 13589 02c4 06000000 		.4byte	.LFE195
 13590 02c8 00000000 		.4byte	.LFB196
 13591 02cc 16000000 		.4byte	.LFE196
 13592 02d0 00000000 		.4byte	.LFB197
 13593 02d4 18000000 		.4byte	.LFE197
 13594 02d8 00000000 		.4byte	.LFB198
 13595 02dc 0C000000 		.4byte	.LFE198
 13596 02e0 00000000 		.4byte	.LFB199
 13597 02e4 16000000 		.4byte	.LFE199
 13598 02e8 00000000 		.4byte	.LFB200
 13599 02ec 7E000000 		.4byte	.LFE200
 13600 02f0 00000000 		.4byte	.LFB201
 13601 02f4 26000000 		.4byte	.LFE201
 13602 02f8 00000000 		.4byte	.LFB202
 13603 02fc 20000000 		.4byte	.LFE202
 13604 0300 00000000 		.4byte	.LFB203
 13605 0304 0E000000 		.4byte	.LFE203
 13606 0308 00000000 		.4byte	.LFB204
 13607 030c 12000000 		.4byte	.LFE204
 13608 0310 00000000 		.4byte	.LFB205
 13609 0314 12000000 		.4byte	.LFE205
 13610 0318 00000000 		.4byte	.LFB206
 13611 031c 12000000 		.4byte	.LFE206
 13612 0320 00000000 		.4byte	.LFB207
 13613 0324 18000000 		.4byte	.LFE207
 13614 0328 00000000 		.4byte	.LFB208
 13615 032c 38000000 		.4byte	.LFE208
 13616 0330 00000000 		.4byte	.LFB209
 13617 0334 18000000 		.4byte	.LFE209
 13618 0338 00000000 		.4byte	.LFB210
 13619 033c 04000000 		.4byte	.LFE210
 13620 0340 00000000 		.4byte	0
 13621 0344 00000000 		.4byte	0
 13622              		.section	.debug_line,"",%progbits
 13623              	.Ldebug_line0:
ARM GAS  /var/folders/m4/4md61f0s1_g0rzfghffqnxvr0000gn/T//ccSRVwbo.s 			page 240


 13624 0000 2D0C0000 		.section	.debug_str,"MS",%progbits,1
 13624      02002E02 
 13624      00000201 
 13624      FB0E0D00 
 13624      01010101 
 13625              	.LASF106:
 13626 0000 54494D5F 		.ascii	"TIM_OPMode\000"
 13626      4F504D6F 
 13626      646500
 13627              	.LASF101:
 13628 000b 4E657753 		.ascii	"NewState\000"
 13628      74617465 
 13628      00
 13629              	.LASF130:
 13630 0014 54494D5F 		.ascii	"TIM_ForcedOC2Config\000"
 13630      466F7263 
 13630      65644F43 
 13630      32436F6E 
 13630      66696700 
 13631              	.LASF105:
 13632 0028 54494D5F 		.ascii	"TIM_SelectOnePulseMode\000"
 13632      53656C65 
 13632      63744F6E 
 13632      6550756C 
 13632      73654D6F 
 13633              	.LASF188:
 13634 003f 54494D5F 		.ascii	"TIM_DMACmd\000"
 13634      444D4143 
 13634      6D6400
 13635              	.LASF19:
 13636 004a 44494552 		.ascii	"DIER\000"
 13636      00
 13637              	.LASF129:
 13638 004f 54494D5F 		.ascii	"TIM_ForcedAction\000"
 13638      466F7263 
 13638      65644163 
 13638      74696F6E 
 13638      00
 13639              	.LASF79:
 13640 0060 54494D5F 		.ascii	"TIM_InputTriggerSource\000"
 13640      496E7075 
 13640      74547269 
 13640      67676572 
 13640      536F7572 
 13641              	.LASF199:
 13642 0077 54494D5F 		.ascii	"TIM_TRGOSource\000"
 13642      5452474F 
 13642      536F7572 
 13642      636500
 13643              	.LASF37:
 13644 0086 54494D5F 		.ascii	"TIM_CounterMode\000"
 13644      436F756E 
 13644      7465724D 
 13644      6F646500 
 13645              	.LASF97:
 13646 0096 4175746F 		.ascii	"Autoreload\000"
 13646      72656C6F 
ARM GAS  /var/folders/m4/4md61f0s1_g0rzfghffqnxvr0000gn/T//ccSRVwbo.s 			page 241


 13646      616400
 13647              	.LASF132:
 13648 00a1 54494D5F 		.ascii	"TIM_ForcedOC4Config\000"
 13648      466F7263 
 13648      65644F43 
 13648      34436F6E 
 13648      66696700 
 13649              	.LASF143:
 13650 00b5 54494D5F 		.ascii	"TIM_ClearOC1Ref\000"
 13650      436C6561 
 13650      724F4331 
 13650      52656600 
 13651              	.LASF31:
 13652 00c5 466C6167 		.ascii	"FlagStatus\000"
 13652      53746174 
 13652      757300
 13653              	.LASF3:
 13654 00d0 5F5F7569 		.ascii	"__uint8_t\000"
 13654      6E74385F 
 13654      7400
 13655              	.LASF178:
 13656 00da 54494D5F 		.ascii	"TIM_FLAG\000"
 13656      464C4147 
 13656      00
 13657              	.LASF121:
 13658 00e3 436F6D70 		.ascii	"Compare1\000"
 13658      61726531 
 13658      00
 13659              	.LASF120:
 13660 00ec 54494D5F 		.ascii	"TIM_SetCompare1\000"
 13660      53657443 
 13660      6F6D7061 
 13660      72653100 
 13661              	.LASF207:
 13662 00fc 54494D5F 		.ascii	"TIM_IC2Polarity\000"
 13662      49433250 
 13662      6F6C6172 
 13662      69747900 
 13663              	.LASF100:
 13664 010c 54494D5F 		.ascii	"TIM_UpdateDisableConfig\000"
 13664      55706461 
 13664      74654469 
 13664      7361626C 
 13664      65436F6E 
 13665              	.LASF125:
 13666 0124 436F6D70 		.ascii	"Compare3\000"
 13666      61726533 
 13666      00
 13667              	.LASF45:
 13668 012d 54494D5F 		.ascii	"TIM_Pulse\000"
 13668      50756C73 
 13668      6500
 13669              	.LASF211:
 13670 0137 5243435F 		.ascii	"RCC_APB1PeriphResetCmd\000"
 13670      41504231 
 13670      50657269 
 13670      70685265 
ARM GAS  /var/folders/m4/4md61f0s1_g0rzfghffqnxvr0000gn/T//ccSRVwbo.s 			page 242


 13670      73657443 
 13671              	.LASF67:
 13672 014e 746D7063 		.ascii	"tmpccmr1\000"
 13672      636D7231 
 13672      00
 13673              	.LASF75:
 13674 0157 746D7063 		.ascii	"tmpccmr2\000"
 13674      636D7232 
 13674      00
 13675              	.LASF33:
 13676 0160 44495341 		.ascii	"DISABLE\000"
 13676      424C4500 
 13677              	.LASF113:
 13678 0168 746D7063 		.ascii	"tmpcr2\000"
 13678      723200
 13679              	.LASF78:
 13680 016f 54494D5F 		.ascii	"TIM_SelectInputTrigger\000"
 13680      53656C65 
 13680      6374496E 
 13680      70757454 
 13680      72696767 
 13681              	.LASF24:
 13682 0186 43435232 		.ascii	"CCR2\000"
 13682      00
 13683              	.LASF55:
 13684 018b 54494D5F 		.ascii	"TIM_ICFilter\000"
 13684      49434669 
 13684      6C746572 
 13684      00
 13685              	.LASF191:
 13686 0198 54494D5F 		.ascii	"TIM_InternalClockConfig\000"
 13686      496E7465 
 13686      726E616C 
 13686      436C6F63 
 13686      6B436F6E 
 13687              	.LASF150:
 13688 01b0 54494D5F 		.ascii	"TIM_OC2PolarityConfig\000"
 13688      4F433250 
 13688      6F6C6172 
 13688      69747943 
 13688      6F6E6669 
 13689              	.LASF104:
 13690 01c6 54494D5F 		.ascii	"TIM_ARRPreloadConfig\000"
 13690      41525250 
 13690      72656C6F 
 13690      6164436F 
 13690      6E666967 
 13691              	.LASF216:
 13692 01db 49544D5F 		.ascii	"ITM_RxBuffer\000"
 13692      52784275 
 13692      66666572 
 13692      00
 13693              	.LASF53:
 13694 01e8 54494D5F 		.ascii	"TIM_ICSelection\000"
 13694      49435365 
 13694      6C656374 
 13694      696F6E00 
ARM GAS  /var/folders/m4/4md61f0s1_g0rzfghffqnxvr0000gn/T//ccSRVwbo.s 			page 243


 13695              	.LASF119:
 13696 01f8 746D7031 		.ascii	"tmp1\000"
 13696      00
 13697              	.LASF204:
 13698 01fd 54494D5F 		.ascii	"TIM_EncoderInterfaceConfig\000"
 13698      456E636F 
 13698      64657249 
 13698      6E746572 
 13698      66616365 
 13699              	.LASF135:
 13700 0218 54494D5F 		.ascii	"TIM_OC2PreloadConfig\000"
 13700      4F433250 
 13700      72656C6F 
 13700      6164436F 
 13700      6E666967 
 13701              	.LASF175:
 13702 022d 54494D5F 		.ascii	"TIM_GenerateEvent\000"
 13702      47656E65 
 13702      72617465 
 13702      4576656E 
 13702      7400
 13703              	.LASF206:
 13704 023f 54494D5F 		.ascii	"TIM_IC1Polarity\000"
 13704      49433150 
 13704      6F6C6172 
 13704      69747900 
 13705              	.LASF139:
 13706 024f 54494D5F 		.ascii	"TIM_OCFast\000"
 13706      4F434661 
 13706      737400
 13707              	.LASF51:
 13708 025a 54494D5F 		.ascii	"TIM_Channel\000"
 13708      4368616E 
 13708      6E656C00 
 13709              	.LASF20:
 13710 0266 43434D52 		.ascii	"CCMR1\000"
 13710      3100
 13711              	.LASF21:
 13712 026c 43434D52 		.ascii	"CCMR2\000"
 13712      3200
 13713              	.LASF92:
 13714 0272 54494D5F 		.ascii	"TIM_CounterModeConfig\000"
 13714      436F756E 
 13714      7465724D 
 13714      6F646543 
 13714      6F6E6669 
 13715              	.LASF0:
 13716 0288 7369676E 		.ascii	"signed char\000"
 13716      65642063 
 13716      68617200 
 13717              	.LASF185:
 13718 0294 54494D5F 		.ascii	"TIM_DMAConfig\000"
 13718      444D4143 
 13718      6F6E6669 
 13718      6700
 13719              	.LASF155:
 13720 02a2 54494D5F 		.ascii	"TIM_CCxCmd\000"
ARM GAS  /var/folders/m4/4md61f0s1_g0rzfghffqnxvr0000gn/T//ccSRVwbo.s 			page 244


 13720      43437843 
 13720      6D6400
 13721              	.LASF11:
 13722 02ad 6C6F6E67 		.ascii	"long long unsigned int\000"
 13722      206C6F6E 
 13722      6720756E 
 13722      7369676E 
 13722      65642069 
 13723              	.LASF134:
 13724 02c4 54494D5F 		.ascii	"TIM_OCPreload\000"
 13724      4F435072 
 13724      656C6F61 
 13724      6400
 13725              	.LASF115:
 13726 02d2 54494D5F 		.ascii	"TIM_OC3Init\000"
 13726      4F433349 
 13726      6E697400 
 13727              	.LASF181:
 13728 02de 54494D5F 		.ascii	"TIM_IT\000"
 13728      495400
 13729              	.LASF7:
 13730 02e5 6C6F6E67 		.ascii	"long int\000"
 13730      20696E74 
 13730      00
 13731              	.LASF44:
 13732 02ee 54494D5F 		.ascii	"TIM_OutputNState\000"
 13732      4F757470 
 13732      75744E53 
 13732      74617465 
 13732      00
 13733              	.LASF34:
 13734 02ff 454E4142 		.ascii	"ENABLE\000"
 13734      4C4500
 13735              	.LASF112:
 13736 0306 746D7063 		.ascii	"tmpccmrx\000"
 13736      636D7278 
 13736      00
 13737              	.LASF22:
 13738 030f 43434552 		.ascii	"CCER\000"
 13738      00
 13739              	.LASF10:
 13740 0314 6C6F6E67 		.ascii	"long long int\000"
 13740      206C6F6E 
 13740      6720696E 
 13740      7400
 13741              	.LASF14:
 13742 0322 75696E74 		.ascii	"uint16_t\000"
 13742      31365F74 
 13742      00
 13743              	.LASF108:
 13744 032b 54494D5F 		.ascii	"TIM_CKD\000"
 13744      434B4400 
 13745              	.LASF96:
 13746 0333 54494D5F 		.ascii	"TIM_SetAutoreload\000"
 13746      53657441 
 13746      75746F72 
 13746      656C6F61 
ARM GAS  /var/folders/m4/4md61f0s1_g0rzfghffqnxvr0000gn/T//ccSRVwbo.s 			page 245


 13746      6400
 13747              	.LASF161:
 13748 0345 54494D5F 		.ascii	"TIM_ICStructInit\000"
 13748      49435374 
 13748      72756374 
 13748      496E6974 
 13748      00
 13749              	.LASF166:
 13750 0356 54494D5F 		.ascii	"TIM_GetCapture2\000"
 13750      47657443 
 13750      61707475 
 13750      72653200 
 13751              	.LASF167:
 13752 0366 54494D5F 		.ascii	"TIM_GetCapture3\000"
 13752      47657443 
 13752      61707475 
 13752      72653300 
 13753              	.LASF168:
 13754 0376 54494D5F 		.ascii	"TIM_GetCapture4\000"
 13754      47657443 
 13754      61707475 
 13754      72653400 
 13755              	.LASF163:
 13756 0386 69636F70 		.ascii	"icoppositepolarity\000"
 13756      706F7369 
 13756      7465706F 
 13756      6C617269 
 13756      747900
 13757              	.LASF103:
 13758 0399 54494D5F 		.ascii	"TIM_UpdateSource\000"
 13758      55706461 
 13758      7465536F 
 13758      75726365 
 13758      00
 13759              	.LASF158:
 13760 03aa 54494D5F 		.ascii	"TIM_CCxN\000"
 13760      4343784E 
 13760      00
 13761              	.LASF190:
 13762 03b3 54494D5F 		.ascii	"TIM_SelectCCDMA\000"
 13762      53656C65 
 13762      63744343 
 13762      444D4100 
 13763              	.LASF4:
 13764 03c3 5F5F7569 		.ascii	"__uint16_t\000"
 13764      6E743136 
 13764      5F7400
 13765              	.LASF29:
 13766 03ce 54494D5F 		.ascii	"TIM_TypeDef\000"
 13766      54797065 
 13766      44656600 
 13767              	.LASF8:
 13768 03da 5F5F7569 		.ascii	"__uint32_t\000"
 13768      6E743332 
 13768      5F7400
 13769              	.LASF133:
 13770 03e5 54494D5F 		.ascii	"TIM_OC1PreloadConfig\000"
ARM GAS  /var/folders/m4/4md61f0s1_g0rzfghffqnxvr0000gn/T//ccSRVwbo.s 			page 246


 13770      4F433150 
 13770      72656C6F 
 13770      6164436F 
 13770      6E666967 
 13771              	.LASF187:
 13772 03fa 54494D5F 		.ascii	"TIM_DMABurstLength\000"
 13772      444D4142 
 13772      75727374 
 13772      4C656E67 
 13772      746800
 13773              	.LASF43:
 13774 040d 54494D5F 		.ascii	"TIM_OutputState\000"
 13774      4F757470 
 13774      75745374 
 13774      61746500 
 13775              	.LASF122:
 13776 041d 54494D5F 		.ascii	"TIM_SetCompare2\000"
 13776      53657443 
 13776      6F6D7061 
 13776      72653200 
 13777              	.LASF124:
 13778 042d 54494D5F 		.ascii	"TIM_SetCompare3\000"
 13778      53657443 
 13778      6F6D7061 
 13778      72653300 
 13779              	.LASF173:
 13780 043d 54494D5F 		.ascii	"TIM_SelectCOM\000"
 13780      53656C65 
 13780      6374434F 
 13780      4D00
 13781              	.LASF68:
 13782 044b 746D7063 		.ascii	"tmpccer\000"
 13782      63657200 
 13783              	.LASF151:
 13784 0453 54494D5F 		.ascii	"TIM_OC2NPolarityConfig\000"
 13784      4F43324E 
 13784      506F6C61 
 13784      72697479 
 13784      436F6E66 
 13785              	.LASF12:
 13786 046a 756E7369 		.ascii	"unsigned int\000"
 13786      676E6564 
 13786      20696E74 
 13786      00
 13787              	.LASF77:
 13788 0477 5449345F 		.ascii	"TI4_Config\000"
 13788      436F6E66 
 13788      696700
 13789              	.LASF46:
 13790 0482 54494D5F 		.ascii	"TIM_OCPolarity\000"
 13790      4F43506F 
 13790      6C617269 
 13790      747900
 13791              	.LASF39:
 13792 0491 54494D5F 		.ascii	"TIM_ClockDivision\000"
 13792      436C6F63 
 13792      6B446976 
ARM GAS  /var/folders/m4/4md61f0s1_g0rzfghffqnxvr0000gn/T//ccSRVwbo.s 			page 247


 13792      6973696F 
 13792      6E00
 13793              	.LASF99:
 13794 04a3 54494D5F 		.ascii	"TIM_GetPrescaler\000"
 13794      47657450 
 13794      72657363 
 13794      616C6572 
 13794      00
 13795              	.LASF98:
 13796 04b4 54494D5F 		.ascii	"TIM_GetCounter\000"
 13796      47657443 
 13796      6F756E74 
 13796      657200
 13797              	.LASF88:
 13798 04c3 54494D5F 		.ascii	"TIM_TimeBaseStructInit\000"
 13798      54696D65 
 13798      42617365 
 13798      53747275 
 13798      6374496E 
 13799              	.LASF165:
 13800 04da 54494D5F 		.ascii	"TIM_GetCapture1\000"
 13800      47657443 
 13800      61707475 
 13800      72653100 
 13801              	.LASF203:
 13802 04ea 54494D5F 		.ascii	"TIM_MasterSlaveMode\000"
 13802      4D617374 
 13802      6572536C 
 13802      6176654D 
 13802      6F646500 
 13803              	.LASF200:
 13804 04fe 54494D5F 		.ascii	"TIM_SelectSlaveMode\000"
 13804      53656C65 
 13804      6374536C 
 13804      6176654D 
 13804      6F646500 
 13805              	.LASF202:
 13806 0512 54494D5F 		.ascii	"TIM_SelectMasterSlaveMode\000"
 13806      53656C65 
 13806      63744D61 
 13806      73746572 
 13806      536C6176 
 13807              	.LASF177:
 13808 052c 54494D5F 		.ascii	"TIM_GetFlagStatus\000"
 13808      47657446 
 13808      6C616753 
 13808      74617475 
 13808      7300
 13809              	.LASF64:
 13810 053e 54494D5F 		.ascii	"TIM_BDTRInitTypeDef\000"
 13810      42445452 
 13810      496E6974 
 13810      54797065 
 13810      44656600 
 13811              	.LASF111:
 13812 0552 54494D5F 		.ascii	"TIM_OCInitStruct\000"
 13812      4F43496E 
ARM GAS  /var/folders/m4/4md61f0s1_g0rzfghffqnxvr0000gn/T//ccSRVwbo.s 			page 248


 13812      69745374 
 13812      72756374 
 13812      00
 13813              	.LASF18:
 13814 0563 534D4352 		.ascii	"SMCR\000"
 13814      00
 13815              	.LASF57:
 13816 0568 54494D5F 		.ascii	"TIM_OSSRState\000"
 13816      4F535352 
 13816      53746174 
 13816      6500
 13817              	.LASF65:
 13818 0576 54494D78 		.ascii	"TIMx\000"
 13818      00
 13819              	.LASF205:
 13820 057b 54494D5F 		.ascii	"TIM_EncoderMode\000"
 13820      456E636F 
 13820      6465724D 
 13820      6F646500 
 13821              	.LASF154:
 13822 058b 54494D5F 		.ascii	"TIM_OC4PolarityConfig\000"
 13822      4F433450 
 13822      6F6C6172 
 13822      69747943 
 13822      6F6E6669 
 13823              	.LASF63:
 13824 05a1 54494D5F 		.ascii	"TIM_AutomaticOutput\000"
 13824      4175746F 
 13824      6D617469 
 13824      634F7574 
 13824      70757400 
 13825              	.LASF215:
 13826 05b5 2F557365 		.ascii	"/Users/raphael/Documents/Projects/rESC/resc-firmwar"
 13826      72732F72 
 13826      61706861 
 13826      656C2F44 
 13826      6F63756D 
 13827 05e8 6500     		.ascii	"e\000"
 13828              	.LASF198:
 13829 05ea 54494D5F 		.ascii	"TIM_SelectOutputTrigger\000"
 13829      53656C65 
 13829      63744F75 
 13829      74707574 
 13829      54726967 
 13830              	.LASF70:
 13831 0602 54494D5F 		.ascii	"TIM_SetIC1Prescaler\000"
 13831      53657449 
 13831      43315072 
 13831      65736361 
 13831      6C657200 
 13832              	.LASF162:
 13833 0616 54494D5F 		.ascii	"TIM_PWMIConfig\000"
 13833      50574D49 
 13833      436F6E66 
 13833      696700
 13834              	.LASF74:
 13835 0625 5449335F 		.ascii	"TI3_Config\000"
ARM GAS  /var/folders/m4/4md61f0s1_g0rzfghffqnxvr0000gn/T//ccSRVwbo.s 			page 249


 13835      436F6E66 
 13835      696700
 13836              	.LASF189:
 13837 0630 54494D5F 		.ascii	"TIM_DMASource\000"
 13837      444D4153 
 13837      6F757263 
 13837      6500
 13838              	.LASF117:
 13839 063e 54494D5F 		.ascii	"TIM_OCStructInit\000"
 13839      4F435374 
 13839      72756374 
 13839      496E6974 
 13839      00
 13840              	.LASF91:
 13841 064f 54494D5F 		.ascii	"TIM_PSCReloadMode\000"
 13841      50534352 
 13841      656C6F61 
 13841      644D6F64 
 13841      6500
 13842              	.LASF30:
 13843 0661 52455345 		.ascii	"RESET\000"
 13843      5400
 13844              	.LASF80:
 13845 0667 746D7073 		.ascii	"tmpsmcr\000"
 13845      6D637200 
 13846              	.LASF83:
 13847 066f 54494D5F 		.ascii	"TIM_ExtTRGPolarity\000"
 13847      45787454 
 13847      5247506F 
 13847      6C617269 
 13847      747900
 13848              	.LASF171:
 13849 0682 54494D5F 		.ascii	"TIM_BDTRStructInit\000"
 13849      42445452 
 13849      53747275 
 13849      6374496E 
 13849      697400
 13850              	.LASF93:
 13851 0695 746D7063 		.ascii	"tmpcr1\000"
 13851      723100
 13852              	.LASF128:
 13853 069c 54494D5F 		.ascii	"TIM_ForcedOC1Config\000"
 13853      466F7263 
 13853      65644F43 
 13853      31436F6E 
 13853      66696700 
 13854              	.LASF17:
 13855 06b0 73697A65 		.ascii	"sizetype\000"
 13855      74797065 
 13855      00
 13856              	.LASF82:
 13857 06b9 54494D5F 		.ascii	"TIM_ExtTRGPrescaler\000"
 13857      45787454 
 13857      52475072 
 13857      65736361 
 13857      6C657200 
 13858              	.LASF61:
ARM GAS  /var/folders/m4/4md61f0s1_g0rzfghffqnxvr0000gn/T//ccSRVwbo.s 			page 250


 13859 06cd 54494D5F 		.ascii	"TIM_Break\000"
 13859      42726561 
 13859      6B00
 13860              	.LASF146:
 13861 06d7 54494D5F 		.ascii	"TIM_ClearOC3Ref\000"
 13861      436C6561 
 13861      724F4333 
 13861      52656600 
 13862              	.LASF60:
 13863 06e7 54494D5F 		.ascii	"TIM_DeadTime\000"
 13863      44656164 
 13863      54696D65 
 13863      00
 13864              	.LASF148:
 13865 06f4 54494D5F 		.ascii	"TIM_OC1PolarityConfig\000"
 13865      4F433150 
 13865      6F6C6172 
 13865      69747943 
 13865      6F6E6669 
 13866              	.LASF131:
 13867 070a 54494D5F 		.ascii	"TIM_ForcedOC3Config\000"
 13867      466F7263 
 13867      65644F43 
 13867      33436F6E 
 13867      66696700 
 13868              	.LASF54:
 13869 071e 54494D5F 		.ascii	"TIM_ICPrescaler\000"
 13869      49435072 
 13869      65736361 
 13869      6C657200 
 13870              	.LASF157:
 13871 072e 54494D5F 		.ascii	"TIM_CCxNCmd\000"
 13871      4343784E 
 13871      436D6400 
 13872              	.LASF127:
 13873 073a 436F6D70 		.ascii	"Compare4\000"
 13873      61726534 
 13873      00
 13874              	.LASF49:
 13875 0743 54494D5F 		.ascii	"TIM_OCNIdleState\000"
 13875      4F434E49 
 13875      646C6553 
 13875      74617465 
 13875      00
 13876              	.LASF182:
 13877 0754 69747374 		.ascii	"itstatus\000"
 13877      61747573 
 13877      00
 13878              	.LASF186:
 13879 075d 54494D5F 		.ascii	"TIM_DMABase\000"
 13879      444D4142 
 13879      61736500 
 13880              	.LASF164:
 13881 0769 69636F70 		.ascii	"icoppositeselection\000"
 13881      706F7369 
 13881      74657365 
 13881      6C656374 
ARM GAS  /var/folders/m4/4md61f0s1_g0rzfghffqnxvr0000gn/T//ccSRVwbo.s 			page 251


 13881      696F6E00 
 13882              	.LASF213:
 13883 077d 474E5520 		.ascii	"GNU C99 5.2.1 20151202 (release) [ARM/embedded-5-br"
 13883      43393920 
 13883      352E322E 
 13883      31203230 
 13883      31353132 
 13884 07b0 616E6368 		.ascii	"anch revision 231848] -mcpu=cortex-m4 -mfloat-abi=h"
 13884      20726576 
 13884      6973696F 
 13884      6E203233 
 13884      31383438 
 13885 07e3 61726420 		.ascii	"ard -mfpu=fpv4-sp-d16 -mno-thumb-interwork -mthumb "
 13885      2D6D6670 
 13885      753D6670 
 13885      76342D73 
 13885      702D6431 
 13886 0816 2D676764 		.ascii	"-ggdb -O2 -std=c99 -fomit-frame-pointer -falign-fun"
 13886      62202D4F 
 13886      32202D73 
 13886      74643D63 
 13886      3939202D 
 13887 0849 6374696F 		.ascii	"ctions=16 -fsingle-precision-constant -ffunction-se"
 13887      6E733D31 
 13887      36202D66 
 13887      73696E67 
 13887      6C652D70 
 13888 087c 6374696F 		.ascii	"ctions -fdata-sections -fno-common\000"
 13888      6E73202D 
 13888      66646174 
 13888      612D7365 
 13888      6374696F 
 13889              	.LASF35:
 13890 089f 46756E63 		.ascii	"FunctionalState\000"
 13890      74696F6E 
 13890      616C5374 
 13890      61746500 
 13891              	.LASF210:
 13892 08af 54494D5F 		.ascii	"TIM_Remap\000"
 13892      52656D61 
 13892      7000
 13893              	.LASF180:
 13894 08b9 54494D5F 		.ascii	"TIM_GetITStatus\000"
 13894      47657449 
 13894      54537461 
 13894      74757300 
 13895              	.LASF87:
 13896 08c9 54494D5F 		.ascii	"TIM_TimeBaseInitStruct\000"
 13896      54696D65 
 13896      42617365 
 13896      496E6974 
 13896      53747275 
 13897              	.LASF212:
 13898 08e0 5243435F 		.ascii	"RCC_APB2PeriphResetCmd\000"
 13898      41504232 
 13898      50657269 
 13898      70685265 
ARM GAS  /var/folders/m4/4md61f0s1_g0rzfghffqnxvr0000gn/T//ccSRVwbo.s 			page 252


 13898      73657443 
 13899              	.LASF107:
 13900 08f7 54494D5F 		.ascii	"TIM_SetClockDivision\000"
 13900      53657443 
 13900      6C6F636B 
 13900      44697669 
 13900      73696F6E 
 13901              	.LASF214:
 13902 090c 43686962 		.ascii	"ChibiOS_16.1.4/ext/stdperiph_stm32f4/src/stm32f4xx_"
 13902      694F535F 
 13902      31362E31 
 13902      2E342F65 
 13902      78742F73 
 13903 093f 74696D2E 		.ascii	"tim.c\000"
 13903      6300
 13904              	.LASF156:
 13905 0945 54494D5F 		.ascii	"TIM_CCx\000"
 13905      43437800 
 13906              	.LASF95:
 13907 094d 436F756E 		.ascii	"Counter\000"
 13907      74657200 
 13908              	.LASF123:
 13909 0955 436F6D70 		.ascii	"Compare2\000"
 13909      61726532 
 13909      00
 13910              	.LASF176:
 13911 095e 54494D5F 		.ascii	"TIM_EventSource\000"
 13911      4576656E 
 13911      74536F75 
 13911      72636500 
 13912              	.LASF52:
 13913 096e 54494D5F 		.ascii	"TIM_ICPolarity\000"
 13913      4943506F 
 13913      6C617269 
 13913      747900
 13914              	.LASF32:
 13915 097d 49545374 		.ascii	"ITStatus\000"
 13915      61747573 
 13915      00
 13916              	.LASF72:
 13917 0986 5449315F 		.ascii	"TI1_Config\000"
 13917      436F6E66 
 13917      696700
 13918              	.LASF36:
 13919 0991 54494D5F 		.ascii	"TIM_Prescaler\000"
 13919      50726573 
 13919      63616C65 
 13919      7200
 13920              	.LASF193:
 13921 099f 54494D5F 		.ascii	"TIM_TIxExternalClockConfig\000"
 13921      54497845 
 13921      78746572 
 13921      6E616C43 
 13921      6C6F636B 
 13922              	.LASF15:
 13923 09ba 696E7433 		.ascii	"int32_t\000"
 13923      325F7400 
ARM GAS  /var/folders/m4/4md61f0s1_g0rzfghffqnxvr0000gn/T//ccSRVwbo.s 			page 253


 13924              	.LASF1:
 13925 09c2 756E7369 		.ascii	"unsigned char\000"
 13925      676E6564 
 13925      20636861 
 13925      7200
 13926              	.LASF59:
 13927 09d0 54494D5F 		.ascii	"TIM_LOCKLevel\000"
 13927      4C4F434B 
 13927      4C657665 
 13927      6C00
 13928              	.LASF172:
 13929 09de 54494D5F 		.ascii	"TIM_CtrlPWMOutputs\000"
 13929      4374726C 
 13929      50574D4F 
 13929      75747075 
 13929      747300
 13930              	.LASF169:
 13931 09f1 54494D5F 		.ascii	"TIM_BDTRConfig\000"
 13931      42445452 
 13931      436F6E66 
 13931      696700
 13932              	.LASF2:
 13933 0a00 73686F72 		.ascii	"short int\000"
 13933      7420696E 
 13933      7400
 13934              	.LASF27:
 13935 0a0a 42445452 		.ascii	"BDTR\000"
 13935      00
 13936              	.LASF69:
 13937 0a0f 54494D5F 		.ascii	"TIM_SetIC2Prescaler\000"
 13937      53657449 
 13937      43325072 
 13937      65736361 
 13937      6C657200 
 13938              	.LASF89:
 13939 0a23 54494D5F 		.ascii	"TIM_PrescalerConfig\000"
 13939      50726573 
 13939      63616C65 
 13939      72436F6E 
 13939      66696700 
 13940              	.LASF192:
 13941 0a37 54494D5F 		.ascii	"TIM_ITRxExternalClockConfig\000"
 13941      49545278 
 13941      45787465 
 13941      726E616C 
 13941      436C6F63 
 13942              	.LASF153:
 13943 0a53 54494D5F 		.ascii	"TIM_OC3NPolarityConfig\000"
 13943      4F43334E 
 13943      506F6C61 
 13943      72697479 
 13943      436F6E66 
 13944              	.LASF58:
 13945 0a6a 54494D5F 		.ascii	"TIM_OSSIState\000"
 13945      4F535349 
 13945      53746174 
 13945      6500
ARM GAS  /var/folders/m4/4md61f0s1_g0rzfghffqnxvr0000gn/T//ccSRVwbo.s 			page 254


 13946              	.LASF86:
 13947 0a78 54494D5F 		.ascii	"TIM_TimeBaseInit\000"
 13947      54696D65 
 13947      42617365 
 13947      496E6974 
 13947      00
 13948              	.LASF194:
 13949 0a89 54494D5F 		.ascii	"TIM_TIxExternalCLKSource\000"
 13949      54497845 
 13949      78746572 
 13949      6E616C43 
 13949      4C4B536F 
 13950              	.LASF170:
 13951 0aa2 54494D5F 		.ascii	"TIM_BDTRInitStruct\000"
 13951      42445452 
 13951      496E6974 
 13951      53747275 
 13951      637400
 13952              	.LASF71:
 13953 0ab5 5449325F 		.ascii	"TI2_Config\000"
 13953      436F6E66 
 13953      696700
 13954              	.LASF140:
 13955 0ac0 54494D5F 		.ascii	"TIM_OC2FastConfig\000"
 13955      4F433246 
 13955      61737443 
 13955      6F6E6669 
 13955      6700
 13956              	.LASF142:
 13957 0ad2 54494D5F 		.ascii	"TIM_OC4FastConfig\000"
 13957      4F433446 
 13957      61737443 
 13957      6F6E6669 
 13957      6700
 13958              	.LASF9:
 13959 0ae4 6C6F6E67 		.ascii	"long unsigned int\000"
 13959      20756E73 
 13959      69676E65 
 13959      6420696E 
 13959      7400
 13960              	.LASF47:
 13961 0af6 54494D5F 		.ascii	"TIM_OCNPolarity\000"
 13961      4F434E50 
 13961      6F6C6172 
 13961      69747900 
 13962              	.LASF197:
 13963 0b06 54494D5F 		.ascii	"TIM_ETRClockMode2Config\000"
 13963      45545243 
 13963      6C6F636B 
 13963      4D6F6465 
 13963      32436F6E 
 13964              	.LASF109:
 13965 0b1e 54494D5F 		.ascii	"TIM_Cmd\000"
 13965      436D6400 
 13966              	.LASF28:
 13967 0b26 444D4152 		.ascii	"DMAR\000"
 13967      00
ARM GAS  /var/folders/m4/4md61f0s1_g0rzfghffqnxvr0000gn/T//ccSRVwbo.s 			page 255


 13968              	.LASF73:
 13969 0b2b 54494D5F 		.ascii	"TIM_SetIC3Prescaler\000"
 13969      53657449 
 13969      43335072 
 13969      65736361 
 13969      6C657200 
 13970              	.LASF114:
 13971 0b3f 54494D5F 		.ascii	"TIM_OC2Init\000"
 13971      4F433249 
 13971      6E697400 
 13972              	.LASF38:
 13973 0b4b 54494D5F 		.ascii	"TIM_Period\000"
 13973      50657269 
 13973      6F6400
 13974              	.LASF41:
 13975 0b56 54494D5F 		.ascii	"TIM_TimeBaseInitTypeDef\000"
 13975      54696D65 
 13975      42617365 
 13975      496E6974 
 13975      54797065 
 13976              	.LASF184:
 13977 0b6e 54494D5F 		.ascii	"TIM_ClearITPendingBit\000"
 13977      436C6561 
 13977      72495450 
 13977      656E6469 
 13977      6E674269 
 13978              	.LASF6:
 13979 0b84 5F5F696E 		.ascii	"__int32_t\000"
 13979      7433325F 
 13979      7400
 13980              	.LASF56:
 13981 0b8e 54494D5F 		.ascii	"TIM_ICInitTypeDef\000"
 13981      4943496E 
 13981      69745479 
 13981      70654465 
 13981      6600
 13982              	.LASF116:
 13983 0ba0 54494D5F 		.ascii	"TIM_OC4Init\000"
 13983      4F433449 
 13983      6E697400 
 13984              	.LASF159:
 13985 0bac 54494D5F 		.ascii	"TIM_ICInit\000"
 13985      4943496E 
 13985      697400
 13986              	.LASF126:
 13987 0bb7 54494D5F 		.ascii	"TIM_SetCompare4\000"
 13987      53657443 
 13987      6F6D7061 
 13987      72653400 
 13988              	.LASF118:
 13989 0bc7 54494D5F 		.ascii	"TIM_SelectOCxM\000"
 13989      53656C65 
 13989      63744F43 
 13989      784D00
 13990              	.LASF102:
 13991 0bd6 54494D5F 		.ascii	"TIM_UpdateRequestConfig\000"
 13991      55706461 
ARM GAS  /var/folders/m4/4md61f0s1_g0rzfghffqnxvr0000gn/T//ccSRVwbo.s 			page 256


 13991      74655265 
 13991      71756573 
 13991      74436F6E 
 13992              	.LASF90:
 13993 0bee 50726573 		.ascii	"Prescaler\000"
 13993      63616C65 
 13993      7200
 13994              	.LASF137:
 13995 0bf8 54494D5F 		.ascii	"TIM_OC4PreloadConfig\000"
 13995      4F433450 
 13995      72656C6F 
 13995      6164436F 
 13995      6E666967 
 13996              	.LASF5:
 13997 0c0d 73686F72 		.ascii	"short unsigned int\000"
 13997      7420756E 
 13997      7369676E 
 13997      65642069 
 13997      6E7400
 13998              	.LASF201:
 13999 0c20 54494D5F 		.ascii	"TIM_SlaveMode\000"
 13999      536C6176 
 13999      654D6F64 
 13999      6500
 14000              	.LASF42:
 14001 0c2e 54494D5F 		.ascii	"TIM_OCMode\000"
 14001      4F434D6F 
 14001      646500
 14002              	.LASF147:
 14003 0c39 54494D5F 		.ascii	"TIM_ClearOC4Ref\000"
 14003      436C6561 
 14003      724F4334 
 14003      52656600 
 14004              	.LASF62:
 14005 0c49 54494D5F 		.ascii	"TIM_BreakPolarity\000"
 14005      42726561 
 14005      6B506F6C 
 14005      61726974 
 14005      7900
 14006              	.LASF149:
 14007 0c5b 54494D5F 		.ascii	"TIM_OC1NPolarityConfig\000"
 14007      4F43314E 
 14007      506F6C61 
 14007      72697479 
 14007      436F6E66 
 14008              	.LASF174:
 14009 0c72 54494D5F 		.ascii	"TIM_CCPreloadControl\000"
 14009      43435072 
 14009      656C6F61 
 14009      64436F6E 
 14009      74726F6C 
 14010              	.LASF16:
 14011 0c87 75696E74 		.ascii	"uint32_t\000"
 14011      33325F74 
 14011      00
 14012              	.LASF23:
 14013 0c90 43435231 		.ascii	"CCR1\000"
ARM GAS  /var/folders/m4/4md61f0s1_g0rzfghffqnxvr0000gn/T//ccSRVwbo.s 			page 257


 14013      00
 14014              	.LASF196:
 14015 0c95 54494D5F 		.ascii	"TIM_ETRClockMode1Config\000"
 14015      45545243 
 14015      6C6F636B 
 14015      4D6F6465 
 14015      31436F6E 
 14016              	.LASF25:
 14017 0cad 43435233 		.ascii	"CCR3\000"
 14017      00
 14018              	.LASF26:
 14019 0cb2 43435234 		.ascii	"CCR4\000"
 14019      00
 14020              	.LASF50:
 14021 0cb7 54494D5F 		.ascii	"TIM_OCInitTypeDef\000"
 14021      4F43496E 
 14021      69745479 
 14021      70654465 
 14021      6600
 14022              	.LASF94:
 14023 0cc9 54494D5F 		.ascii	"TIM_SetCounter\000"
 14023      53657443 
 14023      6F756E74 
 14023      657200
 14024              	.LASF183:
 14025 0cd8 6974656E 		.ascii	"itenable\000"
 14025      61626C65 
 14025      00
 14026              	.LASF13:
 14027 0ce1 75696E74 		.ascii	"uint8_t\000"
 14027      385F7400 
 14028              	.LASF152:
 14029 0ce9 54494D5F 		.ascii	"TIM_OC3PolarityConfig\000"
 14029      4F433350 
 14029      6F6C6172 
 14029      69747943 
 14029      6F6E6669 
 14030              	.LASF209:
 14031 0cff 54494D5F 		.ascii	"TIM_RemapConfig\000"
 14031      52656D61 
 14031      70436F6E 
 14031      66696700 
 14032              	.LASF110:
 14033 0d0f 54494D5F 		.ascii	"TIM_OC1Init\000"
 14033      4F433149 
 14033      6E697400 
 14034              	.LASF40:
 14035 0d1b 54494D5F 		.ascii	"TIM_RepetitionCounter\000"
 14035      52657065 
 14035      74697469 
 14035      6F6E436F 
 14035      756E7465 
 14036              	.LASF208:
 14037 0d31 54494D5F 		.ascii	"TIM_SelectHallSensor\000"
 14037      53656C65 
 14037      63744861 
 14037      6C6C5365 
ARM GAS  /var/folders/m4/4md61f0s1_g0rzfghffqnxvr0000gn/T//ccSRVwbo.s 			page 258


 14037      6E736F72 
 14038              	.LASF160:
 14039 0d46 54494D5F 		.ascii	"TIM_ICInitStruct\000"
 14039      4943496E 
 14039      69745374 
 14039      72756374 
 14039      00
 14040              	.LASF179:
 14041 0d57 62697473 		.ascii	"bitstatus\000"
 14041      74617475 
 14041      7300
 14042              	.LASF195:
 14043 0d61 49434669 		.ascii	"ICFilter\000"
 14043      6C746572 
 14043      00
 14044              	.LASF145:
 14045 0d6a 54494D5F 		.ascii	"TIM_ClearOC2Ref\000"
 14045      436C6561 
 14045      724F4332 
 14045      52656600 
 14046              	.LASF84:
 14047 0d7a 45787454 		.ascii	"ExtTRGFilter\000"
 14047      52474669 
 14047      6C746572 
 14047      00
 14048              	.LASF48:
 14049 0d87 54494D5F 		.ascii	"TIM_OCIdleState\000"
 14049      4F434964 
 14049      6C655374 
 14049      61746500 
 14050              	.LASF144:
 14051 0d97 54494D5F 		.ascii	"TIM_OCClear\000"
 14051      4F43436C 
 14051      65617200 
 14052              	.LASF66:
 14053 0da3 54494D5F 		.ascii	"TIM_ICPSC\000"
 14053      49435053 
 14053      4300
 14054              	.LASF81:
 14055 0dad 54494D5F 		.ascii	"TIM_ETRConfig\000"
 14055      45545243 
 14055      6F6E6669 
 14055      6700
 14056              	.LASF85:
 14057 0dbb 54494D5F 		.ascii	"TIM_DeInit\000"
 14057      4465496E 
 14057      697400
 14058              	.LASF141:
 14059 0dc6 54494D5F 		.ascii	"TIM_OC3FastConfig\000"
 14059      4F433346 
 14059      61737443 
 14059      6F6E6669 
 14059      6700
 14060              	.LASF136:
 14061 0dd8 54494D5F 		.ascii	"TIM_OC3PreloadConfig\000"
 14061      4F433350 
 14061      72656C6F 
ARM GAS  /var/folders/m4/4md61f0s1_g0rzfghffqnxvr0000gn/T//ccSRVwbo.s 			page 259


 14061      6164436F 
 14061      6E666967 
 14062              	.LASF76:
 14063 0ded 54494D5F 		.ascii	"TIM_SetIC4Prescaler\000"
 14063      53657449 
 14063      43345072 
 14063      65736361 
 14063      6C657200 
 14064              	.LASF138:
 14065 0e01 54494D5F 		.ascii	"TIM_OC1FastConfig\000"
 14065      4F433146 
 14065      61737443 
 14065      6F6E6669 
 14065      6700
 14066              		.ident	"GCC: (GNU Tools for ARM Embedded Processors) 5.2.1 20151202 (release) [ARM/embedded-5-bran
ARM GAS  /var/folders/m4/4md61f0s1_g0rzfghffqnxvr0000gn/T//ccSRVwbo.s 			page 260


DEFINED SYMBOLS
                            *ABS*:0000000000000000 stm32f4xx_tim.c
/var/folders/m4/4md61f0s1_g0rzfghffqnxvr0000gn/T//ccSRVwbo.s:22     .text.TIM_DeInit:0000000000000000 $t
/var/folders/m4/4md61f0s1_g0rzfghffqnxvr0000gn/T//ccSRVwbo.s:28     .text.TIM_DeInit:0000000000000000 TIM_DeInit
/var/folders/m4/4md61f0s1_g0rzfghffqnxvr0000gn/T//ccSRVwbo.s:377    .text.TIM_DeInit:0000000000000184 $d
/var/folders/m4/4md61f0s1_g0rzfghffqnxvr0000gn/T//ccSRVwbo.s:394    .text.TIM_TimeBaseInit:0000000000000000 $t
/var/folders/m4/4md61f0s1_g0rzfghffqnxvr0000gn/T//ccSRVwbo.s:400    .text.TIM_TimeBaseInit:0000000000000000 TIM_TimeBaseInit
/var/folders/m4/4md61f0s1_g0rzfghffqnxvr0000gn/T//ccSRVwbo.s:539    .text.TIM_TimeBaseInit:000000000000008c $d
/var/folders/m4/4md61f0s1_g0rzfghffqnxvr0000gn/T//ccSRVwbo.s:546    .text.TIM_TimeBaseStructInit:0000000000000000 $t
/var/folders/m4/4md61f0s1_g0rzfghffqnxvr0000gn/T//ccSRVwbo.s:552    .text.TIM_TimeBaseStructInit:0000000000000000 TIM_TimeBaseStructInit
/var/folders/m4/4md61f0s1_g0rzfghffqnxvr0000gn/T//ccSRVwbo.s:578    .text.TIM_PrescalerConfig:0000000000000000 $t
/var/folders/m4/4md61f0s1_g0rzfghffqnxvr0000gn/T//ccSRVwbo.s:584    .text.TIM_PrescalerConfig:0000000000000000 TIM_PrescalerConfig
/var/folders/m4/4md61f0s1_g0rzfghffqnxvr0000gn/T//ccSRVwbo.s:601    .text.TIM_CounterModeConfig:0000000000000000 $t
/var/folders/m4/4md61f0s1_g0rzfghffqnxvr0000gn/T//ccSRVwbo.s:607    .text.TIM_CounterModeConfig:0000000000000000 TIM_CounterModeConfig
/var/folders/m4/4md61f0s1_g0rzfghffqnxvr0000gn/T//ccSRVwbo.s:631    .text.TIM_SetCounter:0000000000000000 $t
/var/folders/m4/4md61f0s1_g0rzfghffqnxvr0000gn/T//ccSRVwbo.s:637    .text.TIM_SetCounter:0000000000000000 TIM_SetCounter
/var/folders/m4/4md61f0s1_g0rzfghffqnxvr0000gn/T//ccSRVwbo.s:652    .text.TIM_SetAutoreload:0000000000000000 $t
/var/folders/m4/4md61f0s1_g0rzfghffqnxvr0000gn/T//ccSRVwbo.s:658    .text.TIM_SetAutoreload:0000000000000000 TIM_SetAutoreload
/var/folders/m4/4md61f0s1_g0rzfghffqnxvr0000gn/T//ccSRVwbo.s:673    .text.TIM_GetCounter:0000000000000000 $t
/var/folders/m4/4md61f0s1_g0rzfghffqnxvr0000gn/T//ccSRVwbo.s:679    .text.TIM_GetCounter:0000000000000000 TIM_GetCounter
/var/folders/m4/4md61f0s1_g0rzfghffqnxvr0000gn/T//ccSRVwbo.s:696    .text.TIM_GetPrescaler:0000000000000000 $t
/var/folders/m4/4md61f0s1_g0rzfghffqnxvr0000gn/T//ccSRVwbo.s:702    .text.TIM_GetPrescaler:0000000000000000 TIM_GetPrescaler
/var/folders/m4/4md61f0s1_g0rzfghffqnxvr0000gn/T//ccSRVwbo.s:720    .text.TIM_UpdateDisableConfig:0000000000000000 $t
/var/folders/m4/4md61f0s1_g0rzfghffqnxvr0000gn/T//ccSRVwbo.s:726    .text.TIM_UpdateDisableConfig:0000000000000000 TIM_UpdateDisableConfig
/var/folders/m4/4md61f0s1_g0rzfghffqnxvr0000gn/T//ccSRVwbo.s:752    .text.TIM_UpdateRequestConfig:0000000000000000 $t
/var/folders/m4/4md61f0s1_g0rzfghffqnxvr0000gn/T//ccSRVwbo.s:758    .text.TIM_UpdateRequestConfig:0000000000000000 TIM_UpdateRequestConfig
/var/folders/m4/4md61f0s1_g0rzfghffqnxvr0000gn/T//ccSRVwbo.s:784    .text.TIM_ARRPreloadConfig:0000000000000000 $t
/var/folders/m4/4md61f0s1_g0rzfghffqnxvr0000gn/T//ccSRVwbo.s:790    .text.TIM_ARRPreloadConfig:0000000000000000 TIM_ARRPreloadConfig
/var/folders/m4/4md61f0s1_g0rzfghffqnxvr0000gn/T//ccSRVwbo.s:816    .text.TIM_SelectOnePulseMode:0000000000000000 $t
/var/folders/m4/4md61f0s1_g0rzfghffqnxvr0000gn/T//ccSRVwbo.s:822    .text.TIM_SelectOnePulseMode:0000000000000000 TIM_SelectOnePulseMode
/var/folders/m4/4md61f0s1_g0rzfghffqnxvr0000gn/T//ccSRVwbo.s:845    .text.TIM_SetClockDivision:0000000000000000 $t
/var/folders/m4/4md61f0s1_g0rzfghffqnxvr0000gn/T//ccSRVwbo.s:851    .text.TIM_SetClockDivision:0000000000000000 TIM_SetClockDivision
/var/folders/m4/4md61f0s1_g0rzfghffqnxvr0000gn/T//ccSRVwbo.s:874    .text.TIM_Cmd:0000000000000000 $t
/var/folders/m4/4md61f0s1_g0rzfghffqnxvr0000gn/T//ccSRVwbo.s:880    .text.TIM_Cmd:0000000000000000 TIM_Cmd
/var/folders/m4/4md61f0s1_g0rzfghffqnxvr0000gn/T//ccSRVwbo.s:906    .text.TIM_OC1Init:0000000000000000 $t
/var/folders/m4/4md61f0s1_g0rzfghffqnxvr0000gn/T//ccSRVwbo.s:912    .text.TIM_OC1Init:0000000000000000 TIM_OC1Init
/var/folders/m4/4md61f0s1_g0rzfghffqnxvr0000gn/T//ccSRVwbo.s:1022   .text.TIM_OC1Init:000000000000006c $d
/var/folders/m4/4md61f0s1_g0rzfghffqnxvr0000gn/T//ccSRVwbo.s:1028   .text.TIM_OC2Init:0000000000000000 $t
/var/folders/m4/4md61f0s1_g0rzfghffqnxvr0000gn/T//ccSRVwbo.s:1034   .text.TIM_OC2Init:0000000000000000 TIM_OC2Init
/var/folders/m4/4md61f0s1_g0rzfghffqnxvr0000gn/T//ccSRVwbo.s:1149   .text.TIM_OC2Init:000000000000007c $d
/var/folders/m4/4md61f0s1_g0rzfghffqnxvr0000gn/T//ccSRVwbo.s:1154   .text.TIM_OC3Init:0000000000000000 $t
/var/folders/m4/4md61f0s1_g0rzfghffqnxvr0000gn/T//ccSRVwbo.s:1160   .text.TIM_OC3Init:0000000000000000 TIM_OC3Init
/var/folders/m4/4md61f0s1_g0rzfghffqnxvr0000gn/T//ccSRVwbo.s:1274   .text.TIM_OC3Init:0000000000000080 $d
/var/folders/m4/4md61f0s1_g0rzfghffqnxvr0000gn/T//ccSRVwbo.s:1279   .text.TIM_OC4Init:0000000000000000 $t
/var/folders/m4/4md61f0s1_g0rzfghffqnxvr0000gn/T//ccSRVwbo.s:1285   .text.TIM_OC4Init:0000000000000000 TIM_OC4Init
/var/folders/m4/4md61f0s1_g0rzfghffqnxvr0000gn/T//ccSRVwbo.s:1378   .text.TIM_OC4Init:0000000000000060 $d
/var/folders/m4/4md61f0s1_g0rzfghffqnxvr0000gn/T//ccSRVwbo.s:1384   .text.TIM_OCStructInit:0000000000000000 $t
/var/folders/m4/4md61f0s1_g0rzfghffqnxvr0000gn/T//ccSRVwbo.s:1390   .text.TIM_OCStructInit:0000000000000000 TIM_OCStructInit
/var/folders/m4/4md61f0s1_g0rzfghffqnxvr0000gn/T//ccSRVwbo.s:1420   .text.TIM_SelectOCxM:0000000000000000 $t
/var/folders/m4/4md61f0s1_g0rzfghffqnxvr0000gn/T//ccSRVwbo.s:1426   .text.TIM_SelectOCxM:0000000000000000 TIM_SelectOCxM
/var/folders/m4/4md61f0s1_g0rzfghffqnxvr0000gn/T//ccSRVwbo.s:1505   .text.TIM_SetCompare1:0000000000000000 $t
/var/folders/m4/4md61f0s1_g0rzfghffqnxvr0000gn/T//ccSRVwbo.s:1511   .text.TIM_SetCompare1:0000000000000000 TIM_SetCompare1
/var/folders/m4/4md61f0s1_g0rzfghffqnxvr0000gn/T//ccSRVwbo.s:1526   .text.TIM_SetCompare2:0000000000000000 $t
/var/folders/m4/4md61f0s1_g0rzfghffqnxvr0000gn/T//ccSRVwbo.s:1532   .text.TIM_SetCompare2:0000000000000000 TIM_SetCompare2
/var/folders/m4/4md61f0s1_g0rzfghffqnxvr0000gn/T//ccSRVwbo.s:1547   .text.TIM_SetCompare3:0000000000000000 $t
/var/folders/m4/4md61f0s1_g0rzfghffqnxvr0000gn/T//ccSRVwbo.s:1553   .text.TIM_SetCompare3:0000000000000000 TIM_SetCompare3
/var/folders/m4/4md61f0s1_g0rzfghffqnxvr0000gn/T//ccSRVwbo.s:1568   .text.TIM_SetCompare4:0000000000000000 $t
ARM GAS  /var/folders/m4/4md61f0s1_g0rzfghffqnxvr0000gn/T//ccSRVwbo.s 			page 261


/var/folders/m4/4md61f0s1_g0rzfghffqnxvr0000gn/T//ccSRVwbo.s:1574   .text.TIM_SetCompare4:0000000000000000 TIM_SetCompare4
/var/folders/m4/4md61f0s1_g0rzfghffqnxvr0000gn/T//ccSRVwbo.s:1589   .text.TIM_ForcedOC1Config:0000000000000000 $t
/var/folders/m4/4md61f0s1_g0rzfghffqnxvr0000gn/T//ccSRVwbo.s:1595   .text.TIM_ForcedOC1Config:0000000000000000 TIM_ForcedOC1Config
/var/folders/m4/4md61f0s1_g0rzfghffqnxvr0000gn/T//ccSRVwbo.s:1619   .text.TIM_ForcedOC2Config:0000000000000000 $t
/var/folders/m4/4md61f0s1_g0rzfghffqnxvr0000gn/T//ccSRVwbo.s:1625   .text.TIM_ForcedOC2Config:0000000000000000 TIM_ForcedOC2Config
/var/folders/m4/4md61f0s1_g0rzfghffqnxvr0000gn/T//ccSRVwbo.s:1650   .text.TIM_ForcedOC3Config:0000000000000000 $t
/var/folders/m4/4md61f0s1_g0rzfghffqnxvr0000gn/T//ccSRVwbo.s:1656   .text.TIM_ForcedOC3Config:0000000000000000 TIM_ForcedOC3Config
/var/folders/m4/4md61f0s1_g0rzfghffqnxvr0000gn/T//ccSRVwbo.s:1680   .text.TIM_ForcedOC4Config:0000000000000000 $t
/var/folders/m4/4md61f0s1_g0rzfghffqnxvr0000gn/T//ccSRVwbo.s:1686   .text.TIM_ForcedOC4Config:0000000000000000 TIM_ForcedOC4Config
/var/folders/m4/4md61f0s1_g0rzfghffqnxvr0000gn/T//ccSRVwbo.s:1711   .text.TIM_OC1PreloadConfig:0000000000000000 $t
/var/folders/m4/4md61f0s1_g0rzfghffqnxvr0000gn/T//ccSRVwbo.s:1717   .text.TIM_OC1PreloadConfig:0000000000000000 TIM_OC1PreloadConfig
/var/folders/m4/4md61f0s1_g0rzfghffqnxvr0000gn/T//ccSRVwbo.s:1741   .text.TIM_OC2PreloadConfig:0000000000000000 $t
/var/folders/m4/4md61f0s1_g0rzfghffqnxvr0000gn/T//ccSRVwbo.s:1747   .text.TIM_OC2PreloadConfig:0000000000000000 TIM_OC2PreloadConfig
/var/folders/m4/4md61f0s1_g0rzfghffqnxvr0000gn/T//ccSRVwbo.s:1772   .text.TIM_OC3PreloadConfig:0000000000000000 $t
/var/folders/m4/4md61f0s1_g0rzfghffqnxvr0000gn/T//ccSRVwbo.s:1778   .text.TIM_OC3PreloadConfig:0000000000000000 TIM_OC3PreloadConfig
/var/folders/m4/4md61f0s1_g0rzfghffqnxvr0000gn/T//ccSRVwbo.s:1802   .text.TIM_OC4PreloadConfig:0000000000000000 $t
/var/folders/m4/4md61f0s1_g0rzfghffqnxvr0000gn/T//ccSRVwbo.s:1808   .text.TIM_OC4PreloadConfig:0000000000000000 TIM_OC4PreloadConfig
/var/folders/m4/4md61f0s1_g0rzfghffqnxvr0000gn/T//ccSRVwbo.s:1833   .text.TIM_OC1FastConfig:0000000000000000 $t
/var/folders/m4/4md61f0s1_g0rzfghffqnxvr0000gn/T//ccSRVwbo.s:1839   .text.TIM_OC1FastConfig:0000000000000000 TIM_OC1FastConfig
/var/folders/m4/4md61f0s1_g0rzfghffqnxvr0000gn/T//ccSRVwbo.s:1863   .text.TIM_OC2FastConfig:0000000000000000 $t
/var/folders/m4/4md61f0s1_g0rzfghffqnxvr0000gn/T//ccSRVwbo.s:1869   .text.TIM_OC2FastConfig:0000000000000000 TIM_OC2FastConfig
/var/folders/m4/4md61f0s1_g0rzfghffqnxvr0000gn/T//ccSRVwbo.s:1894   .text.TIM_OC3FastConfig:0000000000000000 $t
/var/folders/m4/4md61f0s1_g0rzfghffqnxvr0000gn/T//ccSRVwbo.s:1900   .text.TIM_OC3FastConfig:0000000000000000 TIM_OC3FastConfig
/var/folders/m4/4md61f0s1_g0rzfghffqnxvr0000gn/T//ccSRVwbo.s:1924   .text.TIM_OC4FastConfig:0000000000000000 $t
/var/folders/m4/4md61f0s1_g0rzfghffqnxvr0000gn/T//ccSRVwbo.s:1930   .text.TIM_OC4FastConfig:0000000000000000 TIM_OC4FastConfig
/var/folders/m4/4md61f0s1_g0rzfghffqnxvr0000gn/T//ccSRVwbo.s:1955   .text.TIM_ClearOC1Ref:0000000000000000 $t
/var/folders/m4/4md61f0s1_g0rzfghffqnxvr0000gn/T//ccSRVwbo.s:1961   .text.TIM_ClearOC1Ref:0000000000000000 TIM_ClearOC1Ref
/var/folders/m4/4md61f0s1_g0rzfghffqnxvr0000gn/T//ccSRVwbo.s:1985   .text.TIM_ClearOC2Ref:0000000000000000 $t
/var/folders/m4/4md61f0s1_g0rzfghffqnxvr0000gn/T//ccSRVwbo.s:1991   .text.TIM_ClearOC2Ref:0000000000000000 TIM_ClearOC2Ref
/var/folders/m4/4md61f0s1_g0rzfghffqnxvr0000gn/T//ccSRVwbo.s:2015   .text.TIM_ClearOC3Ref:0000000000000000 $t
/var/folders/m4/4md61f0s1_g0rzfghffqnxvr0000gn/T//ccSRVwbo.s:2021   .text.TIM_ClearOC3Ref:0000000000000000 TIM_ClearOC3Ref
/var/folders/m4/4md61f0s1_g0rzfghffqnxvr0000gn/T//ccSRVwbo.s:2045   .text.TIM_ClearOC4Ref:0000000000000000 $t
/var/folders/m4/4md61f0s1_g0rzfghffqnxvr0000gn/T//ccSRVwbo.s:2051   .text.TIM_ClearOC4Ref:0000000000000000 TIM_ClearOC4Ref
/var/folders/m4/4md61f0s1_g0rzfghffqnxvr0000gn/T//ccSRVwbo.s:2075   .text.TIM_OC1PolarityConfig:0000000000000000 $t
/var/folders/m4/4md61f0s1_g0rzfghffqnxvr0000gn/T//ccSRVwbo.s:2081   .text.TIM_OC1PolarityConfig:0000000000000000 TIM_OC1PolarityConfig
/var/folders/m4/4md61f0s1_g0rzfghffqnxvr0000gn/T//ccSRVwbo.s:2105   .text.TIM_OC1NPolarityConfig:0000000000000000 $t
/var/folders/m4/4md61f0s1_g0rzfghffqnxvr0000gn/T//ccSRVwbo.s:2111   .text.TIM_OC1NPolarityConfig:0000000000000000 TIM_OC1NPolarityConfig
/var/folders/m4/4md61f0s1_g0rzfghffqnxvr0000gn/T//ccSRVwbo.s:2135   .text.TIM_OC2PolarityConfig:0000000000000000 $t
/var/folders/m4/4md61f0s1_g0rzfghffqnxvr0000gn/T//ccSRVwbo.s:2141   .text.TIM_OC2PolarityConfig:0000000000000000 TIM_OC2PolarityConfig
/var/folders/m4/4md61f0s1_g0rzfghffqnxvr0000gn/T//ccSRVwbo.s:2166   .text.TIM_OC2NPolarityConfig:0000000000000000 $t
/var/folders/m4/4md61f0s1_g0rzfghffqnxvr0000gn/T//ccSRVwbo.s:2172   .text.TIM_OC2NPolarityConfig:0000000000000000 TIM_OC2NPolarityConfig
/var/folders/m4/4md61f0s1_g0rzfghffqnxvr0000gn/T//ccSRVwbo.s:2197   .text.TIM_OC3PolarityConfig:0000000000000000 $t
/var/folders/m4/4md61f0s1_g0rzfghffqnxvr0000gn/T//ccSRVwbo.s:2203   .text.TIM_OC3PolarityConfig:0000000000000000 TIM_OC3PolarityConfig
/var/folders/m4/4md61f0s1_g0rzfghffqnxvr0000gn/T//ccSRVwbo.s:2228   .text.TIM_OC3NPolarityConfig:0000000000000000 $t
/var/folders/m4/4md61f0s1_g0rzfghffqnxvr0000gn/T//ccSRVwbo.s:2234   .text.TIM_OC3NPolarityConfig:0000000000000000 TIM_OC3NPolarityConfig
/var/folders/m4/4md61f0s1_g0rzfghffqnxvr0000gn/T//ccSRVwbo.s:2259   .text.TIM_OC4PolarityConfig:0000000000000000 $t
/var/folders/m4/4md61f0s1_g0rzfghffqnxvr0000gn/T//ccSRVwbo.s:2265   .text.TIM_OC4PolarityConfig:0000000000000000 TIM_OC4PolarityConfig
/var/folders/m4/4md61f0s1_g0rzfghffqnxvr0000gn/T//ccSRVwbo.s:2290   .text.TIM_CCxCmd:0000000000000000 $t
/var/folders/m4/4md61f0s1_g0rzfghffqnxvr0000gn/T//ccSRVwbo.s:2296   .text.TIM_CCxCmd:0000000000000000 TIM_CCxCmd
/var/folders/m4/4md61f0s1_g0rzfghffqnxvr0000gn/T//ccSRVwbo.s:2336   .text.TIM_CCxNCmd:0000000000000000 $t
/var/folders/m4/4md61f0s1_g0rzfghffqnxvr0000gn/T//ccSRVwbo.s:2342   .text.TIM_CCxNCmd:0000000000000000 TIM_CCxNCmd
/var/folders/m4/4md61f0s1_g0rzfghffqnxvr0000gn/T//ccSRVwbo.s:2382   .text.TIM_ICInit:0000000000000000 $t
/var/folders/m4/4md61f0s1_g0rzfghffqnxvr0000gn/T//ccSRVwbo.s:2388   .text.TIM_ICInit:0000000000000000 TIM_ICInit
/var/folders/m4/4md61f0s1_g0rzfghffqnxvr0000gn/T//ccSRVwbo.s:2708   .text.TIM_ICStructInit:0000000000000000 $t
/var/folders/m4/4md61f0s1_g0rzfghffqnxvr0000gn/T//ccSRVwbo.s:2714   .text.TIM_ICStructInit:0000000000000000 TIM_ICStructInit
/var/folders/m4/4md61f0s1_g0rzfghffqnxvr0000gn/T//ccSRVwbo.s:2740   .text.TIM_PWMIConfig:0000000000000000 $t
/var/folders/m4/4md61f0s1_g0rzfghffqnxvr0000gn/T//ccSRVwbo.s:2746   .text.TIM_PWMIConfig:0000000000000000 TIM_PWMIConfig
ARM GAS  /var/folders/m4/4md61f0s1_g0rzfghffqnxvr0000gn/T//ccSRVwbo.s 			page 262


/var/folders/m4/4md61f0s1_g0rzfghffqnxvr0000gn/T//ccSRVwbo.s:3037   .text.TIM_GetCapture1:0000000000000000 $t
/var/folders/m4/4md61f0s1_g0rzfghffqnxvr0000gn/T//ccSRVwbo.s:3043   .text.TIM_GetCapture1:0000000000000000 TIM_GetCapture1
/var/folders/m4/4md61f0s1_g0rzfghffqnxvr0000gn/T//ccSRVwbo.s:3060   .text.TIM_GetCapture2:0000000000000000 $t
/var/folders/m4/4md61f0s1_g0rzfghffqnxvr0000gn/T//ccSRVwbo.s:3066   .text.TIM_GetCapture2:0000000000000000 TIM_GetCapture2
/var/folders/m4/4md61f0s1_g0rzfghffqnxvr0000gn/T//ccSRVwbo.s:3083   .text.TIM_GetCapture3:0000000000000000 $t
/var/folders/m4/4md61f0s1_g0rzfghffqnxvr0000gn/T//ccSRVwbo.s:3089   .text.TIM_GetCapture3:0000000000000000 TIM_GetCapture3
/var/folders/m4/4md61f0s1_g0rzfghffqnxvr0000gn/T//ccSRVwbo.s:3106   .text.TIM_GetCapture4:0000000000000000 $t
/var/folders/m4/4md61f0s1_g0rzfghffqnxvr0000gn/T//ccSRVwbo.s:3112   .text.TIM_GetCapture4:0000000000000000 TIM_GetCapture4
/var/folders/m4/4md61f0s1_g0rzfghffqnxvr0000gn/T//ccSRVwbo.s:3129   .text.TIM_SetIC1Prescaler:0000000000000000 $t
/var/folders/m4/4md61f0s1_g0rzfghffqnxvr0000gn/T//ccSRVwbo.s:3135   .text.TIM_SetIC1Prescaler:0000000000000000 TIM_SetIC1Prescaler
/var/folders/m4/4md61f0s1_g0rzfghffqnxvr0000gn/T//ccSRVwbo.s:3158   .text.TIM_SetIC2Prescaler:0000000000000000 $t
/var/folders/m4/4md61f0s1_g0rzfghffqnxvr0000gn/T//ccSRVwbo.s:3164   .text.TIM_SetIC2Prescaler:0000000000000000 TIM_SetIC2Prescaler
/var/folders/m4/4md61f0s1_g0rzfghffqnxvr0000gn/T//ccSRVwbo.s:3189   .text.TIM_SetIC3Prescaler:0000000000000000 $t
/var/folders/m4/4md61f0s1_g0rzfghffqnxvr0000gn/T//ccSRVwbo.s:3195   .text.TIM_SetIC3Prescaler:0000000000000000 TIM_SetIC3Prescaler
/var/folders/m4/4md61f0s1_g0rzfghffqnxvr0000gn/T//ccSRVwbo.s:3218   .text.TIM_SetIC4Prescaler:0000000000000000 $t
/var/folders/m4/4md61f0s1_g0rzfghffqnxvr0000gn/T//ccSRVwbo.s:3224   .text.TIM_SetIC4Prescaler:0000000000000000 TIM_SetIC4Prescaler
/var/folders/m4/4md61f0s1_g0rzfghffqnxvr0000gn/T//ccSRVwbo.s:3249   .text.TIM_BDTRConfig:0000000000000000 $t
/var/folders/m4/4md61f0s1_g0rzfghffqnxvr0000gn/T//ccSRVwbo.s:3255   .text.TIM_BDTRConfig:0000000000000000 TIM_BDTRConfig
/var/folders/m4/4md61f0s1_g0rzfghffqnxvr0000gn/T//ccSRVwbo.s:3291   .text.TIM_BDTRStructInit:0000000000000000 $t
/var/folders/m4/4md61f0s1_g0rzfghffqnxvr0000gn/T//ccSRVwbo.s:3297   .text.TIM_BDTRStructInit:0000000000000000 TIM_BDTRStructInit
/var/folders/m4/4md61f0s1_g0rzfghffqnxvr0000gn/T//ccSRVwbo.s:3325   .text.TIM_CtrlPWMOutputs:0000000000000000 $t
/var/folders/m4/4md61f0s1_g0rzfghffqnxvr0000gn/T//ccSRVwbo.s:3331   .text.TIM_CtrlPWMOutputs:0000000000000000 TIM_CtrlPWMOutputs
/var/folders/m4/4md61f0s1_g0rzfghffqnxvr0000gn/T//ccSRVwbo.s:3356   .text.TIM_SelectCOM:0000000000000000 $t
/var/folders/m4/4md61f0s1_g0rzfghffqnxvr0000gn/T//ccSRVwbo.s:3362   .text.TIM_SelectCOM:0000000000000000 TIM_SelectCOM
/var/folders/m4/4md61f0s1_g0rzfghffqnxvr0000gn/T//ccSRVwbo.s:3388   .text.TIM_CCPreloadControl:0000000000000000 $t
/var/folders/m4/4md61f0s1_g0rzfghffqnxvr0000gn/T//ccSRVwbo.s:3394   .text.TIM_CCPreloadControl:0000000000000000 TIM_CCPreloadControl
/var/folders/m4/4md61f0s1_g0rzfghffqnxvr0000gn/T//ccSRVwbo.s:3420   .text.TIM_GenerateEvent:0000000000000000 $t
/var/folders/m4/4md61f0s1_g0rzfghffqnxvr0000gn/T//ccSRVwbo.s:3426   .text.TIM_GenerateEvent:0000000000000000 TIM_GenerateEvent
/var/folders/m4/4md61f0s1_g0rzfghffqnxvr0000gn/T//ccSRVwbo.s:3441   .text.TIM_GetFlagStatus:0000000000000000 $t
/var/folders/m4/4md61f0s1_g0rzfghffqnxvr0000gn/T//ccSRVwbo.s:3447   .text.TIM_GetFlagStatus:0000000000000000 TIM_GetFlagStatus
/var/folders/m4/4md61f0s1_g0rzfghffqnxvr0000gn/T//ccSRVwbo.s:3470   .text.TIM_ClearFlag:0000000000000000 $t
/var/folders/m4/4md61f0s1_g0rzfghffqnxvr0000gn/T//ccSRVwbo.s:3476   .text.TIM_ClearFlag:0000000000000000 TIM_ClearFlag
/var/folders/m4/4md61f0s1_g0rzfghffqnxvr0000gn/T//ccSRVwbo.s:3490   .text.TIM_GetITStatus:0000000000000000 $t
/var/folders/m4/4md61f0s1_g0rzfghffqnxvr0000gn/T//ccSRVwbo.s:3496   .text.TIM_GetITStatus:0000000000000000 TIM_GetITStatus
/var/folders/m4/4md61f0s1_g0rzfghffqnxvr0000gn/T//ccSRVwbo.s:3527   .text.TIM_ClearITPendingBit:0000000000000000 $t
/var/folders/m4/4md61f0s1_g0rzfghffqnxvr0000gn/T//ccSRVwbo.s:3533   .text.TIM_ClearITPendingBit:0000000000000000 TIM_ClearITPendingBit
/var/folders/m4/4md61f0s1_g0rzfghffqnxvr0000gn/T//ccSRVwbo.s:3551   .text.TIM_DMAConfig:0000000000000000 $t
/var/folders/m4/4md61f0s1_g0rzfghffqnxvr0000gn/T//ccSRVwbo.s:3557   .text.TIM_DMAConfig:0000000000000000 TIM_DMAConfig
/var/folders/m4/4md61f0s1_g0rzfghffqnxvr0000gn/T//ccSRVwbo.s:3574   .text.TIM_DMACmd:0000000000000000 $t
/var/folders/m4/4md61f0s1_g0rzfghffqnxvr0000gn/T//ccSRVwbo.s:3580   .text.TIM_DMACmd:0000000000000000 TIM_DMACmd
/var/folders/m4/4md61f0s1_g0rzfghffqnxvr0000gn/T//ccSRVwbo.s:3610   .text.TIM_ITConfig:0000000000000000 $t
/var/folders/m4/4md61f0s1_g0rzfghffqnxvr0000gn/T//ccSRVwbo.s:3616   .text.TIM_ITConfig:0000000000000000 TIM_ITConfig
/var/folders/m4/4md61f0s1_g0rzfghffqnxvr0000gn/T//ccSRVwbo.s:3627   .text.TIM_SelectCCDMA:0000000000000000 $t
/var/folders/m4/4md61f0s1_g0rzfghffqnxvr0000gn/T//ccSRVwbo.s:3633   .text.TIM_SelectCCDMA:0000000000000000 TIM_SelectCCDMA
/var/folders/m4/4md61f0s1_g0rzfghffqnxvr0000gn/T//ccSRVwbo.s:3659   .text.TIM_InternalClockConfig:0000000000000000 $t
/var/folders/m4/4md61f0s1_g0rzfghffqnxvr0000gn/T//ccSRVwbo.s:3665   .text.TIM_InternalClockConfig:0000000000000000 TIM_InternalClockConfig
/var/folders/m4/4md61f0s1_g0rzfghffqnxvr0000gn/T//ccSRVwbo.s:3683   .text.TIM_ITRxExternalClockConfig:0000000000000000 $t
/var/folders/m4/4md61f0s1_g0rzfghffqnxvr0000gn/T//ccSRVwbo.s:3689   .text.TIM_ITRxExternalClockConfig:0000000000000000 TIM_ITRxExternalClockConfig
/var/folders/m4/4md61f0s1_g0rzfghffqnxvr0000gn/T//ccSRVwbo.s:3722   .text.TIM_TIxExternalClockConfig:0000000000000000 $t
/var/folders/m4/4md61f0s1_g0rzfghffqnxvr0000gn/T//ccSRVwbo.s:3728   .text.TIM_TIxExternalClockConfig:0000000000000000 TIM_TIxExternalClockConfig
/var/folders/m4/4md61f0s1_g0rzfghffqnxvr0000gn/T//ccSRVwbo.s:3865   .text.TIM_ETRClockMode1Config:0000000000000000 $t
/var/folders/m4/4md61f0s1_g0rzfghffqnxvr0000gn/T//ccSRVwbo.s:3871   .text.TIM_ETRClockMode1Config:0000000000000000 TIM_ETRClockMode1Config
/var/folders/m4/4md61f0s1_g0rzfghffqnxvr0000gn/T//ccSRVwbo.s:3922   .text.TIM_ETRClockMode2Config:0000000000000000 $t
/var/folders/m4/4md61f0s1_g0rzfghffqnxvr0000gn/T//ccSRVwbo.s:3928   .text.TIM_ETRClockMode2Config:0000000000000000 TIM_ETRClockMode2Config
/var/folders/m4/4md61f0s1_g0rzfghffqnxvr0000gn/T//ccSRVwbo.s:3973   .text.TIM_SelectInputTrigger:0000000000000000 $t
/var/folders/m4/4md61f0s1_g0rzfghffqnxvr0000gn/T//ccSRVwbo.s:3979   .text.TIM_SelectInputTrigger:0000000000000000 TIM_SelectInputTrigger
/var/folders/m4/4md61f0s1_g0rzfghffqnxvr0000gn/T//ccSRVwbo.s:4003   .text.TIM_SelectOutputTrigger:0000000000000000 $t
ARM GAS  /var/folders/m4/4md61f0s1_g0rzfghffqnxvr0000gn/T//ccSRVwbo.s 			page 263


/var/folders/m4/4md61f0s1_g0rzfghffqnxvr0000gn/T//ccSRVwbo.s:4009   .text.TIM_SelectOutputTrigger:0000000000000000 TIM_SelectOutputTrigger
/var/folders/m4/4md61f0s1_g0rzfghffqnxvr0000gn/T//ccSRVwbo.s:4032   .text.TIM_SelectSlaveMode:0000000000000000 $t
/var/folders/m4/4md61f0s1_g0rzfghffqnxvr0000gn/T//ccSRVwbo.s:4038   .text.TIM_SelectSlaveMode:0000000000000000 TIM_SelectSlaveMode
/var/folders/m4/4md61f0s1_g0rzfghffqnxvr0000gn/T//ccSRVwbo.s:4061   .text.TIM_SelectMasterSlaveMode:0000000000000000 $t
/var/folders/m4/4md61f0s1_g0rzfghffqnxvr0000gn/T//ccSRVwbo.s:4067   .text.TIM_SelectMasterSlaveMode:0000000000000000 TIM_SelectMasterSlaveMode
/var/folders/m4/4md61f0s1_g0rzfghffqnxvr0000gn/T//ccSRVwbo.s:4090   .text.TIM_ETRConfig:0000000000000000 $t
/var/folders/m4/4md61f0s1_g0rzfghffqnxvr0000gn/T//ccSRVwbo.s:4096   .text.TIM_ETRConfig:0000000000000000 TIM_ETRConfig
/var/folders/m4/4md61f0s1_g0rzfghffqnxvr0000gn/T//ccSRVwbo.s:4130   .text.TIM_EncoderInterfaceConfig:0000000000000000 $t
/var/folders/m4/4md61f0s1_g0rzfghffqnxvr0000gn/T//ccSRVwbo.s:4136   .text.TIM_EncoderInterfaceConfig:0000000000000000 TIM_EncoderInterfaceConfig
/var/folders/m4/4md61f0s1_g0rzfghffqnxvr0000gn/T//ccSRVwbo.s:4198   .text.TIM_SelectHallSensor:0000000000000000 $t
/var/folders/m4/4md61f0s1_g0rzfghffqnxvr0000gn/T//ccSRVwbo.s:4204   .text.TIM_SelectHallSensor:0000000000000000 TIM_SelectHallSensor
/var/folders/m4/4md61f0s1_g0rzfghffqnxvr0000gn/T//ccSRVwbo.s:4230   .text.TIM_RemapConfig:0000000000000000 $t
/var/folders/m4/4md61f0s1_g0rzfghffqnxvr0000gn/T//ccSRVwbo.s:4236   .text.TIM_RemapConfig:0000000000000000 TIM_RemapConfig
                     .debug_frame:0000000000000010 $d

UNDEFINED SYMBOLS
RCC_APB1PeriphResetCmd
RCC_APB2PeriphResetCmd
