ARM GAS  /var/folders/m4/4md61f0s1_g0rzfghffqnxvr0000gn/T//cc6sfehi.s 			page 1


   1              		.syntax unified
   2              		.cpu cortex-m4
   3              		.eabi_attribute 27, 1
   4              		.eabi_attribute 28, 1
   5              		.fpu fpv4-sp-d16
   6              		.eabi_attribute 20, 1
   7              		.eabi_attribute 21, 1
   8              		.eabi_attribute 23, 3
   9              		.eabi_attribute 24, 1
  10              		.eabi_attribute 25, 1
  11              		.eabi_attribute 26, 1
  12              		.eabi_attribute 30, 2
  13              		.eabi_attribute 34, 1
  14              		.eabi_attribute 18, 4
  15              		.thumb
  16              		.syntax unified
  17              		.file	"stm32f4xx_wwdg.c"
  18              		.text
  19              	.Ltext0:
  20              		.cfi_sections	.debug_frame
  21              		.section	.text.WWDG_DeInit,"ax",%progbits
  22              		.align	2
  23              		.p2align 4,,15
  24              		.global	WWDG_DeInit
  25              		.thumb
  26              		.thumb_func
  27              		.type	WWDG_DeInit, %function
  28              	WWDG_DeInit:
  29              	.LFB123:
  30              		.file 1 "ChibiOS_16.1.4/ext/stdperiph_stm32f4/src/stm32f4xx_wwdg.c"
  31              		.loc 1 139 0
  32              		.cfi_startproc
  33              		@ args = 0, pretend = 0, frame = 0
  34              		@ frame_needed = 0, uses_anonymous_args = 0
  35 0000 08B5     		push	{r3, lr}
  36              		.cfi_def_cfa_offset 8
  37              		.cfi_offset 3, -8
  38              		.cfi_offset 14, -4
  39              		.loc 1 140 0
  40 0002 0121     		movs	r1, #1
  41 0004 4FF40060 		mov	r0, #2048
  42 0008 FFF7FEFF 		bl	RCC_APB1PeriphResetCmd
  43              	.LVL0:
  44              		.loc 1 141 0
  45 000c 0021     		movs	r1, #0
  46 000e 4FF40060 		mov	r0, #2048
  47              		.loc 1 142 0
  48 0012 BDE80840 		pop	{r3, lr}
  49              		.cfi_restore 14
  50              		.cfi_restore 3
  51              		.cfi_def_cfa_offset 0
  52              		.loc 1 141 0
  53 0016 FFF7FEBF 		b	RCC_APB1PeriphResetCmd
  54              	.LVL1:
  55              		.cfi_endproc
  56              	.LFE123:
  57              		.size	WWDG_DeInit, .-WWDG_DeInit
ARM GAS  /var/folders/m4/4md61f0s1_g0rzfghffqnxvr0000gn/T//cc6sfehi.s 			page 2


  58 001a 00BF     		.section	.text.WWDG_SetPrescaler,"ax",%progbits
  59              		.align	2
  60              		.p2align 4,,15
  61              		.global	WWDG_SetPrescaler
  62              		.thumb
  63              		.thumb_func
  64              		.type	WWDG_SetPrescaler, %function
  65              	WWDG_SetPrescaler:
  66              	.LFB124:
  67              		.loc 1 155 0
  68              		.cfi_startproc
  69              		@ args = 0, pretend = 0, frame = 0
  70              		@ frame_needed = 0, uses_anonymous_args = 0
  71              	.LVL2:
  72              		.loc 1 158 0
  73 0000 30F4C073 		bics	r3, r0, #384
  74              		.loc 1 155 0
  75 0004 10B5     		push	{r4, lr}
  76              		.cfi_def_cfa_offset 8
  77              		.cfi_offset 4, -8
  78              		.cfi_offset 14, -4
  79              		.loc 1 155 0
  80 0006 0446     		mov	r4, r0
  81              		.loc 1 158 0
  82 0008 0CBF     		ite	eq
  83 000a 0120     		moveq	r0, #1
  84              	.LVL3:
  85 000c 0020     		movne	r0, #0
  86 000e FFF7FEFF 		bl	assert_param
  87              	.LVL4:
  88              		.loc 1 160 0
  89 0012 034B     		ldr	r3, .L5
  90 0014 5868     		ldr	r0, [r3, #4]
  91 0016 20F4C070 		bic	r0, r0, #384
  92              	.LVL5:
  93              		.loc 1 162 0
  94 001a 2043     		orrs	r0, r0, r4
  95              	.LVL6:
  96              		.loc 1 164 0
  97 001c 5860     		str	r0, [r3, #4]
  98 001e 10BD     		pop	{r4, pc}
  99              	.LVL7:
 100              	.L6:
 101              		.align	2
 102              	.L5:
 103 0020 002C0040 		.word	1073753088
 104              		.cfi_endproc
 105              	.LFE124:
 106              		.size	WWDG_SetPrescaler, .-WWDG_SetPrescaler
 107              		.section	.text.WWDG_SetWindowValue,"ax",%progbits
 108              		.align	2
 109              		.p2align 4,,15
 110              		.global	WWDG_SetWindowValue
 111              		.thumb
 112              		.thumb_func
 113              		.type	WWDG_SetWindowValue, %function
 114              	WWDG_SetWindowValue:
ARM GAS  /var/folders/m4/4md61f0s1_g0rzfghffqnxvr0000gn/T//cc6sfehi.s 			page 3


 115              	.LFB125:
 116              		.loc 1 174 0
 117              		.cfi_startproc
 118              		@ args = 0, pretend = 0, frame = 8
 119              		@ frame_needed = 0, uses_anonymous_args = 0
 120              	.LVL8:
 121 0000 10B5     		push	{r4, lr}
 122              		.cfi_def_cfa_offset 8
 123              		.cfi_offset 4, -8
 124              		.cfi_offset 14, -4
 125 0002 0446     		mov	r4, r0
 126              		.loc 1 178 0
 127 0004 40B2     		sxtb	r0, r0
 128              		.loc 1 174 0
 129 0006 82B0     		sub	sp, sp, #8
 130              		.cfi_def_cfa_offset 16
 131              		.loc 1 178 0
 132 0008 C043     		mvns	r0, r0
 133              	.LVL9:
 134              		.loc 1 175 0
 135 000a 0023     		movs	r3, #0
 136              		.loc 1 178 0
 137 000c C00F     		lsrs	r0, r0, #31
 138              	.LVL10:
 139              		.loc 1 175 0
 140 000e 0193     		str	r3, [sp, #4]
 141              		.loc 1 178 0
 142 0010 FFF7FEFF 		bl	assert_param
 143              	.LVL11:
 144              		.loc 1 181 0
 145 0014 064A     		ldr	r2, .L9
 146 0016 5368     		ldr	r3, [r2, #4]
 147 0018 23F07F03 		bic	r3, r3, #127
 148 001c 0193     		str	r3, [sp, #4]
 149              		.loc 1 184 0
 150 001e 019B     		ldr	r3, [sp, #4]
 151 0020 04F07F04 		and	r4, r4, #127
 152 0024 1C43     		orrs	r4, r4, r3
 153 0026 0194     		str	r4, [sp, #4]
 154              		.loc 1 187 0
 155 0028 019B     		ldr	r3, [sp, #4]
 156 002a 5360     		str	r3, [r2, #4]
 157              		.loc 1 188 0
 158 002c 02B0     		add	sp, sp, #8
 159              		.cfi_def_cfa_offset 8
 160              		@ sp needed
 161 002e 10BD     		pop	{r4, pc}
 162              	.L10:
 163              		.align	2
 164              	.L9:
 165 0030 002C0040 		.word	1073753088
 166              		.cfi_endproc
 167              	.LFE125:
 168              		.size	WWDG_SetWindowValue, .-WWDG_SetWindowValue
 169              		.section	.text.WWDG_EnableIT,"ax",%progbits
 170              		.align	2
 171              		.p2align 4,,15
ARM GAS  /var/folders/m4/4md61f0s1_g0rzfghffqnxvr0000gn/T//cc6sfehi.s 			page 4


 172              		.global	WWDG_EnableIT
 173              		.thumb
 174              		.thumb_func
 175              		.type	WWDG_EnableIT, %function
 176              	WWDG_EnableIT:
 177              	.LFB126:
 178              		.loc 1 197 0
 179              		.cfi_startproc
 180              		@ args = 0, pretend = 0, frame = 0
 181              		@ frame_needed = 0, uses_anonymous_args = 0
 182              		@ link register save eliminated.
 183              		.loc 1 198 0
 184 0000 014B     		ldr	r3, .L12
 185 0002 0122     		movs	r2, #1
 186 0004 1A60     		str	r2, [r3]
 187 0006 7047     		bx	lr
 188              	.L13:
 189              		.align	2
 190              	.L12:
 191 0008 A4800542 		.word	1107656868
 192              		.cfi_endproc
 193              	.LFE126:
 194              		.size	WWDG_EnableIT, .-WWDG_EnableIT
 195              		.section	.text.WWDG_SetCounter,"ax",%progbits
 196              		.align	2
 197              		.p2align 4,,15
 198              		.global	WWDG_SetCounter
 199              		.thumb
 200              		.thumb_func
 201              		.type	WWDG_SetCounter, %function
 202              	WWDG_SetCounter:
 203              	.LFB127:
 204              		.loc 1 209 0
 205              		.cfi_startproc
 206              		@ args = 0, pretend = 0, frame = 0
 207              		@ frame_needed = 0, uses_anonymous_args = 0
 208              	.LVL12:
 209 0000 10B5     		push	{r4, lr}
 210              		.cfi_def_cfa_offset 8
 211              		.cfi_offset 4, -8
 212              		.cfi_offset 14, -4
 213              		.loc 1 209 0
 214 0002 0446     		mov	r4, r0
 215              		.loc 1 211 0
 216 0004 4038     		subs	r0, r0, #64
 217              	.LVL13:
 218 0006 3F28     		cmp	r0, #63
 219 0008 8CBF     		ite	hi
 220 000a 0020     		movhi	r0, #0
 221 000c 0120     		movls	r0, #1
 222 000e FFF7FEFF 		bl	assert_param
 223              	.LVL14:
 224              		.loc 1 214 0
 225 0012 024B     		ldr	r3, .L16
 226 0014 04F07F04 		and	r4, r4, #127
 227 0018 1C60     		str	r4, [r3]
 228 001a 10BD     		pop	{r4, pc}
ARM GAS  /var/folders/m4/4md61f0s1_g0rzfghffqnxvr0000gn/T//cc6sfehi.s 			page 5


 229              	.L17:
 230              		.align	2
 231              	.L16:
 232 001c 002C0040 		.word	1073753088
 233              		.cfi_endproc
 234              	.LFE127:
 235              		.size	WWDG_SetCounter, .-WWDG_SetCounter
 236              		.section	.text.WWDG_Enable,"ax",%progbits
 237              		.align	2
 238              		.p2align 4,,15
 239              		.global	WWDG_Enable
 240              		.thumb
 241              		.thumb_func
 242              		.type	WWDG_Enable, %function
 243              	WWDG_Enable:
 244              	.LFB128:
 245              		.loc 1 240 0
 246              		.cfi_startproc
 247              		@ args = 0, pretend = 0, frame = 0
 248              		@ frame_needed = 0, uses_anonymous_args = 0
 249              	.LVL15:
 250 0000 10B5     		push	{r4, lr}
 251              		.cfi_def_cfa_offset 8
 252              		.cfi_offset 4, -8
 253              		.cfi_offset 14, -4
 254              		.loc 1 240 0
 255 0002 0446     		mov	r4, r0
 256              		.loc 1 242 0
 257 0004 4038     		subs	r0, r0, #64
 258              	.LVL16:
 259 0006 3F28     		cmp	r0, #63
 260 0008 8CBF     		ite	hi
 261 000a 0020     		movhi	r0, #0
 262 000c 0120     		movls	r0, #1
 263 000e FFF7FEFF 		bl	assert_param
 264              	.LVL17:
 265              		.loc 1 243 0
 266 0012 024B     		ldr	r3, .L20
 267 0014 44F08004 		orr	r4, r4, #128
 268 0018 1C60     		str	r4, [r3]
 269 001a 10BD     		pop	{r4, pc}
 270              	.L21:
 271              		.align	2
 272              	.L20:
 273 001c 002C0040 		.word	1073753088
 274              		.cfi_endproc
 275              	.LFE128:
 276              		.size	WWDG_Enable, .-WWDG_Enable
 277              		.section	.text.WWDG_GetFlagStatus,"ax",%progbits
 278              		.align	2
 279              		.p2align 4,,15
 280              		.global	WWDG_GetFlagStatus
 281              		.thumb
 282              		.thumb_func
 283              		.type	WWDG_GetFlagStatus, %function
 284              	WWDG_GetFlagStatus:
 285              	.LFB129:
ARM GAS  /var/folders/m4/4md61f0s1_g0rzfghffqnxvr0000gn/T//cc6sfehi.s 			page 6


 286              		.loc 1 267 0
 287              		.cfi_startproc
 288              		@ args = 0, pretend = 0, frame = 0
 289              		@ frame_needed = 0, uses_anonymous_args = 0
 290              		@ link register save eliminated.
 291              	.LVL18:
 292              		.loc 1 270 0
 293 0000 024B     		ldr	r3, .L23
 294 0002 9868     		ldr	r0, [r3, #8]
 295              	.LVL19:
 296              		.loc 1 279 0
 297 0004 0030     		adds	r0, r0, #0
 298 0006 18BF     		it	ne
 299 0008 0120     		movne	r0, #1
 300              	.LVL20:
 301 000a 7047     		bx	lr
 302              	.L24:
 303              		.align	2
 304              	.L23:
 305 000c 002C0040 		.word	1073753088
 306              		.cfi_endproc
 307              	.LFE129:
 308              		.size	WWDG_GetFlagStatus, .-WWDG_GetFlagStatus
 309              		.section	.text.WWDG_ClearFlag,"ax",%progbits
 310              		.align	2
 311              		.p2align 4,,15
 312              		.global	WWDG_ClearFlag
 313              		.thumb
 314              		.thumb_func
 315              		.type	WWDG_ClearFlag, %function
 316              	WWDG_ClearFlag:
 317              	.LFB130:
 318              		.loc 1 287 0
 319              		.cfi_startproc
 320              		@ args = 0, pretend = 0, frame = 0
 321              		@ frame_needed = 0, uses_anonymous_args = 0
 322              		@ link register save eliminated.
 323              		.loc 1 288 0
 324 0000 014B     		ldr	r3, .L26
 325 0002 0022     		movs	r2, #0
 326 0004 9A60     		str	r2, [r3, #8]
 327 0006 7047     		bx	lr
 328              	.L27:
 329              		.align	2
 330              	.L26:
 331 0008 002C0040 		.word	1073753088
 332              		.cfi_endproc
 333              	.LFE130:
 334              		.size	WWDG_ClearFlag, .-WWDG_ClearFlag
 335              		.text
 336              	.Letext0:
 337              		.file 2 "/opt/homebrew-cask/Caskroom/gcc-arm-embedded/5_2-2015q4,20151219/gcc-arm-none-eabi-5_2-20
 338              		.file 3 "/opt/homebrew-cask/Caskroom/gcc-arm-embedded/5_2-2015q4,20151219/gcc-arm-none-eabi-5_2-20
 339              		.file 4 "ChibiOS_16.1.4/os/ext/CMSIS/ST/STM32F4xx/stm32f405xx.h"
 340              		.file 5 "ChibiOS_16.1.4/os/ext/CMSIS/ST/STM32F4xx/stm32f4xx.h"
 341              		.file 6 "ChibiOS_16.1.4/ext/stdperiph_stm32f4/inc/stm32f4xx_rcc.h"
 342              		.file 7 "ChibiOS_16.1.4/os/ext/CMSIS/include/core_cm4.h"
ARM GAS  /var/folders/m4/4md61f0s1_g0rzfghffqnxvr0000gn/T//cc6sfehi.s 			page 7


 343              		.section	.debug_info,"",%progbits
 344              	.Ldebug_info0:
 345 0000 8B030000 		.4byte	0x38b
 346 0004 0400     		.2byte	0x4
 347 0006 00000000 		.4byte	.Ldebug_abbrev0
 348 000a 04       		.byte	0x4
 349 000b 01       		.uleb128 0x1
 350 000c 44020000 		.4byte	.LASF35
 351 0010 0C       		.byte	0xc
 352 0011 17000000 		.4byte	.LASF36
 353 0015 C5000000 		.4byte	.LASF37
 354 0019 00000000 		.4byte	.Ldebug_ranges0+0
 355 001d 00000000 		.4byte	0
 356 0021 00000000 		.4byte	.Ldebug_line0
 357 0025 02       		.uleb128 0x2
 358 0026 01       		.byte	0x1
 359 0027 06       		.byte	0x6
 360 0028 AB000000 		.4byte	.LASF0
 361 002c 03       		.uleb128 0x3
 362 002d 00000000 		.4byte	.LASF4
 363 0031 02       		.byte	0x2
 364 0032 1D       		.byte	0x1d
 365 0033 37000000 		.4byte	0x37
 366 0037 02       		.uleb128 0x2
 367 0038 01       		.byte	0x1
 368 0039 08       		.byte	0x8
 369 003a 3D010000 		.4byte	.LASF1
 370 003e 02       		.uleb128 0x2
 371 003f 02       		.byte	0x2
 372 0040 05       		.byte	0x5
 373 0041 D3010000 		.4byte	.LASF2
 374 0045 02       		.uleb128 0x2
 375 0046 02       		.byte	0x2
 376 0047 07       		.byte	0x7
 377 0048 5B000000 		.4byte	.LASF3
 378 004c 03       		.uleb128 0x3
 379 004d 51000000 		.4byte	.LASF5
 380 0051 02       		.byte	0x2
 381 0052 3F       		.byte	0x3f
 382 0053 57000000 		.4byte	0x57
 383 0057 02       		.uleb128 0x2
 384 0058 04       		.byte	0x4
 385 0059 05       		.byte	0x5
 386 005a 1C020000 		.4byte	.LASF6
 387 005e 03       		.uleb128 0x3
 388 005f 99000000 		.4byte	.LASF7
 389 0063 02       		.byte	0x2
 390 0064 41       		.byte	0x41
 391 0065 69000000 		.4byte	0x69
 392 0069 02       		.uleb128 0x2
 393 006a 04       		.byte	0x4
 394 006b 07       		.byte	0x7
 395 006c 18010000 		.4byte	.LASF8
 396 0070 02       		.uleb128 0x2
 397 0071 08       		.byte	0x8
 398 0072 05       		.byte	0x5
 399 0073 C5010000 		.4byte	.LASF9
ARM GAS  /var/folders/m4/4md61f0s1_g0rzfghffqnxvr0000gn/T//cc6sfehi.s 			page 8


 400 0077 02       		.uleb128 0x2
 401 0078 08       		.byte	0x8
 402 0079 07       		.byte	0x7
 403 007a 6C010000 		.4byte	.LASF10
 404 007e 04       		.uleb128 0x4
 405 007f 04       		.byte	0x4
 406 0080 05       		.byte	0x5
 407 0081 696E7400 		.ascii	"int\000"
 408 0085 02       		.uleb128 0x2
 409 0086 04       		.byte	0x4
 410 0087 07       		.byte	0x7
 411 0088 5F010000 		.4byte	.LASF11
 412 008c 03       		.uleb128 0x3
 413 008d 83010000 		.4byte	.LASF12
 414 0091 03       		.byte	0x3
 415 0092 14       		.byte	0x14
 416 0093 2C000000 		.4byte	0x2c
 417 0097 03       		.uleb128 0x3
 418 0098 85000000 		.4byte	.LASF13
 419 009c 03       		.byte	0x3
 420 009d 1F       		.byte	0x1f
 421 009e 4C000000 		.4byte	0x4c
 422 00a2 03       		.uleb128 0x3
 423 00a3 13020000 		.4byte	.LASF14
 424 00a7 03       		.byte	0x3
 425 00a8 20       		.byte	0x20
 426 00a9 5E000000 		.4byte	0x5e
 427 00ad 02       		.uleb128 0x2
 428 00ae 04       		.byte	0x4
 429 00af 07       		.byte	0x7
 430 00b0 BC010000 		.4byte	.LASF15
 431 00b4 05       		.uleb128 0x5
 432 00b5 A2000000 		.4byte	0xa2
 433 00b9 06       		.uleb128 0x6
 434 00ba 0C       		.byte	0xc
 435 00bb 04       		.byte	0x4
 436 00bc B802     		.2byte	0x2b8
 437 00be E8000000 		.4byte	0xe8
 438 00c2 07       		.uleb128 0x7
 439 00c3 435200   		.ascii	"CR\000"
 440 00c6 04       		.byte	0x4
 441 00c7 BA02     		.2byte	0x2ba
 442 00c9 B4000000 		.4byte	0xb4
 443 00cd 00       		.byte	0
 444 00ce 07       		.uleb128 0x7
 445 00cf 43465200 		.ascii	"CFR\000"
 446 00d3 04       		.byte	0x4
 447 00d4 BB02     		.2byte	0x2bb
 448 00d6 B4000000 		.4byte	0xb4
 449 00da 04       		.byte	0x4
 450 00db 07       		.uleb128 0x7
 451 00dc 535200   		.ascii	"SR\000"
 452 00df 04       		.byte	0x4
 453 00e0 BC02     		.2byte	0x2bc
 454 00e2 B4000000 		.4byte	0xb4
 455 00e6 08       		.byte	0x8
 456 00e7 00       		.byte	0
ARM GAS  /var/folders/m4/4md61f0s1_g0rzfghffqnxvr0000gn/T//cc6sfehi.s 			page 9


 457 00e8 08       		.uleb128 0x8
 458 00e9 6E000000 		.4byte	.LASF16
 459 00ed 04       		.byte	0x4
 460 00ee BD02     		.2byte	0x2bd
 461 00f0 B9000000 		.4byte	0xb9
 462 00f4 09       		.uleb128 0x9
 463 00f5 01       		.byte	0x1
 464 00f6 37000000 		.4byte	0x37
 465 00fa 05       		.byte	0x5
 466 00fb B8       		.byte	0xb8
 467 00fc 0D010000 		.4byte	0x10d
 468 0100 0A       		.uleb128 0xa
 469 0101 2A010000 		.4byte	.LASF17
 470 0105 00       		.byte	0
 471 0106 0B       		.uleb128 0xb
 472 0107 53455400 		.ascii	"SET\000"
 473 010b 01       		.byte	0x1
 474 010c 00       		.byte	0
 475 010d 03       		.uleb128 0x3
 476 010e FA000000 		.4byte	.LASF18
 477 0112 05       		.byte	0x5
 478 0113 BB       		.byte	0xbb
 479 0114 F4000000 		.4byte	0xf4
 480 0118 09       		.uleb128 0x9
 481 0119 01       		.byte	0x1
 482 011a 37000000 		.4byte	0x37
 483 011e 05       		.byte	0x5
 484 011f BE       		.byte	0xbe
 485 0120 31010000 		.4byte	0x131
 486 0124 0A       		.uleb128 0xa
 487 0125 25020000 		.4byte	.LASF19
 488 0129 00       		.byte	0
 489 012a 0A       		.uleb128 0xa
 490 012b A4000000 		.4byte	.LASF20
 491 012f 01       		.byte	0x1
 492 0130 00       		.byte	0
 493 0131 0C       		.uleb128 0xc
 494 0132 07020000 		.4byte	.LASF21
 495 0136 01       		.byte	0x1
 496 0137 8A       		.byte	0x8a
 497 0138 00000000 		.4byte	.LFB123
 498 013c 1A000000 		.4byte	.LFE123-.LFB123
 499 0140 01       		.uleb128 0x1
 500 0141 9C       		.byte	0x9c
 501 0142 77010000 		.4byte	0x177
 502 0146 0D       		.uleb128 0xd
 503 0147 0C000000 		.4byte	.LVL0
 504 014b 77030000 		.4byte	0x377
 505 014f 60010000 		.4byte	0x160
 506 0153 0E       		.uleb128 0xe
 507 0154 01       		.uleb128 0x1
 508 0155 50       		.byte	0x50
 509 0156 03       		.uleb128 0x3
 510 0157 0A       		.byte	0xa
 511 0158 0008     		.2byte	0x800
 512 015a 0E       		.uleb128 0xe
 513 015b 01       		.uleb128 0x1
ARM GAS  /var/folders/m4/4md61f0s1_g0rzfghffqnxvr0000gn/T//cc6sfehi.s 			page 10


 514 015c 51       		.byte	0x51
 515 015d 01       		.uleb128 0x1
 516 015e 31       		.byte	0x31
 517 015f 00       		.byte	0
 518 0160 0F       		.uleb128 0xf
 519 0161 1A000000 		.4byte	.LVL1
 520 0165 77030000 		.4byte	0x377
 521 0169 0E       		.uleb128 0xe
 522 016a 01       		.uleb128 0x1
 523 016b 50       		.byte	0x50
 524 016c 03       		.uleb128 0x3
 525 016d 0A       		.byte	0xa
 526 016e 0008     		.2byte	0x800
 527 0170 0E       		.uleb128 0xe
 528 0171 01       		.uleb128 0x1
 529 0172 51       		.byte	0x51
 530 0173 01       		.uleb128 0x1
 531 0174 30       		.byte	0x30
 532 0175 00       		.byte	0
 533 0176 00       		.byte	0
 534 0177 0C       		.uleb128 0xc
 535 0178 8B010000 		.4byte	.LASF22
 536 017c 01       		.byte	0x1
 537 017d 9A       		.byte	0x9a
 538 017e 00000000 		.4byte	.LFB124
 539 0182 24000000 		.4byte	.LFE124-.LFB124
 540 0186 01       		.uleb128 0x1
 541 0187 9C       		.byte	0x9c
 542 0188 E8010000 		.4byte	0x1e8
 543 018c 10       		.uleb128 0x10
 544 018d AD010000 		.4byte	.LASF24
 545 0191 01       		.byte	0x1
 546 0192 9A       		.byte	0x9a
 547 0193 A2000000 		.4byte	0xa2
 548 0197 00000000 		.4byte	.LLST0
 549 019b 11       		.uleb128 0x11
 550 019c DD010000 		.4byte	.LASF26
 551 01a0 01       		.byte	0x1
 552 01a1 9C       		.byte	0x9c
 553 01a2 A2000000 		.4byte	0xa2
 554 01a6 2C000000 		.4byte	.LLST1
 555 01aa 12       		.uleb128 0x12
 556 01ab 0A000000 		.4byte	.LASF27
 557 01af 01       		.byte	0x1
 558 01b0 9E       		.byte	0x9e
 559 01b1 7E000000 		.4byte	0x7e
 560 01b5 BB010000 		.4byte	0x1bb
 561 01b9 13       		.uleb128 0x13
 562 01ba 00       		.byte	0
 563 01bb 14       		.uleb128 0x14
 564 01bc 12000000 		.4byte	.LVL4
 565 01c0 83030000 		.4byte	0x383
 566 01c4 0E       		.uleb128 0xe
 567 01c5 01       		.uleb128 0x1
 568 01c6 50       		.byte	0x50
 569 01c7 1E       		.uleb128 0x1e
 570 01c8 30       		.byte	0x30
ARM GAS  /var/folders/m4/4md61f0s1_g0rzfghffqnxvr0000gn/T//cc6sfehi.s 			page 11


 571 01c9 31       		.byte	0x31
 572 01ca 74       		.byte	0x74
 573 01cb 00       		.sleb128 0
 574 01cc 74       		.byte	0x74
 575 01cd 00       		.sleb128 0
 576 01ce 0B       		.byte	0xb
 577 01cf 7FFE     		.2byte	0xfe7f
 578 01d1 1A       		.byte	0x1a
 579 01d2 30       		.byte	0x30
 580 01d3 29       		.byte	0x29
 581 01d4 28       		.byte	0x28
 582 01d5 0100     		.2byte	0x1
 583 01d7 16       		.byte	0x16
 584 01d8 13       		.byte	0x13
 585 01d9 74       		.byte	0x74
 586 01da 00       		.sleb128 0
 587 01db 0B       		.byte	0xb
 588 01dc 7FFE     		.2byte	0xfe7f
 589 01de 1A       		.byte	0x1a
 590 01df 30       		.byte	0x30
 591 01e0 2E       		.byte	0x2e
 592 01e1 28       		.byte	0x28
 593 01e2 0100     		.2byte	0x1
 594 01e4 16       		.byte	0x16
 595 01e5 13       		.byte	0x13
 596 01e6 00       		.byte	0
 597 01e7 00       		.byte	0
 598 01e8 0C       		.uleb128 0xc
 599 01e9 F3010000 		.4byte	.LASF23
 600 01ed 01       		.byte	0x1
 601 01ee AD       		.byte	0xad
 602 01ef 00000000 		.4byte	.LFB125
 603 01f3 34000000 		.4byte	.LFE125-.LFB125
 604 01f7 01       		.uleb128 0x1
 605 01f8 9C       		.byte	0x9c
 606 01f9 44020000 		.4byte	0x244
 607 01fd 10       		.uleb128 0x10
 608 01fe 4B010000 		.4byte	.LASF25
 609 0202 01       		.byte	0x1
 610 0203 AD       		.byte	0xad
 611 0204 8C000000 		.4byte	0x8c
 612 0208 4B000000 		.4byte	.LLST2
 613 020c 15       		.uleb128 0x15
 614 020d DD010000 		.4byte	.LASF26
 615 0211 01       		.byte	0x1
 616 0212 AF       		.byte	0xaf
 617 0213 B4000000 		.4byte	0xb4
 618 0217 02       		.uleb128 0x2
 619 0218 91       		.byte	0x91
 620 0219 74       		.sleb128 -12
 621 021a 12       		.uleb128 0x12
 622 021b 0A000000 		.4byte	.LASF27
 623 021f 01       		.byte	0x1
 624 0220 9E       		.byte	0x9e
 625 0221 7E000000 		.4byte	0x7e
 626 0225 2B020000 		.4byte	0x22b
 627 0229 13       		.uleb128 0x13
ARM GAS  /var/folders/m4/4md61f0s1_g0rzfghffqnxvr0000gn/T//cc6sfehi.s 			page 12


 628 022a 00       		.byte	0
 629 022b 14       		.uleb128 0x14
 630 022c 14000000 		.4byte	.LVL11
 631 0230 83030000 		.4byte	0x383
 632 0234 0E       		.uleb128 0xe
 633 0235 01       		.uleb128 0x1
 634 0236 50       		.byte	0x50
 635 0237 0A       		.uleb128 0xa
 636 0238 F3       		.byte	0xf3
 637 0239 01       		.uleb128 0x1
 638 023a 50       		.byte	0x50
 639 023b 48       		.byte	0x48
 640 023c 24       		.byte	0x24
 641 023d 48       		.byte	0x48
 642 023e 26       		.byte	0x26
 643 023f 20       		.byte	0x20
 644 0240 4F       		.byte	0x4f
 645 0241 25       		.byte	0x25
 646 0242 00       		.byte	0
 647 0243 00       		.byte	0
 648 0244 16       		.uleb128 0x16
 649 0245 B7000000 		.4byte	.LASF32
 650 0249 01       		.byte	0x1
 651 024a C4       		.byte	0xc4
 652 024b 00000000 		.4byte	.LFB126
 653 024f 0C000000 		.4byte	.LFE126-.LFB126
 654 0253 01       		.uleb128 0x1
 655 0254 9C       		.byte	0x9c
 656 0255 0C       		.uleb128 0xc
 657 0256 9D010000 		.4byte	.LASF28
 658 025a 01       		.byte	0x1
 659 025b D0       		.byte	0xd0
 660 025c 00000000 		.4byte	.LFB127
 661 0260 20000000 		.4byte	.LFE127-.LFB127
 662 0264 01       		.uleb128 0x1
 663 0265 9C       		.byte	0x9c
 664 0266 BF020000 		.4byte	0x2bf
 665 026a 10       		.uleb128 0x10
 666 026b 57010000 		.4byte	.LASF29
 667 026f 01       		.byte	0x1
 668 0270 D0       		.byte	0xd0
 669 0271 8C000000 		.4byte	0x8c
 670 0275 7A000000 		.4byte	.LLST3
 671 0279 12       		.uleb128 0x12
 672 027a 0A000000 		.4byte	.LASF27
 673 027e 01       		.byte	0x1
 674 027f 9E       		.byte	0x9e
 675 0280 7E000000 		.4byte	0x7e
 676 0284 8A020000 		.4byte	0x28a
 677 0288 13       		.uleb128 0x13
 678 0289 00       		.byte	0
 679 028a 14       		.uleb128 0x14
 680 028b 12000000 		.4byte	.LVL14
 681 028f 83030000 		.4byte	0x383
 682 0293 0E       		.uleb128 0xe
 683 0294 01       		.uleb128 0x1
 684 0295 50       		.byte	0x50
ARM GAS  /var/folders/m4/4md61f0s1_g0rzfghffqnxvr0000gn/T//cc6sfehi.s 			page 13


 685 0296 26       		.uleb128 0x26
 686 0297 31       		.byte	0x31
 687 0298 30       		.byte	0x30
 688 0299 74       		.byte	0x74
 689 029a 40       		.sleb128 -64
 690 029b 74       		.byte	0x74
 691 029c 40       		.sleb128 -64
 692 029d 40       		.byte	0x40
 693 029e 4B       		.byte	0x4b
 694 029f 24       		.byte	0x24
 695 02a0 22       		.byte	0x22
 696 02a1 0C       		.byte	0xc
 697 02a2 3F000080 		.4byte	0x8000003f
 698 02a6 2B       		.byte	0x2b
 699 02a7 28       		.byte	0x28
 700 02a8 0100     		.2byte	0x1
 701 02aa 16       		.byte	0x16
 702 02ab 13       		.byte	0x13
 703 02ac 74       		.byte	0x74
 704 02ad 40       		.sleb128 -64
 705 02ae 40       		.byte	0x40
 706 02af 4B       		.byte	0x4b
 707 02b0 24       		.byte	0x24
 708 02b1 22       		.byte	0x22
 709 02b2 0C       		.byte	0xc
 710 02b3 3F000080 		.4byte	0x8000003f
 711 02b7 2C       		.byte	0x2c
 712 02b8 28       		.byte	0x28
 713 02b9 0100     		.2byte	0x1
 714 02bb 16       		.byte	0x16
 715 02bc 13       		.byte	0x13
 716 02bd 00       		.byte	0
 717 02be 00       		.byte	0
 718 02bf 0C       		.uleb128 0xc
 719 02c0 8D000000 		.4byte	.LASF30
 720 02c4 01       		.byte	0x1
 721 02c5 EF       		.byte	0xef
 722 02c6 00000000 		.4byte	.LFB128
 723 02ca 20000000 		.4byte	.LFE128-.LFB128
 724 02ce 01       		.uleb128 0x1
 725 02cf 9C       		.byte	0x9c
 726 02d0 29030000 		.4byte	0x329
 727 02d4 10       		.uleb128 0x10
 728 02d5 57010000 		.4byte	.LASF29
 729 02d9 01       		.byte	0x1
 730 02da EF       		.byte	0xef
 731 02db 8C000000 		.4byte	0x8c
 732 02df 9B000000 		.4byte	.LLST4
 733 02e3 12       		.uleb128 0x12
 734 02e4 0A000000 		.4byte	.LASF27
 735 02e8 01       		.byte	0x1
 736 02e9 9E       		.byte	0x9e
 737 02ea 7E000000 		.4byte	0x7e
 738 02ee F4020000 		.4byte	0x2f4
 739 02f2 13       		.uleb128 0x13
 740 02f3 00       		.byte	0
 741 02f4 14       		.uleb128 0x14
ARM GAS  /var/folders/m4/4md61f0s1_g0rzfghffqnxvr0000gn/T//cc6sfehi.s 			page 14


 742 02f5 12000000 		.4byte	.LVL17
 743 02f9 83030000 		.4byte	0x383
 744 02fd 0E       		.uleb128 0xe
 745 02fe 01       		.uleb128 0x1
 746 02ff 50       		.byte	0x50
 747 0300 26       		.uleb128 0x26
 748 0301 31       		.byte	0x31
 749 0302 30       		.byte	0x30
 750 0303 74       		.byte	0x74
 751 0304 40       		.sleb128 -64
 752 0305 74       		.byte	0x74
 753 0306 40       		.sleb128 -64
 754 0307 40       		.byte	0x40
 755 0308 4B       		.byte	0x4b
 756 0309 24       		.byte	0x24
 757 030a 22       		.byte	0x22
 758 030b 0C       		.byte	0xc
 759 030c 3F000080 		.4byte	0x8000003f
 760 0310 2B       		.byte	0x2b
 761 0311 28       		.byte	0x28
 762 0312 0100     		.2byte	0x1
 763 0314 16       		.byte	0x16
 764 0315 13       		.byte	0x13
 765 0316 74       		.byte	0x74
 766 0317 40       		.sleb128 -64
 767 0318 40       		.byte	0x40
 768 0319 4B       		.byte	0x4b
 769 031a 24       		.byte	0x24
 770 031b 22       		.byte	0x22
 771 031c 0C       		.byte	0xc
 772 031d 3F000080 		.4byte	0x8000003f
 773 0321 2C       		.byte	0x2c
 774 0322 28       		.byte	0x28
 775 0323 0100     		.2byte	0x1
 776 0325 16       		.byte	0x16
 777 0326 13       		.byte	0x13
 778 0327 00       		.byte	0
 779 0328 00       		.byte	0
 780 0329 17       		.uleb128 0x17
 781 032a 05010000 		.4byte	.LASF38
 782 032e 01       		.byte	0x1
 783 032f 0A01     		.2byte	0x10a
 784 0331 0D010000 		.4byte	0x10d
 785 0335 00000000 		.4byte	.LFB129
 786 0339 10000000 		.4byte	.LFE129-.LFB129
 787 033d 01       		.uleb128 0x1
 788 033e 9C       		.byte	0x9c
 789 033f 54030000 		.4byte	0x354
 790 0343 18       		.uleb128 0x18
 791 0344 7B000000 		.4byte	.LASF31
 792 0348 01       		.byte	0x1
 793 0349 0C01     		.2byte	0x10c
 794 034b 0D010000 		.4byte	0x10d
 795 034f BC000000 		.4byte	.LLST5
 796 0353 00       		.byte	0
 797 0354 19       		.uleb128 0x19
 798 0355 E4010000 		.4byte	.LASF33
ARM GAS  /var/folders/m4/4md61f0s1_g0rzfghffqnxvr0000gn/T//cc6sfehi.s 			page 15


 799 0359 01       		.byte	0x1
 800 035a 1E01     		.2byte	0x11e
 801 035c 00000000 		.4byte	.LFB130
 802 0360 0C000000 		.4byte	.LFE130-.LFB130
 803 0364 01       		.uleb128 0x1
 804 0365 9C       		.byte	0x9c
 805 0366 1A       		.uleb128 0x1a
 806 0367 30010000 		.4byte	.LASF39
 807 036b 07       		.byte	0x7
 808 036c FA06     		.2byte	0x6fa
 809 036e 72030000 		.4byte	0x372
 810 0372 05       		.uleb128 0x5
 811 0373 97000000 		.4byte	0x97
 812 0377 1B       		.uleb128 0x1b
 813 0378 2D020000 		.4byte	.LASF34
 814 037c 2D020000 		.4byte	.LASF34
 815 0380 06       		.byte	0x6
 816 0381 6103     		.2byte	0x361
 817 0383 1C       		.uleb128 0x1c
 818 0384 0A000000 		.4byte	.LASF27
 819 0388 0A000000 		.4byte	.LASF27
 820 038c 01       		.byte	0x1
 821 038d 9E       		.byte	0x9e
 822 038e 00       		.byte	0
 823              		.section	.debug_abbrev,"",%progbits
 824              	.Ldebug_abbrev0:
 825 0000 01       		.uleb128 0x1
 826 0001 11       		.uleb128 0x11
 827 0002 01       		.byte	0x1
 828 0003 25       		.uleb128 0x25
 829 0004 0E       		.uleb128 0xe
 830 0005 13       		.uleb128 0x13
 831 0006 0B       		.uleb128 0xb
 832 0007 03       		.uleb128 0x3
 833 0008 0E       		.uleb128 0xe
 834 0009 1B       		.uleb128 0x1b
 835 000a 0E       		.uleb128 0xe
 836 000b 55       		.uleb128 0x55
 837 000c 17       		.uleb128 0x17
 838 000d 11       		.uleb128 0x11
 839 000e 01       		.uleb128 0x1
 840 000f 10       		.uleb128 0x10
 841 0010 17       		.uleb128 0x17
 842 0011 00       		.byte	0
 843 0012 00       		.byte	0
 844 0013 02       		.uleb128 0x2
 845 0014 24       		.uleb128 0x24
 846 0015 00       		.byte	0
 847 0016 0B       		.uleb128 0xb
 848 0017 0B       		.uleb128 0xb
 849 0018 3E       		.uleb128 0x3e
 850 0019 0B       		.uleb128 0xb
 851 001a 03       		.uleb128 0x3
 852 001b 0E       		.uleb128 0xe
 853 001c 00       		.byte	0
 854 001d 00       		.byte	0
 855 001e 03       		.uleb128 0x3
ARM GAS  /var/folders/m4/4md61f0s1_g0rzfghffqnxvr0000gn/T//cc6sfehi.s 			page 16


 856 001f 16       		.uleb128 0x16
 857 0020 00       		.byte	0
 858 0021 03       		.uleb128 0x3
 859 0022 0E       		.uleb128 0xe
 860 0023 3A       		.uleb128 0x3a
 861 0024 0B       		.uleb128 0xb
 862 0025 3B       		.uleb128 0x3b
 863 0026 0B       		.uleb128 0xb
 864 0027 49       		.uleb128 0x49
 865 0028 13       		.uleb128 0x13
 866 0029 00       		.byte	0
 867 002a 00       		.byte	0
 868 002b 04       		.uleb128 0x4
 869 002c 24       		.uleb128 0x24
 870 002d 00       		.byte	0
 871 002e 0B       		.uleb128 0xb
 872 002f 0B       		.uleb128 0xb
 873 0030 3E       		.uleb128 0x3e
 874 0031 0B       		.uleb128 0xb
 875 0032 03       		.uleb128 0x3
 876 0033 08       		.uleb128 0x8
 877 0034 00       		.byte	0
 878 0035 00       		.byte	0
 879 0036 05       		.uleb128 0x5
 880 0037 35       		.uleb128 0x35
 881 0038 00       		.byte	0
 882 0039 49       		.uleb128 0x49
 883 003a 13       		.uleb128 0x13
 884 003b 00       		.byte	0
 885 003c 00       		.byte	0
 886 003d 06       		.uleb128 0x6
 887 003e 13       		.uleb128 0x13
 888 003f 01       		.byte	0x1
 889 0040 0B       		.uleb128 0xb
 890 0041 0B       		.uleb128 0xb
 891 0042 3A       		.uleb128 0x3a
 892 0043 0B       		.uleb128 0xb
 893 0044 3B       		.uleb128 0x3b
 894 0045 05       		.uleb128 0x5
 895 0046 01       		.uleb128 0x1
 896 0047 13       		.uleb128 0x13
 897 0048 00       		.byte	0
 898 0049 00       		.byte	0
 899 004a 07       		.uleb128 0x7
 900 004b 0D       		.uleb128 0xd
 901 004c 00       		.byte	0
 902 004d 03       		.uleb128 0x3
 903 004e 08       		.uleb128 0x8
 904 004f 3A       		.uleb128 0x3a
 905 0050 0B       		.uleb128 0xb
 906 0051 3B       		.uleb128 0x3b
 907 0052 05       		.uleb128 0x5
 908 0053 49       		.uleb128 0x49
 909 0054 13       		.uleb128 0x13
 910 0055 38       		.uleb128 0x38
 911 0056 0B       		.uleb128 0xb
 912 0057 00       		.byte	0
ARM GAS  /var/folders/m4/4md61f0s1_g0rzfghffqnxvr0000gn/T//cc6sfehi.s 			page 17


 913 0058 00       		.byte	0
 914 0059 08       		.uleb128 0x8
 915 005a 16       		.uleb128 0x16
 916 005b 00       		.byte	0
 917 005c 03       		.uleb128 0x3
 918 005d 0E       		.uleb128 0xe
 919 005e 3A       		.uleb128 0x3a
 920 005f 0B       		.uleb128 0xb
 921 0060 3B       		.uleb128 0x3b
 922 0061 05       		.uleb128 0x5
 923 0062 49       		.uleb128 0x49
 924 0063 13       		.uleb128 0x13
 925 0064 00       		.byte	0
 926 0065 00       		.byte	0
 927 0066 09       		.uleb128 0x9
 928 0067 04       		.uleb128 0x4
 929 0068 01       		.byte	0x1
 930 0069 0B       		.uleb128 0xb
 931 006a 0B       		.uleb128 0xb
 932 006b 49       		.uleb128 0x49
 933 006c 13       		.uleb128 0x13
 934 006d 3A       		.uleb128 0x3a
 935 006e 0B       		.uleb128 0xb
 936 006f 3B       		.uleb128 0x3b
 937 0070 0B       		.uleb128 0xb
 938 0071 01       		.uleb128 0x1
 939 0072 13       		.uleb128 0x13
 940 0073 00       		.byte	0
 941 0074 00       		.byte	0
 942 0075 0A       		.uleb128 0xa
 943 0076 28       		.uleb128 0x28
 944 0077 00       		.byte	0
 945 0078 03       		.uleb128 0x3
 946 0079 0E       		.uleb128 0xe
 947 007a 1C       		.uleb128 0x1c
 948 007b 0B       		.uleb128 0xb
 949 007c 00       		.byte	0
 950 007d 00       		.byte	0
 951 007e 0B       		.uleb128 0xb
 952 007f 28       		.uleb128 0x28
 953 0080 00       		.byte	0
 954 0081 03       		.uleb128 0x3
 955 0082 08       		.uleb128 0x8
 956 0083 1C       		.uleb128 0x1c
 957 0084 0B       		.uleb128 0xb
 958 0085 00       		.byte	0
 959 0086 00       		.byte	0
 960 0087 0C       		.uleb128 0xc
 961 0088 2E       		.uleb128 0x2e
 962 0089 01       		.byte	0x1
 963 008a 3F       		.uleb128 0x3f
 964 008b 19       		.uleb128 0x19
 965 008c 03       		.uleb128 0x3
 966 008d 0E       		.uleb128 0xe
 967 008e 3A       		.uleb128 0x3a
 968 008f 0B       		.uleb128 0xb
 969 0090 3B       		.uleb128 0x3b
ARM GAS  /var/folders/m4/4md61f0s1_g0rzfghffqnxvr0000gn/T//cc6sfehi.s 			page 18


 970 0091 0B       		.uleb128 0xb
 971 0092 27       		.uleb128 0x27
 972 0093 19       		.uleb128 0x19
 973 0094 11       		.uleb128 0x11
 974 0095 01       		.uleb128 0x1
 975 0096 12       		.uleb128 0x12
 976 0097 06       		.uleb128 0x6
 977 0098 40       		.uleb128 0x40
 978 0099 18       		.uleb128 0x18
 979 009a 9742     		.uleb128 0x2117
 980 009c 19       		.uleb128 0x19
 981 009d 01       		.uleb128 0x1
 982 009e 13       		.uleb128 0x13
 983 009f 00       		.byte	0
 984 00a0 00       		.byte	0
 985 00a1 0D       		.uleb128 0xd
 986 00a2 898201   		.uleb128 0x4109
 987 00a5 01       		.byte	0x1
 988 00a6 11       		.uleb128 0x11
 989 00a7 01       		.uleb128 0x1
 990 00a8 31       		.uleb128 0x31
 991 00a9 13       		.uleb128 0x13
 992 00aa 01       		.uleb128 0x1
 993 00ab 13       		.uleb128 0x13
 994 00ac 00       		.byte	0
 995 00ad 00       		.byte	0
 996 00ae 0E       		.uleb128 0xe
 997 00af 8A8201   		.uleb128 0x410a
 998 00b2 00       		.byte	0
 999 00b3 02       		.uleb128 0x2
 1000 00b4 18       		.uleb128 0x18
 1001 00b5 9142     		.uleb128 0x2111
 1002 00b7 18       		.uleb128 0x18
 1003 00b8 00       		.byte	0
 1004 00b9 00       		.byte	0
 1005 00ba 0F       		.uleb128 0xf
 1006 00bb 898201   		.uleb128 0x4109
 1007 00be 01       		.byte	0x1
 1008 00bf 11       		.uleb128 0x11
 1009 00c0 01       		.uleb128 0x1
 1010 00c1 9542     		.uleb128 0x2115
 1011 00c3 19       		.uleb128 0x19
 1012 00c4 31       		.uleb128 0x31
 1013 00c5 13       		.uleb128 0x13
 1014 00c6 00       		.byte	0
 1015 00c7 00       		.byte	0
 1016 00c8 10       		.uleb128 0x10
 1017 00c9 05       		.uleb128 0x5
 1018 00ca 00       		.byte	0
 1019 00cb 03       		.uleb128 0x3
 1020 00cc 0E       		.uleb128 0xe
 1021 00cd 3A       		.uleb128 0x3a
 1022 00ce 0B       		.uleb128 0xb
 1023 00cf 3B       		.uleb128 0x3b
 1024 00d0 0B       		.uleb128 0xb
 1025 00d1 49       		.uleb128 0x49
 1026 00d2 13       		.uleb128 0x13
ARM GAS  /var/folders/m4/4md61f0s1_g0rzfghffqnxvr0000gn/T//cc6sfehi.s 			page 19


 1027 00d3 02       		.uleb128 0x2
 1028 00d4 17       		.uleb128 0x17
 1029 00d5 00       		.byte	0
 1030 00d6 00       		.byte	0
 1031 00d7 11       		.uleb128 0x11
 1032 00d8 34       		.uleb128 0x34
 1033 00d9 00       		.byte	0
 1034 00da 03       		.uleb128 0x3
 1035 00db 0E       		.uleb128 0xe
 1036 00dc 3A       		.uleb128 0x3a
 1037 00dd 0B       		.uleb128 0xb
 1038 00de 3B       		.uleb128 0x3b
 1039 00df 0B       		.uleb128 0xb
 1040 00e0 49       		.uleb128 0x49
 1041 00e1 13       		.uleb128 0x13
 1042 00e2 02       		.uleb128 0x2
 1043 00e3 17       		.uleb128 0x17
 1044 00e4 00       		.byte	0
 1045 00e5 00       		.byte	0
 1046 00e6 12       		.uleb128 0x12
 1047 00e7 2E       		.uleb128 0x2e
 1048 00e8 01       		.byte	0x1
 1049 00e9 3F       		.uleb128 0x3f
 1050 00ea 19       		.uleb128 0x19
 1051 00eb 03       		.uleb128 0x3
 1052 00ec 0E       		.uleb128 0xe
 1053 00ed 3A       		.uleb128 0x3a
 1054 00ee 0B       		.uleb128 0xb
 1055 00ef 3B       		.uleb128 0x3b
 1056 00f0 0B       		.uleb128 0xb
 1057 00f1 49       		.uleb128 0x49
 1058 00f2 13       		.uleb128 0x13
 1059 00f3 3C       		.uleb128 0x3c
 1060 00f4 19       		.uleb128 0x19
 1061 00f5 01       		.uleb128 0x1
 1062 00f6 13       		.uleb128 0x13
 1063 00f7 00       		.byte	0
 1064 00f8 00       		.byte	0
 1065 00f9 13       		.uleb128 0x13
 1066 00fa 18       		.uleb128 0x18
 1067 00fb 00       		.byte	0
 1068 00fc 00       		.byte	0
 1069 00fd 00       		.byte	0
 1070 00fe 14       		.uleb128 0x14
 1071 00ff 898201   		.uleb128 0x4109
 1072 0102 01       		.byte	0x1
 1073 0103 11       		.uleb128 0x11
 1074 0104 01       		.uleb128 0x1
 1075 0105 31       		.uleb128 0x31
 1076 0106 13       		.uleb128 0x13
 1077 0107 00       		.byte	0
 1078 0108 00       		.byte	0
 1079 0109 15       		.uleb128 0x15
 1080 010a 34       		.uleb128 0x34
 1081 010b 00       		.byte	0
 1082 010c 03       		.uleb128 0x3
 1083 010d 0E       		.uleb128 0xe
ARM GAS  /var/folders/m4/4md61f0s1_g0rzfghffqnxvr0000gn/T//cc6sfehi.s 			page 20


 1084 010e 3A       		.uleb128 0x3a
 1085 010f 0B       		.uleb128 0xb
 1086 0110 3B       		.uleb128 0x3b
 1087 0111 0B       		.uleb128 0xb
 1088 0112 49       		.uleb128 0x49
 1089 0113 13       		.uleb128 0x13
 1090 0114 02       		.uleb128 0x2
 1091 0115 18       		.uleb128 0x18
 1092 0116 00       		.byte	0
 1093 0117 00       		.byte	0
 1094 0118 16       		.uleb128 0x16
 1095 0119 2E       		.uleb128 0x2e
 1096 011a 00       		.byte	0
 1097 011b 3F       		.uleb128 0x3f
 1098 011c 19       		.uleb128 0x19
 1099 011d 03       		.uleb128 0x3
 1100 011e 0E       		.uleb128 0xe
 1101 011f 3A       		.uleb128 0x3a
 1102 0120 0B       		.uleb128 0xb
 1103 0121 3B       		.uleb128 0x3b
 1104 0122 0B       		.uleb128 0xb
 1105 0123 27       		.uleb128 0x27
 1106 0124 19       		.uleb128 0x19
 1107 0125 11       		.uleb128 0x11
 1108 0126 01       		.uleb128 0x1
 1109 0127 12       		.uleb128 0x12
 1110 0128 06       		.uleb128 0x6
 1111 0129 40       		.uleb128 0x40
 1112 012a 18       		.uleb128 0x18
 1113 012b 9742     		.uleb128 0x2117
 1114 012d 19       		.uleb128 0x19
 1115 012e 00       		.byte	0
 1116 012f 00       		.byte	0
 1117 0130 17       		.uleb128 0x17
 1118 0131 2E       		.uleb128 0x2e
 1119 0132 01       		.byte	0x1
 1120 0133 3F       		.uleb128 0x3f
 1121 0134 19       		.uleb128 0x19
 1122 0135 03       		.uleb128 0x3
 1123 0136 0E       		.uleb128 0xe
 1124 0137 3A       		.uleb128 0x3a
 1125 0138 0B       		.uleb128 0xb
 1126 0139 3B       		.uleb128 0x3b
 1127 013a 05       		.uleb128 0x5
 1128 013b 27       		.uleb128 0x27
 1129 013c 19       		.uleb128 0x19
 1130 013d 49       		.uleb128 0x49
 1131 013e 13       		.uleb128 0x13
 1132 013f 11       		.uleb128 0x11
 1133 0140 01       		.uleb128 0x1
 1134 0141 12       		.uleb128 0x12
 1135 0142 06       		.uleb128 0x6
 1136 0143 40       		.uleb128 0x40
 1137 0144 18       		.uleb128 0x18
 1138 0145 9742     		.uleb128 0x2117
 1139 0147 19       		.uleb128 0x19
 1140 0148 01       		.uleb128 0x1
ARM GAS  /var/folders/m4/4md61f0s1_g0rzfghffqnxvr0000gn/T//cc6sfehi.s 			page 21


 1141 0149 13       		.uleb128 0x13
 1142 014a 00       		.byte	0
 1143 014b 00       		.byte	0
 1144 014c 18       		.uleb128 0x18
 1145 014d 34       		.uleb128 0x34
 1146 014e 00       		.byte	0
 1147 014f 03       		.uleb128 0x3
 1148 0150 0E       		.uleb128 0xe
 1149 0151 3A       		.uleb128 0x3a
 1150 0152 0B       		.uleb128 0xb
 1151 0153 3B       		.uleb128 0x3b
 1152 0154 05       		.uleb128 0x5
 1153 0155 49       		.uleb128 0x49
 1154 0156 13       		.uleb128 0x13
 1155 0157 02       		.uleb128 0x2
 1156 0158 17       		.uleb128 0x17
 1157 0159 00       		.byte	0
 1158 015a 00       		.byte	0
 1159 015b 19       		.uleb128 0x19
 1160 015c 2E       		.uleb128 0x2e
 1161 015d 00       		.byte	0
 1162 015e 3F       		.uleb128 0x3f
 1163 015f 19       		.uleb128 0x19
 1164 0160 03       		.uleb128 0x3
 1165 0161 0E       		.uleb128 0xe
 1166 0162 3A       		.uleb128 0x3a
 1167 0163 0B       		.uleb128 0xb
 1168 0164 3B       		.uleb128 0x3b
 1169 0165 05       		.uleb128 0x5
 1170 0166 27       		.uleb128 0x27
 1171 0167 19       		.uleb128 0x19
 1172 0168 11       		.uleb128 0x11
 1173 0169 01       		.uleb128 0x1
 1174 016a 12       		.uleb128 0x12
 1175 016b 06       		.uleb128 0x6
 1176 016c 40       		.uleb128 0x40
 1177 016d 18       		.uleb128 0x18
 1178 016e 9742     		.uleb128 0x2117
 1179 0170 19       		.uleb128 0x19
 1180 0171 00       		.byte	0
 1181 0172 00       		.byte	0
 1182 0173 1A       		.uleb128 0x1a
 1183 0174 34       		.uleb128 0x34
 1184 0175 00       		.byte	0
 1185 0176 03       		.uleb128 0x3
 1186 0177 0E       		.uleb128 0xe
 1187 0178 3A       		.uleb128 0x3a
 1188 0179 0B       		.uleb128 0xb
 1189 017a 3B       		.uleb128 0x3b
 1190 017b 05       		.uleb128 0x5
 1191 017c 49       		.uleb128 0x49
 1192 017d 13       		.uleb128 0x13
 1193 017e 3F       		.uleb128 0x3f
 1194 017f 19       		.uleb128 0x19
 1195 0180 3C       		.uleb128 0x3c
 1196 0181 19       		.uleb128 0x19
 1197 0182 00       		.byte	0
ARM GAS  /var/folders/m4/4md61f0s1_g0rzfghffqnxvr0000gn/T//cc6sfehi.s 			page 22


 1198 0183 00       		.byte	0
 1199 0184 1B       		.uleb128 0x1b
 1200 0185 2E       		.uleb128 0x2e
 1201 0186 00       		.byte	0
 1202 0187 3F       		.uleb128 0x3f
 1203 0188 19       		.uleb128 0x19
 1204 0189 3C       		.uleb128 0x3c
 1205 018a 19       		.uleb128 0x19
 1206 018b 6E       		.uleb128 0x6e
 1207 018c 0E       		.uleb128 0xe
 1208 018d 03       		.uleb128 0x3
 1209 018e 0E       		.uleb128 0xe
 1210 018f 3A       		.uleb128 0x3a
 1211 0190 0B       		.uleb128 0xb
 1212 0191 3B       		.uleb128 0x3b
 1213 0192 05       		.uleb128 0x5
 1214 0193 00       		.byte	0
 1215 0194 00       		.byte	0
 1216 0195 1C       		.uleb128 0x1c
 1217 0196 2E       		.uleb128 0x2e
 1218 0197 00       		.byte	0
 1219 0198 3F       		.uleb128 0x3f
 1220 0199 19       		.uleb128 0x19
 1221 019a 3C       		.uleb128 0x3c
 1222 019b 19       		.uleb128 0x19
 1223 019c 6E       		.uleb128 0x6e
 1224 019d 0E       		.uleb128 0xe
 1225 019e 03       		.uleb128 0x3
 1226 019f 0E       		.uleb128 0xe
 1227 01a0 3A       		.uleb128 0x3a
 1228 01a1 0B       		.uleb128 0xb
 1229 01a2 3B       		.uleb128 0x3b
 1230 01a3 0B       		.uleb128 0xb
 1231 01a4 00       		.byte	0
 1232 01a5 00       		.byte	0
 1233 01a6 00       		.byte	0
 1234              		.section	.debug_loc,"",%progbits
 1235              	.Ldebug_loc0:
 1236              	.LLST0:
 1237 0000 00000000 		.4byte	.LVL2
 1238 0004 0C000000 		.4byte	.LVL3
 1239 0008 0100     		.2byte	0x1
 1240 000a 50       		.byte	0x50
 1241 000b 0C000000 		.4byte	.LVL3
 1242 000f 20000000 		.4byte	.LVL7
 1243 0013 0100     		.2byte	0x1
 1244 0015 54       		.byte	0x54
 1245 0016 20000000 		.4byte	.LVL7
 1246 001a 24000000 		.4byte	.LFE124
 1247 001e 0400     		.2byte	0x4
 1248 0020 F3       		.byte	0xf3
 1249 0021 01       		.uleb128 0x1
 1250 0022 50       		.byte	0x50
 1251 0023 9F       		.byte	0x9f
 1252 0024 00000000 		.4byte	0
 1253 0028 00000000 		.4byte	0
 1254              	.LLST1:
ARM GAS  /var/folders/m4/4md61f0s1_g0rzfghffqnxvr0000gn/T//cc6sfehi.s 			page 23


 1255 002c 00000000 		.4byte	.LVL2
 1256 0030 1A000000 		.4byte	.LVL5
 1257 0034 0200     		.2byte	0x2
 1258 0036 30       		.byte	0x30
 1259 0037 9F       		.byte	0x9f
 1260 0038 1A000000 		.4byte	.LVL5
 1261 003c 24000000 		.4byte	.LFE124
 1262 0040 0100     		.2byte	0x1
 1263 0042 50       		.byte	0x50
 1264 0043 00000000 		.4byte	0
 1265 0047 00000000 		.4byte	0
 1266              	.LLST2:
 1267 004b 00000000 		.4byte	.LVL8
 1268 004f 0A000000 		.4byte	.LVL9
 1269 0053 0100     		.2byte	0x1
 1270 0055 50       		.byte	0x50
 1271 0056 0A000000 		.4byte	.LVL9
 1272 005a 0E000000 		.4byte	.LVL10
 1273 005e 0400     		.2byte	0x4
 1274 0060 70       		.byte	0x70
 1275 0061 00       		.sleb128 0
 1276 0062 20       		.byte	0x20
 1277 0063 9F       		.byte	0x9f
 1278 0064 0E000000 		.4byte	.LVL10
 1279 0068 34000000 		.4byte	.LFE125
 1280 006c 0400     		.2byte	0x4
 1281 006e F3       		.byte	0xf3
 1282 006f 01       		.uleb128 0x1
 1283 0070 50       		.byte	0x50
 1284 0071 9F       		.byte	0x9f
 1285 0072 00000000 		.4byte	0
 1286 0076 00000000 		.4byte	0
 1287              	.LLST3:
 1288 007a 00000000 		.4byte	.LVL12
 1289 007e 06000000 		.4byte	.LVL13
 1290 0082 0100     		.2byte	0x1
 1291 0084 50       		.byte	0x50
 1292 0085 06000000 		.4byte	.LVL13
 1293 0089 20000000 		.4byte	.LFE127
 1294 008d 0400     		.2byte	0x4
 1295 008f F3       		.byte	0xf3
 1296 0090 01       		.uleb128 0x1
 1297 0091 50       		.byte	0x50
 1298 0092 9F       		.byte	0x9f
 1299 0093 00000000 		.4byte	0
 1300 0097 00000000 		.4byte	0
 1301              	.LLST4:
 1302 009b 00000000 		.4byte	.LVL15
 1303 009f 06000000 		.4byte	.LVL16
 1304 00a3 0100     		.2byte	0x1
 1305 00a5 50       		.byte	0x50
 1306 00a6 06000000 		.4byte	.LVL16
 1307 00aa 20000000 		.4byte	.LFE128
 1308 00ae 0400     		.2byte	0x4
 1309 00b0 F3       		.byte	0xf3
 1310 00b1 01       		.uleb128 0x1
 1311 00b2 50       		.byte	0x50
ARM GAS  /var/folders/m4/4md61f0s1_g0rzfghffqnxvr0000gn/T//cc6sfehi.s 			page 24


 1312 00b3 9F       		.byte	0x9f
 1313 00b4 00000000 		.4byte	0
 1314 00b8 00000000 		.4byte	0
 1315              	.LLST5:
 1316 00bc 00000000 		.4byte	.LVL18
 1317 00c0 04000000 		.4byte	.LVL19
 1318 00c4 0200     		.2byte	0x2
 1319 00c6 30       		.byte	0x30
 1320 00c7 9F       		.byte	0x9f
 1321 00c8 04000000 		.4byte	.LVL19
 1322 00cc 0A000000 		.4byte	.LVL20
 1323 00d0 0500     		.2byte	0x5
 1324 00d2 70       		.byte	0x70
 1325 00d3 00       		.sleb128 0
 1326 00d4 30       		.byte	0x30
 1327 00d5 2E       		.byte	0x2e
 1328 00d6 9F       		.byte	0x9f
 1329 00d7 00000000 		.4byte	0
 1330 00db 00000000 		.4byte	0
 1331              		.section	.debug_aranges,"",%progbits
 1332 0000 54000000 		.4byte	0x54
 1333 0004 0200     		.2byte	0x2
 1334 0006 00000000 		.4byte	.Ldebug_info0
 1335 000a 04       		.byte	0x4
 1336 000b 00       		.byte	0
 1337 000c 0000     		.2byte	0
 1338 000e 0000     		.2byte	0
 1339 0010 00000000 		.4byte	.LFB123
 1340 0014 1A000000 		.4byte	.LFE123-.LFB123
 1341 0018 00000000 		.4byte	.LFB124
 1342 001c 24000000 		.4byte	.LFE124-.LFB124
 1343 0020 00000000 		.4byte	.LFB125
 1344 0024 34000000 		.4byte	.LFE125-.LFB125
 1345 0028 00000000 		.4byte	.LFB126
 1346 002c 0C000000 		.4byte	.LFE126-.LFB126
 1347 0030 00000000 		.4byte	.LFB127
 1348 0034 20000000 		.4byte	.LFE127-.LFB127
 1349 0038 00000000 		.4byte	.LFB128
 1350 003c 20000000 		.4byte	.LFE128-.LFB128
 1351 0040 00000000 		.4byte	.LFB129
 1352 0044 10000000 		.4byte	.LFE129-.LFB129
 1353 0048 00000000 		.4byte	.LFB130
 1354 004c 0C000000 		.4byte	.LFE130-.LFB130
 1355 0050 00000000 		.4byte	0
 1356 0054 00000000 		.4byte	0
 1357              		.section	.debug_ranges,"",%progbits
 1358              	.Ldebug_ranges0:
 1359 0000 00000000 		.4byte	.LFB123
 1360 0004 1A000000 		.4byte	.LFE123
 1361 0008 00000000 		.4byte	.LFB124
 1362 000c 24000000 		.4byte	.LFE124
 1363 0010 00000000 		.4byte	.LFB125
 1364 0014 34000000 		.4byte	.LFE125
 1365 0018 00000000 		.4byte	.LFB126
 1366 001c 0C000000 		.4byte	.LFE126
 1367 0020 00000000 		.4byte	.LFB127
 1368 0024 20000000 		.4byte	.LFE127
ARM GAS  /var/folders/m4/4md61f0s1_g0rzfghffqnxvr0000gn/T//cc6sfehi.s 			page 25


 1369 0028 00000000 		.4byte	.LFB128
 1370 002c 20000000 		.4byte	.LFE128
 1371 0030 00000000 		.4byte	.LFB129
 1372 0034 10000000 		.4byte	.LFE129
 1373 0038 00000000 		.4byte	.LFB130
 1374 003c 0C000000 		.4byte	.LFE130
 1375 0040 00000000 		.4byte	0
 1376 0044 00000000 		.4byte	0
 1377              		.section	.debug_line,"",%progbits
 1378              	.Ldebug_line0:
 1379 0000 C4020000 		.section	.debug_str,"MS",%progbits,1
 1379      02001C02 
 1379      00000201 
 1379      FB0E0D00 
 1379      01010101 
 1380              	.LASF4:
 1381 0000 5F5F7569 		.ascii	"__uint8_t\000"
 1381      6E74385F 
 1381      7400
 1382              	.LASF27:
 1383 000a 61737365 		.ascii	"assert_param\000"
 1383      72745F70 
 1383      6172616D 
 1383      00
 1384              	.LASF36:
 1385 0017 43686962 		.ascii	"ChibiOS_16.1.4/ext/stdperiph_stm32f4/src/stm32f4xx_"
 1385      694F535F 
 1385      31362E31 
 1385      2E342F65 
 1385      78742F73 
 1386 004a 77776467 		.ascii	"wwdg.c\000"
 1386      2E6300
 1387              	.LASF5:
 1388 0051 5F5F696E 		.ascii	"__int32_t\000"
 1388      7433325F 
 1388      7400
 1389              	.LASF3:
 1390 005b 73686F72 		.ascii	"short unsigned int\000"
 1390      7420756E 
 1390      7369676E 
 1390      65642069 
 1390      6E7400
 1391              	.LASF16:
 1392 006e 57574447 		.ascii	"WWDG_TypeDef\000"
 1392      5F547970 
 1392      65446566 
 1392      00
 1393              	.LASF31:
 1394 007b 62697473 		.ascii	"bitstatus\000"
 1394      74617475 
 1394      7300
 1395              	.LASF13:
 1396 0085 696E7433 		.ascii	"int32_t\000"
 1396      325F7400 
 1397              	.LASF30:
 1398 008d 57574447 		.ascii	"WWDG_Enable\000"
 1398      5F456E61 
ARM GAS  /var/folders/m4/4md61f0s1_g0rzfghffqnxvr0000gn/T//cc6sfehi.s 			page 26


 1398      626C6500 
 1399              	.LASF7:
 1400 0099 5F5F7569 		.ascii	"__uint32_t\000"
 1400      6E743332 
 1400      5F7400
 1401              	.LASF20:
 1402 00a4 454E4142 		.ascii	"ENABLE\000"
 1402      4C4500
 1403              	.LASF0:
 1404 00ab 7369676E 		.ascii	"signed char\000"
 1404      65642063 
 1404      68617200 
 1405              	.LASF32:
 1406 00b7 57574447 		.ascii	"WWDG_EnableIT\000"
 1406      5F456E61 
 1406      626C6549 
 1406      5400
 1407              	.LASF37:
 1408 00c5 2F557365 		.ascii	"/Users/raphael/Documents/Projects/rESC/resc-firmwar"
 1408      72732F72 
 1408      61706861 
 1408      656C2F44 
 1408      6F63756D 
 1409 00f8 6500     		.ascii	"e\000"
 1410              	.LASF18:
 1411 00fa 466C6167 		.ascii	"FlagStatus\000"
 1411      53746174 
 1411      757300
 1412              	.LASF38:
 1413 0105 57574447 		.ascii	"WWDG_GetFlagStatus\000"
 1413      5F476574 
 1413      466C6167 
 1413      53746174 
 1413      757300
 1414              	.LASF8:
 1415 0118 6C6F6E67 		.ascii	"long unsigned int\000"
 1415      20756E73 
 1415      69676E65 
 1415      6420696E 
 1415      7400
 1416              	.LASF17:
 1417 012a 52455345 		.ascii	"RESET\000"
 1417      5400
 1418              	.LASF39:
 1419 0130 49544D5F 		.ascii	"ITM_RxBuffer\000"
 1419      52784275 
 1419      66666572 
 1419      00
 1420              	.LASF1:
 1421 013d 756E7369 		.ascii	"unsigned char\000"
 1421      676E6564 
 1421      20636861 
 1421      7200
 1422              	.LASF25:
 1423 014b 57696E64 		.ascii	"WindowValue\000"
 1423      6F775661 
 1423      6C756500 
ARM GAS  /var/folders/m4/4md61f0s1_g0rzfghffqnxvr0000gn/T//cc6sfehi.s 			page 27


 1424              	.LASF29:
 1425 0157 436F756E 		.ascii	"Counter\000"
 1425      74657200 
 1426              	.LASF11:
 1427 015f 756E7369 		.ascii	"unsigned int\000"
 1427      676E6564 
 1427      20696E74 
 1427      00
 1428              	.LASF10:
 1429 016c 6C6F6E67 		.ascii	"long long unsigned int\000"
 1429      206C6F6E 
 1429      6720756E 
 1429      7369676E 
 1429      65642069 
 1430              	.LASF12:
 1431 0183 75696E74 		.ascii	"uint8_t\000"
 1431      385F7400 
 1432              	.LASF22:
 1433 018b 57574447 		.ascii	"WWDG_SetPrescaler\000"
 1433      5F536574 
 1433      50726573 
 1433      63616C65 
 1433      7200
 1434              	.LASF28:
 1435 019d 57574447 		.ascii	"WWDG_SetCounter\000"
 1435      5F536574 
 1435      436F756E 
 1435      74657200 
 1436              	.LASF24:
 1437 01ad 57574447 		.ascii	"WWDG_Prescaler\000"
 1437      5F507265 
 1437      7363616C 
 1437      657200
 1438              	.LASF15:
 1439 01bc 73697A65 		.ascii	"sizetype\000"
 1439      74797065 
 1439      00
 1440              	.LASF9:
 1441 01c5 6C6F6E67 		.ascii	"long long int\000"
 1441      206C6F6E 
 1441      6720696E 
 1441      7400
 1442              	.LASF2:
 1443 01d3 73686F72 		.ascii	"short int\000"
 1443      7420696E 
 1443      7400
 1444              	.LASF26:
 1445 01dd 746D7072 		.ascii	"tmpreg\000"
 1445      656700
 1446              	.LASF33:
 1447 01e4 57574447 		.ascii	"WWDG_ClearFlag\000"
 1447      5F436C65 
 1447      6172466C 
 1447      616700
 1448              	.LASF23:
 1449 01f3 57574447 		.ascii	"WWDG_SetWindowValue\000"
 1449      5F536574 
ARM GAS  /var/folders/m4/4md61f0s1_g0rzfghffqnxvr0000gn/T//cc6sfehi.s 			page 28


 1449      57696E64 
 1449      6F775661 
 1449      6C756500 
 1450              	.LASF21:
 1451 0207 57574447 		.ascii	"WWDG_DeInit\000"
 1451      5F446549 
 1451      6E697400 
 1452              	.LASF14:
 1453 0213 75696E74 		.ascii	"uint32_t\000"
 1453      33325F74 
 1453      00
 1454              	.LASF6:
 1455 021c 6C6F6E67 		.ascii	"long int\000"
 1455      20696E74 
 1455      00
 1456              	.LASF19:
 1457 0225 44495341 		.ascii	"DISABLE\000"
 1457      424C4500 
 1458              	.LASF34:
 1459 022d 5243435F 		.ascii	"RCC_APB1PeriphResetCmd\000"
 1459      41504231 
 1459      50657269 
 1459      70685265 
 1459      73657443 
 1460              	.LASF35:
 1461 0244 474E5520 		.ascii	"GNU C99 5.2.1 20151202 (release) [ARM/embedded-5-br"
 1461      43393920 
 1461      352E322E 
 1461      31203230 
 1461      31353132 
 1462 0277 616E6368 		.ascii	"anch revision 231848] -mcpu=cortex-m4 -mfloat-abi=h"
 1462      20726576 
 1462      6973696F 
 1462      6E203233 
 1462      31383438 
 1463 02aa 61726420 		.ascii	"ard -mfpu=fpv4-sp-d16 -mno-thumb-interwork -mthumb "
 1463      2D6D6670 
 1463      753D6670 
 1463      76342D73 
 1463      702D6431 
 1464 02dd 2D676764 		.ascii	"-ggdb -O2 -std=c99 -fomit-frame-pointer -falign-fun"
 1464      62202D4F 
 1464      32202D73 
 1464      74643D63 
 1464      3939202D 
 1465 0310 6374696F 		.ascii	"ctions=16 -ffunction-sections -fdata-sections -fno-"
 1465      6E733D31 
 1465      36202D66 
 1465      66756E63 
 1465      74696F6E 
 1466 0343 636F6D6D 		.ascii	"common\000"
 1466      6F6E00
 1467              		.ident	"GCC: (GNU Tools for ARM Embedded Processors) 5.2.1 20151202 (release) [ARM/embedded-5-bran
ARM GAS  /var/folders/m4/4md61f0s1_g0rzfghffqnxvr0000gn/T//cc6sfehi.s 			page 29


DEFINED SYMBOLS
                            *ABS*:0000000000000000 stm32f4xx_wwdg.c
/var/folders/m4/4md61f0s1_g0rzfghffqnxvr0000gn/T//cc6sfehi.s:22     .text.WWDG_DeInit:0000000000000000 $t
/var/folders/m4/4md61f0s1_g0rzfghffqnxvr0000gn/T//cc6sfehi.s:28     .text.WWDG_DeInit:0000000000000000 WWDG_DeInit
/var/folders/m4/4md61f0s1_g0rzfghffqnxvr0000gn/T//cc6sfehi.s:59     .text.WWDG_SetPrescaler:0000000000000000 $t
/var/folders/m4/4md61f0s1_g0rzfghffqnxvr0000gn/T//cc6sfehi.s:65     .text.WWDG_SetPrescaler:0000000000000000 WWDG_SetPrescaler
/var/folders/m4/4md61f0s1_g0rzfghffqnxvr0000gn/T//cc6sfehi.s:103    .text.WWDG_SetPrescaler:0000000000000020 $d
/var/folders/m4/4md61f0s1_g0rzfghffqnxvr0000gn/T//cc6sfehi.s:108    .text.WWDG_SetWindowValue:0000000000000000 $t
/var/folders/m4/4md61f0s1_g0rzfghffqnxvr0000gn/T//cc6sfehi.s:114    .text.WWDG_SetWindowValue:0000000000000000 WWDG_SetWindowValue
/var/folders/m4/4md61f0s1_g0rzfghffqnxvr0000gn/T//cc6sfehi.s:165    .text.WWDG_SetWindowValue:0000000000000030 $d
/var/folders/m4/4md61f0s1_g0rzfghffqnxvr0000gn/T//cc6sfehi.s:170    .text.WWDG_EnableIT:0000000000000000 $t
/var/folders/m4/4md61f0s1_g0rzfghffqnxvr0000gn/T//cc6sfehi.s:176    .text.WWDG_EnableIT:0000000000000000 WWDG_EnableIT
/var/folders/m4/4md61f0s1_g0rzfghffqnxvr0000gn/T//cc6sfehi.s:191    .text.WWDG_EnableIT:0000000000000008 $d
/var/folders/m4/4md61f0s1_g0rzfghffqnxvr0000gn/T//cc6sfehi.s:196    .text.WWDG_SetCounter:0000000000000000 $t
/var/folders/m4/4md61f0s1_g0rzfghffqnxvr0000gn/T//cc6sfehi.s:202    .text.WWDG_SetCounter:0000000000000000 WWDG_SetCounter
/var/folders/m4/4md61f0s1_g0rzfghffqnxvr0000gn/T//cc6sfehi.s:232    .text.WWDG_SetCounter:000000000000001c $d
/var/folders/m4/4md61f0s1_g0rzfghffqnxvr0000gn/T//cc6sfehi.s:237    .text.WWDG_Enable:0000000000000000 $t
/var/folders/m4/4md61f0s1_g0rzfghffqnxvr0000gn/T//cc6sfehi.s:243    .text.WWDG_Enable:0000000000000000 WWDG_Enable
/var/folders/m4/4md61f0s1_g0rzfghffqnxvr0000gn/T//cc6sfehi.s:273    .text.WWDG_Enable:000000000000001c $d
/var/folders/m4/4md61f0s1_g0rzfghffqnxvr0000gn/T//cc6sfehi.s:278    .text.WWDG_GetFlagStatus:0000000000000000 $t
/var/folders/m4/4md61f0s1_g0rzfghffqnxvr0000gn/T//cc6sfehi.s:284    .text.WWDG_GetFlagStatus:0000000000000000 WWDG_GetFlagStatus
/var/folders/m4/4md61f0s1_g0rzfghffqnxvr0000gn/T//cc6sfehi.s:305    .text.WWDG_GetFlagStatus:000000000000000c $d
/var/folders/m4/4md61f0s1_g0rzfghffqnxvr0000gn/T//cc6sfehi.s:310    .text.WWDG_ClearFlag:0000000000000000 $t
/var/folders/m4/4md61f0s1_g0rzfghffqnxvr0000gn/T//cc6sfehi.s:316    .text.WWDG_ClearFlag:0000000000000000 WWDG_ClearFlag
/var/folders/m4/4md61f0s1_g0rzfghffqnxvr0000gn/T//cc6sfehi.s:331    .text.WWDG_ClearFlag:0000000000000008 $d
                     .debug_frame:0000000000000010 $d

UNDEFINED SYMBOLS
RCC_APB1PeriphResetCmd
assert_param
