ARM GAS  /var/folders/m4/4md61f0s1_g0rzfghffqnxvr0000gn/T//ccIL3fXa.s 			page 1


   1              		.syntax unified
   2              		.cpu cortex-m4
   3              		.eabi_attribute 27, 1
   4              		.eabi_attribute 28, 1
   5              		.fpu fpv4-sp-d16
   6              		.eabi_attribute 20, 1
   7              		.eabi_attribute 21, 1
   8              		.eabi_attribute 23, 3
   9              		.eabi_attribute 24, 1
  10              		.eabi_attribute 25, 1
  11              		.eabi_attribute 26, 1
  12              		.eabi_attribute 30, 2
  13              		.eabi_attribute 34, 1
  14              		.eabi_attribute 18, 4
  15              		.thumb
  16              		.syntax unified
  17              		.file	"stm32f4xx_syscfg.c"
  18              		.text
  19              	.Ltext0:
  20              		.cfi_sections	.debug_frame
  21              		.section	.text.SYSCFG_DeInit,"ax",%progbits
  22              		.align	2
  23              		.p2align 4,,15
  24              		.global	SYSCFG_DeInit
  25              		.thumb
  26              		.thumb_func
  27              		.type	SYSCFG_DeInit, %function
  28              	SYSCFG_DeInit:
  29              	.LFB123:
  30              		.file 1 "ChibiOS_16.1.4/ext/stdperiph_stm32f4/src/stm32f4xx_syscfg.c"
  31              		.loc 1 100 0
  32              		.cfi_startproc
  33              		@ args = 0, pretend = 0, frame = 0
  34              		@ frame_needed = 0, uses_anonymous_args = 0
  35 0000 08B5     		push	{r3, lr}
  36              		.cfi_def_cfa_offset 8
  37              		.cfi_offset 3, -8
  38              		.cfi_offset 14, -4
  39              		.loc 1 101 0
  40 0002 0121     		movs	r1, #1
  41 0004 4FF48040 		mov	r0, #16384
  42 0008 FFF7FEFF 		bl	RCC_APB2PeriphResetCmd
  43              	.LVL0:
  44              		.loc 1 102 0
  45 000c 0021     		movs	r1, #0
  46 000e 4FF48040 		mov	r0, #16384
  47              		.loc 1 103 0
  48 0012 BDE80840 		pop	{r3, lr}
  49              		.cfi_restore 14
  50              		.cfi_restore 3
  51              		.cfi_def_cfa_offset 0
  52              		.loc 1 102 0
  53 0016 FFF7FEBF 		b	RCC_APB2PeriphResetCmd
  54              	.LVL1:
  55              		.cfi_endproc
  56              	.LFE123:
  57              		.size	SYSCFG_DeInit, .-SYSCFG_DeInit
ARM GAS  /var/folders/m4/4md61f0s1_g0rzfghffqnxvr0000gn/T//ccIL3fXa.s 			page 2


  58 001a 00BF     		.section	.text.SYSCFG_MemoryRemapConfig,"ax",%progbits
  59              		.align	2
  60              		.p2align 4,,15
  61              		.global	SYSCFG_MemoryRemapConfig
  62              		.thumb
  63              		.thumb_func
  64              		.type	SYSCFG_MemoryRemapConfig, %function
  65              	SYSCFG_MemoryRemapConfig:
  66              	.LFB124:
  67              		.loc 1 119 0
  68              		.cfi_startproc
  69              		@ args = 0, pretend = 0, frame = 0
  70              		@ frame_needed = 0, uses_anonymous_args = 0
  71              	.LVL2:
  72 0000 10B5     		push	{r4, lr}
  73              		.cfi_def_cfa_offset 8
  74              		.cfi_offset 4, -8
  75              		.cfi_offset 14, -4
  76              		.loc 1 119 0
  77 0002 0446     		mov	r4, r0
  78              		.loc 1 121 0
  79 0004 FFF7FEFF 		bl	IS_SYSCFG_MEMORY_REMAP_CONFING
  80              	.LVL3:
  81 0008 FFF7FEFF 		bl	assert_param
  82              	.LVL4:
  83              		.loc 1 123 0
  84 000c 014B     		ldr	r3, .L5
  85 000e 1C60     		str	r4, [r3]
  86 0010 10BD     		pop	{r4, pc}
  87              	.L6:
  88 0012 00BF     		.align	2
  89              	.L5:
  90 0014 00380140 		.word	1073821696
  91              		.cfi_endproc
  92              	.LFE124:
  93              		.size	SYSCFG_MemoryRemapConfig, .-SYSCFG_MemoryRemapConfig
  94              		.section	.text.SYSCFG_MemorySwappingBank,"ax",%progbits
  95              		.align	2
  96              		.p2align 4,,15
  97              		.global	SYSCFG_MemorySwappingBank
  98              		.thumb
  99              		.thumb_func
 100              		.type	SYSCFG_MemorySwappingBank, %function
 101              	SYSCFG_MemorySwappingBank:
 102              	.LFB125:
 103              		.loc 1 140 0
 104              		.cfi_startproc
 105              		@ args = 0, pretend = 0, frame = 0
 106              		@ frame_needed = 0, uses_anonymous_args = 0
 107              	.LVL5:
 108 0000 10B5     		push	{r4, lr}
 109              		.cfi_def_cfa_offset 8
 110              		.cfi_offset 4, -8
 111              		.cfi_offset 14, -4
 112              		.loc 1 142 0
 113 0002 0128     		cmp	r0, #1
 114              		.loc 1 140 0
ARM GAS  /var/folders/m4/4md61f0s1_g0rzfghffqnxvr0000gn/T//ccIL3fXa.s 			page 3


 115 0004 0446     		mov	r4, r0
 116              		.loc 1 142 0
 117 0006 8CBF     		ite	hi
 118 0008 0020     		movhi	r0, #0
 119              	.LVL6:
 120 000a 0120     		movls	r0, #1
 121 000c FFF7FEFF 		bl	assert_param
 122              	.LVL7:
 123              		.loc 1 144 0
 124 0010 014B     		ldr	r3, .L9
 125 0012 1C60     		str	r4, [r3]
 126 0014 10BD     		pop	{r4, pc}
 127              	.L10:
 128 0016 00BF     		.align	2
 129              	.L9:
 130 0018 20002742 		.word	1109852192
 131              		.cfi_endproc
 132              	.LFE125:
 133              		.size	SYSCFG_MemorySwappingBank, .-SYSCFG_MemorySwappingBank
 134              		.section	.text.SYSCFG_EXTILineConfig,"ax",%progbits
 135              		.align	2
 136              		.p2align 4,,15
 137              		.global	SYSCFG_EXTILineConfig
 138              		.thumb
 139              		.thumb_func
 140              		.type	SYSCFG_EXTILineConfig, %function
 141              	SYSCFG_EXTILineConfig:
 142              	.LFB126:
 143              		.loc 1 163 0
 144              		.cfi_startproc
 145              		@ args = 0, pretend = 0, frame = 0
 146              		@ frame_needed = 0, uses_anonymous_args = 0
 147              	.LVL8:
 148              		.loc 1 167 0
 149 0000 0A28     		cmp	r0, #10
 150              		.loc 1 163 0
 151 0002 38B5     		push	{r3, r4, r5, lr}
 152              		.cfi_def_cfa_offset 16
 153              		.cfi_offset 3, -16
 154              		.cfi_offset 4, -12
 155              		.cfi_offset 5, -8
 156              		.cfi_offset 14, -4
 157              		.loc 1 163 0
 158 0004 0C46     		mov	r4, r1
 159 0006 0546     		mov	r5, r0
 160              		.loc 1 167 0
 161 0008 8CBF     		ite	hi
 162 000a 0020     		movhi	r0, #0
 163              	.LVL9:
 164 000c 0120     		movls	r0, #1
 165 000e FFF7FEFF 		bl	assert_param
 166              	.LVL10:
 167              		.loc 1 168 0
 168 0012 0F2C     		cmp	r4, #15
 169 0014 8CBF     		ite	hi
 170 0016 0020     		movhi	r0, #0
 171 0018 0120     		movls	r0, #1
ARM GAS  /var/folders/m4/4md61f0s1_g0rzfghffqnxvr0000gn/T//ccIL3fXa.s 			page 4


 172 001a FFF7FEFF 		bl	assert_param
 173              	.LVL11:
 174 001e 04F0FC03 		and	r3, r4, #252
 175 0022 03F18043 		add	r3, r3, #1073741824
 176 0026 03F59C33 		add	r3, r3, #79872
 177              		.loc 1 170 0
 178 002a 04F00304 		and	r4, r4, #3
 179              		.loc 1 171 0
 180 002e 9968     		ldr	r1, [r3, #8]
 181              		.loc 1 170 0
 182 0030 A400     		lsls	r4, r4, #2
 183              	.LVL12:
 184              		.loc 1 171 0
 185 0032 0F22     		movs	r2, #15
 186 0034 A240     		lsls	r2, r2, r4
 187              	.LVL13:
 188 0036 21EA0202 		bic	r2, r1, r2
 189              	.LVL14:
 190 003a 9A60     		str	r2, [r3, #8]
 191              		.loc 1 172 0
 192 003c 9A68     		ldr	r2, [r3, #8]
 193 003e 05FA04F4 		lsl	r4, r5, r4
 194              	.LVL15:
 195 0042 1443     		orrs	r4, r4, r2
 196 0044 9C60     		str	r4, [r3, #8]
 197 0046 38BD     		pop	{r3, r4, r5, pc}
 198              		.cfi_endproc
 199              	.LFE126:
 200              		.size	SYSCFG_EXTILineConfig, .-SYSCFG_EXTILineConfig
 201              		.section	.text.SYSCFG_ETH_MediaInterfaceConfig,"ax",%progbits
 202              		.align	2
 203              		.p2align 4,,15
 204              		.global	SYSCFG_ETH_MediaInterfaceConfig
 205              		.thumb
 206              		.thumb_func
 207              		.type	SYSCFG_ETH_MediaInterfaceConfig, %function
 208              	SYSCFG_ETH_MediaInterfaceConfig:
 209              	.LFB127:
 210              		.loc 1 184 0
 211              		.cfi_startproc
 212              		@ args = 0, pretend = 0, frame = 0
 213              		@ frame_needed = 0, uses_anonymous_args = 0
 214              	.LVL16:
 215 0000 10B5     		push	{r4, lr}
 216              		.cfi_def_cfa_offset 8
 217              		.cfi_offset 4, -8
 218              		.cfi_offset 14, -4
 219              		.loc 1 185 0
 220 0002 0128     		cmp	r0, #1
 221              		.loc 1 184 0
 222 0004 0446     		mov	r4, r0
 223              		.loc 1 185 0
 224 0006 8CBF     		ite	hi
 225 0008 0020     		movhi	r0, #0
 226              	.LVL17:
 227 000a 0120     		movls	r0, #1
 228 000c FFF7FEFF 		bl	assert_param
ARM GAS  /var/folders/m4/4md61f0s1_g0rzfghffqnxvr0000gn/T//ccIL3fXa.s 			page 5


 229              	.LVL18:
 230              		.loc 1 187 0
 231 0010 014B     		ldr	r3, .L15
 232 0012 1C60     		str	r4, [r3]
 233 0014 10BD     		pop	{r4, pc}
 234              	.LVL19:
 235              	.L16:
 236 0016 00BF     		.align	2
 237              	.L15:
 238 0018 DC002742 		.word	1109852380
 239              		.cfi_endproc
 240              	.LFE127:
 241              		.size	SYSCFG_ETH_MediaInterfaceConfig, .-SYSCFG_ETH_MediaInterfaceConfig
 242              		.section	.text.SYSCFG_CompensationCellCmd,"ax",%progbits
 243              		.align	2
 244              		.p2align 4,,15
 245              		.global	SYSCFG_CompensationCellCmd
 246              		.thumb
 247              		.thumb_func
 248              		.type	SYSCFG_CompensationCellCmd, %function
 249              	SYSCFG_CompensationCellCmd:
 250              	.LFB128:
 251              		.loc 1 201 0
 252              		.cfi_startproc
 253              		@ args = 0, pretend = 0, frame = 0
 254              		@ frame_needed = 0, uses_anonymous_args = 0
 255              	.LVL20:
 256 0000 10B5     		push	{r4, lr}
 257              		.cfi_def_cfa_offset 8
 258              		.cfi_offset 4, -8
 259              		.cfi_offset 14, -4
 260              		.loc 1 203 0
 261 0002 0128     		cmp	r0, #1
 262              		.loc 1 201 0
 263 0004 0446     		mov	r4, r0
 264              		.loc 1 203 0
 265 0006 8CBF     		ite	hi
 266 0008 0020     		movhi	r0, #0
 267              	.LVL21:
 268 000a 0120     		movls	r0, #1
 269 000c FFF7FEFF 		bl	assert_param
 270              	.LVL22:
 271              		.loc 1 205 0
 272 0010 014B     		ldr	r3, .L19
 273 0012 1C60     		str	r4, [r3]
 274 0014 10BD     		pop	{r4, pc}
 275              	.L20:
 276 0016 00BF     		.align	2
 277              	.L19:
 278 0018 00042742 		.word	1109853184
 279              		.cfi_endproc
 280              	.LFE128:
 281              		.size	SYSCFG_CompensationCellCmd, .-SYSCFG_CompensationCellCmd
 282              		.section	.text.SYSCFG_GetCompensationCellStatus,"ax",%progbits
 283              		.align	2
 284              		.p2align 4,,15
 285              		.global	SYSCFG_GetCompensationCellStatus
ARM GAS  /var/folders/m4/4md61f0s1_g0rzfghffqnxvr0000gn/T//ccIL3fXa.s 			page 6


 286              		.thumb
 287              		.thumb_func
 288              		.type	SYSCFG_GetCompensationCellStatus, %function
 289              	SYSCFG_GetCompensationCellStatus:
 290              	.LFB129:
 291              		.loc 1 214 0
 292              		.cfi_startproc
 293              		@ args = 0, pretend = 0, frame = 0
 294              		@ frame_needed = 0, uses_anonymous_args = 0
 295              		@ link register save eliminated.
 296              	.LVL23:
 297              		.loc 1 217 0
 298 0000 024B     		ldr	r3, .L22
 299 0002 186A     		ldr	r0, [r3, #32]
 300              	.LVL24:
 301              		.loc 1 226 0
 302 0004 C0F30020 		ubfx	r0, r0, #8, #1
 303              	.LVL25:
 304 0008 7047     		bx	lr
 305              	.L23:
 306 000a 00BF     		.align	2
 307              	.L22:
 308 000c 00380140 		.word	1073821696
 309              		.cfi_endproc
 310              	.LFE129:
 311              		.size	SYSCFG_GetCompensationCellStatus, .-SYSCFG_GetCompensationCellStatus
 312              		.text
 313              	.Letext0:
 314              		.file 2 "/opt/homebrew-cask/Caskroom/gcc-arm-embedded/5_2-2015q4,20151219/gcc-arm-none-eabi-5_2-20
 315              		.file 3 "/opt/homebrew-cask/Caskroom/gcc-arm-embedded/5_2-2015q4,20151219/gcc-arm-none-eabi-5_2-20
 316              		.file 4 "ChibiOS_16.1.4/os/ext/CMSIS/ST/STM32F4xx/stm32f405xx.h"
 317              		.file 5 "ChibiOS_16.1.4/os/ext/CMSIS/ST/STM32F4xx/stm32f4xx.h"
 318              		.file 6 "ChibiOS_16.1.4/ext/stdperiph_stm32f4/inc/stm32f4xx_rcc.h"
 319              		.file 7 "ChibiOS_16.1.4/os/ext/CMSIS/include/core_cm4.h"