ARM GAS  /var/folders/m4/4md61f0s1_g0rzfghffqnxvr0000gn/T//ccIWSo2P.s 			page 1


   1              		.syntax unified
   2              		.cpu cortex-m4
   3              		.eabi_attribute 27, 1
   4              		.eabi_attribute 28, 1
   5              		.fpu fpv4-sp-d16
   6              		.eabi_attribute 20, 1
   7              		.eabi_attribute 21, 1
   8              		.eabi_attribute 23, 3
   9              		.eabi_attribute 24, 1
  10              		.eabi_attribute 25, 1
  11              		.eabi_attribute 26, 1
  12              		.eabi_attribute 30, 2
  13              		.eabi_attribute 34, 1
  14              		.eabi_attribute 18, 4
  15              		.thumb
  16              		.syntax unified
  17              		.file	"stm32f4xx_adc.c"
  18              		.text
  19              	.Ltext0:
  20              		.cfi_sections	.debug_frame
  21              		.section	.text.ADC_DeInit,"ax",%progbits
  22              		.align	2
  23              		.p2align 4,,15
  24              		.global	ADC_DeInit
  25              		.thumb
  26              		.thumb_func
  27              		.type	ADC_DeInit, %function
  28              	ADC_DeInit:
  29              	.LFB123:
  30              		.file 1 "ChibiOS_16.1.4/ext/stdperiph_stm32f4/src/stm32f4xx_adc.c"
  31              		.loc 1 218 0
  32              		.cfi_startproc
  33              		@ args = 0, pretend = 0, frame = 0
  34              		@ frame_needed = 0, uses_anonymous_args = 0
  35 0000 08B5     		push	{r3, lr}
  36              		.cfi_def_cfa_offset 8
  37              		.cfi_offset 3, -8
  38              		.cfi_offset 14, -4
  39              		.loc 1 220 0
  40 0002 0121     		movs	r1, #1
  41 0004 4FF48070 		mov	r0, #256
  42 0008 FFF7FEFF 		bl	RCC_APB2PeriphResetCmd
  43              	.LVL0:
  44              		.loc 1 223 0
  45 000c 0021     		movs	r1, #0
  46 000e 4FF48070 		mov	r0, #256
  47              		.loc 1 224 0
  48 0012 BDE80840 		pop	{r3, lr}
  49              		.cfi_restore 14
  50              		.cfi_restore 3
  51              		.cfi_def_cfa_offset 0
  52              		.loc 1 223 0
  53 0016 FFF7FEBF 		b	RCC_APB2PeriphResetCmd
  54              	.LVL1:
  55              		.cfi_endproc
  56              	.LFE123:
  57              		.size	ADC_DeInit, .-ADC_DeInit
ARM GAS  /var/folders/m4/4md61f0s1_g0rzfghffqnxvr0000gn/T//ccIWSo2P.s 			page 2


  58 001a 00BF     		.section	.text.ADC_Init,"ax",%progbits
  59              		.align	2
  60              		.p2align 4,,15
  61              		.global	ADC_Init
  62              		.thumb
  63              		.thumb_func
  64              		.type	ADC_Init, %function
  65              	ADC_Init:
  66              	.LFB124:
  67              		.loc 1 240 0
  68              		.cfi_startproc
  69              		@ args = 0, pretend = 0, frame = 0
  70              		@ frame_needed = 0, uses_anonymous_args = 0
  71              	.LVL2:
  72 0000 F0B5     		push	{r4, r5, r6, r7, lr}
  73              		.cfi_def_cfa_offset 20
  74              		.cfi_offset 4, -20
  75              		.cfi_offset 5, -16
  76              		.cfi_offset 6, -12
  77              		.cfi_offset 7, -8
  78              		.cfi_offset 14, -4
  79              		.loc 1 255 0
  80 0002 4468     		ldr	r4, [r0, #4]
  81              	.LVL3:
  82 0004 0A68     		ldr	r2, [r1]
  83              		.loc 1 263 0
  84 0006 0E79     		ldrb	r6, [r1, #4]	@ zero_extendqisi2
  85 0008 D1F810E0 		ldr	lr, [r1, #16]
  86 000c CD68     		ldr	r5, [r1, #12]
  87 000e 0F4B     		ldr	r3, .L5
  88 0010 24F04074 		bic	r4, r4, #50331648
  89              	.LVL4:
  90 0014 24F48074 		bic	r4, r4, #256
  91 0018 2243     		orrs	r2, r2, r4
  92 001a 42EA0622 		orr	r2, r2, r6, lsl #8
  93              	.LVL5:
  94              		.loc 1 266 0
  95 001e 4260     		str	r2, [r0, #4]
  96              		.loc 1 269 0
  97 0020 8768     		ldr	r7, [r0, #8]
  98              	.LVL6:
  99 0022 8A68     		ldr	r2, [r1, #8]
 100              		.loc 1 280 0
 101 0024 4E79     		ldrb	r6, [r1, #5]	@ zero_extendqisi2
 102 0026 4EEA0504 		orr	r4, lr, r5
 103 002a 2243     		orrs	r2, r2, r4
 104 002c 3B40     		ands	r3, r3, r7
 105              	.LVL7:
 106 002e 1343     		orrs	r3, r3, r2
 107              	.LVL8:
 108 0030 43EA4603 		orr	r3, r3, r6, lsl #1
 109              	.LVL9:
 110              		.loc 1 286 0
 111 0034 8360     		str	r3, [r0, #8]
 112              		.loc 1 297 0
 113 0036 0A7D     		ldrb	r2, [r1, #20]	@ zero_extendqisi2
 114              		.loc 1 289 0
ARM GAS  /var/folders/m4/4md61f0s1_g0rzfghffqnxvr0000gn/T//ccIWSo2P.s 			page 3


 115 0038 C36A     		ldr	r3, [r0, #44]
 116              	.LVL10:
 117              		.loc 1 297 0
 118 003a 013A     		subs	r2, r2, #1
 119 003c D2B2     		uxtb	r2, r2
 120              		.loc 1 292 0
 121 003e 23F47003 		bic	r3, r3, #15728640
 122              	.LVL11:
 123              		.loc 1 297 0
 124 0042 43EA0253 		orr	r3, r3, r2, lsl #20
 125              	.LVL12:
 126              		.loc 1 300 0
 127 0046 C362     		str	r3, [r0, #44]
 128              	.LVL13:
 129 0048 F0BD     		pop	{r4, r5, r6, r7, pc}
 130              	.L6:
 131 004a 00BF     		.align	2
 132              	.L5:
 133 004c FDF7FFC0 		.word	-1056966659
 134              		.cfi_endproc
 135              	.LFE124:
 136              		.size	ADC_Init, .-ADC_Init
 137              		.section	.text.ADC_StructInit,"ax",%progbits
 138              		.align	2
 139              		.p2align 4,,15
 140              		.global	ADC_StructInit
 141              		.thumb
 142              		.thumb_func
 143              		.type	ADC_StructInit, %function
 144              	ADC_StructInit:
 145              	.LFB125:
 146              		.loc 1 315 0
 147              		.cfi_startproc
 148              		@ args = 0, pretend = 0, frame = 0
 149              		@ frame_needed = 0, uses_anonymous_args = 0
 150              		@ link register save eliminated.
 151              	.LVL14:
 152              		.loc 1 317 0
 153 0000 0023     		movs	r3, #0
 154              		.loc 1 335 0
 155 0002 0122     		movs	r2, #1
 156 0004 0275     		strb	r2, [r0, #20]
 157              		.loc 1 317 0
 158 0006 0360     		str	r3, [r0]
 159              		.loc 1 320 0
 160 0008 0371     		strb	r3, [r0, #4]
 161              		.loc 1 323 0
 162 000a 4371     		strb	r3, [r0, #5]
 163              		.loc 1 326 0
 164 000c 8360     		str	r3, [r0, #8]
 165              		.loc 1 329 0
 166 000e C360     		str	r3, [r0, #12]
 167              		.loc 1 332 0
 168 0010 0361     		str	r3, [r0, #16]
 169 0012 7047     		bx	lr
 170              		.cfi_endproc
 171              	.LFE125:
ARM GAS  /var/folders/m4/4md61f0s1_g0rzfghffqnxvr0000gn/T//ccIWSo2P.s 			page 4


 172              		.size	ADC_StructInit, .-ADC_StructInit
 173              		.section	.text.ADC_CommonInit,"ax",%progbits
 174              		.align	2
 175              		.p2align 4,,15
 176              		.global	ADC_CommonInit
 177              		.thumb
 178              		.thumb_func
 179              		.type	ADC_CommonInit, %function
 180              	ADC_CommonInit:
 181              	.LFB126:
 182              		.loc 1 346 0
 183              		.cfi_startproc
 184              		@ args = 0, pretend = 0, frame = 0
 185              		@ frame_needed = 0, uses_anonymous_args = 0
 186              		@ link register save eliminated.
 187              	.LVL15:
 188 0000 70B4     		push	{r4, r5, r6}
 189              		.cfi_def_cfa_offset 12
 190              		.cfi_offset 4, -12
 191              		.cfi_offset 5, -8
 192              		.cfi_offset 6, -4
 193              		.loc 1 366 0
 194 0002 4268     		ldr	r2, [r0, #4]
 195 0004 0668     		ldr	r6, [r0]
 196              		.loc 1 355 0
 197 0006 064D     		ldr	r5, .L10
 198              		.loc 1 366 0
 199 0008 8468     		ldr	r4, [r0, #8]
 200 000a C168     		ldr	r1, [r0, #12]
 201              		.loc 1 358 0
 202 000c 054B     		ldr	r3, .L10+4
 203              		.loc 1 355 0
 204 000e 6868     		ldr	r0, [r5, #4]
 205              	.LVL16:
 206              		.loc 1 366 0
 207 0010 3243     		orrs	r2, r2, r6
 208 0012 2243     		orrs	r2, r2, r4
 209 0014 0A43     		orrs	r2, r2, r1
 210              		.loc 1 358 0
 211 0016 0340     		ands	r3, r3, r0
 212              	.LVL17:
 213              		.loc 1 366 0
 214 0018 1343     		orrs	r3, r3, r2
 215              	.LVL18:
 216              		.loc 1 372 0
 217 001a 6B60     		str	r3, [r5, #4]
 218              		.loc 1 373 0
 219 001c 70BC     		pop	{r4, r5, r6}
 220              		.cfi_restore 6
 221              		.cfi_restore 5
 222              		.cfi_restore 4
 223              		.cfi_def_cfa_offset 0
 224 001e 7047     		bx	lr
 225              	.L11:
 226              		.align	2
 227              	.L10:
 228 0020 00230140 		.word	1073816320
ARM GAS  /var/folders/m4/4md61f0s1_g0rzfghffqnxvr0000gn/T//ccIWSo2P.s 			page 5


 229 0024 E030FCFF 		.word	-249632
 230              		.cfi_endproc
 231              	.LFE126:
 232              		.size	ADC_CommonInit, .-ADC_CommonInit
 233              		.section	.text.ADC_CommonStructInit,"ax",%progbits
 234              		.align	2
 235              		.p2align 4,,15
 236              		.global	ADC_CommonStructInit
 237              		.thumb
 238              		.thumb_func
 239              		.type	ADC_CommonStructInit, %function
 240              	ADC_CommonStructInit:
 241              	.LFB127:
 242              		.loc 1 382 0
 243              		.cfi_startproc
 244              		@ args = 0, pretend = 0, frame = 0
 245              		@ frame_needed = 0, uses_anonymous_args = 0
 246              		@ link register save eliminated.
 247              	.LVL19:
 248              		.loc 1 384 0
 249 0000 0023     		movs	r3, #0
 250 0002 0360     		str	r3, [r0]
 251              		.loc 1 387 0
 252 0004 4360     		str	r3, [r0, #4]
 253              		.loc 1 390 0
 254 0006 8360     		str	r3, [r0, #8]
 255              		.loc 1 393 0
 256 0008 C360     		str	r3, [r0, #12]
 257 000a 7047     		bx	lr
 258              		.cfi_endproc
 259              	.LFE127:
 260              		.size	ADC_CommonStructInit, .-ADC_CommonStructInit
 261              		.section	.text.ADC_Cmd,"ax",%progbits
 262              		.align	2
 263              		.p2align 4,,15
 264              		.global	ADC_Cmd
 265              		.thumb
 266              		.thumb_func
 267              		.type	ADC_Cmd, %function
 268              	ADC_Cmd:
 269              	.LFB128:
 270              		.loc 1 404 0
 271              		.cfi_startproc
 272              		@ args = 0, pretend = 0, frame = 0
 273              		@ frame_needed = 0, uses_anonymous_args = 0
 274              		@ link register save eliminated.
 275              	.LVL20:
 276              		.loc 1 411 0
 277 0000 8368     		ldr	r3, [r0, #8]
 278              		.loc 1 408 0
 279 0002 19B9     		cbnz	r1, .L17
 280              		.loc 1 416 0
 281 0004 23F00103 		bic	r3, r3, #1
 282 0008 8360     		str	r3, [r0, #8]
 283 000a 7047     		bx	lr
 284              	.L17:
 285              		.loc 1 411 0
ARM GAS  /var/folders/m4/4md61f0s1_g0rzfghffqnxvr0000gn/T//ccIWSo2P.s 			page 6


 286 000c 43F00103 		orr	r3, r3, #1
 287 0010 8360     		str	r3, [r0, #8]
 288 0012 7047     		bx	lr
 289              		.cfi_endproc
 290              	.LFE128:
 291              		.size	ADC_Cmd, .-ADC_Cmd
 292              		.section	.text.ADC_AnalogWatchdogCmd,"ax",%progbits
 293              		.align	2
 294              		.p2align 4,,15
 295              		.global	ADC_AnalogWatchdogCmd
 296              		.thumb
 297              		.thumb_func
 298              		.type	ADC_AnalogWatchdogCmd, %function
 299              	ADC_AnalogWatchdogCmd:
 300              	.LFB129:
 301              		.loc 1 460 0
 302              		.cfi_startproc
 303              		@ args = 0, pretend = 0, frame = 0
 304              		@ frame_needed = 0, uses_anonymous_args = 0
 305              		@ link register save eliminated.
 306              	.LVL21:
 307              		.loc 1 467 0
 308 0000 4368     		ldr	r3, [r0, #4]
 309              	.LVL22:
 310              		.loc 1 470 0
 311 0002 23F44003 		bic	r3, r3, #12582912
 312              	.LVL23:
 313 0006 23F40073 		bic	r3, r3, #512
 314              	.LVL24:
 315              		.loc 1 473 0
 316 000a 1943     		orrs	r1, r1, r3
 317              	.LVL25:
 318              		.loc 1 476 0
 319 000c 4160     		str	r1, [r0, #4]
 320 000e 7047     		bx	lr
 321              		.cfi_endproc
 322              	.LFE129:
 323              		.size	ADC_AnalogWatchdogCmd, .-ADC_AnalogWatchdogCmd
 324              		.section	.text.ADC_AnalogWatchdogThresholdsConfig,"ax",%progbits
 325              		.align	2
 326              		.p2align 4,,15
 327              		.global	ADC_AnalogWatchdogThresholdsConfig
 328              		.thumb
 329              		.thumb_func
 330              		.type	ADC_AnalogWatchdogThresholdsConfig, %function
 331              	ADC_AnalogWatchdogThresholdsConfig:
 332              	.LFB130:
 333              		.loc 1 490 0
 334              		.cfi_startproc
 335              		@ args = 0, pretend = 0, frame = 0
 336              		@ frame_needed = 0, uses_anonymous_args = 0
 337              		@ link register save eliminated.
 338              	.LVL26:
 339              		.loc 1 497 0
 340 0000 4162     		str	r1, [r0, #36]
 341              		.loc 1 500 0
 342 0002 8262     		str	r2, [r0, #40]
ARM GAS  /var/folders/m4/4md61f0s1_g0rzfghffqnxvr0000gn/T//ccIWSo2P.s 			page 7


 343 0004 7047     		bx	lr
 344              		.cfi_endproc
 345              	.LFE130:
 346              		.size	ADC_AnalogWatchdogThresholdsConfig, .-ADC_AnalogWatchdogThresholdsConfig
 347 0006 00BF     		.section	.text.ADC_AnalogWatchdogSingleChannelConfig,"ax",%progbits
 348              		.align	2
 349              		.p2align 4,,15
 350              		.global	ADC_AnalogWatchdogSingleChannelConfig
 351              		.thumb
 352              		.thumb_func
 353              		.type	ADC_AnalogWatchdogSingleChannelConfig, %function
 354              	ADC_AnalogWatchdogSingleChannelConfig:
 355              	.LFB131:
 356              		.loc 1 530 0
 357              		.cfi_startproc
 358              		@ args = 0, pretend = 0, frame = 0
 359              		@ frame_needed = 0, uses_anonymous_args = 0
 360              		@ link register save eliminated.
 361              	.LVL27:
 362              		.loc 1 537 0
 363 0000 4368     		ldr	r3, [r0, #4]
 364              	.LVL28:
 365              		.loc 1 540 0
 366 0002 23F01F03 		bic	r3, r3, #31
 367              	.LVL29:
 368              		.loc 1 543 0
 369 0006 1943     		orrs	r1, r1, r3
 370              	.LVL30:
 371              		.loc 1 546 0
 372 0008 4160     		str	r1, [r0, #4]
 373 000a 7047     		bx	lr
 374              		.cfi_endproc
 375              	.LFE131:
 376              		.size	ADC_AnalogWatchdogSingleChannelConfig, .-ADC_AnalogWatchdogSingleChannelConfig
 377              		.section	.text.ADC_TempSensorVrefintCmd,"ax",%progbits
 378              		.align	2
 379              		.p2align 4,,15
 380              		.global	ADC_TempSensorVrefintCmd
 381              		.thumb
 382              		.thumb_func
 383              		.type	ADC_TempSensorVrefintCmd, %function
 384              	ADC_TempSensorVrefintCmd:
 385              	.LFB132:
 386              		.loc 1 594 0
 387              		.cfi_startproc
 388              		@ args = 0, pretend = 0, frame = 0
 389              		@ frame_needed = 0, uses_anonymous_args = 0
 390              		@ link register save eliminated.
 391              	.LVL31:
 392              		.loc 1 600 0
 393 0000 054A     		ldr	r2, .L25
 394 0002 5368     		ldr	r3, [r2, #4]
 395              		.loc 1 597 0
 396 0004 18B9     		cbnz	r0, .L24
 397              		.loc 1 605 0
 398 0006 23F40003 		bic	r3, r3, #8388608
 399 000a 5360     		str	r3, [r2, #4]
ARM GAS  /var/folders/m4/4md61f0s1_g0rzfghffqnxvr0000gn/T//ccIWSo2P.s 			page 8


 400 000c 7047     		bx	lr
 401              	.L24:
 402              		.loc 1 600 0
 403 000e 43F40003 		orr	r3, r3, #8388608
 404 0012 5360     		str	r3, [r2, #4]
 405 0014 7047     		bx	lr
 406              	.L26:
 407 0016 00BF     		.align	2
 408              	.L25:
 409 0018 00230140 		.word	1073816320
 410              		.cfi_endproc
 411              	.LFE132:
 412              		.size	ADC_TempSensorVrefintCmd, .-ADC_TempSensorVrefintCmd
 413              		.section	.text.ADC_VBATCmd,"ax",%progbits
 414              		.align	2
 415              		.p2align 4,,15
 416              		.global	ADC_VBATCmd
 417              		.thumb
 418              		.thumb_func
 419              		.type	ADC_VBATCmd, %function
 420              	ADC_VBATCmd:
 421              	.LFB133:
 422              		.loc 1 620 0
 423              		.cfi_startproc
 424              		@ args = 0, pretend = 0, frame = 0
 425              		@ frame_needed = 0, uses_anonymous_args = 0
 426              		@ link register save eliminated.
 427              	.LVL32:
 428              		.loc 1 626 0
 429 0000 054A     		ldr	r2, .L31
 430 0002 5368     		ldr	r3, [r2, #4]
 431              		.loc 1 623 0
 432 0004 18B9     		cbnz	r0, .L30
 433              		.loc 1 631 0
 434 0006 23F48003 		bic	r3, r3, #4194304
 435 000a 5360     		str	r3, [r2, #4]
 436 000c 7047     		bx	lr
 437              	.L30:
 438              		.loc 1 626 0
 439 000e 43F48003 		orr	r3, r3, #4194304
 440 0012 5360     		str	r3, [r2, #4]
 441 0014 7047     		bx	lr
 442              	.L32:
 443 0016 00BF     		.align	2
 444              	.L31:
 445 0018 00230140 		.word	1073816320
 446              		.cfi_endproc
 447              	.LFE133:
 448              		.size	ADC_VBATCmd, .-ADC_VBATCmd
 449              		.section	.text.ADC_RegularChannelConfig,"ax",%progbits
 450              		.align	2
 451              		.p2align 4,,15
 452              		.global	ADC_RegularChannelConfig
 453              		.thumb
 454              		.thumb_func
 455              		.type	ADC_RegularChannelConfig, %function
 456              	ADC_RegularChannelConfig:
ARM GAS  /var/folders/m4/4md61f0s1_g0rzfghffqnxvr0000gn/T//ccIWSo2P.s 			page 9


 457              	.LFB134:
 458              		.loc 1 720 0
 459              		.cfi_startproc
 460              		@ args = 0, pretend = 0, frame = 0
 461              		@ frame_needed = 0, uses_anonymous_args = 0
 462              		@ link register save eliminated.
 463              	.LVL33:
 464              		.loc 1 729 0
 465 0000 0929     		cmp	r1, #9
 466              		.loc 1 720 0
 467 0002 70B4     		push	{r4, r5, r6}
 468              		.cfi_def_cfa_offset 12
 469              		.cfi_offset 4, -12
 470              		.cfi_offset 5, -8
 471              		.cfi_offset 6, -4
 472              		.loc 1 729 0
 473 0004 1DD9     		bls	.L34
 474              		.loc 1 735 0
 475 0006 A1F10A06 		sub	r6, r1, #10
 476 000a 06EB4606 		add	r6, r6, r6, lsl #1
 477              		.loc 1 732 0
 478 000e C568     		ldr	r5, [r0, #12]
 479              	.LVL34:
 480              		.loc 1 738 0
 481 0010 0724     		movs	r4, #7
 482 0012 B440     		lsls	r4, r4, r6
 483              	.LVL35:
 484              		.loc 1 744 0
 485 0014 B340     		lsls	r3, r3, r6
 486              	.LVL36:
 487              		.loc 1 738 0
 488 0016 25EA0404 		bic	r4, r5, r4
 489              	.LVL37:
 490              		.loc 1 744 0
 491 001a 2343     		orrs	r3, r3, r4
 492              	.LVL38:
 493              		.loc 1 770 0
 494 001c 062A     		cmp	r2, #6
 495              		.loc 1 747 0
 496 001e C360     		str	r3, [r0, #12]
 497              		.loc 1 770 0
 498 0020 1BD9     		bls	.L40
 499              	.L36:
 500              		.loc 1 791 0
 501 0022 0C2A     		cmp	r2, #12
 502 0024 27D9     		bls	.L41
 503              		.loc 1 818 0
 504 0026 0D3A     		subs	r2, r2, #13
 505              	.LVL39:
 506 0028 02EB8202 		add	r2, r2, r2, lsl #2
 507              		.loc 1 815 0
 508 002c C36A     		ldr	r3, [r0, #44]
 509              	.LVL40:
 510              		.loc 1 821 0
 511 002e 1F24     		movs	r4, #31
 512 0030 9440     		lsls	r4, r4, r2
 513              	.LVL41:
ARM GAS  /var/folders/m4/4md61f0s1_g0rzfghffqnxvr0000gn/T//ccIWSo2P.s 			page 10


 514              		.loc 1 827 0
 515 0032 01FA02F2 		lsl	r2, r1, r2
 516              		.loc 1 821 0
 517 0036 23EA0401 		bic	r1, r3, r4
 518              	.LVL42:
 519              		.loc 1 827 0
 520 003a 0A43     		orrs	r2, r2, r1
 521              	.LVL43:
 522              		.loc 1 830 0
 523 003c C262     		str	r2, [r0, #44]
 524              		.loc 1 832 0
 525 003e 70BC     		pop	{r4, r5, r6}
 526              		.cfi_remember_state
 527              		.cfi_restore 6
 528              		.cfi_restore 5
 529              		.cfi_restore 4
 530              		.cfi_def_cfa_offset 0
 531 0040 7047     		bx	lr
 532              	.LVL44:
 533              	.L34:
 534              		.cfi_restore_state
 535              		.loc 1 755 0
 536 0042 01EB4106 		add	r6, r1, r1, lsl #1
 537              		.loc 1 752 0
 538 0046 0569     		ldr	r5, [r0, #16]
 539              	.LVL45:
 540              		.loc 1 758 0
 541 0048 0724     		movs	r4, #7
 542 004a B440     		lsls	r4, r4, r6
 543              	.LVL46:
 544              		.loc 1 764 0
 545 004c B340     		lsls	r3, r3, r6
 546              	.LVL47:
 547              		.loc 1 758 0
 548 004e 25EA0404 		bic	r4, r5, r4
 549              	.LVL48:
 550              		.loc 1 764 0
 551 0052 2343     		orrs	r3, r3, r4
 552              	.LVL49:
 553              		.loc 1 770 0
 554 0054 062A     		cmp	r2, #6
 555              		.loc 1 767 0
 556 0056 0361     		str	r3, [r0, #16]
 557              		.loc 1 770 0
 558 0058 E3D8     		bhi	.L36
 559              	.L40:
 560              		.loc 1 776 0
 561 005a 013A     		subs	r2, r2, #1
 562              	.LVL50:
 563 005c 02EB8202 		add	r2, r2, r2, lsl #2
 564              		.loc 1 773 0
 565 0060 436B     		ldr	r3, [r0, #52]
 566              	.LVL51:
 567              		.loc 1 779 0
 568 0062 1F24     		movs	r4, #31
 569 0064 9440     		lsls	r4, r4, r2
 570              	.LVL52:
ARM GAS  /var/folders/m4/4md61f0s1_g0rzfghffqnxvr0000gn/T//ccIWSo2P.s 			page 11


 571              		.loc 1 785 0
 572 0066 01FA02F2 		lsl	r2, r1, r2
 573              		.loc 1 779 0
 574 006a 23EA0401 		bic	r1, r3, r4
 575              	.LVL53:
 576              		.loc 1 785 0
 577 006e 0A43     		orrs	r2, r2, r1
 578              	.LVL54:
 579              		.loc 1 788 0
 580 0070 4263     		str	r2, [r0, #52]
 581              		.loc 1 832 0
 582 0072 70BC     		pop	{r4, r5, r6}
 583              		.cfi_remember_state
 584              		.cfi_restore 4
 585              		.cfi_restore 5
 586              		.cfi_restore 6
 587              		.cfi_def_cfa_offset 0
 588 0074 7047     		bx	lr
 589              	.LVL55:
 590              	.L41:
 591              		.cfi_restore_state
 592              		.loc 1 797 0
 593 0076 073A     		subs	r2, r2, #7
 594              	.LVL56:
 595 0078 02EB8202 		add	r2, r2, r2, lsl #2
 596              		.loc 1 794 0
 597 007c 036B     		ldr	r3, [r0, #48]
 598              	.LVL57:
 599              		.loc 1 800 0
 600 007e 1F24     		movs	r4, #31
 601 0080 9440     		lsls	r4, r4, r2
 602              	.LVL58:
 603              		.loc 1 806 0
 604 0082 01FA02F2 		lsl	r2, r1, r2
 605              		.loc 1 800 0
 606 0086 23EA0401 		bic	r1, r3, r4
 607              	.LVL59:
 608              		.loc 1 806 0
 609 008a 0A43     		orrs	r2, r2, r1
 610              	.LVL60:
 611              		.loc 1 809 0
 612 008c 0263     		str	r2, [r0, #48]
 613              		.loc 1 832 0
 614 008e 70BC     		pop	{r4, r5, r6}
 615              		.cfi_restore 4
 616              		.cfi_restore 5
 617              		.cfi_restore 6
 618              		.cfi_def_cfa_offset 0
 619 0090 7047     		bx	lr
 620              		.cfi_endproc
 621              	.LFE134:
 622              		.size	ADC_RegularChannelConfig, .-ADC_RegularChannelConfig
 623 0092 00BF     		.section	.text.ADC_SoftwareStartConv,"ax",%progbits
 624              		.align	2
 625              		.p2align 4,,15
 626              		.global	ADC_SoftwareStartConv
 627              		.thumb
ARM GAS  /var/folders/m4/4md61f0s1_g0rzfghffqnxvr0000gn/T//ccIWSo2P.s 			page 12


 628              		.thumb_func
 629              		.type	ADC_SoftwareStartConv, %function
 630              	ADC_SoftwareStartConv:
 631              	.LFB135:
 632              		.loc 1 840 0
 633              		.cfi_startproc
 634              		@ args = 0, pretend = 0, frame = 0
 635              		@ frame_needed = 0, uses_anonymous_args = 0
 636              		@ link register save eliminated.
 637              	.LVL61:
 638              		.loc 1 845 0
 639 0000 8368     		ldr	r3, [r0, #8]
 640 0002 43F08043 		orr	r3, r3, #1073741824
 641 0006 8360     		str	r3, [r0, #8]
 642 0008 7047     		bx	lr
 643              		.cfi_endproc
 644              	.LFE135:
 645              		.size	ADC_SoftwareStartConv, .-ADC_SoftwareStartConv
 646 000a 00BF     		.section	.text.ADC_GetSoftwareStartConvStatus,"ax",%progbits
 647              		.align	2
 648              		.p2align 4,,15
 649              		.global	ADC_GetSoftwareStartConvStatus
 650              		.thumb
 651              		.thumb_func
 652              		.type	ADC_GetSoftwareStartConvStatus, %function
 653              	ADC_GetSoftwareStartConvStatus:
 654              	.LFB136:
 655              		.loc 1 854 0
 656              		.cfi_startproc
 657              		@ args = 0, pretend = 0, frame = 0
 658              		@ frame_needed = 0, uses_anonymous_args = 0
 659              		@ link register save eliminated.
 660              	.LVL62:
 661              		.loc 1 860 0
 662 0000 8068     		ldr	r0, [r0, #8]
 663              	.LVL63:
 664              		.loc 1 873 0
 665 0002 C0F38070 		ubfx	r0, r0, #30, #1
 666              	.LVL64:
 667 0006 7047     		bx	lr
 668              		.cfi_endproc
 669              	.LFE136:
 670              		.size	ADC_GetSoftwareStartConvStatus, .-ADC_GetSoftwareStartConvStatus
 671              		.section	.text.ADC_EOCOnEachRegularChannelCmd,"ax",%progbits
 672              		.align	2
 673              		.p2align 4,,15
 674              		.global	ADC_EOCOnEachRegularChannelCmd
 675              		.thumb
 676              		.thumb_func
 677              		.type	ADC_EOCOnEachRegularChannelCmd, %function
 678              	ADC_EOCOnEachRegularChannelCmd:
 679              	.LFB137:
 680              		.loc 1 884 0
 681              		.cfi_startproc
 682              		@ args = 0, pretend = 0, frame = 0
 683              		@ frame_needed = 0, uses_anonymous_args = 0
 684              		@ link register save eliminated.
ARM GAS  /var/folders/m4/4md61f0s1_g0rzfghffqnxvr0000gn/T//ccIWSo2P.s 			page 13


 685              	.LVL65:
 686              		.loc 1 892 0
 687 0000 8368     		ldr	r3, [r0, #8]
 688              		.loc 1 889 0
 689 0002 19B9     		cbnz	r1, .L47
 690              		.loc 1 897 0
 691 0004 23F48063 		bic	r3, r3, #1024
 692 0008 8360     		str	r3, [r0, #8]
 693 000a 7047     		bx	lr
 694              	.L47:
 695              		.loc 1 892 0
 696 000c 43F48063 		orr	r3, r3, #1024
 697 0010 8360     		str	r3, [r0, #8]
 698 0012 7047     		bx	lr
 699              		.cfi_endproc
 700              	.LFE137:
 701              		.size	ADC_EOCOnEachRegularChannelCmd, .-ADC_EOCOnEachRegularChannelCmd
 702              		.section	.text.ADC_ContinuousModeCmd,"ax",%progbits
 703              		.align	2
 704              		.p2align 4,,15
 705              		.global	ADC_ContinuousModeCmd
 706              		.thumb
 707              		.thumb_func
 708              		.type	ADC_ContinuousModeCmd, %function
 709              	ADC_ContinuousModeCmd:
 710              	.LFB138:
 711              		.loc 1 909 0
 712              		.cfi_startproc
 713              		@ args = 0, pretend = 0, frame = 0
 714              		@ frame_needed = 0, uses_anonymous_args = 0
 715              		@ link register save eliminated.
 716              	.LVL66:
 717              		.loc 1 917 0
 718 0000 8368     		ldr	r3, [r0, #8]
 719              		.loc 1 914 0
 720 0002 19B9     		cbnz	r1, .L51
 721              		.loc 1 922 0
 722 0004 23F00203 		bic	r3, r3, #2
 723 0008 8360     		str	r3, [r0, #8]
 724 000a 7047     		bx	lr
 725              	.L51:
 726              		.loc 1 917 0
 727 000c 43F00203 		orr	r3, r3, #2
 728 0010 8360     		str	r3, [r0, #8]
 729 0012 7047     		bx	lr
 730              		.cfi_endproc
 731              	.LFE138:
 732              		.size	ADC_ContinuousModeCmd, .-ADC_ContinuousModeCmd
 733              		.section	.text.ADC_DiscModeChannelCountConfig,"ax",%progbits
 734              		.align	2
 735              		.p2align 4,,15
 736              		.global	ADC_DiscModeChannelCountConfig
 737              		.thumb
 738              		.thumb_func
 739              		.type	ADC_DiscModeChannelCountConfig, %function
 740              	ADC_DiscModeChannelCountConfig:
 741              	.LFB139:
ARM GAS  /var/folders/m4/4md61f0s1_g0rzfghffqnxvr0000gn/T//ccIWSo2P.s 			page 14


 742              		.loc 1 935 0
 743              		.cfi_startproc
 744              		@ args = 0, pretend = 0, frame = 0
 745              		@ frame_needed = 0, uses_anonymous_args = 0
 746              		@ link register save eliminated.
 747              	.LVL67:
 748              		.loc 1 944 0
 749 0000 4368     		ldr	r3, [r0, #4]
 750              	.LVL68:
 751              		.loc 1 951 0
 752 0002 0139     		subs	r1, r1, #1
 753              	.LVL69:
 754              		.loc 1 947 0
 755 0004 23F46043 		bic	r3, r3, #57344
 756              	.LVL70:
 757              		.loc 1 951 0
 758 0008 43EA4131 		orr	r1, r3, r1, lsl #13
 759              	.LVL71:
 760              		.loc 1 954 0
 761 000c 4160     		str	r1, [r0, #4]
 762 000e 7047     		bx	lr
 763              		.cfi_endproc
 764              	.LFE139:
 765              		.size	ADC_DiscModeChannelCountConfig, .-ADC_DiscModeChannelCountConfig
 766              		.section	.text.ADC_DiscModeCmd,"ax",%progbits
 767              		.align	2
 768              		.p2align 4,,15
 769              		.global	ADC_DiscModeCmd
 770              		.thumb
 771              		.thumb_func
 772              		.type	ADC_DiscModeCmd, %function
 773              	ADC_DiscModeCmd:
 774              	.LFB140:
 775              		.loc 1 967 0
 776              		.cfi_startproc
 777              		@ args = 0, pretend = 0, frame = 0
 778              		@ frame_needed = 0, uses_anonymous_args = 0
 779              		@ link register save eliminated.
 780              	.LVL72:
 781              		.loc 1 975 0
 782 0000 4368     		ldr	r3, [r0, #4]
 783              		.loc 1 972 0
 784 0002 19B9     		cbnz	r1, .L56
 785              		.loc 1 980 0
 786 0004 23F40063 		bic	r3, r3, #2048
 787 0008 4360     		str	r3, [r0, #4]
 788 000a 7047     		bx	lr
 789              	.L56:
 790              		.loc 1 975 0
 791 000c 43F40063 		orr	r3, r3, #2048
 792 0010 4360     		str	r3, [r0, #4]
 793 0012 7047     		bx	lr
 794              		.cfi_endproc
 795              	.LFE140:
 796              		.size	ADC_DiscModeCmd, .-ADC_DiscModeCmd
 797              		.section	.text.ADC_GetConversionValue,"ax",%progbits
 798              		.align	2
ARM GAS  /var/folders/m4/4md61f0s1_g0rzfghffqnxvr0000gn/T//ccIWSo2P.s 			page 15


 799              		.p2align 4,,15
 800              		.global	ADC_GetConversionValue
 801              		.thumb
 802              		.thumb_func
 803              		.type	ADC_GetConversionValue, %function
 804              	ADC_GetConversionValue:
 805              	.LFB141:
 806              		.loc 1 990 0
 807              		.cfi_startproc
 808              		@ args = 0, pretend = 0, frame = 0
 809              		@ frame_needed = 0, uses_anonymous_args = 0
 810              		@ link register save eliminated.
 811              	.LVL73:
 812              		.loc 1 995 0
 813 0000 C06C     		ldr	r0, [r0, #76]
 814              	.LVL74:
 815              		.loc 1 996 0
 816 0002 80B2     		uxth	r0, r0
 817 0004 7047     		bx	lr
 818              		.cfi_endproc
 819              	.LFE141:
 820              		.size	ADC_GetConversionValue, .-ADC_GetConversionValue
 821 0006 00BF     		.section	.text.ADC_GetMultiModeConversionValue,"ax",%progbits
 822              		.align	2
 823              		.p2align 4,,15
 824              		.global	ADC_GetMultiModeConversionValue
 825              		.thumb
 826              		.thumb_func
 827              		.type	ADC_GetMultiModeConversionValue, %function
 828              	ADC_GetMultiModeConversionValue:
 829              	.LFB142:
 830              		.loc 1 1011 0
 831              		.cfi_startproc
 832              		@ args = 0, pretend = 0, frame = 0
 833              		@ frame_needed = 0, uses_anonymous_args = 0
 834              		@ link register save eliminated.
 835              		.loc 1 1013 0
 836 0000 014B     		ldr	r3, .L59
 837 0002 1868     		ldr	r0, [r3]
 838              		.loc 1 1014 0
 839 0004 7047     		bx	lr
 840              	.L60:
 841 0006 00BF     		.align	2
 842              	.L59:
 843 0008 08230140 		.word	1073816328
 844              		.cfi_endproc
 845              	.LFE142:
 846              		.size	ADC_GetMultiModeConversionValue, .-ADC_GetMultiModeConversionValue
 847              		.section	.text.ADC_DMACmd,"ax",%progbits
 848              		.align	2
 849              		.p2align 4,,15
 850              		.global	ADC_DMACmd
 851              		.thumb
 852              		.thumb_func
 853              		.type	ADC_DMACmd, %function
 854              	ADC_DMACmd:
 855              	.LFB143:
ARM GAS  /var/folders/m4/4md61f0s1_g0rzfghffqnxvr0000gn/T//ccIWSo2P.s 			page 16


 856              		.loc 1 1057 0
 857              		.cfi_startproc
 858              		@ args = 0, pretend = 0, frame = 0
 859              		@ frame_needed = 0, uses_anonymous_args = 0
 860              		@ link register save eliminated.
 861              	.LVL75:
 862              		.loc 1 1064 0
 863 0000 8368     		ldr	r3, [r0, #8]
 864              		.loc 1 1061 0
 865 0002 19B9     		cbnz	r1, .L64
 866              		.loc 1 1069 0
 867 0004 23F48073 		bic	r3, r3, #256
 868 0008 8360     		str	r3, [r0, #8]
 869 000a 7047     		bx	lr
 870              	.L64:
 871              		.loc 1 1064 0
 872 000c 43F48073 		orr	r3, r3, #256
 873 0010 8360     		str	r3, [r0, #8]
 874 0012 7047     		bx	lr
 875              		.cfi_endproc
 876              	.LFE143:
 877              		.size	ADC_DMACmd, .-ADC_DMACmd
 878              		.section	.text.ADC_DMARequestAfterLastTransferCmd,"ax",%progbits
 879              		.align	2
 880              		.p2align 4,,15
 881              		.global	ADC_DMARequestAfterLastTransferCmd
 882              		.thumb
 883              		.thumb_func
 884              		.type	ADC_DMARequestAfterLastTransferCmd, %function
 885              	ADC_DMARequestAfterLastTransferCmd:
 886              	.LFB144:
 887              		.loc 1 1081 0
 888              		.cfi_startproc
 889              		@ args = 0, pretend = 0, frame = 0
 890              		@ frame_needed = 0, uses_anonymous_args = 0
 891              		@ link register save eliminated.
 892              	.LVL76:
 893              		.loc 1 1088 0
 894 0000 8368     		ldr	r3, [r0, #8]
 895              		.loc 1 1085 0
 896 0002 19B9     		cbnz	r1, .L68
 897              		.loc 1 1093 0
 898 0004 23F40073 		bic	r3, r3, #512
 899 0008 8360     		str	r3, [r0, #8]
 900 000a 7047     		bx	lr
 901              	.L68:
 902              		.loc 1 1088 0
 903 000c 43F40073 		orr	r3, r3, #512
 904 0010 8360     		str	r3, [r0, #8]
 905 0012 7047     		bx	lr
 906              		.cfi_endproc
 907              	.LFE144:
 908              		.size	ADC_DMARequestAfterLastTransferCmd, .-ADC_DMARequestAfterLastTransferCmd
 909              		.section	.text.ADC_MultiModeDMARequestAfterLastTransferCmd,"ax",%progbits
 910              		.align	2
 911              		.p2align 4,,15
 912              		.global	ADC_MultiModeDMARequestAfterLastTransferCmd
ARM GAS  /var/folders/m4/4md61f0s1_g0rzfghffqnxvr0000gn/T//ccIWSo2P.s 			page 17


 913              		.thumb
 914              		.thumb_func
 915              		.type	ADC_MultiModeDMARequestAfterLastTransferCmd, %function
 916              	ADC_MultiModeDMARequestAfterLastTransferCmd:
 917              	.LFB145:
 918              		.loc 1 1108 0
 919              		.cfi_startproc
 920              		@ args = 0, pretend = 0, frame = 0
 921              		@ frame_needed = 0, uses_anonymous_args = 0
 922              		@ link register save eliminated.
 923              	.LVL77:
 924              		.loc 1 1114 0
 925 0000 054A     		ldr	r2, .L73
 926 0002 5368     		ldr	r3, [r2, #4]
 927              		.loc 1 1111 0
 928 0004 18B9     		cbnz	r0, .L72
 929              		.loc 1 1119 0
 930 0006 23F40053 		bic	r3, r3, #8192
 931 000a 5360     		str	r3, [r2, #4]
 932 000c 7047     		bx	lr
 933              	.L72:
 934              		.loc 1 1114 0
 935 000e 43F40053 		orr	r3, r3, #8192
 936 0012 5360     		str	r3, [r2, #4]
 937 0014 7047     		bx	lr
 938              	.L74:
 939 0016 00BF     		.align	2
 940              	.L73:
 941 0018 00230140 		.word	1073816320
 942              		.cfi_endproc
 943              	.LFE145:
 944              		.size	ADC_MultiModeDMARequestAfterLastTransferCmd, .-ADC_MultiModeDMARequestAfterLastTransferCmd
 945              		.section	.text.ADC_InjectedChannelConfig,"ax",%progbits
 946              		.align	2
 947              		.p2align 4,,15
 948              		.global	ADC_InjectedChannelConfig
 949              		.thumb
 950              		.thumb_func
 951              		.type	ADC_InjectedChannelConfig, %function
 952              	ADC_InjectedChannelConfig:
 953              	.LFB146:
 954              		.loc 1 1195 0
 955              		.cfi_startproc
 956              		@ args = 0, pretend = 0, frame = 0
 957              		@ frame_needed = 0, uses_anonymous_args = 0
 958              		@ link register save eliminated.
 959              	.LVL78:
 960              		.loc 1 1203 0
 961 0000 0929     		cmp	r1, #9
 962              		.loc 1 1195 0
 963 0002 70B4     		push	{r4, r5, r6}
 964              		.cfi_def_cfa_offset 12
 965              		.cfi_offset 4, -12
 966              		.cfi_offset 5, -8
 967              		.cfi_offset 6, -4
 968              		.loc 1 1203 0
 969 0004 1BD8     		bhi	.L79
ARM GAS  /var/folders/m4/4md61f0s1_g0rzfghffqnxvr0000gn/T//ccIWSo2P.s 			page 18


 970              		.loc 1 1223 0
 971 0006 01EB4106 		add	r6, r1, r1, lsl #1
 972              		.loc 1 1221 0
 973 000a 0569     		ldr	r5, [r0, #16]
 974              	.LVL79:
 975              		.loc 1 1225 0
 976 000c 0724     		movs	r4, #7
 977 000e B440     		lsls	r4, r4, r6
 978              	.LVL80:
 979              		.loc 1 1229 0
 980 0010 B340     		lsls	r3, r3, r6
 981              	.LVL81:
 982              		.loc 1 1225 0
 983 0012 25EA0404 		bic	r4, r5, r4
 984              	.LVL82:
 985              		.loc 1 1229 0
 986 0016 2343     		orrs	r3, r3, r4
 987              	.LVL83:
 988              		.loc 1 1231 0
 989 0018 0361     		str	r3, [r0, #16]
 990              	.L77:
 991              		.loc 1 1235 0
 992 001a 836B     		ldr	r3, [r0, #56]
 993              	.LVL84:
 994              		.loc 1 1239 0
 995 001c 0232     		adds	r2, r2, #2
 996              	.LVL85:
 997 001e C3F30154 		ubfx	r4, r3, #20, #2
 998 0022 121B     		subs	r2, r2, r4
 999 0024 D2B2     		uxtb	r2, r2
 1000 0026 02EB8202 		add	r2, r2, r2, lsl #2
 1001              	.LVL86:
 1002              		.loc 1 1241 0
 1003 002a 1F24     		movs	r4, #31
 1004 002c 9440     		lsls	r4, r4, r2
 1005              	.LVL87:
 1006 002e 23EA0403 		bic	r3, r3, r4
 1007              	.LVL88:
 1008              		.loc 1 1245 0
 1009 0032 01FA02F2 		lsl	r2, r1, r2
 1010              	.LVL89:
 1011 0036 1343     		orrs	r3, r3, r2
 1012              	.LVL90:
 1013              		.loc 1 1247 0
 1014 0038 8363     		str	r3, [r0, #56]
 1015              		.loc 1 1248 0
 1016 003a 70BC     		pop	{r4, r5, r6}
 1017              		.cfi_remember_state
 1018              		.cfi_restore 6
 1019              		.cfi_restore 5
 1020              		.cfi_restore 4
 1021              		.cfi_def_cfa_offset 0
 1022 003c 7047     		bx	lr
 1023              	.LVL91:
 1024              	.L79:
 1025              		.cfi_restore_state
 1026              		.loc 1 1208 0
ARM GAS  /var/folders/m4/4md61f0s1_g0rzfghffqnxvr0000gn/T//ccIWSo2P.s 			page 19


 1027 003e A1F10A06 		sub	r6, r1, #10
 1028 0042 06EB4606 		add	r6, r6, r6, lsl #1
 1029              		.loc 1 1206 0
 1030 0046 C568     		ldr	r5, [r0, #12]
 1031              	.LVL92:
 1032              		.loc 1 1210 0
 1033 0048 0724     		movs	r4, #7
 1034 004a B440     		lsls	r4, r4, r6
 1035              	.LVL93:
 1036              		.loc 1 1214 0
 1037 004c B340     		lsls	r3, r3, r6
 1038              	.LVL94:
 1039              		.loc 1 1210 0
 1040 004e 25EA0404 		bic	r4, r5, r4
 1041              	.LVL95:
 1042              		.loc 1 1214 0
 1043 0052 2343     		orrs	r3, r3, r4
 1044              	.LVL96:
 1045              		.loc 1 1216 0
 1046 0054 C360     		str	r3, [r0, #12]
 1047 0056 E0E7     		b	.L77
 1048              		.cfi_endproc
 1049              	.LFE146:
 1050              		.size	ADC_InjectedChannelConfig, .-ADC_InjectedChannelConfig
 1051              		.section	.text.ADC_InjectedSequencerLengthConfig,"ax",%progbits
 1052              		.align	2
 1053              		.p2align 4,,15
 1054              		.global	ADC_InjectedSequencerLengthConfig
 1055              		.thumb
 1056              		.thumb_func
 1057              		.type	ADC_InjectedSequencerLengthConfig, %function
 1058              	ADC_InjectedSequencerLengthConfig:
 1059              	.LFB147:
 1060              		.loc 1 1258 0
 1061              		.cfi_startproc
 1062              		@ args = 0, pretend = 0, frame = 0
 1063              		@ frame_needed = 0, uses_anonymous_args = 0
 1064              		@ link register save eliminated.
 1065              	.LVL97:
 1066              		.loc 1 1266 0
 1067 0000 836B     		ldr	r3, [r0, #56]
 1068              	.LVL98:
 1069              		.loc 1 1273 0
 1070 0002 0139     		subs	r1, r1, #1
 1071              	.LVL99:
 1072              		.loc 1 1269 0
 1073 0004 23F44013 		bic	r3, r3, #3145728
 1074              	.LVL100:
 1075              		.loc 1 1273 0
 1076 0008 43EA0151 		orr	r1, r3, r1, lsl #20
 1077              	.LVL101:
 1078              		.loc 1 1276 0
 1079 000c 8163     		str	r1, [r0, #56]
 1080 000e 7047     		bx	lr
 1081              		.cfi_endproc
 1082              	.LFE147:
 1083              		.size	ADC_InjectedSequencerLengthConfig, .-ADC_InjectedSequencerLengthConfig
ARM GAS  /var/folders/m4/4md61f0s1_g0rzfghffqnxvr0000gn/T//ccIWSo2P.s 			page 20


 1084              		.section	.text.ADC_SetInjectedOffset,"ax",%progbits
 1085              		.align	2
 1086              		.p2align 4,,15
 1087              		.global	ADC_SetInjectedOffset
 1088              		.thumb
 1089              		.thumb_func
 1090              		.type	ADC_SetInjectedOffset, %function
 1091              	ADC_SetInjectedOffset:
 1092              	.LFB148:
 1093              		.loc 1 1293 0
 1094              		.cfi_startproc
 1095              		@ args = 0, pretend = 0, frame = 8
 1096              		@ frame_needed = 0, uses_anonymous_args = 0
 1097              		@ link register save eliminated.
 1098              	.LVL102:
 1099 0000 82B0     		sub	sp, sp, #8
 1100              		.cfi_def_cfa_offset 8
 1101              		.loc 1 1294 0
 1102 0002 0023     		movs	r3, #0
 1103 0004 0193     		str	r3, [sp, #4]
 1104              		.loc 1 1300 0
 1105 0006 0190     		str	r0, [sp, #4]
 1106              		.loc 1 1301 0
 1107 0008 019B     		ldr	r3, [sp, #4]
 1108 000a 1944     		add	r1, r1, r3
 1109              	.LVL103:
 1110 000c 0191     		str	r1, [sp, #4]
 1111              		.loc 1 1304 0
 1112 000e 019B     		ldr	r3, [sp, #4]
 1113 0010 1A60     		str	r2, [r3]
 1114              		.loc 1 1305 0
 1115 0012 02B0     		add	sp, sp, #8
 1116              		.cfi_def_cfa_offset 0
 1117              		@ sp needed
 1118 0014 7047     		bx	lr
 1119              		.cfi_endproc
 1120              	.LFE148:
 1121              		.size	ADC_SetInjectedOffset, .-ADC_SetInjectedOffset
 1122 0016 00BF     		.section	.text.ADC_ExternalTrigInjectedConvConfig,"ax",%progbits
 1123              		.align	2
 1124              		.p2align 4,,15
 1125              		.global	ADC_ExternalTrigInjectedConvConfig
 1126              		.thumb
 1127              		.thumb_func
 1128              		.type	ADC_ExternalTrigInjectedConvConfig, %function
 1129              	ADC_ExternalTrigInjectedConvConfig:
 1130              	.LFB149:
 1131              		.loc 1 1331 0
 1132              		.cfi_startproc
 1133              		@ args = 0, pretend = 0, frame = 0
 1134              		@ frame_needed = 0, uses_anonymous_args = 0
 1135              		@ link register save eliminated.
 1136              	.LVL104:
 1137              		.loc 1 1338 0
 1138 0000 8368     		ldr	r3, [r0, #8]
 1139              	.LVL105:
 1140              		.loc 1 1341 0
ARM GAS  /var/folders/m4/4md61f0s1_g0rzfghffqnxvr0000gn/T//ccIWSo2P.s 			page 21


 1141 0002 23F47023 		bic	r3, r3, #983040
 1142              	.LVL106:
 1143              		.loc 1 1344 0
 1144 0006 1943     		orrs	r1, r1, r3
 1145              	.LVL107:
 1146              		.loc 1 1347 0
 1147 0008 8160     		str	r1, [r0, #8]
 1148 000a 7047     		bx	lr
 1149              		.cfi_endproc
 1150              	.LFE149:
 1151              		.size	ADC_ExternalTrigInjectedConvConfig, .-ADC_ExternalTrigInjectedConvConfig
 1152              		.section	.text.ADC_ExternalTrigInjectedConvEdgeConfig,"ax",%progbits
 1153              		.align	2
 1154              		.p2align 4,,15
 1155              		.global	ADC_ExternalTrigInjectedConvEdgeConfig
 1156              		.thumb
 1157              		.thumb_func
 1158              		.type	ADC_ExternalTrigInjectedConvEdgeConfig, %function
 1159              	ADC_ExternalTrigInjectedConvEdgeConfig:
 1160              	.LFB150:
 1161              		.loc 1 1365 0
 1162              		.cfi_startproc
 1163              		@ args = 0, pretend = 0, frame = 0
 1164              		@ frame_needed = 0, uses_anonymous_args = 0
 1165              		@ link register save eliminated.
 1166              	.LVL108:
 1167              		.loc 1 1371 0
 1168 0000 8368     		ldr	r3, [r0, #8]
 1169              	.LVL109:
 1170              		.loc 1 1373 0
 1171 0002 23F44013 		bic	r3, r3, #3145728
 1172              	.LVL110:
 1173              		.loc 1 1375 0
 1174 0006 1943     		orrs	r1, r1, r3
 1175              	.LVL111:
 1176              		.loc 1 1377 0
 1177 0008 8160     		str	r1, [r0, #8]
 1178 000a 7047     		bx	lr
 1179              		.cfi_endproc
 1180              	.LFE150:
 1181              		.size	ADC_ExternalTrigInjectedConvEdgeConfig, .-ADC_ExternalTrigInjectedConvEdgeConfig
 1182              		.section	.text.ADC_SoftwareStartInjectedConv,"ax",%progbits
 1183              		.align	2
 1184              		.p2align 4,,15
 1185              		.global	ADC_SoftwareStartInjectedConv
 1186              		.thumb
 1187              		.thumb_func
 1188              		.type	ADC_SoftwareStartInjectedConv, %function
 1189              	ADC_SoftwareStartInjectedConv:
 1190              	.LFB151:
 1191              		.loc 1 1386 0
 1192              		.cfi_startproc
 1193              		@ args = 0, pretend = 0, frame = 0
 1194              		@ frame_needed = 0, uses_anonymous_args = 0
 1195              		@ link register save eliminated.
 1196              	.LVL112:
 1197              		.loc 1 1390 0
ARM GAS  /var/folders/m4/4md61f0s1_g0rzfghffqnxvr0000gn/T//ccIWSo2P.s 			page 22


 1198 0000 8368     		ldr	r3, [r0, #8]
 1199 0002 43F48003 		orr	r3, r3, #4194304
 1200 0006 8360     		str	r3, [r0, #8]
 1201 0008 7047     		bx	lr
 1202              		.cfi_endproc
 1203              	.LFE151:
 1204              		.size	ADC_SoftwareStartInjectedConv, .-ADC_SoftwareStartInjectedConv
 1205 000a 00BF     		.section	.text.ADC_GetSoftwareStartInjectedConvCmdStatus,"ax",%progbits
 1206              		.align	2
 1207              		.p2align 4,,15
 1208              		.global	ADC_GetSoftwareStartInjectedConvCmdStatus
 1209              		.thumb
 1210              		.thumb_func
 1211              		.type	ADC_GetSoftwareStartInjectedConvCmdStatus, %function
 1212              	ADC_GetSoftwareStartInjectedConvCmdStatus:
 1213              	.LFB152:
 1214              		.loc 1 1399 0
 1215              		.cfi_startproc
 1216              		@ args = 0, pretend = 0, frame = 0
 1217              		@ frame_needed = 0, uses_anonymous_args = 0
 1218              		@ link register save eliminated.
 1219              	.LVL113:
 1220              		.loc 1 1405 0
 1221 0000 8068     		ldr	r0, [r0, #8]
 1222              	.LVL114:
 1223              		.loc 1 1417 0
 1224 0002 C0F38050 		ubfx	r0, r0, #22, #1
 1225              	.LVL115:
 1226 0006 7047     		bx	lr
 1227              		.cfi_endproc
 1228              	.LFE152:
 1229              		.size	ADC_GetSoftwareStartInjectedConvCmdStatus, .-ADC_GetSoftwareStartInjectedConvCmdStatus
 1230              		.section	.text.ADC_AutoInjectedConvCmd,"ax",%progbits
 1231              		.align	2
 1232              		.p2align 4,,15
 1233              		.global	ADC_AutoInjectedConvCmd
 1234              		.thumb
 1235              		.thumb_func
 1236              		.type	ADC_AutoInjectedConvCmd, %function
 1237              	ADC_AutoInjectedConvCmd:
 1238              	.LFB153:
 1239              		.loc 1 1428 0
 1240              		.cfi_startproc
 1241              		@ args = 0, pretend = 0, frame = 0
 1242              		@ frame_needed = 0, uses_anonymous_args = 0
 1243              		@ link register save eliminated.
 1244              	.LVL116:
 1245              		.loc 1 1435 0
 1246 0000 4368     		ldr	r3, [r0, #4]
 1247              		.loc 1 1432 0
 1248 0002 19B9     		cbnz	r1, .L90
 1249              		.loc 1 1440 0
 1250 0004 23F48063 		bic	r3, r3, #1024
 1251 0008 4360     		str	r3, [r0, #4]
 1252 000a 7047     		bx	lr
 1253              	.L90:
 1254              		.loc 1 1435 0
ARM GAS  /var/folders/m4/4md61f0s1_g0rzfghffqnxvr0000gn/T//ccIWSo2P.s 			page 23


 1255 000c 43F48063 		orr	r3, r3, #1024
 1256 0010 4360     		str	r3, [r0, #4]
 1257 0012 7047     		bx	lr
 1258              		.cfi_endproc
 1259              	.LFE153:
 1260              		.size	ADC_AutoInjectedConvCmd, .-ADC_AutoInjectedConvCmd
 1261              		.section	.text.ADC_InjectedDiscModeCmd,"ax",%progbits
 1262              		.align	2
 1263              		.p2align 4,,15
 1264              		.global	ADC_InjectedDiscModeCmd
 1265              		.thumb
 1266              		.thumb_func
 1267              		.type	ADC_InjectedDiscModeCmd, %function
 1268              	ADC_InjectedDiscModeCmd:
 1269              	.LFB154:
 1270              		.loc 1 1454 0
 1271              		.cfi_startproc
 1272              		@ args = 0, pretend = 0, frame = 0
 1273              		@ frame_needed = 0, uses_anonymous_args = 0
 1274              		@ link register save eliminated.
 1275              	.LVL117:
 1276              		.loc 1 1461 0
 1277 0000 4368     		ldr	r3, [r0, #4]
 1278              		.loc 1 1458 0
 1279 0002 19B9     		cbnz	r1, .L94
 1280              		.loc 1 1466 0
 1281 0004 23F48053 		bic	r3, r3, #4096
 1282 0008 4360     		str	r3, [r0, #4]
 1283 000a 7047     		bx	lr
 1284              	.L94:
 1285              		.loc 1 1461 0
 1286 000c 43F48053 		orr	r3, r3, #4096
 1287 0010 4360     		str	r3, [r0, #4]
 1288 0012 7047     		bx	lr
 1289              		.cfi_endproc
 1290              	.LFE154:
 1291              		.size	ADC_InjectedDiscModeCmd, .-ADC_InjectedDiscModeCmd
 1292              		.section	.text.ADC_GetInjectedConversionValue,"ax",%progbits
 1293              		.align	2
 1294              		.p2align 4,,15
 1295              		.global	ADC_GetInjectedConversionValue
 1296              		.thumb
 1297              		.thumb_func
 1298              		.type	ADC_GetInjectedConversionValue, %function
 1299              	ADC_GetInjectedConversionValue:
 1300              	.LFB155:
 1301              		.loc 1 1482 0
 1302              		.cfi_startproc
 1303              		@ args = 0, pretend = 0, frame = 8
 1304              		@ frame_needed = 0, uses_anonymous_args = 0
 1305              		@ link register save eliminated.
 1306              	.LVL118:
 1307 0000 82B0     		sub	sp, sp, #8
 1308              		.cfi_def_cfa_offset 8
 1309              		.loc 1 1483 0
 1310 0002 0023     		movs	r3, #0
 1311 0004 0193     		str	r3, [sp, #4]
ARM GAS  /var/folders/m4/4md61f0s1_g0rzfghffqnxvr0000gn/T//ccIWSo2P.s 			page 24


 1312              		.loc 1 1489 0
 1313 0006 0190     		str	r0, [sp, #4]
 1314              		.loc 1 1490 0
 1315 0008 019B     		ldr	r3, [sp, #4]
 1316 000a 2833     		adds	r3, r3, #40
 1317 000c 1944     		add	r1, r1, r3
 1318              	.LVL119:
 1319 000e 0191     		str	r1, [sp, #4]
 1320              		.loc 1 1493 0
 1321 0010 019B     		ldr	r3, [sp, #4]
 1322 0012 1868     		ldr	r0, [r3]
 1323              	.LVL120:
 1324              		.loc 1 1494 0
 1325 0014 80B2     		uxth	r0, r0
 1326 0016 02B0     		add	sp, sp, #8
 1327              		.cfi_def_cfa_offset 0
 1328              		@ sp needed
 1329 0018 7047     		bx	lr
 1330              		.cfi_endproc
 1331              	.LFE155:
 1332              		.size	ADC_GetInjectedConversionValue, .-ADC_GetInjectedConversionValue
 1333 001a 00BF     		.section	.text.ADC_ITConfig,"ax",%progbits
 1334              		.align	2
 1335              		.p2align 4,,15
 1336              		.global	ADC_ITConfig
 1337              		.thumb
 1338              		.thumb_func
 1339              		.type	ADC_ITConfig, %function
 1340              	ADC_ITConfig:
 1341              	.LFB156:
 1342              		.loc 1 1589 0
 1343              		.cfi_startproc
 1344              		@ args = 0, pretend = 0, frame = 0
 1345              		@ frame_needed = 0, uses_anonymous_args = 0
 1346              		@ link register save eliminated.
 1347              	.LVL121:
 1348              		.loc 1 1597 0
 1349 0000 C9B2     		uxtb	r1, r1
 1350              	.LVL122:
 1351              		.loc 1 1598 0
 1352 0002 0123     		movs	r3, #1
 1353 0004 8B40     		lsls	r3, r3, r1
 1354              	.LVL123:
 1355              		.loc 1 1603 0
 1356 0006 4168     		ldr	r1, [r0, #4]
 1357              		.loc 1 1600 0
 1358 0008 1AB9     		cbnz	r2, .L100
 1359              		.loc 1 1608 0
 1360 000a 21EA0303 		bic	r3, r1, r3
 1361              	.LVL124:
 1362 000e 4360     		str	r3, [r0, #4]
 1363 0010 7047     		bx	lr
 1364              	.LVL125:
 1365              	.L100:
 1366              		.loc 1 1603 0
 1367 0012 0B43     		orrs	r3, r3, r1
 1368              	.LVL126:
ARM GAS  /var/folders/m4/4md61f0s1_g0rzfghffqnxvr0000gn/T//ccIWSo2P.s 			page 25


 1369 0014 4360     		str	r3, [r0, #4]
 1370 0016 7047     		bx	lr
 1371              		.cfi_endproc
 1372              	.LFE156:
 1373              		.size	ADC_ITConfig, .-ADC_ITConfig
 1374              		.section	.text.ADC_GetFlagStatus,"ax",%progbits
 1375              		.align	2
 1376              		.p2align 4,,15
 1377              		.global	ADC_GetFlagStatus
 1378              		.thumb
 1379              		.thumb_func
 1380              		.type	ADC_GetFlagStatus, %function
 1381              	ADC_GetFlagStatus:
 1382              	.LFB157:
 1383              		.loc 1 1626 0
 1384              		.cfi_startproc
 1385              		@ args = 0, pretend = 0, frame = 0
 1386              		@ frame_needed = 0, uses_anonymous_args = 0
 1387              		@ link register save eliminated.
 1388              	.LVL127:
 1389              		.loc 1 1633 0
 1390 0000 0368     		ldr	r3, [r0]
 1391              	.LVL128:
 1392              		.loc 1 1644 0
 1393 0002 1942     		tst	r1, r3
 1394              		.loc 1 1645 0
 1395 0004 14BF     		ite	ne
 1396 0006 0120     		movne	r0, #1
 1397              	.LVL129:
 1398 0008 0020     		moveq	r0, #0
 1399 000a 7047     		bx	lr
 1400              		.cfi_endproc
 1401              	.LFE157:
 1402              		.size	ADC_GetFlagStatus, .-ADC_GetFlagStatus
 1403              		.section	.text.ADC_ClearFlag,"ax",%progbits
 1404              		.align	2
 1405              		.p2align 4,,15
 1406              		.global	ADC_ClearFlag
 1407              		.thumb
 1408              		.thumb_func
 1409              		.type	ADC_ClearFlag, %function
 1410              	ADC_ClearFlag:
 1411              	.LFB158:
 1412              		.loc 1 1661 0
 1413              		.cfi_startproc
 1414              		@ args = 0, pretend = 0, frame = 0
 1415              		@ frame_needed = 0, uses_anonymous_args = 0
 1416              		@ link register save eliminated.
 1417              	.LVL130:
 1418              		.loc 1 1667 0
 1419 0000 C943     		mvns	r1, r1
 1420              	.LVL131:
 1421 0002 0160     		str	r1, [r0]
 1422 0004 7047     		bx	lr
 1423              		.cfi_endproc
 1424              	.LFE158:
 1425              		.size	ADC_ClearFlag, .-ADC_ClearFlag
ARM GAS  /var/folders/m4/4md61f0s1_g0rzfghffqnxvr0000gn/T//ccIWSo2P.s 			page 26


 1426 0006 00BF     		.section	.text.ADC_GetITStatus,"ax",%progbits
 1427              		.align	2
 1428              		.p2align 4,,15
 1429              		.global	ADC_GetITStatus
 1430              		.thumb
 1431              		.thumb_func
 1432              		.type	ADC_GetITStatus, %function
 1433              	ADC_GetITStatus:
 1434              	.LFB159:
 1435              		.loc 1 1682 0
 1436              		.cfi_startproc
 1437              		@ args = 0, pretend = 0, frame = 0
 1438              		@ frame_needed = 0, uses_anonymous_args = 0
 1439              		@ link register save eliminated.
 1440              	.LVL132:
 1441              		.loc 1 1694 0
 1442 0000 4268     		ldr	r2, [r0, #4]
 1443              	.LVL133:
 1444              		.loc 1 1697 0
 1445 0002 0068     		ldr	r0, [r0]
 1446              	.LVL134:
 1447 0004 10EA1120 		ands	r0, r0, r1, lsr #8
 1448 0008 07D0     		beq	.L104
 1449              		.loc 1 1700 0 discriminator 1
 1450 000a 0123     		movs	r3, #1
 1451 000c C9B2     		uxtb	r1, r1
 1452              	.LVL135:
 1453 000e 03FA01F1 		lsl	r1, r3, r1
 1454              	.LVL136:
 1455 0012 1142     		tst	r1, r2
 1456 0014 14BF     		ite	ne
 1457 0016 1846     		movne	r0, r3
 1458 0018 0020     		moveq	r0, #0
 1459              	.L104:
 1460              	.LVL137:
 1461              		.loc 1 1709 0
 1462 001a 7047     		bx	lr
 1463              		.cfi_endproc
 1464              	.LFE159:
 1465              		.size	ADC_GetITStatus, .-ADC_GetITStatus
 1466              		.section	.text.ADC_ClearITPendingBit,"ax",%progbits
 1467              		.align	2
 1468              		.p2align 4,,15
 1469              		.global	ADC_ClearITPendingBit
 1470              		.thumb
 1471              		.thumb_func
 1472              		.type	ADC_ClearITPendingBit, %function
 1473              	ADC_ClearITPendingBit:
 1474              	.LFB160:
 1475              		.loc 1 1723 0
 1476              		.cfi_startproc
 1477              		@ args = 0, pretend = 0, frame = 0
 1478              		@ frame_needed = 0, uses_anonymous_args = 0
 1479              		@ link register save eliminated.
 1480              	.LVL138:
 1481              		.loc 1 1731 0
 1482 0000 6FEA1121 		mvn	r1, r1, lsr #8
ARM GAS  /var/folders/m4/4md61f0s1_g0rzfghffqnxvr0000gn/T//ccIWSo2P.s 			page 27


 1483              	.LVL139:
 1484 0004 0160     		str	r1, [r0]
 1485 0006 7047     		bx	lr
 1486              		.cfi_endproc
 1487              	.LFE160:
 1488              		.size	ADC_ClearITPendingBit, .-ADC_ClearITPendingBit
 1489              		.text
 1490              	.Letext0:
 1491              		.file 2 "/opt/homebrew-cask/Caskroom/gcc-arm-embedded/5_2-2015q4,20151219/gcc-arm-none-eabi-5_2-20
 1492              		.file 3 "/opt/homebrew-cask/Caskroom/gcc-arm-embedded/5_2-2015q4,20151219/gcc-arm-none-eabi-5_2-20
 1493              		.file 4 "ChibiOS_16.1.4/os/ext/CMSIS/ST/STM32F4xx/stm32f405xx.h"
 1494              		.file 5 "ChibiOS_16.1.4/os/ext/CMSIS/ST/STM32F4xx/stm32f4xx.h"
 1495              		.file 6 "ChibiOS_16.1.4/ext/stdperiph_stm32f4/inc/stm32f4xx_adc.h"
 1496              		.file 7 "ChibiOS_16.1.4/os/ext/CMSIS/include/core_cm4.h"
 1497              		.file 8 "ChibiOS_16.1.4/ext/stdperiph_stm32f4/inc/stm32f4xx_rcc.h"