ARM GAS  /var/folders/m4/4md61f0s1_g0rzfghffqnxvr0000gn/T//ccZNYUOX.s 			page 1


   1              		.syntax unified
   2              		.cpu cortex-m4
   3              		.eabi_attribute 27, 1
   4              		.eabi_attribute 28, 1
   5              		.fpu fpv4-sp-d16
   6              		.eabi_attribute 20, 1
   7              		.eabi_attribute 21, 1
   8              		.eabi_attribute 23, 3
   9              		.eabi_attribute 24, 1
  10              		.eabi_attribute 25, 1
  11              		.eabi_attribute 26, 1
  12              		.eabi_attribute 30, 2
  13              		.eabi_attribute 34, 1
  14              		.eabi_attribute 18, 4
  15              		.thumb
  16              		.syntax unified
  17              		.file	"stm32f4xx_flash.c"
  18              		.text
  19              	.Ltext0:
  20              		.cfi_sections	.debug_frame
  21              		.section	.text.FLASH_SetLatency,"ax",%progbits
  22              		.align	2
  23              		.p2align 4,,15
  24              		.global	FLASH_SetLatency
  25              		.thumb
  26              		.thumb_func
  27              		.type	FLASH_SetLatency, %function
  28              	FLASH_SetLatency:
  29              	.LFB123:
  30              		.file 1 "ChibiOS_16.1.4/ext/stdperiph_stm32f4/src/stm32f4xx_flash.c"
  31              		.loc 1 296 0
  32              		.cfi_startproc
  33              		@ args = 0, pretend = 0, frame = 0
  34              		@ frame_needed = 0, uses_anonymous_args = 0
  35              		@ link register save eliminated.
  36              	.LVL0:
  37              		.loc 1 301 0
  38 0000 014B     		ldr	r3, .L2
  39 0002 C0B2     		uxtb	r0, r0
  40              	.LVL1:
  41 0004 1870     		strb	r0, [r3]
  42 0006 7047     		bx	lr
  43              	.L3:
  44              		.align	2
  45              	.L2:
  46 0008 003C0240 		.word	1073888256
  47              		.cfi_endproc
  48              	.LFE123:
  49              		.size	FLASH_SetLatency, .-FLASH_SetLatency
  50              		.section	.text.FLASH_PrefetchBufferCmd,"ax",%progbits
  51              		.align	2
  52              		.p2align 4,,15
  53              		.global	FLASH_PrefetchBufferCmd
  54              		.thumb
  55              		.thumb_func
  56              		.type	FLASH_PrefetchBufferCmd, %function
  57              	FLASH_PrefetchBufferCmd:
ARM GAS  /var/folders/m4/4md61f0s1_g0rzfghffqnxvr0000gn/T//ccZNYUOX.s 			page 2


  58              	.LFB124:
  59              		.loc 1 311 0
  60              		.cfi_startproc
  61              		@ args = 0, pretend = 0, frame = 0
  62              		@ frame_needed = 0, uses_anonymous_args = 0
  63              		@ link register save eliminated.
  64              	.LVL2:
  65              		.loc 1 318 0
  66 0000 054A     		ldr	r2, .L9
  67 0002 1368     		ldr	r3, [r2]
  68              		.loc 1 316 0
  69 0004 18B9     		cbnz	r0, .L8
  70              		.loc 1 322 0
  71 0006 23F48073 		bic	r3, r3, #256
  72 000a 1360     		str	r3, [r2]
  73 000c 7047     		bx	lr
  74              	.L8:
  75              		.loc 1 318 0
  76 000e 43F48073 		orr	r3, r3, #256
  77 0012 1360     		str	r3, [r2]
  78 0014 7047     		bx	lr
  79              	.L10:
  80 0016 00BF     		.align	2
  81              	.L9:
  82 0018 003C0240 		.word	1073888256
  83              		.cfi_endproc
  84              	.LFE124:
  85              		.size	FLASH_PrefetchBufferCmd, .-FLASH_PrefetchBufferCmd
  86              		.section	.text.FLASH_InstructionCacheCmd,"ax",%progbits
  87              		.align	2
  88              		.p2align 4,,15
  89              		.global	FLASH_InstructionCacheCmd
  90              		.thumb
  91              		.thumb_func
  92              		.type	FLASH_InstructionCacheCmd, %function
  93              	FLASH_InstructionCacheCmd:
  94              	.LFB125:
  95              		.loc 1 333 0
  96              		.cfi_startproc
  97              		@ args = 0, pretend = 0, frame = 0
  98              		@ frame_needed = 0, uses_anonymous_args = 0
  99              		@ link register save eliminated.
 100              	.LVL3:
 101              		.loc 1 339 0
 102 0000 054A     		ldr	r2, .L15
 103 0002 1368     		ldr	r3, [r2]
 104              		.loc 1 337 0
 105 0004 18B9     		cbnz	r0, .L14
 106              		.loc 1 343 0
 107 0006 23F40073 		bic	r3, r3, #512
 108 000a 1360     		str	r3, [r2]
 109 000c 7047     		bx	lr
 110              	.L14:
 111              		.loc 1 339 0
 112 000e 43F40073 		orr	r3, r3, #512
 113 0012 1360     		str	r3, [r2]
 114 0014 7047     		bx	lr
ARM GAS  /var/folders/m4/4md61f0s1_g0rzfghffqnxvr0000gn/T//ccZNYUOX.s 			page 3


 115              	.L16:
 116 0016 00BF     		.align	2
 117              	.L15:
 118 0018 003C0240 		.word	1073888256
 119              		.cfi_endproc
 120              	.LFE125:
 121              		.size	FLASH_InstructionCacheCmd, .-FLASH_InstructionCacheCmd
 122              		.section	.text.FLASH_DataCacheCmd,"ax",%progbits
 123              		.align	2
 124              		.p2align 4,,15
 125              		.global	FLASH_DataCacheCmd
 126              		.thumb
 127              		.thumb_func
 128              		.type	FLASH_DataCacheCmd, %function
 129              	FLASH_DataCacheCmd:
 130              	.LFB126:
 131              		.loc 1 354 0
 132              		.cfi_startproc
 133              		@ args = 0, pretend = 0, frame = 0
 134              		@ frame_needed = 0, uses_anonymous_args = 0
 135              		@ link register save eliminated.
 136              	.LVL4:
 137              		.loc 1 360 0
 138 0000 054A     		ldr	r2, .L21
 139 0002 1368     		ldr	r3, [r2]
 140              		.loc 1 358 0
 141 0004 18B9     		cbnz	r0, .L20
 142              		.loc 1 364 0
 143 0006 23F48063 		bic	r3, r3, #1024
 144 000a 1360     		str	r3, [r2]
 145 000c 7047     		bx	lr
 146              	.L20:
 147              		.loc 1 360 0
 148 000e 43F48063 		orr	r3, r3, #1024
 149 0012 1360     		str	r3, [r2]
 150 0014 7047     		bx	lr
 151              	.L22:
 152 0016 00BF     		.align	2
 153              	.L21:
 154 0018 003C0240 		.word	1073888256
 155              		.cfi_endproc
 156              	.LFE126:
 157              		.size	FLASH_DataCacheCmd, .-FLASH_DataCacheCmd
 158              		.section	.text.FLASH_InstructionCacheReset,"ax",%progbits
 159              		.align	2
 160              		.p2align 4,,15
 161              		.global	FLASH_InstructionCacheReset
 162              		.thumb
 163              		.thumb_func
 164              		.type	FLASH_InstructionCacheReset, %function
 165              	FLASH_InstructionCacheReset:
 166              	.LFB127:
 167              		.loc 1 375 0
 168              		.cfi_startproc
 169              		@ args = 0, pretend = 0, frame = 0
 170              		@ frame_needed = 0, uses_anonymous_args = 0
 171              		@ link register save eliminated.
ARM GAS  /var/folders/m4/4md61f0s1_g0rzfghffqnxvr0000gn/T//ccZNYUOX.s 			page 4


 172              		.loc 1 376 0
 173 0000 024A     		ldr	r2, .L24
 174 0002 1368     		ldr	r3, [r2]
 175 0004 43F40063 		orr	r3, r3, #2048
 176 0008 1360     		str	r3, [r2]
 177 000a 7047     		bx	lr
 178              	.L25:
 179              		.align	2
 180              	.L24:
 181 000c 003C0240 		.word	1073888256
 182              		.cfi_endproc
 183              	.LFE127:
 184              		.size	FLASH_InstructionCacheReset, .-FLASH_InstructionCacheReset
 185              		.section	.text.FLASH_DataCacheReset,"ax",%progbits
 186              		.align	2
 187              		.p2align 4,,15
 188              		.global	FLASH_DataCacheReset
 189              		.thumb
 190              		.thumb_func
 191              		.type	FLASH_DataCacheReset, %function
 192              	FLASH_DataCacheReset:
 193              	.LFB128:
 194              		.loc 1 386 0
 195              		.cfi_startproc
 196              		@ args = 0, pretend = 0, frame = 0
 197              		@ frame_needed = 0, uses_anonymous_args = 0
 198              		@ link register save eliminated.
 199              		.loc 1 387 0
 200 0000 024A     		ldr	r2, .L27
 201 0002 1368     		ldr	r3, [r2]
 202 0004 43F48053 		orr	r3, r3, #4096
 203 0008 1360     		str	r3, [r2]
 204 000a 7047     		bx	lr
 205              	.L28:
 206              		.align	2
 207              	.L27:
 208 000c 003C0240 		.word	1073888256
 209              		.cfi_endproc
 210              	.LFE128:
 211              		.size	FLASH_DataCacheReset, .-FLASH_DataCacheReset
 212              		.section	.text.FLASH_Unlock,"ax",%progbits
 213              		.align	2
 214              		.p2align 4,,15
 215              		.global	FLASH_Unlock
 216              		.thumb
 217              		.thumb_func
 218              		.type	FLASH_Unlock, %function
 219              	FLASH_Unlock:
 220              	.LFB129:
 221              		.loc 1 433 0
 222              		.cfi_startproc
 223              		@ args = 0, pretend = 0, frame = 0
 224              		@ frame_needed = 0, uses_anonymous_args = 0
 225              		@ link register save eliminated.
 226              		.loc 1 434 0
 227 0000 044B     		ldr	r3, .L31
 228 0002 1A69     		ldr	r2, [r3, #16]
ARM GAS  /var/folders/m4/4md61f0s1_g0rzfghffqnxvr0000gn/T//ccZNYUOX.s 			page 5


 229 0004 002A     		cmp	r2, #0
 230 0006 03DA     		bge	.L29
 231              		.loc 1 437 0
 232 0008 0349     		ldr	r1, .L31+4
 233              		.loc 1 438 0
 234 000a 044A     		ldr	r2, .L31+8
 235              		.loc 1 437 0
 236 000c 5960     		str	r1, [r3, #4]
 237              		.loc 1 438 0
 238 000e 5A60     		str	r2, [r3, #4]
 239              	.L29:
 240 0010 7047     		bx	lr
 241              	.L32:
 242 0012 00BF     		.align	2
 243              	.L31:
 244 0014 003C0240 		.word	1073888256
 245 0018 23016745 		.word	1164378403
 246 001c AB89EFCD 		.word	-839939669
 247              		.cfi_endproc
 248              	.LFE129:
 249              		.size	FLASH_Unlock, .-FLASH_Unlock
 250              		.section	.text.FLASH_Lock,"ax",%progbits
 251              		.align	2
 252              		.p2align 4,,15
 253              		.global	FLASH_Lock
 254              		.thumb
 255              		.thumb_func
 256              		.type	FLASH_Lock, %function
 257              	FLASH_Lock:
 258              	.LFB130:
 259              		.loc 1 448 0
 260              		.cfi_startproc
 261              		@ args = 0, pretend = 0, frame = 0
 262              		@ frame_needed = 0, uses_anonymous_args = 0
 263              		@ link register save eliminated.
 264              		.loc 1 450 0
 265 0000 024A     		ldr	r2, .L34
 266 0002 1369     		ldr	r3, [r2, #16]
 267 0004 43F00043 		orr	r3, r3, #-2147483648
 268 0008 1361     		str	r3, [r2, #16]
 269 000a 7047     		bx	lr
 270              	.L35:
 271              		.align	2
 272              	.L34:
 273 000c 003C0240 		.word	1073888256
 274              		.cfi_endproc
 275              	.LFE130:
 276              		.size	FLASH_Lock, .-FLASH_Lock
 277              		.section	.text.FLASH_OB_Unlock,"ax",%progbits
 278              		.align	2
 279              		.p2align 4,,15
 280              		.global	FLASH_OB_Unlock
 281              		.thumb
 282              		.thumb_func
 283              		.type	FLASH_OB_Unlock, %function
 284              	FLASH_OB_Unlock:
 285              	.LFB139:
ARM GAS  /var/folders/m4/4md61f0s1_g0rzfghffqnxvr0000gn/T//ccZNYUOX.s 			page 6


 286              		.loc 1 990 0
 287              		.cfi_startproc
 288              		@ args = 0, pretend = 0, frame = 0
 289              		@ frame_needed = 0, uses_anonymous_args = 0
 290              		@ link register save eliminated.
 291              		.loc 1 991 0
 292 0000 044B     		ldr	r3, .L41
 293 0002 5A69     		ldr	r2, [r3, #20]
 294 0004 D207     		lsls	r2, r2, #31
 295 0006 03D5     		bpl	.L36
 296              		.loc 1 994 0
 297 0008 0349     		ldr	r1, .L41+4
 298              		.loc 1 995 0
 299 000a 044A     		ldr	r2, .L41+8
 300              		.loc 1 994 0
 301 000c 9960     		str	r1, [r3, #8]
 302              		.loc 1 995 0
 303 000e 9A60     		str	r2, [r3, #8]
 304              	.L36:
 305 0010 7047     		bx	lr
 306              	.L42:
 307 0012 00BF     		.align	2
 308              	.L41:
 309 0014 003C0240 		.word	1073888256
 310 0018 3B2A1908 		.word	135866939
 311 001c 7F6E5D4C 		.word	1281191551
 312              		.cfi_endproc
 313              	.LFE139:
 314              		.size	FLASH_OB_Unlock, .-FLASH_OB_Unlock
 315              		.section	.text.FLASH_OB_Lock,"ax",%progbits
 316              		.align	2
 317              		.p2align 4,,15
 318              		.global	FLASH_OB_Lock
 319              		.thumb
 320              		.thumb_func
 321              		.type	FLASH_OB_Lock, %function
 322              	FLASH_OB_Lock:
 323              	.LFB140:
 324              		.loc 1 1005 0
 325              		.cfi_startproc
 326              		@ args = 0, pretend = 0, frame = 0
 327              		@ frame_needed = 0, uses_anonymous_args = 0
 328              		@ link register save eliminated.
 329              		.loc 1 1007 0
 330 0000 024A     		ldr	r2, .L44
 331 0002 5369     		ldr	r3, [r2, #20]
 332 0004 43F00103 		orr	r3, r3, #1
 333 0008 5361     		str	r3, [r2, #20]
 334 000a 7047     		bx	lr
 335              	.L45:
 336              		.align	2
 337              	.L44:
 338 000c 003C0240 		.word	1073888256
 339              		.cfi_endproc
 340              	.LFE140:
 341              		.size	FLASH_OB_Lock, .-FLASH_OB_Lock
 342              		.section	.text.FLASH_OB_PCROPSelectionConfig,"ax",%progbits
ARM GAS  /var/folders/m4/4md61f0s1_g0rzfghffqnxvr0000gn/T//ccZNYUOX.s 			page 7


 343              		.align	2
 344              		.p2align 4,,15
 345              		.global	FLASH_OB_PCROPSelectionConfig
 346              		.thumb
 347              		.thumb_func
 348              		.type	FLASH_OB_PCROPSelectionConfig, %function
 349              	FLASH_OB_PCROPSelectionConfig:
 350              	.LFB143:
 351              		.loc 1 1120 0
 352              		.cfi_startproc
 353              		@ args = 0, pretend = 0, frame = 0
 354              		@ frame_needed = 0, uses_anonymous_args = 0
 355              		@ link register save eliminated.
 356              	.LVL5:
 357              		.loc 1 1127 0
 358 0000 034A     		ldr	r2, .L47
 359 0002 1378     		ldrb	r3, [r2]	@ zero_extendqisi2
 360              	.LVL6:
 361              		.loc 1 1129 0
 362 0004 03F07F03 		and	r3, r3, #127
 363              	.LVL7:
 364 0008 1843     		orrs	r0, r0, r3
 365              	.LVL8:
 366 000a 1070     		strb	r0, [r2]
 367 000c 7047     		bx	lr
 368              	.L48:
 369 000e 00BF     		.align	2
 370              	.L47:
 371 0010 173C0240 		.word	1073888279
 372              		.cfi_endproc
 373              	.LFE143:
 374              		.size	FLASH_OB_PCROPSelectionConfig, .-FLASH_OB_PCROPSelectionConfig
 375              		.section	.text.FLASH_OB_BootConfig,"ax",%progbits
 376              		.align	2
 377              		.p2align 4,,15
 378              		.global	FLASH_OB_BootConfig
 379              		.thumb
 380              		.thumb_func
 381              		.type	FLASH_OB_BootConfig, %function
 382              	FLASH_OB_BootConfig:
 383              	.LFB148:
 384              		.loc 1 1296 0
 385              		.cfi_startproc
 386              		@ args = 0, pretend = 0, frame = 0
 387              		@ frame_needed = 0, uses_anonymous_args = 0
 388              		@ link register save eliminated.
 389              	.LVL9:
 390              		.loc 1 1301 0
 391 0000 044B     		ldr	r3, .L50
 392 0002 1A78     		ldrb	r2, [r3]	@ zero_extendqisi2
 393 0004 02F0EF02 		and	r2, r2, #239
 394 0008 1A70     		strb	r2, [r3]
 395              		.loc 1 1302 0
 396 000a 1A78     		ldrb	r2, [r3]	@ zero_extendqisi2
 397 000c 1043     		orrs	r0, r0, r2
 398              	.LVL10:
 399 000e 1870     		strb	r0, [r3]
ARM GAS  /var/folders/m4/4md61f0s1_g0rzfghffqnxvr0000gn/T//ccZNYUOX.s 			page 8


 400 0010 7047     		bx	lr
 401              	.L51:
 402 0012 00BF     		.align	2
 403              	.L50:
 404 0014 143C0240 		.word	1073888276
 405              		.cfi_endproc
 406              	.LFE148:
 407              		.size	FLASH_OB_BootConfig, .-FLASH_OB_BootConfig
 408              		.section	.text.FLASH_OB_BORConfig,"ax",%progbits
 409              		.align	2
 410              		.p2align 4,,15
 411              		.global	FLASH_OB_BORConfig
 412              		.thumb
 413              		.thumb_func
 414              		.type	FLASH_OB_BORConfig, %function
 415              	FLASH_OB_BORConfig:
 416              	.LFB149:
 417              		.loc 1 1317 0
 418              		.cfi_startproc
 419              		@ args = 0, pretend = 0, frame = 0
 420              		@ frame_needed = 0, uses_anonymous_args = 0
 421              		@ link register save eliminated.
 422              	.LVL11:
 423              		.loc 1 1322 0
 424 0000 044B     		ldr	r3, .L53
 425 0002 1A78     		ldrb	r2, [r3]	@ zero_extendqisi2
 426 0004 02F0F302 		and	r2, r2, #243
 427 0008 1A70     		strb	r2, [r3]
 428              		.loc 1 1323 0
 429 000a 1A78     		ldrb	r2, [r3]	@ zero_extendqisi2
 430 000c 1043     		orrs	r0, r0, r2
 431              	.LVL12:
 432 000e 1870     		strb	r0, [r3]
 433 0010 7047     		bx	lr
 434              	.L54:
 435 0012 00BF     		.align	2
 436              	.L53:
 437 0014 143C0240 		.word	1073888276
 438              		.cfi_endproc
 439              	.LFE149:
 440              		.size	FLASH_OB_BORConfig, .-FLASH_OB_BORConfig
 441              		.section	.text.FLASH_OB_GetUser,"ax",%progbits
 442              		.align	2
 443              		.p2align 4,,15
 444              		.global	FLASH_OB_GetUser
 445              		.thumb
 446              		.thumb_func
 447              		.type	FLASH_OB_GetUser, %function
 448              	FLASH_OB_GetUser:
 449              	.LFB151:
 450              		.loc 1 1353 0
 451              		.cfi_startproc
 452              		@ args = 0, pretend = 0, frame = 0
 453              		@ frame_needed = 0, uses_anonymous_args = 0
 454              		@ link register save eliminated.
 455              		.loc 1 1355 0
 456 0000 024B     		ldr	r3, .L56
ARM GAS  /var/folders/m4/4md61f0s1_g0rzfghffqnxvr0000gn/T//ccZNYUOX.s 			page 9


 457 0002 5869     		ldr	r0, [r3, #20]
 458              		.loc 1 1356 0
 459 0004 C0F34710 		ubfx	r0, r0, #5, #8
 460 0008 7047     		bx	lr
 461              	.L57:
 462 000a 00BF     		.align	2
 463              	.L56:
 464 000c 003C0240 		.word	1073888256
 465              		.cfi_endproc
 466              	.LFE151:
 467              		.size	FLASH_OB_GetUser, .-FLASH_OB_GetUser
 468              		.section	.text.FLASH_OB_GetWRP,"ax",%progbits
 469              		.align	2
 470              		.p2align 4,,15
 471              		.global	FLASH_OB_GetWRP
 472              		.thumb
 473              		.thumb_func
 474              		.type	FLASH_OB_GetWRP, %function
 475              	FLASH_OB_GetWRP:
 476              	.LFB167:
 477              		.cfi_startproc
 478              		@ args = 0, pretend = 0, frame = 0
 479              		@ frame_needed = 0, uses_anonymous_args = 0
 480              		@ link register save eliminated.
 481 0000 014B     		ldr	r3, .L59
 482 0002 1888     		ldrh	r0, [r3]
 483 0004 80B2     		uxth	r0, r0
 484 0006 7047     		bx	lr
 485              	.L60:
 486              		.align	2
 487              	.L59:
 488 0008 163C0240 		.word	1073888278
 489              		.cfi_endproc
 490              	.LFE167:
 491              		.size	FLASH_OB_GetWRP, .-FLASH_OB_GetWRP
 492              		.section	.text.FLASH_OB_GetWRP1,"ax",%progbits
 493              		.align	2
 494              		.p2align 4,,15
 495              		.global	FLASH_OB_GetWRP1
 496              		.thumb
 497              		.thumb_func
 498              		.type	FLASH_OB_GetWRP1, %function
 499              	FLASH_OB_GetWRP1:
 500              	.LFB165:
 501              		.cfi_startproc
 502              		@ args = 0, pretend = 0, frame = 0
 503              		@ frame_needed = 0, uses_anonymous_args = 0
 504              		@ link register save eliminated.
 505 0000 014B     		ldr	r3, .L62
 506 0002 1888     		ldrh	r0, [r3]
 507 0004 80B2     		uxth	r0, r0
 508 0006 7047     		bx	lr
 509              	.L63:
 510              		.align	2
 511              	.L62:
 512 0008 1A3C0240 		.word	1073888282
 513              		.cfi_endproc
ARM GAS  /var/folders/m4/4md61f0s1_g0rzfghffqnxvr0000gn/T//ccZNYUOX.s 			page 10


 514              	.LFE165:
 515              		.size	FLASH_OB_GetWRP1, .-FLASH_OB_GetWRP1
 516              		.section	.text.FLASH_OB_GetPCROP,"ax",%progbits
 517              		.align	2
 518              		.p2align 4,,15
 519              		.global	FLASH_OB_GetPCROP
 520              		.thumb
 521              		.thumb_func
 522              		.type	FLASH_OB_GetPCROP, %function
 523              	FLASH_OB_GetPCROP:
 524              	.LFB154:
 525              		.loc 1 1392 0
 526              		.cfi_startproc
 527              		@ args = 0, pretend = 0, frame = 0
 528              		@ frame_needed = 0, uses_anonymous_args = 0
 529              		@ link register save eliminated.
 530              		.loc 1 1394 0
 531 0000 014B     		ldr	r3, .L65
 532 0002 1888     		ldrh	r0, [r3]
 533              		.loc 1 1395 0
 534 0004 80B2     		uxth	r0, r0
 535 0006 7047     		bx	lr
 536              	.L66:
 537              		.align	2
 538              	.L65:
 539 0008 163C0240 		.word	1073888278
 540              		.cfi_endproc
 541              	.LFE154:
 542              		.size	FLASH_OB_GetPCROP, .-FLASH_OB_GetPCROP
 543              		.section	.text.FLASH_OB_GetPCROP1,"ax",%progbits
 544              		.align	2
 545              		.p2align 4,,15
 546              		.global	FLASH_OB_GetPCROP1
 547              		.thumb
 548              		.thumb_func
 549              		.type	FLASH_OB_GetPCROP1, %function
 550              	FLASH_OB_GetPCROP1:
 551              	.LFB155:
 552              		.loc 1 1406 0
 553              		.cfi_startproc
 554              		@ args = 0, pretend = 0, frame = 0
 555              		@ frame_needed = 0, uses_anonymous_args = 0
 556              		@ link register save eliminated.
 557              		.loc 1 1408 0
 558 0000 014B     		ldr	r3, .L68
 559 0002 1888     		ldrh	r0, [r3]
 560              		.loc 1 1409 0
 561 0004 80B2     		uxth	r0, r0
 562 0006 7047     		bx	lr
 563              	.L69:
 564              		.align	2
 565              	.L68:
 566 0008 1A3C0240 		.word	1073888282
 567              		.cfi_endproc
 568              	.LFE155:
 569              		.size	FLASH_OB_GetPCROP1, .-FLASH_OB_GetPCROP1
 570              		.section	.text.FLASH_OB_GetRDP,"ax",%progbits
ARM GAS  /var/folders/m4/4md61f0s1_g0rzfghffqnxvr0000gn/T//ccZNYUOX.s 			page 11


 571              		.align	2
 572              		.p2align 4,,15
 573              		.global	FLASH_OB_GetRDP
 574              		.thumb
 575              		.thumb_func
 576              		.type	FLASH_OB_GetRDP, %function
 577              	FLASH_OB_GetRDP:
 578              	.LFB156:
 579              		.loc 1 1419 0
 580              		.cfi_startproc
 581              		@ args = 0, pretend = 0, frame = 0
 582              		@ frame_needed = 0, uses_anonymous_args = 0
 583              		@ link register save eliminated.
 584              	.LVL13:
 585              		.loc 1 1422 0
 586 0000 024B     		ldr	r3, .L71
 587 0002 1878     		ldrb	r0, [r3]	@ zero_extendqisi2
 588              	.LVL14:
 589              		.loc 1 1431 0
 590 0004 AA38     		subs	r0, r0, #170
 591              	.LVL15:
 592 0006 18BF     		it	ne
 593 0008 0120     		movne	r0, #1
 594 000a 7047     		bx	lr
 595              	.L72:
 596              		.align	2
 597              	.L71:
 598 000c 153C0240 		.word	1073888277
 599              		.cfi_endproc
 600              	.LFE156:
 601              		.size	FLASH_OB_GetRDP, .-FLASH_OB_GetRDP
 602              		.section	.text.FLASH_OB_GetBOR,"ax",%progbits
 603              		.align	2
 604              		.p2align 4,,15
 605              		.global	FLASH_OB_GetBOR
 606              		.thumb
 607              		.thumb_func
 608              		.type	FLASH_OB_GetBOR, %function
 609              	FLASH_OB_GetBOR:
 610              	.LFB157:
 611              		.loc 1 1443 0
 612              		.cfi_startproc
 613              		@ args = 0, pretend = 0, frame = 0
 614              		@ frame_needed = 0, uses_anonymous_args = 0
 615              		@ link register save eliminated.
 616              		.loc 1 1445 0
 617 0000 024B     		ldr	r3, .L74
 618 0002 1878     		ldrb	r0, [r3]	@ zero_extendqisi2
 619              		.loc 1 1446 0
 620 0004 00F00C00 		and	r0, r0, #12
 621 0008 7047     		bx	lr
 622              	.L75:
 623 000a 00BF     		.align	2
 624              	.L74:
 625 000c 143C0240 		.word	1073888276
 626              		.cfi_endproc
 627              	.LFE157:
ARM GAS  /var/folders/m4/4md61f0s1_g0rzfghffqnxvr0000gn/T//ccZNYUOX.s 			page 12


 628              		.size	FLASH_OB_GetBOR, .-FLASH_OB_GetBOR
 629              		.section	.text.FLASH_ITConfig,"ax",%progbits
 630              		.align	2
 631              		.p2align 4,,15
 632              		.global	FLASH_ITConfig
 633              		.thumb
 634              		.thumb_func
 635              		.type	FLASH_ITConfig, %function
 636              	FLASH_ITConfig:
 637              	.LFB158:
 638              		.loc 1 1472 0
 639              		.cfi_startproc
 640              		@ args = 0, pretend = 0, frame = 0
 641              		@ frame_needed = 0, uses_anonymous_args = 0
 642              		@ link register save eliminated.
 643              	.LVL16:
 644              		.loc 1 1477 0
 645 0000 29B9     		cbnz	r1, .L79
 646              		.loc 1 1485 0
 647 0002 054A     		ldr	r2, .L80
 648 0004 1369     		ldr	r3, [r2, #16]
 649 0006 23EA0000 		bic	r0, r3, r0
 650              	.LVL17:
 651 000a 1061     		str	r0, [r2, #16]
 652 000c 7047     		bx	lr
 653              	.LVL18:
 654              	.L79:
 655              		.loc 1 1480 0
 656 000e 024B     		ldr	r3, .L80
 657 0010 1A69     		ldr	r2, [r3, #16]
 658 0012 1043     		orrs	r0, r0, r2
 659              	.LVL19:
 660 0014 1861     		str	r0, [r3, #16]
 661 0016 7047     		bx	lr
 662              	.L81:
 663              		.align	2
 664              	.L80:
 665 0018 003C0240 		.word	1073888256
 666              		.cfi_endproc
 667              	.LFE158:
 668              		.size	FLASH_ITConfig, .-FLASH_ITConfig
 669              		.section	.text.FLASH_GetFlagStatus,"ax",%progbits
 670              		.align	2
 671              		.p2align 4,,15
 672              		.global	FLASH_GetFlagStatus
 673              		.thumb
 674              		.thumb_func
 675              		.type	FLASH_GetFlagStatus, %function
 676              	FLASH_GetFlagStatus:
 677              	.LFB159:
 678              		.loc 1 1504 0
 679              		.cfi_startproc
 680              		@ args = 0, pretend = 0, frame = 0
 681              		@ frame_needed = 0, uses_anonymous_args = 0
 682              		@ link register save eliminated.
 683              	.LVL20:
 684              		.loc 1 1509 0
ARM GAS  /var/folders/m4/4md61f0s1_g0rzfghffqnxvr0000gn/T//ccZNYUOX.s 			page 13


 685 0000 034B     		ldr	r3, .L83
 686 0002 DB68     		ldr	r3, [r3, #12]
 687              	.LVL21:
 688              		.loc 1 1518 0
 689 0004 0342     		tst	r3, r0
 690              		.loc 1 1519 0
 691 0006 14BF     		ite	ne
 692 0008 0120     		movne	r0, #1
 693              	.LVL22:
 694 000a 0020     		moveq	r0, #0
 695 000c 7047     		bx	lr
 696              	.L84:
 697 000e 00BF     		.align	2
 698              	.L83:
 699 0010 003C0240 		.word	1073888256
 700              		.cfi_endproc
 701              	.LFE159:
 702              		.size	FLASH_GetFlagStatus, .-FLASH_GetFlagStatus
 703              		.section	.text.FLASH_ClearFlag,"ax",%progbits
 704              		.align	2
 705              		.p2align 4,,15
 706              		.global	FLASH_ClearFlag
 707              		.thumb
 708              		.thumb_func
 709              		.type	FLASH_ClearFlag, %function
 710              	FLASH_ClearFlag:
 711              	.LFB160:
 712              		.loc 1 1535 0
 713              		.cfi_startproc
 714              		@ args = 0, pretend = 0, frame = 0
 715              		@ frame_needed = 0, uses_anonymous_args = 0
 716              		@ link register save eliminated.
 717              	.LVL23:
 718              		.loc 1 1540 0
 719 0000 014B     		ldr	r3, .L86
 720 0002 D860     		str	r0, [r3, #12]
 721 0004 7047     		bx	lr
 722              	.L87:
 723 0006 00BF     		.align	2
 724              	.L86:
 725 0008 003C0240 		.word	1073888256
 726              		.cfi_endproc
 727              	.LFE160:
 728              		.size	FLASH_ClearFlag, .-FLASH_ClearFlag
 729              		.section	.text.FLASH_GetStatus,"ax",%progbits
 730              		.align	2
 731              		.p2align 4,,15
 732              		.global	FLASH_GetStatus
 733              		.thumb
 734              		.thumb_func
 735              		.type	FLASH_GetStatus, %function
 736              	FLASH_GetStatus:
 737              	.LFB161:
 738              		.loc 1 1550 0
 739              		.cfi_startproc
 740              		@ args = 0, pretend = 0, frame = 0
 741              		@ frame_needed = 0, uses_anonymous_args = 0
ARM GAS  /var/folders/m4/4md61f0s1_g0rzfghffqnxvr0000gn/T//ccZNYUOX.s 			page 14


 742              		@ link register save eliminated.
 743              	.LVL24:
 744              		.loc 1 1553 0
 745 0000 0E4B     		ldr	r3, .L98
 746 0002 DA68     		ldr	r2, [r3, #12]
 747 0004 D203     		lsls	r2, r2, #15
 748 0006 09D4     		bmi	.L90
 749              		.loc 1 1559 0
 750 0008 DA68     		ldr	r2, [r3, #12]
 751 000a D106     		lsls	r1, r2, #27
 752 000c 01D5     		bpl	.L95
 753              		.loc 1 1561 0
 754 000e 0620     		movs	r0, #6
 755 0010 7047     		bx	lr
 756              	.L95:
 757              		.loc 1 1565 0
 758 0012 DA68     		ldr	r2, [r3, #12]
 759 0014 D205     		lsls	r2, r2, #23
 760 0016 03D5     		bpl	.L96
 761              		.loc 1 1567 0
 762 0018 0220     		movs	r0, #2
 763 001a 7047     		bx	lr
 764              	.L90:
 765              		.loc 1 1555 0
 766 001c 0120     		movs	r0, #1
 767 001e 7047     		bx	lr
 768              	.L96:
 769              		.loc 1 1571 0
 770 0020 DA68     		ldr	r2, [r3, #12]
 771 0022 12F0E00F 		tst	r2, #224
 772 0026 01D0     		beq	.L97
 773              		.loc 1 1573 0
 774 0028 0720     		movs	r0, #7
 775              	.LVL25:
 776              		.loc 1 1591 0
 777 002a 7047     		bx	lr
 778              	.LVL26:
 779              	.L97:
 780              	.LBB4:
 781              	.LBB5:
 782              		.loc 1 1577 0
 783 002c DB68     		ldr	r3, [r3, #12]
 784 002e 13F0020F 		tst	r3, #2
 785              		.loc 1 1583 0
 786 0032 14BF     		ite	ne
 787 0034 0820     		movne	r0, #8
 788 0036 0920     		moveq	r0, #9
 789 0038 7047     		bx	lr
 790              	.L99:
 791 003a 00BF     		.align	2
 792              	.L98:
 793 003c 003C0240 		.word	1073888256
 794              	.LBE5:
 795              	.LBE4:
 796              		.cfi_endproc
 797              	.LFE161:
 798              		.size	FLASH_GetStatus, .-FLASH_GetStatus
ARM GAS  /var/folders/m4/4md61f0s1_g0rzfghffqnxvr0000gn/T//ccZNYUOX.s 			page 15


 799              		.section	.text.FLASH_WaitForLastOperation,"ax",%progbits
 800              		.align	2
 801              		.p2align 4,,15
 802              		.global	FLASH_WaitForLastOperation
 803              		.thumb
 804              		.thumb_func
 805              		.type	FLASH_WaitForLastOperation, %function
 806              	FLASH_WaitForLastOperation:
 807              	.LFB162:
 808              		.loc 1 1600 0
 809              		.cfi_startproc
 810              		@ args = 0, pretend = 0, frame = 8
 811              		@ frame_needed = 0, uses_anonymous_args = 0
 812 0000 00B5     		push	{lr}
 813              		.cfi_def_cfa_offset 4
 814              		.cfi_offset 14, -4
 815 0002 83B0     		sub	sp, sp, #12
 816              		.cfi_def_cfa_offset 16
 817              		.loc 1 1601 0
 818 0004 0923     		movs	r3, #9
 819 0006 8DF80730 		strb	r3, [sp, #7]
 820              	.L109:
 821              		.loc 1 1604 0
 822 000a FFF7FEFF 		bl	FLASH_GetStatus
 823              	.LVL27:
 824 000e 8DF80700 		strb	r0, [sp, #7]
 825              		.loc 1 1609 0
 826 0012 9DF80730 		ldrb	r3, [sp, #7]	@ zero_extendqisi2
 827 0016 012B     		cmp	r3, #1
 828 0018 F7D0     		beq	.L109
 829              		.loc 1 1614 0
 830 001a 9DF80700 		ldrb	r0, [sp, #7]	@ zero_extendqisi2
 831 001e C0B2     		uxtb	r0, r0
 832              		.loc 1 1615 0
 833 0020 03B0     		add	sp, sp, #12
 834              		.cfi_def_cfa_offset 4
 835              		@ sp needed
 836 0022 5DF804FB 		ldr	pc, [sp], #4
 837              		.cfi_endproc
 838              	.LFE162:
 839              		.size	FLASH_WaitForLastOperation, .-FLASH_WaitForLastOperation
 840 0026 00BF     		.section	.text.FLASH_EraseSector,"ax",%progbits
 841              		.align	2
 842              		.p2align 4,,15
 843              		.global	FLASH_EraseSector
 844              		.thumb
 845              		.thumb_func
 846              		.type	FLASH_EraseSector, %function
 847              	FLASH_EraseSector:
 848              	.LFB131:
 849              		.loc 1 491 0
 850              		.cfi_startproc
 851              		@ args = 0, pretend = 0, frame = 0
 852              		@ frame_needed = 0, uses_anonymous_args = 0
 853              	.LVL28:
 854 0000 70B5     		push	{r4, r5, r6, lr}
 855              		.cfi_def_cfa_offset 16
ARM GAS  /var/folders/m4/4md61f0s1_g0rzfghffqnxvr0000gn/T//ccZNYUOX.s 			page 16


 856              		.cfi_offset 4, -16
 857              		.cfi_offset 5, -12
 858              		.cfi_offset 6, -8
 859              		.cfi_offset 14, -4
 860              		.loc 1 491 0
 861 0002 0646     		mov	r6, r0
 862              		.loc 1 499 0
 863 0004 59B3     		cbz	r1, .L113
 864              		.loc 1 503 0
 865 0006 0129     		cmp	r1, #1
 866 0008 2FD0     		beq	.L114
 867              		.loc 1 507 0
 868 000a 0229     		cmp	r1, #2
 869              		.loc 1 513 0
 870 000c 0CBF     		ite	eq
 871 000e 4FF40074 		moveq	r4, #512
 872 0012 4FF44074 		movne	r4, #768
 873              	.LVL29:
 874              		.loc 1 516 0
 875 0016 FFF7FEFF 		bl	FLASH_WaitForLastOperation
 876              	.LVL30:
 877              		.loc 1 518 0
 878 001a 0928     		cmp	r0, #9
 879 001c 24D1     		bne	.L112
 880              	.L117:
 881              		.loc 1 521 0
 882 001e 144D     		ldr	r5, .L118
 883 0020 2B69     		ldr	r3, [r5, #16]
 884 0022 23F44073 		bic	r3, r3, #768
 885 0026 2B61     		str	r3, [r5, #16]
 886              		.loc 1 522 0
 887 0028 2969     		ldr	r1, [r5, #16]
 888 002a 2143     		orrs	r1, r1, r4
 889 002c 2961     		str	r1, [r5, #16]
 890              		.loc 1 523 0
 891 002e 2B69     		ldr	r3, [r5, #16]
 892 0030 23F0F803 		bic	r3, r3, #248
 893 0034 2B61     		str	r3, [r5, #16]
 894              		.loc 1 524 0
 895 0036 2B69     		ldr	r3, [r5, #16]
 896 0038 43F00203 		orr	r3, r3, #2
 897 003c 1E43     		orrs	r6, r6, r3
 898              	.LVL31:
 899 003e 2E61     		str	r6, [r5, #16]
 900              		.loc 1 525 0
 901 0040 2B69     		ldr	r3, [r5, #16]
 902 0042 43F48033 		orr	r3, r3, #65536
 903 0046 2B61     		str	r3, [r5, #16]
 904              		.loc 1 528 0
 905 0048 FFF7FEFF 		bl	FLASH_WaitForLastOperation
 906              	.LVL32:
 907              		.loc 1 531 0
 908 004c 2B69     		ldr	r3, [r5, #16]
 909 004e 23F00203 		bic	r3, r3, #2
 910 0052 2B61     		str	r3, [r5, #16]
 911              		.loc 1 532 0
 912 0054 2B69     		ldr	r3, [r5, #16]
ARM GAS  /var/folders/m4/4md61f0s1_g0rzfghffqnxvr0000gn/T//ccZNYUOX.s 			page 17


 913 0056 23F0F803 		bic	r3, r3, #248
 914 005a 2B61     		str	r3, [r5, #16]
 915              		.loc 1 536 0
 916 005c 70BD     		pop	{r4, r5, r6, pc}
 917              	.LVL33:
 918              	.L113:
 919              		.loc 1 501 0
 920 005e 0C46     		mov	r4, r1
 921              	.L111:
 922              	.LVL34:
 923              		.loc 1 516 0
 924 0060 FFF7FEFF 		bl	FLASH_WaitForLastOperation
 925              	.LVL35:
 926              		.loc 1 518 0
 927 0064 0928     		cmp	r0, #9
 928 0066 DAD0     		beq	.L117
 929              	.L112:
 930              		.loc 1 536 0
 931 0068 70BD     		pop	{r4, r5, r6, pc}
 932              	.LVL36:
 933              	.L114:
 934              		.loc 1 505 0
 935 006a 4FF48074 		mov	r4, #256
 936 006e F7E7     		b	.L111
 937              	.L119:
 938              		.align	2
 939              	.L118:
 940 0070 003C0240 		.word	1073888256
 941              		.cfi_endproc
 942              	.LFE131:
 943              		.size	FLASH_EraseSector, .-FLASH_EraseSector
 944              		.section	.text.FLASH_EraseAllBank1Sectors,"ax",%progbits
 945              		.align	2
 946              		.p2align 4,,15
 947              		.global	FLASH_EraseAllBank1Sectors
 948              		.thumb
 949              		.thumb_func
 950              		.type	FLASH_EraseAllBank1Sectors, %function
 951              	FLASH_EraseAllBank1Sectors:
 952              	.LFB133:
 953              		.loc 1 640 0
 954              		.cfi_startproc
 955              		@ args = 0, pretend = 0, frame = 0
 956              		@ frame_needed = 0, uses_anonymous_args = 0
 957              	.LVL37:
 958 0000 38B5     		push	{r3, r4, r5, lr}
 959              		.cfi_def_cfa_offset 16
 960              		.cfi_offset 3, -16
 961              		.cfi_offset 4, -12
 962              		.cfi_offset 5, -8
 963              		.cfi_offset 14, -4
 964              		.loc 1 640 0
 965 0002 0446     		mov	r4, r0
 966              		.loc 1 645 0
 967 0004 FFF7FEFF 		bl	FLASH_WaitForLastOperation
 968              	.LVL38:
 969              		.loc 1 648 0
ARM GAS  /var/folders/m4/4md61f0s1_g0rzfghffqnxvr0000gn/T//ccZNYUOX.s 			page 18


 970 0008 3CB1     		cbz	r4, .L121
 971              		.loc 1 652 0
 972 000a 012C     		cmp	r4, #1
 973 000c 08D0     		beq	.L124
 974              		.loc 1 656 0
 975 000e 022C     		cmp	r4, #2
 976              		.loc 1 662 0
 977 0010 0CBF     		ite	eq
 978 0012 4FF40074 		moveq	r4, #512
 979 0016 4FF44074 		movne	r4, #768
 980              	.L121:
 981              	.LVL39:
 982              		.loc 1 664 0
 983 001a 0928     		cmp	r0, #9
 984 001c 04D0     		beq	.L127
 985              	.L122:
 986              		.loc 1 681 0
 987 001e 38BD     		pop	{r3, r4, r5, pc}
 988              	.LVL40:
 989              	.L124:
 990              		.loc 1 664 0
 991 0020 0928     		cmp	r0, #9
 992              		.loc 1 654 0
 993 0022 4FF48074 		mov	r4, #256
 994              	.LVL41:
 995              		.loc 1 664 0
 996 0026 FAD1     		bne	.L122
 997              	.L127:
 998              		.loc 1 667 0
 999 0028 0B4D     		ldr	r5, .L128
 1000 002a 2B69     		ldr	r3, [r5, #16]
 1001 002c 23F44073 		bic	r3, r3, #768
 1002 0030 2B61     		str	r3, [r5, #16]
 1003              		.loc 1 668 0
 1004 0032 2B69     		ldr	r3, [r5, #16]
 1005 0034 1C43     		orrs	r4, r4, r3
 1006              	.LVL42:
 1007 0036 2C61     		str	r4, [r5, #16]
 1008              		.loc 1 669 0
 1009 0038 2B69     		ldr	r3, [r5, #16]
 1010 003a 43F00403 		orr	r3, r3, #4
 1011 003e 2B61     		str	r3, [r5, #16]
 1012              		.loc 1 670 0
 1013 0040 2B69     		ldr	r3, [r5, #16]
 1014 0042 43F48033 		orr	r3, r3, #65536
 1015 0046 2B61     		str	r3, [r5, #16]
 1016              		.loc 1 673 0
 1017 0048 FFF7FEFF 		bl	FLASH_WaitForLastOperation
 1018              	.LVL43:
 1019              		.loc 1 676 0
 1020 004c 2B69     		ldr	r3, [r5, #16]
 1021 004e 23F00403 		bic	r3, r3, #4
 1022 0052 2B61     		str	r3, [r5, #16]
 1023              		.loc 1 681 0
 1024 0054 38BD     		pop	{r3, r4, r5, pc}
 1025              	.L129:
 1026 0056 00BF     		.align	2
ARM GAS  /var/folders/m4/4md61f0s1_g0rzfghffqnxvr0000gn/T//ccZNYUOX.s 			page 19


 1027              	.L128:
 1028 0058 003C0240 		.word	1073888256
 1029              		.cfi_endproc
 1030              	.LFE133:
 1031              		.size	FLASH_EraseAllBank1Sectors, .-FLASH_EraseAllBank1Sectors
 1032              		.section	.text.FLASH_EraseAllSectors,"ax",%progbits
 1033              		.align	2
 1034              		.p2align 4,,15
 1035              		.global	FLASH_EraseAllSectors
 1036              		.thumb
 1037              		.thumb_func
 1038              		.type	FLASH_EraseAllSectors, %function
 1039              	FLASH_EraseAllSectors:
 1040              	.LFB169:
 1041              		.cfi_startproc
 1042              		@ args = 0, pretend = 0, frame = 0
 1043              		@ frame_needed = 0, uses_anonymous_args = 0
 1044              		@ link register save eliminated.
 1045 0000 FFF7FEBF 		b	FLASH_EraseAllBank1Sectors
 1046              		.cfi_endproc
 1047              	.LFE169:
 1048              		.size	FLASH_EraseAllSectors, .-FLASH_EraseAllSectors
 1049              		.section	.text.FLASH_EraseAllBank2Sectors,"ax",%progbits
 1050              		.align	2
 1051              		.p2align 4,,15
 1052              		.global	FLASH_EraseAllBank2Sectors
 1053              		.thumb
 1054              		.thumb_func
 1055              		.type	FLASH_EraseAllBank2Sectors, %function
 1056              	FLASH_EraseAllBank2Sectors:
 1057              	.LFB134:
 1058              		.loc 1 707 0
 1059              		.cfi_startproc
 1060              		@ args = 0, pretend = 0, frame = 0
 1061              		@ frame_needed = 0, uses_anonymous_args = 0
 1062              	.LVL44:
 1063              		.loc 1 707 0
 1064 0000 38B5     		push	{r3, r4, r5, lr}
 1065              		.cfi_def_cfa_offset 16
 1066              		.cfi_offset 3, -16
 1067              		.cfi_offset 4, -12
 1068              		.cfi_offset 5, -8
 1069              		.cfi_offset 14, -4
 1070              		.loc 1 707 0
 1071 0002 0446     		mov	r4, r0
 1072              		.loc 1 712 0
 1073 0004 FFF7FEFF 		bl	FLASH_WaitForLastOperation
 1074              	.LVL45:
 1075              		.loc 1 715 0
 1076 0008 3CB1     		cbz	r4, .L132
 1077              		.loc 1 719 0
 1078 000a 012C     		cmp	r4, #1
 1079 000c 08D0     		beq	.L135
 1080              		.loc 1 723 0
 1081 000e 022C     		cmp	r4, #2
 1082              		.loc 1 729 0
 1083 0010 0CBF     		ite	eq
ARM GAS  /var/folders/m4/4md61f0s1_g0rzfghffqnxvr0000gn/T//ccZNYUOX.s 			page 20


 1084 0012 4FF40074 		moveq	r4, #512
 1085 0016 4FF44074 		movne	r4, #768
 1086              	.L132:
 1087              	.LVL46:
 1088              		.loc 1 731 0
 1089 001a 0928     		cmp	r0, #9
 1090 001c 04D0     		beq	.L138
 1091              	.L133:
 1092              		.loc 1 748 0
 1093 001e 38BD     		pop	{r3, r4, r5, pc}
 1094              	.LVL47:
 1095              	.L135:
 1096              		.loc 1 731 0
 1097 0020 0928     		cmp	r0, #9
 1098              		.loc 1 721 0
 1099 0022 4FF48074 		mov	r4, #256
 1100              	.LVL48:
 1101              		.loc 1 731 0
 1102 0026 FAD1     		bne	.L133
 1103              	.L138:
 1104              		.loc 1 734 0
 1105 0028 0B4D     		ldr	r5, .L139
 1106 002a 2B69     		ldr	r3, [r5, #16]
 1107 002c 23F44073 		bic	r3, r3, #768
 1108 0030 2B61     		str	r3, [r5, #16]
 1109              		.loc 1 735 0
 1110 0032 2B69     		ldr	r3, [r5, #16]
 1111 0034 1C43     		orrs	r4, r4, r3
 1112              	.LVL49:
 1113 0036 2C61     		str	r4, [r5, #16]
 1114              		.loc 1 736 0
 1115 0038 2B69     		ldr	r3, [r5, #16]
 1116 003a 43F40043 		orr	r3, r3, #32768
 1117 003e 2B61     		str	r3, [r5, #16]
 1118              		.loc 1 737 0
 1119 0040 2B69     		ldr	r3, [r5, #16]
 1120 0042 43F48033 		orr	r3, r3, #65536
 1121 0046 2B61     		str	r3, [r5, #16]
 1122              		.loc 1 740 0
 1123 0048 FFF7FEFF 		bl	FLASH_WaitForLastOperation
 1124              	.LVL50:
 1125              		.loc 1 743 0
 1126 004c 2B69     		ldr	r3, [r5, #16]
 1127 004e 23F40043 		bic	r3, r3, #32768
 1128 0052 2B61     		str	r3, [r5, #16]
 1129              		.loc 1 748 0
 1130 0054 38BD     		pop	{r3, r4, r5, pc}
 1131              	.L140:
 1132 0056 00BF     		.align	2
 1133              	.L139:
 1134 0058 003C0240 		.word	1073888256
 1135              		.cfi_endproc
 1136              	.LFE134:
 1137              		.size	FLASH_EraseAllBank2Sectors, .-FLASH_EraseAllBank2Sectors
 1138              		.section	.text.FLASH_ProgramDoubleWord,"ax",%progbits
 1139              		.align	2
 1140              		.p2align 4,,15
ARM GAS  /var/folders/m4/4md61f0s1_g0rzfghffqnxvr0000gn/T//ccZNYUOX.s 			page 21


 1141              		.global	FLASH_ProgramDoubleWord
 1142              		.thumb
 1143              		.thumb_func
 1144              		.type	FLASH_ProgramDoubleWord, %function
 1145              	FLASH_ProgramDoubleWord:
 1146              	.LFB135:
 1147              		.loc 1 764 0
 1148              		.cfi_startproc
 1149              		@ args = 0, pretend = 0, frame = 0
 1150              		@ frame_needed = 0, uses_anonymous_args = 0
 1151              	.LVL51:
 1152 0000 F8B5     		push	{r3, r4, r5, r6, r7, lr}
 1153              		.cfi_def_cfa_offset 24
 1154              		.cfi_offset 3, -24
 1155              		.cfi_offset 4, -20
 1156              		.cfi_offset 5, -16
 1157              		.cfi_offset 6, -12
 1158              		.cfi_offset 7, -8
 1159              		.cfi_offset 14, -4
 1160              		.loc 1 764 0
 1161 0002 0546     		mov	r5, r0
 1162 0004 1646     		mov	r6, r2
 1163 0006 1F46     		mov	r7, r3
 1164              		.loc 1 771 0
 1165 0008 FFF7FEFF 		bl	FLASH_WaitForLastOperation
 1166              	.LVL52:
 1167              		.loc 1 773 0
 1168 000c 0928     		cmp	r0, #9
 1169 000e 00D0     		beq	.L144
 1170              		.loc 1 790 0
 1171 0010 F8BD     		pop	{r3, r4, r5, r6, r7, pc}
 1172              	.LVL53:
 1173              	.L144:
 1174              		.loc 1 776 0
 1175 0012 0B4C     		ldr	r4, .L145
 1176 0014 2369     		ldr	r3, [r4, #16]
 1177 0016 23F44073 		bic	r3, r3, #768
 1178 001a 2361     		str	r3, [r4, #16]
 1179              		.loc 1 777 0
 1180 001c 2369     		ldr	r3, [r4, #16]
 1181 001e 43F44073 		orr	r3, r3, #768
 1182 0022 2361     		str	r3, [r4, #16]
 1183              		.loc 1 778 0
 1184 0024 2369     		ldr	r3, [r4, #16]
 1185 0026 43F00103 		orr	r3, r3, #1
 1186 002a 2361     		str	r3, [r4, #16]
 1187              		.loc 1 780 0
 1188 002c C5E90067 		strd	r6, [r5]
 1189              		.loc 1 783 0
 1190 0030 FFF7FEFF 		bl	FLASH_WaitForLastOperation
 1191              	.LVL54:
 1192              		.loc 1 786 0
 1193 0034 2369     		ldr	r3, [r4, #16]
 1194 0036 23F00103 		bic	r3, r3, #1
 1195 003a 2361     		str	r3, [r4, #16]
 1196              		.loc 1 790 0
 1197 003c F8BD     		pop	{r3, r4, r5, r6, r7, pc}
ARM GAS  /var/folders/m4/4md61f0s1_g0rzfghffqnxvr0000gn/T//ccZNYUOX.s 			page 22


 1198              	.LVL55:
 1199              	.L146:
 1200 003e 00BF     		.align	2
 1201              	.L145:
 1202 0040 003C0240 		.word	1073888256
 1203              		.cfi_endproc
 1204              	.LFE135:
 1205              		.size	FLASH_ProgramDoubleWord, .-FLASH_ProgramDoubleWord
 1206              		.section	.text.FLASH_ProgramWord,"ax",%progbits
 1207              		.align	2
 1208              		.p2align 4,,15
 1209              		.global	FLASH_ProgramWord
 1210              		.thumb
 1211              		.thumb_func
 1212              		.type	FLASH_ProgramWord, %function
 1213              	FLASH_ProgramWord:
 1214              	.LFB136:
 1215              		.loc 1 807 0
 1216              		.cfi_startproc
 1217              		@ args = 0, pretend = 0, frame = 0
 1218              		@ frame_needed = 0, uses_anonymous_args = 0
 1219              	.LVL56:
 1220 0000 70B5     		push	{r4, r5, r6, lr}
 1221              		.cfi_def_cfa_offset 16
 1222              		.cfi_offset 4, -16
 1223              		.cfi_offset 5, -12
 1224              		.cfi_offset 6, -8
 1225              		.cfi_offset 14, -4
 1226              		.loc 1 807 0
 1227 0002 0546     		mov	r5, r0
 1228 0004 0E46     		mov	r6, r1
 1229              		.loc 1 814 0
 1230 0006 FFF7FEFF 		bl	FLASH_WaitForLastOperation
 1231              	.LVL57:
 1232              		.loc 1 816 0
 1233 000a 0928     		cmp	r0, #9
 1234 000c 00D0     		beq	.L150
 1235              		.loc 1 833 0
 1236 000e 70BD     		pop	{r4, r5, r6, pc}
 1237              	.LVL58:
 1238              	.L150:
 1239              		.loc 1 819 0
 1240 0010 0A4C     		ldr	r4, .L151
 1241 0012 2369     		ldr	r3, [r4, #16]
 1242 0014 23F44073 		bic	r3, r3, #768
 1243 0018 2361     		str	r3, [r4, #16]
 1244              		.loc 1 820 0
 1245 001a 2369     		ldr	r3, [r4, #16]
 1246 001c 43F40073 		orr	r3, r3, #512
 1247 0020 2361     		str	r3, [r4, #16]
 1248              		.loc 1 821 0
 1249 0022 2369     		ldr	r3, [r4, #16]
 1250 0024 43F00103 		orr	r3, r3, #1
 1251 0028 2361     		str	r3, [r4, #16]
 1252              		.loc 1 823 0
 1253 002a 2E60     		str	r6, [r5]
 1254              		.loc 1 826 0
ARM GAS  /var/folders/m4/4md61f0s1_g0rzfghffqnxvr0000gn/T//ccZNYUOX.s 			page 23


 1255 002c FFF7FEFF 		bl	FLASH_WaitForLastOperation
 1256              	.LVL59:
 1257              		.loc 1 829 0
 1258 0030 2369     		ldr	r3, [r4, #16]
 1259 0032 23F00103 		bic	r3, r3, #1
 1260 0036 2361     		str	r3, [r4, #16]
 1261              		.loc 1 833 0
 1262 0038 70BD     		pop	{r4, r5, r6, pc}
 1263              	.LVL60:
 1264              	.L152:
 1265 003a 00BF     		.align	2
 1266              	.L151:
 1267 003c 003C0240 		.word	1073888256
 1268              		.cfi_endproc
 1269              	.LFE136:
 1270              		.size	FLASH_ProgramWord, .-FLASH_ProgramWord
 1271              		.section	.text.FLASH_ProgramHalfWord,"ax",%progbits
 1272              		.align	2
 1273              		.p2align 4,,15
 1274              		.global	FLASH_ProgramHalfWord
 1275              		.thumb
 1276              		.thumb_func
 1277              		.type	FLASH_ProgramHalfWord, %function
 1278              	FLASH_ProgramHalfWord:
 1279              	.LFB137:
 1280              		.loc 1 849 0
 1281              		.cfi_startproc
 1282              		@ args = 0, pretend = 0, frame = 0
 1283              		@ frame_needed = 0, uses_anonymous_args = 0
 1284              	.LVL61:
 1285 0000 70B5     		push	{r4, r5, r6, lr}
 1286              		.cfi_def_cfa_offset 16
 1287              		.cfi_offset 4, -16
 1288              		.cfi_offset 5, -12
 1289              		.cfi_offset 6, -8
 1290              		.cfi_offset 14, -4
 1291              		.loc 1 849 0
 1292 0002 0546     		mov	r5, r0
 1293 0004 0E46     		mov	r6, r1
 1294              		.loc 1 856 0
 1295 0006 FFF7FEFF 		bl	FLASH_WaitForLastOperation
 1296              	.LVL62:
 1297              		.loc 1 858 0
 1298 000a 0928     		cmp	r0, #9
 1299 000c 00D0     		beq	.L156
 1300              		.loc 1 875 0
 1301 000e 70BD     		pop	{r4, r5, r6, pc}
 1302              	.LVL63:
 1303              	.L156:
 1304              		.loc 1 861 0
 1305 0010 0A4C     		ldr	r4, .L157
 1306 0012 2369     		ldr	r3, [r4, #16]
 1307 0014 23F44073 		bic	r3, r3, #768
 1308 0018 2361     		str	r3, [r4, #16]
 1309              		.loc 1 862 0
 1310 001a 2369     		ldr	r3, [r4, #16]
 1311 001c 43F48073 		orr	r3, r3, #256
ARM GAS  /var/folders/m4/4md61f0s1_g0rzfghffqnxvr0000gn/T//ccZNYUOX.s 			page 24


 1312 0020 2361     		str	r3, [r4, #16]
 1313              		.loc 1 863 0
 1314 0022 2369     		ldr	r3, [r4, #16]
 1315 0024 43F00103 		orr	r3, r3, #1
 1316 0028 2361     		str	r3, [r4, #16]
 1317              		.loc 1 865 0
 1318 002a 2E80     		strh	r6, [r5]	@ movhi
 1319              		.loc 1 868 0
 1320 002c FFF7FEFF 		bl	FLASH_WaitForLastOperation
 1321              	.LVL64:
 1322              		.loc 1 871 0
 1323 0030 2369     		ldr	r3, [r4, #16]
 1324 0032 23F00103 		bic	r3, r3, #1
 1325 0036 2361     		str	r3, [r4, #16]
 1326              		.loc 1 875 0
 1327 0038 70BD     		pop	{r4, r5, r6, pc}
 1328              	.LVL65:
 1329              	.L158:
 1330 003a 00BF     		.align	2
 1331              	.L157:
 1332 003c 003C0240 		.word	1073888256
 1333              		.cfi_endproc
 1334              	.LFE137:
 1335              		.size	FLASH_ProgramHalfWord, .-FLASH_ProgramHalfWord
 1336              		.section	.text.FLASH_ProgramByte,"ax",%progbits
 1337              		.align	2
 1338              		.p2align 4,,15
 1339              		.global	FLASH_ProgramByte
 1340              		.thumb
 1341              		.thumb_func
 1342              		.type	FLASH_ProgramByte, %function
 1343              	FLASH_ProgramByte:
 1344              	.LFB138:
 1345              		.loc 1 891 0
 1346              		.cfi_startproc
 1347              		@ args = 0, pretend = 0, frame = 0
 1348              		@ frame_needed = 0, uses_anonymous_args = 0
 1349              	.LVL66:
 1350 0000 70B5     		push	{r4, r5, r6, lr}
 1351              		.cfi_def_cfa_offset 16
 1352              		.cfi_offset 4, -16
 1353              		.cfi_offset 5, -12
 1354              		.cfi_offset 6, -8
 1355              		.cfi_offset 14, -4
 1356              		.loc 1 891 0
 1357 0002 0546     		mov	r5, r0
 1358 0004 0E46     		mov	r6, r1
 1359              		.loc 1 898 0
 1360 0006 FFF7FEFF 		bl	FLASH_WaitForLastOperation
 1361              	.LVL67:
 1362              		.loc 1 900 0
 1363 000a 0928     		cmp	r0, #9
 1364 000c 00D0     		beq	.L162
 1365              		.loc 1 918 0
 1366 000e 70BD     		pop	{r4, r5, r6, pc}
 1367              	.LVL68:
 1368              	.L162:
ARM GAS  /var/folders/m4/4md61f0s1_g0rzfghffqnxvr0000gn/T//ccZNYUOX.s 			page 25


 1369              		.loc 1 903 0
 1370 0010 094C     		ldr	r4, .L163
 1371 0012 2369     		ldr	r3, [r4, #16]
 1372 0014 23F44073 		bic	r3, r3, #768
 1373 0018 2361     		str	r3, [r4, #16]
 1374              		.loc 1 904 0
 1375 001a 2369     		ldr	r3, [r4, #16]
 1376 001c 2361     		str	r3, [r4, #16]
 1377              		.loc 1 905 0
 1378 001e 2369     		ldr	r3, [r4, #16]
 1379 0020 43F00103 		orr	r3, r3, #1
 1380 0024 2361     		str	r3, [r4, #16]
 1381              		.loc 1 907 0
 1382 0026 2E70     		strb	r6, [r5]
 1383              		.loc 1 910 0
 1384 0028 FFF7FEFF 		bl	FLASH_WaitForLastOperation
 1385              	.LVL69:
 1386              		.loc 1 913 0
 1387 002c 2369     		ldr	r3, [r4, #16]
 1388 002e 23F00103 		bic	r3, r3, #1
 1389 0032 2361     		str	r3, [r4, #16]
 1390              		.loc 1 918 0
 1391 0034 70BD     		pop	{r4, r5, r6, pc}
 1392              	.LVL70:
 1393              	.L164:
 1394 0036 00BF     		.align	2
 1395              	.L163:
 1396 0038 003C0240 		.word	1073888256
 1397              		.cfi_endproc
 1398              	.LFE138:
 1399              		.size	FLASH_ProgramByte, .-FLASH_ProgramByte
 1400              		.section	.text.FLASH_OB_WRPConfig,"ax",%progbits
 1401              		.align	2
 1402              		.p2align 4,,15
 1403              		.global	FLASH_OB_WRPConfig
 1404              		.thumb
 1405              		.thumb_func
 1406              		.type	FLASH_OB_WRPConfig, %function
 1407              	FLASH_OB_WRPConfig:
 1408              	.LFB141:
 1409              		.loc 1 1028 0
 1410              		.cfi_startproc
 1411              		@ args = 0, pretend = 0, frame = 0
 1412              		@ frame_needed = 0, uses_anonymous_args = 0
 1413              	.LVL71:
 1414 0000 38B5     		push	{r3, r4, r5, lr}
 1415              		.cfi_def_cfa_offset 16
 1416              		.cfi_offset 3, -16
 1417              		.cfi_offset 4, -12
 1418              		.cfi_offset 5, -8
 1419              		.cfi_offset 14, -4
 1420              		.loc 1 1028 0
 1421 0002 0546     		mov	r5, r0
 1422 0004 0C46     		mov	r4, r1
 1423              		.loc 1 1035 0
 1424 0006 FFF7FEFF 		bl	FLASH_WaitForLastOperation
 1425              	.LVL72:
ARM GAS  /var/folders/m4/4md61f0s1_g0rzfghffqnxvr0000gn/T//ccZNYUOX.s 			page 26


 1426              		.loc 1 1037 0
 1427 000a 0928     		cmp	r0, #9
 1428 000c 00D0     		beq	.L169
 1429 000e 38BD     		pop	{r3, r4, r5, pc}
 1430              	.LVL73:
 1431              	.L169:
 1432              		.loc 1 1041 0
 1433 0010 054B     		ldr	r3, .L171
 1434 0012 1888     		ldrh	r0, [r3]
 1435              	.LVL74:
 1436              		.loc 1 1039 0
 1437 0014 1CB9     		cbnz	r4, .L170
 1438              		.loc 1 1045 0
 1439 0016 2843     		orrs	r0, r0, r5
 1440 0018 80B2     		uxth	r0, r0
 1441 001a 1880     		strh	r0, [r3]	@ movhi
 1442 001c 38BD     		pop	{r3, r4, r5, pc}
 1443              	.LVL75:
 1444              	.L170:
 1445              		.loc 1 1041 0
 1446 001e 80B2     		uxth	r0, r0
 1447 0020 20EA0500 		bic	r0, r0, r5
 1448 0024 1880     		strh	r0, [r3]	@ movhi
 1449 0026 38BD     		pop	{r3, r4, r5, pc}
 1450              	.LVL76:
 1451              	.L172:
 1452              		.align	2
 1453              	.L171:
 1454 0028 163C0240 		.word	1073888278
 1455              		.cfi_endproc
 1456              	.LFE141:
 1457              		.size	FLASH_OB_WRPConfig, .-FLASH_OB_WRPConfig
 1458              		.section	.text.FLASH_OB_WRP1Config,"ax",%progbits
 1459              		.align	2
 1460              		.p2align 4,,15
 1461              		.global	FLASH_OB_WRP1Config
 1462              		.thumb
 1463              		.thumb_func
 1464              		.type	FLASH_OB_WRP1Config, %function
 1465              	FLASH_OB_WRP1Config:
 1466              	.LFB142:
 1467              		.loc 1 1070 0
 1468              		.cfi_startproc
 1469              		@ args = 0, pretend = 0, frame = 0
 1470              		@ frame_needed = 0, uses_anonymous_args = 0
 1471              	.LVL77:
 1472 0000 38B5     		push	{r3, r4, r5, lr}
 1473              		.cfi_def_cfa_offset 16
 1474              		.cfi_offset 3, -16
 1475              		.cfi_offset 4, -12
 1476              		.cfi_offset 5, -8
 1477              		.cfi_offset 14, -4
 1478              		.loc 1 1070 0
 1479 0002 0546     		mov	r5, r0
 1480 0004 0C46     		mov	r4, r1
 1481              		.loc 1 1077 0
 1482 0006 FFF7FEFF 		bl	FLASH_WaitForLastOperation
ARM GAS  /var/folders/m4/4md61f0s1_g0rzfghffqnxvr0000gn/T//ccZNYUOX.s 			page 27


 1483              	.LVL78:
 1484              		.loc 1 1079 0
 1485 000a 0928     		cmp	r0, #9
 1486 000c 00D0     		beq	.L177
 1487 000e 38BD     		pop	{r3, r4, r5, pc}
 1488              	.LVL79:
 1489              	.L177:
 1490              		.loc 1 1083 0
 1491 0010 054B     		ldr	r3, .L179
 1492 0012 1888     		ldrh	r0, [r3]
 1493              	.LVL80:
 1494              		.loc 1 1081 0
 1495 0014 1CB9     		cbnz	r4, .L178
 1496              		.loc 1 1087 0
 1497 0016 2843     		orrs	r0, r0, r5
 1498 0018 80B2     		uxth	r0, r0
 1499 001a 1880     		strh	r0, [r3]	@ movhi
 1500 001c 38BD     		pop	{r3, r4, r5, pc}
 1501              	.LVL81:
 1502              	.L178:
 1503              		.loc 1 1083 0
 1504 001e 80B2     		uxth	r0, r0
 1505 0020 20EA0500 		bic	r0, r0, r5
 1506 0024 1880     		strh	r0, [r3]	@ movhi
 1507 0026 38BD     		pop	{r3, r4, r5, pc}
 1508              	.LVL82:
 1509              	.L180:
 1510              		.align	2
 1511              	.L179:
 1512 0028 1A3C0240 		.word	1073888282
 1513              		.cfi_endproc
 1514              	.LFE142:
 1515              		.size	FLASH_OB_WRP1Config, .-FLASH_OB_WRP1Config
 1516              		.section	.text.FLASH_OB_PCROPConfig,"ax",%progbits
 1517              		.align	2
 1518              		.p2align 4,,15
 1519              		.global	FLASH_OB_PCROPConfig
 1520              		.thumb
 1521              		.thumb_func
 1522              		.type	FLASH_OB_PCROPConfig, %function
 1523              	FLASH_OB_PCROPConfig:
 1524              	.LFB144:
 1525              		.loc 1 1150 0
 1526              		.cfi_startproc
 1527              		@ args = 0, pretend = 0, frame = 0
 1528              		@ frame_needed = 0, uses_anonymous_args = 0
 1529              	.LVL83:
 1530 0000 38B5     		push	{r3, r4, r5, lr}
 1531              		.cfi_def_cfa_offset 16
 1532              		.cfi_offset 3, -16
 1533              		.cfi_offset 4, -12
 1534              		.cfi_offset 5, -8
 1535              		.cfi_offset 14, -4
 1536              		.loc 1 1150 0
 1537 0002 0546     		mov	r5, r0
 1538 0004 0C46     		mov	r4, r1
 1539              		.loc 1 1157 0
ARM GAS  /var/folders/m4/4md61f0s1_g0rzfghffqnxvr0000gn/T//ccZNYUOX.s 			page 28


 1540 0006 FFF7FEFF 		bl	FLASH_WaitForLastOperation
 1541              	.LVL84:
 1542              		.loc 1 1159 0
 1543 000a 0928     		cmp	r0, #9
 1544 000c 00D0     		beq	.L185
 1545 000e 38BD     		pop	{r3, r4, r5, pc}
 1546              	.LVL85:
 1547              	.L185:
 1548              		.loc 1 1163 0
 1549 0010 054B     		ldr	r3, .L187
 1550 0012 1888     		ldrh	r0, [r3]
 1551              	.LVL86:
 1552              		.loc 1 1161 0
 1553 0014 24B9     		cbnz	r4, .L186
 1554              		.loc 1 1167 0
 1555 0016 80B2     		uxth	r0, r0
 1556 0018 20EA0500 		bic	r0, r0, r5
 1557 001c 1880     		strh	r0, [r3]	@ movhi
 1558 001e 38BD     		pop	{r3, r4, r5, pc}
 1559              	.LVL87:
 1560              	.L186:
 1561              		.loc 1 1163 0
 1562 0020 2843     		orrs	r0, r0, r5
 1563 0022 80B2     		uxth	r0, r0
 1564 0024 1880     		strh	r0, [r3]	@ movhi
 1565 0026 38BD     		pop	{r3, r4, r5, pc}
 1566              	.LVL88:
 1567              	.L188:
 1568              		.align	2
 1569              	.L187:
 1570 0028 163C0240 		.word	1073888278
 1571              		.cfi_endproc
 1572              	.LFE144:
 1573              		.size	FLASH_OB_PCROPConfig, .-FLASH_OB_PCROPConfig
 1574              		.section	.text.FLASH_OB_PCROP1Config,"ax",%progbits
 1575              		.align	2
 1576              		.p2align 4,,15
 1577              		.global	FLASH_OB_PCROP1Config
 1578              		.thumb
 1579              		.thumb_func
 1580              		.type	FLASH_OB_PCROP1Config, %function
 1581              	FLASH_OB_PCROP1Config:
 1582              	.LFB145:
 1583              		.loc 1 1187 0
 1584              		.cfi_startproc
 1585              		@ args = 0, pretend = 0, frame = 0
 1586              		@ frame_needed = 0, uses_anonymous_args = 0
 1587              	.LVL89:
 1588 0000 38B5     		push	{r3, r4, r5, lr}
 1589              		.cfi_def_cfa_offset 16
 1590              		.cfi_offset 3, -16
 1591              		.cfi_offset 4, -12
 1592              		.cfi_offset 5, -8
 1593              		.cfi_offset 14, -4
 1594              		.loc 1 1187 0
 1595 0002 0546     		mov	r5, r0
 1596 0004 0C46     		mov	r4, r1
ARM GAS  /var/folders/m4/4md61f0s1_g0rzfghffqnxvr0000gn/T//ccZNYUOX.s 			page 29


 1597              		.loc 1 1194 0
 1598 0006 FFF7FEFF 		bl	FLASH_WaitForLastOperation
 1599              	.LVL90:
 1600              		.loc 1 1196 0
 1601 000a 0928     		cmp	r0, #9
 1602 000c 00D0     		beq	.L193
 1603 000e 38BD     		pop	{r3, r4, r5, pc}
 1604              	.LVL91:
 1605              	.L193:
 1606              		.loc 1 1200 0
 1607 0010 054B     		ldr	r3, .L195
 1608 0012 1888     		ldrh	r0, [r3]
 1609              	.LVL92:
 1610              		.loc 1 1198 0
 1611 0014 24B9     		cbnz	r4, .L194
 1612              		.loc 1 1204 0
 1613 0016 80B2     		uxth	r0, r0
 1614 0018 20EA0500 		bic	r0, r0, r5
 1615 001c 1880     		strh	r0, [r3]	@ movhi
 1616 001e 38BD     		pop	{r3, r4, r5, pc}
 1617              	.LVL93:
 1618              	.L194:
 1619              		.loc 1 1200 0
 1620 0020 2843     		orrs	r0, r0, r5
 1621 0022 80B2     		uxth	r0, r0
 1622 0024 1880     		strh	r0, [r3]	@ movhi
 1623 0026 38BD     		pop	{r3, r4, r5, pc}
 1624              	.LVL94:
 1625              	.L196:
 1626              		.align	2
 1627              	.L195:
 1628 0028 1A3C0240 		.word	1073888282
 1629              		.cfi_endproc
 1630              	.LFE145:
 1631              		.size	FLASH_OB_PCROP1Config, .-FLASH_OB_PCROP1Config
 1632              		.section	.text.FLASH_OB_RDPConfig,"ax",%progbits
 1633              		.align	2
 1634              		.p2align 4,,15
 1635              		.global	FLASH_OB_RDPConfig
 1636              		.thumb
 1637              		.thumb_func
 1638              		.type	FLASH_OB_RDPConfig, %function
 1639              	FLASH_OB_RDPConfig:
 1640              	.LFB146:
 1641              		.loc 1 1223 0
 1642              		.cfi_startproc
 1643              		@ args = 0, pretend = 0, frame = 0
 1644              		@ frame_needed = 0, uses_anonymous_args = 0
 1645              	.LVL95:
 1646 0000 10B5     		push	{r4, lr}
 1647              		.cfi_def_cfa_offset 8
 1648              		.cfi_offset 4, -8
 1649              		.cfi_offset 14, -4
 1650              		.loc 1 1223 0
 1651 0002 0446     		mov	r4, r0
 1652              		.loc 1 1229 0
 1653 0004 FFF7FEFF 		bl	FLASH_WaitForLastOperation
ARM GAS  /var/folders/m4/4md61f0s1_g0rzfghffqnxvr0000gn/T//ccZNYUOX.s 			page 30


 1654              	.LVL96:
 1655              		.loc 1 1231 0
 1656 0008 0928     		cmp	r0, #9
 1657              		.loc 1 1233 0
 1658 000a 04BF     		itt	eq
 1659 000c 014B     		ldreq	r3, .L200
 1660 000e 1C70     		strbeq	r4, [r3]
 1661 0010 10BD     		pop	{r4, pc}
 1662              	.L201:
 1663 0012 00BF     		.align	2
 1664              	.L200:
 1665 0014 153C0240 		.word	1073888277
 1666              		.cfi_endproc
 1667              	.LFE146:
 1668              		.size	FLASH_OB_RDPConfig, .-FLASH_OB_RDPConfig
 1669              		.section	.text.FLASH_OB_UserConfig,"ax",%progbits
 1670              		.align	2
 1671              		.p2align 4,,15
 1672              		.global	FLASH_OB_UserConfig
 1673              		.thumb
 1674              		.thumb_func
 1675              		.type	FLASH_OB_UserConfig, %function
 1676              	FLASH_OB_UserConfig:
 1677              	.LFB147:
 1678              		.loc 1 1255 0
 1679              		.cfi_startproc
 1680              		@ args = 0, pretend = 0, frame = 0
 1681              		@ frame_needed = 0, uses_anonymous_args = 0
 1682              	.LVL97:
 1683 0000 70B5     		push	{r4, r5, r6, lr}
 1684              		.cfi_def_cfa_offset 16
 1685              		.cfi_offset 4, -16
 1686              		.cfi_offset 5, -12
 1687              		.cfi_offset 6, -8
 1688              		.cfi_offset 14, -4
 1689              		.loc 1 1255 0
 1690 0002 0646     		mov	r6, r0
 1691 0004 0C46     		mov	r4, r1
 1692 0006 1546     		mov	r5, r2
 1693              		.loc 1 1265 0
 1694 0008 FFF7FEFF 		bl	FLASH_WaitForLastOperation
 1695              	.LVL98:
 1696              		.loc 1 1267 0
 1697 000c 0928     		cmp	r0, #9
 1698 000e 07D1     		bne	.L202
 1699              		.loc 1 1276 0
 1700 0010 044B     		ldr	r3, .L205
 1701 0012 1978     		ldrb	r1, [r3]	@ zero_extendqisi2
 1702              	.LVL99:
 1703              		.loc 1 1280 0
 1704 0014 01F00F01 		and	r1, r1, #15
 1705              	.LVL100:
 1706 0018 3143     		orrs	r1, r1, r6
 1707 001a 2943     		orrs	r1, r1, r5
 1708 001c 2143     		orrs	r1, r1, r4
 1709 001e 1970     		strb	r1, [r3]
 1710              	.L202:
ARM GAS  /var/folders/m4/4md61f0s1_g0rzfghffqnxvr0000gn/T//ccZNYUOX.s 			page 31


 1711 0020 70BD     		pop	{r4, r5, r6, pc}
 1712              	.L206:
 1713 0022 00BF     		.align	2
 1714              	.L205:
 1715 0024 143C0240 		.word	1073888276
 1716              		.cfi_endproc
 1717              	.LFE147:
 1718              		.size	FLASH_OB_UserConfig, .-FLASH_OB_UserConfig
 1719              		.section	.text.FLASH_OB_Launch,"ax",%progbits
 1720              		.align	2
 1721              		.p2align 4,,15
 1722              		.global	FLASH_OB_Launch
 1723              		.thumb
 1724              		.thumb_func
 1725              		.type	FLASH_OB_Launch, %function
 1726              	FLASH_OB_Launch:
 1727              	.LFB150:
 1728              		.loc 1 1334 0
 1729              		.cfi_startproc
 1730              		@ args = 0, pretend = 0, frame = 0
 1731              		@ frame_needed = 0, uses_anonymous_args = 0
 1732              		@ link register save eliminated.
 1733              	.LVL101:
 1734              		.loc 1 1338 0
 1735 0000 034A     		ldr	r2, .L208
 1736 0002 1378     		ldrb	r3, [r2]	@ zero_extendqisi2
 1737 0004 43F00203 		orr	r3, r3, #2
 1738 0008 1370     		strb	r3, [r2]
 1739              		.loc 1 1341 0
 1740 000a FFF7FEBF 		b	FLASH_WaitForLastOperation
 1741              	.LVL102:
 1742              	.L209:
 1743 000e 00BF     		.align	2
 1744              	.L208:
 1745 0010 143C0240 		.word	1073888276
 1746              		.cfi_endproc
 1747              	.LFE150:
 1748              		.size	FLASH_OB_Launch, .-FLASH_OB_Launch
 1749              		.text
 1750              	.Letext0:
 1751              		.file 2 "/opt/homebrew-cask/Caskroom/gcc-arm-embedded/5_2-2015q4,20151219/gcc-arm-none-eabi-5_2-20
 1752              		.file 3 "/opt/homebrew-cask/Caskroom/gcc-arm-embedded/5_2-2015q4,20151219/gcc-arm-none-eabi-5_2-20
 1753              		.file 4 "ChibiOS_16.1.4/os/ext/CMSIS/ST/STM32F4xx/stm32f405xx.h"
 1754              		.file 5 "ChibiOS_16.1.4/os/ext/CMSIS/ST/STM32F4xx/stm32f4xx.h"
 1755              		.file 6 "ChibiOS_16.1.4/ext/stdperiph_stm32f4/inc/stm32f4xx_flash.h"
 1756              		.file 7 "ChibiOS_16.1.4/os/ext/CMSIS/include/core_cm4.h"
 1757              		.section	.debug_info,"",%progbits
 1758              	.Ldebug_info0:
 1759 0000 EA090000 		.4byte	0x9ea
 1760 0004 0400     		.2byte	0x4
 1761 0006 00000000 		.4byte	.Ldebug_abbrev0
 1762 000a 04       		.byte	0x4
 1763 000b 01       		.uleb128 0x1
 1764 000c 8C000000 		.4byte	.LASF98
 1765 0010 0C       		.byte	0xc
 1766 0011 82020000 		.4byte	.LASF99
 1767 0015 92010000 		.4byte	.LASF100
ARM GAS  /var/folders/m4/4md61f0s1_g0rzfghffqnxvr0000gn/T//ccZNYUOX.s 			page 32


 1768 0019 00000000 		.4byte	.Ldebug_ranges0+0
 1769 001d 00000000 		.4byte	0
 1770 0021 00000000 		.4byte	.Ldebug_line0
 1771 0025 02       		.uleb128 0x2
 1772 0026 08       		.byte	0x8
 1773 0027 07       		.byte	0x7
 1774 0028 49040000 		.4byte	.LASF0
 1775 002c 02       		.uleb128 0x2
 1776 002d 01       		.byte	0x1
 1777 002e 06       		.byte	0x6
 1778 002f 29040000 		.4byte	.LASF1
 1779 0033 03       		.uleb128 0x3
 1780 0034 81030000 		.4byte	.LASF4
 1781 0038 02       		.byte	0x2
 1782 0039 1D       		.byte	0x1d
 1783 003a 3E000000 		.4byte	0x3e
 1784 003e 02       		.uleb128 0x2
 1785 003f 01       		.byte	0x1
 1786 0040 08       		.byte	0x8
 1787 0041 E8030000 		.4byte	.LASF2
 1788 0045 02       		.uleb128 0x2
 1789 0046 02       		.byte	0x2
 1790 0047 05       		.byte	0x5
 1791 0048 00020000 		.4byte	.LASF3
 1792 004c 03       		.uleb128 0x3
 1793 004d EE010000 		.4byte	.LASF5
 1794 0051 02       		.byte	0x2
 1795 0052 2B       		.byte	0x2b
 1796 0053 57000000 		.4byte	0x57
 1797 0057 02       		.uleb128 0x2
 1798 0058 02       		.byte	0x2
 1799 0059 07       		.byte	0x7
 1800 005a BD040000 		.4byte	.LASF6
 1801 005e 03       		.uleb128 0x3
 1802 005f B5050000 		.4byte	.LASF7
 1803 0063 02       		.byte	0x2
 1804 0064 3F       		.byte	0x3f
 1805 0065 69000000 		.4byte	0x69
 1806 0069 02       		.uleb128 0x2
 1807 006a 04       		.byte	0x4
 1808 006b 05       		.byte	0x5
 1809 006c 52030000 		.4byte	.LASF8
 1810 0070 03       		.uleb128 0x3
 1811 0071 90050000 		.4byte	.LASF9
 1812 0075 02       		.byte	0x2
 1813 0076 41       		.byte	0x41
 1814 0077 7B000000 		.4byte	0x7b
 1815 007b 02       		.uleb128 0x2
 1816 007c 04       		.byte	0x4
 1817 007d 07       		.byte	0x7
 1818 007e AB040000 		.4byte	.LASF10
 1819 0082 02       		.uleb128 0x2
 1820 0083 08       		.byte	0x8
 1821 0084 05       		.byte	0x5
 1822 0085 13030000 		.4byte	.LASF11
 1823 0089 03       		.uleb128 0x3
 1824 008a 34050000 		.4byte	.LASF12
ARM GAS  /var/folders/m4/4md61f0s1_g0rzfghffqnxvr0000gn/T//ccZNYUOX.s 			page 33


 1825 008e 02       		.byte	0x2
 1826 008f 5B       		.byte	0x5b
 1827 0090 25000000 		.4byte	0x25
 1828 0094 04       		.uleb128 0x4
 1829 0095 04       		.byte	0x4
 1830 0096 05       		.byte	0x5
 1831 0097 696E7400 		.ascii	"int\000"
 1832 009b 02       		.uleb128 0x2
 1833 009c 04       		.byte	0x4
 1834 009d 07       		.byte	0x7
 1835 009e 84040000 		.4byte	.LASF13
 1836 00a2 03       		.uleb128 0x3
 1837 00a3 40020000 		.4byte	.LASF14
 1838 00a7 03       		.byte	0x3
 1839 00a8 14       		.byte	0x14
 1840 00a9 33000000 		.4byte	0x33
 1841 00ad 03       		.uleb128 0x3
 1842 00ae FC040000 		.4byte	.LASF15
 1843 00b2 03       		.byte	0x3
 1844 00b3 1A       		.byte	0x1a
 1845 00b4 4C000000 		.4byte	0x4c
 1846 00b8 03       		.uleb128 0x3
 1847 00b9 05050000 		.4byte	.LASF16
 1848 00bd 03       		.byte	0x3
 1849 00be 1F       		.byte	0x1f
 1850 00bf 5E000000 		.4byte	0x5e
 1851 00c3 03       		.uleb128 0x3
 1852 00c4 6B040000 		.4byte	.LASF17
 1853 00c8 03       		.byte	0x3
 1854 00c9 20       		.byte	0x20
 1855 00ca 70000000 		.4byte	0x70
 1856 00ce 03       		.uleb128 0x3
 1857 00cf 2E000000 		.4byte	.LASF18
 1858 00d3 03       		.byte	0x3
 1859 00d4 26       		.byte	0x26
 1860 00d5 89000000 		.4byte	0x89
 1861 00d9 02       		.uleb128 0x2
 1862 00da 04       		.byte	0x4
 1863 00db 07       		.byte	0x7
 1864 00dc 52000000 		.4byte	.LASF19
 1865 00e0 05       		.uleb128 0x5
 1866 00e1 C3000000 		.4byte	0xc3
 1867 00e5 06       		.uleb128 0x6
 1868 00e6 1C       		.byte	0x1c
 1869 00e7 04       		.byte	0x4
 1870 00e8 7B01     		.2byte	0x17b
 1871 00ea 48010000 		.4byte	0x148
 1872 00ee 07       		.uleb128 0x7
 1873 00ef 41435200 		.ascii	"ACR\000"
 1874 00f3 04       		.byte	0x4
 1875 00f4 7D01     		.2byte	0x17d
 1876 00f6 E0000000 		.4byte	0xe0
 1877 00fa 00       		.byte	0
 1878 00fb 08       		.uleb128 0x8
 1879 00fc E3030000 		.4byte	.LASF20
 1880 0100 04       		.byte	0x4
 1881 0101 7E01     		.2byte	0x17e
ARM GAS  /var/folders/m4/4md61f0s1_g0rzfghffqnxvr0000gn/T//ccZNYUOX.s 			page 34


 1882 0103 E0000000 		.4byte	0xe0
 1883 0107 04       		.byte	0x4
 1884 0108 08       		.uleb128 0x8
 1885 0109 02030000 		.4byte	.LASF21
 1886 010d 04       		.byte	0x4
 1887 010e 7F01     		.2byte	0x17f
 1888 0110 E0000000 		.4byte	0xe0
 1889 0114 08       		.byte	0x8
 1890 0115 07       		.uleb128 0x7
 1891 0116 535200   		.ascii	"SR\000"
 1892 0119 04       		.byte	0x4
 1893 011a 8001     		.2byte	0x180
 1894 011c E0000000 		.4byte	0xe0
 1895 0120 0C       		.byte	0xc
 1896 0121 07       		.uleb128 0x7
 1897 0122 435200   		.ascii	"CR\000"
 1898 0125 04       		.byte	0x4
 1899 0126 8101     		.2byte	0x181
 1900 0128 E0000000 		.4byte	0xe0
 1901 012c 10       		.byte	0x10
 1902 012d 08       		.uleb128 0x8
 1903 012e E3060000 		.4byte	.LASF22
 1904 0132 04       		.byte	0x4
 1905 0133 8201     		.2byte	0x182
 1906 0135 E0000000 		.4byte	0xe0
 1907 0139 14       		.byte	0x14
 1908 013a 08       		.uleb128 0x8
 1909 013b CC030000 		.4byte	.LASF23
 1910 013f 04       		.byte	0x4
 1911 0140 8301     		.2byte	0x183
 1912 0142 E0000000 		.4byte	0xe0
 1913 0146 18       		.byte	0x18
 1914 0147 00       		.byte	0
 1915 0148 09       		.uleb128 0x9
 1916 0149 62060000 		.4byte	.LASF24
 1917 014d 04       		.byte	0x4
 1918 014e 8401     		.2byte	0x184
 1919 0150 E5000000 		.4byte	0xe5
 1920 0154 0A       		.uleb128 0xa
 1921 0155 01       		.byte	0x1
 1922 0156 3E000000 		.4byte	0x3e
 1923 015a 05       		.byte	0x5
 1924 015b B8       		.byte	0xb8
 1925 015c 6D010000 		.4byte	0x16d
 1926 0160 0B       		.uleb128 0xb
 1927 0161 2E050000 		.4byte	.LASF25
 1928 0165 00       		.byte	0
 1929 0166 0C       		.uleb128 0xc
 1930 0167 53455400 		.ascii	"SET\000"
 1931 016b 01       		.byte	0x1
 1932 016c 00       		.byte	0
 1933 016d 03       		.uleb128 0x3
 1934 016e D8060000 		.4byte	.LASF26
 1935 0172 05       		.byte	0x5
 1936 0173 BB       		.byte	0xbb
 1937 0174 54010000 		.4byte	0x154
 1938 0178 0A       		.uleb128 0xa
ARM GAS  /var/folders/m4/4md61f0s1_g0rzfghffqnxvr0000gn/T//ccZNYUOX.s 			page 35


 1939 0179 01       		.byte	0x1
 1940 017a 3E000000 		.4byte	0x3e
 1941 017e 05       		.byte	0x5
 1942 017f BE       		.byte	0xbe
 1943 0180 91010000 		.4byte	0x191
 1944 0184 0B       		.uleb128 0xb
 1945 0185 7A020000 		.4byte	.LASF27
 1946 0189 00       		.byte	0
 1947 018a 0B       		.uleb128 0xb
 1948 018b E9060000 		.4byte	.LASF28
 1949 018f 01       		.byte	0x1
 1950 0190 00       		.byte	0
 1951 0191 03       		.uleb128 0x3
 1952 0192 80050000 		.4byte	.LASF29
 1953 0196 05       		.byte	0x5
 1954 0197 C1       		.byte	0xc1
 1955 0198 78010000 		.4byte	0x178
 1956 019c 0A       		.uleb128 0xa
 1957 019d 01       		.byte	0x1
 1958 019e 3E000000 		.4byte	0x3e
 1959 01a2 06       		.byte	0x6
 1960 01a3 35       		.byte	0x35
 1961 01a4 DF010000 		.4byte	0x1df
 1962 01a8 0B       		.uleb128 0xb
 1963 01a9 A0040000 		.4byte	.LASF30
 1964 01ad 01       		.byte	0x1
 1965 01ae 0B       		.uleb128 0xb
 1966 01af 08070000 		.4byte	.LASF31
 1967 01b3 02       		.byte	0x2
 1968 01b4 0B       		.uleb128 0xb
 1969 01b5 52060000 		.4byte	.LASF32
 1970 01b9 03       		.byte	0x3
 1971 01ba 0B       		.uleb128 0xb
 1972 01bb C8060000 		.4byte	.LASF33
 1973 01bf 04       		.byte	0x4
 1974 01c0 0B       		.uleb128 0xb
 1975 01c1 2F060000 		.4byte	.LASF34
 1976 01c5 05       		.byte	0x5
 1977 01c6 0B       		.uleb128 0xb
 1978 01c7 1E000000 		.4byte	.LASF35
 1979 01cb 06       		.byte	0x6
 1980 01cc 0B       		.uleb128 0xb
 1981 01cd F2050000 		.4byte	.LASF36
 1982 01d1 07       		.byte	0x7
 1983 01d2 0B       		.uleb128 0xb
 1984 01d3 6B030000 		.4byte	.LASF37
 1985 01d7 08       		.byte	0x8
 1986 01d8 0B       		.uleb128 0xb
 1987 01d9 91040000 		.4byte	.LASF38
 1988 01dd 09       		.byte	0x9
 1989 01de 00       		.byte	0
 1990 01df 03       		.uleb128 0x3
 1991 01e0 48020000 		.4byte	.LASF39
 1992 01e4 06       		.byte	0x6
 1993 01e5 3F       		.byte	0x3f
 1994 01e6 9C010000 		.4byte	0x19c
 1995 01ea 0D       		.uleb128 0xd
ARM GAS  /var/folders/m4/4md61f0s1_g0rzfghffqnxvr0000gn/T//ccZNYUOX.s 			page 36


 1996 01eb 0D050000 		.4byte	.LASF101
 1997 01ef 01       		.byte	0x1
 1998 01f0 0D06     		.2byte	0x60d
 1999 01f2 DF010000 		.4byte	0x1df
 2000 01f6 01       		.byte	0x1
 2001 01f7 08020000 		.4byte	0x208
 2002 01fb 0E       		.uleb128 0xe
 2003 01fc 8B030000 		.4byte	.LASF102
 2004 0200 01       		.byte	0x1
 2005 0201 0F06     		.2byte	0x60f
 2006 0203 DF010000 		.4byte	0x1df
 2007 0207 00       		.byte	0
 2008 0208 0F       		.uleb128 0xf
 2009 0209 1D050000 		.4byte	.LASF40
 2010 020d 01       		.byte	0x1
 2011 020e 2701     		.2byte	0x127
 2012 0210 00000000 		.4byte	.LFB123
 2013 0214 0C000000 		.4byte	.LFE123-.LFB123
 2014 0218 01       		.uleb128 0x1
 2015 0219 9C       		.byte	0x9c
 2016 021a 2F020000 		.4byte	0x22f
 2017 021e 10       		.uleb128 0x10
 2018 021f E4050000 		.4byte	.LASF42
 2019 0223 01       		.byte	0x1
 2020 0224 2701     		.2byte	0x127
 2021 0226 C3000000 		.4byte	0xc3
 2022 022a 00000000 		.4byte	.LLST0
 2023 022e 00       		.byte	0
 2024 022f 0F       		.uleb128 0xf
 2025 0230 11040000 		.4byte	.LASF41
 2026 0234 01       		.byte	0x1
 2027 0235 3601     		.2byte	0x136
 2028 0237 00000000 		.4byte	.LFB124
 2029 023b 1C000000 		.4byte	.LFE124-.LFB124
 2030 023f 01       		.uleb128 0x1
 2031 0240 9C       		.byte	0x9c
 2032 0241 54020000 		.4byte	0x254
 2033 0245 11       		.uleb128 0x11
 2034 0246 5F020000 		.4byte	.LASF43
 2035 024a 01       		.byte	0x1
 2036 024b 3601     		.2byte	0x136
 2037 024d 91010000 		.4byte	0x191
 2038 0251 01       		.uleb128 0x1
 2039 0252 50       		.byte	0x50
 2040 0253 00       		.byte	0
 2041 0254 0F       		.uleb128 0xf
 2042 0255 D3020000 		.4byte	.LASF44
 2043 0259 01       		.byte	0x1
 2044 025a 4C01     		.2byte	0x14c
 2045 025c 00000000 		.4byte	.LFB125
 2046 0260 1C000000 		.4byte	.LFE125-.LFB125
 2047 0264 01       		.uleb128 0x1
 2048 0265 9C       		.byte	0x9c
 2049 0266 79020000 		.4byte	0x279
 2050 026a 11       		.uleb128 0x11
 2051 026b 5F020000 		.4byte	.LASF43
 2052 026f 01       		.byte	0x1
ARM GAS  /var/folders/m4/4md61f0s1_g0rzfghffqnxvr0000gn/T//ccZNYUOX.s 			page 37


 2053 0270 4C01     		.2byte	0x14c
 2054 0272 91010000 		.4byte	0x191
 2055 0276 01       		.uleb128 0x1
 2056 0277 50       		.byte	0x50
 2057 0278 00       		.byte	0
 2058 0279 0F       		.uleb128 0xf
 2059 027a 3F060000 		.4byte	.LASF45
 2060 027e 01       		.byte	0x1
 2061 027f 6101     		.2byte	0x161
 2062 0281 00000000 		.4byte	.LFB126
 2063 0285 1C000000 		.4byte	.LFE126-.LFB126
 2064 0289 01       		.uleb128 0x1
 2065 028a 9C       		.byte	0x9c
 2066 028b 9E020000 		.4byte	0x29e
 2067 028f 11       		.uleb128 0x11
 2068 0290 5F020000 		.4byte	.LASF43
 2069 0294 01       		.byte	0x1
 2070 0295 6101     		.2byte	0x161
 2071 0297 91010000 		.4byte	0x191
 2072 029b 01       		.uleb128 0x1
 2073 029c 50       		.byte	0x50
 2074 029d 00       		.byte	0
 2075 029e 12       		.uleb128 0x12
 2076 029f 97030000 		.4byte	.LASF46
 2077 02a3 01       		.byte	0x1
 2078 02a4 7601     		.2byte	0x176
 2079 02a6 00000000 		.4byte	.LFB127
 2080 02aa 10000000 		.4byte	.LFE127-.LFB127
 2081 02ae 01       		.uleb128 0x1
 2082 02af 9C       		.byte	0x9c
 2083 02b0 12       		.uleb128 0x12
 2084 02b1 ED020000 		.4byte	.LASF47
 2085 02b5 01       		.byte	0x1
 2086 02b6 8101     		.2byte	0x181
 2087 02b8 00000000 		.4byte	.LFB128
 2088 02bc 10000000 		.4byte	.LFE128-.LFB128
 2089 02c0 01       		.uleb128 0x1
 2090 02c1 9C       		.byte	0x9c
 2091 02c2 12       		.uleb128 0x12
 2092 02c3 33020000 		.4byte	.LASF48
 2093 02c7 01       		.byte	0x1
 2094 02c8 B001     		.2byte	0x1b0
 2095 02ca 00000000 		.4byte	.LFB129
 2096 02ce 20000000 		.4byte	.LFE129-.LFB129
 2097 02d2 01       		.uleb128 0x1
 2098 02d3 9C       		.byte	0x9c
 2099 02d4 12       		.uleb128 0x12
 2100 02d5 F6030000 		.4byte	.LASF49
 2101 02d9 01       		.byte	0x1
 2102 02da BF01     		.2byte	0x1bf
 2103 02dc 00000000 		.4byte	.LFB130
 2104 02e0 10000000 		.4byte	.LFE130-.LFB130
 2105 02e4 01       		.uleb128 0x1
 2106 02e5 9C       		.byte	0x9c
 2107 02e6 12       		.uleb128 0x12
 2108 02e7 01040000 		.4byte	.LASF50
 2109 02eb 01       		.byte	0x1
ARM GAS  /var/folders/m4/4md61f0s1_g0rzfghffqnxvr0000gn/T//ccZNYUOX.s 			page 38


 2110 02ec DD03     		.2byte	0x3dd
 2111 02ee 00000000 		.4byte	.LFB139
 2112 02f2 20000000 		.4byte	.LFE139-.LFB139
 2113 02f6 01       		.uleb128 0x1
 2114 02f7 9C       		.byte	0x9c
 2115 02f8 12       		.uleb128 0x12
 2116 02f9 D8010000 		.4byte	.LASF51
 2117 02fd 01       		.byte	0x1
 2118 02fe EC03     		.2byte	0x3ec
 2119 0300 00000000 		.4byte	.LFB140
 2120 0304 10000000 		.4byte	.LFE140-.LFB140
 2121 0308 01       		.uleb128 0x1
 2122 0309 9C       		.byte	0x9c
 2123 030a 0F       		.uleb128 0xf
 2124 030b 98060000 		.4byte	.LASF52
 2125 030f 01       		.byte	0x1
 2126 0310 5F04     		.2byte	0x45f
 2127 0312 00000000 		.4byte	.LFB143
 2128 0316 14000000 		.4byte	.LFE143-.LFB143
 2129 031a 01       		.uleb128 0x1
 2130 031b 9C       		.byte	0x9c
 2131 031c 41030000 		.4byte	0x341
 2132 0320 10       		.uleb128 0x10
 2133 0321 D0040000 		.4byte	.LASF53
 2134 0325 01       		.byte	0x1
 2135 0326 5F04     		.2byte	0x45f
 2136 0328 A2000000 		.4byte	0xa2
 2137 032c 21000000 		.4byte	.LLST1
 2138 0330 13       		.uleb128 0x13
 2139 0331 06060000 		.4byte	.LASF60
 2140 0335 01       		.byte	0x1
 2141 0336 6104     		.2byte	0x461
 2142 0338 A2000000 		.4byte	0xa2
 2143 033c 42000000 		.4byte	.LLST2
 2144 0340 00       		.byte	0
 2145 0341 0F       		.uleb128 0xf
 2146 0342 B3030000 		.4byte	.LASF54
 2147 0346 01       		.byte	0x1
 2148 0347 0F05     		.2byte	0x50f
 2149 0349 00000000 		.4byte	.LFB148
 2150 034d 18000000 		.4byte	.LFE148-.LFB148
 2151 0351 01       		.uleb128 0x1
 2152 0352 9C       		.byte	0x9c
 2153 0353 68030000 		.4byte	0x368
 2154 0357 10       		.uleb128 0x10
 2155 0358 77000000 		.4byte	.LASF55
 2156 035c 01       		.byte	0x1
 2157 035d 0F05     		.2byte	0x50f
 2158 035f A2000000 		.4byte	0xa2
 2159 0363 67000000 		.4byte	.LLST3
 2160 0367 00       		.byte	0
 2161 0368 0F       		.uleb128 0xf
 2162 0369 E0040000 		.4byte	.LASF56
 2163 036d 01       		.byte	0x1
 2164 036e 2405     		.2byte	0x524
 2165 0370 00000000 		.4byte	.LFB149
 2166 0374 18000000 		.4byte	.LFE149-.LFB149
ARM GAS  /var/folders/m4/4md61f0s1_g0rzfghffqnxvr0000gn/T//ccZNYUOX.s 			page 39


 2167 0378 01       		.uleb128 0x1
 2168 0379 9C       		.byte	0x9c
 2169 037a 8F030000 		.4byte	0x38f
 2170 037e 10       		.uleb128 0x10
 2171 037f AE050000 		.4byte	.LASF57
 2172 0383 01       		.byte	0x1
 2173 0384 2405     		.2byte	0x524
 2174 0386 A2000000 		.4byte	0xa2
 2175 038a 88000000 		.4byte	.LLST4
 2176 038e 00       		.byte	0
 2177 038f 14       		.uleb128 0x14
 2178 0390 C7010000 		.4byte	.LASF62
 2179 0394 01       		.byte	0x1
 2180 0395 4805     		.2byte	0x548
 2181 0397 A2000000 		.4byte	0xa2
 2182 039b 00000000 		.4byte	.LFB151
 2183 039f 10000000 		.4byte	.LFE151-.LFB151
 2184 03a3 01       		.uleb128 0x1
 2185 03a4 9C       		.byte	0x9c
 2186 03a5 15       		.uleb128 0x15
 2187 03a6 68020000 		.4byte	.LASF58
 2188 03aa 01       		.byte	0x1
 2189 03ab 6F05     		.2byte	0x56f
 2190 03ad AD000000 		.4byte	0xad
 2191 03b1 01       		.byte	0x1
 2192 03b2 16       		.uleb128 0x16
 2193 03b3 A5030000 		.4byte	0x3a5
 2194 03b7 00000000 		.4byte	.LFB154
 2195 03bb 0C000000 		.4byte	.LFE154-.LFB154
 2196 03bf 01       		.uleb128 0x1
 2197 03c0 9C       		.byte	0x9c
 2198 03c1 15       		.uleb128 0x15
 2199 03c2 9B050000 		.4byte	.LASF59
 2200 03c6 01       		.byte	0x1
 2201 03c7 7D05     		.2byte	0x57d
 2202 03c9 AD000000 		.4byte	0xad
 2203 03cd 01       		.byte	0x1
 2204 03ce 16       		.uleb128 0x16
 2205 03cf C1030000 		.4byte	0x3c1
 2206 03d3 00000000 		.4byte	.LFB155
 2207 03d7 0C000000 		.4byte	.LFE155-.LFB155
 2208 03db 01       		.uleb128 0x1
 2209 03dc 9C       		.byte	0x9c
 2210 03dd 17       		.uleb128 0x17
 2211 03de 5B030000 		.4byte	.LASF66
 2212 03e2 01       		.byte	0x1
 2213 03e3 8A05     		.2byte	0x58a
 2214 03e5 6D010000 		.4byte	0x16d
 2215 03e9 00000000 		.4byte	.LFB156
 2216 03ed 10000000 		.4byte	.LFE156-.LFB156
 2217 03f1 01       		.uleb128 0x1
 2218 03f2 9C       		.byte	0x9c
 2219 03f3 08040000 		.4byte	0x408
 2220 03f7 13       		.uleb128 0x13
 2221 03f8 60040000 		.4byte	.LASF61
 2222 03fc 01       		.byte	0x1
 2223 03fd 8C05     		.2byte	0x58c
ARM GAS  /var/folders/m4/4md61f0s1_g0rzfghffqnxvr0000gn/T//ccZNYUOX.s 			page 40


 2224 03ff 6D010000 		.4byte	0x16d
 2225 0403 A9000000 		.4byte	.LLST5
 2226 0407 00       		.byte	0
 2227 0408 14       		.uleb128 0x14
 2228 0409 70050000 		.4byte	.LASF63
 2229 040d 01       		.byte	0x1
 2230 040e A205     		.2byte	0x5a2
 2231 0410 A2000000 		.4byte	0xa2
 2232 0414 00000000 		.4byte	.LFB157
 2233 0418 10000000 		.4byte	.LFE157-.LFB157
 2234 041c 01       		.uleb128 0x1
 2235 041d 9C       		.byte	0x9c
 2236 041e 0F       		.uleb128 0xf
 2237 041f 00000000 		.4byte	.LASF64
 2238 0423 01       		.byte	0x1
 2239 0424 BF05     		.2byte	0x5bf
 2240 0426 00000000 		.4byte	.LFB158
 2241 042a 1C000000 		.4byte	.LFE158-.LFB158
 2242 042e 01       		.uleb128 0x1
 2243 042f 9C       		.byte	0x9c
 2244 0430 53040000 		.4byte	0x453
 2245 0434 10       		.uleb128 0x10
 2246 0435 5B000000 		.4byte	.LASF65
 2247 0439 01       		.byte	0x1
 2248 043a BF05     		.2byte	0x5bf
 2249 043c C3000000 		.4byte	0xc3
 2250 0440 D0000000 		.4byte	.LLST6
 2251 0444 11       		.uleb128 0x11
 2252 0445 5F020000 		.4byte	.LASF43
 2253 0449 01       		.byte	0x1
 2254 044a BF05     		.2byte	0x5bf
 2255 044c 91010000 		.4byte	0x191
 2256 0450 01       		.uleb128 0x1
 2257 0451 51       		.byte	0x51
 2258 0452 00       		.byte	0
 2259 0453 17       		.uleb128 0x17
 2260 0454 35040000 		.4byte	.LASF67
 2261 0458 01       		.byte	0x1
 2262 0459 DF05     		.2byte	0x5df
 2263 045b 6D010000 		.4byte	0x16d
 2264 045f 00000000 		.4byte	.LFB159
 2265 0463 14000000 		.4byte	.LFE159-.LFB159
 2266 0467 01       		.uleb128 0x1
 2267 0468 9C       		.byte	0x9c
 2268 0469 8E040000 		.4byte	0x48e
 2269 046d 10       		.uleb128 0x10
 2270 046e 21030000 		.4byte	.LASF68
 2271 0472 01       		.byte	0x1
 2272 0473 DF05     		.2byte	0x5df
 2273 0475 C3000000 		.4byte	0xc3
 2274 0479 0A010000 		.4byte	.LLST7
 2275 047d 13       		.uleb128 0x13
 2276 047e B6060000 		.4byte	.LASF69
 2277 0482 01       		.byte	0x1
 2278 0483 E105     		.2byte	0x5e1
 2279 0485 6D010000 		.4byte	0x16d
 2280 0489 2B010000 		.4byte	.LLST8
ARM GAS  /var/folders/m4/4md61f0s1_g0rzfghffqnxvr0000gn/T//ccZNYUOX.s 			page 41


 2281 048d 00       		.byte	0
 2282 048e 0F       		.uleb128 0xf
 2283 048f 74040000 		.4byte	.LASF70
 2284 0493 01       		.byte	0x1
 2285 0494 FE05     		.2byte	0x5fe
 2286 0496 00000000 		.4byte	.LFB160
 2287 049a 0C000000 		.4byte	.LFE160-.LFB160
 2288 049e 01       		.uleb128 0x1
 2289 049f 9C       		.byte	0x9c
 2290 04a0 B3040000 		.4byte	0x4b3
 2291 04a4 11       		.uleb128 0x11
 2292 04a5 21030000 		.4byte	.LASF68
 2293 04a9 01       		.byte	0x1
 2294 04aa FE05     		.2byte	0x5fe
 2295 04ac C3000000 		.4byte	0xc3
 2296 04b0 01       		.uleb128 0x1
 2297 04b1 50       		.byte	0x50
 2298 04b2 00       		.byte	0
 2299 04b3 18       		.uleb128 0x18
 2300 04b4 EA010000 		.4byte	0x1ea
 2301 04b8 00000000 		.4byte	.LFB161
 2302 04bc 40000000 		.4byte	.LFE161-.LFB161
 2303 04c0 01       		.uleb128 0x1
 2304 04c1 9C       		.byte	0x9c
 2305 04c2 DF040000 		.4byte	0x4df
 2306 04c6 19       		.uleb128 0x19
 2307 04c7 FB010000 		.4byte	0x1fb
 2308 04cb 64010000 		.4byte	.LLST9
 2309 04cf 1A       		.uleb128 0x1a
 2310 04d0 2C000000 		.4byte	.LBB5
 2311 04d4 14000000 		.4byte	.LBE5-.LBB5
 2312 04d8 1B       		.uleb128 0x1b
 2313 04d9 FB010000 		.4byte	0x1fb
 2314 04dd 00       		.byte	0
 2315 04de 00       		.byte	0
 2316 04df 17       		.uleb128 0x17
 2317 04e0 70060000 		.4byte	.LASF71
 2318 04e4 01       		.byte	0x1
 2319 04e5 3F06     		.2byte	0x63f
 2320 04e7 DF010000 		.4byte	0x1df
 2321 04eb 00000000 		.4byte	.LFB162
 2322 04ef 26000000 		.4byte	.LFE162-.LFB162
 2323 04f3 01       		.uleb128 0x1
 2324 04f4 9C       		.byte	0x9c
 2325 04f5 12050000 		.4byte	0x512
 2326 04f9 1C       		.uleb128 0x1c
 2327 04fa D9040000 		.4byte	.LASF72
 2328 04fe 01       		.byte	0x1
 2329 04ff 4106     		.2byte	0x641
 2330 0501 12050000 		.4byte	0x512
 2331 0505 02       		.uleb128 0x2
 2332 0506 91       		.byte	0x91
 2333 0507 77       		.sleb128 -9
 2334 0508 1D       		.uleb128 0x1d
 2335 0509 0E000000 		.4byte	.LVL27
 2336 050d EA010000 		.4byte	0x1ea
 2337 0511 00       		.byte	0
ARM GAS  /var/folders/m4/4md61f0s1_g0rzfghffqnxvr0000gn/T//ccZNYUOX.s 			page 42


 2338 0512 05       		.uleb128 0x5
 2339 0513 DF010000 		.4byte	0x1df
 2340 0517 17       		.uleb128 0x17
 2341 0518 40030000 		.4byte	.LASF73
 2342 051c 01       		.byte	0x1
 2343 051d EA01     		.2byte	0x1ea
 2344 051f DF010000 		.4byte	0x1df
 2345 0523 00000000 		.4byte	.LFB131
 2346 0527 74000000 		.4byte	.LFE131-.LFB131
 2347 052b 01       		.uleb128 0x1
 2348 052c 9C       		.byte	0x9c
 2349 052d 8D050000 		.4byte	0x58d
 2350 0531 10       		.uleb128 0x10
 2351 0532 7F000000 		.4byte	.LASF74
 2352 0536 01       		.byte	0x1
 2353 0537 EA01     		.2byte	0x1ea
 2354 0539 C3000000 		.4byte	0xc3
 2355 053d 8F010000 		.4byte	.LLST10
 2356 0541 10       		.uleb128 0x10
 2357 0542 10060000 		.4byte	.LASF75
 2358 0546 01       		.byte	0x1
 2359 0547 EA01     		.2byte	0x1ea
 2360 0549 A2000000 		.4byte	0xa2
 2361 054d DC010000 		.4byte	.LLST11
 2362 0551 13       		.uleb128 0x13
 2363 0552 55020000 		.4byte	.LASF76
 2364 0556 01       		.byte	0x1
 2365 0557 EC01     		.2byte	0x1ec
 2366 0559 C3000000 		.4byte	0xc3
 2367 055d 21020000 		.4byte	.LLST12
 2368 0561 13       		.uleb128 0x13
 2369 0562 D9040000 		.4byte	.LASF72
 2370 0566 01       		.byte	0x1
 2371 0567 ED01     		.2byte	0x1ed
 2372 0569 DF010000 		.4byte	0x1df
 2373 056d 63020000 		.4byte	.LLST13
 2374 0571 1D       		.uleb128 0x1d
 2375 0572 1A000000 		.4byte	.LVL30
 2376 0576 DF040000 		.4byte	0x4df
 2377 057a 1D       		.uleb128 0x1d
 2378 057b 4C000000 		.4byte	.LVL32
 2379 057f DF040000 		.4byte	0x4df
 2380 0583 1D       		.uleb128 0x1d
 2381 0584 64000000 		.4byte	.LVL35
 2382 0588 DF040000 		.4byte	0x4df
 2383 058c 00       		.byte	0
 2384 058d 17       		.uleb128 0x17
 2385 058e 55050000 		.4byte	.LASF77
 2386 0592 01       		.byte	0x1
 2387 0593 7F02     		.2byte	0x27f
 2388 0595 DF010000 		.4byte	0x1df
 2389 0599 00000000 		.4byte	.LFB133
 2390 059d 5C000000 		.4byte	.LFE133-.LFB133
 2391 05a1 01       		.uleb128 0x1
 2392 05a2 9C       		.byte	0x9c
 2393 05a3 EA050000 		.4byte	0x5ea
 2394 05a7 10       		.uleb128 0x10
ARM GAS  /var/folders/m4/4md61f0s1_g0rzfghffqnxvr0000gn/T//ccZNYUOX.s 			page 43


 2395 05a8 10060000 		.4byte	.LASF75
 2396 05ac 01       		.byte	0x1
 2397 05ad 7F02     		.2byte	0x27f
 2398 05af A2000000 		.4byte	0xa2
 2399 05b3 B0020000 		.4byte	.LLST14
 2400 05b7 13       		.uleb128 0x13
 2401 05b8 55020000 		.4byte	.LASF76
 2402 05bc 01       		.byte	0x1
 2403 05bd 8102     		.2byte	0x281
 2404 05bf C3000000 		.4byte	0xc3
 2405 05c3 D1020000 		.4byte	.LLST15
 2406 05c7 13       		.uleb128 0x13
 2407 05c8 D9040000 		.4byte	.LASF72
 2408 05cc 01       		.byte	0x1
 2409 05cd 8202     		.2byte	0x282
 2410 05cf DF010000 		.4byte	0x1df
 2411 05d3 07030000 		.4byte	.LLST16
 2412 05d7 1D       		.uleb128 0x1d
 2413 05d8 08000000 		.4byte	.LVL38
 2414 05dc DF040000 		.4byte	0x4df
 2415 05e0 1D       		.uleb128 0x1d
 2416 05e1 4C000000 		.4byte	.LVL43
 2417 05e5 DF040000 		.4byte	0x4df
 2418 05e9 00       		.byte	0
 2419 05ea 17       		.uleb128 0x17
 2420 05eb 37000000 		.4byte	.LASF78
 2421 05ef 01       		.byte	0x1
 2422 05f0 C202     		.2byte	0x2c2
 2423 05f2 DF010000 		.4byte	0x1df
 2424 05f6 00000000 		.4byte	.LFB134
 2425 05fa 5C000000 		.4byte	.LFE134-.LFB134
 2426 05fe 01       		.uleb128 0x1
 2427 05ff 9C       		.byte	0x9c
 2428 0600 47060000 		.4byte	0x647
 2429 0604 10       		.uleb128 0x10
 2430 0605 10060000 		.4byte	.LASF75
 2431 0609 01       		.byte	0x1
 2432 060a C202     		.2byte	0x2c2
 2433 060c A2000000 		.4byte	0xa2
 2434 0610 31030000 		.4byte	.LLST17
 2435 0614 13       		.uleb128 0x13
 2436 0615 55020000 		.4byte	.LASF76
 2437 0619 01       		.byte	0x1
 2438 061a C402     		.2byte	0x2c4
 2439 061c C3000000 		.4byte	0xc3
 2440 0620 52030000 		.4byte	.LLST18
 2441 0624 13       		.uleb128 0x13
 2442 0625 D9040000 		.4byte	.LASF72
 2443 0629 01       		.byte	0x1
 2444 062a C502     		.2byte	0x2c5
 2445 062c DF010000 		.4byte	0x1df
 2446 0630 88030000 		.4byte	.LLST19
 2447 0634 1D       		.uleb128 0x1d
 2448 0635 08000000 		.4byte	.LVL45
 2449 0639 DF040000 		.4byte	0x4df
 2450 063d 1D       		.uleb128 0x1d
 2451 063e 4C000000 		.4byte	.LVL50
ARM GAS  /var/folders/m4/4md61f0s1_g0rzfghffqnxvr0000gn/T//ccZNYUOX.s 			page 44


 2452 0642 DF040000 		.4byte	0x4df
 2453 0646 00       		.byte	0
 2454 0647 17       		.uleb128 0x17
 2455 0648 F0060000 		.4byte	.LASF79
 2456 064c 01       		.byte	0x1
 2457 064d FB02     		.2byte	0x2fb
 2458 064f DF010000 		.4byte	0x1df
 2459 0653 00000000 		.4byte	.LFB135
 2460 0657 44000000 		.4byte	.LFE135-.LFB135
 2461 065b 01       		.uleb128 0x1
 2462 065c 9C       		.byte	0x9c
 2463 065d A4060000 		.4byte	0x6a4
 2464 0661 10       		.uleb128 0x10
 2465 0662 E6010000 		.4byte	.LASF80
 2466 0666 01       		.byte	0x1
 2467 0667 FB02     		.2byte	0x2fb
 2468 0669 C3000000 		.4byte	0xc3
 2469 066d B2030000 		.4byte	.LLST20
 2470 0671 10       		.uleb128 0x10
 2471 0672 C7030000 		.4byte	.LASF81
 2472 0676 01       		.byte	0x1
 2473 0677 FB02     		.2byte	0x2fb
 2474 0679 CE000000 		.4byte	0xce
 2475 067d DE030000 		.4byte	.LLST21
 2476 0681 13       		.uleb128 0x13
 2477 0682 D9040000 		.4byte	.LASF72
 2478 0686 01       		.byte	0x1
 2479 0687 FD02     		.2byte	0x2fd
 2480 0689 DF010000 		.4byte	0x1df
 2481 068d 06040000 		.4byte	.LLST22
 2482 0691 1D       		.uleb128 0x1d
 2483 0692 0C000000 		.4byte	.LVL52
 2484 0696 DF040000 		.4byte	0x4df
 2485 069a 1D       		.uleb128 0x1d
 2486 069b 34000000 		.4byte	.LVL54
 2487 069f DF040000 		.4byte	0x4df
 2488 06a3 00       		.byte	0
 2489 06a4 17       		.uleb128 0x17
 2490 06a5 1D060000 		.4byte	.LASF82
 2491 06a9 01       		.byte	0x1
 2492 06aa 2603     		.2byte	0x326
 2493 06ac DF010000 		.4byte	0x1df
 2494 06b0 00000000 		.4byte	.LFB136
 2495 06b4 40000000 		.4byte	.LFE136-.LFB136
 2496 06b8 01       		.uleb128 0x1
 2497 06b9 9C       		.byte	0x9c
 2498 06ba 01070000 		.4byte	0x701
 2499 06be 10       		.uleb128 0x10
 2500 06bf E6010000 		.4byte	.LASF80
 2501 06c3 01       		.byte	0x1
 2502 06c4 2603     		.2byte	0x326
 2503 06c6 C3000000 		.4byte	0xc3
 2504 06ca 30040000 		.4byte	.LLST23
 2505 06ce 10       		.uleb128 0x10
 2506 06cf C7030000 		.4byte	.LASF81
 2507 06d3 01       		.byte	0x1
 2508 06d4 2603     		.2byte	0x326
ARM GAS  /var/folders/m4/4md61f0s1_g0rzfghffqnxvr0000gn/T//ccZNYUOX.s 			page 45


 2509 06d6 C3000000 		.4byte	0xc3
 2510 06da 5C040000 		.4byte	.LLST24
 2511 06de 13       		.uleb128 0x13
 2512 06df D9040000 		.4byte	.LASF72
 2513 06e3 01       		.byte	0x1
 2514 06e4 2803     		.2byte	0x328
 2515 06e6 DF010000 		.4byte	0x1df
 2516 06ea 88040000 		.4byte	.LLST25
 2517 06ee 1D       		.uleb128 0x1d
 2518 06ef 0A000000 		.4byte	.LVL57
 2519 06f3 DF040000 		.4byte	0x4df
 2520 06f7 1D       		.uleb128 0x1d
 2521 06f8 30000000 		.4byte	.LVL59
 2522 06fc DF040000 		.4byte	0x4df
 2523 0700 00       		.byte	0
 2524 0701 17       		.uleb128 0x17
 2525 0702 3F050000 		.4byte	.LASF83
 2526 0706 01       		.byte	0x1
 2527 0707 5003     		.2byte	0x350
 2528 0709 DF010000 		.4byte	0x1df
 2529 070d 00000000 		.4byte	.LFB137
 2530 0711 40000000 		.4byte	.LFE137-.LFB137
 2531 0715 01       		.uleb128 0x1
 2532 0716 9C       		.byte	0x9c
 2533 0717 5E070000 		.4byte	0x75e
 2534 071b 10       		.uleb128 0x10
 2535 071c E6010000 		.4byte	.LASF80
 2536 0720 01       		.byte	0x1
 2537 0721 5003     		.2byte	0x350
 2538 0723 C3000000 		.4byte	0xc3
 2539 0727 B2040000 		.4byte	.LLST26
 2540 072b 10       		.uleb128 0x10
 2541 072c C7030000 		.4byte	.LASF81
 2542 0730 01       		.byte	0x1
 2543 0731 5003     		.2byte	0x350
 2544 0733 AD000000 		.4byte	0xad
 2545 0737 DE040000 		.4byte	.LLST27
 2546 073b 13       		.uleb128 0x13
 2547 073c D9040000 		.4byte	.LASF72
 2548 0740 01       		.byte	0x1
 2549 0741 5203     		.2byte	0x352
 2550 0743 DF010000 		.4byte	0x1df
 2551 0747 FF040000 		.4byte	.LLST28
 2552 074b 1D       		.uleb128 0x1d
 2553 074c 0A000000 		.4byte	.LVL62
 2554 0750 DF040000 		.4byte	0x4df
 2555 0754 1D       		.uleb128 0x1d
 2556 0755 30000000 		.4byte	.LVL64
 2557 0759 DF040000 		.4byte	0x4df
 2558 075d 00       		.byte	0
 2559 075e 17       		.uleb128 0x17
 2560 075f D2050000 		.4byte	.LASF84
 2561 0763 01       		.byte	0x1
 2562 0764 7A03     		.2byte	0x37a
 2563 0766 DF010000 		.4byte	0x1df
 2564 076a 00000000 		.4byte	.LFB138
 2565 076e 3C000000 		.4byte	.LFE138-.LFB138
ARM GAS  /var/folders/m4/4md61f0s1_g0rzfghffqnxvr0000gn/T//ccZNYUOX.s 			page 46


 2566 0772 01       		.uleb128 0x1
 2567 0773 9C       		.byte	0x9c
 2568 0774 BB070000 		.4byte	0x7bb
 2569 0778 10       		.uleb128 0x10
 2570 0779 E6010000 		.4byte	.LASF80
 2571 077d 01       		.byte	0x1
 2572 077e 7A03     		.2byte	0x37a
 2573 0780 C3000000 		.4byte	0xc3
 2574 0784 29050000 		.4byte	.LLST29
 2575 0788 10       		.uleb128 0x10
 2576 0789 C7030000 		.4byte	.LASF81
 2577 078d 01       		.byte	0x1
 2578 078e 7A03     		.2byte	0x37a
 2579 0790 A2000000 		.4byte	0xa2
 2580 0794 55050000 		.4byte	.LLST30
 2581 0798 13       		.uleb128 0x13
 2582 0799 D9040000 		.4byte	.LASF72
 2583 079d 01       		.byte	0x1
 2584 079e 7C03     		.2byte	0x37c
 2585 07a0 DF010000 		.4byte	0x1df
 2586 07a4 76050000 		.4byte	.LLST31
 2587 07a8 1D       		.uleb128 0x1d
 2588 07a9 0A000000 		.4byte	.LVL67
 2589 07ad DF040000 		.4byte	0x4df
 2590 07b1 1D       		.uleb128 0x1d
 2591 07b2 2C000000 		.4byte	.LVL69
 2592 07b6 DF040000 		.4byte	0x4df
 2593 07ba 00       		.byte	0
 2594 07bb 0F       		.uleb128 0xf
 2595 07bc BF050000 		.4byte	.LASF85
 2596 07c0 01       		.byte	0x1
 2597 07c1 0304     		.2byte	0x403
 2598 07c3 00000000 		.4byte	.LFB141
 2599 07c7 2C000000 		.4byte	.LFE141-.LFB141
 2600 07cb 01       		.uleb128 0x1
 2601 07cc 9C       		.byte	0x9c
 2602 07cd 0B080000 		.4byte	0x80b
 2603 07d1 10       		.uleb128 0x10
 2604 07d2 F9010000 		.4byte	.LASF86
 2605 07d6 01       		.byte	0x1
 2606 07d7 0304     		.2byte	0x403
 2607 07d9 C3000000 		.4byte	0xc3
 2608 07dd A0050000 		.4byte	.LLST32
 2609 07e1 10       		.uleb128 0x10
 2610 07e2 5F020000 		.4byte	.LASF43
 2611 07e6 01       		.byte	0x1
 2612 07e7 0304     		.2byte	0x403
 2613 07e9 91010000 		.4byte	0x191
 2614 07ed CC050000 		.4byte	.LLST33
 2615 07f1 13       		.uleb128 0x13
 2616 07f2 D9040000 		.4byte	.LASF72
 2617 07f6 01       		.byte	0x1
 2618 07f7 0504     		.2byte	0x405
 2619 07f9 DF010000 		.4byte	0x1df
 2620 07fd ED050000 		.4byte	.LLST34
 2621 0801 1D       		.uleb128 0x1d
 2622 0802 0A000000 		.4byte	.LVL72
ARM GAS  /var/folders/m4/4md61f0s1_g0rzfghffqnxvr0000gn/T//ccZNYUOX.s 			page 47


 2623 0806 DF040000 		.4byte	0x4df
 2624 080a 00       		.byte	0
 2625 080b 0F       		.uleb128 0xf
 2626 080c 2C030000 		.4byte	.LASF87
 2627 0810 01       		.byte	0x1
 2628 0811 2D04     		.2byte	0x42d
 2629 0813 00000000 		.4byte	.LFB142
 2630 0817 2C000000 		.4byte	.LFE142-.LFB142
 2631 081b 01       		.uleb128 0x1
 2632 081c 9C       		.byte	0x9c
 2633 081d 5B080000 		.4byte	0x85b
 2634 0821 10       		.uleb128 0x10
 2635 0822 F9010000 		.4byte	.LASF86
 2636 0826 01       		.byte	0x1
 2637 0827 2D04     		.2byte	0x42d
 2638 0829 C3000000 		.4byte	0xc3
 2639 082d 0C060000 		.4byte	.LLST35
 2640 0831 10       		.uleb128 0x10
 2641 0832 5F020000 		.4byte	.LASF43
 2642 0836 01       		.byte	0x1
 2643 0837 2D04     		.2byte	0x42d
 2644 0839 91010000 		.4byte	0x191
 2645 083d 38060000 		.4byte	.LLST36
 2646 0841 13       		.uleb128 0x13
 2647 0842 D9040000 		.4byte	.LASF72
 2648 0846 01       		.byte	0x1
 2649 0847 2F04     		.2byte	0x42f
 2650 0849 DF010000 		.4byte	0x1df
 2651 084d 59060000 		.4byte	.LLST37
 2652 0851 1D       		.uleb128 0x1d
 2653 0852 0A000000 		.4byte	.LVL78
 2654 0856 DF040000 		.4byte	0x4df
 2655 085a 00       		.byte	0
 2656 085b 0F       		.uleb128 0xf
 2657 085c 1E020000 		.4byte	.LASF88
 2658 0860 01       		.byte	0x1
 2659 0861 7D04     		.2byte	0x47d
 2660 0863 00000000 		.4byte	.LFB144
 2661 0867 2C000000 		.4byte	.LFE144-.LFB144
 2662 086b 01       		.uleb128 0x1
 2663 086c 9C       		.byte	0x9c
 2664 086d AB080000 		.4byte	0x8ab
 2665 0871 10       		.uleb128 0x10
 2666 0872 0A030000 		.4byte	.LASF89
 2667 0876 01       		.byte	0x1
 2668 0877 7D04     		.2byte	0x47d
 2669 0879 C3000000 		.4byte	0xc3
 2670 087d 78060000 		.4byte	.LLST38
 2671 0881 10       		.uleb128 0x10
 2672 0882 5F020000 		.4byte	.LASF43
 2673 0886 01       		.byte	0x1
 2674 0887 7D04     		.2byte	0x47d
 2675 0889 91010000 		.4byte	0x191
 2676 088d A4060000 		.4byte	.LLST39
 2677 0891 13       		.uleb128 0x13
 2678 0892 D9040000 		.4byte	.LASF72
 2679 0896 01       		.byte	0x1
ARM GAS  /var/folders/m4/4md61f0s1_g0rzfghffqnxvr0000gn/T//ccZNYUOX.s 			page 48


 2680 0897 7F04     		.2byte	0x47f
 2681 0899 DF010000 		.4byte	0x1df
 2682 089d C5060000 		.4byte	.LLST40
 2683 08a1 1D       		.uleb128 0x1d
 2684 08a2 0A000000 		.4byte	.LVL84
 2685 08a6 DF040000 		.4byte	0x4df
 2686 08aa 00       		.byte	0
 2687 08ab 0F       		.uleb128 0xf
 2688 08ac BD020000 		.4byte	.LASF90
 2689 08b0 01       		.byte	0x1
 2690 08b1 A204     		.2byte	0x4a2
 2691 08b3 00000000 		.4byte	.LFB145
 2692 08b7 2C000000 		.4byte	.LFE145-.LFB145
 2693 08bb 01       		.uleb128 0x1
 2694 08bc 9C       		.byte	0x9c
 2695 08bd FB080000 		.4byte	0x8fb
 2696 08c1 10       		.uleb128 0x10
 2697 08c2 0A030000 		.4byte	.LASF89
 2698 08c6 01       		.byte	0x1
 2699 08c7 A204     		.2byte	0x4a2
 2700 08c9 C3000000 		.4byte	0xc3
 2701 08cd E4060000 		.4byte	.LLST41
 2702 08d1 10       		.uleb128 0x10
 2703 08d2 5F020000 		.4byte	.LASF43
 2704 08d6 01       		.byte	0x1
 2705 08d7 A204     		.2byte	0x4a2
 2706 08d9 91010000 		.4byte	0x191
 2707 08dd 10070000 		.4byte	.LLST42
 2708 08e1 13       		.uleb128 0x13
 2709 08e2 D9040000 		.4byte	.LASF72
 2710 08e6 01       		.byte	0x1
 2711 08e7 A404     		.2byte	0x4a4
 2712 08e9 DF010000 		.4byte	0x1df
 2713 08ed 31070000 		.4byte	.LLST43
 2714 08f1 1D       		.uleb128 0x1d
 2715 08f2 0A000000 		.4byte	.LVL90
 2716 08f6 DF040000 		.4byte	0x4df
 2717 08fa 00       		.byte	0
 2718 08fb 0F       		.uleb128 0xf
 2719 08fc 64000000 		.4byte	.LASF91
 2720 0900 01       		.byte	0x1
 2721 0901 C604     		.2byte	0x4c6
 2722 0903 00000000 		.4byte	.LFB146
 2723 0907 18000000 		.4byte	.LFE146-.LFB146
 2724 090b 01       		.uleb128 0x1
 2725 090c 9C       		.byte	0x9c
 2726 090d 3B090000 		.4byte	0x93b
 2727 0911 10       		.uleb128 0x10
 2728 0912 0F000000 		.4byte	.LASF92
 2729 0916 01       		.byte	0x1
 2730 0917 C604     		.2byte	0x4c6
 2731 0919 A2000000 		.4byte	0xa2
 2732 091d 50070000 		.4byte	.LLST44
 2733 0921 13       		.uleb128 0x13
 2734 0922 D9040000 		.4byte	.LASF72
 2735 0926 01       		.byte	0x1
 2736 0927 C804     		.2byte	0x4c8
ARM GAS  /var/folders/m4/4md61f0s1_g0rzfghffqnxvr0000gn/T//ccZNYUOX.s 			page 49


 2737 0929 DF010000 		.4byte	0x1df
 2738 092d 71070000 		.4byte	.LLST45
 2739 0931 1D       		.uleb128 0x1d
 2740 0932 08000000 		.4byte	.LVL96
 2741 0936 DF040000 		.4byte	0x4df
 2742 093a 00       		.byte	0
 2743 093b 0F       		.uleb128 0xf
 2744 093c 0A020000 		.4byte	.LASF93
 2745 0940 01       		.byte	0x1
 2746 0941 E604     		.2byte	0x4e6
 2747 0943 00000000 		.4byte	.LFB147
 2748 0947 28000000 		.4byte	.LFE147-.LFB147
 2749 094b 01       		.uleb128 0x1
 2750 094c 9C       		.byte	0x9c
 2751 094d AB090000 		.4byte	0x9ab
 2752 0951 10       		.uleb128 0x10
 2753 0952 16000000 		.4byte	.LASF94
 2754 0956 01       		.byte	0x1
 2755 0957 E604     		.2byte	0x4e6
 2756 0959 A2000000 		.4byte	0xa2
 2757 095d 90070000 		.4byte	.LLST46
 2758 0961 10       		.uleb128 0x10
 2759 0962 C0060000 		.4byte	.LASF95
 2760 0966 01       		.byte	0x1
 2761 0967 E604     		.2byte	0x4e6
 2762 0969 A2000000 		.4byte	0xa2
 2763 096d B1070000 		.4byte	.LLST47
 2764 0971 10       		.uleb128 0x10
 2765 0972 F3040000 		.4byte	.LASF96
 2766 0976 01       		.byte	0x1
 2767 0977 E604     		.2byte	0x4e6
 2768 0979 A2000000 		.4byte	0xa2
 2769 097d D2070000 		.4byte	.LLST48
 2770 0981 13       		.uleb128 0x13
 2771 0982 06060000 		.4byte	.LASF60
 2772 0986 01       		.byte	0x1
 2773 0987 E804     		.2byte	0x4e8
 2774 0989 A2000000 		.4byte	0xa2
 2775 098d F3070000 		.4byte	.LLST49
 2776 0991 13       		.uleb128 0x13
 2777 0992 D9040000 		.4byte	.LASF72
 2778 0996 01       		.byte	0x1
 2779 0997 E904     		.2byte	0x4e9
 2780 0999 DF010000 		.4byte	0x1df
 2781 099d 17080000 		.4byte	.LLST50
 2782 09a1 1D       		.uleb128 0x1d
 2783 09a2 0C000000 		.4byte	.LVL98
 2784 09a6 DF040000 		.4byte	0x4df
 2785 09aa 00       		.byte	0
 2786 09ab 17       		.uleb128 0x17
 2787 09ac D3030000 		.4byte	.LASF97
 2788 09b0 01       		.byte	0x1
 2789 09b1 3505     		.2byte	0x535
 2790 09b3 DF010000 		.4byte	0x1df
 2791 09b7 00000000 		.4byte	.LFB150
 2792 09bb 14000000 		.4byte	.LFE150-.LFB150
 2793 09bf 01       		.uleb128 0x1
ARM GAS  /var/folders/m4/4md61f0s1_g0rzfghffqnxvr0000gn/T//ccZNYUOX.s 			page 50


 2794 09c0 9C       		.byte	0x9c
 2795 09c1 DC090000 		.4byte	0x9dc
 2796 09c5 1E       		.uleb128 0x1e
 2797 09c6 D9040000 		.4byte	.LASF72
 2798 09ca 01       		.byte	0x1
 2799 09cb 3705     		.2byte	0x537
 2800 09cd DF010000 		.4byte	0x1df
 2801 09d1 09       		.byte	0x9
 2802 09d2 1F       		.uleb128 0x1f
 2803 09d3 0E000000 		.4byte	.LVL102
 2804 09d7 DF040000 		.4byte	0x4df
 2805 09db 00       		.byte	0
 2806 09dc 20       		.uleb128 0x20
 2807 09dd 8B060000 		.4byte	.LASF103
 2808 09e1 07       		.byte	0x7
 2809 09e2 FA06     		.2byte	0x6fa
 2810 09e4 E8090000 		.4byte	0x9e8
 2811 09e8 05       		.uleb128 0x5
 2812 09e9 B8000000 		.4byte	0xb8
 2813 09ed 00       		.byte	0
 2814              		.section	.debug_abbrev,"",%progbits
 2815              	.Ldebug_abbrev0:
 2816 0000 01       		.uleb128 0x1
 2817 0001 11       		.uleb128 0x11
 2818 0002 01       		.byte	0x1
 2819 0003 25       		.uleb128 0x25
 2820 0004 0E       		.uleb128 0xe
 2821 0005 13       		.uleb128 0x13
 2822 0006 0B       		.uleb128 0xb
 2823 0007 03       		.uleb128 0x3
 2824 0008 0E       		.uleb128 0xe
 2825 0009 1B       		.uleb128 0x1b
 2826 000a 0E       		.uleb128 0xe
 2827 000b 55       		.uleb128 0x55
 2828 000c 17       		.uleb128 0x17
 2829 000d 11       		.uleb128 0x11
 2830 000e 01       		.uleb128 0x1
 2831 000f 10       		.uleb128 0x10
 2832 0010 17       		.uleb128 0x17
 2833 0011 00       		.byte	0
 2834 0012 00       		.byte	0
 2835 0013 02       		.uleb128 0x2
 2836 0014 24       		.uleb128 0x24
 2837 0015 00       		.byte	0
 2838 0016 0B       		.uleb128 0xb
 2839 0017 0B       		.uleb128 0xb
 2840 0018 3E       		.uleb128 0x3e
 2841 0019 0B       		.uleb128 0xb
 2842 001a 03       		.uleb128 0x3
 2843 001b 0E       		.uleb128 0xe
 2844 001c 00       		.byte	0
 2845 001d 00       		.byte	0
 2846 001e 03       		.uleb128 0x3
 2847 001f 16       		.uleb128 0x16
 2848 0020 00       		.byte	0
 2849 0021 03       		.uleb128 0x3
 2850 0022 0E       		.uleb128 0xe
ARM GAS  /var/folders/m4/4md61f0s1_g0rzfghffqnxvr0000gn/T//ccZNYUOX.s 			page 51


 2851 0023 3A       		.uleb128 0x3a
 2852 0024 0B       		.uleb128 0xb
 2853 0025 3B       		.uleb128 0x3b
 2854 0026 0B       		.uleb128 0xb
 2855 0027 49       		.uleb128 0x49
 2856 0028 13       		.uleb128 0x13
 2857 0029 00       		.byte	0
 2858 002a 00       		.byte	0
 2859 002b 04       		.uleb128 0x4
 2860 002c 24       		.uleb128 0x24
 2861 002d 00       		.byte	0
 2862 002e 0B       		.uleb128 0xb
 2863 002f 0B       		.uleb128 0xb
 2864 0030 3E       		.uleb128 0x3e
 2865 0031 0B       		.uleb128 0xb
 2866 0032 03       		.uleb128 0x3
 2867 0033 08       		.uleb128 0x8
 2868 0034 00       		.byte	0
 2869 0035 00       		.byte	0
 2870 0036 05       		.uleb128 0x5
 2871 0037 35       		.uleb128 0x35
 2872 0038 00       		.byte	0
 2873 0039 49       		.uleb128 0x49
 2874 003a 13       		.uleb128 0x13
 2875 003b 00       		.byte	0
 2876 003c 00       		.byte	0
 2877 003d 06       		.uleb128 0x6
 2878 003e 13       		.uleb128 0x13
 2879 003f 01       		.byte	0x1
 2880 0040 0B       		.uleb128 0xb
 2881 0041 0B       		.uleb128 0xb
 2882 0042 3A       		.uleb128 0x3a
 2883 0043 0B       		.uleb128 0xb
 2884 0044 3B       		.uleb128 0x3b
 2885 0045 05       		.uleb128 0x5
 2886 0046 01       		.uleb128 0x1
 2887 0047 13       		.uleb128 0x13
 2888 0048 00       		.byte	0
 2889 0049 00       		.byte	0
 2890 004a 07       		.uleb128 0x7
 2891 004b 0D       		.uleb128 0xd
 2892 004c 00       		.byte	0
 2893 004d 03       		.uleb128 0x3
 2894 004e 08       		.uleb128 0x8
 2895 004f 3A       		.uleb128 0x3a
 2896 0050 0B       		.uleb128 0xb
 2897 0051 3B       		.uleb128 0x3b
 2898 0052 05       		.uleb128 0x5
 2899 0053 49       		.uleb128 0x49
 2900 0054 13       		.uleb128 0x13
 2901 0055 38       		.uleb128 0x38
 2902 0056 0B       		.uleb128 0xb
 2903 0057 00       		.byte	0
 2904 0058 00       		.byte	0
 2905 0059 08       		.uleb128 0x8
 2906 005a 0D       		.uleb128 0xd
 2907 005b 00       		.byte	0
ARM GAS  /var/folders/m4/4md61f0s1_g0rzfghffqnxvr0000gn/T//ccZNYUOX.s 			page 52


 2908 005c 03       		.uleb128 0x3
 2909 005d 0E       		.uleb128 0xe
 2910 005e 3A       		.uleb128 0x3a
 2911 005f 0B       		.uleb128 0xb
 2912 0060 3B       		.uleb128 0x3b
 2913 0061 05       		.uleb128 0x5
 2914 0062 49       		.uleb128 0x49
 2915 0063 13       		.uleb128 0x13
 2916 0064 38       		.uleb128 0x38
 2917 0065 0B       		.uleb128 0xb
 2918 0066 00       		.byte	0
 2919 0067 00       		.byte	0
 2920 0068 09       		.uleb128 0x9
 2921 0069 16       		.uleb128 0x16
 2922 006a 00       		.byte	0
 2923 006b 03       		.uleb128 0x3
 2924 006c 0E       		.uleb128 0xe
 2925 006d 3A       		.uleb128 0x3a
 2926 006e 0B       		.uleb128 0xb
 2927 006f 3B       		.uleb128 0x3b
 2928 0070 05       		.uleb128 0x5
 2929 0071 49       		.uleb128 0x49
 2930 0072 13       		.uleb128 0x13
 2931 0073 00       		.byte	0
 2932 0074 00       		.byte	0
 2933 0075 0A       		.uleb128 0xa
 2934 0076 04       		.uleb128 0x4
 2935 0077 01       		.byte	0x1
 2936 0078 0B       		.uleb128 0xb
 2937 0079 0B       		.uleb128 0xb
 2938 007a 49       		.uleb128 0x49
 2939 007b 13       		.uleb128 0x13
 2940 007c 3A       		.uleb128 0x3a
 2941 007d 0B       		.uleb128 0xb
 2942 007e 3B       		.uleb128 0x3b
 2943 007f 0B       		.uleb128 0xb
 2944 0080 01       		.uleb128 0x1
 2945 0081 13       		.uleb128 0x13
 2946 0082 00       		.byte	0
 2947 0083 00       		.byte	0
 2948 0084 0B       		.uleb128 0xb
 2949 0085 28       		.uleb128 0x28
 2950 0086 00       		.byte	0
 2951 0087 03       		.uleb128 0x3
 2952 0088 0E       		.uleb128 0xe
 2953 0089 1C       		.uleb128 0x1c
 2954 008a 0B       		.uleb128 0xb
 2955 008b 00       		.byte	0
 2956 008c 00       		.byte	0
 2957 008d 0C       		.uleb128 0xc
 2958 008e 28       		.uleb128 0x28
 2959 008f 00       		.byte	0
 2960 0090 03       		.uleb128 0x3
 2961 0091 08       		.uleb128 0x8
 2962 0092 1C       		.uleb128 0x1c
 2963 0093 0B       		.uleb128 0xb
 2964 0094 00       		.byte	0
ARM GAS  /var/folders/m4/4md61f0s1_g0rzfghffqnxvr0000gn/T//ccZNYUOX.s 			page 53


 2965 0095 00       		.byte	0
 2966 0096 0D       		.uleb128 0xd
 2967 0097 2E       		.uleb128 0x2e
 2968 0098 01       		.byte	0x1
 2969 0099 3F       		.uleb128 0x3f
 2970 009a 19       		.uleb128 0x19
 2971 009b 03       		.uleb128 0x3
 2972 009c 0E       		.uleb128 0xe
 2973 009d 3A       		.uleb128 0x3a
 2974 009e 0B       		.uleb128 0xb
 2975 009f 3B       		.uleb128 0x3b
 2976 00a0 05       		.uleb128 0x5
 2977 00a1 27       		.uleb128 0x27
 2978 00a2 19       		.uleb128 0x19
 2979 00a3 49       		.uleb128 0x49
 2980 00a4 13       		.uleb128 0x13
 2981 00a5 20       		.uleb128 0x20
 2982 00a6 0B       		.uleb128 0xb
 2983 00a7 01       		.uleb128 0x1
 2984 00a8 13       		.uleb128 0x13
 2985 00a9 00       		.byte	0
 2986 00aa 00       		.byte	0
 2987 00ab 0E       		.uleb128 0xe
 2988 00ac 34       		.uleb128 0x34
 2989 00ad 00       		.byte	0
 2990 00ae 03       		.uleb128 0x3
 2991 00af 0E       		.uleb128 0xe
 2992 00b0 3A       		.uleb128 0x3a
 2993 00b1 0B       		.uleb128 0xb
 2994 00b2 3B       		.uleb128 0x3b
 2995 00b3 05       		.uleb128 0x5
 2996 00b4 49       		.uleb128 0x49
 2997 00b5 13       		.uleb128 0x13
 2998 00b6 00       		.byte	0
 2999 00b7 00       		.byte	0
 3000 00b8 0F       		.uleb128 0xf
 3001 00b9 2E       		.uleb128 0x2e
 3002 00ba 01       		.byte	0x1
 3003 00bb 3F       		.uleb128 0x3f
 3004 00bc 19       		.uleb128 0x19
 3005 00bd 03       		.uleb128 0x3
 3006 00be 0E       		.uleb128 0xe
 3007 00bf 3A       		.uleb128 0x3a
 3008 00c0 0B       		.uleb128 0xb
 3009 00c1 3B       		.uleb128 0x3b
 3010 00c2 05       		.uleb128 0x5
 3011 00c3 27       		.uleb128 0x27
 3012 00c4 19       		.uleb128 0x19
 3013 00c5 11       		.uleb128 0x11
 3014 00c6 01       		.uleb128 0x1
 3015 00c7 12       		.uleb128 0x12
 3016 00c8 06       		.uleb128 0x6
 3017 00c9 40       		.uleb128 0x40
 3018 00ca 18       		.uleb128 0x18
 3019 00cb 9742     		.uleb128 0x2117
 3020 00cd 19       		.uleb128 0x19
 3021 00ce 01       		.uleb128 0x1
ARM GAS  /var/folders/m4/4md61f0s1_g0rzfghffqnxvr0000gn/T//ccZNYUOX.s 			page 54


 3022 00cf 13       		.uleb128 0x13
 3023 00d0 00       		.byte	0
 3024 00d1 00       		.byte	0
 3025 00d2 10       		.uleb128 0x10
 3026 00d3 05       		.uleb128 0x5
 3027 00d4 00       		.byte	0
 3028 00d5 03       		.uleb128 0x3
 3029 00d6 0E       		.uleb128 0xe
 3030 00d7 3A       		.uleb128 0x3a
 3031 00d8 0B       		.uleb128 0xb
 3032 00d9 3B       		.uleb128 0x3b
 3033 00da 05       		.uleb128 0x5
 3034 00db 49       		.uleb128 0x49
 3035 00dc 13       		.uleb128 0x13
 3036 00dd 02       		.uleb128 0x2
 3037 00de 17       		.uleb128 0x17
 3038 00df 00       		.byte	0
 3039 00e0 00       		.byte	0
 3040 00e1 11       		.uleb128 0x11
 3041 00e2 05       		.uleb128 0x5
 3042 00e3 00       		.byte	0
 3043 00e4 03       		.uleb128 0x3
 3044 00e5 0E       		.uleb128 0xe
 3045 00e6 3A       		.uleb128 0x3a
 3046 00e7 0B       		.uleb128 0xb
 3047 00e8 3B       		.uleb128 0x3b
 3048 00e9 05       		.uleb128 0x5
 3049 00ea 49       		.uleb128 0x49
 3050 00eb 13       		.uleb128 0x13
 3051 00ec 02       		.uleb128 0x2
 3052 00ed 18       		.uleb128 0x18
 3053 00ee 00       		.byte	0
 3054 00ef 00       		.byte	0
 3055 00f0 12       		.uleb128 0x12
 3056 00f1 2E       		.uleb128 0x2e
 3057 00f2 00       		.byte	0
 3058 00f3 3F       		.uleb128 0x3f
 3059 00f4 19       		.uleb128 0x19
 3060 00f5 03       		.uleb128 0x3
 3061 00f6 0E       		.uleb128 0xe
 3062 00f7 3A       		.uleb128 0x3a
 3063 00f8 0B       		.uleb128 0xb
 3064 00f9 3B       		.uleb128 0x3b
 3065 00fa 05       		.uleb128 0x5
 3066 00fb 27       		.uleb128 0x27
 3067 00fc 19       		.uleb128 0x19
 3068 00fd 11       		.uleb128 0x11
 3069 00fe 01       		.uleb128 0x1
 3070 00ff 12       		.uleb128 0x12
 3071 0100 06       		.uleb128 0x6
 3072 0101 40       		.uleb128 0x40
 3073 0102 18       		.uleb128 0x18
 3074 0103 9742     		.uleb128 0x2117
 3075 0105 19       		.uleb128 0x19
 3076 0106 00       		.byte	0
 3077 0107 00       		.byte	0
 3078 0108 13       		.uleb128 0x13
ARM GAS  /var/folders/m4/4md61f0s1_g0rzfghffqnxvr0000gn/T//ccZNYUOX.s 			page 55


 3079 0109 34       		.uleb128 0x34
 3080 010a 00       		.byte	0
 3081 010b 03       		.uleb128 0x3
 3082 010c 0E       		.uleb128 0xe
 3083 010d 3A       		.uleb128 0x3a
 3084 010e 0B       		.uleb128 0xb
 3085 010f 3B       		.uleb128 0x3b
 3086 0110 05       		.uleb128 0x5
 3087 0111 49       		.uleb128 0x49
 3088 0112 13       		.uleb128 0x13
 3089 0113 02       		.uleb128 0x2
 3090 0114 17       		.uleb128 0x17
 3091 0115 00       		.byte	0
 3092 0116 00       		.byte	0
 3093 0117 14       		.uleb128 0x14
 3094 0118 2E       		.uleb128 0x2e
 3095 0119 00       		.byte	0
 3096 011a 3F       		.uleb128 0x3f
 3097 011b 19       		.uleb128 0x19
 3098 011c 03       		.uleb128 0x3
 3099 011d 0E       		.uleb128 0xe
 3100 011e 3A       		.uleb128 0x3a
 3101 011f 0B       		.uleb128 0xb
 3102 0120 3B       		.uleb128 0x3b
 3103 0121 05       		.uleb128 0x5
 3104 0122 27       		.uleb128 0x27
 3105 0123 19       		.uleb128 0x19
 3106 0124 49       		.uleb128 0x49
 3107 0125 13       		.uleb128 0x13
 3108 0126 11       		.uleb128 0x11
 3109 0127 01       		.uleb128 0x1
 3110 0128 12       		.uleb128 0x12
 3111 0129 06       		.uleb128 0x6
 3112 012a 40       		.uleb128 0x40
 3113 012b 18       		.uleb128 0x18
 3114 012c 9742     		.uleb128 0x2117
 3115 012e 19       		.uleb128 0x19
 3116 012f 00       		.byte	0
 3117 0130 00       		.byte	0
 3118 0131 15       		.uleb128 0x15
 3119 0132 2E       		.uleb128 0x2e
 3120 0133 00       		.byte	0
 3121 0134 3F       		.uleb128 0x3f
 3122 0135 19       		.uleb128 0x19
 3123 0136 03       		.uleb128 0x3
 3124 0137 0E       		.uleb128 0xe
 3125 0138 3A       		.uleb128 0x3a
 3126 0139 0B       		.uleb128 0xb
 3127 013a 3B       		.uleb128 0x3b
 3128 013b 05       		.uleb128 0x5
 3129 013c 27       		.uleb128 0x27
 3130 013d 19       		.uleb128 0x19
 3131 013e 49       		.uleb128 0x49
 3132 013f 13       		.uleb128 0x13
 3133 0140 20       		.uleb128 0x20
 3134 0141 0B       		.uleb128 0xb
 3135 0142 00       		.byte	0
ARM GAS  /var/folders/m4/4md61f0s1_g0rzfghffqnxvr0000gn/T//ccZNYUOX.s 			page 56


 3136 0143 00       		.byte	0
 3137 0144 16       		.uleb128 0x16
 3138 0145 2E       		.uleb128 0x2e
 3139 0146 00       		.byte	0
 3140 0147 31       		.uleb128 0x31
 3141 0148 13       		.uleb128 0x13
 3142 0149 11       		.uleb128 0x11
 3143 014a 01       		.uleb128 0x1
 3144 014b 12       		.uleb128 0x12
 3145 014c 06       		.uleb128 0x6
 3146 014d 40       		.uleb128 0x40
 3147 014e 18       		.uleb128 0x18
 3148 014f 9742     		.uleb128 0x2117
 3149 0151 19       		.uleb128 0x19
 3150 0152 00       		.byte	0
 3151 0153 00       		.byte	0
 3152 0154 17       		.uleb128 0x17
 3153 0155 2E       		.uleb128 0x2e
 3154 0156 01       		.byte	0x1
 3155 0157 3F       		.uleb128 0x3f
 3156 0158 19       		.uleb128 0x19
 3157 0159 03       		.uleb128 0x3
 3158 015a 0E       		.uleb128 0xe
 3159 015b 3A       		.uleb128 0x3a
 3160 015c 0B       		.uleb128 0xb
 3161 015d 3B       		.uleb128 0x3b
 3162 015e 05       		.uleb128 0x5
 3163 015f 27       		.uleb128 0x27
 3164 0160 19       		.uleb128 0x19
 3165 0161 49       		.uleb128 0x49
 3166 0162 13       		.uleb128 0x13
 3167 0163 11       		.uleb128 0x11
 3168 0164 01       		.uleb128 0x1
 3169 0165 12       		.uleb128 0x12
 3170 0166 06       		.uleb128 0x6
 3171 0167 40       		.uleb128 0x40
 3172 0168 18       		.uleb128 0x18
 3173 0169 9742     		.uleb128 0x2117
 3174 016b 19       		.uleb128 0x19
 3175 016c 01       		.uleb128 0x1
 3176 016d 13       		.uleb128 0x13
 3177 016e 00       		.byte	0
 3178 016f 00       		.byte	0
 3179 0170 18       		.uleb128 0x18
 3180 0171 2E       		.uleb128 0x2e
 3181 0172 01       		.byte	0x1
 3182 0173 31       		.uleb128 0x31
 3183 0174 13       		.uleb128 0x13
 3184 0175 11       		.uleb128 0x11
 3185 0176 01       		.uleb128 0x1
 3186 0177 12       		.uleb128 0x12
 3187 0178 06       		.uleb128 0x6
 3188 0179 40       		.uleb128 0x40
 3189 017a 18       		.uleb128 0x18
 3190 017b 9742     		.uleb128 0x2117
 3191 017d 19       		.uleb128 0x19
 3192 017e 01       		.uleb128 0x1
ARM GAS  /var/folders/m4/4md61f0s1_g0rzfghffqnxvr0000gn/T//ccZNYUOX.s 			page 57


 3193 017f 13       		.uleb128 0x13
 3194 0180 00       		.byte	0
 3195 0181 00       		.byte	0
 3196 0182 19       		.uleb128 0x19
 3197 0183 34       		.uleb128 0x34
 3198 0184 00       		.byte	0
 3199 0185 31       		.uleb128 0x31
 3200 0186 13       		.uleb128 0x13
 3201 0187 02       		.uleb128 0x2
 3202 0188 17       		.uleb128 0x17
 3203 0189 00       		.byte	0
 3204 018a 00       		.byte	0
 3205 018b 1A       		.uleb128 0x1a
 3206 018c 0B       		.uleb128 0xb
 3207 018d 01       		.byte	0x1
 3208 018e 11       		.uleb128 0x11
 3209 018f 01       		.uleb128 0x1
 3210 0190 12       		.uleb128 0x12
 3211 0191 06       		.uleb128 0x6
 3212 0192 00       		.byte	0
 3213 0193 00       		.byte	0
 3214 0194 1B       		.uleb128 0x1b
 3215 0195 34       		.uleb128 0x34
 3216 0196 00       		.byte	0
 3217 0197 31       		.uleb128 0x31
 3218 0198 13       		.uleb128 0x13
 3219 0199 00       		.byte	0
 3220 019a 00       		.byte	0
 3221 019b 1C       		.uleb128 0x1c
 3222 019c 34       		.uleb128 0x34
 3223 019d 00       		.byte	0
 3224 019e 03       		.uleb128 0x3
 3225 019f 0E       		.uleb128 0xe
 3226 01a0 3A       		.uleb128 0x3a
 3227 01a1 0B       		.uleb128 0xb
 3228 01a2 3B       		.uleb128 0x3b
 3229 01a3 05       		.uleb128 0x5
 3230 01a4 49       		.uleb128 0x49
 3231 01a5 13       		.uleb128 0x13
 3232 01a6 02       		.uleb128 0x2
 3233 01a7 18       		.uleb128 0x18
 3234 01a8 00       		.byte	0
 3235 01a9 00       		.byte	0
 3236 01aa 1D       		.uleb128 0x1d
 3237 01ab 898201   		.uleb128 0x4109
 3238 01ae 00       		.byte	0
 3239 01af 11       		.uleb128 0x11
 3240 01b0 01       		.uleb128 0x1
 3241 01b1 31       		.uleb128 0x31
 3242 01b2 13       		.uleb128 0x13
 3243 01b3 00       		.byte	0
 3244 01b4 00       		.byte	0
 3245 01b5 1E       		.uleb128 0x1e
 3246 01b6 34       		.uleb128 0x34
 3247 01b7 00       		.byte	0
 3248 01b8 03       		.uleb128 0x3
 3249 01b9 0E       		.uleb128 0xe
ARM GAS  /var/folders/m4/4md61f0s1_g0rzfghffqnxvr0000gn/T//ccZNYUOX.s 			page 58


 3250 01ba 3A       		.uleb128 0x3a
 3251 01bb 0B       		.uleb128 0xb
 3252 01bc 3B       		.uleb128 0x3b
 3253 01bd 05       		.uleb128 0x5
 3254 01be 49       		.uleb128 0x49
 3255 01bf 13       		.uleb128 0x13
 3256 01c0 1C       		.uleb128 0x1c
 3257 01c1 0B       		.uleb128 0xb
 3258 01c2 00       		.byte	0
 3259 01c3 00       		.byte	0
 3260 01c4 1F       		.uleb128 0x1f
 3261 01c5 898201   		.uleb128 0x4109
 3262 01c8 00       		.byte	0
 3263 01c9 11       		.uleb128 0x11
 3264 01ca 01       		.uleb128 0x1
 3265 01cb 9542     		.uleb128 0x2115
 3266 01cd 19       		.uleb128 0x19
 3267 01ce 31       		.uleb128 0x31
 3268 01cf 13       		.uleb128 0x13
 3269 01d0 00       		.byte	0
 3270 01d1 00       		.byte	0
 3271 01d2 20       		.uleb128 0x20
 3272 01d3 34       		.uleb128 0x34
 3273 01d4 00       		.byte	0
 3274 01d5 03       		.uleb128 0x3
 3275 01d6 0E       		.uleb128 0xe
 3276 01d7 3A       		.uleb128 0x3a
 3277 01d8 0B       		.uleb128 0xb
 3278 01d9 3B       		.uleb128 0x3b
 3279 01da 05       		.uleb128 0x5
 3280 01db 49       		.uleb128 0x49
 3281 01dc 13       		.uleb128 0x13
 3282 01dd 3F       		.uleb128 0x3f
 3283 01de 19       		.uleb128 0x19
 3284 01df 3C       		.uleb128 0x3c
 3285 01e0 19       		.uleb128 0x19
 3286 01e1 00       		.byte	0
 3287 01e2 00       		.byte	0
 3288 01e3 00       		.byte	0
 3289              		.section	.debug_loc,"",%progbits
 3290              	.Ldebug_loc0:
 3291              	.LLST0:
 3292 0000 00000000 		.4byte	.LVL0
 3293 0004 04000000 		.4byte	.LVL1
 3294 0008 0100     		.2byte	0x1
 3295 000a 50       		.byte	0x50
 3296 000b 04000000 		.4byte	.LVL1
 3297 000f 0C000000 		.4byte	.LFE123
 3298 0013 0400     		.2byte	0x4
 3299 0015 F3       		.byte	0xf3
 3300 0016 01       		.uleb128 0x1
 3301 0017 50       		.byte	0x50
 3302 0018 9F       		.byte	0x9f
 3303 0019 00000000 		.4byte	0
 3304 001d 00000000 		.4byte	0
 3305              	.LLST1:
 3306 0021 00000000 		.4byte	.LVL5
ARM GAS  /var/folders/m4/4md61f0s1_g0rzfghffqnxvr0000gn/T//ccZNYUOX.s 			page 59


 3307 0025 0A000000 		.4byte	.LVL8
 3308 0029 0100     		.2byte	0x1
 3309 002b 50       		.byte	0x50
 3310 002c 0A000000 		.4byte	.LVL8
 3311 0030 14000000 		.4byte	.LFE143
 3312 0034 0400     		.2byte	0x4
 3313 0036 F3       		.byte	0xf3
 3314 0037 01       		.uleb128 0x1
 3315 0038 50       		.byte	0x50
 3316 0039 9F       		.byte	0x9f
 3317 003a 00000000 		.4byte	0
 3318 003e 00000000 		.4byte	0
 3319              	.LLST2:
 3320 0042 00000000 		.4byte	.LVL5
 3321 0046 04000000 		.4byte	.LVL6
 3322 004a 0300     		.2byte	0x3
 3323 004c 09       		.byte	0x9
 3324 004d FF       		.byte	0xff
 3325 004e 9F       		.byte	0x9f
 3326 004f 04000000 		.4byte	.LVL6
 3327 0053 08000000 		.4byte	.LVL7
 3328 0057 0600     		.2byte	0x6
 3329 0059 73       		.byte	0x73
 3330 005a 00       		.sleb128 0
 3331 005b 08       		.byte	0x8
 3332 005c 7F       		.byte	0x7f
 3333 005d 1A       		.byte	0x1a
 3334 005e 9F       		.byte	0x9f
 3335 005f 00000000 		.4byte	0
 3336 0063 00000000 		.4byte	0
 3337              	.LLST3:
 3338 0067 00000000 		.4byte	.LVL9
 3339 006b 0E000000 		.4byte	.LVL10
 3340 006f 0100     		.2byte	0x1
 3341 0071 50       		.byte	0x50
 3342 0072 0E000000 		.4byte	.LVL10
 3343 0076 18000000 		.4byte	.LFE148
 3344 007a 0400     		.2byte	0x4
 3345 007c F3       		.byte	0xf3
 3346 007d 01       		.uleb128 0x1
 3347 007e 50       		.byte	0x50
 3348 007f 9F       		.byte	0x9f
 3349 0080 00000000 		.4byte	0
 3350 0084 00000000 		.4byte	0
 3351              	.LLST4:
 3352 0088 00000000 		.4byte	.LVL11
 3353 008c 0E000000 		.4byte	.LVL12
 3354 0090 0100     		.2byte	0x1
 3355 0092 50       		.byte	0x50
 3356 0093 0E000000 		.4byte	.LVL12
 3357 0097 18000000 		.4byte	.LFE149
 3358 009b 0400     		.2byte	0x4
 3359 009d F3       		.byte	0xf3
 3360 009e 01       		.uleb128 0x1
 3361 009f 50       		.byte	0x50
 3362 00a0 9F       		.byte	0x9f
 3363 00a1 00000000 		.4byte	0
ARM GAS  /var/folders/m4/4md61f0s1_g0rzfghffqnxvr0000gn/T//ccZNYUOX.s 			page 60


 3364 00a5 00000000 		.4byte	0
 3365              	.LLST5:
 3366 00a9 00000000 		.4byte	.LVL13
 3367 00ad 04000000 		.4byte	.LVL14
 3368 00b1 0200     		.2byte	0x2
 3369 00b3 30       		.byte	0x30
 3370 00b4 9F       		.byte	0x9f
 3371 00b5 04000000 		.4byte	.LVL14
 3372 00b9 06000000 		.4byte	.LVL15
 3373 00bd 0900     		.2byte	0x9
 3374 00bf 70       		.byte	0x70
 3375 00c0 00       		.sleb128 0
 3376 00c1 08       		.byte	0x8
 3377 00c2 FF       		.byte	0xff
 3378 00c3 1A       		.byte	0x1a
 3379 00c4 08       		.byte	0x8
 3380 00c5 AA       		.byte	0xaa
 3381 00c6 2E       		.byte	0x2e
 3382 00c7 9F       		.byte	0x9f
 3383 00c8 00000000 		.4byte	0
 3384 00cc 00000000 		.4byte	0
 3385              	.LLST6:
 3386 00d0 00000000 		.4byte	.LVL16
 3387 00d4 0A000000 		.4byte	.LVL17
 3388 00d8 0100     		.2byte	0x1
 3389 00da 50       		.byte	0x50
 3390 00db 0A000000 		.4byte	.LVL17
 3391 00df 0E000000 		.4byte	.LVL18
 3392 00e3 0400     		.2byte	0x4
 3393 00e5 F3       		.byte	0xf3
 3394 00e6 01       		.uleb128 0x1
 3395 00e7 50       		.byte	0x50
 3396 00e8 9F       		.byte	0x9f
 3397 00e9 0E000000 		.4byte	.LVL18
 3398 00ed 14000000 		.4byte	.LVL19
 3399 00f1 0100     		.2byte	0x1
 3400 00f3 50       		.byte	0x50
 3401 00f4 14000000 		.4byte	.LVL19
 3402 00f8 1C000000 		.4byte	.LFE158
 3403 00fc 0400     		.2byte	0x4
 3404 00fe F3       		.byte	0xf3
 3405 00ff 01       		.uleb128 0x1
 3406 0100 50       		.byte	0x50
 3407 0101 9F       		.byte	0x9f
 3408 0102 00000000 		.4byte	0
 3409 0106 00000000 		.4byte	0
 3410              	.LLST7:
 3411 010a 00000000 		.4byte	.LVL20
 3412 010e 0A000000 		.4byte	.LVL22
 3413 0112 0100     		.2byte	0x1
 3414 0114 50       		.byte	0x50
 3415 0115 0A000000 		.4byte	.LVL22
 3416 0119 14000000 		.4byte	.LFE159
 3417 011d 0400     		.2byte	0x4
 3418 011f F3       		.byte	0xf3
 3419 0120 01       		.uleb128 0x1
 3420 0121 50       		.byte	0x50
ARM GAS  /var/folders/m4/4md61f0s1_g0rzfghffqnxvr0000gn/T//ccZNYUOX.s 			page 61


 3421 0122 9F       		.byte	0x9f
 3422 0123 00000000 		.4byte	0
 3423 0127 00000000 		.4byte	0
 3424              	.LLST8:
 3425 012b 00000000 		.4byte	.LVL20
 3426 012f 04000000 		.4byte	.LVL21
 3427 0133 0200     		.2byte	0x2
 3428 0135 30       		.byte	0x30
 3429 0136 9F       		.byte	0x9f
 3430 0137 04000000 		.4byte	.LVL21
 3431 013b 0A000000 		.4byte	.LVL22
 3432 013f 0800     		.2byte	0x8
 3433 0141 73       		.byte	0x73
 3434 0142 00       		.sleb128 0
 3435 0143 70       		.byte	0x70
 3436 0144 00       		.sleb128 0
 3437 0145 1A       		.byte	0x1a
 3438 0146 30       		.byte	0x30
 3439 0147 2E       		.byte	0x2e
 3440 0148 9F       		.byte	0x9f
 3441 0149 0A000000 		.4byte	.LVL22
 3442 014d 14000000 		.4byte	.LFE159
 3443 0151 0900     		.2byte	0x9
 3444 0153 73       		.byte	0x73
 3445 0154 00       		.sleb128 0
 3446 0155 F3       		.byte	0xf3
 3447 0156 01       		.uleb128 0x1
 3448 0157 50       		.byte	0x50
 3449 0158 1A       		.byte	0x1a
 3450 0159 30       		.byte	0x30
 3451 015a 2E       		.byte	0x2e
 3452 015b 9F       		.byte	0x9f
 3453 015c 00000000 		.4byte	0
 3454 0160 00000000 		.4byte	0
 3455              	.LLST9:
 3456 0164 00000000 		.4byte	.LVL24
 3457 0168 2A000000 		.4byte	.LVL25
 3458 016c 0200     		.2byte	0x2
 3459 016e 39       		.byte	0x39
 3460 016f 9F       		.byte	0x9f
 3461 0170 2A000000 		.4byte	.LVL25
 3462 0174 2C000000 		.4byte	.LVL26
 3463 0178 0100     		.2byte	0x1
 3464 017a 50       		.byte	0x50
 3465 017b 2C000000 		.4byte	.LVL26
 3466 017f 40000000 		.4byte	.LFE161
 3467 0183 0200     		.2byte	0x2
 3468 0185 39       		.byte	0x39
 3469 0186 9F       		.byte	0x9f
 3470 0187 00000000 		.4byte	0
 3471 018b 00000000 		.4byte	0
 3472              	.LLST10:
 3473 018f 00000000 		.4byte	.LVL28
 3474 0193 19000000 		.4byte	.LVL30-1
 3475 0197 0100     		.2byte	0x1
 3476 0199 50       		.byte	0x50
 3477 019a 19000000 		.4byte	.LVL30-1
ARM GAS  /var/folders/m4/4md61f0s1_g0rzfghffqnxvr0000gn/T//ccZNYUOX.s 			page 62


 3478 019e 3E000000 		.4byte	.LVL31
 3479 01a2 0100     		.2byte	0x1
 3480 01a4 56       		.byte	0x56
 3481 01a5 3E000000 		.4byte	.LVL31
 3482 01a9 5E000000 		.4byte	.LVL33
 3483 01ad 0400     		.2byte	0x4
 3484 01af F3       		.byte	0xf3
 3485 01b0 01       		.uleb128 0x1
 3486 01b1 50       		.byte	0x50
 3487 01b2 9F       		.byte	0x9f
 3488 01b3 5E000000 		.4byte	.LVL33
 3489 01b7 63000000 		.4byte	.LVL35-1
 3490 01bb 0100     		.2byte	0x1
 3491 01bd 50       		.byte	0x50
 3492 01be 63000000 		.4byte	.LVL35-1
 3493 01c2 6A000000 		.4byte	.LVL36
 3494 01c6 0100     		.2byte	0x1
 3495 01c8 56       		.byte	0x56
 3496 01c9 6A000000 		.4byte	.LVL36
 3497 01cd 74000000 		.4byte	.LFE131
 3498 01d1 0100     		.2byte	0x1
 3499 01d3 50       		.byte	0x50
 3500 01d4 00000000 		.4byte	0
 3501 01d8 00000000 		.4byte	0
 3502              	.LLST11:
 3503 01dc 00000000 		.4byte	.LVL28
 3504 01e0 19000000 		.4byte	.LVL30-1
 3505 01e4 0100     		.2byte	0x1
 3506 01e6 51       		.byte	0x51
 3507 01e7 19000000 		.4byte	.LVL30-1
 3508 01eb 5E000000 		.4byte	.LVL33
 3509 01ef 0400     		.2byte	0x4
 3510 01f1 F3       		.byte	0xf3
 3511 01f2 01       		.uleb128 0x1
 3512 01f3 51       		.byte	0x51
 3513 01f4 9F       		.byte	0x9f
 3514 01f5 5E000000 		.4byte	.LVL33
 3515 01f9 63000000 		.4byte	.LVL35-1
 3516 01fd 0100     		.2byte	0x1
 3517 01ff 51       		.byte	0x51
 3518 0200 63000000 		.4byte	.LVL35-1
 3519 0204 6A000000 		.4byte	.LVL36
 3520 0208 0400     		.2byte	0x4
 3521 020a F3       		.byte	0xf3
 3522 020b 01       		.uleb128 0x1
 3523 020c 51       		.byte	0x51
 3524 020d 9F       		.byte	0x9f
 3525 020e 6A000000 		.4byte	.LVL36
 3526 0212 74000000 		.4byte	.LFE131
 3527 0216 0100     		.2byte	0x1
 3528 0218 51       		.byte	0x51
 3529 0219 00000000 		.4byte	0
 3530 021d 00000000 		.4byte	0
 3531              	.LLST12:
 3532 0221 00000000 		.4byte	.LVL28
 3533 0225 16000000 		.4byte	.LVL29
 3534 0229 0200     		.2byte	0x2
ARM GAS  /var/folders/m4/4md61f0s1_g0rzfghffqnxvr0000gn/T//ccZNYUOX.s 			page 63


 3535 022b 30       		.byte	0x30
 3536 022c 9F       		.byte	0x9f
 3537 022d 16000000 		.4byte	.LVL29
 3538 0231 5E000000 		.4byte	.LVL33
 3539 0235 0100     		.2byte	0x1
 3540 0237 54       		.byte	0x54
 3541 0238 5E000000 		.4byte	.LVL33
 3542 023c 60000000 		.4byte	.LVL34
 3543 0240 0200     		.2byte	0x2
 3544 0242 30       		.byte	0x30
 3545 0243 9F       		.byte	0x9f
 3546 0244 60000000 		.4byte	.LVL34
 3547 0248 6A000000 		.4byte	.LVL36
 3548 024c 0100     		.2byte	0x1
 3549 024e 54       		.byte	0x54
 3550 024f 6A000000 		.4byte	.LVL36
 3551 0253 74000000 		.4byte	.LFE131
 3552 0257 0200     		.2byte	0x2
 3553 0259 30       		.byte	0x30
 3554 025a 9F       		.byte	0x9f
 3555 025b 00000000 		.4byte	0
 3556 025f 00000000 		.4byte	0
 3557              	.LLST13:
 3558 0263 00000000 		.4byte	.LVL28
 3559 0267 1A000000 		.4byte	.LVL30
 3560 026b 0200     		.2byte	0x2
 3561 026d 39       		.byte	0x39
 3562 026e 9F       		.byte	0x9f
 3563 026f 1A000000 		.4byte	.LVL30
 3564 0273 4B000000 		.4byte	.LVL32-1
 3565 0277 0100     		.2byte	0x1
 3566 0279 50       		.byte	0x50
 3567 027a 4C000000 		.4byte	.LVL32
 3568 027e 5E000000 		.4byte	.LVL33
 3569 0282 0100     		.2byte	0x1
 3570 0284 50       		.byte	0x50
 3571 0285 5E000000 		.4byte	.LVL33
 3572 0289 64000000 		.4byte	.LVL35
 3573 028d 0200     		.2byte	0x2
 3574 028f 39       		.byte	0x39
 3575 0290 9F       		.byte	0x9f
 3576 0291 64000000 		.4byte	.LVL35
 3577 0295 6A000000 		.4byte	.LVL36
 3578 0299 0100     		.2byte	0x1
 3579 029b 50       		.byte	0x50
 3580 029c 6A000000 		.4byte	.LVL36
 3581 02a0 74000000 		.4byte	.LFE131
 3582 02a4 0200     		.2byte	0x2
 3583 02a6 39       		.byte	0x39
 3584 02a7 9F       		.byte	0x9f
 3585 02a8 00000000 		.4byte	0
 3586 02ac 00000000 		.4byte	0
 3587              	.LLST14:
 3588 02b0 00000000 		.4byte	.LVL37
 3589 02b4 07000000 		.4byte	.LVL38-1
 3590 02b8 0100     		.2byte	0x1
 3591 02ba 50       		.byte	0x50
ARM GAS  /var/folders/m4/4md61f0s1_g0rzfghffqnxvr0000gn/T//ccZNYUOX.s 			page 64


 3592 02bb 07000000 		.4byte	.LVL38-1
 3593 02bf 5C000000 		.4byte	.LFE133
 3594 02c3 0400     		.2byte	0x4
 3595 02c5 F3       		.byte	0xf3
 3596 02c6 01       		.uleb128 0x1
 3597 02c7 50       		.byte	0x50
 3598 02c8 9F       		.byte	0x9f
 3599 02c9 00000000 		.4byte	0
 3600 02cd 00000000 		.4byte	0
 3601              	.LLST15:
 3602 02d1 00000000 		.4byte	.LVL37
 3603 02d5 1A000000 		.4byte	.LVL39
 3604 02d9 0200     		.2byte	0x2
 3605 02db 30       		.byte	0x30
 3606 02dc 9F       		.byte	0x9f
 3607 02dd 1A000000 		.4byte	.LVL39
 3608 02e1 20000000 		.4byte	.LVL40
 3609 02e5 0100     		.2byte	0x1
 3610 02e7 54       		.byte	0x54
 3611 02e8 20000000 		.4byte	.LVL40
 3612 02ec 26000000 		.4byte	.LVL41
 3613 02f0 0200     		.2byte	0x2
 3614 02f2 30       		.byte	0x30
 3615 02f3 9F       		.byte	0x9f
 3616 02f4 26000000 		.4byte	.LVL41
 3617 02f8 36000000 		.4byte	.LVL42
 3618 02fc 0100     		.2byte	0x1
 3619 02fe 54       		.byte	0x54
 3620 02ff 00000000 		.4byte	0
 3621 0303 00000000 		.4byte	0
 3622              	.LLST16:
 3623 0307 00000000 		.4byte	.LVL37
 3624 030b 08000000 		.4byte	.LVL38
 3625 030f 0200     		.2byte	0x2
 3626 0311 39       		.byte	0x39
 3627 0312 9F       		.byte	0x9f
 3628 0313 08000000 		.4byte	.LVL38
 3629 0317 4B000000 		.4byte	.LVL43-1
 3630 031b 0100     		.2byte	0x1
 3631 031d 50       		.byte	0x50
 3632 031e 4C000000 		.4byte	.LVL43
 3633 0322 5C000000 		.4byte	.LFE133
 3634 0326 0100     		.2byte	0x1
 3635 0328 50       		.byte	0x50
 3636 0329 00000000 		.4byte	0
 3637 032d 00000000 		.4byte	0
 3638              	.LLST17:
 3639 0331 00000000 		.4byte	.LVL44
 3640 0335 07000000 		.4byte	.LVL45-1
 3641 0339 0100     		.2byte	0x1
 3642 033b 50       		.byte	0x50
 3643 033c 07000000 		.4byte	.LVL45-1
 3644 0340 5C000000 		.4byte	.LFE134
 3645 0344 0400     		.2byte	0x4
 3646 0346 F3       		.byte	0xf3
 3647 0347 01       		.uleb128 0x1
 3648 0348 50       		.byte	0x50
ARM GAS  /var/folders/m4/4md61f0s1_g0rzfghffqnxvr0000gn/T//ccZNYUOX.s 			page 65


 3649 0349 9F       		.byte	0x9f
 3650 034a 00000000 		.4byte	0
 3651 034e 00000000 		.4byte	0
 3652              	.LLST18:
 3653 0352 00000000 		.4byte	.LVL44
 3654 0356 1A000000 		.4byte	.LVL46
 3655 035a 0200     		.2byte	0x2
 3656 035c 30       		.byte	0x30
 3657 035d 9F       		.byte	0x9f
 3658 035e 1A000000 		.4byte	.LVL46
 3659 0362 20000000 		.4byte	.LVL47
 3660 0366 0100     		.2byte	0x1
 3661 0368 54       		.byte	0x54
 3662 0369 20000000 		.4byte	.LVL47
 3663 036d 26000000 		.4byte	.LVL48
 3664 0371 0200     		.2byte	0x2
 3665 0373 30       		.byte	0x30
 3666 0374 9F       		.byte	0x9f
 3667 0375 26000000 		.4byte	.LVL48
 3668 0379 36000000 		.4byte	.LVL49
 3669 037d 0100     		.2byte	0x1
 3670 037f 54       		.byte	0x54
 3671 0380 00000000 		.4byte	0
 3672 0384 00000000 		.4byte	0
 3673              	.LLST19:
 3674 0388 00000000 		.4byte	.LVL44
 3675 038c 08000000 		.4byte	.LVL45
 3676 0390 0200     		.2byte	0x2
 3677 0392 39       		.byte	0x39
 3678 0393 9F       		.byte	0x9f
 3679 0394 08000000 		.4byte	.LVL45
 3680 0398 4B000000 		.4byte	.LVL50-1
 3681 039c 0100     		.2byte	0x1
 3682 039e 50       		.byte	0x50
 3683 039f 4C000000 		.4byte	.LVL50
 3684 03a3 5C000000 		.4byte	.LFE134
 3685 03a7 0100     		.2byte	0x1
 3686 03a9 50       		.byte	0x50
 3687 03aa 00000000 		.4byte	0
 3688 03ae 00000000 		.4byte	0
 3689              	.LLST20:
 3690 03b2 00000000 		.4byte	.LVL51
 3691 03b6 0B000000 		.4byte	.LVL52-1
 3692 03ba 0100     		.2byte	0x1
 3693 03bc 50       		.byte	0x50
 3694 03bd 0B000000 		.4byte	.LVL52-1
 3695 03c1 3E000000 		.4byte	.LVL55
 3696 03c5 0100     		.2byte	0x1
 3697 03c7 55       		.byte	0x55
 3698 03c8 3E000000 		.4byte	.LVL55
 3699 03cc 44000000 		.4byte	.LFE135
 3700 03d0 0400     		.2byte	0x4
 3701 03d2 F3       		.byte	0xf3
 3702 03d3 01       		.uleb128 0x1
 3703 03d4 50       		.byte	0x50
 3704 03d5 9F       		.byte	0x9f
 3705 03d6 00000000 		.4byte	0
ARM GAS  /var/folders/m4/4md61f0s1_g0rzfghffqnxvr0000gn/T//ccZNYUOX.s 			page 66


 3706 03da 00000000 		.4byte	0
 3707              	.LLST21:
 3708 03de 00000000 		.4byte	.LVL51
 3709 03e2 0B000000 		.4byte	.LVL52-1
 3710 03e6 0600     		.2byte	0x6
 3711 03e8 52       		.byte	0x52
 3712 03e9 93       		.byte	0x93
 3713 03ea 04       		.uleb128 0x4
 3714 03eb 53       		.byte	0x53
 3715 03ec 93       		.byte	0x93
 3716 03ed 04       		.uleb128 0x4
 3717 03ee 0B000000 		.4byte	.LVL52-1
 3718 03f2 44000000 		.4byte	.LFE135
 3719 03f6 0600     		.2byte	0x6
 3720 03f8 F3       		.byte	0xf3
 3721 03f9 03       		.uleb128 0x3
 3722 03fa F5       		.byte	0xf5
 3723 03fb 02       		.uleb128 0x2
 3724 03fc 25       		.uleb128 0x25
 3725 03fd 9F       		.byte	0x9f
 3726 03fe 00000000 		.4byte	0
 3727 0402 00000000 		.4byte	0
 3728              	.LLST22:
 3729 0406 00000000 		.4byte	.LVL51
 3730 040a 0C000000 		.4byte	.LVL52
 3731 040e 0200     		.2byte	0x2
 3732 0410 39       		.byte	0x39
 3733 0411 9F       		.byte	0x9f
 3734 0412 0C000000 		.4byte	.LVL52
 3735 0416 33000000 		.4byte	.LVL54-1
 3736 041a 0100     		.2byte	0x1
 3737 041c 50       		.byte	0x50
 3738 041d 34000000 		.4byte	.LVL54
 3739 0421 44000000 		.4byte	.LFE135
 3740 0425 0100     		.2byte	0x1
 3741 0427 50       		.byte	0x50
 3742 0428 00000000 		.4byte	0
 3743 042c 00000000 		.4byte	0
 3744              	.LLST23:
 3745 0430 00000000 		.4byte	.LVL56
 3746 0434 09000000 		.4byte	.LVL57-1
 3747 0438 0100     		.2byte	0x1
 3748 043a 50       		.byte	0x50
 3749 043b 09000000 		.4byte	.LVL57-1
 3750 043f 3A000000 		.4byte	.LVL60
 3751 0443 0100     		.2byte	0x1
 3752 0445 55       		.byte	0x55
 3753 0446 3A000000 		.4byte	.LVL60
 3754 044a 40000000 		.4byte	.LFE136
 3755 044e 0400     		.2byte	0x4
 3756 0450 F3       		.byte	0xf3
 3757 0451 01       		.uleb128 0x1
 3758 0452 50       		.byte	0x50
 3759 0453 9F       		.byte	0x9f
 3760 0454 00000000 		.4byte	0
 3761 0458 00000000 		.4byte	0
 3762              	.LLST24:
ARM GAS  /var/folders/m4/4md61f0s1_g0rzfghffqnxvr0000gn/T//ccZNYUOX.s 			page 67


 3763 045c 00000000 		.4byte	.LVL56
 3764 0460 09000000 		.4byte	.LVL57-1
 3765 0464 0100     		.2byte	0x1
 3766 0466 51       		.byte	0x51
 3767 0467 09000000 		.4byte	.LVL57-1
 3768 046b 3A000000 		.4byte	.LVL60
 3769 046f 0100     		.2byte	0x1
 3770 0471 56       		.byte	0x56
 3771 0472 3A000000 		.4byte	.LVL60
 3772 0476 40000000 		.4byte	.LFE136
 3773 047a 0400     		.2byte	0x4
 3774 047c F3       		.byte	0xf3
 3775 047d 01       		.uleb128 0x1
 3776 047e 51       		.byte	0x51
 3777 047f 9F       		.byte	0x9f
 3778 0480 00000000 		.4byte	0
 3779 0484 00000000 		.4byte	0
 3780              	.LLST25:
 3781 0488 00000000 		.4byte	.LVL56
 3782 048c 0A000000 		.4byte	.LVL57
 3783 0490 0200     		.2byte	0x2
 3784 0492 39       		.byte	0x39
 3785 0493 9F       		.byte	0x9f
 3786 0494 0A000000 		.4byte	.LVL57
 3787 0498 2F000000 		.4byte	.LVL59-1
 3788 049c 0100     		.2byte	0x1
 3789 049e 50       		.byte	0x50
 3790 049f 30000000 		.4byte	.LVL59
 3791 04a3 40000000 		.4byte	.LFE136
 3792 04a7 0100     		.2byte	0x1
 3793 04a9 50       		.byte	0x50
 3794 04aa 00000000 		.4byte	0
 3795 04ae 00000000 		.4byte	0
 3796              	.LLST26:
 3797 04b2 00000000 		.4byte	.LVL61
 3798 04b6 09000000 		.4byte	.LVL62-1
 3799 04ba 0100     		.2byte	0x1
 3800 04bc 50       		.byte	0x50
 3801 04bd 09000000 		.4byte	.LVL62-1
 3802 04c1 3A000000 		.4byte	.LVL65
 3803 04c5 0100     		.2byte	0x1
 3804 04c7 55       		.byte	0x55
 3805 04c8 3A000000 		.4byte	.LVL65
 3806 04cc 40000000 		.4byte	.LFE137
 3807 04d0 0400     		.2byte	0x4
 3808 04d2 F3       		.byte	0xf3
 3809 04d3 01       		.uleb128 0x1
 3810 04d4 50       		.byte	0x50
 3811 04d5 9F       		.byte	0x9f
 3812 04d6 00000000 		.4byte	0
 3813 04da 00000000 		.4byte	0
 3814              	.LLST27:
 3815 04de 00000000 		.4byte	.LVL61
 3816 04e2 09000000 		.4byte	.LVL62-1
 3817 04e6 0100     		.2byte	0x1
 3818 04e8 51       		.byte	0x51
 3819 04e9 09000000 		.4byte	.LVL62-1
ARM GAS  /var/folders/m4/4md61f0s1_g0rzfghffqnxvr0000gn/T//ccZNYUOX.s 			page 68


 3820 04ed 40000000 		.4byte	.LFE137
 3821 04f1 0400     		.2byte	0x4
 3822 04f3 F3       		.byte	0xf3
 3823 04f4 01       		.uleb128 0x1
 3824 04f5 51       		.byte	0x51
 3825 04f6 9F       		.byte	0x9f
 3826 04f7 00000000 		.4byte	0
 3827 04fb 00000000 		.4byte	0
 3828              	.LLST28:
 3829 04ff 00000000 		.4byte	.LVL61
 3830 0503 0A000000 		.4byte	.LVL62
 3831 0507 0200     		.2byte	0x2
 3832 0509 39       		.byte	0x39
 3833 050a 9F       		.byte	0x9f
 3834 050b 0A000000 		.4byte	.LVL62
 3835 050f 2F000000 		.4byte	.LVL64-1
 3836 0513 0100     		.2byte	0x1
 3837 0515 50       		.byte	0x50
 3838 0516 30000000 		.4byte	.LVL64
 3839 051a 40000000 		.4byte	.LFE137
 3840 051e 0100     		.2byte	0x1
 3841 0520 50       		.byte	0x50
 3842 0521 00000000 		.4byte	0
 3843 0525 00000000 		.4byte	0
 3844              	.LLST29:
 3845 0529 00000000 		.4byte	.LVL66
 3846 052d 09000000 		.4byte	.LVL67-1
 3847 0531 0100     		.2byte	0x1
 3848 0533 50       		.byte	0x50
 3849 0534 09000000 		.4byte	.LVL67-1
 3850 0538 36000000 		.4byte	.LVL70
 3851 053c 0100     		.2byte	0x1
 3852 053e 55       		.byte	0x55
 3853 053f 36000000 		.4byte	.LVL70
 3854 0543 3C000000 		.4byte	.LFE138
 3855 0547 0400     		.2byte	0x4
 3856 0549 F3       		.byte	0xf3
 3857 054a 01       		.uleb128 0x1
 3858 054b 50       		.byte	0x50
 3859 054c 9F       		.byte	0x9f
 3860 054d 00000000 		.4byte	0
 3861 0551 00000000 		.4byte	0
 3862              	.LLST30:
 3863 0555 00000000 		.4byte	.LVL66
 3864 0559 09000000 		.4byte	.LVL67-1
 3865 055d 0100     		.2byte	0x1
 3866 055f 51       		.byte	0x51
 3867 0560 09000000 		.4byte	.LVL67-1
 3868 0564 3C000000 		.4byte	.LFE138
 3869 0568 0400     		.2byte	0x4
 3870 056a F3       		.byte	0xf3
 3871 056b 01       		.uleb128 0x1
 3872 056c 51       		.byte	0x51
 3873 056d 9F       		.byte	0x9f
 3874 056e 00000000 		.4byte	0
 3875 0572 00000000 		.4byte	0
 3876              	.LLST31:
ARM GAS  /var/folders/m4/4md61f0s1_g0rzfghffqnxvr0000gn/T//ccZNYUOX.s 			page 69


 3877 0576 00000000 		.4byte	.LVL66
 3878 057a 0A000000 		.4byte	.LVL67
 3879 057e 0200     		.2byte	0x2
 3880 0580 39       		.byte	0x39
 3881 0581 9F       		.byte	0x9f
 3882 0582 0A000000 		.4byte	.LVL67
 3883 0586 2B000000 		.4byte	.LVL69-1
 3884 058a 0100     		.2byte	0x1
 3885 058c 50       		.byte	0x50
 3886 058d 2C000000 		.4byte	.LVL69
 3887 0591 3C000000 		.4byte	.LFE138
 3888 0595 0100     		.2byte	0x1
 3889 0597 50       		.byte	0x50
 3890 0598 00000000 		.4byte	0
 3891 059c 00000000 		.4byte	0
 3892              	.LLST32:
 3893 05a0 00000000 		.4byte	.LVL71
 3894 05a4 09000000 		.4byte	.LVL72-1
 3895 05a8 0100     		.2byte	0x1
 3896 05aa 50       		.byte	0x50
 3897 05ab 09000000 		.4byte	.LVL72-1
 3898 05af 28000000 		.4byte	.LVL76
 3899 05b3 0100     		.2byte	0x1
 3900 05b5 55       		.byte	0x55
 3901 05b6 28000000 		.4byte	.LVL76
 3902 05ba 2C000000 		.4byte	.LFE141
 3903 05be 0400     		.2byte	0x4
 3904 05c0 F3       		.byte	0xf3
 3905 05c1 01       		.uleb128 0x1
 3906 05c2 50       		.byte	0x50
 3907 05c3 9F       		.byte	0x9f
 3908 05c4 00000000 		.4byte	0
 3909 05c8 00000000 		.4byte	0
 3910              	.LLST33:
 3911 05cc 00000000 		.4byte	.LVL71
 3912 05d0 09000000 		.4byte	.LVL72-1
 3913 05d4 0100     		.2byte	0x1
 3914 05d6 51       		.byte	0x51
 3915 05d7 09000000 		.4byte	.LVL72-1
 3916 05db 2C000000 		.4byte	.LFE141
 3917 05df 0400     		.2byte	0x4
 3918 05e1 F3       		.byte	0xf3
 3919 05e2 01       		.uleb128 0x1
 3920 05e3 51       		.byte	0x51
 3921 05e4 9F       		.byte	0x9f
 3922 05e5 00000000 		.4byte	0
 3923 05e9 00000000 		.4byte	0
 3924              	.LLST34:
 3925 05ed 00000000 		.4byte	.LVL71
 3926 05f1 0A000000 		.4byte	.LVL72
 3927 05f5 0200     		.2byte	0x2
 3928 05f7 39       		.byte	0x39
 3929 05f8 9F       		.byte	0x9f
 3930 05f9 0A000000 		.4byte	.LVL72
 3931 05fd 14000000 		.4byte	.LVL74
 3932 0601 0100     		.2byte	0x1
 3933 0603 50       		.byte	0x50
ARM GAS  /var/folders/m4/4md61f0s1_g0rzfghffqnxvr0000gn/T//ccZNYUOX.s 			page 70


 3934 0604 00000000 		.4byte	0
 3935 0608 00000000 		.4byte	0
 3936              	.LLST35:
 3937 060c 00000000 		.4byte	.LVL77
 3938 0610 09000000 		.4byte	.LVL78-1
 3939 0614 0100     		.2byte	0x1
 3940 0616 50       		.byte	0x50
 3941 0617 09000000 		.4byte	.LVL78-1
 3942 061b 28000000 		.4byte	.LVL82
 3943 061f 0100     		.2byte	0x1
 3944 0621 55       		.byte	0x55
 3945 0622 28000000 		.4byte	.LVL82
 3946 0626 2C000000 		.4byte	.LFE142
 3947 062a 0400     		.2byte	0x4
 3948 062c F3       		.byte	0xf3
 3949 062d 01       		.uleb128 0x1
 3950 062e 50       		.byte	0x50
 3951 062f 9F       		.byte	0x9f
 3952 0630 00000000 		.4byte	0
 3953 0634 00000000 		.4byte	0
 3954              	.LLST36:
 3955 0638 00000000 		.4byte	.LVL77
 3956 063c 09000000 		.4byte	.LVL78-1
 3957 0640 0100     		.2byte	0x1
 3958 0642 51       		.byte	0x51
 3959 0643 09000000 		.4byte	.LVL78-1
 3960 0647 2C000000 		.4byte	.LFE142
 3961 064b 0400     		.2byte	0x4
 3962 064d F3       		.byte	0xf3
 3963 064e 01       		.uleb128 0x1
 3964 064f 51       		.byte	0x51
 3965 0650 9F       		.byte	0x9f
 3966 0651 00000000 		.4byte	0
 3967 0655 00000000 		.4byte	0
 3968              	.LLST37:
 3969 0659 00000000 		.4byte	.LVL77
 3970 065d 0A000000 		.4byte	.LVL78
 3971 0661 0200     		.2byte	0x2
 3972 0663 39       		.byte	0x39
 3973 0664 9F       		.byte	0x9f
 3974 0665 0A000000 		.4byte	.LVL78
 3975 0669 14000000 		.4byte	.LVL80
 3976 066d 0100     		.2byte	0x1
 3977 066f 50       		.byte	0x50
 3978 0670 00000000 		.4byte	0
 3979 0674 00000000 		.4byte	0
 3980              	.LLST38:
 3981 0678 00000000 		.4byte	.LVL83
 3982 067c 09000000 		.4byte	.LVL84-1
 3983 0680 0100     		.2byte	0x1
 3984 0682 50       		.byte	0x50
 3985 0683 09000000 		.4byte	.LVL84-1
 3986 0687 28000000 		.4byte	.LVL88
 3987 068b 0100     		.2byte	0x1
 3988 068d 55       		.byte	0x55
 3989 068e 28000000 		.4byte	.LVL88
 3990 0692 2C000000 		.4byte	.LFE144
ARM GAS  /var/folders/m4/4md61f0s1_g0rzfghffqnxvr0000gn/T//ccZNYUOX.s 			page 71


 3991 0696 0400     		.2byte	0x4
 3992 0698 F3       		.byte	0xf3
 3993 0699 01       		.uleb128 0x1
 3994 069a 50       		.byte	0x50
 3995 069b 9F       		.byte	0x9f
 3996 069c 00000000 		.4byte	0
 3997 06a0 00000000 		.4byte	0
 3998              	.LLST39:
 3999 06a4 00000000 		.4byte	.LVL83
 4000 06a8 09000000 		.4byte	.LVL84-1
 4001 06ac 0100     		.2byte	0x1
 4002 06ae 51       		.byte	0x51
 4003 06af 09000000 		.4byte	.LVL84-1
 4004 06b3 2C000000 		.4byte	.LFE144
 4005 06b7 0400     		.2byte	0x4
 4006 06b9 F3       		.byte	0xf3
 4007 06ba 01       		.uleb128 0x1
 4008 06bb 51       		.byte	0x51
 4009 06bc 9F       		.byte	0x9f
 4010 06bd 00000000 		.4byte	0
 4011 06c1 00000000 		.4byte	0
 4012              	.LLST40:
 4013 06c5 00000000 		.4byte	.LVL83
 4014 06c9 0A000000 		.4byte	.LVL84
 4015 06cd 0200     		.2byte	0x2
 4016 06cf 39       		.byte	0x39
 4017 06d0 9F       		.byte	0x9f
 4018 06d1 0A000000 		.4byte	.LVL84
 4019 06d5 14000000 		.4byte	.LVL86
 4020 06d9 0100     		.2byte	0x1
 4021 06db 50       		.byte	0x50
 4022 06dc 00000000 		.4byte	0
 4023 06e0 00000000 		.4byte	0
 4024              	.LLST41:
 4025 06e4 00000000 		.4byte	.LVL89
 4026 06e8 09000000 		.4byte	.LVL90-1
 4027 06ec 0100     		.2byte	0x1
 4028 06ee 50       		.byte	0x50
 4029 06ef 09000000 		.4byte	.LVL90-1
 4030 06f3 28000000 		.4byte	.LVL94
 4031 06f7 0100     		.2byte	0x1
 4032 06f9 55       		.byte	0x55
 4033 06fa 28000000 		.4byte	.LVL94
 4034 06fe 2C000000 		.4byte	.LFE145
 4035 0702 0400     		.2byte	0x4
 4036 0704 F3       		.byte	0xf3
 4037 0705 01       		.uleb128 0x1
 4038 0706 50       		.byte	0x50
 4039 0707 9F       		.byte	0x9f
 4040 0708 00000000 		.4byte	0
 4041 070c 00000000 		.4byte	0
 4042              	.LLST42:
 4043 0710 00000000 		.4byte	.LVL89
 4044 0714 09000000 		.4byte	.LVL90-1
 4045 0718 0100     		.2byte	0x1
 4046 071a 51       		.byte	0x51
 4047 071b 09000000 		.4byte	.LVL90-1
ARM GAS  /var/folders/m4/4md61f0s1_g0rzfghffqnxvr0000gn/T//ccZNYUOX.s 			page 72


 4048 071f 2C000000 		.4byte	.LFE145
 4049 0723 0400     		.2byte	0x4
 4050 0725 F3       		.byte	0xf3
 4051 0726 01       		.uleb128 0x1
 4052 0727 51       		.byte	0x51
 4053 0728 9F       		.byte	0x9f
 4054 0729 00000000 		.4byte	0
 4055 072d 00000000 		.4byte	0
 4056              	.LLST43:
 4057 0731 00000000 		.4byte	.LVL89
 4058 0735 0A000000 		.4byte	.LVL90
 4059 0739 0200     		.2byte	0x2
 4060 073b 39       		.byte	0x39
 4061 073c 9F       		.byte	0x9f
 4062 073d 0A000000 		.4byte	.LVL90
 4063 0741 14000000 		.4byte	.LVL92
 4064 0745 0100     		.2byte	0x1
 4065 0747 50       		.byte	0x50
 4066 0748 00000000 		.4byte	0
 4067 074c 00000000 		.4byte	0
 4068              	.LLST44:
 4069 0750 00000000 		.4byte	.LVL95
 4070 0754 07000000 		.4byte	.LVL96-1
 4071 0758 0100     		.2byte	0x1
 4072 075a 50       		.byte	0x50
 4073 075b 07000000 		.4byte	.LVL96-1
 4074 075f 18000000 		.4byte	.LFE146
 4075 0763 0400     		.2byte	0x4
 4076 0765 F3       		.byte	0xf3
 4077 0766 01       		.uleb128 0x1
 4078 0767 50       		.byte	0x50
 4079 0768 9F       		.byte	0x9f
 4080 0769 00000000 		.4byte	0
 4081 076d 00000000 		.4byte	0
 4082              	.LLST45:
 4083 0771 00000000 		.4byte	.LVL95
 4084 0775 08000000 		.4byte	.LVL96
 4085 0779 0200     		.2byte	0x2
 4086 077b 39       		.byte	0x39
 4087 077c 9F       		.byte	0x9f
 4088 077d 08000000 		.4byte	.LVL96
 4089 0781 18000000 		.4byte	.LFE146
 4090 0785 0100     		.2byte	0x1
 4091 0787 50       		.byte	0x50
 4092 0788 00000000 		.4byte	0
 4093 078c 00000000 		.4byte	0
 4094              	.LLST46:
 4095 0790 00000000 		.4byte	.LVL97
 4096 0794 0B000000 		.4byte	.LVL98-1
 4097 0798 0100     		.2byte	0x1
 4098 079a 50       		.byte	0x50
 4099 079b 0B000000 		.4byte	.LVL98-1
 4100 079f 28000000 		.4byte	.LFE147
 4101 07a3 0400     		.2byte	0x4
 4102 07a5 F3       		.byte	0xf3
 4103 07a6 01       		.uleb128 0x1
 4104 07a7 50       		.byte	0x50
ARM GAS  /var/folders/m4/4md61f0s1_g0rzfghffqnxvr0000gn/T//ccZNYUOX.s 			page 73


 4105 07a8 9F       		.byte	0x9f
 4106 07a9 00000000 		.4byte	0
 4107 07ad 00000000 		.4byte	0
 4108              	.LLST47:
 4109 07b1 00000000 		.4byte	.LVL97
 4110 07b5 0B000000 		.4byte	.LVL98-1
 4111 07b9 0100     		.2byte	0x1
 4112 07bb 51       		.byte	0x51
 4113 07bc 0B000000 		.4byte	.LVL98-1
 4114 07c0 28000000 		.4byte	.LFE147
 4115 07c4 0400     		.2byte	0x4
 4116 07c6 F3       		.byte	0xf3
 4117 07c7 01       		.uleb128 0x1
 4118 07c8 51       		.byte	0x51
 4119 07c9 9F       		.byte	0x9f
 4120 07ca 00000000 		.4byte	0
 4121 07ce 00000000 		.4byte	0
 4122              	.LLST48:
 4123 07d2 00000000 		.4byte	.LVL97
 4124 07d6 0B000000 		.4byte	.LVL98-1
 4125 07da 0100     		.2byte	0x1
 4126 07dc 52       		.byte	0x52
 4127 07dd 0B000000 		.4byte	.LVL98-1
 4128 07e1 28000000 		.4byte	.LFE147
 4129 07e5 0400     		.2byte	0x4
 4130 07e7 F3       		.byte	0xf3
 4131 07e8 01       		.uleb128 0x1
 4132 07e9 52       		.byte	0x52
 4133 07ea 9F       		.byte	0x9f
 4134 07eb 00000000 		.4byte	0
 4135 07ef 00000000 		.4byte	0
 4136              	.LLST49:
 4137 07f3 00000000 		.4byte	.LVL97
 4138 07f7 14000000 		.4byte	.LVL99
 4139 07fb 0300     		.2byte	0x3
 4140 07fd 09       		.byte	0x9
 4141 07fe FF       		.byte	0xff
 4142 07ff 9F       		.byte	0x9f
 4143 0800 14000000 		.4byte	.LVL99
 4144 0804 18000000 		.4byte	.LVL100
 4145 0808 0500     		.2byte	0x5
 4146 080a 71       		.byte	0x71
 4147 080b 00       		.sleb128 0
 4148 080c 3F       		.byte	0x3f
 4149 080d 1A       		.byte	0x1a
 4150 080e 9F       		.byte	0x9f
 4151 080f 00000000 		.4byte	0
 4152 0813 00000000 		.4byte	0
 4153              	.LLST50:
 4154 0817 00000000 		.4byte	.LVL97
 4155 081b 0C000000 		.4byte	.LVL98
 4156 081f 0200     		.2byte	0x2
 4157 0821 39       		.byte	0x39
 4158 0822 9F       		.byte	0x9f
 4159 0823 0C000000 		.4byte	.LVL98
 4160 0827 28000000 		.4byte	.LFE147
 4161 082b 0100     		.2byte	0x1
ARM GAS  /var/folders/m4/4md61f0s1_g0rzfghffqnxvr0000gn/T//ccZNYUOX.s 			page 74


 4162 082d 50       		.byte	0x50
 4163 082e 00000000 		.4byte	0
 4164 0832 00000000 		.4byte	0
 4165              		.section	.debug_aranges,"",%progbits
 4166 0000 3C010000 		.4byte	0x13c
 4167 0004 0200     		.2byte	0x2
 4168 0006 00000000 		.4byte	.Ldebug_info0
 4169 000a 04       		.byte	0x4
 4170 000b 00       		.byte	0
 4171 000c 0000     		.2byte	0
 4172 000e 0000     		.2byte	0
 4173 0010 00000000 		.4byte	.LFB123
 4174 0014 0C000000 		.4byte	.LFE123-.LFB123
 4175 0018 00000000 		.4byte	.LFB124
 4176 001c 1C000000 		.4byte	.LFE124-.LFB124
 4177 0020 00000000 		.4byte	.LFB125
 4178 0024 1C000000 		.4byte	.LFE125-.LFB125
 4179 0028 00000000 		.4byte	.LFB126
 4180 002c 1C000000 		.4byte	.LFE126-.LFB126
 4181 0030 00000000 		.4byte	.LFB127
 4182 0034 10000000 		.4byte	.LFE127-.LFB127
 4183 0038 00000000 		.4byte	.LFB128
 4184 003c 10000000 		.4byte	.LFE128-.LFB128
 4185 0040 00000000 		.4byte	.LFB129
 4186 0044 20000000 		.4byte	.LFE129-.LFB129
 4187 0048 00000000 		.4byte	.LFB130
 4188 004c 10000000 		.4byte	.LFE130-.LFB130
 4189 0050 00000000 		.4byte	.LFB139
 4190 0054 20000000 		.4byte	.LFE139-.LFB139
 4191 0058 00000000 		.4byte	.LFB140
 4192 005c 10000000 		.4byte	.LFE140-.LFB140
 4193 0060 00000000 		.4byte	.LFB143
 4194 0064 14000000 		.4byte	.LFE143-.LFB143
 4195 0068 00000000 		.4byte	.LFB148
 4196 006c 18000000 		.4byte	.LFE148-.LFB148
 4197 0070 00000000 		.4byte	.LFB149
 4198 0074 18000000 		.4byte	.LFE149-.LFB149
 4199 0078 00000000 		.4byte	.LFB151
 4200 007c 10000000 		.4byte	.LFE151-.LFB151
 4201 0080 00000000 		.4byte	.LFB154
 4202 0084 0C000000 		.4byte	.LFE154-.LFB154
 4203 0088 00000000 		.4byte	.LFB155
 4204 008c 0C000000 		.4byte	.LFE155-.LFB155
 4205 0090 00000000 		.4byte	.LFB156
 4206 0094 10000000 		.4byte	.LFE156-.LFB156
 4207 0098 00000000 		.4byte	.LFB157
 4208 009c 10000000 		.4byte	.LFE157-.LFB157
 4209 00a0 00000000 		.4byte	.LFB158
 4210 00a4 1C000000 		.4byte	.LFE158-.LFB158
 4211 00a8 00000000 		.4byte	.LFB159
 4212 00ac 14000000 		.4byte	.LFE159-.LFB159
 4213 00b0 00000000 		.4byte	.LFB160
 4214 00b4 0C000000 		.4byte	.LFE160-.LFB160
 4215 00b8 00000000 		.4byte	.LFB161
 4216 00bc 40000000 		.4byte	.LFE161-.LFB161
 4217 00c0 00000000 		.4byte	.LFB162
 4218 00c4 26000000 		.4byte	.LFE162-.LFB162
ARM GAS  /var/folders/m4/4md61f0s1_g0rzfghffqnxvr0000gn/T//ccZNYUOX.s 			page 75


 4219 00c8 00000000 		.4byte	.LFB131
 4220 00cc 74000000 		.4byte	.LFE131-.LFB131
 4221 00d0 00000000 		.4byte	.LFB133
 4222 00d4 5C000000 		.4byte	.LFE133-.LFB133
 4223 00d8 00000000 		.4byte	.LFB134
 4224 00dc 5C000000 		.4byte	.LFE134-.LFB134
 4225 00e0 00000000 		.4byte	.LFB135
 4226 00e4 44000000 		.4byte	.LFE135-.LFB135
 4227 00e8 00000000 		.4byte	.LFB136
 4228 00ec 40000000 		.4byte	.LFE136-.LFB136
 4229 00f0 00000000 		.4byte	.LFB137
 4230 00f4 40000000 		.4byte	.LFE137-.LFB137
 4231 00f8 00000000 		.4byte	.LFB138
 4232 00fc 3C000000 		.4byte	.LFE138-.LFB138
 4233 0100 00000000 		.4byte	.LFB141
 4234 0104 2C000000 		.4byte	.LFE141-.LFB141
 4235 0108 00000000 		.4byte	.LFB142
 4236 010c 2C000000 		.4byte	.LFE142-.LFB142
 4237 0110 00000000 		.4byte	.LFB144
 4238 0114 2C000000 		.4byte	.LFE144-.LFB144
 4239 0118 00000000 		.4byte	.LFB145
 4240 011c 2C000000 		.4byte	.LFE145-.LFB145
 4241 0120 00000000 		.4byte	.LFB146
 4242 0124 18000000 		.4byte	.LFE146-.LFB146
 4243 0128 00000000 		.4byte	.LFB147
 4244 012c 28000000 		.4byte	.LFE147-.LFB147
 4245 0130 00000000 		.4byte	.LFB150
 4246 0134 14000000 		.4byte	.LFE150-.LFB150
 4247 0138 00000000 		.4byte	0
 4248 013c 00000000 		.4byte	0
 4249              		.section	.debug_ranges,"",%progbits
 4250              	.Ldebug_ranges0:
 4251 0000 00000000 		.4byte	.LFB123
 4252 0004 0C000000 		.4byte	.LFE123
 4253 0008 00000000 		.4byte	.LFB124
 4254 000c 1C000000 		.4byte	.LFE124
 4255 0010 00000000 		.4byte	.LFB125
 4256 0014 1C000000 		.4byte	.LFE125
 4257 0018 00000000 		.4byte	.LFB126
 4258 001c 1C000000 		.4byte	.LFE126
 4259 0020 00000000 		.4byte	.LFB127
 4260 0024 10000000 		.4byte	.LFE127
 4261 0028 00000000 		.4byte	.LFB128
 4262 002c 10000000 		.4byte	.LFE128
 4263 0030 00000000 		.4byte	.LFB129
 4264 0034 20000000 		.4byte	.LFE129
 4265 0038 00000000 		.4byte	.LFB130
 4266 003c 10000000 		.4byte	.LFE130
 4267 0040 00000000 		.4byte	.LFB139
 4268 0044 20000000 		.4byte	.LFE139
 4269 0048 00000000 		.4byte	.LFB140
 4270 004c 10000000 		.4byte	.LFE140
 4271 0050 00000000 		.4byte	.LFB143
 4272 0054 14000000 		.4byte	.LFE143
 4273 0058 00000000 		.4byte	.LFB148
 4274 005c 18000000 		.4byte	.LFE148
 4275 0060 00000000 		.4byte	.LFB149
ARM GAS  /var/folders/m4/4md61f0s1_g0rzfghffqnxvr0000gn/T//ccZNYUOX.s 			page 76


 4276 0064 18000000 		.4byte	.LFE149
 4277 0068 00000000 		.4byte	.LFB151
 4278 006c 10000000 		.4byte	.LFE151
 4279 0070 00000000 		.4byte	.LFB154
 4280 0074 0C000000 		.4byte	.LFE154
 4281 0078 00000000 		.4byte	.LFB155
 4282 007c 0C000000 		.4byte	.LFE155
 4283 0080 00000000 		.4byte	.LFB156
 4284 0084 10000000 		.4byte	.LFE156
 4285 0088 00000000 		.4byte	.LFB157
 4286 008c 10000000 		.4byte	.LFE157
 4287 0090 00000000 		.4byte	.LFB158
 4288 0094 1C000000 		.4byte	.LFE158
 4289 0098 00000000 		.4byte	.LFB159
 4290 009c 14000000 		.4byte	.LFE159
 4291 00a0 00000000 		.4byte	.LFB160
 4292 00a4 0C000000 		.4byte	.LFE160
 4293 00a8 00000000 		.4byte	.LFB161
 4294 00ac 40000000 		.4byte	.LFE161
 4295 00b0 00000000 		.4byte	.LFB162
 4296 00b4 26000000 		.4byte	.LFE162
 4297 00b8 00000000 		.4byte	.LFB131
 4298 00bc 74000000 		.4byte	.LFE131
 4299 00c0 00000000 		.4byte	.LFB133
 4300 00c4 5C000000 		.4byte	.LFE133
 4301 00c8 00000000 		.4byte	.LFB134
 4302 00cc 5C000000 		.4byte	.LFE134
 4303 00d0 00000000 		.4byte	.LFB135
 4304 00d4 44000000 		.4byte	.LFE135
 4305 00d8 00000000 		.4byte	.LFB136
 4306 00dc 40000000 		.4byte	.LFE136
 4307 00e0 00000000 		.4byte	.LFB137
 4308 00e4 40000000 		.4byte	.LFE137
 4309 00e8 00000000 		.4byte	.LFB138
 4310 00ec 3C000000 		.4byte	.LFE138
 4311 00f0 00000000 		.4byte	.LFB141
 4312 00f4 2C000000 		.4byte	.LFE141
 4313 00f8 00000000 		.4byte	.LFB142
 4314 00fc 2C000000 		.4byte	.LFE142
 4315 0100 00000000 		.4byte	.LFB144
 4316 0104 2C000000 		.4byte	.LFE144
 4317 0108 00000000 		.4byte	.LFB145
 4318 010c 2C000000 		.4byte	.LFE145
 4319 0110 00000000 		.4byte	.LFB146
 4320 0114 18000000 		.4byte	.LFE146
 4321 0118 00000000 		.4byte	.LFB147
 4322 011c 28000000 		.4byte	.LFE147
 4323 0120 00000000 		.4byte	.LFB150
 4324 0124 14000000 		.4byte	.LFE150
 4325 0128 00000000 		.4byte	0
 4326 012c 00000000 		.4byte	0
 4327              		.section	.debug_line,"",%progbits
 4328              	.Ldebug_line0:
 4329 0000 7C050000 		.section	.debug_str,"MS",%progbits,1
 4329      02001F02 
 4329      00000201 
 4329      FB0E0D00 
ARM GAS  /var/folders/m4/4md61f0s1_g0rzfghffqnxvr0000gn/T//ccZNYUOX.s 			page 77


 4329      01010101 
 4330              	.LASF64:
 4331 0000 464C4153 		.ascii	"FLASH_ITConfig\000"
 4331      485F4954 
 4331      436F6E66 
 4331      696700
 4332              	.LASF92:
 4333 000f 4F425F52 		.ascii	"OB_RDP\000"
 4333      445000
 4334              	.LASF94:
 4335 0016 4F425F49 		.ascii	"OB_IWDG\000"
 4335      57444700 
 4336              	.LASF35:
 4337 001e 464C4153 		.ascii	"FLASH_ERROR_WRP\000"
 4337      485F4552 
 4337      524F525F 
 4337      57525000 
 4338              	.LASF18:
 4339 002e 75696E74 		.ascii	"uint64_t\000"
 4339      36345F74 
 4339      00
 4340              	.LASF78:
 4341 0037 464C4153 		.ascii	"FLASH_EraseAllBank2Sectors\000"
 4341      485F4572 
 4341      61736541 
 4341      6C6C4261 
 4341      6E6B3253 
 4342              	.LASF19:
 4343 0052 73697A65 		.ascii	"sizetype\000"
 4343      74797065 
 4343      00
 4344              	.LASF65:
 4345 005b 464C4153 		.ascii	"FLASH_IT\000"
 4345      485F4954 
 4345      00
 4346              	.LASF91:
 4347 0064 464C4153 		.ascii	"FLASH_OB_RDPConfig\000"
 4347      485F4F42 
 4347      5F524450 
 4347      436F6E66 
 4347      696700
 4348              	.LASF55:
 4349 0077 4F425F42 		.ascii	"OB_BOOT\000"
 4349      4F4F5400 
 4350              	.LASF74:
 4351 007f 464C4153 		.ascii	"FLASH_Sector\000"
 4351      485F5365 
 4351      63746F72 
 4351      00
 4352              	.LASF98:
 4353 008c 474E5520 		.ascii	"GNU C99 5.2.1 20151202 (release) [ARM/embedded-5-br"
 4353      43393920 
 4353      352E322E 
 4353      31203230 
 4353      31353132 
 4354 00bf 616E6368 		.ascii	"anch revision 231848] -mcpu=cortex-m4 -mfloat-abi=h"
 4354      20726576 
ARM GAS  /var/folders/m4/4md61f0s1_g0rzfghffqnxvr0000gn/T//ccZNYUOX.s 			page 78


 4354      6973696F 
 4354      6E203233 
 4354      31383438 
 4355 00f2 61726420 		.ascii	"ard -mfpu=fpv4-sp-d16 -mno-thumb-interwork -mthumb "
 4355      2D6D6670 
 4355      753D6670 
 4355      76342D73 
 4355      702D6431 
 4356 0125 2D676764 		.ascii	"-ggdb -O2 -std=c99 -fomit-frame-pointer -falign-fun"
 4356      62202D4F 
 4356      32202D73 
 4356      74643D63 
 4356      3939202D 
 4357 0158 6374696F 		.ascii	"ctions=16 -ffunction-sections -fdata-sections -fno-"
 4357      6E733D31 
 4357      36202D66 
 4357      66756E63 
 4357      74696F6E 
 4358 018b 636F6D6D 		.ascii	"common\000"
 4358      6F6E00
 4359              	.LASF100:
 4360 0192 2F557365 		.ascii	"/Users/raphael/Documents/Projects/rESC/resc-firmwar"
 4360      72732F72 
 4360      61706861 
 4360      656C2F44 
 4360      6F63756D 
 4361 01c5 6500     		.ascii	"e\000"
 4362              	.LASF62:
 4363 01c7 464C4153 		.ascii	"FLASH_OB_GetUser\000"
 4363      485F4F42 
 4363      5F476574 
 4363      55736572 
 4363      00
 4364              	.LASF51:
 4365 01d8 464C4153 		.ascii	"FLASH_OB_Lock\000"
 4365      485F4F42 
 4365      5F4C6F63 
 4365      6B00
 4366              	.LASF80:
 4367 01e6 41646472 		.ascii	"Address\000"
 4367      65737300 
 4368              	.LASF5:
 4369 01ee 5F5F7569 		.ascii	"__uint16_t\000"
 4369      6E743136 
 4369      5F7400
 4370              	.LASF86:
 4371 01f9 4F425F57 		.ascii	"OB_WRP\000"
 4371      525000
 4372              	.LASF3:
 4373 0200 73686F72 		.ascii	"short int\000"
 4373      7420696E 
 4373      7400
 4374              	.LASF93:
 4375 020a 464C4153 		.ascii	"FLASH_OB_UserConfig\000"
 4375      485F4F42 
 4375      5F557365 
 4375      72436F6E 
ARM GAS  /var/folders/m4/4md61f0s1_g0rzfghffqnxvr0000gn/T//ccZNYUOX.s 			page 79


 4375      66696700 
 4376              	.LASF88:
 4377 021e 464C4153 		.ascii	"FLASH_OB_PCROPConfig\000"
 4377      485F4F42 
 4377      5F504352 
 4377      4F50436F 
 4377      6E666967 
 4378              	.LASF48:
 4379 0233 464C4153 		.ascii	"FLASH_Unlock\000"
 4379      485F556E 
 4379      6C6F636B 
 4379      00
 4380              	.LASF14:
 4381 0240 75696E74 		.ascii	"uint8_t\000"
 4381      385F7400 
 4382              	.LASF39:
 4383 0248 464C4153 		.ascii	"FLASH_Status\000"
 4383      485F5374 
 4383      61747573 
 4383      00
 4384              	.LASF76:
 4385 0255 746D705F 		.ascii	"tmp_psize\000"
 4385      7073697A 
 4385      6500
 4386              	.LASF43:
 4387 025f 4E657753 		.ascii	"NewState\000"
 4387      74617465 
 4387      00
 4388              	.LASF58:
 4389 0268 464C4153 		.ascii	"FLASH_OB_GetPCROP\000"
 4389      485F4F42 
 4389      5F476574 
 4389      5043524F 
 4389      5000
 4390              	.LASF27:
 4391 027a 44495341 		.ascii	"DISABLE\000"
 4391      424C4500 
 4392              	.LASF99:
 4393 0282 43686962 		.ascii	"ChibiOS_16.1.4/ext/stdperiph_stm32f4/src/stm32f4xx_"
 4393      694F535F 
 4393      31362E31 
 4393      2E342F65 
 4393      78742F73 
 4394 02b5 666C6173 		.ascii	"flash.c\000"
 4394      682E6300 
 4395              	.LASF90:
 4396 02bd 464C4153 		.ascii	"FLASH_OB_PCROP1Config\000"
 4396      485F4F42 
 4396      5F504352 
 4396      4F503143 
 4396      6F6E6669 
 4397              	.LASF44:
 4398 02d3 464C4153 		.ascii	"FLASH_InstructionCacheCmd\000"
 4398      485F496E 
 4398      73747275 
 4398      6374696F 
 4398      6E436163 
ARM GAS  /var/folders/m4/4md61f0s1_g0rzfghffqnxvr0000gn/T//ccZNYUOX.s 			page 80


 4399              	.LASF47:
 4400 02ed 464C4153 		.ascii	"FLASH_DataCacheReset\000"
 4400      485F4461 
 4400      74614361 
 4400      63686552 
 4400      65736574 
 4401              	.LASF21:
 4402 0302 4F50544B 		.ascii	"OPTKEYR\000"
 4402      45595200 
 4403              	.LASF89:
 4404 030a 4F425F50 		.ascii	"OB_PCROP\000"
 4404      43524F50 
 4404      00
 4405              	.LASF11:
 4406 0313 6C6F6E67 		.ascii	"long long int\000"
 4406      206C6F6E 
 4406      6720696E 
 4406      7400
 4407              	.LASF68:
 4408 0321 464C4153 		.ascii	"FLASH_FLAG\000"
 4408      485F464C 
 4408      414700
 4409              	.LASF87:
 4410 032c 464C4153 		.ascii	"FLASH_OB_WRP1Config\000"
 4410      485F4F42 
 4410      5F575250 
 4410      31436F6E 
 4410      66696700 
 4411              	.LASF73:
 4412 0340 464C4153 		.ascii	"FLASH_EraseSector\000"
 4412      485F4572 
 4412      61736553 
 4412      6563746F 
 4412      7200
 4413              	.LASF8:
 4414 0352 6C6F6E67 		.ascii	"long int\000"
 4414      20696E74 
 4414      00
 4415              	.LASF66:
 4416 035b 464C4153 		.ascii	"FLASH_OB_GetRDP\000"
 4416      485F4F42 
 4416      5F476574 
 4416      52445000 
 4417              	.LASF37:
 4418 036b 464C4153 		.ascii	"FLASH_ERROR_OPERATION\000"
 4418      485F4552 
 4418      524F525F 
 4418      4F504552 
 4418      4154494F 
 4419              	.LASF4:
 4420 0381 5F5F7569 		.ascii	"__uint8_t\000"
 4420      6E74385F 
 4420      7400
 4421              	.LASF102:
 4422 038b 666C6173 		.ascii	"flashstatus\000"
 4422      68737461 
 4422      74757300 
ARM GAS  /var/folders/m4/4md61f0s1_g0rzfghffqnxvr0000gn/T//ccZNYUOX.s 			page 81


 4423              	.LASF46:
 4424 0397 464C4153 		.ascii	"FLASH_InstructionCacheReset\000"
 4424      485F496E 
 4424      73747275 
 4424      6374696F 
 4424      6E436163 
 4425              	.LASF54:
 4426 03b3 464C4153 		.ascii	"FLASH_OB_BootConfig\000"
 4426      485F4F42 
 4426      5F426F6F 
 4426      74436F6E 
 4426      66696700 
 4427              	.LASF81:
 4428 03c7 44617461 		.ascii	"Data\000"
 4428      00
 4429              	.LASF23:
 4430 03cc 4F505443 		.ascii	"OPTCR1\000"
 4430      523100
 4431              	.LASF97:
 4432 03d3 464C4153 		.ascii	"FLASH_OB_Launch\000"
 4432      485F4F42 
 4432      5F4C6175 
 4432      6E636800 
 4433              	.LASF20:
 4434 03e3 4B455952 		.ascii	"KEYR\000"
 4434      00
 4435              	.LASF2:
 4436 03e8 756E7369 		.ascii	"unsigned char\000"
 4436      676E6564 
 4436      20636861 
 4436      7200
 4437              	.LASF49:
 4438 03f6 464C4153 		.ascii	"FLASH_Lock\000"
 4438      485F4C6F 
 4438      636B00
 4439              	.LASF50:
 4440 0401 464C4153 		.ascii	"FLASH_OB_Unlock\000"
 4440      485F4F42 
 4440      5F556E6C 
 4440      6F636B00 
 4441              	.LASF41:
 4442 0411 464C4153 		.ascii	"FLASH_PrefetchBufferCmd\000"
 4442      485F5072 
 4442      65666574 
 4442      63684275 
 4442      66666572 
 4443              	.LASF1:
 4444 0429 7369676E 		.ascii	"signed char\000"
 4444      65642063 
 4444      68617200 
 4445              	.LASF67:
 4446 0435 464C4153 		.ascii	"FLASH_GetFlagStatus\000"
 4446      485F4765 
 4446      74466C61 
 4446      67537461 
 4446      74757300 
 4447              	.LASF0:
ARM GAS  /var/folders/m4/4md61f0s1_g0rzfghffqnxvr0000gn/T//ccZNYUOX.s 			page 82


 4448 0449 6C6F6E67 		.ascii	"long long unsigned int\000"
 4448      206C6F6E 
 4448      6720756E 
 4448      7369676E 
 4448      65642069 
 4449              	.LASF61:
 4450 0460 72656164 		.ascii	"readstatus\000"
 4450      73746174 
 4450      757300
 4451              	.LASF17:
 4452 046b 75696E74 		.ascii	"uint32_t\000"
 4452      33325F74 
 4452      00
 4453              	.LASF70:
 4454 0474 464C4153 		.ascii	"FLASH_ClearFlag\000"
 4454      485F436C 
 4454      65617246 
 4454      6C616700 
 4455              	.LASF13:
 4456 0484 756E7369 		.ascii	"unsigned int\000"
 4456      676E6564 
 4456      20696E74 
 4456      00
 4457              	.LASF38:
 4458 0491 464C4153 		.ascii	"FLASH_COMPLETE\000"
 4458      485F434F 
 4458      4D504C45 
 4458      544500
 4459              	.LASF30:
 4460 04a0 464C4153 		.ascii	"FLASH_BUSY\000"
 4460      485F4255 
 4460      535900
 4461              	.LASF10:
 4462 04ab 6C6F6E67 		.ascii	"long unsigned int\000"
 4462      20756E73 
 4462      69676E65 
 4462      6420696E 
 4462      7400
 4463              	.LASF6:
 4464 04bd 73686F72 		.ascii	"short unsigned int\000"
 4464      7420756E 
 4464      7369676E 
 4464      65642069 
 4464      6E7400
 4465              	.LASF53:
 4466 04d0 4F425F50 		.ascii	"OB_PcROP\000"
 4466      63524F50 
 4466      00
 4467              	.LASF72:
 4468 04d9 73746174 		.ascii	"status\000"
 4468      757300
 4469              	.LASF56:
 4470 04e0 464C4153 		.ascii	"FLASH_OB_BORConfig\000"
 4470      485F4F42 
 4470      5F424F52 
 4470      436F6E66 
 4470      696700
ARM GAS  /var/folders/m4/4md61f0s1_g0rzfghffqnxvr0000gn/T//ccZNYUOX.s 			page 83


 4471              	.LASF96:
 4472 04f3 4F425F53 		.ascii	"OB_STDBY\000"
 4472      54444259 
 4472      00
 4473              	.LASF15:
 4474 04fc 75696E74 		.ascii	"uint16_t\000"
 4474      31365F74 
 4474      00
 4475              	.LASF16:
 4476 0505 696E7433 		.ascii	"int32_t\000"
 4476      325F7400 
 4477              	.LASF101:
 4478 050d 464C4153 		.ascii	"FLASH_GetStatus\000"
 4478      485F4765 
 4478      74537461 
 4478      74757300 
 4479              	.LASF40:
 4480 051d 464C4153 		.ascii	"FLASH_SetLatency\000"
 4480      485F5365 
 4480      744C6174 
 4480      656E6379 
 4480      00
 4481              	.LASF25:
 4482 052e 52455345 		.ascii	"RESET\000"
 4482      5400
 4483              	.LASF12:
 4484 0534 5F5F7569 		.ascii	"__uint64_t\000"
 4484      6E743634 
 4484      5F7400
 4485              	.LASF83:
 4486 053f 464C4153 		.ascii	"FLASH_ProgramHalfWord\000"
 4486      485F5072 
 4486      6F677261 
 4486      6D48616C 
 4486      66576F72 
 4487              	.LASF77:
 4488 0555 464C4153 		.ascii	"FLASH_EraseAllBank1Sectors\000"
 4488      485F4572 
 4488      61736541 
 4488      6C6C4261 
 4488      6E6B3153 
 4489              	.LASF63:
 4490 0570 464C4153 		.ascii	"FLASH_OB_GetBOR\000"
 4490      485F4F42 
 4490      5F476574 
 4490      424F5200 
 4491              	.LASF29:
 4492 0580 46756E63 		.ascii	"FunctionalState\000"
 4492      74696F6E 
 4492      616C5374 
 4492      61746500 
 4493              	.LASF9:
 4494 0590 5F5F7569 		.ascii	"__uint32_t\000"
 4494      6E743332 
 4494      5F7400
 4495              	.LASF59:
 4496 059b 464C4153 		.ascii	"FLASH_OB_GetPCROP1\000"
ARM GAS  /var/folders/m4/4md61f0s1_g0rzfghffqnxvr0000gn/T//ccZNYUOX.s 			page 84


 4496      485F4F42 
 4496      5F476574 
 4496      5043524F 
 4496      503100
 4497              	.LASF57:
 4498 05ae 4F425F42 		.ascii	"OB_BOR\000"
 4498      4F5200
 4499              	.LASF7:
 4500 05b5 5F5F696E 		.ascii	"__int32_t\000"
 4500      7433325F 
 4500      7400
 4501              	.LASF85:
 4502 05bf 464C4153 		.ascii	"FLASH_OB_WRPConfig\000"
 4502      485F4F42 
 4502      5F575250 
 4502      436F6E66 
 4502      696700
 4503              	.LASF84:
 4504 05d2 464C4153 		.ascii	"FLASH_ProgramByte\000"
 4504      485F5072 
 4504      6F677261 
 4504      6D427974 
 4504      6500
 4505              	.LASF42:
 4506 05e4 464C4153 		.ascii	"FLASH_Latency\000"
 4506      485F4C61 
 4506      74656E63 
 4506      7900
 4507              	.LASF36:
 4508 05f2 464C4153 		.ascii	"FLASH_ERROR_PROGRAM\000"
 4508      485F4552 
 4508      524F525F 
 4508      50524F47 
 4508      52414D00 
 4509              	.LASF60:
 4510 0606 6F707469 		.ascii	"optiontmp\000"
 4510      6F6E746D 
 4510      7000
 4511              	.LASF75:
 4512 0610 566F6C74 		.ascii	"VoltageRange\000"
 4512      61676552 
 4512      616E6765 
 4512      00
 4513              	.LASF82:
 4514 061d 464C4153 		.ascii	"FLASH_ProgramWord\000"
 4514      485F5072 
 4514      6F677261 
 4514      6D576F72 
 4514      6400
 4515              	.LASF34:
 4516 062f 464C4153 		.ascii	"FLASH_ERROR_PGA\000"
 4516      485F4552 
 4516      524F525F 
 4516      50474100 
 4517              	.LASF45:
 4518 063f 464C4153 		.ascii	"FLASH_DataCacheCmd\000"
 4518      485F4461 
ARM GAS  /var/folders/m4/4md61f0s1_g0rzfghffqnxvr0000gn/T//ccZNYUOX.s 			page 85


 4518      74614361 
 4518      63686543 
 4518      6D6400
 4519              	.LASF32:
 4520 0652 464C4153 		.ascii	"FLASH_ERROR_PGS\000"
 4520      485F4552 
 4520      524F525F 
 4520      50475300 
 4521              	.LASF24:
 4522 0662 464C4153 		.ascii	"FLASH_TypeDef\000"
 4522      485F5479 
 4522      70654465 
 4522      6600
 4523              	.LASF71:
 4524 0670 464C4153 		.ascii	"FLASH_WaitForLastOperation\000"
 4524      485F5761 
 4524      6974466F 
 4524      724C6173 
 4524      744F7065 
 4525              	.LASF103:
 4526 068b 49544D5F 		.ascii	"ITM_RxBuffer\000"
 4526      52784275 
 4526      66666572 
 4526      00
 4527              	.LASF52:
 4528 0698 464C4153 		.ascii	"FLASH_OB_PCROPSelectionConfig\000"
 4528      485F4F42 
 4528      5F504352 
 4528      4F505365 
 4528      6C656374 
 4529              	.LASF69:
 4530 06b6 62697473 		.ascii	"bitstatus\000"
 4530      74617475 
 4530      7300
 4531              	.LASF95:
 4532 06c0 4F425F53 		.ascii	"OB_STOP\000"
 4532      544F5000 
 4533              	.LASF33:
 4534 06c8 464C4153 		.ascii	"FLASH_ERROR_PGP\000"
 4534      485F4552 
 4534      524F525F 
 4534      50475000 
 4535              	.LASF26:
 4536 06d8 466C6167 		.ascii	"FlagStatus\000"
 4536      53746174 
 4536      757300
 4537              	.LASF22:
 4538 06e3 4F505443 		.ascii	"OPTCR\000"
 4538      5200
 4539              	.LASF28:
 4540 06e9 454E4142 		.ascii	"ENABLE\000"
 4540      4C4500
 4541              	.LASF79:
 4542 06f0 464C4153 		.ascii	"FLASH_ProgramDoubleWord\000"
 4542      485F5072 
 4542      6F677261 
 4542      6D446F75 
ARM GAS  /var/folders/m4/4md61f0s1_g0rzfghffqnxvr0000gn/T//ccZNYUOX.s 			page 86


 4542      626C6557 
 4543              	.LASF31:
 4544 0708 464C4153 		.ascii	"FLASH_ERROR_RD\000"
 4544      485F4552 
 4544      524F525F 
 4544      524400
 4545              		.ident	"GCC: (GNU Tools for ARM Embedded Processors) 5.2.1 20151202 (release) [ARM/embedded-5-bran
ARM GAS  /var/folders/m4/4md61f0s1_g0rzfghffqnxvr0000gn/T//ccZNYUOX.s 			page 87


DEFINED SYMBOLS
                            *ABS*:0000000000000000 stm32f4xx_flash.c
/var/folders/m4/4md61f0s1_g0rzfghffqnxvr0000gn/T//ccZNYUOX.s:22     .text.FLASH_SetLatency:0000000000000000 $t
/var/folders/m4/4md61f0s1_g0rzfghffqnxvr0000gn/T//ccZNYUOX.s:28     .text.FLASH_SetLatency:0000000000000000 FLASH_SetLatency
/var/folders/m4/4md61f0s1_g0rzfghffqnxvr0000gn/T//ccZNYUOX.s:46     .text.FLASH_SetLatency:0000000000000008 $d
/var/folders/m4/4md61f0s1_g0rzfghffqnxvr0000gn/T//ccZNYUOX.s:51     .text.FLASH_PrefetchBufferCmd:0000000000000000 $t
/var/folders/m4/4md61f0s1_g0rzfghffqnxvr0000gn/T//ccZNYUOX.s:57     .text.FLASH_PrefetchBufferCmd:0000000000000000 FLASH_PrefetchBufferCmd
/var/folders/m4/4md61f0s1_g0rzfghffqnxvr0000gn/T//ccZNYUOX.s:82     .text.FLASH_PrefetchBufferCmd:0000000000000018 $d
/var/folders/m4/4md61f0s1_g0rzfghffqnxvr0000gn/T//ccZNYUOX.s:87     .text.FLASH_InstructionCacheCmd:0000000000000000 $t
/var/folders/m4/4md61f0s1_g0rzfghffqnxvr0000gn/T//ccZNYUOX.s:93     .text.FLASH_InstructionCacheCmd:0000000000000000 FLASH_InstructionCacheCmd
/var/folders/m4/4md61f0s1_g0rzfghffqnxvr0000gn/T//ccZNYUOX.s:118    .text.FLASH_InstructionCacheCmd:0000000000000018 $d
/var/folders/m4/4md61f0s1_g0rzfghffqnxvr0000gn/T//ccZNYUOX.s:123    .text.FLASH_DataCacheCmd:0000000000000000 $t
/var/folders/m4/4md61f0s1_g0rzfghffqnxvr0000gn/T//ccZNYUOX.s:129    .text.FLASH_DataCacheCmd:0000000000000000 FLASH_DataCacheCmd
/var/folders/m4/4md61f0s1_g0rzfghffqnxvr0000gn/T//ccZNYUOX.s:154    .text.FLASH_DataCacheCmd:0000000000000018 $d
/var/folders/m4/4md61f0s1_g0rzfghffqnxvr0000gn/T//ccZNYUOX.s:159    .text.FLASH_InstructionCacheReset:0000000000000000 $t
/var/folders/m4/4md61f0s1_g0rzfghffqnxvr0000gn/T//ccZNYUOX.s:165    .text.FLASH_InstructionCacheReset:0000000000000000 FLASH_InstructionCacheReset
/var/folders/m4/4md61f0s1_g0rzfghffqnxvr0000gn/T//ccZNYUOX.s:181    .text.FLASH_InstructionCacheReset:000000000000000c $d
/var/folders/m4/4md61f0s1_g0rzfghffqnxvr0000gn/T//ccZNYUOX.s:186    .text.FLASH_DataCacheReset:0000000000000000 $t
/var/folders/m4/4md61f0s1_g0rzfghffqnxvr0000gn/T//ccZNYUOX.s:192    .text.FLASH_DataCacheReset:0000000000000000 FLASH_DataCacheReset
/var/folders/m4/4md61f0s1_g0rzfghffqnxvr0000gn/T//ccZNYUOX.s:208    .text.FLASH_DataCacheReset:000000000000000c $d
/var/folders/m4/4md61f0s1_g0rzfghffqnxvr0000gn/T//ccZNYUOX.s:213    .text.FLASH_Unlock:0000000000000000 $t
/var/folders/m4/4md61f0s1_g0rzfghffqnxvr0000gn/T//ccZNYUOX.s:219    .text.FLASH_Unlock:0000000000000000 FLASH_Unlock
/var/folders/m4/4md61f0s1_g0rzfghffqnxvr0000gn/T//ccZNYUOX.s:244    .text.FLASH_Unlock:0000000000000014 $d
/var/folders/m4/4md61f0s1_g0rzfghffqnxvr0000gn/T//ccZNYUOX.s:251    .text.FLASH_Lock:0000000000000000 $t
/var/folders/m4/4md61f0s1_g0rzfghffqnxvr0000gn/T//ccZNYUOX.s:257    .text.FLASH_Lock:0000000000000000 FLASH_Lock
/var/folders/m4/4md61f0s1_g0rzfghffqnxvr0000gn/T//ccZNYUOX.s:273    .text.FLASH_Lock:000000000000000c $d
/var/folders/m4/4md61f0s1_g0rzfghffqnxvr0000gn/T//ccZNYUOX.s:278    .text.FLASH_OB_Unlock:0000000000000000 $t
/var/folders/m4/4md61f0s1_g0rzfghffqnxvr0000gn/T//ccZNYUOX.s:284    .text.FLASH_OB_Unlock:0000000000000000 FLASH_OB_Unlock
/var/folders/m4/4md61f0s1_g0rzfghffqnxvr0000gn/T//ccZNYUOX.s:309    .text.FLASH_OB_Unlock:0000000000000014 $d
/var/folders/m4/4md61f0s1_g0rzfghffqnxvr0000gn/T//ccZNYUOX.s:316    .text.FLASH_OB_Lock:0000000000000000 $t
/var/folders/m4/4md61f0s1_g0rzfghffqnxvr0000gn/T//ccZNYUOX.s:322    .text.FLASH_OB_Lock:0000000000000000 FLASH_OB_Lock
/var/folders/m4/4md61f0s1_g0rzfghffqnxvr0000gn/T//ccZNYUOX.s:338    .text.FLASH_OB_Lock:000000000000000c $d
/var/folders/m4/4md61f0s1_g0rzfghffqnxvr0000gn/T//ccZNYUOX.s:343    .text.FLASH_OB_PCROPSelectionConfig:0000000000000000 $t
/var/folders/m4/4md61f0s1_g0rzfghffqnxvr0000gn/T//ccZNYUOX.s:349    .text.FLASH_OB_PCROPSelectionConfig:0000000000000000 FLASH_OB_PCROPSelectionConfig
/var/folders/m4/4md61f0s1_g0rzfghffqnxvr0000gn/T//ccZNYUOX.s:371    .text.FLASH_OB_PCROPSelectionConfig:0000000000000010 $d
/var/folders/m4/4md61f0s1_g0rzfghffqnxvr0000gn/T//ccZNYUOX.s:376    .text.FLASH_OB_BootConfig:0000000000000000 $t
/var/folders/m4/4md61f0s1_g0rzfghffqnxvr0000gn/T//ccZNYUOX.s:382    .text.FLASH_OB_BootConfig:0000000000000000 FLASH_OB_BootConfig
/var/folders/m4/4md61f0s1_g0rzfghffqnxvr0000gn/T//ccZNYUOX.s:404    .text.FLASH_OB_BootConfig:0000000000000014 $d
/var/folders/m4/4md61f0s1_g0rzfghffqnxvr0000gn/T//ccZNYUOX.s:409    .text.FLASH_OB_BORConfig:0000000000000000 $t
/var/folders/m4/4md61f0s1_g0rzfghffqnxvr0000gn/T//ccZNYUOX.s:415    .text.FLASH_OB_BORConfig:0000000000000000 FLASH_OB_BORConfig
/var/folders/m4/4md61f0s1_g0rzfghffqnxvr0000gn/T//ccZNYUOX.s:437    .text.FLASH_OB_BORConfig:0000000000000014 $d
/var/folders/m4/4md61f0s1_g0rzfghffqnxvr0000gn/T//ccZNYUOX.s:442    .text.FLASH_OB_GetUser:0000000000000000 $t
/var/folders/m4/4md61f0s1_g0rzfghffqnxvr0000gn/T//ccZNYUOX.s:448    .text.FLASH_OB_GetUser:0000000000000000 FLASH_OB_GetUser
/var/folders/m4/4md61f0s1_g0rzfghffqnxvr0000gn/T//ccZNYUOX.s:464    .text.FLASH_OB_GetUser:000000000000000c $d
/var/folders/m4/4md61f0s1_g0rzfghffqnxvr0000gn/T//ccZNYUOX.s:469    .text.FLASH_OB_GetWRP:0000000000000000 $t
/var/folders/m4/4md61f0s1_g0rzfghffqnxvr0000gn/T//ccZNYUOX.s:475    .text.FLASH_OB_GetWRP:0000000000000000 FLASH_OB_GetWRP
/var/folders/m4/4md61f0s1_g0rzfghffqnxvr0000gn/T//ccZNYUOX.s:488    .text.FLASH_OB_GetWRP:0000000000000008 $d
/var/folders/m4/4md61f0s1_g0rzfghffqnxvr0000gn/T//ccZNYUOX.s:493    .text.FLASH_OB_GetWRP1:0000000000000000 $t
/var/folders/m4/4md61f0s1_g0rzfghffqnxvr0000gn/T//ccZNYUOX.s:499    .text.FLASH_OB_GetWRP1:0000000000000000 FLASH_OB_GetWRP1
/var/folders/m4/4md61f0s1_g0rzfghffqnxvr0000gn/T//ccZNYUOX.s:512    .text.FLASH_OB_GetWRP1:0000000000000008 $d
/var/folders/m4/4md61f0s1_g0rzfghffqnxvr0000gn/T//ccZNYUOX.s:517    .text.FLASH_OB_GetPCROP:0000000000000000 $t
/var/folders/m4/4md61f0s1_g0rzfghffqnxvr0000gn/T//ccZNYUOX.s:523    .text.FLASH_OB_GetPCROP:0000000000000000 FLASH_OB_GetPCROP
/var/folders/m4/4md61f0s1_g0rzfghffqnxvr0000gn/T//ccZNYUOX.s:539    .text.FLASH_OB_GetPCROP:0000000000000008 $d
/var/folders/m4/4md61f0s1_g0rzfghffqnxvr0000gn/T//ccZNYUOX.s:544    .text.FLASH_OB_GetPCROP1:0000000000000000 $t
/var/folders/m4/4md61f0s1_g0rzfghffqnxvr0000gn/T//ccZNYUOX.s:550    .text.FLASH_OB_GetPCROP1:0000000000000000 FLASH_OB_GetPCROP1
/var/folders/m4/4md61f0s1_g0rzfghffqnxvr0000gn/T//ccZNYUOX.s:566    .text.FLASH_OB_GetPCROP1:0000000000000008 $d
/var/folders/m4/4md61f0s1_g0rzfghffqnxvr0000gn/T//ccZNYUOX.s:571    .text.FLASH_OB_GetRDP:0000000000000000 $t
ARM GAS  /var/folders/m4/4md61f0s1_g0rzfghffqnxvr0000gn/T//ccZNYUOX.s 			page 88


/var/folders/m4/4md61f0s1_g0rzfghffqnxvr0000gn/T//ccZNYUOX.s:577    .text.FLASH_OB_GetRDP:0000000000000000 FLASH_OB_GetRDP
/var/folders/m4/4md61f0s1_g0rzfghffqnxvr0000gn/T//ccZNYUOX.s:598    .text.FLASH_OB_GetRDP:000000000000000c $d
/var/folders/m4/4md61f0s1_g0rzfghffqnxvr0000gn/T//ccZNYUOX.s:603    .text.FLASH_OB_GetBOR:0000000000000000 $t
/var/folders/m4/4md61f0s1_g0rzfghffqnxvr0000gn/T//ccZNYUOX.s:609    .text.FLASH_OB_GetBOR:0000000000000000 FLASH_OB_GetBOR
/var/folders/m4/4md61f0s1_g0rzfghffqnxvr0000gn/T//ccZNYUOX.s:625    .text.FLASH_OB_GetBOR:000000000000000c $d
/var/folders/m4/4md61f0s1_g0rzfghffqnxvr0000gn/T//ccZNYUOX.s:630    .text.FLASH_ITConfig:0000000000000000 $t
/var/folders/m4/4md61f0s1_g0rzfghffqnxvr0000gn/T//ccZNYUOX.s:636    .text.FLASH_ITConfig:0000000000000000 FLASH_ITConfig
/var/folders/m4/4md61f0s1_g0rzfghffqnxvr0000gn/T//ccZNYUOX.s:665    .text.FLASH_ITConfig:0000000000000018 $d
/var/folders/m4/4md61f0s1_g0rzfghffqnxvr0000gn/T//ccZNYUOX.s:670    .text.FLASH_GetFlagStatus:0000000000000000 $t
/var/folders/m4/4md61f0s1_g0rzfghffqnxvr0000gn/T//ccZNYUOX.s:676    .text.FLASH_GetFlagStatus:0000000000000000 FLASH_GetFlagStatus
/var/folders/m4/4md61f0s1_g0rzfghffqnxvr0000gn/T//ccZNYUOX.s:699    .text.FLASH_GetFlagStatus:0000000000000010 $d
/var/folders/m4/4md61f0s1_g0rzfghffqnxvr0000gn/T//ccZNYUOX.s:704    .text.FLASH_ClearFlag:0000000000000000 $t
/var/folders/m4/4md61f0s1_g0rzfghffqnxvr0000gn/T//ccZNYUOX.s:710    .text.FLASH_ClearFlag:0000000000000000 FLASH_ClearFlag
/var/folders/m4/4md61f0s1_g0rzfghffqnxvr0000gn/T//ccZNYUOX.s:725    .text.FLASH_ClearFlag:0000000000000008 $d
/var/folders/m4/4md61f0s1_g0rzfghffqnxvr0000gn/T//ccZNYUOX.s:730    .text.FLASH_GetStatus:0000000000000000 $t
/var/folders/m4/4md61f0s1_g0rzfghffqnxvr0000gn/T//ccZNYUOX.s:736    .text.FLASH_GetStatus:0000000000000000 FLASH_GetStatus
/var/folders/m4/4md61f0s1_g0rzfghffqnxvr0000gn/T//ccZNYUOX.s:793    .text.FLASH_GetStatus:000000000000003c $d
/var/folders/m4/4md61f0s1_g0rzfghffqnxvr0000gn/T//ccZNYUOX.s:800    .text.FLASH_WaitForLastOperation:0000000000000000 $t
/var/folders/m4/4md61f0s1_g0rzfghffqnxvr0000gn/T//ccZNYUOX.s:806    .text.FLASH_WaitForLastOperation:0000000000000000 FLASH_WaitForLastOperation
/var/folders/m4/4md61f0s1_g0rzfghffqnxvr0000gn/T//ccZNYUOX.s:841    .text.FLASH_EraseSector:0000000000000000 $t
/var/folders/m4/4md61f0s1_g0rzfghffqnxvr0000gn/T//ccZNYUOX.s:847    .text.FLASH_EraseSector:0000000000000000 FLASH_EraseSector
/var/folders/m4/4md61f0s1_g0rzfghffqnxvr0000gn/T//ccZNYUOX.s:940    .text.FLASH_EraseSector:0000000000000070 $d
/var/folders/m4/4md61f0s1_g0rzfghffqnxvr0000gn/T//ccZNYUOX.s:945    .text.FLASH_EraseAllBank1Sectors:0000000000000000 $t
/var/folders/m4/4md61f0s1_g0rzfghffqnxvr0000gn/T//ccZNYUOX.s:951    .text.FLASH_EraseAllBank1Sectors:0000000000000000 FLASH_EraseAllBank1Sectors
/var/folders/m4/4md61f0s1_g0rzfghffqnxvr0000gn/T//ccZNYUOX.s:1028   .text.FLASH_EraseAllBank1Sectors:0000000000000058 $d
/var/folders/m4/4md61f0s1_g0rzfghffqnxvr0000gn/T//ccZNYUOX.s:1033   .text.FLASH_EraseAllSectors:0000000000000000 $t
/var/folders/m4/4md61f0s1_g0rzfghffqnxvr0000gn/T//ccZNYUOX.s:1039   .text.FLASH_EraseAllSectors:0000000000000000 FLASH_EraseAllSectors
/var/folders/m4/4md61f0s1_g0rzfghffqnxvr0000gn/T//ccZNYUOX.s:1050   .text.FLASH_EraseAllBank2Sectors:0000000000000000 $t
/var/folders/m4/4md61f0s1_g0rzfghffqnxvr0000gn/T//ccZNYUOX.s:1056   .text.FLASH_EraseAllBank2Sectors:0000000000000000 FLASH_EraseAllBank2Sectors
/var/folders/m4/4md61f0s1_g0rzfghffqnxvr0000gn/T//ccZNYUOX.s:1134   .text.FLASH_EraseAllBank2Sectors:0000000000000058 $d
/var/folders/m4/4md61f0s1_g0rzfghffqnxvr0000gn/T//ccZNYUOX.s:1139   .text.FLASH_ProgramDoubleWord:0000000000000000 $t
/var/folders/m4/4md61f0s1_g0rzfghffqnxvr0000gn/T//ccZNYUOX.s:1145   .text.FLASH_ProgramDoubleWord:0000000000000000 FLASH_ProgramDoubleWord
/var/folders/m4/4md61f0s1_g0rzfghffqnxvr0000gn/T//ccZNYUOX.s:1202   .text.FLASH_ProgramDoubleWord:0000000000000040 $d
/var/folders/m4/4md61f0s1_g0rzfghffqnxvr0000gn/T//ccZNYUOX.s:1207   .text.FLASH_ProgramWord:0000000000000000 $t
/var/folders/m4/4md61f0s1_g0rzfghffqnxvr0000gn/T//ccZNYUOX.s:1213   .text.FLASH_ProgramWord:0000000000000000 FLASH_ProgramWord
/var/folders/m4/4md61f0s1_g0rzfghffqnxvr0000gn/T//ccZNYUOX.s:1267   .text.FLASH_ProgramWord:000000000000003c $d
/var/folders/m4/4md61f0s1_g0rzfghffqnxvr0000gn/T//ccZNYUOX.s:1272   .text.FLASH_ProgramHalfWord:0000000000000000 $t
/var/folders/m4/4md61f0s1_g0rzfghffqnxvr0000gn/T//ccZNYUOX.s:1278   .text.FLASH_ProgramHalfWord:0000000000000000 FLASH_ProgramHalfWord
/var/folders/m4/4md61f0s1_g0rzfghffqnxvr0000gn/T//ccZNYUOX.s:1332   .text.FLASH_ProgramHalfWord:000000000000003c $d
/var/folders/m4/4md61f0s1_g0rzfghffqnxvr0000gn/T//ccZNYUOX.s:1337   .text.FLASH_ProgramByte:0000000000000000 $t
/var/folders/m4/4md61f0s1_g0rzfghffqnxvr0000gn/T//ccZNYUOX.s:1343   .text.FLASH_ProgramByte:0000000000000000 FLASH_ProgramByte
/var/folders/m4/4md61f0s1_g0rzfghffqnxvr0000gn/T//ccZNYUOX.s:1396   .text.FLASH_ProgramByte:0000000000000038 $d
/var/folders/m4/4md61f0s1_g0rzfghffqnxvr0000gn/T//ccZNYUOX.s:1401   .text.FLASH_OB_WRPConfig:0000000000000000 $t
/var/folders/m4/4md61f0s1_g0rzfghffqnxvr0000gn/T//ccZNYUOX.s:1407   .text.FLASH_OB_WRPConfig:0000000000000000 FLASH_OB_WRPConfig
/var/folders/m4/4md61f0s1_g0rzfghffqnxvr0000gn/T//ccZNYUOX.s:1454   .text.FLASH_OB_WRPConfig:0000000000000028 $d
/var/folders/m4/4md61f0s1_g0rzfghffqnxvr0000gn/T//ccZNYUOX.s:1459   .text.FLASH_OB_WRP1Config:0000000000000000 $t
/var/folders/m4/4md61f0s1_g0rzfghffqnxvr0000gn/T//ccZNYUOX.s:1465   .text.FLASH_OB_WRP1Config:0000000000000000 FLASH_OB_WRP1Config
/var/folders/m4/4md61f0s1_g0rzfghffqnxvr0000gn/T//ccZNYUOX.s:1512   .text.FLASH_OB_WRP1Config:0000000000000028 $d
/var/folders/m4/4md61f0s1_g0rzfghffqnxvr0000gn/T//ccZNYUOX.s:1517   .text.FLASH_OB_PCROPConfig:0000000000000000 $t
/var/folders/m4/4md61f0s1_g0rzfghffqnxvr0000gn/T//ccZNYUOX.s:1523   .text.FLASH_OB_PCROPConfig:0000000000000000 FLASH_OB_PCROPConfig
/var/folders/m4/4md61f0s1_g0rzfghffqnxvr0000gn/T//ccZNYUOX.s:1570   .text.FLASH_OB_PCROPConfig:0000000000000028 $d
/var/folders/m4/4md61f0s1_g0rzfghffqnxvr0000gn/T//ccZNYUOX.s:1575   .text.FLASH_OB_PCROP1Config:0000000000000000 $t
/var/folders/m4/4md61f0s1_g0rzfghffqnxvr0000gn/T//ccZNYUOX.s:1581   .text.FLASH_OB_PCROP1Config:0000000000000000 FLASH_OB_PCROP1Config
/var/folders/m4/4md61f0s1_g0rzfghffqnxvr0000gn/T//ccZNYUOX.s:1628   .text.FLASH_OB_PCROP1Config:0000000000000028 $d
/var/folders/m4/4md61f0s1_g0rzfghffqnxvr0000gn/T//ccZNYUOX.s:1633   .text.FLASH_OB_RDPConfig:0000000000000000 $t
/var/folders/m4/4md61f0s1_g0rzfghffqnxvr0000gn/T//ccZNYUOX.s:1639   .text.FLASH_OB_RDPConfig:0000000000000000 FLASH_OB_RDPConfig
/var/folders/m4/4md61f0s1_g0rzfghffqnxvr0000gn/T//ccZNYUOX.s:1665   .text.FLASH_OB_RDPConfig:0000000000000014 $d
ARM GAS  /var/folders/m4/4md61f0s1_g0rzfghffqnxvr0000gn/T//ccZNYUOX.s 			page 89


/var/folders/m4/4md61f0s1_g0rzfghffqnxvr0000gn/T//ccZNYUOX.s:1670   .text.FLASH_OB_UserConfig:0000000000000000 $t
/var/folders/m4/4md61f0s1_g0rzfghffqnxvr0000gn/T//ccZNYUOX.s:1676   .text.FLASH_OB_UserConfig:0000000000000000 FLASH_OB_UserConfig
/var/folders/m4/4md61f0s1_g0rzfghffqnxvr0000gn/T//ccZNYUOX.s:1715   .text.FLASH_OB_UserConfig:0000000000000024 $d
/var/folders/m4/4md61f0s1_g0rzfghffqnxvr0000gn/T//ccZNYUOX.s:1720   .text.FLASH_OB_Launch:0000000000000000 $t
/var/folders/m4/4md61f0s1_g0rzfghffqnxvr0000gn/T//ccZNYUOX.s:1726   .text.FLASH_OB_Launch:0000000000000000 FLASH_OB_Launch
/var/folders/m4/4md61f0s1_g0rzfghffqnxvr0000gn/T//ccZNYUOX.s:1745   .text.FLASH_OB_Launch:0000000000000010 $d
                     .debug_frame:0000000000000010 $d

NO UNDEFINED SYMBOLS
