ARM GAS  /var/folders/m4/4md61f0s1_g0rzfghffqnxvr0000gn/T//ccGmGp8g.s 			page 1


   1              		.syntax unified
   2              		.cpu cortex-m4
   3              		.eabi_attribute 27, 1
   4              		.eabi_attribute 28, 1
   5              		.fpu fpv4-sp-d16
   6              		.eabi_attribute 20, 1
   7              		.eabi_attribute 21, 1
   8              		.eabi_attribute 23, 3
   9              		.eabi_attribute 24, 1
  10              		.eabi_attribute 25, 1
  11              		.eabi_attribute 26, 1
  12              		.eabi_attribute 30, 2
  13              		.eabi_attribute 34, 1
  14              		.eabi_attribute 18, 4
  15              		.thumb
  16              		.syntax unified
  17              		.file	"usb.c"
  18              		.text
  19              	.Ltext0:
  20              		.cfi_sections	.debug_frame
  21              		.section	.text.usbInit,"ax",%progbits
  22              		.align	2
  23              		.p2align 4,,15
  24              		.global	usbInit
  25              		.thumb
  26              		.thumb_func
  27              		.type	usbInit, %function
  28              	usbInit:
  29              	.LFB271:
  30              		.file 1 "ChibiOS_16.1.4/os/hal/src/usb.c"
  31              		.loc 1 254 0
  32              		.cfi_startproc
  33              		@ args = 0, pretend = 0, frame = 0
  34              		@ frame_needed = 0, uses_anonymous_args = 0
  35              		@ link register save eliminated.
  36              		.loc 1 256 0
  37 0000 FFF7FEBF 		b	usb_lld_init
  38              	.LVL0:
  39              		.cfi_endproc
  40              	.LFE271:
  41              		.size	usbInit, .-usbInit
  42              		.section	.text.usbObjectInit,"ax",%progbits
  43              		.align	2
  44              		.p2align 4,,15
  45              		.global	usbObjectInit
  46              		.thumb
  47              		.thumb_func
  48              		.type	usbObjectInit, %function
  49              	usbObjectInit:
  50              	.LFB272:
  51              		.loc 1 266 0
  52              		.cfi_startproc
  53              		@ args = 0, pretend = 0, frame = 0
  54              		@ frame_needed = 0, uses_anonymous_args = 0
  55              		@ link register save eliminated.
  56              	.LVL1:
  57              		.loc 1 270 0
ARM GAS  /var/folders/m4/4md61f0s1_g0rzfghffqnxvr0000gn/T//ccGmGp8g.s 			page 2


  58 0000 0023     		movs	r3, #0
  59              		.loc 1 269 0
  60 0002 0122     		movs	r2, #1
  61 0004 0270     		strb	r2, [r0]
  62              		.loc 1 270 0
  63 0006 4360     		str	r3, [r0, #4]
  64              	.LVL2:
  65              		.loc 1 272 0
  66 0008 C361     		str	r3, [r0, #28]
  67              		.loc 1 273 0
  68 000a 8362     		str	r3, [r0, #40]
  69              	.LVL3:
  70              		.loc 1 272 0
  71 000c 0362     		str	r3, [r0, #32]
  72              		.loc 1 273 0
  73 000e C362     		str	r3, [r0, #44]
  74              	.LVL4:
  75              		.loc 1 272 0
  76 0010 4362     		str	r3, [r0, #36]
  77              		.loc 1 273 0
  78 0012 0363     		str	r3, [r0, #48]
  79              	.LVL5:
  80              		.loc 1 275 0
  81 0014 0381     		strh	r3, [r0, #8]	@ movhi
  82              		.loc 1 276 0
  83 0016 4381     		strh	r3, [r0, #10]	@ movhi
  84 0018 7047     		bx	lr
  85              		.cfi_endproc
  86              	.LFE272:
  87              		.size	usbObjectInit, .-usbObjectInit
  88 001a 00BF     		.section	.text.usbStart,"ax",%progbits
  89              		.align	2
  90              		.p2align 4,,15
  91              		.global	usbStart
  92              		.thumb
  93              		.thumb_func
  94              		.type	usbStart, %function
  95              	usbStart:
  96              	.LFB273:
  97              		.loc 1 287 0
  98              		.cfi_startproc
  99              		@ args = 0, pretend = 0, frame = 0
 100              		@ frame_needed = 0, uses_anonymous_args = 0
 101              	.LVL6:
 102 0000 38B5     		push	{r3, r4, r5, lr}
 103              		.cfi_def_cfa_offset 16
 104              		.cfi_offset 3, -16
 105              		.cfi_offset 4, -12
 106              		.cfi_offset 5, -8
 107              		.cfi_offset 14, -4
 108              		.loc 1 287 0
 109 0002 0446     		mov	r4, r0
 110              	.LBB200:
 111              	.LBB201:
 112              	.LBB202:
 113              	.LBB203:
 114              	.LBB204:
ARM GAS  /var/folders/m4/4md61f0s1_g0rzfghffqnxvr0000gn/T//ccGmGp8g.s 			page 3


 115              		.file 2 "ChibiOS_16.1.4/os/ext/CMSIS/include/core_cmFunc.h"
 116              		.loc 2 548 0
 117 0004 2023     		movs	r3, #32
 118              		.syntax unified
 119              	@ 548 "ChibiOS_16.1.4/os/ext/CMSIS/include/core_cmFunc.h" 1
 120 0006 83F31188 		MSR basepri, r3
 121              	@ 0 "" 2
 122              	.LVL7:
 123              		.thumb
 124              		.syntax unified
 125              	.LBE204:
 126              	.LBE203:
 127              	.LBE202:
 128              	.LBE201:
 129              	.LBE200:
 130              		.loc 1 297 0
 131 000a 0025     		movs	r5, #0
 132              		.loc 1 295 0
 133 000c 4160     		str	r1, [r0, #4]
 134              	.LVL8:
 135              		.loc 1 297 0
 136 000e C560     		str	r5, [r0, #12]
 137              	.LVL9:
 138 0010 0561     		str	r5, [r0, #16]
 139              	.LVL10:
 140 0012 4561     		str	r5, [r0, #20]
 141              	.LVL11:
 142 0014 8561     		str	r5, [r0, #24]
 143              	.LVL12:
 144              		.loc 1 299 0
 145 0016 FFF7FEFF 		bl	usb_lld_start
 146              	.LVL13:
 147              		.loc 1 300 0
 148 001a 0223     		movs	r3, #2
 149 001c 2370     		strb	r3, [r4]
 150              	.LVL14:
 151              	.LBB205:
 152              	.LBB206:
 153              	.LBB207:
 154              	.LBB208:
 155              	.LBB209:
 156              	.LBB210:
 157              		.loc 2 548 0
 158              		.syntax unified
 159              	@ 548 "ChibiOS_16.1.4/os/ext/CMSIS/include/core_cmFunc.h" 1
 160 001e 85F31188 		MSR basepri, r5
 161              	@ 0 "" 2
 162              	.LVL15:
 163              		.thumb
 164              		.syntax unified
 165 0022 38BD     		pop	{r3, r4, r5, pc}
 166              	.LBE210:
 167              	.LBE209:
 168              	.LBE208:
 169              	.LBE207:
 170              	.LBE206:
 171              	.LBE205:
ARM GAS  /var/folders/m4/4md61f0s1_g0rzfghffqnxvr0000gn/T//ccGmGp8g.s 			page 4


 172              		.cfi_endproc
 173              	.LFE273:
 174              		.size	usbStart, .-usbStart
 175              		.section	.text.usbStop,"ax",%progbits
 176              		.align	2
 177              		.p2align 4,,15
 178              		.global	usbStop
 179              		.thumb
 180              		.thumb_func
 181              		.type	usbStop, %function
 182              	usbStop:
 183              	.LFB274:
 184              		.loc 1 311 0
 185              		.cfi_startproc
 186              		@ args = 0, pretend = 0, frame = 0
 187              		@ frame_needed = 0, uses_anonymous_args = 0
 188              	.LVL16:
 189 0000 38B5     		push	{r3, r4, r5, lr}
 190              		.cfi_def_cfa_offset 16
 191              		.cfi_offset 3, -16
 192              		.cfi_offset 4, -12
 193              		.cfi_offset 5, -8
 194              		.cfi_offset 14, -4
 195              		.loc 1 311 0
 196 0002 0546     		mov	r5, r0
 197              	.LBB211:
 198              	.LBB212:
 199              	.LBB213:
 200              	.LBB214:
 201              	.LBB215:
 202              		.loc 2 548 0
 203 0004 2023     		movs	r3, #32
 204              		.syntax unified
 205              	@ 548 "ChibiOS_16.1.4/os/ext/CMSIS/include/core_cmFunc.h" 1
 206 0006 83F31188 		MSR basepri, r3
 207              	@ 0 "" 2
 208              	.LVL17:
 209              		.thumb
 210              		.syntax unified
 211              	.LBE215:
 212              	.LBE214:
 213              	.LBE213:
 214              	.LBE212:
 215              	.LBE211:
 216              		.loc 1 321 0
 217 000a FFF7FEFF 		bl	usb_lld_stop
 218              	.LVL18:
 219              		.loc 1 336 0
 220 000e 0024     		movs	r4, #0
 221              		.loc 1 322 0
 222 0010 0123     		movs	r3, #1
 223 0012 2B70     		strb	r3, [r5]
 224              	.LVL19:
 225              		.loc 1 336 0
 226 0014 EC60     		str	r4, [r5, #12]
 227              	.LVL20:
 228 0016 2C61     		str	r4, [r5, #16]
ARM GAS  /var/folders/m4/4md61f0s1_g0rzfghffqnxvr0000gn/T//ccGmGp8g.s 			page 5


 229              	.LVL21:
 230 0018 6C61     		str	r4, [r5, #20]
 231              	.LVL22:
 232 001a AC61     		str	r4, [r5, #24]
 233              	.LVL23:
 234              	.LBB216:
 235              	.LBB217:
 236              		.file 3 "ChibiOS_16.1.4/os/hal/osal/rt/osal.h"
 237              		.loc 3 600 0
 238 001c FFF7FEFF 		bl	chSchRescheduleS
 239              	.LVL24:
 240              	.LBE217:
 241              	.LBE216:
 242              	.LBB218:
 243              	.LBB219:
 244              	.LBB220:
 245              	.LBB221:
 246              	.LBB222:
 247              	.LBB223:
 248              		.loc 2 548 0
 249              		.syntax unified
 250              	@ 548 "ChibiOS_16.1.4/os/ext/CMSIS/include/core_cmFunc.h" 1
 251 0020 84F31188 		MSR basepri, r4
 252              	@ 0 "" 2
 253              	.LVL25:
 254              		.thumb
 255              		.syntax unified
 256 0024 38BD     		pop	{r3, r4, r5, pc}
 257              	.LBE223:
 258              	.LBE222:
 259              	.LBE221:
 260              	.LBE220:
 261              	.LBE219:
 262              	.LBE218:
 263              		.cfi_endproc
 264              	.LFE274:
 265              		.size	usbStop, .-usbStop
 266 0026 00BF     		.section	.text.usbInitEndpointI,"ax",%progbits
 267              		.align	2
 268              		.p2align 4,,15
 269              		.global	usbInitEndpointI
 270              		.thumb
 271              		.thumb_func
 272              		.type	usbInitEndpointI, %function
 273              	usbInitEndpointI:
 274              	.LFB275:
 275              		.loc 1 356 0
 276              		.cfi_startproc
 277              		@ args = 0, pretend = 0, frame = 0
 278              		@ frame_needed = 0, uses_anonymous_args = 0
 279              		@ link register save eliminated.
 280              	.LVL26:
 281 0000 10B4     		push	{r4}
 282              		.cfi_def_cfa_offset 4
 283              		.cfi_offset 4, -4
 284              		.loc 1 368 0
 285 0002 5369     		ldr	r3, [r2, #20]
ARM GAS  /var/folders/m4/4md61f0s1_g0rzfghffqnxvr0000gn/T//ccGmGp8g.s 			page 6


 286              		.loc 1 365 0
 287 0004 00EB8104 		add	r4, r0, r1, lsl #2
 288 0008 E260     		str	r2, [r4, #12]
 289              		.loc 1 368 0
 290 000a 23B1     		cbz	r3, .L8
 291              		.loc 1 369 0
 292 000c 0024     		movs	r4, #0
 293 000e 1C60     		str	r4, [r3]	@ unaligned
 294 0010 5C60     		str	r4, [r3, #4]	@ unaligned
 295 0012 9C60     		str	r4, [r3, #8]	@ unaligned
 296 0014 DC60     		str	r4, [r3, #12]	@ unaligned
 297              	.L8:
 298              		.loc 1 371 0
 299 0016 9369     		ldr	r3, [r2, #24]
 300 0018 23B1     		cbz	r3, .L9
 301              		.loc 1 372 0
 302 001a 0022     		movs	r2, #0
 303              	.LVL27:
 304 001c 1A60     		str	r2, [r3]	@ unaligned
 305 001e 5A60     		str	r2, [r3, #4]	@ unaligned
 306 0020 9A60     		str	r2, [r3, #8]	@ unaligned
 307 0022 DA60     		str	r2, [r3, #12]	@ unaligned
 308              	.L9:
 309              		.loc 1 377 0
 310 0024 5DF8044B 		ldr	r4, [sp], #4
 311              		.cfi_restore 4
 312              		.cfi_def_cfa_offset 0
 313              		.loc 1 376 0
 314 0028 FFF7FEBF 		b	usb_lld_init_endpoint
 315              	.LVL28:
 316              		.cfi_endproc
 317              	.LFE275:
 318              		.size	usbInitEndpointI, .-usbInitEndpointI
 319              		.section	.text.usbDisableEndpointsI,"ax",%progbits
 320              		.align	2
 321              		.p2align 4,,15
 322              		.global	usbDisableEndpointsI
 323              		.thumb
 324              		.thumb_func
 325              		.type	usbDisableEndpointsI, %function
 326              	usbDisableEndpointsI:
 327              	.LFB276:
 328              		.loc 1 390 0
 329              		.cfi_startproc
 330              		@ args = 0, pretend = 0, frame = 0
 331              		@ frame_needed = 0, uses_anonymous_args = 0
 332              		@ link register save eliminated.
 333              	.LVL29:
 334 0000 10B4     		push	{r4}
 335              		.cfi_def_cfa_offset 4
 336              		.cfi_offset 4, -4
 337              		.loc 1 398 0
 338 0002 4189     		ldrh	r1, [r0, #10]
 339              		.loc 1 397 0
 340 0004 0489     		ldrh	r4, [r0, #8]
 341              		.loc 1 413 0
 342 0006 0022     		movs	r2, #0
ARM GAS  /var/folders/m4/4md61f0s1_g0rzfghffqnxvr0000gn/T//ccGmGp8g.s 			page 7


 343              		.loc 1 397 0
 344 0008 24F00104 		bic	r4, r4, #1
 345              		.loc 1 398 0
 346 000c 21F00101 		bic	r1, r1, #1
 347              		.loc 1 397 0
 348 0010 0481     		strh	r4, [r0, #8]	@ movhi
 349              		.loc 1 413 0
 350 0012 0261     		str	r2, [r0, #16]
 351              		.loc 1 398 0
 352 0014 4181     		strh	r1, [r0, #10]	@ movhi
 353              	.LVL30:
 354              		.loc 1 413 0
 355 0016 4261     		str	r2, [r0, #20]
 356              	.LVL31:
 357 0018 8261     		str	r2, [r0, #24]
 358              	.LVL32:
 359              		.loc 1 418 0
 360 001a 5DF8044B 		ldr	r4, [sp], #4
 361              		.cfi_restore 4
 362              		.cfi_def_cfa_offset 0
 363              		.loc 1 417 0
 364 001e FFF7FEBF 		b	usb_lld_disable_endpoints
 365              	.LVL33:
 366              		.cfi_endproc
 367              	.LFE276:
 368              		.size	usbDisableEndpointsI, .-usbDisableEndpointsI
 369 0022 00BF     		.section	.text.usbStartReceiveI,"ax",%progbits
 370              		.align	2
 371              		.p2align 4,,15
 372              		.global	usbStartReceiveI
 373              		.thumb
 374              		.thumb_func
 375              		.type	usbStartReceiveI, %function
 376              	usbStartReceiveI:
 377              	.LFB277:
 378              		.loc 1 435 0
 379              		.cfi_startproc
 380              		@ args = 0, pretend = 0, frame = 0
 381              		@ frame_needed = 0, uses_anonymous_args = 0
 382              	.LVL34:
 383 0000 F0B5     		push	{r4, r5, r6, r7, lr}
 384              		.cfi_def_cfa_offset 20
 385              		.cfi_offset 4, -20
 386              		.cfi_offset 5, -16
 387              		.cfi_offset 6, -12
 388              		.cfi_offset 7, -8
 389              		.cfi_offset 14, -4
 390              		.loc 1 447 0
 391 0002 00EB8104 		add	r4, r0, r1, lsl #2
 392              		.loc 1 443 0
 393 0006 4789     		ldrh	r7, [r0, #10]
 394              		.loc 1 447 0
 395 0008 D4F80CE0 		ldr	lr, [r4, #12]
 396              		.loc 1 443 0
 397 000c 0124     		movs	r4, #1
 398 000e 04FA01F6 		lsl	r6, r4, r1
 399              		.loc 1 447 0
ARM GAS  /var/folders/m4/4md61f0s1_g0rzfghffqnxvr0000gn/T//ccGmGp8g.s 			page 8


 400 0012 DEF81840 		ldr	r4, [lr, #24]
 401              	.LVL35:
 402              		.loc 1 443 0
 403 0016 3E43     		orrs	r6, r6, r7
 404              		.loc 1 451 0
 405 0018 0027     		movs	r7, #0
 406              		.loc 1 443 0
 407 001a 4681     		strh	r6, [r0, #10]	@ movhi
 408              		.loc 1 449 0
 409 001c A260     		str	r2, [r4, #8]
 410              		.loc 1 451 0
 411 001e 84E88800 		stmia	r4, {r3, r7}
 412              		.loc 1 458 0
 413 0022 BDE8F040 		pop	{r4, r5, r6, r7, lr}
 414              		.cfi_restore 14
 415              		.cfi_restore 7
 416              		.cfi_restore 6
 417              		.cfi_restore 5
 418              		.cfi_restore 4
 419              		.cfi_def_cfa_offset 0
 420              	.LVL36:
 421              		.loc 1 457 0
 422 0026 FFF7FEBF 		b	usb_lld_start_out
 423              	.LVL37:
 424              		.cfi_endproc
 425              	.LFE277:
 426              		.size	usbStartReceiveI, .-usbStartReceiveI
 427 002a 00BF     		.section	.text.usbStartTransmitI,"ax",%progbits
 428              		.align	2
 429              		.p2align 4,,15
 430              		.global	usbStartTransmitI
 431              		.thumb
 432              		.thumb_func
 433              		.type	usbStartTransmitI, %function
 434              	usbStartTransmitI:
 435              	.LFB278:
 436              		.loc 1 474 0
 437              		.cfi_startproc
 438              		@ args = 0, pretend = 0, frame = 0
 439              		@ frame_needed = 0, uses_anonymous_args = 0
 440              	.LVL38:
 441 0000 F0B5     		push	{r4, r5, r6, r7, lr}
 442              		.cfi_def_cfa_offset 20
 443              		.cfi_offset 4, -20
 444              		.cfi_offset 5, -16
 445              		.cfi_offset 6, -12
 446              		.cfi_offset 7, -8
 447              		.cfi_offset 14, -4
 448              		.loc 1 486 0
 449 0002 00EB8104 		add	r4, r0, r1, lsl #2
 450              		.loc 1 482 0
 451 0006 0789     		ldrh	r7, [r0, #8]
 452              		.loc 1 486 0
 453 0008 D4F80CE0 		ldr	lr, [r4, #12]
 454              		.loc 1 482 0
 455 000c 0124     		movs	r4, #1
 456 000e 04FA01F6 		lsl	r6, r4, r1
ARM GAS  /var/folders/m4/4md61f0s1_g0rzfghffqnxvr0000gn/T//ccGmGp8g.s 			page 9


 457              		.loc 1 486 0
 458 0012 DEF81440 		ldr	r4, [lr, #20]
 459              	.LVL39:
 460              		.loc 1 482 0
 461 0016 3E43     		orrs	r6, r6, r7
 462              		.loc 1 490 0
 463 0018 0027     		movs	r7, #0
 464              		.loc 1 482 0
 465 001a 0681     		strh	r6, [r0, #8]	@ movhi
 466              		.loc 1 488 0
 467 001c A260     		str	r2, [r4, #8]
 468              		.loc 1 490 0
 469 001e 84E88800 		stmia	r4, {r3, r7}
 470              		.loc 1 497 0
 471 0022 BDE8F040 		pop	{r4, r5, r6, r7, lr}
 472              		.cfi_restore 14
 473              		.cfi_restore 7
 474              		.cfi_restore 6
 475              		.cfi_restore 5
 476              		.cfi_restore 4
 477              		.cfi_def_cfa_offset 0
 478              	.LVL40:
 479              		.loc 1 496 0
 480 0026 FFF7FEBF 		b	usb_lld_start_in
 481              	.LVL41:
 482              		.cfi_endproc
 483              	.LFE278:
 484              		.size	usbStartTransmitI, .-usbStartTransmitI
 485 002a 00BF     		.section	.text.usbStallReceiveI,"ax",%progbits
 486              		.align	2
 487              		.p2align 4,,15
 488              		.global	usbStallReceiveI
 489              		.thumb
 490              		.thumb_func
 491              		.type	usbStallReceiveI, %function
 492              	usbStallReceiveI:
 493              	.LFB279:
 494              		.loc 1 580 0
 495              		.cfi_startproc
 496              		@ args = 0, pretend = 0, frame = 0
 497              		@ frame_needed = 0, uses_anonymous_args = 0
 498              	.LVL42:
 499              		.loc 1 585 0
 500 0000 0123     		movs	r3, #1
 501 0002 4289     		ldrh	r2, [r0, #10]
 502              		.loc 1 580 0
 503 0004 10B5     		push	{r4, lr}
 504              		.cfi_def_cfa_offset 8
 505              		.cfi_offset 4, -8
 506              		.cfi_offset 14, -4
 507              		.loc 1 585 0
 508 0006 03FA01F4 		lsl	r4, r3, r1
 509 000a 1440     		ands	r4, r2, r4
 510 000c 01D0     		beq	.L28
 511              		.loc 1 586 0
 512 000e 1846     		mov	r0, r3
 513              	.LVL43:
ARM GAS  /var/folders/m4/4md61f0s1_g0rzfghffqnxvr0000gn/T//ccGmGp8g.s 			page 10


 514              		.loc 1 591 0
 515 0010 10BD     		pop	{r4, pc}
 516              	.LVL44:
 517              	.L28:
 518              		.loc 1 589 0
 519 0012 FFF7FEFF 		bl	usb_lld_stall_out
 520              	.LVL45:
 521              		.loc 1 590 0
 522 0016 2046     		mov	r0, r4
 523 0018 10BD     		pop	{r4, pc}
 524              		.cfi_endproc
 525              	.LFE279:
 526              		.size	usbStallReceiveI, .-usbStallReceiveI
 527 001a 00BF     		.section	.text.usbStallTransmitI,"ax",%progbits
 528              		.align	2
 529              		.p2align 4,,15
 530              		.global	usbStallTransmitI
 531              		.thumb
 532              		.thumb_func
 533              		.type	usbStallTransmitI, %function
 534              	usbStallTransmitI:
 535              	.LFB280:
 536              		.loc 1 605 0
 537              		.cfi_startproc
 538              		@ args = 0, pretend = 0, frame = 0
 539              		@ frame_needed = 0, uses_anonymous_args = 0
 540              	.LVL46:
 541              		.loc 1 610 0
 542 0000 0123     		movs	r3, #1
 543 0002 0289     		ldrh	r2, [r0, #8]
 544              		.loc 1 605 0
 545 0004 10B5     		push	{r4, lr}
 546              		.cfi_def_cfa_offset 8
 547              		.cfi_offset 4, -8
 548              		.cfi_offset 14, -4
 549              		.loc 1 610 0
 550 0006 03FA01F4 		lsl	r4, r3, r1
 551 000a 1440     		ands	r4, r2, r4
 552 000c 01D0     		beq	.L33
 553              		.loc 1 611 0
 554 000e 1846     		mov	r0, r3
 555              	.LVL47:
 556              		.loc 1 616 0
 557 0010 10BD     		pop	{r4, pc}
 558              	.LVL48:
 559              	.L33:
 560              		.loc 1 614 0
 561 0012 FFF7FEFF 		bl	usb_lld_stall_in
 562              	.LVL49:
 563              		.loc 1 615 0
 564 0016 2046     		mov	r0, r4
 565 0018 10BD     		pop	{r4, pc}
 566              		.cfi_endproc
 567              	.LFE280:
 568              		.size	usbStallTransmitI, .-usbStallTransmitI
 569 001a 00BF     		.section	.text._usb_reset,"ax",%progbits
 570              		.align	2
ARM GAS  /var/folders/m4/4md61f0s1_g0rzfghffqnxvr0000gn/T//ccGmGp8g.s 			page 11


 571              		.p2align 4,,15
 572              		.global	_usb_reset
 573              		.thumb
 574              		.thumb_func
 575              		.type	_usb_reset, %function
 576              	_usb_reset:
 577              	.LFB281:
 578              		.loc 1 627 0
 579              		.cfi_startproc
 580              		@ args = 0, pretend = 0, frame = 0
 581              		@ frame_needed = 0, uses_anonymous_args = 0
 582              	.LVL50:
 583 0000 70B5     		push	{r4, r5, r6, lr}
 584              		.cfi_def_cfa_offset 16
 585              		.cfi_offset 4, -16
 586              		.cfi_offset 5, -12
 587              		.cfi_offset 6, -8
 588              		.cfi_offset 14, -4
 589              		.loc 1 631 0
 590 0002 0223     		movs	r3, #2
 591              		.loc 1 634 0
 592 0004 0025     		movs	r5, #0
 593              		.loc 1 627 0
 594 0006 0446     		mov	r4, r0
 595              		.loc 1 631 0
 596 0008 0370     		strb	r3, [r0]
 597              		.loc 1 634 0
 598 000a A0F84C50 		strh	r5, [r0, #76]	@ movhi
 599              		.loc 1 635 0
 600 000e 80F84E50 		strb	r5, [r0, #78]
 601              		.loc 1 636 0
 602 0012 80F84F50 		strb	r5, [r0, #79]
 603              		.loc 1 637 0
 604 0016 0581     		strh	r5, [r0, #8]	@ movhi
 605              		.loc 1 638 0
 606 0018 4581     		strh	r5, [r0, #10]	@ movhi
 607              	.LVL51:
 608              		.loc 1 655 0
 609 001a C560     		str	r5, [r0, #12]
 610              	.LVL52:
 611 001c 0561     		str	r5, [r0, #16]
 612              	.LVL53:
 613 001e 4561     		str	r5, [r0, #20]
 614              	.LVL54:
 615 0020 8561     		str	r5, [r0, #24]
 616              	.LVL55:
 617              		.loc 1 659 0
 618 0022 80F83450 		strb	r5, [r0, #52]
 619              		.loc 1 662 0
 620 0026 FFF7FEFF 		bl	usb_lld_reset
 621              	.LVL56:
 622              		.loc 1 665 0
 623 002a 6368     		ldr	r3, [r4, #4]
 624 002c 1B68     		ldr	r3, [r3]
 625 002e 23B1     		cbz	r3, .L34
 626              		.loc 1 665 0 is_stmt 0 discriminator 1
 627 0030 2946     		mov	r1, r5
ARM GAS  /var/folders/m4/4md61f0s1_g0rzfghffqnxvr0000gn/T//ccGmGp8g.s 			page 12


 628 0032 2046     		mov	r0, r4
 629              		.loc 1 666 0 is_stmt 1 discriminator 1
 630 0034 BDE87040 		pop	{r4, r5, r6, lr}
 631              		.cfi_remember_state
 632              		.cfi_restore 14
 633              		.cfi_restore 6
 634              		.cfi_restore 5
 635              		.cfi_restore 4
 636              		.cfi_def_cfa_offset 0
 637              	.LVL57:
 638              		.loc 1 665 0 discriminator 1
 639 0038 1847     		bx	r3	@ indirect register sibling call
 640              	.LVL58:
 641              	.L34:
 642              		.cfi_restore_state
 643 003a 70BD     		pop	{r4, r5, r6, pc}
 644              		.cfi_endproc
 645              	.LFE281:
 646              		.size	_usb_reset, .-_usb_reset
 647              		.section	.text._usb_suspend,"ax",%progbits
 648              		.align	2
 649              		.p2align 4,,15
 650              		.global	_usb_suspend
 651              		.thumb
 652              		.thumb_func
 653              		.type	_usb_suspend, %function
 654              	_usb_suspend:
 655              	.LFB282:
 656              		.loc 1 677 0
 657              		.cfi_startproc
 658              		@ args = 0, pretend = 0, frame = 0
 659              		@ frame_needed = 0, uses_anonymous_args = 0
 660              		@ link register save eliminated.
 661              	.LVL59:
 662              		.loc 1 683 0
 663 0000 4268     		ldr	r2, [r0, #4]
 664 0002 1368     		ldr	r3, [r2]
 665              		.loc 1 680 0
 666 0004 0521     		movs	r1, #5
 667 0006 0170     		strb	r1, [r0]
 668              		.loc 1 683 0
 669 0008 0BB1     		cbz	r3, .L37
 670              		.loc 1 683 0 is_stmt 0 discriminator 1
 671 000a 0321     		movs	r1, #3
 672 000c 1847     		bx	r3	@ indirect register sibling call
 673              	.LVL60:
 674              	.L37:
 675 000e 7047     		bx	lr
 676              		.cfi_endproc
 677              	.LFE282:
 678              		.size	_usb_suspend, .-_usb_suspend
 679              		.section	.text._usb_wakeup,"ax",%progbits
 680              		.align	2
 681              		.p2align 4,,15
 682              		.global	_usb_wakeup
 683              		.thumb
 684              		.thumb_func
ARM GAS  /var/folders/m4/4md61f0s1_g0rzfghffqnxvr0000gn/T//ccGmGp8g.s 			page 13


 685              		.type	_usb_wakeup, %function
 686              	_usb_wakeup:
 687              	.LFB283:
 688              		.loc 1 715 0 is_stmt 1
 689              		.cfi_startproc
 690              		@ args = 0, pretend = 0, frame = 0
 691              		@ frame_needed = 0, uses_anonymous_args = 0
 692              		@ link register save eliminated.
 693              	.LVL61:
 694              		.loc 1 721 0
 695 0000 4268     		ldr	r2, [r0, #4]
 696 0002 1368     		ldr	r3, [r2]
 697              		.loc 1 718 0
 698 0004 0421     		movs	r1, #4
 699 0006 0170     		strb	r1, [r0]
 700              		.loc 1 721 0
 701 0008 03B1     		cbz	r3, .L39
 702              		.loc 1 721 0 is_stmt 0 discriminator 1
 703 000a 1847     		bx	r3	@ indirect register sibling call
 704              	.LVL62:
 705              	.L39:
 706 000c 7047     		bx	lr
 707              		.cfi_endproc
 708              	.LFE283:
 709              		.size	_usb_wakeup, .-_usb_wakeup
 710 000e 00BF     		.section	.text._usb_ep0setup,"ax",%progbits
 711              		.align	2
 712              		.p2align 4,,15
 713              		.global	_usb_ep0setup
 714              		.thumb
 715              		.thumb_func
 716              		.type	_usb_ep0setup, %function
 717              	_usb_ep0setup:
 718              	.LFB284:
 719              		.loc 1 734 0 is_stmt 1
 720              		.cfi_startproc
 721              		@ args = 0, pretend = 0, frame = 0
 722              		@ frame_needed = 0, uses_anonymous_args = 0
 723              	.LVL63:
 724 0000 70B5     		push	{r4, r5, r6, lr}
 725              		.cfi_def_cfa_offset 16
 726              		.cfi_offset 4, -16
 727              		.cfi_offset 5, -12
 728              		.cfi_offset 6, -8
 729              		.cfi_offset 14, -4
 730              		.loc 1 737 0
 731 0002 0023     		movs	r3, #0
 732              		.loc 1 734 0
 733 0004 0446     		mov	r4, r0
 734              		.loc 1 737 0
 735 0006 80F83430 		strb	r3, [r0, #52]
 736              		.loc 1 738 0
 737 000a 00F14402 		add	r2, r0, #68
 738 000e FFF7FEFF 		bl	usb_lld_read_setup
 739              	.LVL64:
 740              		.loc 1 743 0
 741 0012 6368     		ldr	r3, [r4, #4]
ARM GAS  /var/folders/m4/4md61f0s1_g0rzfghffqnxvr0000gn/T//ccGmGp8g.s 			page 14


 742 0014 9B68     		ldr	r3, [r3, #8]
 743 0016 5BB3     		cbz	r3, .L46
 744              		.loc 1 744 0 discriminator 1
 745 0018 2046     		mov	r0, r4
 746 001a 9847     		blx	r3
 747              	.LVL65:
 748              		.loc 1 743 0 discriminator 1
 749 001c 40B3     		cbz	r0, .L46
 750 001e E56B     		ldr	r5, [r4, #60]
 751 0020 94F84430 		ldrb	r3, [r4, #68]	@ zero_extendqisi2
 752              	.L87:
 753              		.loc 1 771 0
 754 0024 94F84B10 		ldrb	r1, [r4, #75]	@ zero_extendqisi2
 755 0028 94F84A20 		ldrb	r2, [r4, #74]	@ zero_extendqisi2
 756 002c 42EA0122 		orr	r2, r2, r1, lsl #8
 757              	.LVL66:
 758              		.loc 1 773 0
 759 0030 AA42     		cmp	r2, r5
 760              		.loc 1 774 0
 761 0032 3CBF     		itt	cc
 762 0034 E263     		strcc	r2, [r4, #60]
 763 0036 1546     		movcc	r5, r2
 764              		.loc 1 776 0
 765 0038 1A06     		lsls	r2, r3, #24
 766              	.LVL67:
 767 003a 00F18980 		bmi	.L119
 768              		.loc 1 800 0
 769 003e 002D     		cmp	r5, #0
 770 0040 51D1     		bne	.L120
 771              	.LVL68:
 772              	.L86:
 773              		.loc 1 810 0
 774 0042 0523     		movs	r3, #5
 775 0044 84F83430 		strb	r3, [r4, #52]
 776              	.LVL69:
 777              	.LBB288:
 778              	.LBB289:
 779              	.LBB290:
 780              	.LBB291:
 781              	.LBB292:
 782              	.LBB293:
 783              		.loc 2 548 0
 784 0048 2023     		movs	r3, #32
 785              		.syntax unified
 786              	@ 548 "ChibiOS_16.1.4/os/ext/CMSIS/include/core_cmFunc.h" 1
 787 004a 83F31188 		MSR basepri, r3
 788              	@ 0 "" 2
 789              	.LVL70:
 790              		.thumb
 791              		.syntax unified
 792              	.LBE293:
 793              	.LBE292:
 794              	.LBE291:
 795              	.LBE290:
 796              	.LBE289:
 797              	.LBE288:
 798              	.LBB294:
ARM GAS  /var/folders/m4/4md61f0s1_g0rzfghffqnxvr0000gn/T//ccGmGp8g.s 			page 15


 799              	.LBB295:
 800              		.loc 1 486 0
 801 004e E368     		ldr	r3, [r4, #12]
 802              		.loc 1 482 0
 803 0050 2289     		ldrh	r2, [r4, #8]
 804              		.loc 1 486 0
 805 0052 5B69     		ldr	r3, [r3, #20]
 806              	.LVL71:
 807              		.loc 1 488 0
 808 0054 0025     		movs	r5, #0
 809              		.loc 1 482 0
 810 0056 42F00102 		orr	r2, r2, #1
 811 005a 2281     		strh	r2, [r4, #8]	@ movhi
 812              		.loc 1 496 0
 813 005c 2046     		mov	r0, r4
 814              		.loc 1 488 0
 815 005e 9D60     		str	r5, [r3, #8]
 816              		.loc 1 489 0
 817 0060 1D60     		str	r5, [r3]
 818              		.loc 1 490 0
 819 0062 5D60     		str	r5, [r3, #4]
 820              		.loc 1 496 0
 821 0064 2946     		mov	r1, r5
 822 0066 FFF7FEFF 		bl	usb_lld_start_in
 823              	.LVL72:
 824              	.LBE295:
 825              	.LBE294:
 826              	.LBB296:
 827              	.LBB297:
 828              	.LBB298:
 829              	.LBB299:
 830              	.LBB300:
 831              	.LBB301:
 832              		.loc 2 548 0
 833              		.syntax unified
 834              	@ 548 "ChibiOS_16.1.4/os/ext/CMSIS/include/core_cmFunc.h" 1
 835 006a 85F31188 		MSR basepri, r5
 836              	@ 0 "" 2
 837              	.LVL73:
 838              		.thumb
 839              		.syntax unified
 840 006e 70BD     		pop	{r4, r5, r6, pc}
 841              	.LVL74:
 842              	.L46:
 843              	.LBE301:
 844              	.LBE300:
 845              	.LBE299:
 846              	.LBE298:
 847              	.LBE297:
 848              	.LBE296:
 849              		.loc 1 749 0
 850 0070 94F84430 		ldrb	r3, [r4, #68]	@ zero_extendqisi2
 851 0074 13F06006 		ands	r6, r3, #96
 852 0078 1A46     		mov	r2, r3
 853 007a 11D0     		beq	.L121
 854              	.L43:
 855              		.loc 1 755 0
ARM GAS  /var/folders/m4/4md61f0s1_g0rzfghffqnxvr0000gn/T//ccGmGp8g.s 			page 16


 856 007c 0021     		movs	r1, #0
 857 007e 2046     		mov	r0, r4
 858 0080 FFF7FEFF 		bl	usb_lld_stall_in
 859              	.LVL75:
 860              		.loc 1 756 0
 861 0084 0021     		movs	r1, #0
 862 0086 2046     		mov	r0, r4
 863 0088 FFF7FEFF 		bl	usb_lld_stall_out
 864              	.LVL76:
 865              		.loc 1 757 0
 866 008c 6368     		ldr	r3, [r4, #4]
 867 008e 1B68     		ldr	r3, [r3]
 868 0090 13B1     		cbz	r3, .L80
 869              		.loc 1 757 0 is_stmt 0 discriminator 1
 870 0092 0521     		movs	r1, #5
 871 0094 2046     		mov	r0, r4
 872 0096 9847     		blx	r3
 873              	.LVL77:
 874              	.L80:
 875              		.loc 1 758 0 is_stmt 1
 876 0098 0623     		movs	r3, #6
 877 009a 84F83430 		strb	r3, [r4, #52]
 878              		.loc 1 759 0
 879 009e 70BD     		pop	{r4, r5, r6, pc}
 880              	.LVL78:
 881              	.L121:
 882              	.LBB302:
 883              	.LBB303:
 884              		.loc 1 88 0
 885 00a0 94F84550 		ldrb	r5, [r4, #69]	@ zero_extendqisi2
 886 00a4 03F07F01 		and	r1, r3, #127
 887 00a8 41EA0525 		orr	r5, r1, r5, lsl #8
 888 00ac B5F5407F 		cmp	r5, #768
 889 00b0 00F00281 		beq	.L48
 890 00b4 2FD9     		bls	.L122
 891 00b6 B5F5C06F 		cmp	r5, #1536
 892 00ba 00F0E480 		beq	.L56
 893 00be 60D9     		bls	.L123
 894 00c0 B5F5106F 		cmp	r5, #2304
 895 00c4 00F08980 		beq	.L60
 896 00c8 40F60242 		movw	r2, #3074
 897 00cc 9542     		cmp	r5, r2
 898 00ce 00F00581 		beq	.L53
 899 00d2 B5F5006F 		cmp	r5, #2048
 900 00d6 D1D1     		bne	.L43
 901              		.loc 1 141 0
 902 00d8 04F14F02 		add	r2, r4, #79
 903 00dc 0125     		movs	r5, #1
 904 00de 2664     		str	r6, [r4, #64]
 905 00e0 A263     		str	r2, [r4, #56]
 906 00e2 E563     		str	r5, [r4, #60]
 907 00e4 9EE7     		b	.L87
 908              	.LVL79:
 909              	.L120:
 910              	.LBE303:
 911              	.LBE302:
 912              		.loc 1 802 0
ARM GAS  /var/folders/m4/4md61f0s1_g0rzfghffqnxvr0000gn/T//ccGmGp8g.s 			page 17


 913 00e6 0423     		movs	r3, #4
 914 00e8 84F83430 		strb	r3, [r4, #52]
 915              	.LVL80:
 916              	.LBB309:
 917              	.LBB310:
 918              	.LBB311:
 919              	.LBB312:
 920              	.LBB313:
 921              	.LBB314:
 922              		.loc 2 548 0
 923 00ec 2023     		movs	r3, #32
 924              		.syntax unified
 925              	@ 548 "ChibiOS_16.1.4/os/ext/CMSIS/include/core_cmFunc.h" 1
 926 00ee 83F31188 		MSR basepri, r3
 927              	@ 0 "" 2
 928              	.LVL81:
 929              		.thumb
 930              		.syntax unified
 931              	.LBE314:
 932              	.LBE313:
 933              	.LBE312:
 934              	.LBE311:
 935              	.LBE310:
 936              	.LBE309:
 937              	.LBB315:
 938              	.LBB316:
 939              		.loc 1 447 0
 940 00f2 E368     		ldr	r3, [r4, #12]
 941              		.loc 1 443 0
 942 00f4 6289     		ldrh	r2, [r4, #10]
 943              		.loc 1 447 0
 944 00f6 9B69     		ldr	r3, [r3, #24]
 945              	.LBE316:
 946              	.LBE315:
 947              		.loc 1 804 0
 948 00f8 E16B     		ldr	r1, [r4, #60]
 949              	.LVL82:
 950 00fa A66B     		ldr	r6, [r4, #56]
 951              	.LVL83:
 952              	.LBB318:
 953              	.LBB317:
 954              		.loc 1 443 0
 955 00fc 42F00102 		orr	r2, r2, #1
 956              		.loc 1 451 0
 957 0100 0025     		movs	r5, #0
 958              		.loc 1 443 0
 959 0102 6281     		strh	r2, [r4, #10]	@ movhi
 960              		.loc 1 457 0
 961 0104 2046     		mov	r0, r4
 962              		.loc 1 451 0
 963 0106 83E86200 		stmia	r3, {r1, r5, r6}
 964              	.LVL84:
 965              		.loc 1 457 0
 966 010a 2946     		mov	r1, r5
 967              	.LVL85:
 968 010c FFF7FEFF 		bl	usb_lld_start_out
 969              	.LVL86:
ARM GAS  /var/folders/m4/4md61f0s1_g0rzfghffqnxvr0000gn/T//ccGmGp8g.s 			page 18


 970              	.LBE317:
 971              	.LBE318:
 972              	.LBB319:
 973              	.LBB320:
 974              	.LBB321:
 975              	.LBB322:
 976              	.LBB323:
 977              	.LBB324:
 978              		.loc 2 548 0
 979              		.syntax unified
 980              	@ 548 "ChibiOS_16.1.4/os/ext/CMSIS/include/core_cmFunc.h" 1
 981 0110 85F31188 		MSR basepri, r5
 982              	@ 0 "" 2
 983              	.LVL87:
 984              		.thumb
 985              		.syntax unified
 986 0114 70BD     		pop	{r4, r5, r6, pc}
 987              	.LVL88:
 988              	.L122:
 989              	.LBE324:
 990              	.LBE323:
 991              	.LBE322:
 992              	.LBE321:
 993              	.LBE320:
 994              	.LBE319:
 995              	.LBB325:
 996              	.LBB306:
 997              		.loc 1 88 0
 998 0116 022D     		cmp	r5, #2
 999 0118 00F09E80 		beq	.L50
 1000 011c 40F29280 		bls	.L124
 1001 0120 B5F5807F 		cmp	r5, #256
 1002 0124 7FD0     		beq	.L54
 1003 0126 B5F5817F 		cmp	r5, #258
 1004 012a A7D1     		bne	.L43
 1005              		.loc 1 201 0
 1006 012c 94F84630 		ldrb	r3, [r4, #70]	@ zero_extendqisi2
 1007 0130 002B     		cmp	r3, #0
 1008 0132 A3D1     		bne	.L43
 1009              		.loc 1 205 0
 1010 0134 94F84830 		ldrb	r3, [r4, #72]	@ zero_extendqisi2
 1011 0138 13F00F01 		ands	r1, r3, #15
 1012 013c 2FD0     		beq	.L78
 1013              		.loc 1 206 0
 1014 013e 1E06     		lsls	r6, r3, #24
 1015              		.loc 1 207 0
 1016 0140 2046     		mov	r0, r4
 1017              		.loc 1 206 0
 1018 0142 00F1F280 		bmi	.L125
 1019              	.LVL89:
 1020              		.loc 1 210 0
 1021 0146 FFF7FEFF 		bl	usb_lld_clear_out
 1022              	.LVL90:
 1023 014a 94F84420 		ldrb	r2, [r4, #68]	@ zero_extendqisi2
 1024 014e 26E0     		b	.L78
 1025              	.LVL91:
 1026              	.L119:
ARM GAS  /var/folders/m4/4md61f0s1_g0rzfghffqnxvr0000gn/T//ccGmGp8g.s 			page 19


 1027              	.LBE306:
 1028              	.LBE325:
 1029              		.loc 1 778 0
 1030 0150 65B3     		cbz	r5, .L85
 1031              		.loc 1 780 0
 1032 0152 0123     		movs	r3, #1
 1033 0154 84F83430 		strb	r3, [r4, #52]
 1034              	.LVL92:
 1035              	.LBB326:
 1036              	.LBB327:
 1037              	.LBB328:
 1038              	.LBB329:
 1039              	.LBB330:
 1040              	.LBB331:
 1041              		.loc 2 548 0
 1042 0158 2023     		movs	r3, #32
 1043              		.syntax unified
 1044              	@ 548 "ChibiOS_16.1.4/os/ext/CMSIS/include/core_cmFunc.h" 1
 1045 015a 83F31188 		MSR basepri, r3
 1046              	@ 0 "" 2
 1047              	.LVL93:
 1048              		.thumb
 1049              		.syntax unified
 1050              	.LBE331:
 1051              	.LBE330:
 1052              	.LBE329:
 1053              	.LBE328:
 1054              	.LBE327:
 1055              	.LBE326:
 1056              	.LBB332:
 1057              	.LBB333:
 1058              		.loc 1 486 0
 1059 015e E368     		ldr	r3, [r4, #12]
 1060              		.loc 1 482 0
 1061 0160 2289     		ldrh	r2, [r4, #8]
 1062              		.loc 1 486 0
 1063 0162 5B69     		ldr	r3, [r3, #20]
 1064              	.LBE333:
 1065              	.LBE332:
 1066              		.loc 1 782 0
 1067 0164 E16B     		ldr	r1, [r4, #60]
 1068              	.LVL94:
 1069 0166 A66B     		ldr	r6, [r4, #56]
 1070              	.LVL95:
 1071              	.LBB335:
 1072              	.LBB334:
 1073              		.loc 1 482 0
 1074 0168 42F00102 		orr	r2, r2, #1
 1075              		.loc 1 490 0
 1076 016c 0025     		movs	r5, #0
 1077              		.loc 1 482 0
 1078 016e 2281     		strh	r2, [r4, #8]	@ movhi
 1079              		.loc 1 496 0
 1080 0170 2046     		mov	r0, r4
 1081              		.loc 1 490 0
 1082 0172 83E86200 		stmia	r3, {r1, r5, r6}
 1083              	.LVL96:
ARM GAS  /var/folders/m4/4md61f0s1_g0rzfghffqnxvr0000gn/T//ccGmGp8g.s 			page 20


 1084              		.loc 1 496 0
 1085 0176 2946     		mov	r1, r5
 1086              	.LVL97:
 1087 0178 FFF7FEFF 		bl	usb_lld_start_in
 1088              	.LVL98:
 1089              	.LBE334:
 1090              	.LBE335:
 1091              	.LBB336:
 1092              	.LBB337:
 1093              	.LBB338:
 1094              	.LBB339:
 1095              	.LBB340:
 1096              	.LBB341:
 1097              		.loc 2 548 0
 1098              		.syntax unified
 1099              	@ 548 "ChibiOS_16.1.4/os/ext/CMSIS/include/core_cmFunc.h" 1
 1100 017c 85F31188 		MSR basepri, r5
 1101              	@ 0 "" 2
 1102              	.LVL99:
 1103              		.thumb
 1104              		.syntax unified
 1105 0180 70BD     		pop	{r4, r5, r6, pc}
 1106              	.LVL100:
 1107              	.L123:
 1108              	.LBE341:
 1109              	.LBE340:
 1110              	.LBE339:
 1111              	.LBE338:
 1112              	.LBE337:
 1113              	.LBE336:
 1114              	.LBB342:
 1115              	.LBB307:
 1116              		.loc 1 88 0
 1117 0182 40F20233 		movw	r3, #770
 1118 0186 9D42     		cmp	r5, r3
 1119 0188 3AD0     		beq	.L58
 1120 018a B5F5A06F 		cmp	r5, #1280
 1121 018e 7FF475AF 		bne	.L43
 1122              		.loc 1 118 0
 1123 0192 B4F84430 		ldrh	r3, [r4, #68]
 1124 0196 B3F5A06F 		cmp	r3, #1280
 1125 019a 00F0B480 		beq	.L126
 1126              	.L78:
 1127              		.loc 1 229 0
 1128 019e 0023     		movs	r3, #0
 1129 01a0 A363     		str	r3, [r4, #56]
 1130 01a2 E363     		str	r3, [r4, #60]
 1131 01a4 2364     		str	r3, [r4, #64]
 1132              	.L64:
 1133              	.LVL101:
 1134              	.LBE307:
 1135              	.LBE342:
 1136              		.loc 1 776 0
 1137 01a6 1306     		lsls	r3, r2, #24
 1138 01a8 7FF54BAF 		bpl	.L86
 1139              	.LVL102:
 1140              	.L85:
ARM GAS  /var/folders/m4/4md61f0s1_g0rzfghffqnxvr0000gn/T//ccGmGp8g.s 			page 21


 1141              		.loc 1 788 0
 1142 01ac 0323     		movs	r3, #3
 1143 01ae 84F83430 		strb	r3, [r4, #52]
 1144              	.LVL103:
 1145              	.LBB343:
 1146              	.LBB344:
 1147              	.LBB345:
 1148              	.LBB346:
 1149              	.LBB347:
 1150              	.LBB348:
 1151              		.loc 2 548 0
 1152 01b2 2023     		movs	r3, #32
 1153              		.syntax unified
 1154              	@ 548 "ChibiOS_16.1.4/os/ext/CMSIS/include/core_cmFunc.h" 1
 1155 01b4 83F31188 		MSR basepri, r3
 1156              	@ 0 "" 2
 1157              	.LVL104:
 1158              		.thumb
 1159              		.syntax unified
 1160              	.LBE348:
 1161              	.LBE347:
 1162              	.LBE346:
 1163              	.LBE345:
 1164              	.LBE344:
 1165              	.LBE343:
 1166              	.LBB349:
 1167              	.LBB350:
 1168              		.loc 1 447 0
 1169 01b8 E368     		ldr	r3, [r4, #12]
 1170              		.loc 1 443 0
 1171 01ba 6289     		ldrh	r2, [r4, #10]
 1172              		.loc 1 447 0
 1173 01bc 9B69     		ldr	r3, [r3, #24]
 1174              	.LVL105:
 1175              		.loc 1 449 0
 1176 01be 0025     		movs	r5, #0
 1177              		.loc 1 443 0
 1178 01c0 42F00102 		orr	r2, r2, #1
 1179 01c4 6281     		strh	r2, [r4, #10]	@ movhi
 1180              		.loc 1 457 0
 1181 01c6 2046     		mov	r0, r4
 1182              		.loc 1 449 0
 1183 01c8 9D60     		str	r5, [r3, #8]
 1184              		.loc 1 450 0
 1185 01ca 1D60     		str	r5, [r3]
 1186              		.loc 1 451 0
 1187 01cc 5D60     		str	r5, [r3, #4]
 1188              		.loc 1 457 0
 1189 01ce 2946     		mov	r1, r5
 1190 01d0 FFF7FEFF 		bl	usb_lld_start_out
 1191              	.LVL106:
 1192              	.LBE350:
 1193              	.LBE349:
 1194              	.LBB351:
 1195              	.LBB352:
 1196              	.LBB353:
 1197              	.LBB354:
ARM GAS  /var/folders/m4/4md61f0s1_g0rzfghffqnxvr0000gn/T//ccGmGp8g.s 			page 22


 1198              	.LBB355:
 1199              	.LBB356:
 1200              		.loc 2 548 0
 1201              		.syntax unified
 1202              	@ 548 "ChibiOS_16.1.4/os/ext/CMSIS/include/core_cmFunc.h" 1
 1203 01d4 85F31188 		MSR basepri, r5
 1204              	@ 0 "" 2
 1205              	.LVL107:
 1206              		.thumb
 1207              		.syntax unified
 1208 01d8 70BD     		pop	{r4, r5, r6, pc}
 1209              	.LVL108:
 1210              	.L60:
 1211              	.LBE356:
 1212              	.LBE355:
 1213              	.LBE354:
 1214              	.LBE353:
 1215              	.LBE352:
 1216              	.LBE351:
 1217              	.LBB357:
 1218              	.LBB308:
 1219              		.loc 1 145 0
 1220 01da 94F84630 		ldrb	r3, [r4, #70]	@ zero_extendqisi2
 1221 01de 84F84F30 		strb	r3, [r4, #79]
 1222              		.loc 1 146 0
 1223 01e2 002B     		cmp	r3, #0
 1224 01e4 40F08180 		bne	.L68
 1225              		.loc 1 147 0
 1226 01e8 0323     		movs	r3, #3
 1227 01ea 2370     		strb	r3, [r4]
 1228              	.L69:
 1229              		.loc 1 152 0
 1230 01ec 6368     		ldr	r3, [r4, #4]
 1231 01ee 1B68     		ldr	r3, [r3]
 1232 01f0 002B     		cmp	r3, #0
 1233 01f2 D4D0     		beq	.L78
 1234 01f4 0221     		movs	r1, #2
 1235 01f6 2046     		mov	r0, r4
 1236 01f8 9847     		blx	r3
 1237              	.LVL109:
 1238 01fa 94F84420 		ldrb	r2, [r4, #68]	@ zero_extendqisi2
 1239 01fe CEE7     		b	.L78
 1240              	.L58:
 1241              		.loc 1 217 0
 1242 0200 94F84630 		ldrb	r3, [r4, #70]	@ zero_extendqisi2
 1243 0204 002B     		cmp	r3, #0
 1244 0206 7FF439AF 		bne	.L43
 1245              		.loc 1 221 0
 1246 020a 94F84830 		ldrb	r3, [r4, #72]	@ zero_extendqisi2
 1247 020e 13F00F01 		ands	r1, r3, #15
 1248 0212 C4D0     		beq	.L78
 1249              		.loc 1 222 0
 1250 0214 1D06     		lsls	r5, r3, #24
 1251              		.loc 1 223 0
 1252 0216 2046     		mov	r0, r4
 1253              		.loc 1 222 0
 1254 0218 00F18C80 		bmi	.L127
ARM GAS  /var/folders/m4/4md61f0s1_g0rzfghffqnxvr0000gn/T//ccGmGp8g.s 			page 23


 1255              	.LVL110:
 1256              		.loc 1 226 0
 1257 021c FFF7FEFF 		bl	usb_lld_stall_out
 1258              	.LVL111:
 1259 0220 94F84420 		ldrb	r2, [r4, #68]	@ zero_extendqisi2
 1260 0224 BBE7     		b	.L78
 1261              	.L54:
 1262              		.loc 1 98 0
 1263 0226 94F84630 		ldrb	r3, [r4, #70]	@ zero_extendqisi2
 1264 022a 012B     		cmp	r3, #1
 1265 022c 7FF426AF 		bne	.L43
 1266              		.loc 1 99 0
 1267 0230 B4F84C30 		ldrh	r3, [r4, #76]
 1268              		.loc 1 100 0
 1269 0234 A663     		str	r6, [r4, #56]
 1270              		.loc 1 99 0
 1271 0236 23F00203 		bic	r3, r3, #2
 1272              		.loc 1 100 0
 1273 023a E663     		str	r6, [r4, #60]
 1274 023c 2664     		str	r6, [r4, #64]
 1275              		.loc 1 99 0
 1276 023e A4F84C30 		strh	r3, [r4, #76]	@ movhi
 1277 0242 B0E7     		b	.L64
 1278              	.L124:
 1279              		.loc 1 88 0
 1280 0244 002D     		cmp	r5, #0
 1281 0246 46D1     		bne	.L128
 1282              		.loc 1 93 0
 1283 0248 0220     		movs	r0, #2
 1284 024a 04F14C02 		add	r2, r4, #76
 1285 024e 2564     		str	r5, [r4, #64]
 1286 0250 A263     		str	r2, [r4, #56]
 1287 0252 E063     		str	r0, [r4, #60]
 1288 0254 0546     		mov	r5, r0
 1289 0256 E5E6     		b	.L87
 1290              	.L50:
 1291              		.loc 1 165 0
 1292 0258 94F84810 		ldrb	r1, [r4, #72]	@ zero_extendqisi2
 1293 025c 11F0800F 		tst	r1, #128
 1294              		.loc 1 166 0
 1295 0260 2046     		mov	r0, r4
 1296 0262 01F00F01 		and	r1, r1, #15
 1297              		.loc 1 165 0
 1298 0266 43D1     		bne	.L129
 1299              	.LVL112:
 1300              		.loc 1 183 0
 1301 0268 FFF7FEFF 		bl	usb_lld_get_status_out
 1302              	.LVL113:
 1303 026c 0128     		cmp	r0, #1
 1304 026e 43D0     		beq	.L74
 1305              	.L117:
 1306 0270 0228     		cmp	r0, #2
 1307 0272 7FF403AF 		bne	.L43
 1308              		.loc 1 191 0
 1309 0276 324B     		ldr	r3, .L130
 1310 0278 A363     		str	r3, [r4, #56]
 1311 027a E063     		str	r0, [r4, #60]
ARM GAS  /var/folders/m4/4md61f0s1_g0rzfghffqnxvr0000gn/T//ccGmGp8g.s 			page 24


 1312 027c 2664     		str	r6, [r4, #64]
 1313 027e 0546     		mov	r5, r0
 1314 0280 94F84430 		ldrb	r3, [r4, #68]	@ zero_extendqisi2
 1315 0284 CEE6     		b	.L87
 1316              	.L56:
 1317              		.loc 1 129 0
 1318 0286 94F84900 		ldrb	r0, [r4, #73]	@ zero_extendqisi2
 1319 028a 6168     		ldr	r1, [r4, #4]
 1320 028c 94F84830 		ldrb	r3, [r4, #72]	@ zero_extendqisi2
 1321 0290 4D68     		ldr	r5, [r1, #4]
 1322 0292 94F84620 		ldrb	r2, [r4, #70]	@ zero_extendqisi2
 1323 0296 94F84710 		ldrb	r1, [r4, #71]	@ zero_extendqisi2
 1324 029a 43EA0023 		orr	r3, r3, r0, lsl #8
 1325 029e 2046     		mov	r0, r4
 1326 02a0 A847     		blx	r5
 1327              	.LVL114:
 1328              		.loc 1 132 0
 1329 02a2 0028     		cmp	r0, #0
 1330 02a4 3FF4EAAE 		beq	.L43
 1331              		.loc 1 136 0
 1332 02a8 4368     		ldr	r3, [r0, #4]
 1333 02aa 0568     		ldr	r5, [r0]
 1334 02ac E563     		str	r5, [r4, #60]
 1335 02ae A363     		str	r3, [r4, #56]
 1336 02b0 2664     		str	r6, [r4, #64]
 1337 02b2 94F84430 		ldrb	r3, [r4, #68]	@ zero_extendqisi2
 1338 02b6 B5E6     		b	.L87
 1339              	.LVL115:
 1340              	.L48:
 1341              		.loc 1 107 0
 1342 02b8 94F84630 		ldrb	r3, [r4, #70]	@ zero_extendqisi2
 1343 02bc 012B     		cmp	r3, #1
 1344 02be 7FF4DDAE 		bne	.L43
 1345              		.loc 1 108 0
 1346 02c2 B4F84C30 		ldrh	r3, [r4, #76]
 1347              		.loc 1 109 0
 1348 02c6 A663     		str	r6, [r4, #56]
 1349              		.loc 1 108 0
 1350 02c8 43F00203 		orr	r3, r3, #2
 1351              		.loc 1 109 0
 1352 02cc E663     		str	r6, [r4, #60]
 1353 02ce 2664     		str	r6, [r4, #64]
 1354              		.loc 1 108 0
 1355 02d0 A4F84C30 		strh	r3, [r4, #76]	@ movhi
 1356 02d4 67E7     		b	.L64
 1357              	.L128:
 1358              		.loc 1 88 0
 1359 02d6 012D     		cmp	r5, #1
 1360 02d8 7FF4D0AE 		bne	.L43
 1361              	.L53:
 1362              		.loc 1 160 0
 1363 02dc 194A     		ldr	r2, .L130+4
 1364 02de A263     		str	r2, [r4, #56]
 1365 02e0 0225     		movs	r5, #2
 1366 02e2 0022     		movs	r2, #0
 1367 02e4 E563     		str	r5, [r4, #60]
 1368 02e6 2264     		str	r2, [r4, #64]
ARM GAS  /var/folders/m4/4md61f0s1_g0rzfghffqnxvr0000gn/T//ccGmGp8g.s 			page 25


 1369 02e8 9CE6     		b	.L87
 1370              	.L68:
 1371              		.loc 1 150 0
 1372 02ea 0423     		movs	r3, #4
 1373 02ec 2370     		strb	r3, [r4]
 1374 02ee 7DE7     		b	.L69
 1375              	.LVL116:
 1376              	.L129:
 1377              		.loc 1 166 0
 1378 02f0 FFF7FEFF 		bl	usb_lld_get_status_in
 1379              	.LVL117:
 1380 02f4 0128     		cmp	r0, #1
 1381 02f6 BBD1     		bne	.L117
 1382              	.L74:
 1383              		.loc 1 186 0
 1384 02f8 134B     		ldr	r3, .L130+8
 1385 02fa A363     		str	r3, [r4, #56]
 1386 02fc E563     		str	r5, [r4, #60]
 1387 02fe 2664     		str	r6, [r4, #64]
 1388 0300 94F84430 		ldrb	r3, [r4, #68]	@ zero_extendqisi2
 1389 0304 8EE6     		b	.L87
 1390              	.L126:
 1391              	.LVL118:
 1392              	.LBB304:
 1393              	.LBB305:
 1394              		.loc 1 66 0
 1395 0306 94F84630 		ldrb	r3, [r4, #70]	@ zero_extendqisi2
 1396 030a 84F84E30 		strb	r3, [r4, #78]
 1397              		.loc 1 67 0
 1398 030e 2046     		mov	r0, r4
 1399 0310 FFF7FEFF 		bl	usb_lld_set_address
 1400              	.LVL119:
 1401              		.loc 1 68 0
 1402 0314 6368     		ldr	r3, [r4, #4]
 1403 0316 1B68     		ldr	r3, [r3]
 1404 0318 13B1     		cbz	r3, .L67
 1405 031a 0121     		movs	r1, #1
 1406 031c 2046     		mov	r0, r4
 1407 031e 9847     		blx	r3
 1408              	.LVL120:
 1409              	.L67:
 1410              		.loc 1 69 0
 1411 0320 0323     		movs	r3, #3
 1412 0322 94F84420 		ldrb	r2, [r4, #68]	@ zero_extendqisi2
 1413 0326 2370     		strb	r3, [r4]
 1414 0328 39E7     		b	.L78
 1415              	.LVL121:
 1416              	.L125:
 1417              	.LBE305:
 1418              	.LBE304:
 1419              		.loc 1 207 0
 1420 032a FFF7FEFF 		bl	usb_lld_clear_in
 1421              	.LVL122:
 1422 032e 94F84420 		ldrb	r2, [r4, #68]	@ zero_extendqisi2
 1423 0332 34E7     		b	.L78
 1424              	.LVL123:
 1425              	.L127:
ARM GAS  /var/folders/m4/4md61f0s1_g0rzfghffqnxvr0000gn/T//ccGmGp8g.s 			page 26


 1426              		.loc 1 223 0
 1427 0334 FFF7FEFF 		bl	usb_lld_stall_in
 1428              	.LVL124:
 1429 0338 94F84420 		ldrb	r2, [r4, #68]	@ zero_extendqisi2
 1430 033c 2FE7     		b	.L78
 1431              	.L131:
 1432 033e 00BF     		.align	2
 1433              	.L130:
 1434 0340 00000000 		.word	.LANCHOR2
 1435 0344 00000000 		.word	.LANCHOR0
 1436 0348 00000000 		.word	.LANCHOR1
 1437              	.LBE308:
 1438              	.LBE357:
 1439              		.cfi_endproc
 1440              	.LFE284:
 1441              		.size	_usb_ep0setup, .-_usb_ep0setup
 1442              		.section	.text._usb_ep0in,"ax",%progbits
 1443              		.align	2
 1444              		.p2align 4,,15
 1445              		.global	_usb_ep0in
 1446              		.thumb
 1447              		.thumb_func
 1448              		.type	_usb_ep0in, %function
 1449              	_usb_ep0in:
 1450              	.LFB285:
 1451              		.loc 1 832 0
 1452              		.cfi_startproc
 1453              		@ args = 0, pretend = 0, frame = 0
 1454              		@ frame_needed = 0, uses_anonymous_args = 0
 1455              	.LVL125:
 1456 0000 38B5     		push	{r3, r4, r5, lr}
 1457              		.cfi_def_cfa_offset 16
 1458              		.cfi_offset 3, -16
 1459              		.cfi_offset 4, -12
 1460              		.cfi_offset 5, -8
 1461              		.cfi_offset 14, -4
 1462              		.loc 1 836 0
 1463 0002 90F83430 		ldrb	r3, [r0, #52]	@ zero_extendqisi2
 1464              		.loc 1 832 0
 1465 0006 0446     		mov	r4, r0
 1466              		.loc 1 836 0
 1467 0008 062B     		cmp	r3, #6
 1468 000a 15D8     		bhi	.L132
 1469 000c DFE803F0 		tbb	[pc, r3]
 1470              	.L135:
 1471 0010 04       		.byte	(.L134-.L135)/2
 1472 0011 15       		.byte	(.L136-.L135)/2
 1473 0012 25       		.byte	(.L137-.L135)/2
 1474 0013 04       		.byte	(.L134-.L135)/2
 1475 0014 04       		.byte	(.L134-.L135)/2
 1476 0015 3C       		.byte	(.L138-.L135)/2
 1477 0016 04       		.byte	(.L134-.L135)/2
 1478 0017 00       		.p2align 1
 1479              	.L134:
 1480              		.loc 1 879 0
 1481 0018 0021     		movs	r1, #0
 1482              	.LVL126:
ARM GAS  /var/folders/m4/4md61f0s1_g0rzfghffqnxvr0000gn/T//ccGmGp8g.s 			page 27


 1483 001a FFF7FEFF 		bl	usb_lld_stall_in
 1484              	.LVL127:
 1485              		.loc 1 880 0
 1486 001e 0021     		movs	r1, #0
 1487 0020 2046     		mov	r0, r4
 1488 0022 FFF7FEFF 		bl	usb_lld_stall_out
 1489              	.LVL128:
 1490              		.loc 1 881 0
 1491 0026 6368     		ldr	r3, [r4, #4]
 1492 0028 1B68     		ldr	r3, [r3]
 1493 002a 13B1     		cbz	r3, .L140
 1494              		.loc 1 881 0 is_stmt 0 discriminator 1
 1495 002c 0521     		movs	r1, #5
 1496 002e 2046     		mov	r0, r4
 1497 0030 9847     		blx	r3
 1498              	.LVL129:
 1499              	.L140:
 1500              		.loc 1 882 0 is_stmt 1
 1501 0032 0623     		movs	r3, #6
 1502 0034 84F83430 		strb	r3, [r4, #52]
 1503              	.L132:
 1504 0038 38BD     		pop	{r3, r4, r5, pc}
 1505              	.LVL130:
 1506              	.L136:
 1507              		.loc 1 842 0
 1508 003a 90F84B10 		ldrb	r1, [r0, #75]	@ zero_extendqisi2
 1509              	.LVL131:
 1510 003e 90F84A30 		ldrb	r3, [r0, #74]	@ zero_extendqisi2
 1511 0042 C26B     		ldr	r2, [r0, #60]
 1512 0044 43EA0123 		orr	r3, r3, r1, lsl #8
 1513 0048 9342     		cmp	r3, r2
 1514 004a 06D9     		bls	.L137
 1515              		.loc 1 843 0 discriminator 1
 1516 004c C368     		ldr	r3, [r0, #12]
 1517              		.loc 1 842 0 discriminator 1
 1518 004e 1D8A     		ldrh	r5, [r3, #16]
 1519 0050 B2FBF5F3 		udiv	r3, r2, r5
 1520 0054 05FB1325 		mls	r5, r5, r3, r2
 1521 0058 EDB1     		cbz	r5, .L148
 1522              	.LVL132:
 1523              	.L137:
 1524              		.loc 1 853 0
 1525 005a 0323     		movs	r3, #3
 1526 005c 84F83430 		strb	r3, [r4, #52]
 1527              	.LVL133:
 1528              	.LBB358:
 1529              	.LBB359:
 1530              	.LBB360:
 1531              	.LBB361:
 1532              	.LBB362:
 1533              	.LBB363:
 1534              		.loc 2 548 0
 1535 0060 2023     		movs	r3, #32
 1536              		.syntax unified
 1537              	@ 548 "ChibiOS_16.1.4/os/ext/CMSIS/include/core_cmFunc.h" 1
 1538 0062 83F31188 		MSR basepri, r3
 1539              	@ 0 "" 2
ARM GAS  /var/folders/m4/4md61f0s1_g0rzfghffqnxvr0000gn/T//ccGmGp8g.s 			page 28


 1540              	.LVL134:
 1541              		.thumb
 1542              		.syntax unified
 1543              	.LBE363:
 1544              	.LBE362:
 1545              	.LBE361:
 1546              	.LBE360:
 1547              	.LBE359:
 1548              	.LBE358:
 1549              	.LBB364:
 1550              	.LBB365:
 1551              		.loc 1 447 0
 1552 0066 E368     		ldr	r3, [r4, #12]
 1553              		.loc 1 443 0
 1554 0068 6289     		ldrh	r2, [r4, #10]
 1555              		.loc 1 447 0
 1556 006a 9B69     		ldr	r3, [r3, #24]
 1557              	.LVL135:
 1558              		.loc 1 449 0
 1559 006c 0025     		movs	r5, #0
 1560              		.loc 1 443 0
 1561 006e 42F00102 		orr	r2, r2, #1
 1562 0072 6281     		strh	r2, [r4, #10]	@ movhi
 1563              		.loc 1 457 0
 1564 0074 2046     		mov	r0, r4
 1565              	.LVL136:
 1566              		.loc 1 449 0
 1567 0076 9D60     		str	r5, [r3, #8]
 1568              		.loc 1 450 0
 1569 0078 1D60     		str	r5, [r3]
 1570              		.loc 1 451 0
 1571 007a 5D60     		str	r5, [r3, #4]
 1572              		.loc 1 457 0
 1573 007c 2946     		mov	r1, r5
 1574 007e FFF7FEFF 		bl	usb_lld_start_out
 1575              	.LVL137:
 1576              	.LBE365:
 1577              	.LBE364:
 1578              	.LBB366:
 1579              	.LBB367:
 1580              	.LBB368:
 1581              	.LBB369:
 1582              	.LBB370:
 1583              	.LBB371:
 1584              		.loc 2 548 0
 1585              		.syntax unified
 1586              	@ 548 "ChibiOS_16.1.4/os/ext/CMSIS/include/core_cmFunc.h" 1
 1587 0082 85F31188 		MSR basepri, r5
 1588              	@ 0 "" 2
 1589              	.LVL138:
 1590              		.thumb
 1591              		.syntax unified
 1592 0086 38BD     		pop	{r3, r4, r5, pc}
 1593              	.LVL139:
 1594              	.L138:
 1595              	.LBE371:
 1596              	.LBE370:
ARM GAS  /var/folders/m4/4md61f0s1_g0rzfghffqnxvr0000gn/T//ccGmGp8g.s 			page 29


 1597              	.LBE369:
 1598              	.LBE368:
 1599              	.LBE367:
 1600              	.LBE366:
 1601              		.loc 1 864 0
 1602 0088 036C     		ldr	r3, [r0, #64]
 1603 008a 03B1     		cbz	r3, .L139
 1604              		.loc 1 865 0
 1605 008c 9847     		blx	r3
 1606              	.LVL140:
 1607              	.L139:
 1608              		.loc 1 867 0
 1609 008e 0023     		movs	r3, #0
 1610 0090 84F83430 		strb	r3, [r4, #52]
 1611              		.loc 1 868 0
 1612 0094 38BD     		pop	{r3, r4, r5, pc}
 1613              	.LVL141:
 1614              	.L148:
 1615              	.LBB372:
 1616              	.LBB373:
 1617              	.LBB374:
 1618              	.LBB375:
 1619              	.LBB376:
 1620              	.LBB377:
 1621              		.loc 2 548 0
 1622 0096 2023     		movs	r3, #32
 1623              		.syntax unified
 1624              	@ 548 "ChibiOS_16.1.4/os/ext/CMSIS/include/core_cmFunc.h" 1
 1625 0098 83F31188 		MSR basepri, r3
 1626              	@ 0 "" 2
 1627              	.LVL142:
 1628              		.thumb
 1629              		.syntax unified
 1630              	.LBE377:
 1631              	.LBE376:
 1632              	.LBE375:
 1633              	.LBE374:
 1634              	.LBE373:
 1635              	.LBE372:
 1636              	.LBB378:
 1637              	.LBB379:
 1638              		.loc 1 486 0
 1639 009c C368     		ldr	r3, [r0, #12]
 1640              		.loc 1 482 0
 1641 009e 0289     		ldrh	r2, [r0, #8]
 1642              		.loc 1 486 0
 1643 00a0 5B69     		ldr	r3, [r3, #20]
 1644              	.LVL143:
 1645              		.loc 1 482 0
 1646 00a2 42F00102 		orr	r2, r2, #1
 1647 00a6 0281     		strh	r2, [r0, #8]	@ movhi
 1648              	.LVL144:
 1649              		.loc 1 496 0
 1650 00a8 2946     		mov	r1, r5
 1651              		.loc 1 488 0
 1652 00aa 9D60     		str	r5, [r3, #8]
 1653              		.loc 1 489 0
ARM GAS  /var/folders/m4/4md61f0s1_g0rzfghffqnxvr0000gn/T//ccGmGp8g.s 			page 30


 1654 00ac 1D60     		str	r5, [r3]
 1655              		.loc 1 490 0
 1656 00ae 5D60     		str	r5, [r3, #4]
 1657              		.loc 1 496 0
 1658 00b0 FFF7FEFF 		bl	usb_lld_start_in
 1659              	.LVL145:
 1660              	.LBE379:
 1661              	.LBE378:
 1662              	.LBB380:
 1663              	.LBB381:
 1664              	.LBB382:
 1665              	.LBB383:
 1666              	.LBB384:
 1667              	.LBB385:
 1668              		.loc 2 548 0
 1669              		.syntax unified
 1670              	@ 548 "ChibiOS_16.1.4/os/ext/CMSIS/include/core_cmFunc.h" 1
 1671 00b4 85F31188 		MSR basepri, r5
 1672              	@ 0 "" 2
 1673              	.LVL146:
 1674              		.thumb
 1675              		.syntax unified
 1676              	.LBE385:
 1677              	.LBE384:
 1678              	.LBE383:
 1679              	.LBE382:
 1680              	.LBE381:
 1681              	.LBE380:
 1682              		.loc 1 847 0
 1683 00b8 0223     		movs	r3, #2
 1684 00ba 84F83430 		strb	r3, [r4, #52]
 1685              		.loc 1 848 0
 1686 00be 38BD     		pop	{r3, r4, r5, pc}
 1687              		.cfi_endproc
 1688              	.LFE285:
 1689              		.size	_usb_ep0in, .-_usb_ep0in
 1690              		.section	.text._usb_ep0out,"ax",%progbits
 1691              		.align	2
 1692              		.p2align 4,,15
 1693              		.global	_usb_ep0out
 1694              		.thumb
 1695              		.thumb_func
 1696              		.type	_usb_ep0out, %function
 1697              	_usb_ep0out:
 1698              	.LFB286:
 1699              		.loc 1 899 0
 1700              		.cfi_startproc
 1701              		@ args = 0, pretend = 0, frame = 0
 1702              		@ frame_needed = 0, uses_anonymous_args = 0
 1703              	.LVL147:
 1704              		.loc 1 902 0
 1705 0000 90F83420 		ldrb	r2, [r0, #52]	@ zero_extendqisi2
 1706 0004 062A     		cmp	r2, #6
 1707 0006 0CD8     		bhi	.L165
 1708              		.loc 1 899 0
 1709 0008 38B5     		push	{r3, r4, r5, lr}
 1710              		.cfi_def_cfa_offset 16
ARM GAS  /var/folders/m4/4md61f0s1_g0rzfghffqnxvr0000gn/T//ccGmGp8g.s 			page 31


 1711              		.cfi_offset 3, -16
 1712              		.cfi_offset 4, -12
 1713              		.cfi_offset 5, -8
 1714              		.cfi_offset 14, -4
 1715 000a 0123     		movs	r3, #1
 1716 000c 9340     		lsls	r3, r3, r2
 1717 000e 13F0670F 		tst	r3, #103
 1718 0012 0446     		mov	r4, r0
 1719 0014 12D1     		bne	.L151
 1720 0016 13F00805 		ands	r5, r3, #8
 1721 001a 03D1     		bne	.L152
 1722 001c DB06     		lsls	r3, r3, #27
 1723 001e 1ED4     		bmi	.L166
 1724              	.L149:
 1725 0020 38BD     		pop	{r3, r4, r5, pc}
 1726              	.L165:
 1727              		.cfi_def_cfa_offset 0
 1728              		.cfi_restore 3
 1729              		.cfi_restore 4
 1730              		.cfi_restore 5
 1731              		.cfi_restore 14
 1732 0022 7047     		bx	lr
 1733              	.L152:
 1734              		.cfi_def_cfa_offset 16
 1735              		.cfi_offset 3, -16
 1736              		.cfi_offset 4, -12
 1737              		.cfi_offset 5, -8
 1738              		.cfi_offset 14, -4
 1739              		.loc 1 918 0
 1740 0024 C368     		ldr	r3, [r0, #12]
 1741 0026 9B69     		ldr	r3, [r3, #24]
 1742 0028 5B68     		ldr	r3, [r3, #4]
 1743 002a 002B     		cmp	r3, #0
 1744 002c F8D1     		bne	.L149
 1745              		.loc 1 922 0
 1746 002e 036C     		ldr	r3, [r0, #64]
 1747 0030 03B1     		cbz	r3, .L153
 1748              		.loc 1 923 0
 1749 0032 9847     		blx	r3
 1750              	.LVL148:
 1751              	.L153:
 1752              		.loc 1 925 0
 1753 0034 0023     		movs	r3, #0
 1754 0036 84F83430 		strb	r3, [r4, #52]
 1755              		.loc 1 926 0
 1756 003a 38BD     		pop	{r3, r4, r5, pc}
 1757              	.LVL149:
 1758              	.L151:
 1759              		.loc 1 938 0
 1760 003c 0021     		movs	r1, #0
 1761              	.LVL150:
 1762 003e FFF7FEFF 		bl	usb_lld_stall_in
 1763              	.LVL151:
 1764              		.loc 1 939 0
 1765 0042 0021     		movs	r1, #0
 1766 0044 2046     		mov	r0, r4
 1767 0046 FFF7FEFF 		bl	usb_lld_stall_out
ARM GAS  /var/folders/m4/4md61f0s1_g0rzfghffqnxvr0000gn/T//ccGmGp8g.s 			page 32


 1768              	.LVL152:
 1769              		.loc 1 940 0
 1770 004a 6368     		ldr	r3, [r4, #4]
 1771 004c 1B68     		ldr	r3, [r3]
 1772 004e 13B1     		cbz	r3, .L154
 1773              		.loc 1 940 0 is_stmt 0 discriminator 1
 1774 0050 0521     		movs	r1, #5
 1775 0052 2046     		mov	r0, r4
 1776 0054 9847     		blx	r3
 1777              	.LVL153:
 1778              	.L154:
 1779              		.loc 1 941 0 is_stmt 1
 1780 0056 0623     		movs	r3, #6
 1781 0058 84F83430 		strb	r3, [r4, #52]
 1782 005c 38BD     		pop	{r3, r4, r5, pc}
 1783              	.LVL154:
 1784              	.L166:
 1785              		.loc 1 905 0
 1786 005e 0523     		movs	r3, #5
 1787 0060 80F83430 		strb	r3, [r0, #52]
 1788              	.LVL155:
 1789              	.LBB386:
 1790              	.LBB387:
 1791              	.LBB388:
 1792              	.LBB389:
 1793              	.LBB390:
 1794              	.LBB391:
 1795              		.loc 2 548 0
 1796 0064 2023     		movs	r3, #32
 1797              		.syntax unified
 1798              	@ 548 "ChibiOS_16.1.4/os/ext/CMSIS/include/core_cmFunc.h" 1
 1799 0066 83F31188 		MSR basepri, r3
 1800              	@ 0 "" 2
 1801              	.LVL156:
 1802              		.thumb
 1803              		.syntax unified
 1804              	.LBE391:
 1805              	.LBE390:
 1806              	.LBE389:
 1807              	.LBE388:
 1808              	.LBE387:
 1809              	.LBE386:
 1810              	.LBB392:
 1811              	.LBB393:
 1812              		.loc 1 486 0
 1813 006a C368     		ldr	r3, [r0, #12]
 1814              		.loc 1 482 0
 1815 006c 0289     		ldrh	r2, [r0, #8]
 1816              		.loc 1 486 0
 1817 006e 5B69     		ldr	r3, [r3, #20]
 1818              	.LVL157:
 1819              		.loc 1 482 0
 1820 0070 42F00102 		orr	r2, r2, #1
 1821 0074 0281     		strh	r2, [r0, #8]	@ movhi
 1822              		.loc 1 496 0
 1823 0076 2946     		mov	r1, r5
 1824              	.LVL158:
ARM GAS  /var/folders/m4/4md61f0s1_g0rzfghffqnxvr0000gn/T//ccGmGp8g.s 			page 33


 1825              		.loc 1 488 0
 1826 0078 9D60     		str	r5, [r3, #8]
 1827              		.loc 1 489 0
 1828 007a 1D60     		str	r5, [r3]
 1829              		.loc 1 490 0
 1830 007c 5D60     		str	r5, [r3, #4]
 1831              		.loc 1 496 0
 1832 007e FFF7FEFF 		bl	usb_lld_start_in
 1833              	.LVL159:
 1834              	.LBE393:
 1835              	.LBE392:
 1836              	.LBB394:
 1837              	.LBB395:
 1838              	.LBB396:
 1839              	.LBB397:
 1840              	.LBB398:
 1841              	.LBB399:
 1842              		.loc 2 548 0
 1843              		.syntax unified
 1844              	@ 548 "ChibiOS_16.1.4/os/ext/CMSIS/include/core_cmFunc.h" 1
 1845 0082 85F31188 		MSR basepri, r5
 1846              	@ 0 "" 2
 1847              	.LVL160:
 1848              		.thumb
 1849              		.syntax unified
 1850 0086 38BD     		pop	{r3, r4, r5, pc}
 1851              	.LBE399:
 1852              	.LBE398:
 1853              	.LBE397:
 1854              	.LBE396:
 1855              	.LBE395:
 1856              	.LBE394:
 1857              		.cfi_endproc
 1858              	.LFE286:
 1859              		.size	_usb_ep0out, .-_usb_ep0out
 1860              		.section	.rodata.zero_status,"a",%progbits
 1861              		.align	2
 1862              		.set	.LANCHOR0,. + 0
 1863              		.type	zero_status, %object
 1864              		.size	zero_status, 2
 1865              	zero_status:
 1866 0000 0000     		.space	2
 1867              		.section	.rodata.active_status,"a",%progbits
 1868              		.align	2
 1869              		.set	.LANCHOR2,. + 0
 1870              		.type	active_status, %object
 1871              		.size	active_status, 2
 1872              	active_status:
 1873 0000 0000     		.space	2
 1874              		.section	.rodata.halted_status,"a",%progbits
 1875              		.align	2
 1876              		.set	.LANCHOR1,. + 0
 1877              		.type	halted_status, %object
 1878              		.size	halted_status, 2
 1879              	halted_status:
 1880 0000 01       		.byte	1
 1881 0001 00       		.byte	0
ARM GAS  /var/folders/m4/4md61f0s1_g0rzfghffqnxvr0000gn/T//ccGmGp8g.s 			page 34


 1882              		.text
 1883              	.Letext0:
 1884              		.file 4 "/opt/homebrew-cask/Caskroom/gcc-arm-embedded/5_2-2015q4,20151219/gcc-arm-none-eabi-5_2-20
 1885              		.file 5 "/opt/homebrew-cask/Caskroom/gcc-arm-embedded/5_2-2015q4,20151219/gcc-arm-none-eabi-5_2-20
 1886              		.file 6 "/opt/homebrew-cask/Caskroom/gcc-arm-embedded/5_2-2015q4,20151219/gcc-arm-none-eabi-5_2-20
 1887              		.file 7 "ChibiOS_16.1.4/os/rt/ports/ARMCMx/compilers/GCC/chtypes.h"
 1888              		.file 8 "ChibiOS_16.1.4/os/rt/include/chsystypes.h"
 1889              		.file 9 "ChibiOS_16.1.4/os/rt/include/chschd.h"
 1890              		.file 10 "ChibiOS_16.1.4/os/rt/ports/ARMCMx/chcore.h"
 1891              		.file 11 "ChibiOS_16.1.4/os/rt/ports/ARMCMx/chcore_v7m.h"
 1892              		.file 12 "ChibiOS_16.1.4/os/rt/include/chtm.h"
 1893              		.file 13 "ChibiOS_16.1.4/os/rt/include/chsem.h"
 1894              		.file 14 "ChibiOS_16.1.4/os/rt/include/chmtx.h"
 1895              		.file 15 "ChibiOS_16.1.4/os/hal/include/usb.h"
 1896              		.file 16 "ChibiOS_16.1.4/os/hal/ports/STM32/LLD/OTGv1/usb_lld.h"
 1897              		.file 17 "ChibiOS_16.1.4/os/hal/ports/STM32/LLD/OTGv1/stm32_otg.h"
 1898              		.file 18 "ChibiOS_16.1.4/os/rt/include/chsys.h"
 1899              		.file 19 "ChibiOS_16.1.4/os/ext/CMSIS/include/core_cm4.h"