ARM GAS  /var/folders/m4/4md61f0s1_g0rzfghffqnxvr0000gn/T//cc3uZ6EE.s 			page 1


   1              		.syntax unified
   2              		.cpu cortex-m4
   3              		.eabi_attribute 27, 1
   4              		.eabi_attribute 28, 1
   5              		.fpu fpv4-sp-d16
   6              		.eabi_attribute 20, 1
   7              		.eabi_attribute 21, 1
   8              		.eabi_attribute 23, 3
   9              		.eabi_attribute 24, 1
  10              		.eabi_attribute 25, 1
  11              		.eabi_attribute 26, 1
  12              		.eabi_attribute 30, 2
  13              		.eabi_attribute 34, 1
  14              		.eabi_attribute 18, 4
  15              		.thumb
  16              		.syntax unified
  17              		.file	"usb_lld.c"
  18              		.text
  19              	.Ltext0:
  20              		.cfi_sections	.debug_frame
  21              		.section	.text.usb_lld_pump,"ax",%progbits
  22              		.align	2
  23              		.p2align 4,,15
  24              		.global	usb_lld_pump
  25              		.thumb
  26              		.thumb_func
  27              		.type	usb_lld_pump, %function
  28              	usb_lld_pump:
  29              	.LFB300:
  30              		.file 1 "ChibiOS_16.1.4/os/hal/ports/STM32/LLD/OTGv1/usb_lld.c"
  31              		.loc 1 1285 0
  32              		.cfi_startproc
  33              		@ args = 0, pretend = 0, frame = 8
  34              		@ frame_needed = 0, uses_anonymous_args = 0
  35              	.LVL0:
  36 0000 2DE9F04F 		push	{r4, r5, r6, r7, r8, r9, r10, fp, lr}
  37              		.cfi_def_cfa_offset 36
  38              		.cfi_offset 4, -36
  39              		.cfi_offset 5, -32
  40              		.cfi_offset 6, -28
  41              		.cfi_offset 7, -24
  42              		.cfi_offset 8, -20
  43              		.cfi_offset 9, -16
  44              		.cfi_offset 10, -12
  45              		.cfi_offset 11, -8
  46              		.cfi_offset 14, -4
  47              	.LBB369:
  48              	.LBB370:
  49              		.file 2 "ChibiOS_16.1.4/os/rt/include/chregistry.h"
  50              		.loc 2 135 0
  51 0004 7C4B     		ldr	r3, .L51
  52 0006 7D49     		ldr	r1, .L51+4
  53 0008 9A69     		ldr	r2, [r3, #24]
  54              	.LBE370:
  55              	.LBE369:
  56              		.loc 1 1287 0
  57 000a D0F850A0 		ldr	r10, [r0, #80]
ARM GAS  /var/folders/m4/4md61f0s1_g0rzfghffqnxvr0000gn/T//cc3uZ6EE.s 			page 2


  58              	.LBB372:
  59              	.LBB371:
  60              		.loc 2 135 0
  61 000e 9161     		str	r1, [r2, #24]
  62              	.LBE371:
  63              	.LBE372:
  64              		.loc 1 1285 0
  65 0010 83B0     		sub	sp, sp, #12
  66              		.cfi_def_cfa_offset 48
  67              		.loc 1 1285 0
  68 0012 8346     		mov	fp, r0
  69              	.LVL1:
  70              	.LBB373:
  71              	.LBB374:
  72              	.LBB375:
  73              	.LBB376:
  74              	.LBB377:
  75              		.file 3 "ChibiOS_16.1.4/os/ext/CMSIS/include/core_cmFunc.h"
  76              		.loc 3 548 0
  77 0014 2023     		movs	r3, #32
  78              		.syntax unified
  79              	@ 548 "ChibiOS_16.1.4/os/ext/CMSIS/include/core_cmFunc.h" 1
  80 0016 83F31188 		MSR basepri, r3
  81              	@ 0 "" 2
  82              	.LVL2:
  83              		.thumb
  84              		.syntax unified
  85 001a 00F16003 		add	r3, r0, #96
  86 001e 0193     		str	r3, [sp, #4]
  87              	.LVL3:
  88              	.L32:
  89              	.LBE377:
  90              	.LBE376:
  91              	.LBE375:
  92              	.LBE374:
  93              	.LBE373:
  94              	.LBB378:
  95              		.loc 1 1298 0
  96 0020 9BF80030 		ldrb	r3, [fp]	@ zero_extendqisi2
  97 0024 012B     		cmp	r3, #1
  98 0026 06D0     		beq	.L2
  99              		.loc 1 1298 0 is_stmt 0 discriminator 1
 100 0028 DBF85C30 		ldr	r3, [fp, #92]
 101 002c 63B9     		cbnz	r3, .L3
 102              		.loc 1 1299 0 is_stmt 1
 103 002e DAF81430 		ldr	r3, [r10, #20]
 104 0032 DE06     		lsls	r6, r3, #27
 105 0034 08D4     		bmi	.L3
 106              	.L2:
 107              		.loc 1 1300 0
 108 0036 DAF81830 		ldr	r3, [r10, #24]
 109              	.LBB379:
 110              	.LBB380:
 111              		.file 4 "ChibiOS_16.1.4/os/hal/osal/rt/osal.h"
 112              		.loc 4 688 0
 113 003a 0198     		ldr	r0, [sp, #4]
 114              	.LBE380:
ARM GAS  /var/folders/m4/4md61f0s1_g0rzfghffqnxvr0000gn/T//cc3uZ6EE.s 			page 3


 115              	.LBE379:
 116              		.loc 1 1300 0
 117 003c 43F01003 		orr	r3, r3, #16
 118 0040 CAF81830 		str	r3, [r10, #24]
 119              	.LBB382:
 120              	.LBB381:
 121              		.loc 4 688 0
 122 0044 FFF7FEFF 		bl	chThdSuspendS
 123              	.LVL4:
 124              	.L3:
 125              	.LBE381:
 126              	.LBE382:
 127              	.LBB383:
 128              	.LBB384:
 129              	.LBB385:
 130              	.LBB386:
 131              	.LBB387:
 132              	.LBB388:
 133              		.loc 3 548 0
 134 0048 0023     		movs	r3, #0
 135              		.syntax unified
 136              	@ 548 "ChibiOS_16.1.4/os/ext/CMSIS/include/core_cmFunc.h" 1
 137 004a 83F31188 		MSR basepri, r3
 138              	@ 0 "" 2
 139              	.LVL5:
 140              		.thumb
 141              		.syntax unified
 142 004e 9E46     		mov	lr, r3
 143              	.LVL6:
 144              	.L5:
 145              	.LBE388:
 146              	.LBE387:
 147              	.LBE386:
 148              	.LBE385:
 149              	.LBE384:
 150              	.LBE383:
 151              		.loc 1 1309 0
 152 0050 DAF81430 		ldr	r3, [r10, #20]
 153 0054 13F01003 		ands	r3, r3, #16
 154 0058 50D0     		beq	.L49
 155              	.L18:
 156              	.LVL7:
 157              	.LBB389:
 158              	.LBB390:
 159              		.loc 1 275 0
 160 005a DBF85030 		ldr	r3, [fp, #80]
 161 005e 1A6A     		ldr	r2, [r3, #32]
 162              	.LVL8:
 163              		.loc 1 276 0
 164 0060 02F4F011 		and	r1, r2, #1966080
 165 0064 B1F5802F 		cmp	r1, #262144
 166 0068 1ED0     		beq	.L6
 167 006a B1F5402F 		cmp	r1, #786432
 168 006e EFD1     		bne	.L5
 169              		.loc 1 282 0
 170 0070 02F00F01 		and	r1, r2, #15
 171 0074 0BEB8101 		add	r1, fp, r1, lsl #2
ARM GAS  /var/folders/m4/4md61f0s1_g0rzfghffqnxvr0000gn/T//cc3uZ6EE.s 			page 4


 172              		.loc 1 280 0
 173 0078 C2F30A12 		ubfx	r2, r2, #4, #11
 174              	.LVL9:
 175              		.loc 1 282 0
 176 007c C968     		ldr	r1, [r1, #12]
 177 007e 0C6A     		ldr	r4, [r1, #32]
 178              	.LVL10:
 179              	.LBB391:
 180              	.LBB392:
 181              		.loc 1 253 0
 182 0080 002A     		cmp	r2, #0
 183 0082 E5D0     		beq	.L5
 184 0084 0021     		movs	r1, #0
 185              		.loc 1 255 0
 186 0086 03F58050 		add	r0, r3, #4096
 187              	.LVL11:
 188              		.loc 1 253 0
 189 008a 0B46     		mov	r3, r1
 190 008c 01E0     		b	.L12
 191              	.LVL12:
 192              	.L11:
 193 008e 9A42     		cmp	r2, r3
 194 0090 DED0     		beq	.L5
 195              	.LVL13:
 196              	.L12:
 197              		.loc 1 254 0
 198 0092 9D07     		lsls	r5, r3, #30
 199              		.loc 1 255 0
 200 0094 08BF     		it	eq
 201 0096 0168     		ldreq	r1, [r0]
 202              		.loc 1 257 0
 203 0098 072B     		cmp	r3, #7
 204              		.loc 1 261 0
 205 009a 03F10103 		add	r3, r3, #1
 206              	.LVL14:
 207              		.loc 1 257 0
 208 009e F6D8     		bhi	.L11
 209              	.LVL15:
 210              		.loc 1 258 0
 211 00a0 2170     		strb	r1, [r4]
 212              	.LVL16:
 213              		.loc 1 259 0
 214 00a2 090A     		lsrs	r1, r1, #8
 215              	.LVL17:
 216              		.loc 1 258 0
 217 00a4 0134     		adds	r4, r4, #1
 218              	.LVL18:
 219 00a6 F2E7     		b	.L11
 220              	.LVL19:
 221              	.L6:
 222 00a8 02F00F06 		and	r6, r2, #15
 223 00ac 0BEB8606 		add	r6, fp, r6, lsl #2
 224              	.LBE392:
 225              	.LBE391:
 226              		.loc 1 286 0
 227 00b0 C2F30A12 		ubfx	r2, r2, #4, #11
 228              	.LVL20:
ARM GAS  /var/folders/m4/4md61f0s1_g0rzfghffqnxvr0000gn/T//cc3uZ6EE.s 			page 5


 229              		.loc 1 289 0
 230 00b4 F168     		ldr	r1, [r6, #12]
 231 00b6 8969     		ldr	r1, [r1, #24]
 232              		.loc 1 292 0
 233 00b8 4C68     		ldr	r4, [r1, #4]
 234              		.loc 1 288 0
 235 00ba 0D68     		ldr	r5, [r1]
 236 00bc 8868     		ldr	r0, [r1, #8]
 237 00be 2D1B     		subs	r5, r5, r4
 238              	.LVL21:
 239              	.LBB393:
 240              	.LBB394:
 241              		.loc 1 253 0
 242 00c0 8AB3     		cbz	r2, .L33
 243 00c2 0021     		movs	r1, #0
 244              		.loc 1 255 0
 245 00c4 03F58054 		add	r4, r3, #4096
 246              	.LVL22:
 247              		.loc 1 253 0
 248 00c8 0B46     		mov	r3, r1
 249              	.LVL23:
 250              	.L17:
 251              		.loc 1 254 0
 252 00ca 9F07     		lsls	r7, r3, #30
 253              		.loc 1 255 0
 254 00cc 08BF     		it	eq
 255 00ce 2168     		ldreq	r1, [r4]
 256              		.loc 1 257 0
 257 00d0 9D42     		cmp	r5, r3
 258              		.loc 1 261 0
 259 00d2 03F10103 		add	r3, r3, #1
 260              	.LVL24:
 261              		.loc 1 257 0
 262 00d6 02D9     		bls	.L16
 263              		.loc 1 258 0
 264 00d8 0170     		strb	r1, [r0]
 265              	.LVL25:
 266              		.loc 1 259 0
 267 00da 090A     		lsrs	r1, r1, #8
 268              	.LVL26:
 269              		.loc 1 258 0
 270 00dc 0130     		adds	r0, r0, #1
 271              	.LVL27:
 272              	.L16:
 273              		.loc 1 253 0
 274 00de 9A42     		cmp	r2, r3
 275 00e0 F3D1     		bne	.L17
 276 00e2 F368     		ldr	r3, [r6, #12]
 277              	.LVL28:
 278 00e4 9B69     		ldr	r3, [r3, #24]
 279 00e6 9868     		ldr	r0, [r3, #8]
 280              	.LVL29:
 281 00e8 5C68     		ldr	r4, [r3, #4]
 282              	.LVL30:
 283              	.L14:
 284              	.LBE394:
 285              	.LBE393:
ARM GAS  /var/folders/m4/4md61f0s1_g0rzfghffqnxvr0000gn/T//cc3uZ6EE.s 			page 6


 286              		.loc 1 293 0
 287 00ea 1044     		add	r0, r0, r2
 288              		.loc 1 294 0
 289 00ec 2244     		add	r2, r2, r4
 290              	.LVL31:
 291              		.loc 1 293 0
 292 00ee 9860     		str	r0, [r3, #8]
 293              		.loc 1 294 0
 294 00f0 5A60     		str	r2, [r3, #4]
 295              	.LBE390:
 296              	.LBE389:
 297              		.loc 1 1309 0
 298 00f2 DAF81430 		ldr	r3, [r10, #20]
 299 00f6 13F01003 		ands	r3, r3, #16
 300 00fa AED1     		bne	.L18
 301              	.LVL32:
 302              	.L49:
 303              		.loc 1 1314 0
 304 00fc DBF85C20 		ldr	r2, [fp, #92]
 305              		.loc 1 1313 0
 306 0100 0121     		movs	r1, #1
 307 0102 01FA0EF1 		lsl	r1, r1, lr
 308              		.loc 1 1314 0
 309 0106 1142     		tst	r1, r2
 310              		.loc 1 1313 0
 311 0108 0091     		str	r1, [sp]
 312              	.LVL33:
 313              		.loc 1 1314 0
 314 010a 0ED1     		bne	.L43
 315 010c 0EF1010E 		add	lr, lr, #1
 316              	.LVL34:
 317              	.L19:
 318              		.loc 1 1306 0 discriminator 2
 319 0110 DBF85430 		ldr	r3, [fp, #84]
 320 0114 9B68     		ldr	r3, [r3, #8]
 321 0116 5FFA8EFE 		uxtb	lr, lr
 322              	.LVL35:
 323 011a 9E45     		cmp	lr, r3
 324 011c 98D9     		bls	.L5
 325              	.LVL36:
 326              	.LBB398:
 327              	.LBB399:
 328              	.LBB400:
 329              	.LBB401:
 330              	.LBB402:
 331              		.loc 3 548 0
 332 011e 2023     		movs	r3, #32
 333              		.syntax unified
 334              	@ 548 "ChibiOS_16.1.4/os/ext/CMSIS/include/core_cmFunc.h" 1
 335 0120 83F31188 		MSR basepri, r3
 336              	@ 0 "" 2
 337              	.LVL37:
 338              		.thumb
 339              		.syntax unified
 340 0124 7CE7     		b	.L32
 341              	.LVL38:
 342              	.L33:
ARM GAS  /var/folders/m4/4md61f0s1_g0rzfghffqnxvr0000gn/T//cc3uZ6EE.s 			page 7


 343              	.LBE402:
 344              	.LBE401:
 345              	.LBE400:
 346              	.LBE399:
 347              	.LBE398:
 348              	.LBB403:
 349              	.LBB397:
 350              	.LBB396:
 351              	.LBB395:
 352              		.loc 1 253 0
 353 0126 0B46     		mov	r3, r1
 354              	.LVL39:
 355 0128 DFE7     		b	.L14
 356              	.LVL40:
 357              	.L43:
 358              	.LBE395:
 359              	.LBE396:
 360              	.LBE397:
 361              	.LBE403:
 362              	.LBB404:
 363              	.LBB405:
 364              	.LBB406:
 365              	.LBB407:
 366              	.LBB408:
 367              	.LBB409:
 368              		.loc 3 548 0
 369 012a 2022     		movs	r2, #32
 370              		.syntax unified
 371              	@ 548 "ChibiOS_16.1.4/os/ext/CMSIS/include/core_cmFunc.h" 1
 372 012c 82F31188 		MSR basepri, r2
 373              	@ 0 "" 2
 374              	.LVL41:
 375              		.thumb
 376              		.syntax unified
 377              	.LBE409:
 378              	.LBE408:
 379              	.LBE407:
 380              	.LBE406:
 381              	.LBE405:
 382              		.loc 1 1325 0
 383 0130 DAF80810 		ldr	r1, [r10, #8]
 384              	.LVL42:
 385              		.loc 1 1326 0
 386 0134 DBF85C20 		ldr	r2, [fp, #92]
 387 0138 0098     		ldr	r0, [sp]
 388              		.loc 1 1325 0
 389 013a 21F00101 		bic	r1, r1, #1
 390              		.loc 1 1326 0
 391 013e 22EA0002 		bic	r2, r2, r0
 392              		.loc 1 1325 0
 393 0142 CAF80810 		str	r1, [r10, #8]
 394              		.loc 1 1326 0
 395 0146 CBF85C20 		str	r2, [fp, #92]
 396              	.LVL43:
 397              	.LBB410:
 398              	.LBB411:
 399              	.LBB412:
ARM GAS  /var/folders/m4/4md61f0s1_g0rzfghffqnxvr0000gn/T//cc3uZ6EE.s 			page 8


 400              	.LBB413:
 401              	.LBB414:
 402              	.LBB415:
 403              		.loc 3 548 0
 404              		.syntax unified
 405              	@ 548 "ChibiOS_16.1.4/os/ext/CMSIS/include/core_cmFunc.h" 1
 406 014a 83F31188 		MSR basepri, r3
 407              	@ 0 "" 2
 408              	.LVL44:
 409              		.thumb
 410              		.syntax unified
 411              	.LBE415:
 412              	.LBE414:
 413              	.LBE413:
 414              	.LBE412:
 415              	.LBE411:
 416              	.LBE410:
 417              	.LBB416:
 418              	.LBB417:
 419              		.loc 1 318 0
 420 014e 0BEB8E03 		add	r3, fp, lr, lsl #2
 421 0152 DB68     		ldr	r3, [r3, #12]
 422 0154 5F69     		ldr	r7, [r3, #20]
 423 0156 7D68     		ldr	r5, [r7, #4]
 424 0158 D7F800C0 		ldr	ip, [r7]
 425 015c AC45     		cmp	ip, r5
 426 015e 47D9     		bls	.L50
 427              		.loc 1 328 0
 428 0160 DBF85000 		ldr	r0, [fp, #80]
 429              		.loc 1 323 0
 430 0164 B3F81090 		ldrh	r9, [r3, #16]
 431              		.loc 1 328 0
 432 0168 00EB4E18 		add	r8, r0, lr, lsl #5
 433              		.loc 1 322 0
 434 016c C5EB0C04 		rsb	r4, r5, ip
 435              		.loc 1 328 0
 436 0170 D8F81839 		ldr	r3, [r8, #2328]
 437 0174 4C45     		cmp	r4, r9
 438 0176 28BF     		it	cs
 439 0178 4C46     		movcs	r4, r9
 440              	.LVL45:
 441 017a 9BB2     		uxth	r3, r3
 442 017c B4EB830F 		cmp	r4, r3, lsl #2
 443 0180 0EF1010E 		add	lr, lr, #1
 444 0184 1FD8     		bhi	.L22
 445 0186 BE68     		ldr	r6, [r7, #8]
 446 0188 00EB0E30 		add	r0, r0, lr, lsl #12
 447              	.L23:
 448              	.LVL46:
 449              	.LBB418:
 450              	.LBB419:
 451              		.loc 1 227 0
 452 018c 3368     		ldr	r3, [r6]
 453 018e 0360     		str	r3, [r0]
 454              		.loc 1 228 0
 455 0190 042C     		cmp	r4, #4
 456 0192 07D9     		bls	.L27
ARM GAS  /var/folders/m4/4md61f0s1_g0rzfghffqnxvr0000gn/T//cc3uZ6EE.s 			page 9


 457 0194 2346     		mov	r3, r4
 458 0196 3246     		mov	r2, r6
 459              	.LVL47:
 460              	.L28:
 461              		.loc 1 231 0
 462 0198 043B     		subs	r3, r3, #4
 463              	.LVL48:
 464              		.loc 1 227 0
 465 019a 52F8041F 		ldr	r1, [r2, #4]!
 466              	.LVL49:
 467 019e 0160     		str	r1, [r0]
 468              		.loc 1 228 0
 469 01a0 042B     		cmp	r3, #4
 470 01a2 F9D8     		bhi	.L28
 471              	.LVL50:
 472              	.L27:
 473              	.LBE419:
 474              	.LBE418:
 475              		.loc 1 341 0
 476 01a4 2544     		add	r5, r5, r4
 477              		.loc 1 337 0
 478 01a6 2644     		add	r6, r6, r4
 479              		.loc 1 318 0
 480 01a8 6545     		cmp	r5, ip
 481              		.loc 1 337 0
 482 01aa BE60     		str	r6, [r7, #8]
 483              		.loc 1 341 0
 484 01ac 7D60     		str	r5, [r7, #4]
 485              		.loc 1 318 0
 486 01ae 21D2     		bcs	.L25
 487              		.loc 1 322 0
 488 01b0 C5EB0C04 		rsb	r4, r5, ip
 489              	.LVL51:
 490              		.loc 1 328 0
 491 01b4 D8F81839 		ldr	r3, [r8, #2328]
 492 01b8 4C45     		cmp	r4, r9
 493 01ba 9BB2     		uxth	r3, r3
 494 01bc 28BF     		it	cs
 495 01be 4C46     		movcs	r4, r9
 496              	.LVL52:
 497 01c0 B4EB830F 		cmp	r4, r3, lsl #2
 498 01c4 E2D9     		bls	.L23
 499              	.L22:
 500              		.loc 1 329 0
 501 01c6 0022     		movs	r2, #0
 502              	.LVL53:
 503              	.L21:
 504              	.LBE417:
 505              	.LBE416:
 506              	.LBB421:
 507              	.LBB422:
 508              	.LBB423:
 509              	.LBB424:
 510              	.LBB425:
 511              		.loc 3 548 0
 512 01c8 2023     		movs	r3, #32
 513              		.syntax unified
ARM GAS  /var/folders/m4/4md61f0s1_g0rzfghffqnxvr0000gn/T//cc3uZ6EE.s 			page 10


 514              	@ 548 "ChibiOS_16.1.4/os/ext/CMSIS/include/core_cmFunc.h" 1
 515 01ca 83F31188 		MSR basepri, r3
 516              	@ 0 "" 2
 517              	.LVL54:
 518              		.thumb
 519              		.syntax unified
 520              	.LBE425:
 521              	.LBE424:
 522              	.LBE423:
 523              	.LBE422:
 524              	.LBE421:
 525              		.loc 1 1332 0
 526 01ce DAF80830 		ldr	r3, [r10, #8]
 527 01d2 43F00103 		orr	r3, r3, #1
 528 01d6 CAF80830 		str	r3, [r10, #8]
 529              		.loc 1 1333 0
 530 01da 2AB9     		cbnz	r2, .L29
 531              		.loc 1 1334 0
 532 01dc DAF83438 		ldr	r3, [r10, #2100]
 533 01e0 009A     		ldr	r2, [sp]
 534 01e2 1A43     		orrs	r2, r2, r3
 535 01e4 CAF83428 		str	r2, [r10, #2100]
 536              	.L29:
 537              	.LVL55:
 538              	.LBB426:
 539              	.LBB427:
 540              	.LBB428:
 541              	.LBB429:
 542              	.LBB430:
 543              	.LBB431:
 544              		.loc 3 548 0
 545 01e8 0023     		movs	r3, #0
 546              		.syntax unified
 547              	@ 548 "ChibiOS_16.1.4/os/ext/CMSIS/include/core_cmFunc.h" 1
 548 01ea 83F31188 		MSR basepri, r3
 549              	@ 0 "" 2
 550              	.LVL56:
 551              		.thumb
 552              		.syntax unified
 553 01ee 8FE7     		b	.L19
 554              	.LVL57:
 555              	.L50:
 556 01f0 0EF1010E 		add	lr, lr, #1
 557              	.L25:
 558              	.LBE431:
 559              	.LBE430:
 560              	.LBE429:
 561              	.LBE428:
 562              	.LBE427:
 563              	.LBE426:
 564              	.LBB432:
 565              	.LBB420:
 566              		.loc 1 319 0
 567 01f4 0122     		movs	r2, #1
 568 01f6 E7E7     		b	.L21
 569              	.L52:
 570              		.align	2
ARM GAS  /var/folders/m4/4md61f0s1_g0rzfghffqnxvr0000gn/T//cc3uZ6EE.s 			page 11


 571              	.L51:
 572 01f8 00000000 		.word	ch
 573 01fc 00000000 		.word	.LC0
 574              	.LBE420:
 575              	.LBE432:
 576              	.LBE404:
 577              	.LBE378:
 578              		.cfi_endproc
 579              	.LFE300:
 580              		.size	usb_lld_pump, .-usb_lld_pump
 581              		.section	.text.usb_lld_init,"ax",%progbits
 582              		.align	2
 583              		.p2align 4,,15
 584              		.global	usb_lld_init
 585              		.thumb
 586              		.thumb_func
 587              		.type	usb_lld_init, %function
 588              	usb_lld_init:
 589              	.LFB284:
 590              		.loc 1 676 0
 591              		.cfi_startproc
 592              		@ args = 0, pretend = 0, frame = 0
 593              		@ frame_needed = 0, uses_anonymous_args = 0
 594 0000 10B5     		push	{r4, lr}
 595              		.cfi_def_cfa_offset 8
 596              		.cfi_offset 4, -8
 597              		.cfi_offset 14, -4
 598              		.loc 1 680 0
 599 0002 064C     		ldr	r4, .L55
 600 0004 2046     		mov	r0, r4
 601 0006 FFF7FEFF 		bl	usbObjectInit
 602              	.LVL58:
 603              		.loc 1 682 0
 604 000a 4FF0A043 		mov	r3, #1342177280
 605              		.loc 1 683 0
 606 000e 044A     		ldr	r2, .L55+4
 607              		.loc 1 682 0
 608 0010 2365     		str	r3, [r4, #80]
 609              		.loc 1 681 0
 610 0012 0023     		movs	r3, #0
 611              		.loc 1 683 0
 612 0014 6265     		str	r2, [r4, #84]
 613              		.loc 1 681 0
 614 0016 2366     		str	r3, [r4, #96]
 615              		.loc 1 686 0
 616 0018 6366     		str	r3, [r4, #100]
 617 001a 10BD     		pop	{r4, pc}
 618              	.L56:
 619              		.align	2
 620              	.L55:
 621 001c 00000000 		.word	.LANCHOR0
 622 0020 00000000 		.word	.LANCHOR1
 623              		.cfi_endproc
 624              	.LFE284:
 625              		.size	usb_lld_init, .-usb_lld_init
 626              		.section	.text.usb_lld_start,"ax",%progbits
 627              		.align	2
ARM GAS  /var/folders/m4/4md61f0s1_g0rzfghffqnxvr0000gn/T//cc3uZ6EE.s 			page 12


 628              		.p2align 4,,15
 629              		.global	usb_lld_start
 630              		.thumb
 631              		.thumb_func
 632              		.type	usb_lld_start, %function
 633              	usb_lld_start:
 634              	.LFB285:
 635              		.loc 1 738 0
 636              		.cfi_startproc
 637              		@ args = 0, pretend = 0, frame = 0
 638              		@ frame_needed = 0, uses_anonymous_args = 0
 639              	.LVL59:
 640              		.loc 1 741 0
 641 0000 0378     		ldrb	r3, [r0]	@ zero_extendqisi2
 642 0002 012B     		cmp	r3, #1
 643 0004 00D0     		beq	.L72
 644 0006 7047     		bx	lr
 645              	.L72:
 646              		.loc 1 738 0
 647 0008 F0B5     		push	{r4, r5, r6, r7, lr}
 648              		.cfi_def_cfa_offset 20
 649              		.cfi_offset 4, -20
 650              		.cfi_offset 5, -16
 651              		.cfi_offset 6, -12
 652              		.cfi_offset 7, -8
 653              		.cfi_offset 14, -4
 654              		.loc 1 745 0
 655 000a 3F4B     		ldr	r3, .L76
 656              		.loc 1 739 0
 657 000c 066D     		ldr	r6, [r0, #80]
 658              		.loc 1 745 0
 659 000e 9842     		cmp	r0, r3
 660              		.loc 1 738 0
 661 0010 83B0     		sub	sp, sp, #12
 662              		.cfi_def_cfa_offset 32
 663 0012 0546     		mov	r5, r0
 664              		.loc 1 739 0
 665 0014 18BF     		it	ne
 666 0016 3446     		movne	r4, r6
 667              		.loc 1 745 0
 668 0018 50D0     		beq	.L73
 669              	.LVL60:
 670              	.L59:
 671              		.loc 1 810 0
 672 001a 0023     		movs	r3, #0
 673              		.loc 1 816 0
 674 001c C021     		movs	r1, #192
 675              		.loc 1 831 0
 676 001e 4FF43412 		mov	r2, #2949120
 677              		.loc 1 810 0
 678 0022 EB65     		str	r3, [r5, #92]
 679              	.LBB443:
 680              	.LBB444:
 681              	.LBB445:
 682              	.LBB446:
 683              		.loc 4 573 0
 684 0024 2020     		movs	r0, #32
ARM GAS  /var/folders/m4/4md61f0s1_g0rzfghffqnxvr0000gn/T//cc3uZ6EE.s 			page 13


 685              	.LBE446:
 686              	.LBE445:
 687              	.LBE444:
 688              	.LBE443:
 689              		.loc 1 813 0
 690 0026 C6F8003E 		str	r3, [r6, #3584]
 691              		.loc 1 816 0
 692 002a 3160     		str	r1, [r6]
 693              		.loc 1 831 0
 694 002c B263     		str	r2, [r6, #56]
 695              	.LVL61:
 696              	.LBB452:
 697              	.LBB451:
 698              	.LBB448:
 699              	.LBB447:
 700              		.loc 4 573 0
 701 002e FFF7FEFF 		bl	chSysPolledDelayX
 702              	.LVL62:
 703              	.LBE447:
 704              	.LBE448:
 705              		.loc 1 134 0
 706 0032 0123     		movs	r3, #1
 707 0034 2361     		str	r3, [r4, #16]
 708              	.L60:
 709              		.loc 1 135 0
 710 0036 2369     		ldr	r3, [r4, #16]
 711 0038 DB07     		lsls	r3, r3, #31
 712 003a FCD4     		bmi	.L60
 713              	.LVL63:
 714              	.LBB449:
 715              	.LBB450:
 716              		.loc 4 573 0
 717 003c 1220     		movs	r0, #18
 718 003e FFF7FEFF 		bl	chSysPolledDelayX
 719              	.LVL64:
 720              	.L61:
 721              	.LBE450:
 722              	.LBE449:
 723              		.loc 1 141 0
 724 0042 2369     		ldr	r3, [r4, #16]
 725 0044 002B     		cmp	r3, #0
 726 0046 FCDA     		bge	.L61
 727              	.LBE451:
 728              	.LBE452:
 729              	.LBB453:
 730              	.LBB454:
 731              		.loc 1 149 0
 732 0048 6B6D     		ldr	r3, [r5, #84]
 733 004a 2F6D     		ldr	r7, [r5, #80]
 734              	.LVL65:
 735 004c D3F808E0 		ldr	lr, [r3, #8]
 736              	.LBE454:
 737              	.LBE453:
 738              		.loc 1 838 0
 739 0050 0023     		movs	r3, #0
 740              	.LBB458:
 741              	.LBB455:
ARM GAS  /var/folders/m4/4md61f0s1_g0rzfghffqnxvr0000gn/T//cc3uZ6EE.s 			page 14


 742              		.loc 1 149 0
 743 0052 1A46     		mov	r2, r3
 744              	.LBE455:
 745              	.LBE458:
 746              		.loc 1 838 0
 747 0054 B360     		str	r3, [r6, #8]
 748              	.LBB459:
 749              	.LBB456:
 750              		.loc 1 150 0
 751 0056 1946     		mov	r1, r3
 752              		.loc 1 152 0
 753 0058 4FF0FF34 		mov	r4, #-1
 754              	.LVL66:
 755              	.L62:
 756 005c 07EB4213 		add	r3, r7, r2, lsl #5
 757              		.loc 1 149 0
 758 0060 0132     		adds	r2, r2, #1
 759              	.LVL67:
 760 0062 7245     		cmp	r2, lr
 761              		.loc 1 150 0
 762 0064 C3F80019 		str	r1, [r3, #2304]
 763 0068 4FF00000 		mov	r0, #0
 764              		.loc 1 151 0
 765 006c C3F81019 		str	r1, [r3, #2320]
 766              		.loc 1 152 0
 767 0070 C3F80849 		str	r4, [r3, #2312]
 768              		.loc 1 154 0
 769 0074 C3F8001B 		str	r1, [r3, #2816]
 770              		.loc 1 155 0
 771 0078 C3F8101B 		str	r1, [r3, #2832]
 772              		.loc 1 156 0
 773 007c C3F8084B 		str	r4, [r3, #2824]
 774              		.loc 1 149 0
 775 0080 ECD9     		bls	.L62
 776              	.LBE456:
 777              	.LBE459:
 778              		.loc 1 848 0
 779 0082 6B68     		ldr	r3, [r5, #4]
 780 0084 DB68     		ldr	r3, [r3, #12]
 781              	.LBB460:
 782              	.LBB457:
 783              		.loc 1 158 0
 784 0086 4FF00112 		mov	r2, #65537
 785              	.LVL68:
 786 008a C7F81C28 		str	r2, [r7, #2076]
 787              	.LVL69:
 788              	.LBE457:
 789              	.LBE460:
 790              		.loc 1 845 0
 791 008e C6F81008 		str	r0, [r6, #2064]
 792              		.loc 1 846 0
 793 0092 C6F81408 		str	r0, [r6, #2068]
 794              		.loc 1 847 0
 795 0096 C6F81C08 		str	r0, [r6, #2076]
 796              		.loc 1 848 0
 797 009a 63B1     		cbz	r3, .L74
 798              		.loc 1 853 0
ARM GAS  /var/folders/m4/4md61f0s1_g0rzfghffqnxvr0000gn/T//cc3uZ6EE.s 			page 15


 799 009c 1B4B     		ldr	r3, .L76+4
 800 009e B361     		str	r3, [r6, #24]
 801              	.L64:
 802              		.loc 1 863 0
 803 00a0 6B6E     		ldr	r3, [r5, #100]
 804              		.loc 1 859 0
 805 00a2 4FF0FF32 		mov	r2, #-1
 806 00a6 7261     		str	r2, [r6, #20]
 807              		.loc 1 863 0
 808 00a8 F3B1     		cbz	r3, .L75
 809              	.L65:
 810              		.loc 1 873 0
 811 00aa B368     		ldr	r3, [r6, #8]
 812 00ac 43F00103 		orr	r3, r3, #1
 813 00b0 B360     		str	r3, [r6, #8]
 814              		.loc 1 875 0
 815 00b2 03B0     		add	sp, sp, #12
 816              		.cfi_remember_state
 817              		.cfi_def_cfa_offset 20
 818              		@ sp needed
 819 00b4 F0BD     		pop	{r4, r5, r6, r7, pc}
 820              	.LVL70:
 821              	.L74:
 822              		.cfi_restore_state
 823              		.loc 1 849 0
 824 00b6 164B     		ldr	r3, .L76+8
 825 00b8 B361     		str	r3, [r6, #24]
 826 00ba F1E7     		b	.L64
 827              	.LVL71:
 828              	.L73:
 829              		.loc 1 747 0
 830 00bc 154B     		ldr	r3, .L76+12
 831 00be 5A6B     		ldr	r2, [r3, #52]
 832 00c0 42F08002 		orr	r2, r2, #128
 833 00c4 5A63     		str	r2, [r3, #52]
 834              	.LVL72:
 835              		.loc 1 748 0
 836 00c6 5A69     		ldr	r2, [r3, #20]
 837 00c8 0020     		movs	r0, #0
 838              	.LVL73:
 839 00ca 42F08002 		orr	r2, r2, #128
 840 00ce 5A61     		str	r2, [r3, #20]
 841              		.loc 1 751 0
 842 00d0 0E21     		movs	r1, #14
 843              		.loc 1 748 0
 844 00d2 5861     		str	r0, [r3, #20]
 845              		.loc 1 751 0
 846 00d4 4320     		movs	r0, #67
 847 00d6 FFF7FEFF 		bl	nvicEnableVector
 848              	.LVL74:
 849              		.loc 1 756 0
 850 00da 0F4A     		ldr	r2, .L76+16
 851              		.loc 1 760 0
 852 00dc 0F4B     		ldr	r3, .L76+20
 853              		.loc 1 756 0
 854 00de F260     		str	r2, [r6, #12]
 855 00e0 2C6D     		ldr	r4, [r5, #80]
ARM GAS  /var/folders/m4/4md61f0s1_g0rzfghffqnxvr0000gn/T//cc3uZ6EE.s 			page 16


 856              		.loc 1 760 0
 857 00e2 C6F80038 		str	r3, [r6, #2048]
 858 00e6 98E7     		b	.L59
 859              	.LVL75:
 860              	.L75:
 861              		.loc 1 864 0
 862 00e8 0D4B     		ldr	r3, .L76+24
 863 00ea 0095     		str	r5, [sp]
 864 00ec 0222     		movs	r2, #2
 865 00ee 4FF40671 		mov	r1, #536
 866 00f2 05F16800 		add	r0, r5, #104
 867 00f6 FFF7FEFF 		bl	chThdCreateI
 868              	.LVL76:
 869 00fa 6866     		str	r0, [r5, #100]
 870              	.LVL77:
 871              	.LBB461:
 872              	.LBB462:
 873              		.file 5 "ChibiOS_16.1.4/os/rt/include/chthreads.h"
 874              		.loc 5 249 0
 875 00fc FFF7FEFF 		bl	chSchReadyI
 876              	.LVL78:
 877              	.LBE462:
 878              	.LBE461:
 879              		.loc 1 868 0
 880 0100 FFF7FEFF 		bl	chSchRescheduleS
 881              	.LVL79:
 882 0104 D1E7     		b	.L65
 883              	.L77:
 884 0106 00BF     		.align	2
 885              	.L76:
 886 0108 00000000 		.word	.LANCHOR0
 887 010c 083C30C0 		.word	-1070580728
 888 0110 003C30C0 		.word	-1070580736
 889 0114 00380240 		.word	1073887232
 890 0118 40140040 		.word	1073747008
 891 011c 03002002 		.word	35651587
 892 0120 00000000 		.word	usb_lld_pump
 893              		.cfi_endproc
 894              	.LFE285:
 895              		.size	usb_lld_start, .-usb_lld_start
 896              		.section	.text.usb_lld_stop,"ax",%progbits
 897              		.align	2
 898              		.p2align 4,,15
 899              		.global	usb_lld_stop
 900              		.thumb
 901              		.thumb_func
 902              		.type	usb_lld_stop, %function
 903              	usb_lld_stop:
 904              	.LFB286:
 905              		.loc 1 884 0
 906              		.cfi_startproc
 907              		@ args = 0, pretend = 0, frame = 0
 908              		@ frame_needed = 0, uses_anonymous_args = 0
 909              	.LVL80:
 910 0000 F8B5     		push	{r3, r4, r5, r6, r7, lr}
 911              		.cfi_def_cfa_offset 24
 912              		.cfi_offset 3, -24
ARM GAS  /var/folders/m4/4md61f0s1_g0rzfghffqnxvr0000gn/T//cc3uZ6EE.s 			page 17


 913              		.cfi_offset 4, -20
 914              		.cfi_offset 5, -16
 915              		.cfi_offset 6, -12
 916              		.cfi_offset 7, -8
 917              		.cfi_offset 14, -4
 918              		.loc 1 888 0
 919 0002 0378     		ldrb	r3, [r0]	@ zero_extendqisi2
 920 0004 012B     		cmp	r3, #1
 921 0006 25D0     		beq	.L78
 922              	.LBB463:
 923              	.LBB464:
 924              		.loc 1 149 0
 925 0008 436D     		ldr	r3, [r0, #84]
 926              	.LBE464:
 927              	.LBE463:
 928              		.loc 1 885 0
 929 000a 056D     		ldr	r5, [r0, #80]
 930              	.LVL81:
 931              	.LBB468:
 932              	.LBB465:
 933              		.loc 1 149 0
 934 000c 9F68     		ldr	r7, [r3, #8]
 935 000e 0022     		movs	r2, #0
 936              		.loc 1 150 0
 937 0010 1146     		mov	r1, r2
 938              		.loc 1 152 0
 939 0012 4FF0FF34 		mov	r4, #-1
 940              	.LVL82:
 941              	.L81:
 942 0016 05EB4213 		add	r3, r5, r2, lsl #5
 943              		.loc 1 149 0
 944 001a 0132     		adds	r2, r2, #1
 945              	.LVL83:
 946 001c BA42     		cmp	r2, r7
 947              		.loc 1 150 0
 948 001e C3F80019 		str	r1, [r3, #2304]
 949 0022 4FF00006 		mov	r6, #0
 950              		.loc 1 151 0
 951 0026 C3F81019 		str	r1, [r3, #2320]
 952              		.loc 1 152 0
 953 002a C3F80849 		str	r4, [r3, #2312]
 954              		.loc 1 154 0
 955 002e C3F8001B 		str	r1, [r3, #2816]
 956              		.loc 1 155 0
 957 0032 C3F8101B 		str	r1, [r3, #2832]
 958              		.loc 1 156 0
 959 0036 C3F8084B 		str	r4, [r3, #2824]
 960              		.loc 1 149 0
 961 003a ECD9     		bls	.L81
 962              	.LBE465:
 963              	.LBE468:
 964              		.loc 1 901 0
 965 003c 0A4B     		ldr	r3, .L86
 966              	.LBB469:
 967              	.LBB466:
 968              		.loc 1 158 0
 969 003e 4FF00112 		mov	r2, #65537
ARM GAS  /var/folders/m4/4md61f0s1_g0rzfghffqnxvr0000gn/T//cc3uZ6EE.s 			page 18


 970              	.LVL84:
 971              	.LBE466:
 972              	.LBE469:
 973              		.loc 1 901 0
 974 0042 9842     		cmp	r0, r3
 975              	.LBB470:
 976              	.LBB467:
 977              		.loc 1 158 0
 978 0044 C5F81C28 		str	r2, [r5, #2076]
 979              	.LBE467:
 980              	.LBE470:
 981              		.loc 1 894 0
 982 0048 C665     		str	r6, [r0, #92]
 983              		.loc 1 896 0
 984 004a C5F81C68 		str	r6, [r5, #2076]
 985              		.loc 1 897 0
 986 004e AE60     		str	r6, [r5, #8]
 987              		.loc 1 898 0
 988 0050 AE63     		str	r6, [r5, #56]
 989              		.loc 1 901 0
 990 0052 00D0     		beq	.L85
 991              	.LVL85:
 992              	.L78:
 993 0054 F8BD     		pop	{r3, r4, r5, r6, r7, pc}
 994              	.LVL86:
 995              	.L85:
 996              		.loc 1 902 0
 997 0056 4320     		movs	r0, #67
 998              	.LVL87:
 999 0058 FFF7FEFF 		bl	nvicDisableVector
 1000              	.LVL88:
 1001              		.loc 1 903 0
 1002 005c 034A     		ldr	r2, .L86+4
 1003 005e 536B     		ldr	r3, [r2, #52]
 1004 0060 23F08003 		bic	r3, r3, #128
 1005 0064 5363     		str	r3, [r2, #52]
 1006              		.loc 1 917 0
 1007 0066 F5E7     		b	.L78
 1008              	.L87:
 1009              		.align	2
 1010              	.L86:
 1011 0068 00000000 		.word	.LANCHOR0
 1012 006c 00380240 		.word	1073887232
 1013              		.cfi_endproc
 1014              	.LFE286:
 1015              		.size	usb_lld_stop, .-usb_lld_stop
 1016              		.section	.text.usb_lld_reset,"ax",%progbits
 1017              		.align	2
 1018              		.p2align 4,,15
 1019              		.global	usb_lld_reset
 1020              		.thumb
 1021              		.thumb_func
 1022              		.type	usb_lld_reset, %function
 1023              	usb_lld_reset:
 1024              	.LFB287:
 1025              		.loc 1 926 0
 1026              		.cfi_startproc
ARM GAS  /var/folders/m4/4md61f0s1_g0rzfghffqnxvr0000gn/T//cc3uZ6EE.s 			page 19


 1027              		@ args = 0, pretend = 0, frame = 0
 1028              		@ frame_needed = 0, uses_anonymous_args = 0
 1029              	.LVL89:
 1030 0000 F8B5     		push	{r3, r4, r5, r6, r7, lr}
 1031              		.cfi_def_cfa_offset 24
 1032              		.cfi_offset 3, -24
 1033              		.cfi_offset 4, -20
 1034              		.cfi_offset 5, -16
 1035              		.cfi_offset 6, -12
 1036              		.cfi_offset 7, -8
 1037              		.cfi_offset 14, -4
 1038              		.loc 1 928 0
 1039 0002 056D     		ldr	r5, [r0, #80]
 1040              	.LVL90:
 1041              	.LBB471:
 1042              	.LBB472:
 1043              		.loc 1 174 0
 1044 0004 2023     		movs	r3, #32
 1045              	.LBE472:
 1046              	.LBE471:
 1047              		.loc 1 926 0
 1048 0006 0746     		mov	r7, r0
 1049              	.LVL91:
 1050              	.LBB476:
 1051              	.LBB475:
 1052              		.loc 1 174 0
 1053 0008 2B61     		str	r3, [r5, #16]
 1054              	.L89:
 1055              		.loc 1 175 0
 1056 000a 2B69     		ldr	r3, [r5, #16]
 1057 000c 13F02004 		ands	r4, r3, #32
 1058 0010 FBD1     		bne	.L89
 1059              	.LVL92:
 1060              	.LBB473:
 1061              	.LBB474:
 1062              		.loc 4 573 0
 1063 0012 1220     		movs	r0, #18
 1064              	.LVL93:
 1065 0014 FFF7FEFF 		bl	chSysPolledDelayX
 1066              	.LVL94:
 1067              	.LBE474:
 1068              	.LBE473:
 1069              	.LBE475:
 1070              	.LBE476:
 1071              		.loc 1 938 0
 1072 0018 D7F854E0 		ldr	lr, [r7, #84]
 1073              		.loc 1 934 0
 1074 001c C5F83448 		str	r4, [r5, #2100]
 1075              		.loc 1 935 0
 1076 0020 4FF00112 		mov	r2, #65537
 1077              		.loc 1 938 0
 1078 0024 DEF80860 		ldr	r6, [lr, #8]
 1079              		.loc 1 935 0
 1080 0028 C5F81C28 		str	r2, [r5, #2076]
 1081              	.LVL95:
 1082              		.loc 1 938 0
 1083 002c 2346     		mov	r3, r4
ARM GAS  /var/folders/m4/4md61f0s1_g0rzfghffqnxvr0000gn/T//cc3uZ6EE.s 			page 20


 1084              		.loc 1 939 0
 1085 002e 4FF00060 		mov	r0, #134217728
 1086              		.loc 1 941 0
 1087 0032 4FF0FF31 		mov	r1, #-1
 1088              	.LVL96:
 1089              	.L90:
 1090 0036 05EB4312 		add	r2, r5, r3, lsl #5
 1091              		.loc 1 938 0 discriminator 3
 1092 003a 0133     		adds	r3, r3, #1
 1093              	.LVL97:
 1094 003c B342     		cmp	r3, r6
 1095              		.loc 1 939 0 discriminator 3
 1096 003e C2F80009 		str	r0, [r2, #2304]
 1097              		.loc 1 940 0 discriminator 3
 1098 0042 C2F8000B 		str	r0, [r2, #2816]
 1099              		.loc 1 941 0 discriminator 3
 1100 0046 C2F80819 		str	r1, [r2, #2312]
 1101              		.loc 1 942 0 discriminator 3
 1102 004a C2F8081B 		str	r1, [r2, #2824]
 1103              		.loc 1 938 0 discriminator 3
 1104 004e F2D9     		bls	.L90
 1105              	.LVL98:
 1106              	.LBB477:
 1107              	.LBB478:
 1108              		.loc 1 190 0
 1109 0050 DEF80030 		ldr	r3, [lr]
 1110              	.LVL99:
 1111 0054 BB65     		str	r3, [r7, #88]
 1112              	.LBE478:
 1113              	.LBE477:
 1114              		.loc 1 949 0
 1115 0056 DEF80030 		ldr	r3, [lr]
 1116 005a 3A6D     		ldr	r2, [r7, #80]
 1117              	.LVL100:
 1118 005c 6B62     		str	r3, [r5, #36]
 1119              	.LBB479:
 1120              	.LBB480:
 1121              		.loc 1 164 0
 1122 005e 1023     		movs	r3, #16
 1123 0060 1361     		str	r3, [r2, #16]
 1124              	.L91:
 1125              		.loc 1 165 0
 1126 0062 1369     		ldr	r3, [r2, #16]
 1127 0064 13F01004 		ands	r4, r3, #16
 1128 0068 FBD1     		bne	.L91
 1129              	.LVL101:
 1130              	.LBB481:
 1131              	.LBB482:
 1132              		.loc 4 573 0
 1133 006a 1220     		movs	r0, #18
 1134 006c FFF7FEFF 		bl	chSysPolledDelayX
 1135              	.LVL102:
 1136              	.LBE482:
 1137              	.LBE481:
 1138              	.LBE480:
 1139              	.LBE479:
 1140              		.loc 1 953 0
ARM GAS  /var/folders/m4/4md61f0s1_g0rzfghffqnxvr0000gn/T//cc3uZ6EE.s 			page 21


 1141 0070 D5F80038 		ldr	r3, [r5, #2048]
 1142              		.loc 1 963 0
 1143 0074 104A     		ldr	r2, .L96
 1144              		.loc 1 961 0
 1145 0076 1148     		ldr	r0, .L96+4
 1146              		.loc 1 953 0
 1147 0078 23F4FE63 		bic	r3, r3, #2032
 1148 007c C5F80038 		str	r3, [r5, #2048]
 1149              		.loc 1 956 0
 1150 0080 AB69     		ldr	r3, [r5, #24]
 1151 0082 43F44023 		orr	r3, r3, #786432
 1152 0086 43F01003 		orr	r3, r3, #16
 1153              		.loc 1 957 0
 1154 008a 0921     		movs	r1, #9
 1155              		.loc 1 956 0
 1156 008c AB61     		str	r3, [r5, #24]
 1157              		.loc 1 957 0
 1158 008e C5F81018 		str	r1, [r5, #2064]
 1159              		.loc 1 958 0
 1160 0092 C5F81418 		str	r1, [r5, #2068]
 1161              		.loc 1 961 0
 1162 0096 F860     		str	r0, [r7, #12]
 1163              		.loc 1 962 0
 1164 0098 C5F8104B 		str	r4, [r5, #2832]
 1165              		.loc 1 963 0
 1166 009c C5F8002B 		str	r2, [r5, #2816]
 1167              		.loc 1 965 0
 1168 00a0 C5F81049 		str	r4, [r5, #2320]
 1169              		.loc 1 966 0
 1170 00a4 C5F80029 		str	r2, [r5, #2304]
 1171              	.LVL103:
 1172              	.LBB483:
 1173              	.LBB484:
 1174              		.loc 1 204 0
 1175 00a8 BB6D     		ldr	r3, [r7, #88]
 1176              	.LVL104:
 1177              		.loc 1 205 0
 1178 00aa 03F11002 		add	r2, r3, #16
 1179              	.LBE484:
 1180              	.LBE483:
 1181              		.loc 1 968 0
 1182 00ae 43F48013 		orr	r3, r3, #1048576
 1183              	.LVL105:
 1184              	.LBB486:
 1185              	.LBB485:
 1186              		.loc 1 205 0
 1187 00b2 BA65     		str	r2, [r7, #88]
 1188              	.LVL106:
 1189              	.LBE485:
 1190              	.LBE486:
 1191              		.loc 1 968 0
 1192 00b4 AB62     		str	r3, [r5, #40]
 1193 00b6 F8BD     		pop	{r3, r4, r5, r6, r7, pc}
 1194              	.LVL107:
 1195              	.L97:
 1196              		.align	2
 1197              	.L96:
ARM GAS  /var/folders/m4/4md61f0s1_g0rzfghffqnxvr0000gn/T//cc3uZ6EE.s 			page 22


 1198 00b8 40800010 		.word	268468288
 1199 00bc 00000000 		.word	.LANCHOR2
 1200              		.cfi_endproc
 1201              	.LFE287:
 1202              		.size	usb_lld_reset, .-usb_lld_reset
 1203              		.section	.text.usb_lld_set_address,"ax",%progbits
 1204              		.align	2
 1205              		.p2align 4,,15
 1206              		.global	usb_lld_set_address
 1207              		.thumb
 1208              		.thumb_func
 1209              		.type	usb_lld_set_address, %function
 1210              	usb_lld_set_address:
 1211              	.LFB288:
 1212              		.loc 1 980 0
 1213              		.cfi_startproc
 1214              		@ args = 0, pretend = 0, frame = 0
 1215              		@ frame_needed = 0, uses_anonymous_args = 0
 1216              		@ link register save eliminated.
 1217              	.LVL108:
 1218              		.loc 1 981 0
 1219 0000 026D     		ldr	r2, [r0, #80]
 1220              	.LVL109:
 1221              		.loc 1 983 0
 1222 0002 90F84E10 		ldrb	r1, [r0, #78]	@ zero_extendqisi2
 1223 0006 D2F80038 		ldr	r3, [r2, #2048]
 1224 000a 23F4FE63 		bic	r3, r3, #2032
 1225 000e 43EA0113 		orr	r3, r3, r1, lsl #4
 1226 0012 C2F80038 		str	r3, [r2, #2048]
 1227 0016 7047     		bx	lr
 1228              		.cfi_endproc
 1229              	.LFE288:
 1230              		.size	usb_lld_set_address, .-usb_lld_set_address
 1231              		.section	.text.usb_lld_init_endpoint,"ax",%progbits
 1232              		.align	2
 1233              		.p2align 4,,15
 1234              		.global	usb_lld_init_endpoint
 1235              		.thumb
 1236              		.thumb_func
 1237              		.type	usb_lld_init_endpoint, %function
 1238              	usb_lld_init_endpoint:
 1239              	.LFB289:
 1240              		.loc 1 994 0
 1241              		.cfi_startproc
 1242              		@ args = 0, pretend = 0, frame = 0
 1243              		@ frame_needed = 0, uses_anonymous_args = 0
 1244              	.LVL110:
 1245 0000 2DE9F843 		push	{r3, r4, r5, r6, r7, r8, r9, lr}
 1246              		.cfi_def_cfa_offset 32
 1247              		.cfi_offset 3, -32
 1248              		.cfi_offset 4, -28
 1249              		.cfi_offset 5, -24
 1250              		.cfi_offset 6, -20
 1251              		.cfi_offset 7, -16
 1252              		.cfi_offset 8, -12
 1253              		.cfi_offset 9, -8
 1254              		.cfi_offset 14, -4
ARM GAS  /var/folders/m4/4md61f0s1_g0rzfghffqnxvr0000gn/T//cc3uZ6EE.s 			page 23


 1255 0004 0FFA81F8 		sxth	r8, r1
 1256 0008 00EB8807 		add	r7, r0, r8, lsl #2
 1257              		.loc 1 994 0
 1258 000c 0D46     		mov	r5, r1
 1259              		.loc 1 999 0
 1260 000e FB68     		ldr	r3, [r7, #12]
 1261 0010 1A68     		ldr	r2, [r3]
 1262 0012 02F00302 		and	r2, r2, #3
 1263 0016 022A     		cmp	r2, #2
 1264 0018 5ED0     		beq	.L101
 1265 001a 032A     		cmp	r2, #3
 1266 001c 5ED0     		beq	.L102
 1267              		.loc 1 1001 0
 1268 001e 4C4E     		ldr	r6, .L115
 1269 0020 4C49     		ldr	r1, .L115+4
 1270              	.LVL111:
 1271 0022 012A     		cmp	r2, #1
 1272 0024 18BF     		it	ne
 1273 0026 0E46     		movne	r6, r1
 1274              	.L103:
 1275              		.loc 1 996 0
 1276 0028 046D     		ldr	r4, [r0, #80]
 1277              	.LVL112:
 1278              		.loc 1 1018 0
 1279 002a 9969     		ldr	r1, [r3, #24]
 1280              		.loc 1 1017 0
 1281 002c 6A01     		lsls	r2, r5, #5
 1282 002e 04EB020E 		add	lr, r4, r2
 1283 0032 4FF0000C 		mov	ip, #0
 1284 0036 CEF810CB 		str	ip, [lr, #2832]
 1285              	.LVL113:
 1286              		.loc 1 1018 0
 1287 003a 0029     		cmp	r1, #0
 1288 003c 73D0     		beq	.L104
 1289              		.loc 1 1019 0
 1290 003e B3F812E0 		ldrh	lr, [r3, #18]
 1291 0042 05F15801 		add	r1, r5, #88
 1292 0046 4901     		lsls	r1, r1, #5
 1293 0048 4EEA060E 		orr	lr, lr, r6
 1294 004c 44F801E0 		str	lr, [r4, r1]
 1295              		.loc 1 1020 0
 1296 0050 05F1100C 		add	ip, r5, #16
 1297 0054 D4F81C18 		ldr	r1, [r4, #2076]
 1298 0058 4FF0010E 		mov	lr, #1
 1299 005c 0EFA0CFE 		lsl	lr, lr, ip
 1300 0060 4EEA0101 		orr	r1, lr, r1
 1301 0064 C4F81C18 		str	r1, [r4, #2076]
 1302              	.L105:
 1303              		.loc 1 1028 0
 1304 0068 2244     		add	r2, r2, r4
 1305              		.loc 1 1029 0
 1306 006a 5969     		ldr	r1, [r3, #20]
 1307              		.loc 1 1028 0
 1308 006c 4FF0000E 		mov	lr, #0
 1309 0070 C2F810E9 		str	lr, [r2, #2320]
 1310              		.loc 1 1029 0
 1311 0074 0029     		cmp	r1, #0
ARM GAS  /var/folders/m4/4md61f0s1_g0rzfghffqnxvr0000gn/T//cc3uZ6EE.s 			page 24


 1312 0076 33D0     		beq	.L106
 1313              		.loc 1 1032 0
 1314 0078 998B     		ldrh	r1, [r3, #28]
 1315              		.loc 1 1031 0
 1316 007a 1A8A     		ldrh	r2, [r3, #16]
 1317              		.loc 1 1032 0
 1318 007c 0129     		cmp	r1, #1
 1319              		.loc 1 1031 0
 1320 007e 4FEA9203 		lsr	r3, r2, #2
 1321              	.LVL114:
 1322              	.LBB487:
 1323              	.LBB488:
 1324              		.loc 1 204 0
 1325 0082 826D     		ldr	r2, [r0, #88]
 1326              	.LBE488:
 1327              	.LBE487:
 1328              		.loc 1 1033 0
 1329 0084 88BF     		it	hi
 1330 0086 4B43     		mulhi	r3, r1, r3
 1331              	.LVL115:
 1332              		.loc 1 1034 0
 1333 0088 05F13F01 		add	r1, r5, #63
 1334              	.LBB491:
 1335              	.LBB489:
 1336              		.loc 1 205 0
 1337 008c 03EB020E 		add	lr, r3, r2
 1338              	.LBE489:
 1339              	.LBE491:
 1340              		.loc 1 1034 0
 1341 0090 04EB8101 		add	r1, r4, r1, lsl #2
 1342 0094 42EA0343 		orr	r3, r2, r3, lsl #16
 1343              	.LVL116:
 1344              	.LBB492:
 1345              	.LBB493:
 1346              		.loc 1 174 0
 1347 0098 AA01     		lsls	r2, r5, #6
 1348              	.LVL117:
 1349 009a 42F02002 		orr	r2, r2, #32
 1350              	.LBE493:
 1351              	.LBE492:
 1352              	.LBB497:
 1353              	.LBB490:
 1354              		.loc 1 205 0
 1355 009e C0F858E0 		str	lr, [r0, #88]
 1356              	.LVL118:
 1357              	.LBE490:
 1358              	.LBE497:
 1359              		.loc 1 1034 0
 1360 00a2 4B60     		str	r3, [r1, #4]
 1361              	.LVL119:
 1362              	.LBB498:
 1363              	.LBB496:
 1364              		.loc 1 174 0
 1365 00a4 2261     		str	r2, [r4, #16]
 1366              	.LVL120:
 1367              	.L108:
 1368              		.loc 1 175 0
ARM GAS  /var/folders/m4/4md61f0s1_g0rzfghffqnxvr0000gn/T//cc3uZ6EE.s 			page 25


 1369 00a6 2369     		ldr	r3, [r4, #16]
 1370 00a8 9A06     		lsls	r2, r3, #26
 1371 00aa FCD4     		bmi	.L108
 1372              	.LVL121:
 1373              	.LBB494:
 1374              	.LBB495:
 1375              		.loc 4 573 0
 1376 00ac 1220     		movs	r0, #18
 1377              	.LVL122:
 1378 00ae FFF7FEFF 		bl	chSysPolledDelayX
 1379              	.LVL123:
 1380              	.LBE495:
 1381              	.LBE494:
 1382              	.LBE496:
 1383              	.LBE498:
 1384              		.loc 1 1040 0
 1385 00b2 FB68     		ldr	r3, [r7, #12]
 1386              		.loc 1 1039 0
 1387 00b4 1A8A     		ldrh	r2, [r3, #16]
 1388              		.loc 1 1038 0
 1389 00b6 05F14803 		add	r3, r5, #72
 1390              		.loc 1 1039 0
 1391 00ba 42EA8552 		orr	r2, r2, r5, lsl #22
 1392              		.loc 1 1038 0
 1393 00be 5B01     		lsls	r3, r3, #5
 1394              		.loc 1 1039 0
 1395 00c0 3243     		orrs	r2, r2, r6
 1396              		.loc 1 1038 0
 1397 00c2 E250     		str	r2, [r4, r3]
 1398              		.loc 1 1041 0
 1399 00c4 0121     		movs	r1, #1
 1400 00c6 D4F81C38 		ldr	r3, [r4, #2076]
 1401 00ca 01FA05F5 		lsl	r5, r1, r5
 1402 00ce 1D43     		orrs	r5, r5, r3
 1403 00d0 C4F81C58 		str	r5, [r4, #2076]
 1404 00d4 BDE8F883 		pop	{r3, r4, r5, r6, r7, r8, r9, pc}
 1405              	.LVL124:
 1406              	.L101:
 1407              		.loc 1 1007 0
 1408 00d8 1F4E     		ldr	r6, .L115+8
 1409              		.loc 1 1008 0
 1410 00da A5E7     		b	.L103
 1411              	.LVL125:
 1412              	.L102:
 1413              		.loc 1 1010 0
 1414 00dc 1F4E     		ldr	r6, .L115+12
 1415              		.loc 1 1011 0
 1416 00de A3E7     		b	.L103
 1417              	.LVL126:
 1418              	.L106:
 1419              		.loc 1 1044 0
 1420 00e0 05F13F02 		add	r2, r5, #63
 1421 00e4 04EB8202 		add	r2, r4, r2, lsl #2
 1422              	.LBB499:
 1423              	.LBB500:
 1424              		.loc 1 174 0
 1425 00e8 AB01     		lsls	r3, r5, #6
ARM GAS  /var/folders/m4/4md61f0s1_g0rzfghffqnxvr0000gn/T//cc3uZ6EE.s 			page 26


 1426              	.LBE500:
 1427              	.LBE499:
 1428              		.loc 1 1044 0
 1429 00ea 1D49     		ldr	r1, .L115+16
 1430 00ec 5160     		str	r1, [r2, #4]
 1431              	.LVL127:
 1432              	.LBB504:
 1433              	.LBB503:
 1434              		.loc 1 174 0
 1435 00ee 43F02003 		orr	r3, r3, #32
 1436 00f2 2361     		str	r3, [r4, #16]
 1437              	.LVL128:
 1438              	.L110:
 1439              		.loc 1 175 0
 1440 00f4 2369     		ldr	r3, [r4, #16]
 1441 00f6 9B06     		lsls	r3, r3, #26
 1442 00f8 FCD4     		bmi	.L110
 1443              	.LVL129:
 1444 00fa 04EB4818 		add	r8, r4, r8, lsl #5
 1445              	.LBB501:
 1446              	.LBB502:
 1447              		.loc 4 573 0
 1448 00fe 1220     		movs	r0, #18
 1449              	.LVL130:
 1450 0100 FFF7FEFF 		bl	chSysPolledDelayX
 1451              	.LVL131:
 1452              	.LBE502:
 1453              	.LBE501:
 1454              	.LBE503:
 1455              	.LBE504:
 1456              		.loc 1 1046 0
 1457 0104 D8F80039 		ldr	r3, [r8, #2304]
 1458 0108 23F40043 		bic	r3, r3, #32768
 1459 010c C8F80039 		str	r3, [r8, #2304]
 1460              		.loc 1 1047 0
 1461 0110 D4F81C38 		ldr	r3, [r4, #2076]
 1462 0114 0122     		movs	r2, #1
 1463 0116 02FA05F5 		lsl	r5, r2, r5
 1464 011a 23EA0503 		bic	r3, r3, r5
 1465 011e C4F81C38 		str	r3, [r4, #2076]
 1466 0122 BDE8F883 		pop	{r3, r4, r5, r6, r7, r8, r9, pc}
 1467              	.LVL132:
 1468              	.L104:
 1469 0126 04EB4811 		add	r1, r4, r8, lsl #5
 1470              		.loc 1 1024 0
 1471 012a 05F11009 		add	r9, r5, #16
 1472              		.loc 1 1023 0
 1473 012e D1F800CB 		ldr	ip, [r1, #2816]
 1474 0132 2CF4004C 		bic	ip, ip, #32768
 1475 0136 C1F800CB 		str	ip, [r1, #2816]
 1476              		.loc 1 1024 0
 1477 013a D4F81C18 		ldr	r1, [r4, #2076]
 1478 013e 4FF0010E 		mov	lr, #1
 1479 0142 0EFA09FE 		lsl	lr, lr, r9
 1480 0146 21EA0E01 		bic	r1, r1, lr
 1481 014a C4F81C18 		str	r1, [r4, #2076]
 1482 014e 8BE7     		b	.L105
ARM GAS  /var/folders/m4/4md61f0s1_g0rzfghffqnxvr0000gn/T//cc3uZ6EE.s 			page 27


 1483              	.L116:
 1484              		.align	2
 1485              	.L115:
 1486 0150 00800410 		.word	268730368
 1487 0154 00800010 		.word	268468224
 1488 0158 00800810 		.word	268992512
 1489 015c 00800C10 		.word	269254656
 1490 0160 00040002 		.word	33555456
 1491              		.cfi_endproc
 1492              	.LFE289:
 1493              		.size	usb_lld_init_endpoint, .-usb_lld_init_endpoint
 1494              		.section	.text.usb_lld_disable_endpoints,"ax",%progbits
 1495              		.align	2
 1496              		.p2align 4,,15
 1497              		.global	usb_lld_disable_endpoints
 1498              		.thumb
 1499              		.thumb_func
 1500              		.type	usb_lld_disable_endpoints, %function
 1501              	usb_lld_disable_endpoints:
 1502              	.LFB290:
 1503              		.loc 1 1058 0
 1504              		.cfi_startproc
 1505              		@ args = 0, pretend = 0, frame = 0
 1506              		@ frame_needed = 0, uses_anonymous_args = 0
 1507              		@ link register save eliminated.
 1508              	.LVL133:
 1509 0000 436D     		ldr	r3, [r0, #84]
 1510              	.LVL134:
 1511              	.LBB505:
 1512              	.LBB506:
 1513              		.loc 1 190 0
 1514 0002 1968     		ldr	r1, [r3]
 1515              	.LBE506:
 1516              	.LBE505:
 1517              		.loc 1 1058 0
 1518 0004 30B4     		push	{r4, r5}
 1519              		.cfi_def_cfa_offset 8
 1520              		.cfi_offset 4, -8
 1521              		.cfi_offset 5, -4
 1522              	.LBB508:
 1523              	.LBB507:
 1524              		.loc 1 190 0
 1525 0006 8165     		str	r1, [r0, #88]
 1526              	.LBE507:
 1527              	.LBE508:
 1528              	.LBB509:
 1529              	.LBB510:
 1530              		.loc 1 149 0
 1531 0008 0022     		movs	r2, #0
 1532 000a 9D68     		ldr	r5, [r3, #8]
 1533 000c 046D     		ldr	r4, [r0, #80]
 1534              	.LVL135:
 1535              		.loc 1 150 0
 1536 000e 1146     		mov	r1, r2
 1537              		.loc 1 152 0
 1538 0010 4FF0FF30 		mov	r0, #-1
 1539              	.LVL136:
ARM GAS  /var/folders/m4/4md61f0s1_g0rzfghffqnxvr0000gn/T//cc3uZ6EE.s 			page 28


 1540              	.L118:
 1541 0014 04EB4213 		add	r3, r4, r2, lsl #5
 1542              		.loc 1 149 0
 1543 0018 0132     		adds	r2, r2, #1
 1544              	.LVL137:
 1545 001a AA42     		cmp	r2, r5
 1546              		.loc 1 150 0
 1547 001c C3F80019 		str	r1, [r3, #2304]
 1548              		.loc 1 151 0
 1549 0020 C3F81019 		str	r1, [r3, #2320]
 1550              		.loc 1 152 0
 1551 0024 C3F80809 		str	r0, [r3, #2312]
 1552              		.loc 1 154 0
 1553 0028 C3F8001B 		str	r1, [r3, #2816]
 1554              		.loc 1 155 0
 1555 002c C3F8101B 		str	r1, [r3, #2832]
 1556              		.loc 1 156 0
 1557 0030 C3F8080B 		str	r0, [r3, #2824]
 1558              		.loc 1 149 0
 1559 0034 EED9     		bls	.L118
 1560              		.loc 1 158 0
 1561 0036 4FF00113 		mov	r3, #65537
 1562 003a C4F81C38 		str	r3, [r4, #2076]
 1563              	.LVL138:
 1564              	.LBE510:
 1565              	.LBE509:
 1566              		.loc 1 1065 0
 1567 003e 30BC     		pop	{r4, r5}
 1568              		.cfi_restore 5
 1569              		.cfi_restore 4
 1570              		.cfi_def_cfa_offset 0
 1571 0040 7047     		bx	lr
 1572              		.cfi_endproc
 1573              	.LFE290:
 1574              		.size	usb_lld_disable_endpoints, .-usb_lld_disable_endpoints
 1575 0042 00BF     		.section	.text.usb_lld_get_status_out,"ax",%progbits
 1576              		.align	2
 1577              		.p2align 4,,15
 1578              		.global	usb_lld_get_status_out
 1579              		.thumb
 1580              		.thumb_func
 1581              		.type	usb_lld_get_status_out, %function
 1582              	usb_lld_get_status_out:
 1583              	.LFB291:
 1584              		.loc 1 1079 0
 1585              		.cfi_startproc
 1586              		@ args = 0, pretend = 0, frame = 0
 1587              		@ frame_needed = 0, uses_anonymous_args = 0
 1588              		@ link register save eliminated.
 1589              	.LVL139:
 1590              		.loc 1 1084 0
 1591 0000 5831     		adds	r1, r1, #88
 1592              	.LVL140:
 1593 0002 036D     		ldr	r3, [r0, #80]
 1594 0004 4901     		lsls	r1, r1, #5
 1595 0006 5B58     		ldr	r3, [r3, r1]
 1596              	.LVL141:
ARM GAS  /var/folders/m4/4md61f0s1_g0rzfghffqnxvr0000gn/T//cc3uZ6EE.s 			page 29


 1597              		.loc 1 1085 0
 1598 0008 13F40040 		ands	r0, r3, #32768
 1599              	.LVL142:
 1600 000c 04D0     		beq	.L122
 1601              		.loc 1 1087 0
 1602 000e 13F4001F 		tst	r3, #2097152
 1603              		.loc 1 1089 0
 1604 0012 14BF     		ite	ne
 1605 0014 0120     		movne	r0, #1
 1606 0016 0220     		moveq	r0, #2
 1607              	.L122:
 1608              		.loc 1 1090 0
 1609 0018 7047     		bx	lr
 1610              		.cfi_endproc
 1611              	.LFE291:
 1612              		.size	usb_lld_get_status_out, .-usb_lld_get_status_out
 1613 001a 00BF     		.section	.text.usb_lld_get_status_in,"ax",%progbits
 1614              		.align	2
 1615              		.p2align 4,,15
 1616              		.global	usb_lld_get_status_in
 1617              		.thumb
 1618              		.thumb_func
 1619              		.type	usb_lld_get_status_in, %function
 1620              	usb_lld_get_status_in:
 1621              	.LFB292:
 1622              		.loc 1 1104 0
 1623              		.cfi_startproc
 1624              		@ args = 0, pretend = 0, frame = 0
 1625              		@ frame_needed = 0, uses_anonymous_args = 0
 1626              		@ link register save eliminated.
 1627              	.LVL143:
 1628              		.loc 1 1109 0
 1629 0000 4831     		adds	r1, r1, #72
 1630              	.LVL144:
 1631 0002 036D     		ldr	r3, [r0, #80]
 1632 0004 4901     		lsls	r1, r1, #5
 1633 0006 5B58     		ldr	r3, [r3, r1]
 1634              	.LVL145:
 1635              		.loc 1 1110 0
 1636 0008 13F40040 		ands	r0, r3, #32768
 1637              	.LVL146:
 1638 000c 04D0     		beq	.L126
 1639              		.loc 1 1112 0
 1640 000e 13F4001F 		tst	r3, #2097152
 1641              		.loc 1 1114 0
 1642 0012 14BF     		ite	ne
 1643 0014 0120     		movne	r0, #1
 1644 0016 0220     		moveq	r0, #2
 1645              	.L126:
 1646              		.loc 1 1115 0
 1647 0018 7047     		bx	lr
 1648              		.cfi_endproc
 1649              	.LFE292:
 1650              		.size	usb_lld_get_status_in, .-usb_lld_get_status_in
 1651 001a 00BF     		.section	.text.usb_lld_read_setup,"ax",%progbits
 1652              		.align	2
 1653              		.p2align 4,,15
ARM GAS  /var/folders/m4/4md61f0s1_g0rzfghffqnxvr0000gn/T//cc3uZ6EE.s 			page 30


 1654              		.global	usb_lld_read_setup
 1655              		.thumb
 1656              		.thumb_func
 1657              		.type	usb_lld_read_setup, %function
 1658              	usb_lld_read_setup:
 1659              	.LFB293:
 1660              		.loc 1 1131 0
 1661              		.cfi_startproc
 1662              		@ args = 0, pretend = 0, frame = 0
 1663              		@ frame_needed = 0, uses_anonymous_args = 0
 1664              		@ link register save eliminated.
 1665              	.LVL147:
 1666              		.loc 1 1133 0
 1667 0000 00EB8101 		add	r1, r0, r1, lsl #2
 1668              	.LVL148:
 1669 0004 CB68     		ldr	r3, [r1, #12]
 1670 0006 1B6A     		ldr	r3, [r3, #32]
 1671 0008 1968     		ldr	r1, [r3]	@ unaligned
 1672 000a 5B68     		ldr	r3, [r3, #4]	@ unaligned
 1673 000c 5360     		str	r3, [r2, #4]	@ unaligned
 1674 000e 1160     		str	r1, [r2]	@ unaligned
 1675 0010 7047     		bx	lr
 1676              		.cfi_endproc
 1677              	.LFE293:
 1678              		.size	usb_lld_read_setup, .-usb_lld_read_setup
 1679 0012 00BF     		.section	.text.usb_lld_start_out,"ax",%progbits
 1680              		.align	2
 1681              		.p2align 4,,15
 1682              		.global	usb_lld_start_out
 1683              		.thumb
 1684              		.thumb_func
 1685              		.type	usb_lld_start_out, %function
 1686              	usb_lld_start_out:
 1687              	.LFB294:
 1688              		.loc 1 1144 0
 1689              		.cfi_startproc
 1690              		@ args = 0, pretend = 0, frame = 0
 1691              		@ frame_needed = 0, uses_anonymous_args = 0
 1692              		@ link register save eliminated.
 1693              	.LVL149:
 1694              		.loc 1 1146 0
 1695 0000 00EB8103 		add	r3, r0, r1, lsl #2
 1696              		.loc 1 1144 0
 1697 0004 30B4     		push	{r4, r5}
 1698              		.cfi_def_cfa_offset 8
 1699              		.cfi_offset 4, -8
 1700              		.cfi_offset 5, -4
 1701              		.loc 1 1146 0
 1702 0006 DC68     		ldr	r4, [r3, #12]
 1703 0008 A269     		ldr	r2, [r4, #24]
 1704              	.LVL150:
 1705              		.loc 1 1149 0
 1706 000a 1368     		ldr	r3, [r2]
 1707 000c D360     		str	r3, [r2, #12]
 1708              		.loc 1 1150 0
 1709 000e 09B9     		cbnz	r1, .L139
 1710              		.loc 1 1150 0 is_stmt 0 discriminator 1
ARM GAS  /var/folders/m4/4md61f0s1_g0rzfghffqnxvr0000gn/T//cc3uZ6EE.s 			page 31


 1711 0010 402B     		cmp	r3, #64
 1712 0012 22D8     		bhi	.L133
 1713              	.L139:
 1714 0014 5A1E     		subs	r2, r3, #1
 1715              	.LVL151:
 1716              	.L132:
 1717              		.loc 1 1158 0 is_stmt 1
 1718 0016 638A     		ldrh	r3, [r4, #18]
 1719              		.loc 1 1163 0
 1720 0018 006D     		ldr	r0, [r0, #80]
 1721              	.LVL152:
 1722              		.loc 1 1167 0
 1723 001a 2468     		ldr	r4, [r4]
 1724              	.LVL153:
 1725              		.loc 1 1158 0
 1726 001c 1A44     		add	r2, r2, r3
 1727 001e B2FBF3F2 		udiv	r2, r2, r3
 1728              	.LVL154:
 1729              		.loc 1 1163 0
 1730 0022 02FB03F3 		mul	r3, r2, r3
 1731              	.LVL155:
 1732 0026 0333     		adds	r3, r3, #3
 1733 0028 23F00303 		bic	r3, r3, #3
 1734              	.LVL156:
 1735 002c 43EAC243 		orr	r3, r3, r2, lsl #19
 1736              	.LVL157:
 1737 0030 00EB4115 		add	r5, r0, r1, lsl #5
 1738              		.loc 1 1167 0
 1739 0034 04F00302 		and	r2, r4, #3
 1740              	.LVL158:
 1741              		.loc 1 1163 0
 1742 0038 43F0C043 		orr	r3, r3, #1610612736
 1743              		.loc 1 1167 0
 1744 003c 012A     		cmp	r2, #1
 1745              		.loc 1 1163 0
 1746 003e C5F8103B 		str	r3, [r5, #2832]
 1747              		.loc 1 1167 0
 1748 0042 0ED0     		beq	.L137
 1749 0044 09B2     		sxth	r1, r1
 1750              	.LVL159:
 1751              	.L134:
 1752 0046 00EB4111 		add	r1, r0, r1, lsl #5
 1753              		.loc 1 1177 0
 1754 004a 30BC     		pop	{r4, r5}
 1755              		.cfi_remember_state
 1756              		.cfi_restore 5
 1757              		.cfi_restore 4
 1758              		.cfi_def_cfa_offset 0
 1759              		.loc 1 1176 0
 1760 004c D1F8003B 		ldr	r3, [r1, #2816]
 1761 0050 43F00443 		orr	r3, r3, #-2080374784
 1762 0054 C1F8003B 		str	r3, [r1, #2816]
 1763              		.loc 1 1177 0
 1764 0058 7047     		bx	lr
 1765              	.LVL160:
 1766              	.L133:
 1767              		.cfi_restore_state
ARM GAS  /var/folders/m4/4md61f0s1_g0rzfghffqnxvr0000gn/T//cc3uZ6EE.s 			page 32


 1768              		.loc 1 1151 0
 1769 005a 4023     		movs	r3, #64
 1770 005c 1360     		str	r3, [r2]
 1771 005e 3F22     		movs	r2, #63
 1772              	.LVL161:
 1773 0060 D9E7     		b	.L132
 1774              	.LVL162:
 1775              	.L137:
 1776 0062 09B2     		sxth	r1, r1
 1777              	.LVL163:
 1778              		.loc 1 1169 0
 1779 0064 D0F80838 		ldr	r3, [r0, #2056]
 1780 0068 00EB4112 		add	r2, r0, r1, lsl #5
 1781 006c 13F4807F 		tst	r3, #256
 1782              		.loc 1 1170 0
 1783 0070 D2F8003B 		ldr	r3, [r2, #2816]
 1784 0074 14BF     		ite	ne
 1785 0076 43F08053 		orrne	r3, r3, #268435456
 1786              		.loc 1 1172 0
 1787 007a 43F00053 		orreq	r3, r3, #536870912
 1788 007e C2F8003B 		str	r3, [r2, #2816]
 1789 0082 E0E7     		b	.L134
 1790              		.cfi_endproc
 1791              	.LFE294:
 1792              		.size	usb_lld_start_out, .-usb_lld_start_out
 1793              		.section	.text.otg_epout_handler.constprop.9,"ax",%progbits
 1794              		.align	2
 1795              		.p2align 4,,15
 1796              		.thumb
 1797              		.thumb_func
 1798              		.type	otg_epout_handler.constprop.9, %function
 1799              	otg_epout_handler.constprop.9:
 1800              	.LFB308:
 1801              		.loc 1 400 0
 1802              		.cfi_startproc
 1803              		@ args = 0, pretend = 0, frame = 0
 1804              		@ frame_needed = 0, uses_anonymous_args = 0
 1805              	.LVL164:
 1806 0000 2DE9F041 		push	{r4, r5, r6, r7, r8, lr}
 1807              		.cfi_def_cfa_offset 24
 1808              		.cfi_offset 4, -24
 1809              		.cfi_offset 5, -20
 1810              		.cfi_offset 6, -16
 1811              		.cfi_offset 7, -12
 1812              		.cfi_offset 8, -8
 1813              		.cfi_offset 14, -4
 1814              		.loc 1 401 0
 1815 0004 244D     		ldr	r5, .L161
 1816 0006 2F6D     		ldr	r7, [r5, #80]
 1817              	.LVL165:
 1818              		.loc 1 402 0
 1819 0008 07EB4013 		add	r3, r7, r0, lsl #5
 1820              		.loc 1 400 0
 1821 000c 0646     		mov	r6, r0
 1822              		.loc 1 402 0
 1823 000e D3F8084B 		ldr	r4, [r3, #2824]
 1824              	.LVL166:
ARM GAS  /var/folders/m4/4md61f0s1_g0rzfghffqnxvr0000gn/T//cc3uZ6EE.s 			page 33


 1825              		.loc 1 405 0
 1826 0012 C3F8084B 		str	r4, [r3, #2824]
 1827              		.loc 1 407 0
 1828 0016 2007     		lsls	r0, r4, #28
 1829              	.LVL167:
 1830 0018 03D5     		bpl	.L141
 1831 001a D7F81438 		ldr	r3, [r7, #2068]
 1832 001e 1907     		lsls	r1, r3, #28
 1833 0020 31D4     		bmi	.L159
 1834              	.L141:
 1835              		.loc 1 413 0
 1836 0022 E207     		lsls	r2, r4, #31
 1837 0024 1BD5     		bpl	.L140
 1838 0026 D7F81438 		ldr	r3, [r7, #2068]
 1839 002a DB07     		lsls	r3, r3, #31
 1840 002c 17D5     		bpl	.L140
 1841              	.LBB511:
 1842              		.loc 1 415 0
 1843 002e 05EB8603 		add	r3, r5, r6, lsl #2
 1844 0032 DA68     		ldr	r2, [r3, #12]
 1845 0034 9169     		ldr	r1, [r2, #24]
 1846              	.LVL168:
 1847              		.loc 1 418 0
 1848 0036 508A     		ldrh	r0, [r2, #18]
 1849 0038 4C68     		ldr	r4, [r1, #4]
 1850              	.LVL169:
 1851 003a B4FBF0F3 		udiv	r3, r4, r0
 1852 003e 00FB1344 		mls	r4, r0, r3, r4
 1853 0042 74B1     		cbz	r4, .L160
 1854              	.L145:
 1855              		.loc 1 431 0
 1856 0044 6989     		ldrh	r1, [r5, #10]
 1857              	.LVL170:
 1858 0046 D268     		ldr	r2, [r2, #12]
 1859              	.LVL171:
 1860 0048 0123     		movs	r3, #1
 1861 004a B340     		lsls	r3, r3, r6
 1862 004c 21EA0303 		bic	r3, r1, r3
 1863 0050 6B81     		strh	r3, [r5, #10]	@ movhi
 1864 0052 22B1     		cbz	r2, .L140
 1865 0054 3146     		mov	r1, r6
 1866 0056 1048     		ldr	r0, .L161
 1867              	.LBE511:
 1868              		.loc 1 434 0
 1869 0058 BDE8F041 		pop	{r4, r5, r6, r7, r8, lr}
 1870              		.cfi_remember_state
 1871              		.cfi_restore 14
 1872              		.cfi_restore 8
 1873              		.cfi_restore 7
 1874              		.cfi_restore 6
 1875              		.cfi_restore 5
 1876              		.cfi_restore 4
 1877              		.cfi_def_cfa_offset 0
 1878              	.LVL172:
 1879              	.LBB524:
 1880              		.loc 1 431 0
 1881 005c 1047     		bx	r2	@ indirect register sibling call
ARM GAS  /var/folders/m4/4md61f0s1_g0rzfghffqnxvr0000gn/T//cc3uZ6EE.s 			page 34


 1882              	.LVL173:
 1883              	.L140:
 1884              		.cfi_restore_state
 1885 005e BDE8F081 		pop	{r4, r5, r6, r7, r8, pc}
 1886              	.LVL174:
 1887              	.L160:
 1888              		.loc 1 419 0
 1889 0062 0868     		ldr	r0, [r1]
 1890 0064 CB68     		ldr	r3, [r1, #12]
 1891              		.loc 1 418 0
 1892 0066 9842     		cmp	r0, r3
 1893 0068 ECD2     		bcs	.L145
 1894              		.loc 1 423 0
 1895 006a 1B1A     		subs	r3, r3, r0
 1896              		.loc 1 424 0
 1897 006c 81E81800 		stmia	r1, {r3, r4}
 1898              	.LVL175:
 1899              	.LBB512:
 1900              	.LBB513:
 1901              	.LBB514:
 1902              	.LBB515:
 1903              	.LBB516:
 1904              	.LBB517:
 1905              		.loc 3 548 0
 1906 0070 2023     		movs	r3, #32
 1907              		.syntax unified
 1908              	@ 548 "ChibiOS_16.1.4/os/ext/CMSIS/include/core_cmFunc.h" 1
 1909 0072 83F31188 		MSR basepri, r3
 1910              	@ 0 "" 2
 1911              	.LVL176:
 1912              		.thumb
 1913              		.syntax unified
 1914              	.LBE517:
 1915              	.LBE516:
 1916              	.LBE515:
 1917              	.LBE514:
 1918              	.LBE513:
 1919              	.LBE512:
 1920              		.loc 1 426 0
 1921 0076 0848     		ldr	r0, .L161
 1922 0078 3146     		mov	r1, r6
 1923              	.LVL177:
 1924 007a FFF7FEFF 		bl	usb_lld_start_out
 1925              	.LVL178:
 1926              	.LBB518:
 1927              	.LBB519:
 1928              	.LBB520:
 1929              	.LBB521:
 1930              	.LBB522:
 1931              	.LBB523:
 1932              		.loc 3 548 0
 1933              		.syntax unified
 1934              	@ 548 "ChibiOS_16.1.4/os/ext/CMSIS/include/core_cmFunc.h" 1
 1935 007e 84F31188 		MSR basepri, r4
 1936              	@ 0 "" 2
 1937              	.LVL179:
 1938              		.thumb
ARM GAS  /var/folders/m4/4md61f0s1_g0rzfghffqnxvr0000gn/T//cc3uZ6EE.s 			page 35


 1939              		.syntax unified
 1940 0082 BDE8F081 		pop	{r4, r5, r6, r7, r8, pc}
 1941              	.LVL180:
 1942              	.L159:
 1943              	.LBE523:
 1944              	.LBE522:
 1945              	.LBE521:
 1946              	.LBE520:
 1947              	.LBE519:
 1948              	.LBE518:
 1949              	.LBE524:
 1950              		.loc 1 410 0
 1951 0086 05EB8603 		add	r3, r5, r6, lsl #2
 1952 008a 3146     		mov	r1, r6
 1953 008c DB68     		ldr	r3, [r3, #12]
 1954 008e 2846     		mov	r0, r5
 1955 0090 5B68     		ldr	r3, [r3, #4]
 1956 0092 9847     		blx	r3
 1957              	.LVL181:
 1958 0094 C5E7     		b	.L141
 1959              	.L162:
 1960 0096 00BF     		.align	2
 1961              	.L161:
 1962 0098 00000000 		.word	.LANCHOR0
 1963              		.cfi_endproc
 1964              	.LFE308:
 1965              		.size	otg_epout_handler.constprop.9, .-otg_epout_handler.constprop.9
 1966              		.section	.text.usb_lld_start_in,"ax",%progbits
 1967              		.align	2
 1968              		.p2align 4,,15
 1969              		.global	usb_lld_start_in
 1970              		.thumb
 1971              		.thumb_func
 1972              		.type	usb_lld_start_in, %function
 1973              	usb_lld_start_in:
 1974              	.LFB295:
 1975              		.loc 1 1187 0
 1976              		.cfi_startproc
 1977              		@ args = 0, pretend = 0, frame = 0
 1978              		@ frame_needed = 0, uses_anonymous_args = 0
 1979              		@ link register save eliminated.
 1980              	.LVL182:
 1981              		.loc 1 1188 0
 1982 0000 00EB8103 		add	r3, r0, r1, lsl #2
 1983              		.loc 1 1187 0
 1984 0004 F0B4     		push	{r4, r5, r6, r7}
 1985              		.cfi_def_cfa_offset 16
 1986              		.cfi_offset 4, -16
 1987              		.cfi_offset 5, -12
 1988              		.cfi_offset 6, -8
 1989              		.cfi_offset 7, -4
 1990              		.loc 1 1188 0
 1991 0006 DC68     		ldr	r4, [r3, #12]
 1992 0008 6569     		ldr	r5, [r4, #20]
 1993              	.LVL183:
 1994              		.loc 1 1191 0
 1995 000a 2B68     		ldr	r3, [r5]
ARM GAS  /var/folders/m4/4md61f0s1_g0rzfghffqnxvr0000gn/T//cc3uZ6EE.s 			page 36


 1996 000c EB60     		str	r3, [r5, #12]
 1997              		.loc 1 1192 0
 1998 000e F3B9     		cbnz	r3, .L164
 1999              		.loc 1 1194 0
 2000 0010 006D     		ldr	r0, [r0, #80]
 2001              	.LVL184:
 2002 0012 00EB4113 		add	r3, r0, r1, lsl #5
 2003 0016 4FF40022 		mov	r2, #524288
 2004 001a C3F81029 		str	r2, [r3, #2320]
 2005              		.loc 1 1209 0
 2006 001e 2368     		ldr	r3, [r4]
 2007 0020 03F00303 		and	r3, r3, #3
 2008 0024 012B     		cmp	r3, #1
 2009 0026 26D0     		beq	.L172
 2010              	.LVL185:
 2011              	.L176:
 2012 0028 0BB2     		sxth	r3, r1
 2013              	.LVL186:
 2014              	.L169:
 2015 002a 00EB4313 		add	r3, r0, r3, lsl #5
 2016              		.loc 1 1219 0
 2017 002e 0122     		movs	r2, #1
 2018              		.loc 1 1218 0
 2019 0030 D3F80049 		ldr	r4, [r3, #2304]
 2020 0034 44F00444 		orr	r4, r4, #-2080374784
 2021 0038 C3F80049 		str	r4, [r3, #2304]
 2022              		.loc 1 1219 0
 2023 003c D0F83438 		ldr	r3, [r0, #2100]
 2024 0040 02FA01F1 		lsl	r1, r2, r1
 2025              	.LVL187:
 2026 0044 1943     		orrs	r1, r1, r3
 2027 0046 C0F83418 		str	r1, [r0, #2100]
 2028              		.loc 1 1220 0
 2029 004a F0BC     		pop	{r4, r5, r6, r7}
 2030              		.cfi_remember_state
 2031              		.cfi_restore 7
 2032              		.cfi_restore 6
 2033              		.cfi_restore 5
 2034              		.cfi_restore 4
 2035              		.cfi_def_cfa_offset 0
 2036 004c 7047     		bx	lr
 2037              	.LVL188:
 2038              	.L164:
 2039              		.cfi_restore_state
 2040              	.LBB525:
 2041              		.loc 1 1197 0
 2042 004e 19B3     		cbz	r1, .L175
 2043              	.L174:
 2044 0050 5D1E     		subs	r5, r3, #1
 2045              	.LVL189:
 2046 0052 43F00052 		orr	r2, r3, #536870912
 2047              	.L167:
 2048              		.loc 1 1204 0
 2049 0056 006D     		ldr	r0, [r0, #80]
 2050              	.LVL190:
 2051              		.loc 1 1201 0
 2052 0058 268A     		ldrh	r6, [r4, #16]
ARM GAS  /var/folders/m4/4md61f0s1_g0rzfghffqnxvr0000gn/T//cc3uZ6EE.s 			page 37


 2053              	.LVL191:
 2054              		.loc 1 1204 0
 2055 005a 00EB4117 		add	r7, r0, r1, lsl #5
 2056 005e 7319     		adds	r3, r6, r5
 2057 0060 B3FBF6F3 		udiv	r3, r3, r6
 2058              	.LVL192:
 2059 0064 42EAC343 		orr	r3, r2, r3, lsl #19
 2060              	.LVL193:
 2061 0068 C7F81039 		str	r3, [r7, #2320]
 2062              	.LBE525:
 2063              		.loc 1 1209 0
 2064 006c 2368     		ldr	r3, [r4]
 2065 006e 03F00303 		and	r3, r3, #3
 2066 0072 012B     		cmp	r3, #1
 2067 0074 D8D1     		bne	.L176
 2068              	.LVL194:
 2069              	.L172:
 2070              		.loc 1 1211 0
 2071 0076 D0F80838 		ldr	r3, [r0, #2056]
 2072 007a 13F4807F 		tst	r3, #256
 2073 007e 0BB2     		sxth	r3, r1
 2074 0080 00EB4314 		add	r4, r0, r3, lsl #5
 2075              	.LVL195:
 2076              		.loc 1 1212 0
 2077 0084 D4F80029 		ldr	r2, [r4, #2304]
 2078 0088 14BF     		ite	ne
 2079 008a 42F08052 		orrne	r2, r2, #268435456
 2080              		.loc 1 1214 0
 2081 008e 42F00052 		orreq	r2, r2, #536870912
 2082 0092 C4F80029 		str	r2, [r4, #2304]
 2083 0096 C8E7     		b	.L169
 2084              	.LVL196:
 2085              	.L175:
 2086              	.LBB526:
 2087              		.loc 1 1197 0 discriminator 1
 2088 0098 402B     		cmp	r3, #64
 2089 009a D9D9     		bls	.L174
 2090              		.loc 1 1198 0
 2091 009c 4023     		movs	r3, #64
 2092 009e 2B60     		str	r3, [r5]
 2093 00a0 014A     		ldr	r2, .L177
 2094 00a2 3F25     		movs	r5, #63
 2095              	.LVL197:
 2096 00a4 D7E7     		b	.L167
 2097              	.L178:
 2098 00a6 00BF     		.align	2
 2099              	.L177:
 2100 00a8 40000020 		.word	536870976
 2101              	.LBE526:
 2102              		.cfi_endproc
 2103              	.LFE295:
 2104              		.size	usb_lld_start_in, .-usb_lld_start_in
 2105              		.section	.text.otg_epin_handler.constprop.10,"ax",%progbits
 2106              		.align	2
 2107              		.p2align 4,,15
 2108              		.thumb
 2109              		.thumb_func
ARM GAS  /var/folders/m4/4md61f0s1_g0rzfghffqnxvr0000gn/T//cc3uZ6EE.s 			page 38


 2110              		.type	otg_epin_handler.constprop.10, %function
 2111              	otg_epin_handler.constprop.10:
 2112              	.LFB307:
 2113              		.loc 1 353 0
 2114              		.cfi_startproc
 2115              		@ args = 0, pretend = 0, frame = 0
 2116              		@ frame_needed = 0, uses_anonymous_args = 0
 2117              	.LVL198:
 2118 0000 2DE9F041 		push	{r4, r5, r6, r7, r8, lr}
 2119              		.cfi_def_cfa_offset 24
 2120              		.cfi_offset 4, -24
 2121              		.cfi_offset 5, -20
 2122              		.cfi_offset 6, -16
 2123              		.cfi_offset 7, -12
 2124              		.cfi_offset 8, -8
 2125              		.cfi_offset 14, -4
 2126              		.loc 1 354 0
 2127 0004 294E     		ldr	r6, .L201
 2128 0006 356D     		ldr	r5, [r6, #80]
 2129              	.LVL199:
 2130              		.loc 1 355 0
 2131 0008 05EB4013 		add	r3, r5, r0, lsl #5
 2132              		.loc 1 353 0
 2133 000c 0746     		mov	r7, r0
 2134              		.loc 1 355 0
 2135 000e D3F80849 		ldr	r4, [r3, #2312]
 2136              	.LVL200:
 2137              		.loc 1 357 0
 2138 0012 C3F80849 		str	r4, [r3, #2312]
 2139              		.loc 1 362 0
 2140 0016 E107     		lsls	r1, r4, #31
 2141 0018 03D5     		bpl	.L181
 2142 001a D5F81038 		ldr	r3, [r5, #2064]
 2143 001e DA07     		lsls	r2, r3, #31
 2144 0020 09D4     		bmi	.L198
 2145              	.LVL201:
 2146              	.L181:
 2147              		.loc 1 381 0
 2148 0022 2306     		lsls	r3, r4, #24
 2149 0024 05D5     		bpl	.L179
 2150 0026 0121     		movs	r1, #1
 2151              		.loc 1 382 0
 2152 0028 D5F83438 		ldr	r3, [r5, #2100]
 2153              		.loc 1 381 0
 2154 002c B940     		lsls	r1, r1, r7
 2155 002e 1942     		tst	r1, r3
 2156 0030 18D1     		bne	.L199
 2157              	.L179:
 2158 0032 BDE8F081 		pop	{r4, r5, r6, r7, r8, pc}
 2159              	.LVL202:
 2160              	.L198:
 2161              	.LBB527:
 2162              		.loc 1 364 0
 2163 0036 06EB8003 		add	r3, r6, r0, lsl #2
 2164 003a D968     		ldr	r1, [r3, #12]
 2165 003c 4B69     		ldr	r3, [r1, #20]
 2166              	.LVL203:
ARM GAS  /var/folders/m4/4md61f0s1_g0rzfghffqnxvr0000gn/T//cc3uZ6EE.s 			page 39


 2167              		.loc 1 366 0
 2168 003e 1868     		ldr	r0, [r3]
 2169              	.LVL204:
 2170 0040 DA68     		ldr	r2, [r3, #12]
 2171 0042 9042     		cmp	r0, r2
 2172 0044 23D3     		bcc	.L200
 2173              		.loc 1 378 0
 2174 0046 3289     		ldrh	r2, [r6, #8]
 2175 0048 D1F80880 		ldr	r8, [r1, #8]
 2176 004c 0123     		movs	r3, #1
 2177              	.LVL205:
 2178 004e BB40     		lsls	r3, r3, r7
 2179 0050 22EA0303 		bic	r3, r2, r3
 2180 0054 3381     		strh	r3, [r6, #8]	@ movhi
 2181 0056 B8F1000F 		cmp	r8, #0
 2182 005a E2D0     		beq	.L181
 2183 005c 3946     		mov	r1, r7
 2184              	.LVL206:
 2185 005e 3046     		mov	r0, r6
 2186 0060 C047     		blx	r8
 2187              	.LVL207:
 2188 0062 DEE7     		b	.L181
 2189              	.L199:
 2190              	.LVL208:
 2191              	.LBE527:
 2192              	.LBB540:
 2193              	.LBB541:
 2194              	.LBB542:
 2195              	.LBB543:
 2196              	.LBB544:
 2197              	.LBB545:
 2198              		.loc 3 548 0
 2199 0064 2023     		movs	r3, #32
 2200              		.syntax unified
 2201              	@ 548 "ChibiOS_16.1.4/os/ext/CMSIS/include/core_cmFunc.h" 1
 2202 0066 83F31188 		MSR basepri, r3
 2203              	@ 0 "" 2
 2204              	.LVL209:
 2205              		.thumb
 2206              		.syntax unified
 2207              	.LBE545:
 2208              	.LBE544:
 2209              	.LBE543:
 2210              	.LBE542:
 2211              	.LBE541:
 2212              	.LBE540:
 2213              		.loc 1 386 0
 2214 006a D5F83428 		ldr	r2, [r5, #2100]
 2215              		.loc 1 385 0
 2216 006e F36D     		ldr	r3, [r6, #92]
 2217              	.LBB546:
 2218              	.LBB547:
 2219              		.loc 4 728 0
 2220 0070 0F48     		ldr	r0, .L201+4
 2221              	.LBE547:
 2222              	.LBE546:
 2223              		.loc 1 386 0
ARM GAS  /var/folders/m4/4md61f0s1_g0rzfghffqnxvr0000gn/T//cc3uZ6EE.s 			page 40


 2224 0072 22EA0102 		bic	r2, r2, r1
 2225              		.loc 1 385 0
 2226 0076 0B43     		orrs	r3, r3, r1
 2227              		.loc 1 386 0
 2228 0078 C5F83428 		str	r2, [r5, #2100]
 2229              	.LVL210:
 2230              	.LBB550:
 2231              	.LBB548:
 2232              		.loc 4 728 0
 2233 007c 0021     		movs	r1, #0
 2234              	.LBE548:
 2235              	.LBE550:
 2236              		.loc 1 385 0
 2237 007e F365     		str	r3, [r6, #92]
 2238              	.LBB551:
 2239              	.LBB549:
 2240              		.loc 4 728 0
 2241 0080 FFF7FEFF 		bl	chThdResumeI
 2242              	.LVL211:
 2243              	.LBE549:
 2244              	.LBE551:
 2245              	.LBB552:
 2246              	.LBB553:
 2247              	.LBB554:
 2248              	.LBB555:
 2249              	.LBB556:
 2250              	.LBB557:
 2251              		.loc 3 548 0
 2252 0084 0023     		movs	r3, #0
 2253              		.syntax unified
 2254              	@ 548 "ChibiOS_16.1.4/os/ext/CMSIS/include/core_cmFunc.h" 1
 2255 0086 83F31188 		MSR basepri, r3
 2256              	@ 0 "" 2
 2257              	.LVL212:
 2258              		.thumb
 2259              		.syntax unified
 2260 008a BDE8F081 		pop	{r4, r5, r6, r7, r8, pc}
 2261              	.LVL213:
 2262              	.L200:
 2263              	.LBE557:
 2264              	.LBE556:
 2265              	.LBE555:
 2266              	.LBE554:
 2267              	.LBE553:
 2268              	.LBE552:
 2269              	.LBB558:
 2270              		.loc 1 370 0
 2271 008e 121A     		subs	r2, r2, r0
 2272              		.loc 1 371 0
 2273 0090 4FF00008 		mov	r8, #0
 2274 0094 83E80401 		stmia	r3, {r2, r8}
 2275              	.LVL214:
 2276              	.LBB528:
 2277              	.LBB529:
 2278              	.LBB530:
 2279              	.LBB531:
 2280              	.LBB532:
ARM GAS  /var/folders/m4/4md61f0s1_g0rzfghffqnxvr0000gn/T//cc3uZ6EE.s 			page 41


 2281              	.LBB533:
 2282              		.loc 3 548 0
 2283 0098 2023     		movs	r3, #32
 2284              	.LVL215:
 2285              		.syntax unified
 2286              	@ 548 "ChibiOS_16.1.4/os/ext/CMSIS/include/core_cmFunc.h" 1
 2287 009a 83F31188 		MSR basepri, r3
 2288              	@ 0 "" 2
 2289              	.LVL216:
 2290              		.thumb
 2291              		.syntax unified
 2292              	.LBE533:
 2293              	.LBE532:
 2294              	.LBE531:
 2295              	.LBE530:
 2296              	.LBE529:
 2297              	.LBE528:
 2298              		.loc 1 373 0
 2299 009e 3946     		mov	r1, r7
 2300              	.LVL217:
 2301 00a0 3046     		mov	r0, r6
 2302 00a2 FFF7FEFF 		bl	usb_lld_start_in
 2303              	.LVL218:
 2304              	.LBB534:
 2305              	.LBB535:
 2306              	.LBB536:
 2307              	.LBB537:
 2308              	.LBB538:
 2309              	.LBB539:
 2310              		.loc 3 548 0
 2311              		.syntax unified
 2312              	@ 548 "ChibiOS_16.1.4/os/ext/CMSIS/include/core_cmFunc.h" 1
 2313 00a6 88F31188 		MSR basepri, r8
 2314              	@ 0 "" 2
 2315              	.LVL219:
 2316              		.thumb
 2317              		.syntax unified
 2318 00aa BAE7     		b	.L181
 2319              	.L202:
 2320              		.align	2
 2321              	.L201:
 2322 00ac 00000000 		.word	.LANCHOR0
 2323 00b0 60000000 		.word	.LANCHOR0+96
 2324              	.LBE539:
 2325              	.LBE538:
 2326              	.LBE537:
 2327              	.LBE536:
 2328              	.LBE535:
 2329              	.LBE534:
 2330              	.LBE558:
 2331              		.cfi_endproc
 2332              	.LFE307:
 2333              		.size	otg_epin_handler.constprop.10, .-otg_epin_handler.constprop.10
 2334              		.section	.text.Vector14C,"ax",%progbits
 2335              		.align	2
 2336              		.p2align 4,,15
 2337              		.global	Vector14C
ARM GAS  /var/folders/m4/4md61f0s1_g0rzfghffqnxvr0000gn/T//cc3uZ6EE.s 			page 42


 2338              		.thumb
 2339              		.thumb_func
 2340              		.type	Vector14C, %function
 2341              	Vector14C:
 2342              	.LFB283:
 2343              		.loc 1 638 0
 2344              		.cfi_startproc
 2345              		@ args = 0, pretend = 0, frame = 0
 2346              		@ frame_needed = 0, uses_anonymous_args = 0
 2347              	.LVL220:
 2348 0000 2DE9F047 		push	{r4, r5, r6, r7, r8, r9, r10, lr}
 2349              		.cfi_def_cfa_offset 32
 2350              		.cfi_offset 4, -32
 2351              		.cfi_offset 5, -28
 2352              		.cfi_offset 6, -24
 2353              		.cfi_offset 7, -20
 2354              		.cfi_offset 8, -16
 2355              		.cfi_offset 9, -12
 2356              		.cfi_offset 10, -8
 2357              		.cfi_offset 14, -4
 2358              	.LBB597:
 2359              	.LBB598:
 2360              		.loc 1 506 0
 2361 0004 954E     		ldr	r6, .L312
 2362 0006 376D     		ldr	r7, [r6, #80]
 2363              	.LVL221:
 2364              		.loc 1 509 0
 2365 0008 7D69     		ldr	r5, [r7, #20]
 2366              	.LVL222:
 2367              		.loc 1 510 0
 2368 000a BB69     		ldr	r3, [r7, #24]
 2369 000c 1D40     		ands	r5, r5, r3
 2370              	.LVL223:
 2371              		.loc 1 514 0
 2372 000e 15F48059 		ands	r9, r5, #4096
 2373              		.loc 1 511 0
 2374 0012 7D61     		str	r5, [r7, #20]
 2375              		.loc 1 514 0
 2376 0014 40F0C880 		bne	.L297
 2377              		.loc 1 527 0
 2378 0018 002D     		cmp	r5, #0
 2379 001a 55DB     		blt	.L298
 2380              	.L206:
 2381              		.loc 1 542 0
 2382 001c 2B05     		lsls	r3, r5, #20
 2383 001e 4DD4     		bmi	.L299
 2384              	.L208:
 2385              		.loc 1 552 0
 2386 0020 AC04     		lsls	r4, r5, #18
 2387 0022 0CD5     		bpl	.L209
 2388              		.loc 1 554 0
 2389 0024 D7F80838 		ldr	r3, [r7, #2056]
 2390 0028 13F0060F 		tst	r3, #6
 2391              		.loc 1 555 0
 2392 002c FB68     		ldr	r3, [r7, #12]
 2393 002e 23F47053 		bic	r3, r3, #15360
 2394 0032 0CBF     		ite	eq
ARM GAS  /var/folders/m4/4md61f0s1_g0rzfghffqnxvr0000gn/T//cc3uZ6EE.s 			page 43


 2395 0034 43F41053 		orreq	r3, r3, #9216
 2396              		.loc 1 559 0
 2397 0038 43F4A053 		orrne	r3, r3, #5120
 2398 003c FB60     		str	r3, [r7, #12]
 2399              	.L209:
 2400              		.loc 1 565 0
 2401 003e 2807     		lsls	r0, r5, #28
 2402 0040 04D5     		bpl	.L211
 2403              		.loc 1 566 0
 2404 0042 7368     		ldr	r3, [r6, #4]
 2405 0044 DB68     		ldr	r3, [r3, #12]
 2406 0046 0BB1     		cbz	r3, .L211
 2407 0048 8448     		ldr	r0, .L312
 2408 004a 9847     		blx	r3
 2409              	.LVL224:
 2410              	.L211:
 2411              		.loc 1 570 0
 2412 004c EA02     		lsls	r2, r5, #11
 2413 004e 4FD4     		bmi	.L300
 2414              		.loc 1 575 0
 2415 0050 AA02     		lsls	r2, r5, #10
 2416 0052 00F1B980 		bmi	.L218
 2417              	.L225:
 2418              		.loc 1 580 0
 2419 0056 EB06     		lsls	r3, r5, #27
 2420 0058 21D4     		bmi	.L301
 2421              	.L220:
 2422              		.loc 1 591 0
 2423 005a 6E03     		lsls	r6, r5, #13
 2424              		.loc 1 590 0
 2425 005c D7F81848 		ldr	r4, [r7, #2072]
 2426              	.LVL225:
 2427              		.loc 1 591 0
 2428 0060 0BD5     		bpl	.L227
 2429              		.loc 1 592 0
 2430 0062 E007     		lsls	r0, r4, #31
 2431 0064 00F1F580 		bmi	.L302
 2432              	.L228:
 2433              		.loc 1 594 0
 2434 0068 A107     		lsls	r1, r4, #30
 2435 006a 00F1EE80 		bmi	.L303
 2436              	.L229:
 2437              		.loc 1 596 0
 2438 006e 6207     		lsls	r2, r4, #29
 2439 0070 00F1E780 		bmi	.L304
 2440              	.L230:
 2441              		.loc 1 598 0
 2442 0074 2307     		lsls	r3, r4, #28
 2443 0076 00F1D180 		bmi	.L305
 2444              	.L227:
 2445              		.loc 1 607 0
 2446 007a 2F03     		lsls	r7, r5, #12
 2447              	.LVL226:
 2448 007c 0BD5     		bpl	.L205
 2449              	.L311:
 2450              		.loc 1 608 0
 2451 007e E603     		lsls	r6, r4, #15
ARM GAS  /var/folders/m4/4md61f0s1_g0rzfghffqnxvr0000gn/T//cc3uZ6EE.s 			page 44


 2452 0080 00F1DB80 		bmi	.L306
 2453              	.L233:
 2454              		.loc 1 610 0
 2455 0084 A503     		lsls	r5, r4, #14
 2456              	.LVL227:
 2457 0086 00F1D480 		bmi	.L307
 2458              	.L234:
 2459              		.loc 1 612 0
 2460 008a 6003     		lsls	r0, r4, #13
 2461 008c 00F1CD80 		bmi	.L308
 2462              	.L235:
 2463              		.loc 1 614 0
 2464 0090 2103     		lsls	r1, r4, #12
 2465 0092 00F19280 		bmi	.L309
 2466              	.L205:
 2467              	.LVL228:
 2468              	.LBE598:
 2469              	.LBE597:
 2470              		.loc 1 645 0
 2471 0096 BDE8F047 		pop	{r4, r5, r6, r7, r8, r9, r10, lr}
 2472              		.cfi_remember_state
 2473              		.cfi_restore 14
 2474              		.cfi_restore 10
 2475              		.cfi_restore 9
 2476              		.cfi_restore 8
 2477              		.cfi_restore 7
 2478              		.cfi_restore 6
 2479              		.cfi_restore 5
 2480              		.cfi_restore 4
 2481              		.cfi_def_cfa_offset 0
 2482              		.loc 1 644 0
 2483 009a FFF7FEBF 		b	_port_irq_epilogue
 2484              	.LVL229:
 2485              	.L301:
 2486              		.cfi_restore_state
 2487              	.LBB650:
 2488              	.LBB647:
 2489              	.LBB599:
 2490              	.LBB600:
 2491              	.LBB601:
 2492              	.LBB602:
 2493              	.LBB603:
 2494              	.LBB604:
 2495              		.loc 3 548 0
 2496 009e 2023     		movs	r3, #32
 2497              		.syntax unified
 2498              	@ 548 "ChibiOS_16.1.4/os/ext/CMSIS/include/core_cmFunc.h" 1
 2499 00a0 83F31188 		MSR basepri, r3
 2500              	@ 0 "" 2
 2501              	.LVL230:
 2502              		.thumb
 2503              		.syntax unified
 2504              	.LBE604:
 2505              	.LBE603:
 2506              	.LBE602:
 2507              	.LBE601:
 2508              	.LBE600:
ARM GAS  /var/folders/m4/4md61f0s1_g0rzfghffqnxvr0000gn/T//cc3uZ6EE.s 			page 45


 2509              	.LBE599:
 2510              		.loc 1 584 0
 2511 00a4 BB69     		ldr	r3, [r7, #24]
 2512              	.LBB605:
 2513              	.LBB606:
 2514              		.loc 4 728 0
 2515 00a6 6E48     		ldr	r0, .L312+4
 2516              	.LBE606:
 2517              	.LBE605:
 2518              		.loc 1 584 0
 2519 00a8 23F01003 		bic	r3, r3, #16
 2520 00ac BB61     		str	r3, [r7, #24]
 2521              	.LVL231:
 2522              	.LBB608:
 2523              	.LBB607:
 2524              		.loc 4 728 0
 2525 00ae 0021     		movs	r1, #0
 2526 00b0 FFF7FEFF 		bl	chThdResumeI
 2527              	.LVL232:
 2528              	.LBE607:
 2529              	.LBE608:
 2530              	.LBB609:
 2531              	.LBB610:
 2532              	.LBB611:
 2533              	.LBB612:
 2534              	.LBB613:
 2535              	.LBB614:
 2536              		.loc 3 548 0
 2537 00b4 0023     		movs	r3, #0
 2538              		.syntax unified
 2539              	@ 548 "ChibiOS_16.1.4/os/ext/CMSIS/include/core_cmFunc.h" 1
 2540 00b6 83F31188 		MSR basepri, r3
 2541              	@ 0 "" 2
 2542              	.LVL233:
 2543              		.thumb
 2544              		.syntax unified
 2545 00ba CEE7     		b	.L220
 2546              	.L299:
 2547              	.LBE614:
 2548              	.LBE613:
 2549              	.LBE612:
 2550              	.LBE611:
 2551              	.LBE610:
 2552              	.LBE609:
 2553              		.loc 1 545 0
 2554 00bc 0023     		movs	r3, #0
 2555              		.loc 1 548 0
 2556 00be 6748     		ldr	r0, .L312
 2557              		.loc 1 545 0
 2558 00c0 F365     		str	r3, [r6, #92]
 2559              		.loc 1 548 0
 2560 00c2 FFF7FEFF 		bl	_usb_suspend
 2561              	.LVL234:
 2562 00c6 ABE7     		b	.L208
 2563              	.L298:
 2564              		.loc 1 530 0
 2565 00c8 D7F8003E 		ldr	r3, [r7, #3584]
ARM GAS  /var/folders/m4/4md61f0s1_g0rzfghffqnxvr0000gn/T//cc3uZ6EE.s 			page 46


 2566 00cc 9A07     		lsls	r2, r3, #30
 2567 00ce 05D0     		beq	.L207
 2568              		.loc 1 532 0
 2569 00d0 D7F8003E 		ldr	r3, [r7, #3584]
 2570 00d4 23F00303 		bic	r3, r3, #3
 2571 00d8 C7F8003E 		str	r3, [r7, #3584]
 2572              	.L207:
 2573              		.loc 1 536 0
 2574 00dc D7F80438 		ldr	r3, [r7, #2052]
 2575              		.loc 1 538 0
 2576 00e0 5E48     		ldr	r0, .L312
 2577              		.loc 1 536 0
 2578 00e2 43F00103 		orr	r3, r3, #1
 2579 00e6 C7F80438 		str	r3, [r7, #2052]
 2580              		.loc 1 538 0
 2581 00ea FFF7FEFF 		bl	_usb_wakeup
 2582              	.LVL235:
 2583 00ee 95E7     		b	.L206
 2584              	.L300:
 2585              	.LVL236:
 2586              	.LBB615:
 2587              	.LBB616:
 2588              		.loc 1 445 0
 2589 00f0 D6F85080 		ldr	r8, [r6, #80]
 2590              	.LVL237:
 2591 00f4 0024     		movs	r4, #0
 2592 00f6 07E0     		b	.L216
 2593              	.LVL238:
 2594              	.L212:
 2595              		.loc 1 447 0
 2596 00f8 736D     		ldr	r3, [r6, #84]
 2597 00fa 584A     		ldr	r2, .L312
 2598 00fc 9B68     		ldr	r3, [r3, #8]
 2599 00fe 0134     		adds	r4, r4, #1
 2600              	.LVL239:
 2601 0100 E4B2     		uxtb	r4, r4
 2602              	.LVL240:
 2603 0102 9C42     		cmp	r4, r3
 2604 0104 A146     		mov	r9, r4
 2605 0106 49D8     		bhi	.L310
 2606              	.LVL241:
 2607              	.L216:
 2608 0108 08EB4412 		add	r2, r8, r4, lsl #5
 2609              		.loc 1 448 0
 2610 010c D2F80039 		ldr	r3, [r2, #2304]
 2611 0110 03F44023 		and	r3, r3, #786432
 2612 0114 B3F5802F 		cmp	r3, #262144
 2613 0118 EED1     		bne	.L212
 2614              		.loc 1 449 0
 2615 011a D2F80039 		ldr	r3, [r2, #2304]
 2616              		.loc 1 448 0
 2617 011e 002B     		cmp	r3, #0
 2618 0120 EADA     		bge	.L212
 2619              		.loc 1 452 0
 2620 0122 D2F80039 		ldr	r3, [r2, #2304]
 2621 0126 43F09043 		orr	r3, r3, #1207959552
 2622 012a C2F80039 		str	r3, [r2, #2304]
ARM GAS  /var/folders/m4/4md61f0s1_g0rzfghffqnxvr0000gn/T//cc3uZ6EE.s 			page 47


 2623              	.L213:
 2624              		.loc 1 453 0
 2625 012e D2F80039 		ldr	r3, [r2, #2304]
 2626 0132 002B     		cmp	r3, #0
 2627 0134 FBDB     		blt	.L213
 2628              	.LBB617:
 2629              	.LBB618:
 2630              		.loc 1 174 0
 2631 0136 4FEA8919 		lsl	r9, r9, #6
 2632 013a 326D     		ldr	r2, [r6, #80]
 2633              	.LVL242:
 2634 013c 49F02003 		orr	r3, r9, #32
 2635 0140 1361     		str	r3, [r2, #16]
 2636              	.L214:
 2637              		.loc 1 175 0
 2638 0142 1369     		ldr	r3, [r2, #16]
 2639 0144 9906     		lsls	r1, r3, #26
 2640 0146 FCD4     		bmi	.L214
 2641              	.LVL243:
 2642              	.LBB619:
 2643              	.LBB620:
 2644              		.loc 4 573 0
 2645 0148 1220     		movs	r0, #18
 2646 014a FFF7FEFF 		bl	chSysPolledDelayX
 2647              	.LVL244:
 2648              	.LBE620:
 2649              	.LBE619:
 2650              	.LBE618:
 2651              	.LBE617:
 2652              		.loc 1 460 0
 2653 014e 06EB8403 		add	r3, r6, r4, lsl #2
 2654 0152 4FF00109 		mov	r9, #1
 2655 0156 DA68     		ldr	r2, [r3, #12]
 2656 0158 3389     		ldrh	r3, [r6, #8]
 2657 015a 9268     		ldr	r2, [r2, #8]
 2658 015c 09FA04F9 		lsl	r9, r9, r4
 2659 0160 6FEA090A 		mvn	r10, r9
 2660 0164 0AEA0303 		and	r3, r10, r3
 2661 0168 3381     		strh	r3, [r6, #8]	@ movhi
 2662 016a 12B1     		cbz	r2, .L215
 2663 016c 2146     		mov	r1, r4
 2664 016e 3B48     		ldr	r0, .L312
 2665 0170 9047     		blx	r2
 2666              	.LVL245:
 2667              	.L215:
 2668              	.LBB621:
 2669              	.LBB622:
 2670              	.LBB623:
 2671              	.LBB624:
 2672              	.LBB625:
 2673              	.LBB626:
 2674              		.loc 3 548 0
 2675 0172 2023     		movs	r3, #32
 2676              		.syntax unified
 2677              	@ 548 "ChibiOS_16.1.4/os/ext/CMSIS/include/core_cmFunc.h" 1
 2678 0174 83F31188 		MSR basepri, r3
 2679              	@ 0 "" 2
ARM GAS  /var/folders/m4/4md61f0s1_g0rzfghffqnxvr0000gn/T//cc3uZ6EE.s 			page 48


 2680              	.LVL246:
 2681              		.thumb
 2682              		.syntax unified
 2683              	.LBE626:
 2684              	.LBE625:
 2685              	.LBE624:
 2686              	.LBE623:
 2687              	.LBE622:
 2688              	.LBE621:
 2689              		.loc 1 464 0
 2690 0178 D8F83428 		ldr	r2, [r8, #2100]
 2691              		.loc 1 465 0
 2692 017c F36D     		ldr	r3, [r6, #92]
 2693              	.LBB627:
 2694              	.LBB628:
 2695              		.loc 4 728 0
 2696 017e 3848     		ldr	r0, .L312+4
 2697              	.LBE628:
 2698              	.LBE627:
 2699              		.loc 1 464 0
 2700 0180 0AEA0202 		and	r2, r10, r2
 2701              		.loc 1 465 0
 2702 0184 43EA0903 		orr	r3, r3, r9
 2703              		.loc 1 464 0
 2704 0188 C8F83428 		str	r2, [r8, #2100]
 2705              	.LBB631:
 2706              	.LBB629:
 2707              		.loc 4 728 0
 2708 018c 0021     		movs	r1, #0
 2709              	.LBE629:
 2710              	.LBE631:
 2711              		.loc 1 465 0
 2712 018e F365     		str	r3, [r6, #92]
 2713              	.LVL247:
 2714              	.LBB632:
 2715              	.LBB630:
 2716              		.loc 4 728 0
 2717 0190 FFF7FEFF 		bl	chThdResumeI
 2718              	.LVL248:
 2719              	.LBE630:
 2720              	.LBE632:
 2721              	.LBB633:
 2722              	.LBB634:
 2723              	.LBB635:
 2724              	.LBB636:
 2725              	.LBB637:
 2726              	.LBB638:
 2727              		.loc 3 548 0
 2728 0194 0023     		movs	r3, #0
 2729              		.syntax unified
 2730              	@ 548 "ChibiOS_16.1.4/os/ext/CMSIS/include/core_cmFunc.h" 1
 2731 0196 83F31188 		MSR basepri, r3
 2732              	@ 0 "" 2
 2733              	.LVL249:
 2734              		.thumb
 2735              		.syntax unified
 2736 019a ADE7     		b	.L212
ARM GAS  /var/folders/m4/4md61f0s1_g0rzfghffqnxvr0000gn/T//cc3uZ6EE.s 			page 49


 2737              	.LVL250:
 2738              	.L310:
 2739              	.LBE638:
 2740              	.LBE637:
 2741              	.LBE636:
 2742              	.LBE635:
 2743              	.LBE634:
 2744              	.LBE633:
 2745              	.LBE616:
 2746              	.LBE615:
 2747              		.loc 1 575 0
 2748 019c AB02     		lsls	r3, r5, #10
 2749 019e 7FF55AAF 		bpl	.L225
 2750              	.LVL251:
 2751              	.LBB640:
 2752              	.LBB641:
 2753              		.loc 1 481 0
 2754 01a2 D2F85080 		ldr	r8, [r2, #80]
 2755              	.LVL252:
 2756 01a6 11E0     		b	.L239
 2757              	.LVL253:
 2758              	.L297:
 2759              	.LBE641:
 2760              	.LBE640:
 2761              		.loc 1 517 0
 2762 01a8 0023     		movs	r3, #0
 2763              		.loc 1 520 0
 2764 01aa 3046     		mov	r0, r6
 2765              		.loc 1 517 0
 2766 01ac F365     		str	r3, [r6, #92]
 2767              		.loc 1 520 0
 2768 01ae FFF7FEFF 		bl	_usb_reset
 2769              	.LVL254:
 2770              	.LBE647:
 2771              	.LBE650:
 2772              		.loc 1 645 0
 2773 01b2 BDE8F047 		pop	{r4, r5, r6, r7, r8, r9, r10, lr}
 2774              		.cfi_remember_state
 2775              		.cfi_restore 4
 2776              		.cfi_restore 5
 2777              		.cfi_restore 6
 2778              		.cfi_restore 7
 2779              		.cfi_restore 8
 2780              		.cfi_restore 9
 2781              		.cfi_restore 10
 2782              		.cfi_restore 14
 2783              		.cfi_def_cfa_offset 0
 2784              		.loc 1 644 0
 2785 01b6 FFF7FEBF 		b	_port_irq_epilogue
 2786              	.LVL255:
 2787              	.L309:
 2788              		.cfi_restore_state
 2789              	.LBB651:
 2790              	.LBB648:
 2791              		.loc 1 615 0
 2792 01ba 0320     		movs	r0, #3
 2793 01bc FFF7FEFF 		bl	otg_epout_handler.constprop.9
ARM GAS  /var/folders/m4/4md61f0s1_g0rzfghffqnxvr0000gn/T//cc3uZ6EE.s 			page 50


 2794              	.LVL256:
 2795              	.LBE648:
 2796              	.LBE651:
 2797              		.loc 1 645 0
 2798 01c0 BDE8F047 		pop	{r4, r5, r6, r7, r8, r9, r10, lr}
 2799              		.cfi_remember_state
 2800              		.cfi_restore 4
 2801              		.cfi_restore 5
 2802              		.cfi_restore 6
 2803              		.cfi_restore 7
 2804              		.cfi_restore 8
 2805              		.cfi_restore 9
 2806              		.cfi_restore 10
 2807              		.cfi_restore 14
 2808              		.cfi_def_cfa_offset 0
 2809              		.loc 1 644 0
 2810 01c4 FFF7FEBF 		b	_port_irq_epilogue
 2811              	.LVL257:
 2812              	.L218:
 2813              		.cfi_restore_state
 2814              	.LBB652:
 2815              	.LBB649:
 2816              	.LBB644:
 2817              	.LBB642:
 2818              		.loc 1 481 0
 2819 01c8 D6F85080 		ldr	r8, [r6, #80]
 2820              	.LVL258:
 2821              	.L239:
 2822              	.LBE642:
 2823              	.LBE644:
 2824              	.LBB645:
 2825              	.LBB639:
 2826              		.loc 1 445 0
 2827 01cc 0024     		movs	r4, #0
 2828              	.LBE639:
 2829              	.LBE645:
 2830              	.LBB646:
 2831              	.LBB643:
 2832              		.loc 1 493 0
 2833 01ce 4FF00109 		mov	r9, #1
 2834 01d2 06E0     		b	.L224
 2835              	.LVL259:
 2836              	.L222:
 2837              		.loc 1 483 0
 2838 01d4 736D     		ldr	r3, [r6, #84]
 2839 01d6 0134     		adds	r4, r4, #1
 2840              	.LVL260:
 2841 01d8 9B68     		ldr	r3, [r3, #8]
 2842 01da E4B2     		uxtb	r4, r4
 2843              	.LVL261:
 2844 01dc 9C42     		cmp	r4, r3
 2845 01de 3FF63AAF 		bhi	.L225
 2846              	.LVL262:
 2847              	.L224:
 2848 01e2 08EB4412 		add	r2, r8, r4, lsl #5
 2849              		.loc 1 484 0
 2850 01e6 D2F8003B 		ldr	r3, [r2, #2816]
ARM GAS  /var/folders/m4/4md61f0s1_g0rzfghffqnxvr0000gn/T//cc3uZ6EE.s 			page 51


 2851 01ea 03F44023 		and	r3, r3, #786432
 2852 01ee B3F5802F 		cmp	r3, #262144
 2853 01f2 EFD1     		bne	.L222
 2854              		.loc 1 485 0
 2855 01f4 D2F8003B 		ldr	r3, [r2, #2816]
 2856              		.loc 1 484 0
 2857 01f8 002B     		cmp	r3, #0
 2858 01fa EBDA     		bge	.L222
 2859              		.loc 1 493 0
 2860 01fc 06EB8402 		add	r2, r6, r4, lsl #2
 2861 0200 7389     		ldrh	r3, [r6, #10]
 2862 0202 D268     		ldr	r2, [r2, #12]
 2863 0204 1548     		ldr	r0, .L312
 2864 0206 D268     		ldr	r2, [r2, #12]
 2865 0208 09FA04F1 		lsl	r1, r9, r4
 2866 020c 23EA0103 		bic	r3, r3, r1
 2867 0210 7381     		strh	r3, [r6, #10]	@ movhi
 2868 0212 2146     		mov	r1, r4
 2869 0214 002A     		cmp	r2, #0
 2870 0216 DDD0     		beq	.L222
 2871 0218 9047     		blx	r2
 2872              	.LVL263:
 2873 021a DBE7     		b	.L222
 2874              	.LVL264:
 2875              	.L305:
 2876              	.LBE643:
 2877              	.LBE646:
 2878              		.loc 1 599 0
 2879 021c 0320     		movs	r0, #3
 2880 021e FFF7FEFF 		bl	otg_epin_handler.constprop.10
 2881              	.LVL265:
 2882              		.loc 1 607 0
 2883 0222 2F03     		lsls	r7, r5, #12
 2884              	.LVL266:
 2885 0224 7FF537AF 		bpl	.L205
 2886 0228 29E7     		b	.L311
 2887              	.LVL267:
 2888              	.L308:
 2889              		.loc 1 613 0
 2890 022a 0220     		movs	r0, #2
 2891 022c FFF7FEFF 		bl	otg_epout_handler.constprop.9
 2892              	.LVL268:
 2893 0230 2EE7     		b	.L235
 2894              	.L307:
 2895              		.loc 1 611 0
 2896 0232 0120     		movs	r0, #1
 2897 0234 FFF7FEFF 		bl	otg_epout_handler.constprop.9
 2898              	.LVL269:
 2899 0238 27E7     		b	.L234
 2900              	.LVL270:
 2901              	.L306:
 2902              		.loc 1 609 0
 2903 023a 0020     		movs	r0, #0
 2904 023c FFF7FEFF 		bl	otg_epout_handler.constprop.9
 2905              	.LVL271:
 2906 0240 20E7     		b	.L233
 2907              	.LVL272:
ARM GAS  /var/folders/m4/4md61f0s1_g0rzfghffqnxvr0000gn/T//cc3uZ6EE.s 			page 52


 2908              	.L304:
 2909              		.loc 1 597 0
 2910 0242 0220     		movs	r0, #2
 2911 0244 FFF7FEFF 		bl	otg_epin_handler.constprop.10
 2912              	.LVL273:
 2913 0248 14E7     		b	.L230
 2914              	.L303:
 2915              		.loc 1 595 0
 2916 024a 0120     		movs	r0, #1
 2917 024c FFF7FEFF 		bl	otg_epin_handler.constprop.10
 2918              	.LVL274:
 2919 0250 0DE7     		b	.L229
 2920              	.L302:
 2921              		.loc 1 593 0
 2922 0252 0020     		movs	r0, #0
 2923 0254 FFF7FEFF 		bl	otg_epin_handler.constprop.10
 2924              	.LVL275:
 2925 0258 06E7     		b	.L228
 2926              	.L313:
 2927 025a 00BF     		.align	2
 2928              	.L312:
 2929 025c 00000000 		.word	.LANCHOR0
 2930 0260 60000000 		.word	.LANCHOR0+96
 2931              	.LBE649:
 2932              	.LBE652:
 2933              		.cfi_endproc
 2934              	.LFE283:
 2935              		.size	Vector14C, .-Vector14C
 2936              		.section	.text.usb_lld_stall_out,"ax",%progbits
 2937              		.align	2
 2938              		.p2align 4,,15
 2939              		.global	usb_lld_stall_out
 2940              		.thumb
 2941              		.thumb_func
 2942              		.type	usb_lld_stall_out, %function
 2943              	usb_lld_stall_out:
 2944              	.LFB296:
 2945              		.loc 1 1230 0
 2946              		.cfi_startproc
 2947              		@ args = 0, pretend = 0, frame = 0
 2948              		@ frame_needed = 0, uses_anonymous_args = 0
 2949              		@ link register save eliminated.
 2950              	.LVL276:
 2951 0000 036D     		ldr	r3, [r0, #80]
 2952 0002 03EB4111 		add	r1, r3, r1, lsl #5
 2953              	.LVL277:
 2954              		.loc 1 1232 0
 2955 0006 D1F8003B 		ldr	r3, [r1, #2816]
 2956 000a 43F40013 		orr	r3, r3, #2097152
 2957 000e C1F8003B 		str	r3, [r1, #2816]
 2958 0012 7047     		bx	lr
 2959              		.cfi_endproc
 2960              	.LFE296:
 2961              		.size	usb_lld_stall_out, .-usb_lld_stall_out
 2962              		.section	.text.usb_lld_stall_in,"ax",%progbits
 2963              		.align	2
 2964              		.p2align 4,,15
ARM GAS  /var/folders/m4/4md61f0s1_g0rzfghffqnxvr0000gn/T//cc3uZ6EE.s 			page 53


 2965              		.global	usb_lld_stall_in
 2966              		.thumb
 2967              		.thumb_func
 2968              		.type	usb_lld_stall_in, %function
 2969              	usb_lld_stall_in:
 2970              	.LFB297:
 2971              		.loc 1 1243 0
 2972              		.cfi_startproc
 2973              		@ args = 0, pretend = 0, frame = 0
 2974              		@ frame_needed = 0, uses_anonymous_args = 0
 2975              		@ link register save eliminated.
 2976              	.LVL278:
 2977 0000 036D     		ldr	r3, [r0, #80]
 2978 0002 03EB4111 		add	r1, r3, r1, lsl #5
 2979              	.LVL279:
 2980              		.loc 1 1245 0
 2981 0006 D1F80039 		ldr	r3, [r1, #2304]
 2982 000a 43F40013 		orr	r3, r3, #2097152
 2983 000e C1F80039 		str	r3, [r1, #2304]
 2984 0012 7047     		bx	lr
 2985              		.cfi_endproc
 2986              	.LFE297:
 2987              		.size	usb_lld_stall_in, .-usb_lld_stall_in
 2988              		.section	.text.usb_lld_clear_out,"ax",%progbits
 2989              		.align	2
 2990              		.p2align 4,,15
 2991              		.global	usb_lld_clear_out
 2992              		.thumb
 2993              		.thumb_func
 2994              		.type	usb_lld_clear_out, %function
 2995              	usb_lld_clear_out:
 2996              	.LFB298:
 2997              		.loc 1 1256 0
 2998              		.cfi_startproc
 2999              		@ args = 0, pretend = 0, frame = 0
 3000              		@ frame_needed = 0, uses_anonymous_args = 0
 3001              		@ link register save eliminated.
 3002              	.LVL280:
 3003 0000 036D     		ldr	r3, [r0, #80]
 3004 0002 03EB4111 		add	r1, r3, r1, lsl #5
 3005              	.LVL281:
 3006              		.loc 1 1258 0
 3007 0006 D1F8003B 		ldr	r3, [r1, #2816]
 3008 000a 23F40013 		bic	r3, r3, #2097152
 3009 000e C1F8003B 		str	r3, [r1, #2816]
 3010 0012 7047     		bx	lr
 3011              		.cfi_endproc
 3012              	.LFE298:
 3013              		.size	usb_lld_clear_out, .-usb_lld_clear_out
 3014              		.section	.text.usb_lld_clear_in,"ax",%progbits
 3015              		.align	2
 3016              		.p2align 4,,15
 3017              		.global	usb_lld_clear_in
 3018              		.thumb
 3019              		.thumb_func
 3020              		.type	usb_lld_clear_in, %function
 3021              	usb_lld_clear_in:
ARM GAS  /var/folders/m4/4md61f0s1_g0rzfghffqnxvr0000gn/T//cc3uZ6EE.s 			page 54


 3022              	.LFB299:
 3023              		.loc 1 1269 0
 3024              		.cfi_startproc
 3025              		@ args = 0, pretend = 0, frame = 0
 3026              		@ frame_needed = 0, uses_anonymous_args = 0
 3027              		@ link register save eliminated.
 3028              	.LVL282:
 3029 0000 036D     		ldr	r3, [r0, #80]
 3030 0002 03EB4111 		add	r1, r3, r1, lsl #5
 3031              	.LVL283:
 3032              		.loc 1 1271 0
 3033 0006 D1F80039 		ldr	r3, [r1, #2304]
 3034 000a 23F40013 		bic	r3, r3, #2097152
 3035 000e C1F80039 		str	r3, [r1, #2304]
 3036 0012 7047     		bx	lr
 3037              		.cfi_endproc
 3038              	.LFE299:
 3039              		.size	usb_lld_clear_in, .-usb_lld_clear_in
 3040              		.global	USBD1
 3041              		.section	.rodata.fsparams,"a",%progbits
 3042              		.align	2
 3043              		.set	.LANCHOR1,. + 0
 3044              		.type	fsparams, %object
 3045              		.size	fsparams, 12
 3046              	fsparams:
 3047 0000 80000000 		.word	128
 3048 0004 40010000 		.word	320
 3049 0008 03000000 		.word	3
 3050              		.section	.bss.USBD1,"aw",%nobits
 3051              		.align	3
 3052              		.set	.LANCHOR0,. + 0
 3053              		.type	USBD1, %object
 3054              		.size	USBD1, 640
 3055              	USBD1:
 3056 0000 00000000 		.space	640
 3056      00000000 
 3056      00000000 
 3056      00000000 
 3056      00000000 
 3057              		.section	.rodata.str1.4,"aMS",%progbits,1
 3058              		.align	2
 3059              	.LC0:
 3060 0000 7573625F 		.ascii	"usb_lld_pump\000"
 3060      6C6C645F 
 3060      70756D70 
 3060      00
 3061              		.section	.rodata.ep0config,"a",%progbits
 3062              		.align	2
 3063              		.set	.LANCHOR2,. + 0
 3064              		.type	ep0config, %object
 3065              		.size	ep0config, 36
 3066              	ep0config:
 3067 0000 00000000 		.word	0
 3068 0004 00000000 		.word	_usb_ep0setup
 3069 0008 00000000 		.word	_usb_ep0in
 3070 000c 00000000 		.word	_usb_ep0out
 3071 0010 4000     		.short	64
ARM GAS  /var/folders/m4/4md61f0s1_g0rzfghffqnxvr0000gn/T//cc3uZ6EE.s 			page 55


 3072 0012 4000     		.short	64
 3073 0014 00000000 		.word	ep0_state
 3074 0018 00000000 		.word	ep0_state
 3075 001c 0100     		.short	1
 3076 001e 0000     		.space	2
 3077 0020 00000000 		.word	ep0setup_buffer
 3078              		.section	.bss.ep0_state,"aw",%nobits
 3079              		.align	2
 3080              		.type	ep0_state, %object
 3081              		.size	ep0_state, 16
 3082              	ep0_state:
 3083 0000 00000000 		.space	16
 3083      00000000 
 3083      00000000 
 3083      00000000 
 3084              		.section	.bss.ep0setup_buffer,"aw",%nobits
 3085              		.align	2
 3086              		.type	ep0setup_buffer, %object
 3087              		.size	ep0setup_buffer, 8
 3088              	ep0setup_buffer:
 3089 0000 00000000 		.space	8
 3089      00000000 
 3090              		.text
 3091              	.Letext0:
 3092              		.file 6 "/opt/homebrew-cask/Caskroom/gcc-arm-embedded/5_2-2015q4,20151219/gcc-arm-none-eabi-5_2-20
 3093              		.file 7 "/opt/homebrew-cask/Caskroom/gcc-arm-embedded/5_2-2015q4,20151219/gcc-arm-none-eabi-5_2-20
 3094              		.file 8 "/opt/homebrew-cask/Caskroom/gcc-arm-embedded/5_2-2015q4,20151219/gcc-arm-none-eabi-5_2-20
 3095              		.file 9 "ChibiOS_16.1.4/os/rt/ports/ARMCMx/compilers/GCC/chtypes.h"
 3096              		.file 10 "ChibiOS_16.1.4/os/rt/include/chsystypes.h"
 3097              		.file 11 "ChibiOS_16.1.4/os/rt/include/chschd.h"
 3098              		.file 12 "ChibiOS_16.1.4/os/ext/CMSIS/ST/STM32F4xx/stm32f405xx.h"
 3099              		.file 13 "ChibiOS_16.1.4/os/rt/ports/ARMCMx/chcore.h"
 3100              		.file 14 "ChibiOS_16.1.4/os/rt/ports/ARMCMx/chcore_v7m.h"
 3101              		.file 15 "ChibiOS_16.1.4/os/rt/include/chtm.h"
 3102              		.file 16 "ChibiOS_16.1.4/os/rt/include/chsem.h"
 3103              		.file 17 "ChibiOS_16.1.4/os/rt/include/chmtx.h"
 3104              		.file 18 "ChibiOS_16.1.4/os/hal/include/usb.h"
 3105              		.file 19 "ChibiOS_16.1.4/os/hal/ports/STM32/LLD/OTGv1/usb_lld.h"
 3106              		.file 20 "ChibiOS_16.1.4/os/hal/ports/STM32/LLD/OTGv1/stm32_otg.h"
 3107              		.file 21 "ChibiOS_16.1.4/os/rt/include/chsys.h"
 3108              		.file 22 "ChibiOS_16.1.4/os/ext/CMSIS/include/core_cm4.h"
 3109              		.file 23 "ChibiOS_16.1.4/os/hal/ports/common/ARMCMx/nvic.h"