ARM GAS  /var/folders/m4/4md61f0s1_g0rzfghffqnxvr0000gn/T//ccGOOKyv.s 			page 1


   1              		.syntax unified
   2              		.cpu cortex-m4
   3              		.eabi_attribute 27, 1
   4              		.eabi_attribute 28, 1
   5              		.fpu fpv4-sp-d16
   6              		.eabi_attribute 20, 1
   7              		.eabi_attribute 21, 1
   8              		.eabi_attribute 23, 3
   9              		.eabi_attribute 24, 1
  10              		.eabi_attribute 25, 1
  11              		.eabi_attribute 26, 1
  12              		.eabi_attribute 30, 2
  13              		.eabi_attribute 34, 1
  14              		.eabi_attribute 18, 4
  15              		.thumb
  16              		.syntax unified
  17              		.file	"ws2812b.cpp"
  18              		.text
  19              	.Ltext0:
  20              		.cfi_sections	.debug_frame
  21              		.section	.text._ZN7WS2812BC2Ev,"ax",%progbits
  22              		.align	2
  23              		.p2align 4,,15
  24              		.global	_ZN7WS2812BC2Ev
  25              		.thumb
  26              		.thumb_func
  27              		.type	_ZN7WS2812BC2Ev, %function
  28              	_ZN7WS2812BC2Ev:
  29              	.LFB269:
  30              		.file 1 "ws2812b.cpp"
  31              		.loc 1 7 0
  32              		.cfi_startproc
  33              		@ args = 0, pretend = 0, frame = 96
  34              		@ frame_needed = 0, uses_anonymous_args = 0
  35              	.LVL0:
  36 0000 F0B5     		push	{r4, r5, r6, r7, lr}
  37              		.cfi_def_cfa_offset 20
  38              		.cfi_offset 4, -20
  39              		.cfi_offset 5, -16
  40              		.cfi_offset 6, -12
  41              		.cfi_offset 7, -8
  42              		.cfi_offset 14, -4
  43 0002 2DED028B 		vpush.64	{d8}
  44              		.cfi_def_cfa_offset 28
  45              		.cfi_offset 80, -28
  46              		.cfi_offset 81, -24
  47              	.LBB15:
  48              		.loc 1 16 0
  49 0006 0023     		movs	r3, #0
  50 0008 C0F85431 		str	r3, [r0, #340]
  51              	.LVL1:
  52 000c C0F85831 		str	r3, [r0, #344]
  53              	.LVL2:
  54 0010 C0F85C31 		str	r3, [r0, #348]
  55              	.LVL3:
  56 0014 C0F86031 		str	r3, [r0, #352]
  57              	.LVL4:
ARM GAS  /var/folders/m4/4md61f0s1_g0rzfghffqnxvr0000gn/T//ccGOOKyv.s 			page 2


  58 0018 C0F86431 		str	r3, [r0, #356]
  59              	.LVL5:
  60              	.LBE15:
  61              		.loc 1 7 0
  62 001c 0646     		mov	r6, r0
  63              	.LBB20:
  64              		.loc 1 16 0
  65 001e 1D46     		mov	r5, r3
  66 0020 1946     		mov	r1, r3
  67 0022 00F5AA77 		add	r7, r0, #340
  68 0026 0346     		mov	r3, r0
  69              	.LBE20:
  70              		.loc 1 7 0
  71 0028 99B0     		sub	sp, sp, #100
  72              		.cfi_def_cfa_offset 128
  73              	.LBB21:
  74              	.LBB16:
  75              	.LBB17:
  76              		.loc 1 26 0
  77 002a 2124     		movs	r4, #33
  78              		.loc 1 24 0
  79 002c 4220     		movs	r0, #66
  80              	.LVL6:
  81              	.L6:
  82              	.LBB18:
  83              	.LBB19:
  84              		.loc 1 165 0
  85 002e C1F30742 		ubfx	r2, r1, #16, #8
  86              		.loc 1 166 0
  87 0032 C1F3072E 		ubfx	lr, r1, #8, #8
  88              		.loc 1 165 0
  89 0036 3244     		add	r2, r2, r6
  90              		.loc 1 166 0
  91 0038 B644     		add	lr, lr, r6
  92              		.loc 1 165 0
  93 003a 92F86821 		ldrb	r2, [r2, #360]	@ zero_extendqisi2
  94              	.LVL7:
  95              		.loc 1 166 0
  96 003e 9EF868E1 		ldrb	lr, [lr, #360]	@ zero_extendqisi2
  97              	.LVL8:
  98              		.loc 1 167 0
  99 0042 56FA81F1 		uxtab	r1, r6, r1
 100              	.LVL9:
 101              		.loc 1 169 0
 102 0046 1202     		lsls	r2, r2, #8
 103              	.LVL10:
 104              		.loc 1 167 0
 105 0048 91F86811 		ldrb	r1, [r1, #360]	@ zero_extendqisi2
 106              	.LVL11:
 107              		.loc 1 169 0
 108 004c 42EA0E42 		orr	r2, r2, lr, lsl #16
 109 0050 0A43     		orrs	r2, r2, r1
 110              	.LVL12:
 111 0052 03F13001 		add	r1, r3, #48
 112              	.LVL13:
 113              	.L4:
 114              	.LBE19:
ARM GAS  /var/folders/m4/4md61f0s1_g0rzfghffqnxvr0000gn/T//ccGOOKyv.s 			page 3


 115              	.LBE18:
 116              		.loc 1 23 0
 117 0056 12F4000F 		tst	r2, #8388608
 118              		.loc 1 24 0
 119 005a 14BF     		ite	ne
 120 005c 1880     		strhne	r0, [r3]	@ movhi
 121              		.loc 1 26 0
 122 005e 1C80     		strheq	r4, [r3]	@ movhi
 123 0060 0233     		adds	r3, r3, #2
 124              		.loc 1 22 0
 125 0062 8B42     		cmp	r3, r1
 126              		.loc 1 28 0
 127 0064 4FEA4202 		lsl	r2, r2, #1
 128              	.LVL14:
 129              		.loc 1 22 0
 130 0068 F5D1     		bne	.L4
 131 006a 1835     		adds	r5, r5, #24
 132              	.LBE17:
 133              		.loc 1 19 0 discriminator 2
 134 006c 782D     		cmp	r5, #120
 135 006e 02D0     		beq	.L5
 136 0070 57F8041F 		ldr	r1, [r7, #4]!
 137 0074 DBE7     		b	.L6
 138              	.L5:
 139 0076 06F1EC03 		add	r3, r6, #236
 140 007a 06F5A871 		add	r1, r6, #336
 141              	.LBE16:
 142              		.loc 1 35 0 discriminator 2
 143 007e 0022     		movs	r2, #0
 144              	.LVL15:
 145              	.L7:
 146 0080 23F8022F 		strh	r2, [r3, #2]!	@ movhi
 147              		.loc 1 34 0 discriminator 2
 148 0084 9942     		cmp	r1, r3
 149 0086 FBD1     		bne	.L7
 150              		.loc 1 40 0 discriminator 2
 151 0088 9FED438A 		vldr.32	s16, .L14
 152 008c 06F26715 		addw	r5, r6, #359
 153              		.loc 1 34 0 discriminator 2
 154 0090 0024     		movs	r4, #0
 155              	.L8:
 156              	.LVL16:
 157              		.loc 1 40 0 discriminator 2
 158 0092 07EE904A 		vmov	s15, r4	@ int
 159 0096 B8EEE70A 		vcvt.f32.s32	s0, s15
 160 009a DFED400A 		vldr.32	s1, .L14+4
 161 009e 80EE080A 		vdiv.f32	s0, s0, s16
 162 00a2 FFF7FEFF 		bl	powf
 163              	.LVL17:
 164              		.loc 1 39 0 discriminator 2
 165 00a6 0134     		adds	r4, r4, #1
 166              	.LVL18:
 167              		.loc 1 40 0 discriminator 2
 168 00a8 20EE080A 		vmul.f32	s0, s0, s16
 169 00ac FFF7FEFF 		bl	roundf
 170              	.LVL19:
 171 00b0 FDEEC07A 		vcvt.s32.f32	s15, s0
ARM GAS  /var/folders/m4/4md61f0s1_g0rzfghffqnxvr0000gn/T//ccGOOKyv.s 			page 4


 172              		.loc 1 39 0 discriminator 2
 173 00b4 B4F5807F 		cmp	r4, #256
 174              		.loc 1 40 0 discriminator 2
 175 00b8 17EE903A 		vmov	r3, s15	@ int
 176 00bc 05F8013F 		strb	r3, [r5, #1]!
 177              		.loc 1 39 0 discriminator 2
 178 00c0 E7D1     		bne	.L8
 179              		.loc 1 46 0
 180 00c2 4FF48572 		mov	r2, #266
 181 00c6 2146     		mov	r1, r4
 182 00c8 3548     		ldr	r0, .L14+8
 183              		.loc 1 52 0
 184 00ca 364F     		ldr	r7, .L14+12
 185              		.loc 1 46 0
 186 00cc FFF7FEFF 		bl	_pal_lld_setgroupmode
 187              	.LVL20:
 188              		.loc 1 49 0
 189 00d0 0121     		movs	r1, #1
 190 00d2 4FF40010 		mov	r0, #2097152
 191 00d6 FFF7FEFF 		bl	RCC_AHB1PeriphClockCmd
 192              	.LVL21:
 193              		.loc 1 51 0
 194 00da 3348     		ldr	r0, .L14+16
 195 00dc FFF7FEFF 		bl	DMA_DeInit
 196              	.LVL22:
 197              		.loc 1 56 0
 198 00e0 4022     		movs	r2, #64
 199              		.loc 1 57 0
 200 00e2 AA23     		movs	r3, #170
 201              		.loc 1 59 0
 202 00e4 4FF48061 		mov	r1, #1024
 203              		.loc 1 54 0
 204 00e8 4FF0806E 		mov	lr, #67108864
 205              		.loc 1 58 0
 206 00ec 0025     		movs	r5, #0
 207              		.loc 1 62 0
 208 00ee 1294     		str	r4, [sp, #72]
 209              		.loc 1 52 0
 210 00f0 0A97     		str	r7, [sp, #40]
 211              		.loc 1 56 0
 212 00f2 0C92     		str	r2, [sp, #48]
 213              		.loc 1 60 0
 214 00f4 4FF40067 		mov	r7, #2048
 215              		.loc 1 63 0
 216 00f8 4FF40032 		mov	r2, #131072
 217              		.loc 1 57 0
 218 00fc 0D93     		str	r3, [sp, #52]
 219              		.loc 1 59 0
 220 00fe 0F91     		str	r1, [sp, #60]
 221              		.loc 1 65 0
 222 0100 0323     		movs	r3, #3
 223              		.loc 1 69 0
 224 0102 09A9     		add	r1, sp, #36
 225 0104 2848     		ldr	r0, .L14+16
 226              		.loc 1 54 0
 227 0106 CDF824E0 		str	lr, [sp, #36]
 228              		.loc 1 61 0
ARM GAS  /var/folders/m4/4md61f0s1_g0rzfghffqnxvr0000gn/T//ccGOOKyv.s 			page 5


 229 010a 4FF40054 		mov	r4, #8192
 230              	.LVL23:
 231              		.loc 1 63 0
 232 010e 1392     		str	r2, [sp, #76]
 233              		.loc 1 65 0
 234 0110 1593     		str	r3, [sp, #84]
 235              		.loc 1 61 0
 236 0112 1194     		str	r4, [sp, #68]
 237              		.loc 1 55 0
 238 0114 0B96     		str	r6, [sp, #44]
 239              		.loc 1 58 0
 240 0116 0E95     		str	r5, [sp, #56]
 241              		.loc 1 64 0
 242 0118 1495     		str	r5, [sp, #80]
 243              		.loc 1 66 0
 244 011a 1695     		str	r5, [sp, #88]
 245              		.loc 1 67 0
 246 011c 1795     		str	r5, [sp, #92]
 247              		.loc 1 60 0
 248 011e 1097     		str	r7, [sp, #64]
 249              		.loc 1 69 0
 250 0120 FFF7FEFF 		bl	DMA_Init
 251              	.LVL24:
 252              		.loc 1 71 0
 253 0124 0121     		movs	r1, #1
 254 0126 0420     		movs	r0, #4
 255 0128 FFF7FEFF 		bl	RCC_APB1PeriphClockCmd
 256              	.LVL25:
 257              		.loc 1 76 0
 258 012c 6823     		movs	r3, #104
 259              		.loc 1 80 0
 260 012e 01A9     		add	r1, sp, #4
 261 0130 1E48     		ldr	r0, .L14+20
 262              		.loc 1 76 0
 263 0132 0293     		str	r3, [sp, #8]
 264              		.loc 1 84 0
 265 0134 0124     		movs	r4, #1
 266              		.loc 1 74 0
 267 0136 ADF80450 		strh	r5, [sp, #4]	@ movhi
 268              		.loc 1 75 0
 269 013a ADF80650 		strh	r5, [sp, #6]	@ movhi
 270              		.loc 1 77 0
 271 013e ADF80C50 		strh	r5, [sp, #12]	@ movhi
 272              		.loc 1 78 0
 273 0142 8DF80E50 		strb	r5, [sp, #14]
 274              		.loc 1 80 0
 275 0146 FFF7FEFF 		bl	TIM_TimeBaseInit
 276              	.LVL26:
 277              		.loc 1 85 0
 278 014a 3388     		ldrh	r3, [r6]
 279              		.loc 1 88 0
 280 014c 1748     		ldr	r0, .L14+20
 281              		.loc 1 85 0
 282 014e 0693     		str	r3, [sp, #24]
 283              		.loc 1 83 0
 284 0150 6022     		movs	r2, #96
 285              		.loc 1 88 0
ARM GAS  /var/folders/m4/4md61f0s1_g0rzfghffqnxvr0000gn/T//ccGOOKyv.s 			page 6


 286 0152 04A9     		add	r1, sp, #16
 287              		.loc 1 83 0
 288 0154 ADF81020 		strh	r2, [sp, #16]	@ movhi
 289              		.loc 1 86 0
 290 0158 ADF81C50 		strh	r5, [sp, #28]	@ movhi
 291              		.loc 1 84 0
 292 015c ADF81240 		strh	r4, [sp, #18]	@ movhi
 293              		.loc 1 88 0
 294 0160 FFF7FEFF 		bl	TIM_OC3Init
 295              	.LVL27:
 296              		.loc 1 89 0
 297 0164 0821     		movs	r1, #8
 298 0166 1148     		ldr	r0, .L14+20
 299 0168 FFF7FEFF 		bl	TIM_OC3PreloadConfig
 300              	.LVL28:
 301              		.loc 1 92 0
 302 016c 2146     		mov	r1, r4
 303 016e 0F48     		ldr	r0, .L14+20
 304 0170 FFF7FEFF 		bl	TIM_Cmd
 305              	.LVL29:
 306              		.loc 1 94 0
 307 0174 2146     		mov	r1, r4
 308 0176 0C48     		ldr	r0, .L14+16
 309 0178 FFF7FEFF 		bl	DMA_Cmd
 310              	.LVL30:
 311              		.loc 1 97 0
 312 017c 2246     		mov	r2, r4
 313 017e 3946     		mov	r1, r7
 314 0180 0A48     		ldr	r0, .L14+20
 315 0182 FFF7FEFF 		bl	TIM_DMACmd
 316              	.LVL31:
 317              		.loc 1 100 0
 318 0186 2146     		mov	r1, r4
 319 0188 0848     		ldr	r0, .L14+20
 320 018a FFF7FEFF 		bl	TIM_CtrlPWMOutputs
 321              	.LVL32:
 322              	.LBE21:
 323              		.loc 1 101 0
 324 018e 3046     		mov	r0, r6
 325 0190 19B0     		add	sp, sp, #100
 326              		.cfi_def_cfa_offset 28
 327              		@ sp needed
 328 0192 BDEC028B 		vldm	sp!, {d8}
 329              		.cfi_restore 80
 330              		.cfi_restore 81
 331              		.cfi_def_cfa_offset 20
 332 0196 F0BD     		pop	{r4, r5, r6, r7, pc}
 333              	.LVL33:
 334              	.L15:
 335              		.align	2
 336              	.L14:
 337 0198 00007F43 		.word	1132396544
 338 019c E4380E40 		.word	1074673892
 339 01a0 00040240 		.word	1073873920
 340 01a4 3C080040 		.word	1073743932
 341 01a8 B8600240 		.word	1073897656
 342 01ac 00080040 		.word	1073743872
ARM GAS  /var/folders/m4/4md61f0s1_g0rzfghffqnxvr0000gn/T//ccGOOKyv.s 			page 7


 343              		.cfi_endproc
 344              	.LFE269:
 345              		.size	_ZN7WS2812BC2Ev, .-_ZN7WS2812BC2Ev
 346              		.global	_ZN7WS2812BC1Ev
 347              		.thumb_set _ZN7WS2812BC1Ev,_ZN7WS2812BC2Ev
 348              		.section	.text._ZN7WS2812B11SetLEDColorEim,"ax",%progbits
 349              		.align	2
 350              		.p2align 4,,15
 351              		.global	_ZN7WS2812B11SetLEDColorEim
 352              		.thumb
 353              		.thumb_func
 354              		.type	_ZN7WS2812B11SetLEDColorEim, %function
 355              	_ZN7WS2812B11SetLEDColorEim:
 356              	.LFB271:
 357              		.loc 1 103 0
 358              		.cfi_startproc
 359              		@ args = 0, pretend = 0, frame = 0
 360              		@ frame_needed = 0, uses_anonymous_args = 0
 361              		@ link register save eliminated.
 362              	.LVL34:
 363              	.LBB22:
 364              		.loc 1 104 0
 365 0000 0329     		cmp	r1, #3
 366 0002 29DC     		bgt	.L25
 367              	.LBE22:
 368              		.loc 1 103 0
 369 0004 30B4     		push	{r4, r5}
 370              		.cfi_def_cfa_offset 8
 371              		.cfi_offset 4, -8
 372              		.cfi_offset 5, -4
 373              	.LBB30:
 374              	.LBB23:
 375              	.LBB24:
 376              	.LBB25:
 377              		.loc 1 165 0
 378 0006 C2F30743 		ubfx	r3, r2, #16, #8
 379              	.LBE25:
 380              	.LBE24:
 381              		.loc 1 105 0
 382 000a 00EB8105 		add	r5, r0, r1, lsl #2
 383              	.LBB28:
 384              	.LBB26:
 385              		.loc 1 165 0
 386 000e 0344     		add	r3, r3, r0
 387              		.loc 1 166 0
 388 0010 C2F30724 		ubfx	r4, r2, #8, #8
 389              	.LBE26:
 390              	.LBE28:
 391              		.loc 1 105 0
 392 0014 C5F85421 		str	r2, [r5, #340]
 393              	.LVL35:
 394              	.LBB29:
 395              	.LBB27:
 396              		.loc 1 166 0
 397 0018 0444     		add	r4, r4, r0
 398              		.loc 1 167 0
 399 001a 50FA82F2 		uxtab	r2, r0, r2
ARM GAS  /var/folders/m4/4md61f0s1_g0rzfghffqnxvr0000gn/T//ccGOOKyv.s 			page 8


 400              	.LVL36:
 401              		.loc 1 165 0
 402 001e 93F86831 		ldrb	r3, [r3, #360]	@ zero_extendqisi2
 403              	.LVL37:
 404              		.loc 1 166 0
 405 0022 94F86841 		ldrb	r4, [r4, #360]	@ zero_extendqisi2
 406              	.LVL38:
 407              		.loc 1 167 0
 408 0026 92F86821 		ldrb	r2, [r2, #360]	@ zero_extendqisi2
 409              	.LVL39:
 410 002a 01EB4101 		add	r1, r1, r1, lsl #1
 411              	.LVL40:
 412 002e 0901     		lsls	r1, r1, #4
 413              		.loc 1 169 0
 414 0030 1B02     		lsls	r3, r3, #8
 415              	.LVL41:
 416 0032 43EA0443 		orr	r3, r3, r4, lsl #16
 417 0036 01F13004 		add	r4, r1, #48
 418              	.LVL42:
 419 003a 1343     		orrs	r3, r3, r2
 420              	.LVL43:
 421 003c 0219     		adds	r2, r0, r4
 422 003e 0844     		add	r0, r0, r1
 423              	.LVL44:
 424              	.LBE27:
 425              	.LBE29:
 426              		.loc 1 114 0
 427 0040 2124     		movs	r4, #33
 428              		.loc 1 112 0
 429 0042 4221     		movs	r1, #66
 430              	.LVL45:
 431              	.L21:
 432              		.loc 1 111 0
 433 0044 1D02     		lsls	r5, r3, #8
 434              		.loc 1 112 0
 435 0046 4CBF     		ite	mi
 436 0048 0180     		strhmi	r1, [r0]	@ movhi
 437              		.loc 1 114 0
 438 004a 0480     		strhpl	r4, [r0]	@ movhi
 439 004c 0230     		adds	r0, r0, #2
 440              		.loc 1 110 0
 441 004e 9042     		cmp	r0, r2
 442              		.loc 1 116 0
 443 0050 4FEA4303 		lsl	r3, r3, #1
 444              	.LVL46:
 445              		.loc 1 110 0
 446 0054 F6D1     		bne	.L21
 447              	.LBE23:
 448              	.LBE30:
 449              		.loc 1 119 0
 450 0056 30BC     		pop	{r4, r5}
 451              		.cfi_restore 5
 452              		.cfi_restore 4
 453              		.cfi_def_cfa_offset 0
 454              	.LVL47:
 455              	.L25:
 456 0058 7047     		bx	lr
ARM GAS  /var/folders/m4/4md61f0s1_g0rzfghffqnxvr0000gn/T//ccGOOKyv.s 			page 9


 457              		.cfi_endproc
 458              	.LFE271:
 459              		.size	_ZN7WS2812B11SetLEDColorEim, .-_ZN7WS2812B11SetLEDColorEim
 460 005a 00BF     		.section	.text._ZN7WS2812B11GetLEDColorEi,"ax",%progbits
 461              		.align	2
 462              		.p2align 4,,15
 463              		.global	_ZN7WS2812B11GetLEDColorEi
 464              		.thumb
 465              		.thumb_func
 466              		.type	_ZN7WS2812B11GetLEDColorEi, %function
 467              	_ZN7WS2812B11GetLEDColorEi:
 468              	.LFB272:
 469              		.loc 1 121 0
 470              		.cfi_startproc
 471              		@ args = 0, pretend = 0, frame = 0
 472              		@ frame_needed = 0, uses_anonymous_args = 0
 473              		@ link register save eliminated.
 474              	.LVL48:
 475              		.loc 1 122 0
 476 0000 0329     		cmp	r1, #3
 477              		.loc 1 123 0
 478 0002 DABF     		itte	le
 479 0004 00EB8100 		addle	r0, r0, r1, lsl #2
 480              	.LVL49:
 481 0008 D0F85401 		ldrle	r0, [r0, #340]
 482              		.loc 1 126 0
 483 000c 0020     		movgt	r0, #0
 484              		.loc 1 127 0
 485 000e 7047     		bx	lr
 486              		.cfi_endproc
 487              	.LFE272:
 488              		.size	_ZN7WS2812B11GetLEDColorEi, .-_ZN7WS2812B11GetLEDColorEi
 489              		.section	.text._ZN7WS2812B6AllOffEv,"ax",%progbits
 490              		.align	2
 491              		.p2align 4,,15
 492              		.global	_ZN7WS2812B6AllOffEv
 493              		.thumb
 494              		.thumb_func
 495              		.type	_ZN7WS2812B6AllOffEv, %function
 496              	_ZN7WS2812B6AllOffEv:
 497              	.LFB273:
 498              		.loc 1 129 0
 499              		.cfi_startproc
 500              		@ args = 0, pretend = 0, frame = 0
 501              		@ frame_needed = 0, uses_anonymous_args = 0
 502              		@ link register save eliminated.
 503              	.LVL50:
 504              		.loc 1 133 0
 505 0000 0023     		movs	r3, #0
 506 0002 C0F85431 		str	r3, [r0, #340]
 507              	.LVL51:
 508 0006 C0F85831 		str	r3, [r0, #344]
 509              	.LVL52:
 510 000a C0F85C31 		str	r3, [r0, #348]
 511              	.LVL53:
 512 000e C0F86031 		str	r3, [r0, #352]
 513              	.LVL54:
ARM GAS  /var/folders/m4/4md61f0s1_g0rzfghffqnxvr0000gn/T//ccGOOKyv.s 			page 10


 514 0012 00F1BE02 		add	r2, r0, #190
 515 0016 831E     		subs	r3, r0, #2
 516              		.loc 1 137 0
 517 0018 2121     		movs	r1, #33
 518              	.LVL55:
 519              	.L30:
 520              		.loc 1 137 0 is_stmt 0 discriminator 2
 521 001a 23F8021F 		strh	r1, [r3, #2]!	@ movhi
 522              		.loc 1 136 0 is_stmt 1 discriminator 2
 523 001e 9342     		cmp	r3, r2
 524 0020 FBD1     		bne	.L30
 525              		.loc 1 139 0
 526 0022 7047     		bx	lr
 527              		.cfi_endproc
 528              	.LFE273:
 529              		.size	_ZN7WS2812B6AllOffEv, .-_ZN7WS2812B6AllOffEv
 530              		.section	.text._ZN7WS2812B6SetAllEm,"ax",%progbits
 531              		.align	2
 532              		.p2align 4,,15
 533              		.global	_ZN7WS2812B6SetAllEm
 534              		.thumb
 535              		.thumb_func
 536              		.type	_ZN7WS2812B6SetAllEm, %function
 537              	_ZN7WS2812B6SetAllEm:
 538              	.LFB274:
 539              		.loc 1 141 0
 540              		.cfi_startproc
 541              		@ args = 0, pretend = 0, frame = 0
 542              		@ frame_needed = 0, uses_anonymous_args = 0
 543              	.LVL56:
 544 0000 F0B5     		push	{r4, r5, r6, r7, lr}
 545              		.cfi_def_cfa_offset 20
 546              		.cfi_offset 4, -20
 547              		.cfi_offset 5, -16
 548              		.cfi_offset 6, -12
 549              		.cfi_offset 7, -8
 550              		.cfi_offset 14, -4
 551 0002 C1F30742 		ubfx	r2, r1, #16, #8
 552 0006 C1F30723 		ubfx	r3, r1, #8, #8
 553 000a 0344     		add	r3, r3, r0
 554 000c 0244     		add	r2, r2, r0
 555 000e 93F868E1 		ldrb	lr, [r3, #360]	@ zero_extendqisi2
 556 0012 92F86821 		ldrb	r2, [r2, #360]	@ zero_extendqisi2
 557 0016 50FA81F3 		uxtab	r3, r0, r1
 558 001a 1202     		lsls	r2, r2, #8
 559 001c 93F86831 		ldrb	r3, [r3, #360]	@ zero_extendqisi2
 560 0020 42EA0E4E 		orr	lr, r2, lr, lsl #16
 561 0024 00F5A877 		add	r7, r0, #336
 562 0028 4EEA030E 		orr	lr, lr, r3
 563 002c 3030     		adds	r0, r0, #48
 564              	.LVL57:
 565              		.loc 1 141 0
 566 002e 0026     		movs	r6, #0
 567              	.LBB31:
 568              	.LBB32:
 569              		.loc 1 153 0
 570 0030 2125     		movs	r5, #33
ARM GAS  /var/folders/m4/4md61f0s1_g0rzfghffqnxvr0000gn/T//ccGOOKyv.s 			page 11


 571              		.loc 1 151 0
 572 0032 4224     		movs	r4, #66
 573              	.LVL58:
 574              	.L36:
 575              		.loc 1 145 0
 576 0034 47F8041F 		str	r1, [r7, #4]!
 577              	.LVL59:
 578 0038 A0F13003 		sub	r3, r0, #48
 579              		.loc 1 147 0
 580 003c 7246     		mov	r2, lr
 581              	.LVL60:
 582              	.L35:
 583              		.loc 1 150 0
 584 003e 12F4000F 		tst	r2, #8388608
 585              		.loc 1 151 0
 586 0042 14BF     		ite	ne
 587 0044 1C80     		strhne	r4, [r3]	@ movhi
 588              		.loc 1 153 0
 589 0046 1D80     		strheq	r5, [r3]	@ movhi
 590 0048 0233     		adds	r3, r3, #2
 591              		.loc 1 149 0
 592 004a 9842     		cmp	r0, r3
 593              		.loc 1 155 0
 594 004c 4FEA4202 		lsl	r2, r2, #1
 595              	.LVL61:
 596              		.loc 1 149 0
 597 0050 F5D1     		bne	.L35
 598 0052 1836     		adds	r6, r6, #24
 599              	.LBE32:
 600              		.loc 1 144 0 discriminator 2
 601 0054 602E     		cmp	r6, #96
 602 0056 00F13000 		add	r0, r0, #48
 603 005a EBD1     		bne	.L36
 604              	.LBE31:
 605              		.loc 1 158 0
 606 005c F0BD     		pop	{r4, r5, r6, r7, pc}
 607              		.cfi_endproc
 608              	.LFE274:
 609              		.size	_ZN7WS2812B6SetAllEm, .-_ZN7WS2812B6SetAllEm
 610 005e 00BF     		.section	.text._ZN7WS2812B10RGBToLocalEm,"ax",%progbits
 611              		.align	2
 612              		.p2align 4,,15
 613              		.global	_ZN7WS2812B10RGBToLocalEm
 614              		.thumb
 615              		.thumb_func
 616              		.type	_ZN7WS2812B10RGBToLocalEm, %function
 617              	_ZN7WS2812B10RGBToLocalEm:
 618              	.LFB275:
 619              		.loc 1 160 0
 620              		.cfi_startproc
 621              		@ args = 0, pretend = 0, frame = 0
 622              		@ frame_needed = 0, uses_anonymous_args = 0
 623              		@ link register save eliminated.
 624              	.LVL62:
 625              		.loc 1 165 0
 626 0000 C1F30743 		ubfx	r3, r1, #16, #8
 627 0004 0344     		add	r3, r3, r0
ARM GAS  /var/folders/m4/4md61f0s1_g0rzfghffqnxvr0000gn/T//ccGOOKyv.s 			page 12


 628              		.loc 1 166 0
 629 0006 C1F30722 		ubfx	r2, r1, #8, #8
 630 000a 0244     		add	r2, r2, r0
 631              		.loc 1 165 0
 632 000c 93F86831 		ldrb	r3, [r3, #360]	@ zero_extendqisi2
 633              	.LVL63:
 634              		.loc 1 166 0
 635 0010 92F86821 		ldrb	r2, [r2, #360]	@ zero_extendqisi2
 636              	.LVL64:
 637              		.loc 1 167 0
 638 0014 50FA81F1 		uxtab	r1, r0, r1
 639              	.LVL65:
 640              		.loc 1 169 0
 641 0018 1B02     		lsls	r3, r3, #8
 642              	.LVL66:
 643              		.loc 1 167 0
 644 001a 91F86801 		ldrb	r0, [r1, #360]	@ zero_extendqisi2
 645              	.LVL67:
 646              		.loc 1 169 0
 647 001e 43EA0243 		orr	r3, r3, r2, lsl #16
 648              		.loc 1 170 0
 649 0022 1843     		orrs	r0, r0, r3
 650              	.LVL68:
 651 0024 7047     		bx	lr
 652              		.cfi_endproc
 653              	.LFE275:
 654              		.size	_ZN7WS2812B10RGBToLocalEm, .-_ZN7WS2812B10RGBToLocalEm
 655 0026 00BF     		.text
 656              	.Letext0:
 657              		.file 2 "/opt/homebrew-cask/Caskroom/gcc-arm-embedded/5_2-2015q4,20151219/gcc-arm-none-eabi-5_2-20
 658              		.file 3 "/opt/homebrew-cask/Caskroom/gcc-arm-embedded/5_2-2015q4,20151219/gcc-arm-none-eabi-5_2-20
 659              		.file 4 "ChibiOS_16.1.4/os/rt/ports/ARMCMx/compilers/GCC/chtypes.h"
 660              		.file 5 "ChibiOS_16.1.4/os/rt/include/chsystypes.h"
 661              		.file 6 "ChibiOS_16.1.4/os/rt/include/chschd.h"
 662              		.file 7 "ChibiOS_16.1.4/os/rt/ports/ARMCMx/chcore.h"
 663              		.file 8 "ChibiOS_16.1.4/os/rt/ports/ARMCMx/chcore_v7m.h"
 664              		.file 9 "ChibiOS_16.1.4/os/rt/include/chtm.h"
 665              		.file 10 "ChibiOS_16.1.4/os/rt/include/chsem.h"
 666              		.file 11 "ChibiOS_16.1.4/os/rt/include/chmtx.h"
 667              		.file 12 "ws2812b.h"
 668              		.file 13 "ChibiOS_16.1.4/ext/stdperiph_stm32f4/inc/stm32f4xx_dma.h"
 669              		.file 14 "ChibiOS_16.1.4/ext/stdperiph_stm32f4/inc/stm32f4xx_tim.h"
 670              		.file 15 "/opt/homebrew-cask/Caskroom/gcc-arm-embedded/5_2-2015q4,20151219/gcc-arm-none-eabi-5_2-2
 671              		.file 16 "ChibiOS_16.1.4/os/hal/ports/STM32/LLD/GPIOv2/pal_lld.h"
 672              		.file 17 "ChibiOS_16.1.4/ext/stdperiph_stm32f4/inc/stm32f4xx_rcc.h"
 673              		.file 18 "ChibiOS_16.1.4/os/ext/CMSIS/include/core_cm4.h"
 674              		.section	.debug_info,"",%progbits
 675              	.Ldebug_info0:
 676 0000 3F0F0000 		.4byte	0xf3f
 677 0004 0400     		.2byte	0x4
 678 0006 00000000 		.4byte	.Ldebug_abbrev0
 679 000a 04       		.byte	0x4
 680 000b 01       		.uleb128 0x1
 681 000c 3E000000 		.4byte	.LASF178
 682 0010 04       		.byte	0x4
 683 0011 02050000 		.4byte	.LASF179
 684 0015 46040000 		.4byte	.LASF180
ARM GAS  /var/folders/m4/4md61f0s1_g0rzfghffqnxvr0000gn/T//ccGOOKyv.s 			page 13


 685 0019 40000000 		.4byte	.Ldebug_ranges0+0x40
 686 001d 00000000 		.4byte	0
 687 0021 00000000 		.4byte	.Ldebug_line0
 688 0025 02       		.uleb128 0x2
 689 0026 04       		.byte	0x4
 690 0027 04       		.byte	0x4
 691 0028 26060000 		.4byte	.LASF0
 692 002c 03       		.uleb128 0x3
 693 002d 04       		.byte	0x4
 694 002e 05       		.byte	0x5
 695 002f 696E7400 		.ascii	"int\000"
 696 0033 02       		.uleb128 0x2
 697 0034 04       		.byte	0x4
 698 0035 07       		.byte	0x7
 699 0036 B8030000 		.4byte	.LASF1
 700 003a 02       		.uleb128 0x2
 701 003b 08       		.byte	0x8
 702 003c 05       		.byte	0x5
 703 003d 46020000 		.4byte	.LASF2
 704 0041 02       		.uleb128 0x2
 705 0042 08       		.byte	0x8
 706 0043 04       		.byte	0x4
 707 0044 B5070000 		.4byte	.LASF3
 708 0048 04       		.uleb128 0x4
 709 0049 C6040000 		.4byte	.LASF181
 710 004d 02       		.uleb128 0x2
 711 004e 01       		.byte	0x1
 712 004f 06       		.byte	0x6
 713 0050 54020000 		.4byte	.LASF4
 714 0054 05       		.uleb128 0x5
 715 0055 82010000 		.4byte	.LASF7
 716 0059 02       		.byte	0x2
 717 005a 1D       		.byte	0x1d
 718 005b 5F000000 		.4byte	0x5f
 719 005f 02       		.uleb128 0x2
 720 0060 01       		.byte	0x1
 721 0061 08       		.byte	0x8
 722 0062 AC060000 		.4byte	.LASF5
 723 0066 02       		.uleb128 0x2
 724 0067 02       		.byte	0x2
 725 0068 05       		.byte	0x5
 726 0069 DF060000 		.4byte	.LASF6
 727 006d 05       		.uleb128 0x5
 728 006e E4070000 		.4byte	.LASF8
 729 0072 02       		.byte	0x2
 730 0073 2B       		.byte	0x2b
 731 0074 78000000 		.4byte	0x78
 732 0078 02       		.uleb128 0x2
 733 0079 02       		.byte	0x2
 734 007a 07       		.byte	0x7
 735 007b 1C040000 		.4byte	.LASF9
 736 007f 05       		.uleb128 0x5
 737 0080 B5040000 		.4byte	.LASF10
 738 0084 02       		.byte	0x2
 739 0085 3F       		.byte	0x3f
 740 0086 8A000000 		.4byte	0x8a
 741 008a 02       		.uleb128 0x2
ARM GAS  /var/folders/m4/4md61f0s1_g0rzfghffqnxvr0000gn/T//ccGOOKyv.s 			page 14


 742 008b 04       		.byte	0x4
 743 008c 05       		.byte	0x5
 744 008d DC020000 		.4byte	.LASF11
 745 0091 05       		.uleb128 0x5
 746 0092 49080000 		.4byte	.LASF12
 747 0096 02       		.byte	0x2
 748 0097 41       		.byte	0x41
 749 0098 9C000000 		.4byte	0x9c
 750 009c 02       		.uleb128 0x2
 751 009d 04       		.byte	0x4
 752 009e 07       		.byte	0x7
 753 009f 60020000 		.4byte	.LASF13
 754 00a3 02       		.uleb128 0x2
 755 00a4 08       		.byte	0x8
 756 00a5 07       		.byte	0x7
 757 00a6 D6010000 		.4byte	.LASF14
 758 00aa 05       		.uleb128 0x5
 759 00ab 1F090000 		.4byte	.LASF15
 760 00af 03       		.byte	0x3
 761 00b0 14       		.byte	0x14
 762 00b1 54000000 		.4byte	0x54
 763 00b5 05       		.uleb128 0x5
 764 00b6 0A030000 		.4byte	.LASF16
 765 00ba 03       		.byte	0x3
 766 00bb 1A       		.byte	0x1a
 767 00bc 6D000000 		.4byte	0x6d
 768 00c0 05       		.uleb128 0x5
 769 00c1 A4060000 		.4byte	.LASF17
 770 00c5 03       		.byte	0x3
 771 00c6 1F       		.byte	0x1f
 772 00c7 7F000000 		.4byte	0x7f
 773 00cb 05       		.uleb128 0x5
 774 00cc 82070000 		.4byte	.LASF18
 775 00d0 03       		.byte	0x3
 776 00d1 20       		.byte	0x20
 777 00d2 91000000 		.4byte	0x91
 778 00d6 05       		.uleb128 0x5
 779 00d7 33050000 		.4byte	.LASF19
 780 00db 04       		.byte	0x4
 781 00dc 39       		.byte	0x39
 782 00dd CB000000 		.4byte	0xcb
 783 00e1 05       		.uleb128 0x5
 784 00e2 87040000 		.4byte	.LASF20
 785 00e6 04       		.byte	0x4
 786 00e7 3C       		.byte	0x3c
 787 00e8 AA000000 		.4byte	0xaa
 788 00ec 05       		.uleb128 0x5
 789 00ed F6020000 		.4byte	.LASF21
 790 00f1 04       		.byte	0x4
 791 00f2 3D       		.byte	0x3d
 792 00f3 AA000000 		.4byte	0xaa
 793 00f7 05       		.uleb128 0x5
 794 00f8 38060000 		.4byte	.LASF22
 795 00fc 04       		.byte	0x4
 796 00fd 3E       		.byte	0x3e
 797 00fe AA000000 		.4byte	0xaa
 798 0102 05       		.uleb128 0x5
ARM GAS  /var/folders/m4/4md61f0s1_g0rzfghffqnxvr0000gn/T//ccGOOKyv.s 			page 15


 799 0103 BC020000 		.4byte	.LASF23
 800 0107 04       		.byte	0x4
 801 0108 3F       		.byte	0x3f
 802 0109 AA000000 		.4byte	0xaa
 803 010d 05       		.uleb128 0x5
 804 010e 72060000 		.4byte	.LASF24
 805 0112 04       		.byte	0x4
 806 0113 40       		.byte	0x40
 807 0114 CB000000 		.4byte	0xcb
 808 0118 05       		.uleb128 0x5
 809 0119 40040000 		.4byte	.LASF25
 810 011d 04       		.byte	0x4
 811 011e 41       		.byte	0x41
 812 011f C0000000 		.4byte	0xc0
 813 0123 05       		.uleb128 0x5
 814 0124 76010000 		.4byte	.LASF26
 815 0128 04       		.byte	0x4
 816 0129 43       		.byte	0x43
 817 012a CB000000 		.4byte	0xcb
 818 012e 05       		.uleb128 0x5
 819 012f 9E030000 		.4byte	.LASF27
 820 0133 04       		.byte	0x4
 821 0134 45       		.byte	0x45
 822 0135 C0000000 		.4byte	0xc0
 823 0139 05       		.uleb128 0x5
 824 013a 2B080000 		.4byte	.LASF28
 825 013e 05       		.byte	0x5
 826 013f 33       		.byte	0x33
 827 0140 CB000000 		.4byte	0xcb
 828 0144 05       		.uleb128 0x5
 829 0145 EB080000 		.4byte	.LASF29
 830 0149 05       		.byte	0x5
 831 014a 3F       		.byte	0x3f
 832 014b 4F010000 		.4byte	0x14f
 833 014f 06       		.uleb128 0x6
 834 0150 36040000 		.4byte	.LASF58
 835 0154 48       		.byte	0x48
 836 0155 06       		.byte	0x6
 837 0156 C2       		.byte	0xc2
 838 0157 B1020000 		.4byte	0x2b1
 839 015b 07       		.uleb128 0x7
 840 015c 04       		.byte	0x4
 841 015d 06       		.byte	0x6
 842 015e FA       		.byte	0xfa
 843 015f B8010000 		.4byte	0x1b8
 844 0163 08       		.uleb128 0x8
 845 0164 27000000 		.4byte	.LASF30
 846 0168 06       		.byte	0x6
 847 0169 0101     		.2byte	0x101
 848 016b 18010000 		.4byte	0x118
 849 016f 08       		.uleb128 0x8
 850 0170 28030000 		.4byte	.LASF31
 851 0174 06       		.byte	0x6
 852 0175 0801     		.2byte	0x108
 853 0177 18010000 		.4byte	0x118
 854 017b 08       		.uleb128 0x8
 855 017c 76090000 		.4byte	.LASF32
ARM GAS  /var/folders/m4/4md61f0s1_g0rzfghffqnxvr0000gn/T//ccGOOKyv.s 			page 16


 856 0180 06       		.byte	0x6
 857 0181 0F01     		.2byte	0x10f
 858 0183 99030000 		.4byte	0x399
 859 0187 08       		.uleb128 0x8
 860 0188 C6020000 		.4byte	.LASF33
 861 018c 06       		.byte	0x6
 862 018d 1601     		.2byte	0x116
 863 018f 7E060000 		.4byte	0x67e
 864 0193 08       		.uleb128 0x8
 865 0194 EF030000 		.4byte	.LASF34
 866 0198 06       		.byte	0x6
 867 0199 1E01     		.2byte	0x11e
 868 019b A9060000 		.4byte	0x6a9
 869 019f 08       		.uleb128 0x8
 870 01a0 8B070000 		.4byte	.LASF35
 871 01a4 06       		.byte	0x6
 872 01a5 2701     		.2byte	0x127
 873 01a7 E0060000 		.4byte	0x6e0
 874 01ab 08       		.uleb128 0x8
 875 01ac FF060000 		.4byte	.LASF36
 876 01b0 06       		.byte	0x6
 877 01b1 2F01     		.2byte	0x12f
 878 01b3 23010000 		.4byte	0x123
 879 01b7 00       		.byte	0
 880 01b8 09       		.uleb128 0x9
 881 01b9 06070000 		.4byte	.LASF37
 882 01bd 06       		.byte	0x6
 883 01be C3       		.byte	0xc3
 884 01bf BC020000 		.4byte	0x2bc
 885 01c3 00       		.byte	0
 886 01c4 09       		.uleb128 0x9
 887 01c5 50060000 		.4byte	.LASF38
 888 01c9 06       		.byte	0x6
 889 01ca C5       		.byte	0xc5
 890 01cb BC020000 		.4byte	0x2bc
 891 01cf 04       		.byte	0x4
 892 01d0 09       		.uleb128 0x9
 893 01d1 37020000 		.4byte	.LASF39
 894 01d5 06       		.byte	0x6
 895 01d6 C7       		.byte	0xc7
 896 01d7 0D010000 		.4byte	0x10d
 897 01db 08       		.byte	0x8
 898 01dc 09       		.uleb128 0x9
 899 01dd F8090000 		.4byte	.LASF40
 900 01e1 06       		.byte	0x6
 901 01e2 C8       		.byte	0xc8
 902 01e3 F1040000 		.4byte	0x4f1
 903 01e7 0C       		.byte	0xc
 904 01e8 09       		.uleb128 0x9
 905 01e9 18030000 		.4byte	.LASF41
 906 01ed 06       		.byte	0x6
 907 01ee CA       		.byte	0xca
 908 01ef BC020000 		.4byte	0x2bc
 909 01f3 10       		.byte	0x10
 910 01f4 09       		.uleb128 0x9
 911 01f5 86050000 		.4byte	.LASF42
 912 01f9 06       		.byte	0x6
ARM GAS  /var/folders/m4/4md61f0s1_g0rzfghffqnxvr0000gn/T//ccGOOKyv.s 			page 17


 913 01fa CB       		.byte	0xcb
 914 01fb BC020000 		.4byte	0x2bc
 915 01ff 14       		.byte	0x14
 916 0200 09       		.uleb128 0x9
 917 0201 6F090000 		.4byte	.LASF43
 918 0205 06       		.byte	0x6
 919 0206 D2       		.byte	0xd2
 920 0207 E6060000 		.4byte	0x6e6
 921 020b 18       		.byte	0x18
 922 020c 09       		.uleb128 0x9
 923 020d CD060000 		.4byte	.LASF44
 924 0211 06       		.byte	0x6
 925 0212 DD       		.byte	0xdd
 926 0213 EC000000 		.4byte	0xec
 927 0217 1C       		.byte	0x1c
 928 0218 09       		.uleb128 0x9
 929 0219 0D070000 		.4byte	.LASF45
 930 021d 06       		.byte	0x6
 931 021e E1       		.byte	0xe1
 932 021f E1000000 		.4byte	0xe1
 933 0223 1D       		.byte	0x1d
 934 0224 09       		.uleb128 0x9
 935 0225 E4080000 		.4byte	.LASF46
 936 0229 06       		.byte	0x6
 937 022a E6       		.byte	0xe6
 938 022b F7000000 		.4byte	0xf7
 939 022f 1E       		.byte	0x1e
 940 0230 09       		.uleb128 0x9
 941 0231 E9060000 		.4byte	.LASF47
 942 0235 06       		.byte	0x6
 943 0236 EC       		.byte	0xec
 944 0237 02010000 		.4byte	0x102
 945 023b 1F       		.byte	0x1f
 946 023c 09       		.uleb128 0x9
 947 023d 65080000 		.4byte	.LASF48
 948 0241 06       		.byte	0x6
 949 0242 F3       		.byte	0xf3
 950 0243 F8060000 		.4byte	0x6f8
 951 0247 20       		.byte	0x20
 952 0248 0A       		.uleb128 0xa
 953 0249 705F7500 		.ascii	"p_u\000"
 954 024d 06       		.byte	0x6
 955 024e 3101     		.2byte	0x131
 956 0250 5B010000 		.4byte	0x15b
 957 0254 24       		.byte	0x24
 958 0255 0B       		.uleb128 0xb
 959 0256 FE090000 		.4byte	.LASF49
 960 025a 06       		.byte	0x6
 961 025b 3601     		.2byte	0x136
 962 025d C2020000 		.4byte	0x2c2
 963 0261 28       		.byte	0x28
 964 0262 0B       		.uleb128 0xb
 965 0263 A8080000 		.4byte	.LASF50
 966 0267 06       		.byte	0x6
 967 0268 3C01     		.2byte	0x13c
 968 026a E6020000 		.4byte	0x2e6
 969 026e 2C       		.byte	0x2c
ARM GAS  /var/folders/m4/4md61f0s1_g0rzfghffqnxvr0000gn/T//ccGOOKyv.s 			page 18


 970 026f 0B       		.uleb128 0xb
 971 0270 A1090000 		.4byte	.LASF51
 972 0274 06       		.byte	0x6
 973 0275 4001     		.2byte	0x140
 974 0277 18010000 		.4byte	0x118
 975 027b 34       		.byte	0x34
 976 027c 0B       		.uleb128 0xb
 977 027d 65070000 		.4byte	.LASF52
 978 0281 06       		.byte	0x6
 979 0282 4601     		.2byte	0x146
 980 0284 23010000 		.4byte	0x123
 981 0288 38       		.byte	0x38
 982 0289 0B       		.uleb128 0xb
 983 028a D5060000 		.4byte	.LASF53
 984 028e 06       		.byte	0x6
 985 028f 4D01     		.2byte	0x14d
 986 0291 E0060000 		.4byte	0x6e0
 987 0295 3C       		.byte	0x3c
 988 0296 0B       		.uleb128 0xb
 989 0297 35080000 		.4byte	.LASF54
 990 029b 06       		.byte	0x6
 991 029c 5101     		.2byte	0x151
 992 029e 0D010000 		.4byte	0x10d
 993 02a2 40       		.byte	0x40
 994 02a3 0B       		.uleb128 0xb
 995 02a4 72020000 		.4byte	.LASF55
 996 02a8 06       		.byte	0x6
 997 02a9 5801     		.2byte	0x158
 998 02ab 99030000 		.4byte	0x399
 999 02af 44       		.byte	0x44
 1000 02b0 00       		.byte	0
 1001 02b1 05       		.uleb128 0x5
 1002 02b2 3B050000 		.4byte	.LASF56
 1003 02b6 05       		.byte	0x5
 1004 02b7 44       		.byte	0x44
 1005 02b8 BC020000 		.4byte	0x2bc
 1006 02bc 0C       		.uleb128 0xc
 1007 02bd 04       		.byte	0x4
 1008 02be 44010000 		.4byte	0x144
 1009 02c2 05       		.uleb128 0x5
 1010 02c3 82090000 		.4byte	.LASF57
 1011 02c7 05       		.byte	0x5
 1012 02c8 49       		.byte	0x49
 1013 02c9 CD020000 		.4byte	0x2cd
 1014 02cd 06       		.uleb128 0x6
 1015 02ce A5070000 		.4byte	.LASF59
 1016 02d2 04       		.byte	0x4
 1017 02d3 06       		.byte	0x6
 1018 02d4 B0       		.byte	0xb0
 1019 02d5 E6020000 		.4byte	0x2e6
 1020 02d9 09       		.uleb128 0x9
 1021 02da 06070000 		.4byte	.LASF37
 1022 02de 06       		.byte	0x6
 1023 02df B1       		.byte	0xb1
 1024 02e0 BC020000 		.4byte	0x2bc
 1025 02e4 00       		.byte	0
 1026 02e5 00       		.byte	0
ARM GAS  /var/folders/m4/4md61f0s1_g0rzfghffqnxvr0000gn/T//ccGOOKyv.s 			page 19


 1027 02e6 05       		.uleb128 0x5
 1028 02e7 D4080000 		.4byte	.LASF60
 1029 02eb 05       		.byte	0x5
 1030 02ec 50       		.byte	0x50
 1031 02ed F1020000 		.4byte	0x2f1
 1032 02f1 06       		.uleb128 0x6
 1033 02f2 1B020000 		.4byte	.LASF61
 1034 02f6 08       		.byte	0x8
 1035 02f7 06       		.byte	0x6
 1036 02f8 B7       		.byte	0xb7
 1037 02f9 16030000 		.4byte	0x316
 1038 02fd 09       		.uleb128 0x9
 1039 02fe 06070000 		.4byte	.LASF37
 1040 0302 06       		.byte	0x6
 1041 0303 B8       		.byte	0xb8
 1042 0304 BC020000 		.4byte	0x2bc
 1043 0308 00       		.byte	0
 1044 0309 09       		.uleb128 0x9
 1045 030a 50060000 		.4byte	.LASF38
 1046 030e 06       		.byte	0x6
 1047 030f B9       		.byte	0xb9
 1048 0310 BC020000 		.4byte	0x2bc
 1049 0314 04       		.byte	0x4
 1050 0315 00       		.byte	0
 1051 0316 05       		.uleb128 0x5
 1052 0317 14000000 		.4byte	.LASF62
 1053 031b 05       		.byte	0x5
 1054 031c 57       		.byte	0x57
 1055 031d 21030000 		.4byte	0x321
 1056 0321 0D       		.uleb128 0xd
 1057 0322 9F040000 		.4byte	.LASF63
 1058 0326 1C       		.byte	0x1c
 1059 0327 06       		.byte	0x6
 1060 0328 9001     		.2byte	0x190
 1061 032a 7D030000 		.4byte	0x37d
 1062 032e 0B       		.uleb128 0xb
 1063 032f 92070000 		.4byte	.LASF64
 1064 0333 06       		.byte	0x6
 1065 0334 9101     		.2byte	0x191
 1066 0336 E6020000 		.4byte	0x2e6
 1067 033a 00       		.byte	0
 1068 033b 0B       		.uleb128 0xb
 1069 033c 4A030000 		.4byte	.LASF65
 1070 0340 06       		.byte	0x6
 1071 0341 9201     		.2byte	0x192
 1072 0343 0D010000 		.4byte	0x10d
 1073 0347 08       		.byte	0x8
 1074 0348 0B       		.uleb128 0xb
 1075 0349 6C080000 		.4byte	.LASF66
 1076 034d 06       		.byte	0x6
 1077 034e 9401     		.2byte	0x194
 1078 0350 F1040000 		.4byte	0x4f1
 1079 0354 0C       		.byte	0xc
 1080 0355 0B       		.uleb128 0xb
 1081 0356 31030000 		.4byte	.LASF67
 1082 035a 06       		.byte	0x6
 1083 035b 9701     		.2byte	0x197
ARM GAS  /var/folders/m4/4md61f0s1_g0rzfghffqnxvr0000gn/T//ccGOOKyv.s 			page 20


 1084 035d BC020000 		.4byte	0x2bc
 1085 0361 10       		.byte	0x10
 1086 0362 0B       		.uleb128 0xb
 1087 0363 12060000 		.4byte	.LASF68
 1088 0367 06       		.byte	0x6
 1089 0368 9801     		.2byte	0x198
 1090 036a BC020000 		.4byte	0x2bc
 1091 036e 14       		.byte	0x14
 1092 036f 0B       		.uleb128 0xb
 1093 0370 08060000 		.4byte	.LASF69
 1094 0374 06       		.byte	0x6
 1095 0375 9B01     		.2byte	0x19b
 1096 0377 BC020000 		.4byte	0x2bc
 1097 037b 18       		.byte	0x18
 1098 037c 00       		.byte	0
 1099 037d 05       		.uleb128 0x5
 1100 037e 40080000 		.4byte	.LASF70
 1101 0382 05       		.byte	0x5
 1102 0383 5C       		.byte	0x5c
 1103 0384 88030000 		.4byte	0x388
 1104 0388 0C       		.uleb128 0xc
 1105 0389 04       		.byte	0x4
 1106 038a 8E030000 		.4byte	0x38e
 1107 038e 0E       		.uleb128 0xe
 1108 038f 99030000 		.4byte	0x399
 1109 0393 0F       		.uleb128 0xf
 1110 0394 99030000 		.4byte	0x399
 1111 0398 00       		.byte	0
 1112 0399 10       		.uleb128 0x10
 1113 039a 04       		.byte	0x4
 1114 039b 05       		.uleb128 0x5
 1115 039c 40060000 		.4byte	.LASF71
 1116 03a0 05       		.byte	0x5
 1117 03a1 61       		.byte	0x61
 1118 03a2 A6030000 		.4byte	0x3a6
 1119 03a6 0D       		.uleb128 0xd
 1120 03a7 36070000 		.4byte	.LASF72
 1121 03ab 14       		.byte	0x14
 1122 03ac 06       		.byte	0x6
 1123 03ad 6B01     		.2byte	0x16b
 1124 03af F5030000 		.4byte	0x3f5
 1125 03b3 0B       		.uleb128 0xb
 1126 03b4 77030000 		.4byte	.LASF73
 1127 03b8 06       		.byte	0x6
 1128 03b9 6C01     		.2byte	0x16c
 1129 03bb FD060000 		.4byte	0x6fd
 1130 03bf 00       		.byte	0
 1131 03c0 0B       		.uleb128 0xb
 1132 03c1 42030000 		.4byte	.LASF74
 1133 03c5 06       		.byte	0x6
 1134 03c6 6D01     		.2byte	0x16d
 1135 03c8 FD060000 		.4byte	0x6fd
 1136 03cc 04       		.byte	0x4
 1137 03cd 0B       		.uleb128 0xb
 1138 03ce F6030000 		.4byte	.LASF75
 1139 03d2 06       		.byte	0x6
 1140 03d3 6E01     		.2byte	0x16e
ARM GAS  /var/folders/m4/4md61f0s1_g0rzfghffqnxvr0000gn/T//ccGOOKyv.s 			page 21


 1141 03d5 39010000 		.4byte	0x139
 1142 03d9 08       		.byte	0x8
 1143 03da 0B       		.uleb128 0xb
 1144 03db 65050000 		.4byte	.LASF76
 1145 03df 06       		.byte	0x6
 1146 03e0 6F01     		.2byte	0x16f
 1147 03e2 7D030000 		.4byte	0x37d
 1148 03e6 0C       		.byte	0xc
 1149 03e7 0B       		.uleb128 0xb
 1150 03e8 BD080000 		.4byte	.LASF77
 1151 03ec 06       		.byte	0x6
 1152 03ed 7101     		.2byte	0x171
 1153 03ef 99030000 		.4byte	0x399
 1154 03f3 10       		.byte	0x10
 1155 03f4 00       		.byte	0
 1156 03f5 05       		.uleb128 0x5
 1157 03f6 F8010000 		.4byte	.LASF78
 1158 03fa 05       		.byte	0x5
 1159 03fb 66       		.byte	0x66
 1160 03fc 00040000 		.4byte	0x400
 1161 0400 0D       		.uleb128 0xd
 1162 0401 4E050000 		.4byte	.LASF79
 1163 0405 10       		.byte	0x10
 1164 0406 06       		.byte	0x6
 1165 0407 7B01     		.2byte	0x17b
 1166 0409 42040000 		.4byte	0x442
 1167 040d 0B       		.uleb128 0xb
 1168 040e 77030000 		.4byte	.LASF73
 1169 0412 06       		.byte	0x6
 1170 0413 7C01     		.2byte	0x17c
 1171 0415 FD060000 		.4byte	0x6fd
 1172 0419 00       		.byte	0
 1173 041a 0B       		.uleb128 0xb
 1174 041b 42030000 		.4byte	.LASF74
 1175 041f 06       		.byte	0x6
 1176 0420 7E01     		.2byte	0x17e
 1177 0422 FD060000 		.4byte	0x6fd
 1178 0426 04       		.byte	0x4
 1179 0427 0B       		.uleb128 0xb
 1180 0428 F6030000 		.4byte	.LASF75
 1181 042c 06       		.byte	0x6
 1182 042d 8001     		.2byte	0x180
 1183 042f 39010000 		.4byte	0x139
 1184 0433 08       		.byte	0x8
 1185 0434 0B       		.uleb128 0xb
 1186 0435 9A070000 		.4byte	.LASF80
 1187 0439 06       		.byte	0x6
 1188 043a 8201     		.2byte	0x182
 1189 043c F8060000 		.4byte	0x6f8
 1190 0440 0C       		.byte	0xc
 1191 0441 00       		.byte	0
 1192 0442 05       		.uleb128 0x5
 1193 0443 FF030000 		.4byte	.LASF81
 1194 0447 05       		.byte	0x5
 1195 0448 6B       		.byte	0x6b
 1196 0449 4D040000 		.4byte	0x44d
 1197 044d 0D       		.uleb128 0xd
ARM GAS  /var/folders/m4/4md61f0s1_g0rzfghffqnxvr0000gn/T//ccGOOKyv.s 			page 22


 1198 044e 84060000 		.4byte	.LASF82
 1199 0452 04       		.byte	0x4
 1200 0453 06       		.byte	0x6
 1201 0454 A201     		.2byte	0x1a2
 1202 0456 68040000 		.4byte	0x468
 1203 045a 0B       		.uleb128 0xb
 1204 045b 54080000 		.4byte	.LASF83
 1205 045f 06       		.byte	0x6
 1206 0460 AA01     		.2byte	0x1aa
 1207 0462 03070000 		.4byte	0x703
 1208 0466 00       		.byte	0
 1209 0467 00       		.byte	0
 1210 0468 05       		.uleb128 0x5
 1211 0469 7B040000 		.4byte	.LASF84
 1212 046d 05       		.byte	0x5
 1213 046e 70       		.byte	0x70
 1214 046f 73040000 		.4byte	0x473
 1215 0473 11       		.uleb128 0x11
 1216 0474 2C070000 		.4byte	.LASF85
 1217 0478 5802     		.2byte	0x258
 1218 047a 06       		.byte	0x6
 1219 047b C201     		.2byte	0x1c2
 1220 047d CF040000 		.4byte	0x4cf
 1221 0481 0B       		.uleb128 0xb
 1222 0482 21000000 		.4byte	.LASF86
 1223 0486 06       		.byte	0x6
 1224 0487 C601     		.2byte	0x1c6
 1225 0489 16030000 		.4byte	0x316
 1226 048d 00       		.byte	0
 1227 048e 0B       		.uleb128 0xb
 1228 048f A5010000 		.4byte	.LASF87
 1229 0493 06       		.byte	0x6
 1230 0494 CA01     		.2byte	0x1ca
 1231 0496 F5030000 		.4byte	0x3f5
 1232 049a 1C       		.byte	0x1c
 1233 049b 0A       		.uleb128 0xa
 1234 049c 64626700 		.ascii	"dbg\000"
 1235 04a0 06       		.byte	0x6
 1236 04a1 CE01     		.2byte	0x1ce
 1237 04a3 42040000 		.4byte	0x442
 1238 04a7 2C       		.byte	0x2c
 1239 04a8 0B       		.uleb128 0xb
 1240 04a9 ED010000 		.4byte	.LASF88
 1241 04ad 06       		.byte	0x6
 1242 04ae D201     		.2byte	0x1d2
 1243 04b0 44010000 		.4byte	0x144
 1244 04b4 30       		.byte	0x30
 1245 04b5 0A       		.uleb128 0xa
 1246 04b6 746D00   		.ascii	"tm\000"
 1247 04b9 06       		.byte	0x6
 1248 04ba D701     		.2byte	0x1d7
 1249 04bc 73060000 		.4byte	0x673
 1250 04c0 78       		.byte	0x78
 1251 04c1 0B       		.uleb128 0xb
 1252 04c2 8F030000 		.4byte	.LASF89
 1253 04c6 06       		.byte	0x6
 1254 04c7 E301     		.2byte	0x1e3
ARM GAS  /var/folders/m4/4md61f0s1_g0rzfghffqnxvr0000gn/T//ccGOOKyv.s 			page 23


 1255 04c9 08070000 		.4byte	0x708
 1256 04cd 80       		.byte	0x80
 1257 04ce 00       		.byte	0
 1258 04cf 02       		.uleb128 0x2
 1259 04d0 04       		.byte	0x4
 1260 04d1 07       		.byte	0x7
 1261 04d2 D4030000 		.4byte	.LASF90
 1262 04d6 12       		.uleb128 0x12
 1263 04d7 9C000000 		.4byte	0x9c
 1264 04db E6040000 		.4byte	0x4e6
 1265 04df 13       		.uleb128 0x13
 1266 04e0 CF040000 		.4byte	0x4cf
 1267 04e4 04       		.byte	0x4
 1268 04e5 00       		.byte	0
 1269 04e6 05       		.uleb128 0x5
 1270 04e7 39030000 		.4byte	.LASF91
 1271 04eb 07       		.byte	0x7
 1272 04ec 65       		.byte	0x65
 1273 04ed 99030000 		.4byte	0x399
 1274 04f1 06       		.uleb128 0x6
 1275 04f2 14040000 		.4byte	.LASF92
 1276 04f6 04       		.byte	0x4
 1277 04f7 07       		.byte	0x7
 1278 04f8 89       		.byte	0x89
 1279 04f9 0A050000 		.4byte	0x50a
 1280 04fd 14       		.uleb128 0x14
 1281 04fe 72313300 		.ascii	"r13\000"
 1282 0502 07       		.byte	0x7
 1283 0503 8A       		.byte	0x8a
 1284 0504 54060000 		.4byte	0x654
 1285 0508 00       		.byte	0
 1286 0509 00       		.byte	0
 1287 050a 06       		.uleb128 0x6
 1288 050b 99010000 		.4byte	.LASF93
 1289 050f 64       		.byte	0x64
 1290 0510 08       		.byte	0x8
 1291 0511 FD       		.byte	0xfd
 1292 0512 54060000 		.4byte	0x654
 1293 0516 14       		.uleb128 0x14
 1294 0517 73313600 		.ascii	"s16\000"
 1295 051b 08       		.byte	0x8
 1296 051c FF       		.byte	0xff
 1297 051d E6040000 		.4byte	0x4e6
 1298 0521 00       		.byte	0
 1299 0522 0A       		.uleb128 0xa
 1300 0523 73313700 		.ascii	"s17\000"
 1301 0527 08       		.byte	0x8
 1302 0528 0001     		.2byte	0x100
 1303 052a E6040000 		.4byte	0x4e6
 1304 052e 04       		.byte	0x4
 1305 052f 0A       		.uleb128 0xa
 1306 0530 73313800 		.ascii	"s18\000"
 1307 0534 08       		.byte	0x8
 1308 0535 0101     		.2byte	0x101
 1309 0537 E6040000 		.4byte	0x4e6
 1310 053b 08       		.byte	0x8
 1311 053c 0A       		.uleb128 0xa
ARM GAS  /var/folders/m4/4md61f0s1_g0rzfghffqnxvr0000gn/T//ccGOOKyv.s 			page 24


 1312 053d 73313900 		.ascii	"s19\000"
 1313 0541 08       		.byte	0x8
 1314 0542 0201     		.2byte	0x102
 1315 0544 E6040000 		.4byte	0x4e6
 1316 0548 0C       		.byte	0xc
 1317 0549 0A       		.uleb128 0xa
 1318 054a 73323000 		.ascii	"s20\000"
 1319 054e 08       		.byte	0x8
 1320 054f 0301     		.2byte	0x103
 1321 0551 E6040000 		.4byte	0x4e6
 1322 0555 10       		.byte	0x10
 1323 0556 0A       		.uleb128 0xa
 1324 0557 73323100 		.ascii	"s21\000"
 1325 055b 08       		.byte	0x8
 1326 055c 0401     		.2byte	0x104
 1327 055e E6040000 		.4byte	0x4e6
 1328 0562 14       		.byte	0x14
 1329 0563 0A       		.uleb128 0xa
 1330 0564 73323200 		.ascii	"s22\000"
 1331 0568 08       		.byte	0x8
 1332 0569 0501     		.2byte	0x105
 1333 056b E6040000 		.4byte	0x4e6
 1334 056f 18       		.byte	0x18
 1335 0570 0A       		.uleb128 0xa
 1336 0571 73323300 		.ascii	"s23\000"
 1337 0575 08       		.byte	0x8
 1338 0576 0601     		.2byte	0x106
 1339 0578 E6040000 		.4byte	0x4e6
 1340 057c 1C       		.byte	0x1c
 1341 057d 0A       		.uleb128 0xa
 1342 057e 73323400 		.ascii	"s24\000"
 1343 0582 08       		.byte	0x8
 1344 0583 0701     		.2byte	0x107
 1345 0585 E6040000 		.4byte	0x4e6
 1346 0589 20       		.byte	0x20
 1347 058a 0A       		.uleb128 0xa
 1348 058b 73323500 		.ascii	"s25\000"
 1349 058f 08       		.byte	0x8
 1350 0590 0801     		.2byte	0x108
 1351 0592 E6040000 		.4byte	0x4e6
 1352 0596 24       		.byte	0x24
 1353 0597 0A       		.uleb128 0xa
 1354 0598 73323600 		.ascii	"s26\000"
 1355 059c 08       		.byte	0x8
 1356 059d 0901     		.2byte	0x109
 1357 059f E6040000 		.4byte	0x4e6
 1358 05a3 28       		.byte	0x28
 1359 05a4 0A       		.uleb128 0xa
 1360 05a5 73323700 		.ascii	"s27\000"
 1361 05a9 08       		.byte	0x8
 1362 05aa 0A01     		.2byte	0x10a
 1363 05ac E6040000 		.4byte	0x4e6
 1364 05b0 2C       		.byte	0x2c
 1365 05b1 0A       		.uleb128 0xa
 1366 05b2 73323800 		.ascii	"s28\000"
 1367 05b6 08       		.byte	0x8
 1368 05b7 0B01     		.2byte	0x10b
ARM GAS  /var/folders/m4/4md61f0s1_g0rzfghffqnxvr0000gn/T//ccGOOKyv.s 			page 25


 1369 05b9 E6040000 		.4byte	0x4e6
 1370 05bd 30       		.byte	0x30
 1371 05be 0A       		.uleb128 0xa
 1372 05bf 73323900 		.ascii	"s29\000"
 1373 05c3 08       		.byte	0x8
 1374 05c4 0C01     		.2byte	0x10c
 1375 05c6 E6040000 		.4byte	0x4e6
 1376 05ca 34       		.byte	0x34
 1377 05cb 0A       		.uleb128 0xa
 1378 05cc 73333000 		.ascii	"s30\000"
 1379 05d0 08       		.byte	0x8
 1380 05d1 0D01     		.2byte	0x10d
 1381 05d3 E6040000 		.4byte	0x4e6
 1382 05d7 38       		.byte	0x38
 1383 05d8 0A       		.uleb128 0xa
 1384 05d9 73333100 		.ascii	"s31\000"
 1385 05dd 08       		.byte	0x8
 1386 05de 0E01     		.2byte	0x10e
 1387 05e0 E6040000 		.4byte	0x4e6
 1388 05e4 3C       		.byte	0x3c
 1389 05e5 0A       		.uleb128 0xa
 1390 05e6 723400   		.ascii	"r4\000"
 1391 05e9 08       		.byte	0x8
 1392 05ea 1001     		.2byte	0x110
 1393 05ec E6040000 		.4byte	0x4e6
 1394 05f0 40       		.byte	0x40
 1395 05f1 0A       		.uleb128 0xa
 1396 05f2 723500   		.ascii	"r5\000"
 1397 05f5 08       		.byte	0x8
 1398 05f6 1101     		.2byte	0x111
 1399 05f8 E6040000 		.4byte	0x4e6
 1400 05fc 44       		.byte	0x44
 1401 05fd 0A       		.uleb128 0xa
 1402 05fe 723600   		.ascii	"r6\000"
 1403 0601 08       		.byte	0x8
 1404 0602 1201     		.2byte	0x112
 1405 0604 E6040000 		.4byte	0x4e6
 1406 0608 48       		.byte	0x48
 1407 0609 0A       		.uleb128 0xa
 1408 060a 723700   		.ascii	"r7\000"
 1409 060d 08       		.byte	0x8
 1410 060e 1301     		.2byte	0x113
 1411 0610 E6040000 		.4byte	0x4e6
 1412 0614 4C       		.byte	0x4c
 1413 0615 0A       		.uleb128 0xa
 1414 0616 723800   		.ascii	"r8\000"
 1415 0619 08       		.byte	0x8
 1416 061a 1401     		.2byte	0x114
 1417 061c E6040000 		.4byte	0x4e6
 1418 0620 50       		.byte	0x50
 1419 0621 0A       		.uleb128 0xa
 1420 0622 723900   		.ascii	"r9\000"
 1421 0625 08       		.byte	0x8
 1422 0626 1501     		.2byte	0x115
 1423 0628 E6040000 		.4byte	0x4e6
 1424 062c 54       		.byte	0x54
 1425 062d 0A       		.uleb128 0xa
ARM GAS  /var/folders/m4/4md61f0s1_g0rzfghffqnxvr0000gn/T//ccGOOKyv.s 			page 26


 1426 062e 72313000 		.ascii	"r10\000"
 1427 0632 08       		.byte	0x8
 1428 0633 1601     		.2byte	0x116
 1429 0635 E6040000 		.4byte	0x4e6
 1430 0639 58       		.byte	0x58
 1431 063a 0A       		.uleb128 0xa
 1432 063b 72313100 		.ascii	"r11\000"
 1433 063f 08       		.byte	0x8
 1434 0640 1701     		.2byte	0x117
 1435 0642 E6040000 		.4byte	0x4e6
 1436 0646 5C       		.byte	0x5c
 1437 0647 0A       		.uleb128 0xa
 1438 0648 6C7200   		.ascii	"lr\000"
 1439 064b 08       		.byte	0x8
 1440 064c 1801     		.2byte	0x118
 1441 064e E6040000 		.4byte	0x4e6
 1442 0652 60       		.byte	0x60
 1443 0653 00       		.byte	0
 1444 0654 0C       		.uleb128 0xc
 1445 0655 04       		.byte	0x4
 1446 0656 0A050000 		.4byte	0x50a
 1447 065a 15       		.uleb128 0x15
 1448 065b 04       		.byte	0x4
 1449 065c 09       		.byte	0x9
 1450 065d 38       		.byte	0x38
 1451 065e 06080000 		.4byte	.LASF120
 1452 0662 73060000 		.4byte	0x673
 1453 0666 09       		.uleb128 0x9
 1454 0667 5E080000 		.4byte	.LASF94
 1455 066b 09       		.byte	0x9
 1456 066c 3C       		.byte	0x3c
 1457 066d D6000000 		.4byte	0xd6
 1458 0671 00       		.byte	0
 1459 0672 00       		.byte	0
 1460 0673 05       		.uleb128 0x5
 1461 0674 CA050000 		.4byte	.LASF95
 1462 0678 09       		.byte	0x9
 1463 0679 3D       		.byte	0x3d
 1464 067a 5A060000 		.4byte	0x65a
 1465 067e 0C       		.uleb128 0xc
 1466 067f 04       		.byte	0x4
 1467 0680 B1020000 		.4byte	0x2b1
 1468 0684 06       		.uleb128 0x6
 1469 0685 58070000 		.4byte	.LASF96
 1470 0689 0C       		.byte	0xc
 1471 068a 0A       		.byte	0xa
 1472 068b 34       		.byte	0x34
 1473 068c A9060000 		.4byte	0x6a9
 1474 0690 09       		.uleb128 0x9
 1475 0691 20030000 		.4byte	.LASF97
 1476 0695 0A       		.byte	0xa
 1477 0696 35       		.byte	0x35
 1478 0697 E6020000 		.4byte	0x2e6
 1479 069b 00       		.byte	0
 1480 069c 09       		.uleb128 0x9
 1481 069d 0E040000 		.4byte	.LASF98
 1482 06a1 0A       		.byte	0xa
ARM GAS  /var/folders/m4/4md61f0s1_g0rzfghffqnxvr0000gn/T//ccGOOKyv.s 			page 27


 1483 06a2 37       		.byte	0x37
 1484 06a3 2E010000 		.4byte	0x12e
 1485 06a7 08       		.byte	0x8
 1486 06a8 00       		.byte	0
 1487 06a9 0C       		.uleb128 0xc
 1488 06aa 04       		.byte	0x4
 1489 06ab 84060000 		.4byte	0x684
 1490 06af 06       		.uleb128 0x6
 1491 06b0 57090000 		.4byte	.LASF99
 1492 06b4 10       		.byte	0x10
 1493 06b5 0B       		.byte	0xb
 1494 06b6 39       		.byte	0x39
 1495 06b7 E0060000 		.4byte	0x6e0
 1496 06bb 09       		.uleb128 0x9
 1497 06bc 7A020000 		.4byte	.LASF100
 1498 06c0 0B       		.byte	0xb
 1499 06c1 3A       		.byte	0x3a
 1500 06c2 E6020000 		.4byte	0x2e6
 1501 06c6 00       		.byte	0
 1502 06c7 09       		.uleb128 0x9
 1503 06c8 E9090000 		.4byte	.LASF101
 1504 06cc 0B       		.byte	0xb
 1505 06cd 3C       		.byte	0x3c
 1506 06ce BC020000 		.4byte	0x2bc
 1507 06d2 08       		.byte	0x8
 1508 06d3 09       		.uleb128 0x9
 1509 06d4 24080000 		.4byte	.LASF102
 1510 06d8 0B       		.byte	0xb
 1511 06d9 3E       		.byte	0x3e
 1512 06da 23070000 		.4byte	0x723
 1513 06de 0C       		.byte	0xc
 1514 06df 00       		.byte	0
 1515 06e0 0C       		.uleb128 0xc
 1516 06e1 04       		.byte	0x4
 1517 06e2 AF060000 		.4byte	0x6af
 1518 06e6 0C       		.uleb128 0xc
 1519 06e7 04       		.byte	0x4
 1520 06e8 F3060000 		.4byte	0x6f3
 1521 06ec 02       		.uleb128 0x2
 1522 06ed 01       		.byte	0x1
 1523 06ee 08       		.byte	0x8
 1524 06ef D7070000 		.4byte	.LASF103
 1525 06f3 16       		.uleb128 0x16
 1526 06f4 EC060000 		.4byte	0x6ec
 1527 06f8 17       		.uleb128 0x17
 1528 06f9 39010000 		.4byte	0x139
 1529 06fd 0C       		.uleb128 0xc
 1530 06fe 04       		.byte	0x4
 1531 06ff 9B030000 		.4byte	0x39b
 1532 0703 17       		.uleb128 0x17
 1533 0704 E6060000 		.4byte	0x6e6
 1534 0708 12       		.uleb128 0x12
 1535 0709 A3000000 		.4byte	0xa3
 1536 070d 18070000 		.4byte	0x718
 1537 0711 13       		.uleb128 0x13
 1538 0712 CF040000 		.4byte	0x4cf
 1539 0716 3A       		.byte	0x3a
ARM GAS  /var/folders/m4/4md61f0s1_g0rzfghffqnxvr0000gn/T//ccGOOKyv.s 			page 28


 1540 0717 00       		.byte	0
 1541 0718 05       		.uleb128 0x5
 1542 0719 3E020000 		.4byte	.LASF104
 1543 071d 0B       		.byte	0xb
 1544 071e 34       		.byte	0x34
 1545 071f AF060000 		.4byte	0x6af
 1546 0723 0C       		.uleb128 0xc
 1547 0724 04       		.byte	0x4
 1548 0725 18070000 		.4byte	0x718
 1549 0729 02       		.uleb128 0x2
 1550 072a 01       		.byte	0x1
 1551 072b 02       		.byte	0x2
 1552 072c 9A040000 		.4byte	.LASF105
 1553 0730 02       		.uleb128 0x2
 1554 0731 08       		.byte	0x8
 1555 0732 04       		.byte	0x4
 1556 0733 F1090000 		.4byte	.LASF106
 1557 0737 18       		.uleb128 0x18
 1558 0738 B4020000 		.4byte	.LASF110
 1559 073c 6802     		.2byte	0x268
 1560 073e 0C       		.byte	0xc
 1561 073f 39       		.byte	0x39
 1562 0740 27080000 		.4byte	0x827
 1563 0744 09       		.uleb128 0x9
 1564 0745 7A060000 		.4byte	.LASF107
 1565 0749 0C       		.byte	0xc
 1566 074a 43       		.byte	0x43
 1567 074b 27080000 		.4byte	0x827
 1568 074f 00       		.byte	0
 1569 0750 19       		.uleb128 0x19
 1570 0751 AD040000 		.4byte	.LASF108
 1571 0755 0C       		.byte	0xc
 1572 0756 44       		.byte	0x44
 1573 0757 D6040000 		.4byte	0x4d6
 1574 075b 5401     		.2byte	0x154
 1575 075d 19       		.uleb128 0x19
 1576 075e 2C060000 		.4byte	.LASF109
 1577 0762 0C       		.byte	0xc
 1578 0763 45       		.byte	0x45
 1579 0764 37080000 		.4byte	0x837
 1580 0768 6801     		.2byte	0x168
 1581 076a 1A       		.uleb128 0x1a
 1582 076b B4020000 		.4byte	.LASF110
 1583 076f 0C       		.byte	0xc
 1584 0770 3C       		.byte	0x3c
 1585 0771 D8040000 		.4byte	.LASF112
 1586 0775 47080000 		.4byte	0x847
 1587 0779 01       		.byte	0x1
 1588 077a 82070000 		.4byte	0x782
 1589 077e 88070000 		.4byte	0x788
 1590 0782 1B       		.uleb128 0x1b
 1591 0783 47080000 		.4byte	0x847
 1592 0787 00       		.byte	0
 1593 0788 1C       		.uleb128 0x1c
 1594 0789 06090000 		.4byte	.LASF114
 1595 078d 0C       		.byte	0xc
 1596 078e 3D       		.byte	0x3d
ARM GAS  /var/folders/m4/4md61f0s1_g0rzfghffqnxvr0000gn/T//ccGOOKyv.s 			page 29


 1597 078f 8E050000 		.4byte	.LASF116
 1598 0793 01       		.byte	0x1
 1599 0794 9C070000 		.4byte	0x79c
 1600 0798 AC070000 		.4byte	0x7ac
 1601 079c 1B       		.uleb128 0x1b
 1602 079d 47080000 		.4byte	0x847
 1603 07a1 0F       		.uleb128 0xf
 1604 07a2 2C000000 		.4byte	0x2c
 1605 07a6 0F       		.uleb128 0xf
 1606 07a7 CB000000 		.4byte	0xcb
 1607 07ab 00       		.byte	0
 1608 07ac 1A       		.uleb128 0x1a
 1609 07ad 1A060000 		.4byte	.LASF111
 1610 07b1 0C       		.byte	0xc
 1611 07b2 3E       		.byte	0x3e
 1612 07b3 57060000 		.4byte	.LASF113
 1613 07b7 CB000000 		.4byte	0xcb
 1614 07bb 01       		.byte	0x1
 1615 07bc C4070000 		.4byte	0x7c4
 1616 07c0 CF070000 		.4byte	0x7cf
 1617 07c4 1B       		.uleb128 0x1b
 1618 07c5 47080000 		.4byte	0x847
 1619 07c9 0F       		.uleb128 0xf
 1620 07ca 2C000000 		.4byte	0x2c
 1621 07ce 00       		.byte	0
 1622 07cf 1C       		.uleb128 0x1c
 1623 07d0 2F040000 		.4byte	.LASF115
 1624 07d4 0C       		.byte	0xc
 1625 07d5 3F       		.byte	0x3f
 1626 07d6 A7090000 		.4byte	.LASF117
 1627 07da 01       		.byte	0x1
 1628 07db E3070000 		.4byte	0x7e3
 1629 07df E9070000 		.4byte	0x7e9
 1630 07e3 1B       		.uleb128 0x1b
 1631 07e4 47080000 		.4byte	0x847
 1632 07e8 00       		.byte	0
 1633 07e9 1C       		.uleb128 0x1c
 1634 07ea BF040000 		.4byte	.LASF118
 1635 07ee 0C       		.byte	0xc
 1636 07ef 40       		.byte	0x40
 1637 07f0 93080000 		.4byte	.LASF119
 1638 07f4 01       		.byte	0x1
 1639 07f5 FD070000 		.4byte	0x7fd
 1640 07f9 08080000 		.4byte	0x808
 1641 07fd 1B       		.uleb128 0x1b
 1642 07fe 47080000 		.4byte	0x847
 1643 0802 0F       		.uleb128 0xf
 1644 0803 CB000000 		.4byte	0xcb
 1645 0807 00       		.byte	0
 1646 0808 1D       		.uleb128 0x1d
 1647 0809 FF020000 		.4byte	.LASF182
 1648 080d 0C       		.byte	0xc
 1649 080e 42       		.byte	0x42
 1650 080f EE050000 		.4byte	.LASF162
 1651 0813 CB000000 		.4byte	0xcb
 1652 0817 1B080000 		.4byte	0x81b
 1653 081b 1B       		.uleb128 0x1b
ARM GAS  /var/folders/m4/4md61f0s1_g0rzfghffqnxvr0000gn/T//ccGOOKyv.s 			page 30


 1654 081c 47080000 		.4byte	0x847
 1655 0820 0F       		.uleb128 0xf
 1656 0821 CB000000 		.4byte	0xcb
 1657 0825 00       		.byte	0
 1658 0826 00       		.byte	0
 1659 0827 12       		.uleb128 0x12
 1660 0828 78000000 		.4byte	0x78
 1661 082c 37080000 		.4byte	0x837
 1662 0830 13       		.uleb128 0x13
 1663 0831 CF040000 		.4byte	0x4cf
 1664 0835 A9       		.byte	0xa9
 1665 0836 00       		.byte	0
 1666 0837 12       		.uleb128 0x12
 1667 0838 5F000000 		.4byte	0x5f
 1668 083c 47080000 		.4byte	0x847
 1669 0840 13       		.uleb128 0x13
 1670 0841 CF040000 		.4byte	0x4cf
 1671 0845 FF       		.byte	0xff
 1672 0846 00       		.byte	0
 1673 0847 0C       		.uleb128 0xc
 1674 0848 04       		.byte	0x4
 1675 0849 37070000 		.4byte	0x737
 1676 084d 15       		.uleb128 0x15
 1677 084e 3C       		.byte	0x3c
 1678 084f 0D       		.byte	0xd
 1679 0850 37       		.byte	0x37
 1680 0851 70070000 		.4byte	.LASF121
 1681 0855 0E090000 		.4byte	0x90e
 1682 0859 09       		.uleb128 0x9
 1683 085a F3060000 		.4byte	.LASF122
 1684 085e 0D       		.byte	0xd
 1685 085f 38       		.byte	0x38
 1686 0860 CB000000 		.4byte	0xcb
 1687 0864 00       		.byte	0
 1688 0865 09       		.uleb128 0x9
 1689 0866 0E050000 		.4byte	.LASF123
 1690 086a 0D       		.byte	0xd
 1691 086b 3B       		.byte	0x3b
 1692 086c CB000000 		.4byte	0xcb
 1693 0870 04       		.byte	0x4
 1694 0871 09       		.uleb128 0x9
 1695 0872 62010000 		.4byte	.LASF124
 1696 0876 0D       		.byte	0xd
 1697 0877 3D       		.byte	0x3d
 1698 0878 CB000000 		.4byte	0xcb
 1699 087c 08       		.byte	0x8
 1700 087d 09       		.uleb128 0x9
 1701 087e 6D050000 		.4byte	.LASF125
 1702 0882 0D       		.byte	0xd
 1703 0883 41       		.byte	0x41
 1704 0884 CB000000 		.4byte	0xcb
 1705 0888 0C       		.byte	0xc
 1706 0889 09       		.uleb128 0x9
 1707 088a 60090000 		.4byte	.LASF126
 1708 088e 0D       		.byte	0xd
 1709 088f 45       		.byte	0x45
 1710 0890 CB000000 		.4byte	0xcb
ARM GAS  /var/folders/m4/4md61f0s1_g0rzfghffqnxvr0000gn/T//ccGOOKyv.s 			page 31


 1711 0894 10       		.byte	0x10
 1712 0895 09       		.uleb128 0x9
 1713 0896 AC010000 		.4byte	.LASF127
 1714 089a 0D       		.byte	0xd
 1715 089b 49       		.byte	0x49
 1716 089c CB000000 		.4byte	0xcb
 1717 08a0 14       		.byte	0x14
 1718 08a1 09       		.uleb128 0x9
 1719 08a2 C8010000 		.4byte	.LASF128
 1720 08a6 0D       		.byte	0xd
 1721 08a7 4C       		.byte	0x4c
 1722 08a8 CB000000 		.4byte	0xcb
 1723 08ac 18       		.byte	0x18
 1724 08ad 09       		.uleb128 0x9
 1725 08ae EF070000 		.4byte	.LASF129
 1726 08b2 0D       		.byte	0xd
 1727 08b3 4F       		.byte	0x4f
 1728 08b4 CB000000 		.4byte	0xcb
 1729 08b8 1C       		.byte	0x1c
 1730 08b9 09       		.uleb128 0x9
 1731 08ba DB050000 		.4byte	.LASF130
 1732 08be 0D       		.byte	0xd
 1733 08bf 52       		.byte	0x52
 1734 08c0 CB000000 		.4byte	0xcb
 1735 08c4 20       		.byte	0x20
 1736 08c5 09       		.uleb128 0x9
 1737 08c6 AA050000 		.4byte	.LASF131
 1738 08ca 0D       		.byte	0xd
 1739 08cb 55       		.byte	0x55
 1740 08cc CB000000 		.4byte	0xcb
 1741 08d0 24       		.byte	0x24
 1742 08d1 09       		.uleb128 0x9
 1743 08d2 8C010000 		.4byte	.LASF132
 1744 08d6 0D       		.byte	0xd
 1745 08d7 5A       		.byte	0x5a
 1746 08d8 CB000000 		.4byte	0xcb
 1747 08dc 28       		.byte	0x28
 1748 08dd 09       		.uleb128 0x9
 1749 08de 12090000 		.4byte	.LASF133
 1750 08e2 0D       		.byte	0xd
 1751 08e3 5D       		.byte	0x5d
 1752 08e4 CB000000 		.4byte	0xcb
 1753 08e8 2C       		.byte	0x2c
 1754 08e9 09       		.uleb128 0x9
 1755 08ea E8040000 		.4byte	.LASF134
 1756 08ee 0D       		.byte	0xd
 1757 08ef 62       		.byte	0x62
 1758 08f0 CB000000 		.4byte	0xcb
 1759 08f4 30       		.byte	0x30
 1760 08f5 09       		.uleb128 0x9
 1761 08f6 94060000 		.4byte	.LASF135
 1762 08fa 0D       		.byte	0xd
 1763 08fb 65       		.byte	0x65
 1764 08fc CB000000 		.4byte	0xcb
 1765 0900 34       		.byte	0x34
 1766 0901 09       		.uleb128 0x9
 1767 0902 A0020000 		.4byte	.LASF136
ARM GAS  /var/folders/m4/4md61f0s1_g0rzfghffqnxvr0000gn/T//ccGOOKyv.s 			page 32


 1768 0906 0D       		.byte	0xd
 1769 0907 6A       		.byte	0x6a
 1770 0908 CB000000 		.4byte	0xcb
 1771 090c 38       		.byte	0x38
 1772 090d 00       		.byte	0
 1773 090e 05       		.uleb128 0x5
 1774 090f 2E000000 		.4byte	.LASF137
 1775 0913 0D       		.byte	0xd
 1776 0914 6E       		.byte	0x6e
 1777 0915 4D080000 		.4byte	0x84d
 1778 0919 15       		.uleb128 0x15
 1779 091a 0C       		.byte	0xc
 1780 091b 0E       		.byte	0xe
 1781 091c 38       		.byte	0x38
 1782 091d 27090000 		.4byte	.LASF138
 1783 0921 62090000 		.4byte	0x962
 1784 0925 09       		.uleb128 0x9
 1785 0926 25050000 		.4byte	.LASF139
 1786 092a 0E       		.byte	0xe
 1787 092b 39       		.byte	0x39
 1788 092c B5000000 		.4byte	0xb5
 1789 0930 00       		.byte	0
 1790 0931 09       		.uleb128 0x9
 1791 0932 7F030000 		.4byte	.LASF140
 1792 0936 0E       		.byte	0xe
 1793 0937 3C       		.byte	0x3c
 1794 0938 B5000000 		.4byte	0xb5
 1795 093c 02       		.byte	0x2
 1796 093d 09       		.uleb128 0x9
 1797 093e 19080000 		.4byte	.LASF141
 1798 0942 0E       		.byte	0xe
 1799 0943 3F       		.byte	0x3f
 1800 0944 CB000000 		.4byte	0xcb
 1801 0948 04       		.byte	0x4
 1802 0949 09       		.uleb128 0x9
 1803 094a DD030000 		.4byte	.LASF142
 1804 094e 0E       		.byte	0xe
 1805 094f 43       		.byte	0x43
 1806 0950 B5000000 		.4byte	0xb5
 1807 0954 08       		.byte	0x8
 1808 0955 09       		.uleb128 0x9
 1809 0956 41090000 		.4byte	.LASF143
 1810 095a 0E       		.byte	0xe
 1811 095b 46       		.byte	0x46
 1812 095c AA000000 		.4byte	0xaa
 1813 0960 0A       		.byte	0xa
 1814 0961 00       		.byte	0
 1815 0962 05       		.uleb128 0x5
 1816 0963 BC090000 		.4byte	.LASF144
 1817 0967 0E       		.byte	0xe
 1818 0968 4E       		.byte	0x4e
 1819 0969 19090000 		.4byte	0x919
 1820 096d 15       		.uleb128 0x15
 1821 096e 14       		.byte	0x14
 1822 096f 0E       		.byte	0xe
 1823 0970 55       		.byte	0x55
 1824 0971 00000000 		.4byte	.LASF145
ARM GAS  /var/folders/m4/4md61f0s1_g0rzfghffqnxvr0000gn/T//ccGOOKyv.s 			page 33


 1825 0975 DA090000 		.4byte	0x9da
 1826 0979 09       		.uleb128 0x9
 1827 097a 88080000 		.4byte	.LASF146
 1828 097e 0E       		.byte	0xe
 1829 097f 56       		.byte	0x56
 1830 0980 B5000000 		.4byte	0xb5
 1831 0984 00       		.byte	0
 1832 0985 09       		.uleb128 0x9
 1833 0986 51030000 		.4byte	.LASF147
 1834 098a 0E       		.byte	0xe
 1835 098b 59       		.byte	0x59
 1836 098c B5000000 		.4byte	0xb5
 1837 0990 02       		.byte	0x2
 1838 0991 09       		.uleb128 0x9
 1839 0992 E5020000 		.4byte	.LASF148
 1840 0996 0E       		.byte	0xe
 1841 0997 5C       		.byte	0x5c
 1842 0998 B5000000 		.4byte	0xb5
 1843 099c 04       		.byte	0x4
 1844 099d 09       		.uleb128 0x9
 1845 099e BE010000 		.4byte	.LASF149
 1846 09a2 0E       		.byte	0xe
 1847 09a3 60       		.byte	0x60
 1848 09a4 CB000000 		.4byte	0xcb
 1849 09a8 08       		.byte	0x8
 1850 09a9 09       		.uleb128 0x9
 1851 09aa C5030000 		.4byte	.LASF150
 1852 09ae 0E       		.byte	0xe
 1853 09af 63       		.byte	0x63
 1854 09b0 B5000000 		.4byte	0xb5
 1855 09b4 0C       		.byte	0xc
 1856 09b5 09       		.uleb128 0x9
 1857 09b6 C1070000 		.4byte	.LASF151
 1858 09ba 0E       		.byte	0xe
 1859 09bb 66       		.byte	0x66
 1860 09bc B5000000 		.4byte	0xb5
 1861 09c0 0E       		.byte	0xe
 1862 09c1 09       		.uleb128 0x9
 1863 09c2 91090000 		.4byte	.LASF152
 1864 09c6 0E       		.byte	0xe
 1865 09c7 6A       		.byte	0x6a
 1866 09c8 B5000000 		.4byte	0xb5
 1867 09cc 10       		.byte	0x10
 1868 09cd 09       		.uleb128 0x9
 1869 09ce 75050000 		.4byte	.LASF153
 1870 09d2 0E       		.byte	0xe
 1871 09d3 6E       		.byte	0x6e
 1872 09d4 B5000000 		.4byte	0xb5
 1873 09d8 12       		.byte	0x12
 1874 09d9 00       		.byte	0
 1875 09da 05       		.uleb128 0x5
 1876 09db F4080000 		.4byte	.LASF154
 1877 09df 0E       		.byte	0xe
 1878 09e0 71       		.byte	0x71
 1879 09e1 6D090000 		.4byte	0x96d
 1880 09e5 1E       		.uleb128 0x1e
 1881 09e6 08080000 		.4byte	0x808
ARM GAS  /var/folders/m4/4md61f0s1_g0rzfghffqnxvr0000gn/T//ccGOOKyv.s 			page 34


 1882 09ea 01       		.byte	0x1
 1883 09eb A0       		.byte	0xa0
 1884 09ec 01       		.byte	0x1
 1885 09ed F5090000 		.4byte	0x9f5
 1886 09f1 250A0000 		.4byte	0xa25
 1887 09f5 1F       		.uleb128 0x1f
 1888 09f6 13030000 		.4byte	.LASF155
 1889 09fa 250A0000 		.4byte	0xa25
 1890 09fe 20       		.uleb128 0x20
 1891 09ff D1070000 		.4byte	.LASF160
 1892 0a03 01       		.byte	0x1
 1893 0a04 A0       		.byte	0xa0
 1894 0a05 CB000000 		.4byte	0xcb
 1895 0a09 21       		.uleb128 0x21
 1896 0a0a 7200     		.ascii	"r\000"
 1897 0a0c 01       		.byte	0x1
 1898 0a0d A1       		.byte	0xa1
 1899 0a0e CB000000 		.4byte	0xcb
 1900 0a12 21       		.uleb128 0x21
 1901 0a13 6700     		.ascii	"g\000"
 1902 0a15 01       		.byte	0x1
 1903 0a16 A2       		.byte	0xa2
 1904 0a17 CB000000 		.4byte	0xcb
 1905 0a1b 21       		.uleb128 0x21
 1906 0a1c 6200     		.ascii	"b\000"
 1907 0a1e 01       		.byte	0x1
 1908 0a1f A3       		.byte	0xa3
 1909 0a20 CB000000 		.4byte	0xcb
 1910 0a24 00       		.byte	0
 1911 0a25 16       		.uleb128 0x16
 1912 0a26 47080000 		.4byte	0x847
 1913 0a2a 1E       		.uleb128 0x1e
 1914 0a2b 6A070000 		.4byte	0x76a
 1915 0a2f 01       		.byte	0x1
 1916 0a30 07       		.byte	0x7
 1917 0a31 00       		.byte	0
 1918 0a32 3A0A0000 		.4byte	0xa3a
 1919 0a36 880A0000 		.4byte	0xa88
 1920 0a3a 1F       		.uleb128 0x1f
 1921 0a3b 13030000 		.4byte	.LASF155
 1922 0a3f 250A0000 		.4byte	0xa25
 1923 0a43 22       		.uleb128 0x22
 1924 0a44 23       		.uleb128 0x23
 1925 0a45 61030000 		.4byte	.LASF156
 1926 0a49 01       		.byte	0x1
 1927 0a4a 08       		.byte	0x8
 1928 0a4b 62090000 		.4byte	0x962
 1929 0a4f 23       		.uleb128 0x23
 1930 0a50 A4030000 		.4byte	.LASF157
 1931 0a54 01       		.byte	0x1
 1932 0a55 09       		.byte	0x9
 1933 0a56 DA090000 		.4byte	0x9da
 1934 0a5a 23       		.uleb128 0x23
 1935 0a5b 82020000 		.4byte	.LASF158
 1936 0a5f 01       		.byte	0x1
 1937 0a60 0A       		.byte	0xa
 1938 0a61 0E090000 		.4byte	0x90e
ARM GAS  /var/folders/m4/4md61f0s1_g0rzfghffqnxvr0000gn/T//ccGOOKyv.s 			page 35


 1939 0a65 21       		.uleb128 0x21
 1940 0a66 6900     		.ascii	"i\000"
 1941 0a68 01       		.byte	0x1
 1942 0a69 0D       		.byte	0xd
 1943 0a6a 2C000000 		.4byte	0x2c
 1944 0a6e 21       		.uleb128 0x21
 1945 0a6f 62697400 		.ascii	"bit\000"
 1946 0a73 01       		.byte	0x1
 1947 0a74 0D       		.byte	0xd
 1948 0a75 2C000000 		.4byte	0x2c
 1949 0a79 22       		.uleb128 0x22
 1950 0a7a 23       		.uleb128 0x23
 1951 0a7b B3080000 		.4byte	.LASF159
 1952 0a7f 01       		.byte	0x1
 1953 0a80 14       		.byte	0x14
 1954 0a81 CB000000 		.4byte	0xcb
 1955 0a85 00       		.byte	0
 1956 0a86 00       		.byte	0
 1957 0a87 00       		.byte	0
 1958 0a88 24       		.uleb128 0x24
 1959 0a89 2A0A0000 		.4byte	0xa2a
 1960 0a8d CC020000 		.4byte	.LASF161
 1961 0a91 00000000 		.4byte	.LFB269
 1962 0a95 B0010000 		.4byte	.LFE269-.LFB269
 1963 0a99 01       		.uleb128 0x1
 1964 0a9a 9C       		.byte	0x9c
 1965 0a9b A30A0000 		.4byte	0xaa3
 1966 0a9f C50C0000 		.4byte	0xcc5
 1967 0aa3 25       		.uleb128 0x25
 1968 0aa4 3A0A0000 		.4byte	0xa3a
 1969 0aa8 00000000 		.4byte	.LLST0
 1970 0aac 26       		.uleb128 0x26
 1971 0aad 00000000 		.4byte	.Ldebug_ranges0+0
 1972 0ab1 27       		.uleb128 0x27
 1973 0ab2 440A0000 		.4byte	0xa44
 1974 0ab6 03       		.uleb128 0x3
 1975 0ab7 91       		.byte	0x91
 1976 0ab8 847F     		.sleb128 -124
 1977 0aba 27       		.uleb128 0x27
 1978 0abb 4F0A0000 		.4byte	0xa4f
 1979 0abf 03       		.uleb128 0x3
 1980 0ac0 91       		.byte	0x91
 1981 0ac1 907F     		.sleb128 -112
 1982 0ac3 27       		.uleb128 0x27
 1983 0ac4 5A0A0000 		.4byte	0xa5a
 1984 0ac8 03       		.uleb128 0x3
 1985 0ac9 91       		.byte	0x91
 1986 0aca A47F     		.sleb128 -92
 1987 0acc 28       		.uleb128 0x28
 1988 0acd 650A0000 		.4byte	0xa65
 1989 0ad1 29000000 		.4byte	.LLST1
 1990 0ad5 28       		.uleb128 0x28
 1991 0ad6 6E0A0000 		.4byte	0xa6e
 1992 0ada A8000000 		.4byte	.LLST2
 1993 0ade 29       		.uleb128 0x29
 1994 0adf 2A000000 		.4byte	.LBB17
 1995 0ae3 42000000 		.4byte	.LBE17-.LBB17
ARM GAS  /var/folders/m4/4md61f0s1_g0rzfghffqnxvr0000gn/T//ccGOOKyv.s 			page 36


 1996 0ae7 380B0000 		.4byte	0xb38
 1997 0aeb 28       		.uleb128 0x28
 1998 0aec 7A0A0000 		.4byte	0xa7a
 1999 0af0 BC000000 		.4byte	.LLST3
 2000 0af4 2A       		.uleb128 0x2a
 2001 0af5 E5090000 		.4byte	0x9e5
 2002 0af9 2E000000 		.4byte	.LBB18
 2003 0afd 28000000 		.4byte	.LBE18-.LBB18
 2004 0b01 01       		.byte	0x1
 2005 0b02 14       		.byte	0x14
 2006 0b03 2B       		.uleb128 0x2b
 2007 0b04 FE090000 		.4byte	0x9fe
 2008 0b08 25       		.uleb128 0x25
 2009 0b09 F5090000 		.4byte	0x9f5
 2010 0b0d CF000000 		.4byte	.LLST4
 2011 0b11 2C       		.uleb128 0x2c
 2012 0b12 2E000000 		.4byte	.LBB19
 2013 0b16 28000000 		.4byte	.LBE19-.LBB19
 2014 0b1a 28       		.uleb128 0x28
 2015 0b1b 090A0000 		.4byte	0xa09
 2016 0b1f E2000000 		.4byte	.LLST5
 2017 0b23 28       		.uleb128 0x28
 2018 0b24 120A0000 		.4byte	0xa12
 2019 0b28 0C010000 		.4byte	.LLST6
 2020 0b2c 28       		.uleb128 0x28
 2021 0b2d 1B0A0000 		.4byte	0xa1b
 2022 0b31 36010000 		.4byte	.LLST7
 2023 0b35 00       		.byte	0
 2024 0b36 00       		.byte	0
 2025 0b37 00       		.byte	0
 2026 0b38 2D       		.uleb128 0x2d
 2027 0b39 A6000000 		.4byte	.LVL17
 2028 0b3d 9A0E0000 		.4byte	0xe9a
 2029 0b41 610B0000 		.4byte	0xb61
 2030 0b45 2E       		.uleb128 0x2e
 2031 0b46 02       		.uleb128 0x2
 2032 0b47 90       		.byte	0x90
 2033 0b48 40       		.uleb128 0x40
 2034 0b49 0A       		.uleb128 0xa
 2035 0b4a 74       		.byte	0x74
 2036 0b4b 00       		.sleb128 0
 2037 0b4c F7       		.byte	0xf7
 2038 0b4d 2C       		.uleb128 0x2c
 2039 0b4e F7       		.byte	0xf7
 2040 0b4f 25       		.uleb128 0x25
 2041 0b50 F5       		.byte	0xf5
 2042 0b51 50       		.uleb128 0x50
 2043 0b52 25       		.uleb128 0x25
 2044 0b53 1B       		.byte	0x1b
 2045 0b54 2E       		.uleb128 0x2e
 2046 0b55 02       		.uleb128 0x2
 2047 0b56 90       		.byte	0x90
 2048 0b57 41       		.uleb128 0x41
 2049 0b58 07       		.uleb128 0x7
 2050 0b59 F4       		.byte	0xf4
 2051 0b5a 25       		.uleb128 0x25
 2052 0b5b 04       		.byte	0x4
ARM GAS  /var/folders/m4/4md61f0s1_g0rzfghffqnxvr0000gn/T//ccGOOKyv.s 			page 37


 2053 0b5c E4380E40 		.4byte	0x400e38e4
 2054 0b60 00       		.byte	0
 2055 0b61 2F       		.uleb128 0x2f
 2056 0b62 B0000000 		.4byte	.LVL19
 2057 0b66 A60E0000 		.4byte	0xea6
 2058 0b6a 2D       		.uleb128 0x2d
 2059 0b6b D0000000 		.4byte	.LVL20
 2060 0b6f B20E0000 		.4byte	0xeb2
 2061 0b73 8E0B0000 		.4byte	0xb8e
 2062 0b77 2E       		.uleb128 0x2e
 2063 0b78 01       		.uleb128 0x1
 2064 0b79 50       		.byte	0x50
 2065 0b7a 05       		.uleb128 0x5
 2066 0b7b 0C       		.byte	0xc
 2067 0b7c 00040240 		.4byte	0x40020400
 2068 0b80 2E       		.uleb128 0x2e
 2069 0b81 01       		.uleb128 0x1
 2070 0b82 51       		.byte	0x51
 2071 0b83 02       		.uleb128 0x2
 2072 0b84 74       		.byte	0x74
 2073 0b85 00       		.sleb128 0
 2074 0b86 2E       		.uleb128 0x2e
 2075 0b87 01       		.uleb128 0x1
 2076 0b88 52       		.byte	0x52
 2077 0b89 03       		.uleb128 0x3
 2078 0b8a 0A       		.byte	0xa
 2079 0b8b 0A01     		.2byte	0x10a
 2080 0b8d 00       		.byte	0
 2081 0b8e 2D       		.uleb128 0x2d
 2082 0b8f DA000000 		.4byte	.LVL21
 2083 0b93 BE0E0000 		.4byte	0xebe
 2084 0b97 A80B0000 		.4byte	0xba8
 2085 0b9b 2E       		.uleb128 0x2e
 2086 0b9c 01       		.uleb128 0x1
 2087 0b9d 50       		.byte	0x50
 2088 0b9e 03       		.uleb128 0x3
 2089 0b9f 40       		.byte	0x40
 2090 0ba0 41       		.byte	0x41
 2091 0ba1 24       		.byte	0x24
 2092 0ba2 2E       		.uleb128 0x2e
 2093 0ba3 01       		.uleb128 0x1
 2094 0ba4 51       		.byte	0x51
 2095 0ba5 01       		.uleb128 0x1
 2096 0ba6 31       		.byte	0x31
 2097 0ba7 00       		.byte	0
 2098 0ba8 2D       		.uleb128 0x2d
 2099 0ba9 E0000000 		.4byte	.LVL22
 2100 0bad CA0E0000 		.4byte	0xeca
 2101 0bb1 BF0B0000 		.4byte	0xbbf
 2102 0bb5 2E       		.uleb128 0x2e
 2103 0bb6 01       		.uleb128 0x1
 2104 0bb7 50       		.byte	0x50
 2105 0bb8 05       		.uleb128 0x5
 2106 0bb9 0C       		.byte	0xc
 2107 0bba B8600240 		.4byte	0x400260b8
 2108 0bbe 00       		.byte	0
 2109 0bbf 2D       		.uleb128 0x2d
ARM GAS  /var/folders/m4/4md61f0s1_g0rzfghffqnxvr0000gn/T//ccGOOKyv.s 			page 38


 2110 0bc0 24010000 		.4byte	.LVL24
 2111 0bc4 D60E0000 		.4byte	0xed6
 2112 0bc8 DD0B0000 		.4byte	0xbdd
 2113 0bcc 2E       		.uleb128 0x2e
 2114 0bcd 01       		.uleb128 0x1
 2115 0bce 50       		.byte	0x50
 2116 0bcf 05       		.uleb128 0x5
 2117 0bd0 0C       		.byte	0xc
 2118 0bd1 B8600240 		.4byte	0x400260b8
 2119 0bd5 2E       		.uleb128 0x2e
 2120 0bd6 01       		.uleb128 0x1
 2121 0bd7 51       		.byte	0x51
 2122 0bd8 03       		.uleb128 0x3
 2123 0bd9 91       		.byte	0x91
 2124 0bda A47F     		.sleb128 -92
 2125 0bdc 00       		.byte	0
 2126 0bdd 2D       		.uleb128 0x2d
 2127 0bde 2C010000 		.4byte	.LVL25
 2128 0be2 E20E0000 		.4byte	0xee2
 2129 0be6 F50B0000 		.4byte	0xbf5
 2130 0bea 2E       		.uleb128 0x2e
 2131 0beb 01       		.uleb128 0x1
 2132 0bec 50       		.byte	0x50
 2133 0bed 01       		.uleb128 0x1
 2134 0bee 34       		.byte	0x34
 2135 0bef 2E       		.uleb128 0x2e
 2136 0bf0 01       		.uleb128 0x1
 2137 0bf1 51       		.byte	0x51
 2138 0bf2 01       		.uleb128 0x1
 2139 0bf3 31       		.byte	0x31
 2140 0bf4 00       		.byte	0
 2141 0bf5 2D       		.uleb128 0x2d
 2142 0bf6 4A010000 		.4byte	.LVL26
 2143 0bfa EE0E0000 		.4byte	0xeee
 2144 0bfe 130C0000 		.4byte	0xc13
 2145 0c02 2E       		.uleb128 0x2e
 2146 0c03 01       		.uleb128 0x1
 2147 0c04 50       		.byte	0x50
 2148 0c05 05       		.uleb128 0x5
 2149 0c06 0C       		.byte	0xc
 2150 0c07 00080040 		.4byte	0x40000800
 2151 0c0b 2E       		.uleb128 0x2e
 2152 0c0c 01       		.uleb128 0x1
 2153 0c0d 51       		.byte	0x51
 2154 0c0e 03       		.uleb128 0x3
 2155 0c0f 91       		.byte	0x91
 2156 0c10 847F     		.sleb128 -124
 2157 0c12 00       		.byte	0
 2158 0c13 2D       		.uleb128 0x2d
 2159 0c14 64010000 		.4byte	.LVL27
 2160 0c18 FA0E0000 		.4byte	0xefa
 2161 0c1c 310C0000 		.4byte	0xc31
 2162 0c20 2E       		.uleb128 0x2e
 2163 0c21 01       		.uleb128 0x1
 2164 0c22 50       		.byte	0x50
 2165 0c23 05       		.uleb128 0x5
 2166 0c24 0C       		.byte	0xc
ARM GAS  /var/folders/m4/4md61f0s1_g0rzfghffqnxvr0000gn/T//ccGOOKyv.s 			page 39


 2167 0c25 00080040 		.4byte	0x40000800
 2168 0c29 2E       		.uleb128 0x2e
 2169 0c2a 01       		.uleb128 0x1
 2170 0c2b 51       		.byte	0x51
 2171 0c2c 03       		.uleb128 0x3
 2172 0c2d 91       		.byte	0x91
 2173 0c2e 907F     		.sleb128 -112
 2174 0c30 00       		.byte	0
 2175 0c31 2D       		.uleb128 0x2d
 2176 0c32 6C010000 		.4byte	.LVL28
 2177 0c36 060F0000 		.4byte	0xf06
 2178 0c3a 4D0C0000 		.4byte	0xc4d
 2179 0c3e 2E       		.uleb128 0x2e
 2180 0c3f 01       		.uleb128 0x1
 2181 0c40 50       		.byte	0x50
 2182 0c41 05       		.uleb128 0x5
 2183 0c42 0C       		.byte	0xc
 2184 0c43 00080040 		.4byte	0x40000800
 2185 0c47 2E       		.uleb128 0x2e
 2186 0c48 01       		.uleb128 0x1
 2187 0c49 51       		.byte	0x51
 2188 0c4a 01       		.uleb128 0x1
 2189 0c4b 38       		.byte	0x38
 2190 0c4c 00       		.byte	0
 2191 0c4d 2D       		.uleb128 0x2d
 2192 0c4e 74010000 		.4byte	.LVL29
 2193 0c52 120F0000 		.4byte	0xf12
 2194 0c56 6A0C0000 		.4byte	0xc6a
 2195 0c5a 2E       		.uleb128 0x2e
 2196 0c5b 01       		.uleb128 0x1
 2197 0c5c 50       		.byte	0x50
 2198 0c5d 05       		.uleb128 0x5
 2199 0c5e 0C       		.byte	0xc
 2200 0c5f 00080040 		.4byte	0x40000800
 2201 0c63 2E       		.uleb128 0x2e
 2202 0c64 01       		.uleb128 0x1
 2203 0c65 51       		.byte	0x51
 2204 0c66 02       		.uleb128 0x2
 2205 0c67 74       		.byte	0x74
 2206 0c68 00       		.sleb128 0
 2207 0c69 00       		.byte	0
 2208 0c6a 2D       		.uleb128 0x2d
 2209 0c6b 7C010000 		.4byte	.LVL30
 2210 0c6f 1E0F0000 		.4byte	0xf1e
 2211 0c73 870C0000 		.4byte	0xc87
 2212 0c77 2E       		.uleb128 0x2e
 2213 0c78 01       		.uleb128 0x1
 2214 0c79 50       		.byte	0x50
 2215 0c7a 05       		.uleb128 0x5
 2216 0c7b 0C       		.byte	0xc
 2217 0c7c B8600240 		.4byte	0x400260b8
 2218 0c80 2E       		.uleb128 0x2e
 2219 0c81 01       		.uleb128 0x1
 2220 0c82 51       		.byte	0x51
 2221 0c83 02       		.uleb128 0x2
 2222 0c84 74       		.byte	0x74
 2223 0c85 00       		.sleb128 0
ARM GAS  /var/folders/m4/4md61f0s1_g0rzfghffqnxvr0000gn/T//ccGOOKyv.s 			page 40


 2224 0c86 00       		.byte	0
 2225 0c87 2D       		.uleb128 0x2d
 2226 0c88 86010000 		.4byte	.LVL31
 2227 0c8c 2A0F0000 		.4byte	0xf2a
 2228 0c90 AA0C0000 		.4byte	0xcaa
 2229 0c94 2E       		.uleb128 0x2e
 2230 0c95 01       		.uleb128 0x1
 2231 0c96 50       		.byte	0x50
 2232 0c97 05       		.uleb128 0x5
 2233 0c98 0C       		.byte	0xc
 2234 0c99 00080040 		.4byte	0x40000800
 2235 0c9d 2E       		.uleb128 0x2e
 2236 0c9e 01       		.uleb128 0x1
 2237 0c9f 51       		.byte	0x51
 2238 0ca0 02       		.uleb128 0x2
 2239 0ca1 77       		.byte	0x77
 2240 0ca2 00       		.sleb128 0
 2241 0ca3 2E       		.uleb128 0x2e
 2242 0ca4 01       		.uleb128 0x1
 2243 0ca5 52       		.byte	0x52
 2244 0ca6 02       		.uleb128 0x2
 2245 0ca7 74       		.byte	0x74
 2246 0ca8 00       		.sleb128 0
 2247 0ca9 00       		.byte	0
 2248 0caa 30       		.uleb128 0x30
 2249 0cab 8E010000 		.4byte	.LVL32
 2250 0caf 360F0000 		.4byte	0xf36
 2251 0cb3 2E       		.uleb128 0x2e
 2252 0cb4 01       		.uleb128 0x1
 2253 0cb5 50       		.byte	0x50
 2254 0cb6 05       		.uleb128 0x5
 2255 0cb7 0C       		.byte	0xc
 2256 0cb8 00080040 		.4byte	0x40000800
 2257 0cbc 2E       		.uleb128 0x2e
 2258 0cbd 01       		.uleb128 0x1
 2259 0cbe 51       		.byte	0x51
 2260 0cbf 02       		.uleb128 0x2
 2261 0cc0 74       		.byte	0x74
 2262 0cc1 00       		.sleb128 0
 2263 0cc2 00       		.byte	0
 2264 0cc3 00       		.byte	0
 2265 0cc4 00       		.byte	0
 2266 0cc5 31       		.uleb128 0x31
 2267 0cc6 88070000 		.4byte	0x788
 2268 0cca 01       		.byte	0x1
 2269 0ccb 67       		.byte	0x67
 2270 0ccc 00000000 		.4byte	.LFB271
 2271 0cd0 5A000000 		.4byte	.LFE271-.LFB271
 2272 0cd4 01       		.uleb128 0x1
 2273 0cd5 9C       		.byte	0x9c
 2274 0cd6 DE0C0000 		.4byte	0xcde
 2275 0cda 660D0000 		.4byte	0xd66
 2276 0cde 32       		.uleb128 0x32
 2277 0cdf 13030000 		.4byte	.LASF155
 2278 0ce3 250A0000 		.4byte	0xa25
 2279 0ce7 5E010000 		.4byte	.LLST8
 2280 0ceb 33       		.uleb128 0x33
ARM GAS  /var/folders/m4/4md61f0s1_g0rzfghffqnxvr0000gn/T//ccGOOKyv.s 			page 41


 2281 0cec 6C656400 		.ascii	"led\000"
 2282 0cf0 01       		.byte	0x1
 2283 0cf1 67       		.byte	0x67
 2284 0cf2 2C000000 		.4byte	0x2c
 2285 0cf6 7F010000 		.4byte	.LLST9
 2286 0cfa 34       		.uleb128 0x34
 2287 0cfb D1070000 		.4byte	.LASF160
 2288 0cff 01       		.byte	0x1
 2289 0d00 67       		.byte	0x67
 2290 0d01 CB000000 		.4byte	0xcb
 2291 0d05 A0010000 		.4byte	.LLST10
 2292 0d09 2C       		.uleb128 0x2c
 2293 0d0a 06000000 		.4byte	.LBB23
 2294 0d0e 50000000 		.4byte	.LBE23-.LBB23
 2295 0d12 35       		.uleb128 0x35
 2296 0d13 62697400 		.ascii	"bit\000"
 2297 0d17 01       		.byte	0x1
 2298 0d18 6D       		.byte	0x6d
 2299 0d19 2C000000 		.4byte	0x2c
 2300 0d1d CB010000 		.4byte	.LLST11
 2301 0d21 36       		.uleb128 0x36
 2302 0d22 E5090000 		.4byte	0x9e5
 2303 0d26 06000000 		.4byte	.LBB24
 2304 0d2a 20000000 		.4byte	.Ldebug_ranges0+0x20
 2305 0d2e 01       		.byte	0x1
 2306 0d2f 6B       		.byte	0x6b
 2307 0d30 25       		.uleb128 0x25
 2308 0d31 FE090000 		.4byte	0x9fe
 2309 0d35 DF010000 		.4byte	.LLST12
 2310 0d39 25       		.uleb128 0x25
 2311 0d3a F5090000 		.4byte	0x9f5
 2312 0d3e FF010000 		.4byte	.LLST13
 2313 0d42 26       		.uleb128 0x26
 2314 0d43 20000000 		.4byte	.Ldebug_ranges0+0x20
 2315 0d47 28       		.uleb128 0x28
 2316 0d48 090A0000 		.4byte	0xa09
 2317 0d4c 12020000 		.4byte	.LLST14
 2318 0d50 28       		.uleb128 0x28
 2319 0d51 120A0000 		.4byte	0xa12
 2320 0d55 70020000 		.4byte	.LLST15
 2321 0d59 28       		.uleb128 0x28
 2322 0d5a 1B0A0000 		.4byte	0xa1b
 2323 0d5e CE020000 		.4byte	.LLST16
 2324 0d62 00       		.byte	0
 2325 0d63 00       		.byte	0
 2326 0d64 00       		.byte	0
 2327 0d65 00       		.byte	0
 2328 0d66 31       		.uleb128 0x31
 2329 0d67 AC070000 		.4byte	0x7ac
 2330 0d6b 01       		.byte	0x1
 2331 0d6c 79       		.byte	0x79
 2332 0d6d 00000000 		.4byte	.LFB272
 2333 0d71 10000000 		.4byte	.LFE272-.LFB272
 2334 0d75 01       		.uleb128 0x1
 2335 0d76 9C       		.byte	0x9c
 2336 0d77 7F0D0000 		.4byte	0xd7f
 2337 0d7b 9A0D0000 		.4byte	0xd9a
ARM GAS  /var/folders/m4/4md61f0s1_g0rzfghffqnxvr0000gn/T//ccGOOKyv.s 			page 42


 2338 0d7f 32       		.uleb128 0x32
 2339 0d80 13030000 		.4byte	.LASF155
 2340 0d84 250A0000 		.4byte	0xa25
 2341 0d88 08030000 		.4byte	.LLST17
 2342 0d8c 37       		.uleb128 0x37
 2343 0d8d 6C656400 		.ascii	"led\000"
 2344 0d91 01       		.byte	0x1
 2345 0d92 79       		.byte	0x79
 2346 0d93 2C000000 		.4byte	0x2c
 2347 0d97 01       		.uleb128 0x1
 2348 0d98 51       		.byte	0x51
 2349 0d99 00       		.byte	0
 2350 0d9a 31       		.uleb128 0x31
 2351 0d9b CF070000 		.4byte	0x7cf
 2352 0d9f 01       		.byte	0x1
 2353 0da0 81       		.byte	0x81
 2354 0da1 00000000 		.4byte	.LFB273
 2355 0da5 24000000 		.4byte	.LFE273-.LFB273
 2356 0da9 01       		.uleb128 0x1
 2357 0daa 9C       		.byte	0x9c
 2358 0dab B30D0000 		.4byte	0xdb3
 2359 0daf CC0D0000 		.4byte	0xdcc
 2360 0db3 38       		.uleb128 0x38
 2361 0db4 13030000 		.4byte	.LASF155
 2362 0db8 250A0000 		.4byte	0xa25
 2363 0dbc 01       		.uleb128 0x1
 2364 0dbd 50       		.byte	0x50
 2365 0dbe 35       		.uleb128 0x35
 2366 0dbf 6900     		.ascii	"i\000"
 2367 0dc1 01       		.byte	0x1
 2368 0dc2 82       		.byte	0x82
 2369 0dc3 2C000000 		.4byte	0x2c
 2370 0dc7 29030000 		.4byte	.LLST18
 2371 0dcb 00       		.byte	0
 2372 0dcc 31       		.uleb128 0x31
 2373 0dcd E9070000 		.4byte	0x7e9
 2374 0dd1 01       		.byte	0x1
 2375 0dd2 8D       		.byte	0x8d
 2376 0dd3 00000000 		.4byte	.LFB274
 2377 0dd7 5E000000 		.4byte	.LFE274-.LFB274
 2378 0ddb 01       		.uleb128 0x1
 2379 0ddc 9C       		.byte	0x9c
 2380 0ddd E50D0000 		.4byte	0xde5
 2381 0de1 350E0000 		.4byte	0xe35
 2382 0de5 32       		.uleb128 0x32
 2383 0de6 13030000 		.4byte	.LASF155
 2384 0dea 250A0000 		.4byte	0xa25
 2385 0dee 6D030000 		.4byte	.LLST19
 2386 0df2 39       		.uleb128 0x39
 2387 0df3 D1070000 		.4byte	.LASF160
 2388 0df7 01       		.byte	0x1
 2389 0df8 8D       		.byte	0x8d
 2390 0df9 CB000000 		.4byte	0xcb
 2391 0dfd 01       		.uleb128 0x1
 2392 0dfe 51       		.byte	0x51
 2393 0dff 35       		.uleb128 0x35
 2394 0e00 6900     		.ascii	"i\000"
ARM GAS  /var/folders/m4/4md61f0s1_g0rzfghffqnxvr0000gn/T//ccGOOKyv.s 			page 43


 2395 0e02 01       		.byte	0x1
 2396 0e03 8E       		.byte	0x8e
 2397 0e04 2C000000 		.4byte	0x2c
 2398 0e08 9B030000 		.4byte	.LLST20
 2399 0e0c 35       		.uleb128 0x35
 2400 0e0d 62697400 		.ascii	"bit\000"
 2401 0e11 01       		.byte	0x1
 2402 0e12 8E       		.byte	0x8e
 2403 0e13 2C000000 		.4byte	0x2c
 2404 0e17 AF030000 		.4byte	.LLST21
 2405 0e1b 2C       		.uleb128 0x2c
 2406 0e1c 30000000 		.4byte	.LBB32
 2407 0e20 24000000 		.4byte	.LBE32-.LBB32
 2408 0e24 3A       		.uleb128 0x3a
 2409 0e25 B3080000 		.4byte	.LASF159
 2410 0e29 01       		.byte	0x1
 2411 0e2a 93       		.byte	0x93
 2412 0e2b CB000000 		.4byte	0xcb
 2413 0e2f C3030000 		.4byte	.LLST22
 2414 0e33 00       		.byte	0
 2415 0e34 00       		.byte	0
 2416 0e35 24       		.uleb128 0x24
 2417 0e36 E5090000 		.4byte	0x9e5
 2418 0e3a EE050000 		.4byte	.LASF162
 2419 0e3e 00000000 		.4byte	.LFB275
 2420 0e42 26000000 		.4byte	.LFE275-.LFB275
 2421 0e46 01       		.uleb128 0x1
 2422 0e47 9C       		.byte	0x9c
 2423 0e48 500E0000 		.4byte	0xe50
 2424 0e4c 7E0E0000 		.4byte	0xe7e
 2425 0e50 25       		.uleb128 0x25
 2426 0e51 F5090000 		.4byte	0x9f5
 2427 0e55 21040000 		.4byte	.LLST23
 2428 0e59 25       		.uleb128 0x25
 2429 0e5a FE090000 		.4byte	0x9fe
 2430 0e5e 42040000 		.4byte	.LLST24
 2431 0e62 28       		.uleb128 0x28
 2432 0e63 090A0000 		.4byte	0xa09
 2433 0e67 63040000 		.4byte	.LLST25
 2434 0e6b 28       		.uleb128 0x28
 2435 0e6c 120A0000 		.4byte	0xa12
 2436 0e70 CC040000 		.4byte	.LLST26
 2437 0e74 28       		.uleb128 0x28
 2438 0e75 1B0A0000 		.4byte	0xa1b
 2439 0e79 F6040000 		.4byte	.LLST27
 2440 0e7d 00       		.byte	0
 2441 0e7e 3B       		.uleb128 0x3b
 2442 0e7f 0E020000 		.4byte	.LASF163
 2443 0e83 12       		.byte	0x12
 2444 0e84 FA06     		.2byte	0x6fa
 2445 0e86 8A0E0000 		.4byte	0xe8a
 2446 0e8a 17       		.uleb128 0x17
 2447 0e8b C0000000 		.4byte	0xc0
 2448 0e8f 3C       		.uleb128 0x3c
 2449 0e90 636800   		.ascii	"ch\000"
 2450 0e93 06       		.byte	0x6
 2451 0e94 0902     		.2byte	0x209
ARM GAS  /var/folders/m4/4md61f0s1_g0rzfghffqnxvr0000gn/T//ccGOOKyv.s 			page 44


 2452 0e96 68040000 		.4byte	0x468
 2453 0e9a 3D       		.uleb128 0x3d
 2454 0e9b 7D090000 		.4byte	.LASF164
 2455 0e9f 7D090000 		.4byte	.LASF164
 2456 0ea3 0F       		.byte	0xf
 2457 0ea4 5301     		.2byte	0x153
 2458 0ea6 3D       		.uleb128 0x3d
 2459 0ea7 CD080000 		.4byte	.LASF165
 2460 0eab CD080000 		.4byte	.LASF165
 2461 0eaf 0F       		.byte	0xf
 2462 0eb0 6001     		.2byte	0x160
 2463 0eb2 3D       		.uleb128 0x3d
 2464 0eb3 72080000 		.4byte	.LASF166
 2465 0eb7 72080000 		.4byte	.LASF166
 2466 0ebb 10       		.byte	0x10
 2467 0ebc 2402     		.2byte	0x224
 2468 0ebe 3D       		.uleb128 0x3d
 2469 0ebf 15070000 		.4byte	.LASF167
 2470 0ec3 15070000 		.4byte	.LASF167
 2471 0ec7 11       		.byte	0x11
 2472 0ec8 5803     		.2byte	0x358
 2473 0eca 3D       		.uleb128 0x3d
 2474 0ecb 2C020000 		.4byte	.LASF168
 2475 0ecf 2C020000 		.4byte	.LASF168
 2476 0ed3 0D       		.byte	0xd
 2477 0ed4 3202     		.2byte	0x232
 2478 0ed6 3D       		.uleb128 0x3d
 2479 0ed7 C4080000 		.4byte	.LASF169
 2480 0edb C4080000 		.4byte	.LASF169
 2481 0edf 0D       		.byte	0xd
 2482 0ee0 3502     		.2byte	0x235
 2483 0ee2 3D       		.uleb128 0x3d
 2484 0ee3 B3050000 		.4byte	.LASF170
 2485 0ee7 B3050000 		.4byte	.LASF170
 2486 0eeb 11       		.byte	0x11
 2487 0eec 5B03     		.2byte	0x35b
 2488 0eee 3D       		.uleb128 0x3d
 2489 0eef 47070000 		.4byte	.LASF171
 2490 0ef3 47070000 		.4byte	.LASF171
 2491 0ef7 0E       		.byte	0xe
 2492 0ef8 0304     		.2byte	0x403
 2493 0efa 3D       		.uleb128 0x3d
 2494 0efb 94020000 		.4byte	.LASF172
 2495 0eff 94020000 		.4byte	.LASF172
 2496 0f03 0E       		.byte	0xe
 2497 0f04 1504     		.2byte	0x415
 2498 0f06 3D       		.uleb128 0x3d
 2499 0f07 D4090000 		.4byte	.LASF173
 2500 0f0b D4090000 		.4byte	.LASF173
 2501 0f0f 0E       		.byte	0xe
 2502 0f10 2304     		.2byte	0x423
 2503 0f12 3D       		.uleb128 0x3d
 2504 0f13 DC070000 		.4byte	.LASF174
 2505 0f17 DC070000 		.4byte	.LASF174
 2506 0f1b 0E       		.byte	0xe
 2507 0f1c 1004     		.2byte	0x410
 2508 0f1e 3D       		.uleb128 0x3d
ARM GAS  /var/folders/m4/4md61f0s1_g0rzfghffqnxvr0000gn/T//ccGOOKyv.s 			page 45


 2509 0f1f FA040000 		.4byte	.LASF175
 2510 0f23 FA040000 		.4byte	.LASF175
 2511 0f27 0D       		.byte	0xd
 2512 0f28 3702     		.2byte	0x237
 2513 0f2a 3D       		.uleb128 0x3d
 2514 0f2b 8F040000 		.4byte	.LASF176
 2515 0f2f 8F040000 		.4byte	.LASF176
 2516 0f33 0E       		.byte	0xe
 2517 0f34 5304     		.2byte	0x453
 2518 0f36 3D       		.uleb128 0x3d
 2519 0f37 BA060000 		.4byte	.LASF177
 2520 0f3b BA060000 		.4byte	.LASF177
 2521 0f3f 0E       		.byte	0xe
 2522 0f40 4704     		.2byte	0x447
 2523 0f42 00       		.byte	0
 2524              		.section	.debug_abbrev,"",%progbits
 2525              	.Ldebug_abbrev0:
 2526 0000 01       		.uleb128 0x1
 2527 0001 11       		.uleb128 0x11
 2528 0002 01       		.byte	0x1
 2529 0003 25       		.uleb128 0x25
 2530 0004 0E       		.uleb128 0xe
 2531 0005 13       		.uleb128 0x13
 2532 0006 0B       		.uleb128 0xb
 2533 0007 03       		.uleb128 0x3
 2534 0008 0E       		.uleb128 0xe
 2535 0009 1B       		.uleb128 0x1b
 2536 000a 0E       		.uleb128 0xe
 2537 000b 55       		.uleb128 0x55
 2538 000c 17       		.uleb128 0x17
 2539 000d 11       		.uleb128 0x11
 2540 000e 01       		.uleb128 0x1
 2541 000f 10       		.uleb128 0x10
 2542 0010 17       		.uleb128 0x17
 2543 0011 00       		.byte	0
 2544 0012 00       		.byte	0
 2545 0013 02       		.uleb128 0x2
 2546 0014 24       		.uleb128 0x24
 2547 0015 00       		.byte	0
 2548 0016 0B       		.uleb128 0xb
 2549 0017 0B       		.uleb128 0xb
 2550 0018 3E       		.uleb128 0x3e
 2551 0019 0B       		.uleb128 0xb
 2552 001a 03       		.uleb128 0x3
 2553 001b 0E       		.uleb128 0xe
 2554 001c 00       		.byte	0
 2555 001d 00       		.byte	0
 2556 001e 03       		.uleb128 0x3
 2557 001f 24       		.uleb128 0x24
 2558 0020 00       		.byte	0
 2559 0021 0B       		.uleb128 0xb
 2560 0022 0B       		.uleb128 0xb
 2561 0023 3E       		.uleb128 0x3e
 2562 0024 0B       		.uleb128 0xb
 2563 0025 03       		.uleb128 0x3
 2564 0026 08       		.uleb128 0x8
 2565 0027 00       		.byte	0
ARM GAS  /var/folders/m4/4md61f0s1_g0rzfghffqnxvr0000gn/T//ccGOOKyv.s 			page 46


 2566 0028 00       		.byte	0
 2567 0029 04       		.uleb128 0x4
 2568 002a 3B       		.uleb128 0x3b
 2569 002b 00       		.byte	0
 2570 002c 03       		.uleb128 0x3
 2571 002d 0E       		.uleb128 0xe
 2572 002e 00       		.byte	0
 2573 002f 00       		.byte	0
 2574 0030 05       		.uleb128 0x5
 2575 0031 16       		.uleb128 0x16
 2576 0032 00       		.byte	0
 2577 0033 03       		.uleb128 0x3
 2578 0034 0E       		.uleb128 0xe
 2579 0035 3A       		.uleb128 0x3a
 2580 0036 0B       		.uleb128 0xb
 2581 0037 3B       		.uleb128 0x3b
 2582 0038 0B       		.uleb128 0xb
 2583 0039 49       		.uleb128 0x49
 2584 003a 13       		.uleb128 0x13
 2585 003b 00       		.byte	0
 2586 003c 00       		.byte	0
 2587 003d 06       		.uleb128 0x6
 2588 003e 13       		.uleb128 0x13
 2589 003f 01       		.byte	0x1
 2590 0040 03       		.uleb128 0x3
 2591 0041 0E       		.uleb128 0xe
 2592 0042 0B       		.uleb128 0xb
 2593 0043 0B       		.uleb128 0xb
 2594 0044 3A       		.uleb128 0x3a
 2595 0045 0B       		.uleb128 0xb
 2596 0046 3B       		.uleb128 0x3b
 2597 0047 0B       		.uleb128 0xb
 2598 0048 01       		.uleb128 0x1
 2599 0049 13       		.uleb128 0x13
 2600 004a 00       		.byte	0
 2601 004b 00       		.byte	0
 2602 004c 07       		.uleb128 0x7
 2603 004d 17       		.uleb128 0x17
 2604 004e 01       		.byte	0x1
 2605 004f 0B       		.uleb128 0xb
 2606 0050 0B       		.uleb128 0xb
 2607 0051 3A       		.uleb128 0x3a
 2608 0052 0B       		.uleb128 0xb
 2609 0053 3B       		.uleb128 0x3b
 2610 0054 0B       		.uleb128 0xb
 2611 0055 01       		.uleb128 0x1
 2612 0056 13       		.uleb128 0x13
 2613 0057 00       		.byte	0
 2614 0058 00       		.byte	0
 2615 0059 08       		.uleb128 0x8
 2616 005a 0D       		.uleb128 0xd
 2617 005b 00       		.byte	0
 2618 005c 03       		.uleb128 0x3
 2619 005d 0E       		.uleb128 0xe
 2620 005e 3A       		.uleb128 0x3a
 2621 005f 0B       		.uleb128 0xb
 2622 0060 3B       		.uleb128 0x3b
ARM GAS  /var/folders/m4/4md61f0s1_g0rzfghffqnxvr0000gn/T//ccGOOKyv.s 			page 47


 2623 0061 05       		.uleb128 0x5
 2624 0062 49       		.uleb128 0x49
 2625 0063 13       		.uleb128 0x13
 2626 0064 00       		.byte	0
 2627 0065 00       		.byte	0
 2628 0066 09       		.uleb128 0x9
 2629 0067 0D       		.uleb128 0xd
 2630 0068 00       		.byte	0
 2631 0069 03       		.uleb128 0x3
 2632 006a 0E       		.uleb128 0xe
 2633 006b 3A       		.uleb128 0x3a
 2634 006c 0B       		.uleb128 0xb
 2635 006d 3B       		.uleb128 0x3b
 2636 006e 0B       		.uleb128 0xb
 2637 006f 49       		.uleb128 0x49
 2638 0070 13       		.uleb128 0x13
 2639 0071 38       		.uleb128 0x38
 2640 0072 0B       		.uleb128 0xb
 2641 0073 00       		.byte	0
 2642 0074 00       		.byte	0
 2643 0075 0A       		.uleb128 0xa
 2644 0076 0D       		.uleb128 0xd
 2645 0077 00       		.byte	0
 2646 0078 03       		.uleb128 0x3
 2647 0079 08       		.uleb128 0x8
 2648 007a 3A       		.uleb128 0x3a
 2649 007b 0B       		.uleb128 0xb
 2650 007c 3B       		.uleb128 0x3b
 2651 007d 05       		.uleb128 0x5
 2652 007e 49       		.uleb128 0x49
 2653 007f 13       		.uleb128 0x13
 2654 0080 38       		.uleb128 0x38
 2655 0081 0B       		.uleb128 0xb
 2656 0082 00       		.byte	0
 2657 0083 00       		.byte	0
 2658 0084 0B       		.uleb128 0xb
 2659 0085 0D       		.uleb128 0xd
 2660 0086 00       		.byte	0
 2661 0087 03       		.uleb128 0x3
 2662 0088 0E       		.uleb128 0xe
 2663 0089 3A       		.uleb128 0x3a
 2664 008a 0B       		.uleb128 0xb
 2665 008b 3B       		.uleb128 0x3b
 2666 008c 05       		.uleb128 0x5
 2667 008d 49       		.uleb128 0x49
 2668 008e 13       		.uleb128 0x13
 2669 008f 38       		.uleb128 0x38
 2670 0090 0B       		.uleb128 0xb
 2671 0091 00       		.byte	0
 2672 0092 00       		.byte	0
 2673 0093 0C       		.uleb128 0xc
 2674 0094 0F       		.uleb128 0xf
 2675 0095 00       		.byte	0
 2676 0096 0B       		.uleb128 0xb
 2677 0097 0B       		.uleb128 0xb
 2678 0098 49       		.uleb128 0x49
 2679 0099 13       		.uleb128 0x13
ARM GAS  /var/folders/m4/4md61f0s1_g0rzfghffqnxvr0000gn/T//ccGOOKyv.s 			page 48


 2680 009a 00       		.byte	0
 2681 009b 00       		.byte	0
 2682 009c 0D       		.uleb128 0xd
 2683 009d 13       		.uleb128 0x13
 2684 009e 01       		.byte	0x1
 2685 009f 03       		.uleb128 0x3
 2686 00a0 0E       		.uleb128 0xe
 2687 00a1 0B       		.uleb128 0xb
 2688 00a2 0B       		.uleb128 0xb
 2689 00a3 3A       		.uleb128 0x3a
 2690 00a4 0B       		.uleb128 0xb
 2691 00a5 3B       		.uleb128 0x3b
 2692 00a6 05       		.uleb128 0x5
 2693 00a7 01       		.uleb128 0x1
 2694 00a8 13       		.uleb128 0x13
 2695 00a9 00       		.byte	0
 2696 00aa 00       		.byte	0
 2697 00ab 0E       		.uleb128 0xe
 2698 00ac 15       		.uleb128 0x15
 2699 00ad 01       		.byte	0x1
 2700 00ae 01       		.uleb128 0x1
 2701 00af 13       		.uleb128 0x13
 2702 00b0 00       		.byte	0
 2703 00b1 00       		.byte	0
 2704 00b2 0F       		.uleb128 0xf
 2705 00b3 05       		.uleb128 0x5
 2706 00b4 00       		.byte	0
 2707 00b5 49       		.uleb128 0x49
 2708 00b6 13       		.uleb128 0x13
 2709 00b7 00       		.byte	0
 2710 00b8 00       		.byte	0
 2711 00b9 10       		.uleb128 0x10
 2712 00ba 0F       		.uleb128 0xf
 2713 00bb 00       		.byte	0
 2714 00bc 0B       		.uleb128 0xb
 2715 00bd 0B       		.uleb128 0xb
 2716 00be 00       		.byte	0
 2717 00bf 00       		.byte	0
 2718 00c0 11       		.uleb128 0x11
 2719 00c1 13       		.uleb128 0x13
 2720 00c2 01       		.byte	0x1
 2721 00c3 03       		.uleb128 0x3
 2722 00c4 0E       		.uleb128 0xe
 2723 00c5 0B       		.uleb128 0xb
 2724 00c6 05       		.uleb128 0x5
 2725 00c7 3A       		.uleb128 0x3a
 2726 00c8 0B       		.uleb128 0xb
 2727 00c9 3B       		.uleb128 0x3b
 2728 00ca 05       		.uleb128 0x5
 2729 00cb 01       		.uleb128 0x1
 2730 00cc 13       		.uleb128 0x13
 2731 00cd 00       		.byte	0
 2732 00ce 00       		.byte	0
 2733 00cf 12       		.uleb128 0x12
 2734 00d0 01       		.uleb128 0x1
 2735 00d1 01       		.byte	0x1
 2736 00d2 49       		.uleb128 0x49
ARM GAS  /var/folders/m4/4md61f0s1_g0rzfghffqnxvr0000gn/T//ccGOOKyv.s 			page 49


 2737 00d3 13       		.uleb128 0x13
 2738 00d4 01       		.uleb128 0x1
 2739 00d5 13       		.uleb128 0x13
 2740 00d6 00       		.byte	0
 2741 00d7 00       		.byte	0
 2742 00d8 13       		.uleb128 0x13
 2743 00d9 21       		.uleb128 0x21
 2744 00da 00       		.byte	0
 2745 00db 49       		.uleb128 0x49
 2746 00dc 13       		.uleb128 0x13
 2747 00dd 2F       		.uleb128 0x2f
 2748 00de 0B       		.uleb128 0xb
 2749 00df 00       		.byte	0
 2750 00e0 00       		.byte	0
 2751 00e1 14       		.uleb128 0x14
 2752 00e2 0D       		.uleb128 0xd
 2753 00e3 00       		.byte	0
 2754 00e4 03       		.uleb128 0x3
 2755 00e5 08       		.uleb128 0x8
 2756 00e6 3A       		.uleb128 0x3a
 2757 00e7 0B       		.uleb128 0xb
 2758 00e8 3B       		.uleb128 0x3b
 2759 00e9 0B       		.uleb128 0xb
 2760 00ea 49       		.uleb128 0x49
 2761 00eb 13       		.uleb128 0x13
 2762 00ec 38       		.uleb128 0x38
 2763 00ed 0B       		.uleb128 0xb
 2764 00ee 00       		.byte	0
 2765 00ef 00       		.byte	0
 2766 00f0 15       		.uleb128 0x15
 2767 00f1 13       		.uleb128 0x13
 2768 00f2 01       		.byte	0x1
 2769 00f3 0B       		.uleb128 0xb
 2770 00f4 0B       		.uleb128 0xb
 2771 00f5 3A       		.uleb128 0x3a
 2772 00f6 0B       		.uleb128 0xb
 2773 00f7 3B       		.uleb128 0x3b
 2774 00f8 0B       		.uleb128 0xb
 2775 00f9 6E       		.uleb128 0x6e
 2776 00fa 0E       		.uleb128 0xe
 2777 00fb 01       		.uleb128 0x1
 2778 00fc 13       		.uleb128 0x13
 2779 00fd 00       		.byte	0
 2780 00fe 00       		.byte	0
 2781 00ff 16       		.uleb128 0x16
 2782 0100 26       		.uleb128 0x26
 2783 0101 00       		.byte	0
 2784 0102 49       		.uleb128 0x49
 2785 0103 13       		.uleb128 0x13
 2786 0104 00       		.byte	0
 2787 0105 00       		.byte	0
 2788 0106 17       		.uleb128 0x17
 2789 0107 35       		.uleb128 0x35
 2790 0108 00       		.byte	0
 2791 0109 49       		.uleb128 0x49
 2792 010a 13       		.uleb128 0x13
 2793 010b 00       		.byte	0
ARM GAS  /var/folders/m4/4md61f0s1_g0rzfghffqnxvr0000gn/T//ccGOOKyv.s 			page 50


 2794 010c 00       		.byte	0
 2795 010d 18       		.uleb128 0x18
 2796 010e 02       		.uleb128 0x2
 2797 010f 01       		.byte	0x1
 2798 0110 03       		.uleb128 0x3
 2799 0111 0E       		.uleb128 0xe
 2800 0112 0B       		.uleb128 0xb
 2801 0113 05       		.uleb128 0x5
 2802 0114 3A       		.uleb128 0x3a
 2803 0115 0B       		.uleb128 0xb
 2804 0116 3B       		.uleb128 0x3b
 2805 0117 0B       		.uleb128 0xb
 2806 0118 01       		.uleb128 0x1
 2807 0119 13       		.uleb128 0x13
 2808 011a 00       		.byte	0
 2809 011b 00       		.byte	0
 2810 011c 19       		.uleb128 0x19
 2811 011d 0D       		.uleb128 0xd
 2812 011e 00       		.byte	0
 2813 011f 03       		.uleb128 0x3
 2814 0120 0E       		.uleb128 0xe
 2815 0121 3A       		.uleb128 0x3a
 2816 0122 0B       		.uleb128 0xb
 2817 0123 3B       		.uleb128 0x3b
 2818 0124 0B       		.uleb128 0xb
 2819 0125 49       		.uleb128 0x49
 2820 0126 13       		.uleb128 0x13
 2821 0127 38       		.uleb128 0x38
 2822 0128 05       		.uleb128 0x5
 2823 0129 00       		.byte	0
 2824 012a 00       		.byte	0
 2825 012b 1A       		.uleb128 0x1a
 2826 012c 2E       		.uleb128 0x2e
 2827 012d 01       		.byte	0x1
 2828 012e 3F       		.uleb128 0x3f
 2829 012f 19       		.uleb128 0x19
 2830 0130 03       		.uleb128 0x3
 2831 0131 0E       		.uleb128 0xe
 2832 0132 3A       		.uleb128 0x3a
 2833 0133 0B       		.uleb128 0xb
 2834 0134 3B       		.uleb128 0x3b
 2835 0135 0B       		.uleb128 0xb
 2836 0136 6E       		.uleb128 0x6e
 2837 0137 0E       		.uleb128 0xe
 2838 0138 49       		.uleb128 0x49
 2839 0139 13       		.uleb128 0x13
 2840 013a 32       		.uleb128 0x32
 2841 013b 0B       		.uleb128 0xb
 2842 013c 3C       		.uleb128 0x3c
 2843 013d 19       		.uleb128 0x19
 2844 013e 64       		.uleb128 0x64
 2845 013f 13       		.uleb128 0x13
 2846 0140 01       		.uleb128 0x1
 2847 0141 13       		.uleb128 0x13
 2848 0142 00       		.byte	0
 2849 0143 00       		.byte	0
 2850 0144 1B       		.uleb128 0x1b
ARM GAS  /var/folders/m4/4md61f0s1_g0rzfghffqnxvr0000gn/T//ccGOOKyv.s 			page 51


 2851 0145 05       		.uleb128 0x5
 2852 0146 00       		.byte	0
 2853 0147 49       		.uleb128 0x49
 2854 0148 13       		.uleb128 0x13
 2855 0149 34       		.uleb128 0x34
 2856 014a 19       		.uleb128 0x19
 2857 014b 00       		.byte	0
 2858 014c 00       		.byte	0
 2859 014d 1C       		.uleb128 0x1c
 2860 014e 2E       		.uleb128 0x2e
 2861 014f 01       		.byte	0x1
 2862 0150 3F       		.uleb128 0x3f
 2863 0151 19       		.uleb128 0x19
 2864 0152 03       		.uleb128 0x3
 2865 0153 0E       		.uleb128 0xe
 2866 0154 3A       		.uleb128 0x3a
 2867 0155 0B       		.uleb128 0xb
 2868 0156 3B       		.uleb128 0x3b
 2869 0157 0B       		.uleb128 0xb
 2870 0158 6E       		.uleb128 0x6e
 2871 0159 0E       		.uleb128 0xe
 2872 015a 32       		.uleb128 0x32
 2873 015b 0B       		.uleb128 0xb
 2874 015c 3C       		.uleb128 0x3c
 2875 015d 19       		.uleb128 0x19
 2876 015e 64       		.uleb128 0x64
 2877 015f 13       		.uleb128 0x13
 2878 0160 01       		.uleb128 0x1
 2879 0161 13       		.uleb128 0x13
 2880 0162 00       		.byte	0
 2881 0163 00       		.byte	0
 2882 0164 1D       		.uleb128 0x1d
 2883 0165 2E       		.uleb128 0x2e
 2884 0166 01       		.byte	0x1
 2885 0167 3F       		.uleb128 0x3f
 2886 0168 19       		.uleb128 0x19
 2887 0169 03       		.uleb128 0x3
 2888 016a 0E       		.uleb128 0xe
 2889 016b 3A       		.uleb128 0x3a
 2890 016c 0B       		.uleb128 0xb
 2891 016d 3B       		.uleb128 0x3b
 2892 016e 0B       		.uleb128 0xb
 2893 016f 6E       		.uleb128 0x6e
 2894 0170 0E       		.uleb128 0xe
 2895 0171 49       		.uleb128 0x49
 2896 0172 13       		.uleb128 0x13
 2897 0173 3C       		.uleb128 0x3c
 2898 0174 19       		.uleb128 0x19
 2899 0175 64       		.uleb128 0x64
 2900 0176 13       		.uleb128 0x13
 2901 0177 00       		.byte	0
 2902 0178 00       		.byte	0
 2903 0179 1E       		.uleb128 0x1e
 2904 017a 2E       		.uleb128 0x2e
 2905 017b 01       		.byte	0x1
 2906 017c 47       		.uleb128 0x47
 2907 017d 13       		.uleb128 0x13
ARM GAS  /var/folders/m4/4md61f0s1_g0rzfghffqnxvr0000gn/T//ccGOOKyv.s 			page 52


 2908 017e 3A       		.uleb128 0x3a
 2909 017f 0B       		.uleb128 0xb
 2910 0180 3B       		.uleb128 0x3b
 2911 0181 0B       		.uleb128 0xb
 2912 0182 20       		.uleb128 0x20
 2913 0183 0B       		.uleb128 0xb
 2914 0184 64       		.uleb128 0x64
 2915 0185 13       		.uleb128 0x13
 2916 0186 01       		.uleb128 0x1
 2917 0187 13       		.uleb128 0x13
 2918 0188 00       		.byte	0
 2919 0189 00       		.byte	0
 2920 018a 1F       		.uleb128 0x1f
 2921 018b 05       		.uleb128 0x5
 2922 018c 00       		.byte	0
 2923 018d 03       		.uleb128 0x3
 2924 018e 0E       		.uleb128 0xe
 2925 018f 49       		.uleb128 0x49
 2926 0190 13       		.uleb128 0x13
 2927 0191 34       		.uleb128 0x34
 2928 0192 19       		.uleb128 0x19
 2929 0193 00       		.byte	0
 2930 0194 00       		.byte	0
 2931 0195 20       		.uleb128 0x20
 2932 0196 05       		.uleb128 0x5
 2933 0197 00       		.byte	0
 2934 0198 03       		.uleb128 0x3
 2935 0199 0E       		.uleb128 0xe
 2936 019a 3A       		.uleb128 0x3a
 2937 019b 0B       		.uleb128 0xb
 2938 019c 3B       		.uleb128 0x3b
 2939 019d 0B       		.uleb128 0xb
 2940 019e 49       		.uleb128 0x49
 2941 019f 13       		.uleb128 0x13
 2942 01a0 00       		.byte	0
 2943 01a1 00       		.byte	0
 2944 01a2 21       		.uleb128 0x21
 2945 01a3 34       		.uleb128 0x34
 2946 01a4 00       		.byte	0
 2947 01a5 03       		.uleb128 0x3
 2948 01a6 08       		.uleb128 0x8
 2949 01a7 3A       		.uleb128 0x3a
 2950 01a8 0B       		.uleb128 0xb
 2951 01a9 3B       		.uleb128 0x3b
 2952 01aa 0B       		.uleb128 0xb
 2953 01ab 49       		.uleb128 0x49
 2954 01ac 13       		.uleb128 0x13
 2955 01ad 00       		.byte	0
 2956 01ae 00       		.byte	0
 2957 01af 22       		.uleb128 0x22
 2958 01b0 0B       		.uleb128 0xb
 2959 01b1 01       		.byte	0x1
 2960 01b2 00       		.byte	0
 2961 01b3 00       		.byte	0
 2962 01b4 23       		.uleb128 0x23
 2963 01b5 34       		.uleb128 0x34
 2964 01b6 00       		.byte	0
ARM GAS  /var/folders/m4/4md61f0s1_g0rzfghffqnxvr0000gn/T//ccGOOKyv.s 			page 53


 2965 01b7 03       		.uleb128 0x3
 2966 01b8 0E       		.uleb128 0xe
 2967 01b9 3A       		.uleb128 0x3a
 2968 01ba 0B       		.uleb128 0xb
 2969 01bb 3B       		.uleb128 0x3b
 2970 01bc 0B       		.uleb128 0xb
 2971 01bd 49       		.uleb128 0x49
 2972 01be 13       		.uleb128 0x13
 2973 01bf 00       		.byte	0
 2974 01c0 00       		.byte	0
 2975 01c1 24       		.uleb128 0x24
 2976 01c2 2E       		.uleb128 0x2e
 2977 01c3 01       		.byte	0x1
 2978 01c4 31       		.uleb128 0x31
 2979 01c5 13       		.uleb128 0x13
 2980 01c6 6E       		.uleb128 0x6e
 2981 01c7 0E       		.uleb128 0xe
 2982 01c8 11       		.uleb128 0x11
 2983 01c9 01       		.uleb128 0x1
 2984 01ca 12       		.uleb128 0x12
 2985 01cb 06       		.uleb128 0x6
 2986 01cc 40       		.uleb128 0x40
 2987 01cd 18       		.uleb128 0x18
 2988 01ce 64       		.uleb128 0x64
 2989 01cf 13       		.uleb128 0x13
 2990 01d0 9742     		.uleb128 0x2117
 2991 01d2 19       		.uleb128 0x19
 2992 01d3 01       		.uleb128 0x1
 2993 01d4 13       		.uleb128 0x13
 2994 01d5 00       		.byte	0
 2995 01d6 00       		.byte	0
 2996 01d7 25       		.uleb128 0x25
 2997 01d8 05       		.uleb128 0x5
 2998 01d9 00       		.byte	0
 2999 01da 31       		.uleb128 0x31
 3000 01db 13       		.uleb128 0x13
 3001 01dc 02       		.uleb128 0x2
 3002 01dd 17       		.uleb128 0x17
 3003 01de 00       		.byte	0
 3004 01df 00       		.byte	0
 3005 01e0 26       		.uleb128 0x26
 3006 01e1 0B       		.uleb128 0xb
 3007 01e2 01       		.byte	0x1
 3008 01e3 55       		.uleb128 0x55
 3009 01e4 17       		.uleb128 0x17
 3010 01e5 00       		.byte	0
 3011 01e6 00       		.byte	0
 3012 01e7 27       		.uleb128 0x27
 3013 01e8 34       		.uleb128 0x34
 3014 01e9 00       		.byte	0
 3015 01ea 31       		.uleb128 0x31
 3016 01eb 13       		.uleb128 0x13
 3017 01ec 02       		.uleb128 0x2
 3018 01ed 18       		.uleb128 0x18
 3019 01ee 00       		.byte	0
 3020 01ef 00       		.byte	0
 3021 01f0 28       		.uleb128 0x28
ARM GAS  /var/folders/m4/4md61f0s1_g0rzfghffqnxvr0000gn/T//ccGOOKyv.s 			page 54


 3022 01f1 34       		.uleb128 0x34
 3023 01f2 00       		.byte	0
 3024 01f3 31       		.uleb128 0x31
 3025 01f4 13       		.uleb128 0x13
 3026 01f5 02       		.uleb128 0x2
 3027 01f6 17       		.uleb128 0x17
 3028 01f7 00       		.byte	0
 3029 01f8 00       		.byte	0
 3030 01f9 29       		.uleb128 0x29
 3031 01fa 0B       		.uleb128 0xb
 3032 01fb 01       		.byte	0x1
 3033 01fc 11       		.uleb128 0x11
 3034 01fd 01       		.uleb128 0x1
 3035 01fe 12       		.uleb128 0x12
 3036 01ff 06       		.uleb128 0x6
 3037 0200 01       		.uleb128 0x1
 3038 0201 13       		.uleb128 0x13
 3039 0202 00       		.byte	0
 3040 0203 00       		.byte	0
 3041 0204 2A       		.uleb128 0x2a
 3042 0205 1D       		.uleb128 0x1d
 3043 0206 01       		.byte	0x1
 3044 0207 31       		.uleb128 0x31
 3045 0208 13       		.uleb128 0x13
 3046 0209 11       		.uleb128 0x11
 3047 020a 01       		.uleb128 0x1
 3048 020b 12       		.uleb128 0x12
 3049 020c 06       		.uleb128 0x6
 3050 020d 58       		.uleb128 0x58
 3051 020e 0B       		.uleb128 0xb
 3052 020f 59       		.uleb128 0x59
 3053 0210 0B       		.uleb128 0xb
 3054 0211 00       		.byte	0
 3055 0212 00       		.byte	0
 3056 0213 2B       		.uleb128 0x2b
 3057 0214 05       		.uleb128 0x5
 3058 0215 00       		.byte	0
 3059 0216 31       		.uleb128 0x31
 3060 0217 13       		.uleb128 0x13
 3061 0218 00       		.byte	0
 3062 0219 00       		.byte	0
 3063 021a 2C       		.uleb128 0x2c
 3064 021b 0B       		.uleb128 0xb
 3065 021c 01       		.byte	0x1
 3066 021d 11       		.uleb128 0x11
 3067 021e 01       		.uleb128 0x1
 3068 021f 12       		.uleb128 0x12
 3069 0220 06       		.uleb128 0x6
 3070 0221 00       		.byte	0
 3071 0222 00       		.byte	0
 3072 0223 2D       		.uleb128 0x2d
 3073 0224 898201   		.uleb128 0x4109
 3074 0227 01       		.byte	0x1
 3075 0228 11       		.uleb128 0x11
 3076 0229 01       		.uleb128 0x1
 3077 022a 31       		.uleb128 0x31
 3078 022b 13       		.uleb128 0x13
ARM GAS  /var/folders/m4/4md61f0s1_g0rzfghffqnxvr0000gn/T//ccGOOKyv.s 			page 55


 3079 022c 01       		.uleb128 0x1
 3080 022d 13       		.uleb128 0x13
 3081 022e 00       		.byte	0
 3082 022f 00       		.byte	0
 3083 0230 2E       		.uleb128 0x2e
 3084 0231 8A8201   		.uleb128 0x410a
 3085 0234 00       		.byte	0
 3086 0235 02       		.uleb128 0x2
 3087 0236 18       		.uleb128 0x18
 3088 0237 9142     		.uleb128 0x2111
 3089 0239 18       		.uleb128 0x18
 3090 023a 00       		.byte	0
 3091 023b 00       		.byte	0
 3092 023c 2F       		.uleb128 0x2f
 3093 023d 898201   		.uleb128 0x4109
 3094 0240 00       		.byte	0
 3095 0241 11       		.uleb128 0x11
 3096 0242 01       		.uleb128 0x1
 3097 0243 31       		.uleb128 0x31
 3098 0244 13       		.uleb128 0x13
 3099 0245 00       		.byte	0
 3100 0246 00       		.byte	0
 3101 0247 30       		.uleb128 0x30
 3102 0248 898201   		.uleb128 0x4109
 3103 024b 01       		.byte	0x1
 3104 024c 11       		.uleb128 0x11
 3105 024d 01       		.uleb128 0x1
 3106 024e 31       		.uleb128 0x31
 3107 024f 13       		.uleb128 0x13
 3108 0250 00       		.byte	0
 3109 0251 00       		.byte	0
 3110 0252 31       		.uleb128 0x31
 3111 0253 2E       		.uleb128 0x2e
 3112 0254 01       		.byte	0x1
 3113 0255 47       		.uleb128 0x47
 3114 0256 13       		.uleb128 0x13
 3115 0257 3A       		.uleb128 0x3a
 3116 0258 0B       		.uleb128 0xb
 3117 0259 3B       		.uleb128 0x3b
 3118 025a 0B       		.uleb128 0xb
 3119 025b 11       		.uleb128 0x11
 3120 025c 01       		.uleb128 0x1
 3121 025d 12       		.uleb128 0x12
 3122 025e 06       		.uleb128 0x6
 3123 025f 40       		.uleb128 0x40
 3124 0260 18       		.uleb128 0x18
 3125 0261 64       		.uleb128 0x64
 3126 0262 13       		.uleb128 0x13
 3127 0263 9742     		.uleb128 0x2117
 3128 0265 19       		.uleb128 0x19
 3129 0266 01       		.uleb128 0x1
 3130 0267 13       		.uleb128 0x13
 3131 0268 00       		.byte	0
 3132 0269 00       		.byte	0
 3133 026a 32       		.uleb128 0x32
 3134 026b 05       		.uleb128 0x5
 3135 026c 00       		.byte	0
ARM GAS  /var/folders/m4/4md61f0s1_g0rzfghffqnxvr0000gn/T//ccGOOKyv.s 			page 56


 3136 026d 03       		.uleb128 0x3
 3137 026e 0E       		.uleb128 0xe
 3138 026f 49       		.uleb128 0x49
 3139 0270 13       		.uleb128 0x13
 3140 0271 34       		.uleb128 0x34
 3141 0272 19       		.uleb128 0x19
 3142 0273 02       		.uleb128 0x2
 3143 0274 17       		.uleb128 0x17
 3144 0275 00       		.byte	0
 3145 0276 00       		.byte	0
 3146 0277 33       		.uleb128 0x33
 3147 0278 05       		.uleb128 0x5
 3148 0279 00       		.byte	0
 3149 027a 03       		.uleb128 0x3
 3150 027b 08       		.uleb128 0x8
 3151 027c 3A       		.uleb128 0x3a
 3152 027d 0B       		.uleb128 0xb
 3153 027e 3B       		.uleb128 0x3b
 3154 027f 0B       		.uleb128 0xb
 3155 0280 49       		.uleb128 0x49
 3156 0281 13       		.uleb128 0x13
 3157 0282 02       		.uleb128 0x2
 3158 0283 17       		.uleb128 0x17
 3159 0284 00       		.byte	0
 3160 0285 00       		.byte	0
 3161 0286 34       		.uleb128 0x34
 3162 0287 05       		.uleb128 0x5
 3163 0288 00       		.byte	0
 3164 0289 03       		.uleb128 0x3
 3165 028a 0E       		.uleb128 0xe
 3166 028b 3A       		.uleb128 0x3a
 3167 028c 0B       		.uleb128 0xb
 3168 028d 3B       		.uleb128 0x3b
 3169 028e 0B       		.uleb128 0xb
 3170 028f 49       		.uleb128 0x49
 3171 0290 13       		.uleb128 0x13
 3172 0291 02       		.uleb128 0x2
 3173 0292 17       		.uleb128 0x17
 3174 0293 00       		.byte	0
 3175 0294 00       		.byte	0
 3176 0295 35       		.uleb128 0x35
 3177 0296 34       		.uleb128 0x34
 3178 0297 00       		.byte	0
 3179 0298 03       		.uleb128 0x3
 3180 0299 08       		.uleb128 0x8
 3181 029a 3A       		.uleb128 0x3a
 3182 029b 0B       		.uleb128 0xb
 3183 029c 3B       		.uleb128 0x3b
 3184 029d 0B       		.uleb128 0xb
 3185 029e 49       		.uleb128 0x49
 3186 029f 13       		.uleb128 0x13
 3187 02a0 02       		.uleb128 0x2
 3188 02a1 17       		.uleb128 0x17
 3189 02a2 00       		.byte	0
 3190 02a3 00       		.byte	0
 3191 02a4 36       		.uleb128 0x36
 3192 02a5 1D       		.uleb128 0x1d
ARM GAS  /var/folders/m4/4md61f0s1_g0rzfghffqnxvr0000gn/T//ccGOOKyv.s 			page 57


 3193 02a6 01       		.byte	0x1
 3194 02a7 31       		.uleb128 0x31
 3195 02a8 13       		.uleb128 0x13
 3196 02a9 52       		.uleb128 0x52
 3197 02aa 01       		.uleb128 0x1
 3198 02ab 55       		.uleb128 0x55
 3199 02ac 17       		.uleb128 0x17
 3200 02ad 58       		.uleb128 0x58
 3201 02ae 0B       		.uleb128 0xb
 3202 02af 59       		.uleb128 0x59
 3203 02b0 0B       		.uleb128 0xb
 3204 02b1 00       		.byte	0
 3205 02b2 00       		.byte	0
 3206 02b3 37       		.uleb128 0x37
 3207 02b4 05       		.uleb128 0x5
 3208 02b5 00       		.byte	0
 3209 02b6 03       		.uleb128 0x3
 3210 02b7 08       		.uleb128 0x8
 3211 02b8 3A       		.uleb128 0x3a
 3212 02b9 0B       		.uleb128 0xb
 3213 02ba 3B       		.uleb128 0x3b
 3214 02bb 0B       		.uleb128 0xb
 3215 02bc 49       		.uleb128 0x49
 3216 02bd 13       		.uleb128 0x13
 3217 02be 02       		.uleb128 0x2
 3218 02bf 18       		.uleb128 0x18
 3219 02c0 00       		.byte	0
 3220 02c1 00       		.byte	0
 3221 02c2 38       		.uleb128 0x38
 3222 02c3 05       		.uleb128 0x5
 3223 02c4 00       		.byte	0
 3224 02c5 03       		.uleb128 0x3
 3225 02c6 0E       		.uleb128 0xe
 3226 02c7 49       		.uleb128 0x49
 3227 02c8 13       		.uleb128 0x13
 3228 02c9 34       		.uleb128 0x34
 3229 02ca 19       		.uleb128 0x19
 3230 02cb 02       		.uleb128 0x2
 3231 02cc 18       		.uleb128 0x18
 3232 02cd 00       		.byte	0
 3233 02ce 00       		.byte	0
 3234 02cf 39       		.uleb128 0x39
 3235 02d0 05       		.uleb128 0x5
 3236 02d1 00       		.byte	0
 3237 02d2 03       		.uleb128 0x3
 3238 02d3 0E       		.uleb128 0xe
 3239 02d4 3A       		.uleb128 0x3a
 3240 02d5 0B       		.uleb128 0xb
 3241 02d6 3B       		.uleb128 0x3b
 3242 02d7 0B       		.uleb128 0xb
 3243 02d8 49       		.uleb128 0x49
 3244 02d9 13       		.uleb128 0x13
 3245 02da 02       		.uleb128 0x2
 3246 02db 18       		.uleb128 0x18
 3247 02dc 00       		.byte	0
 3248 02dd 00       		.byte	0
 3249 02de 3A       		.uleb128 0x3a
ARM GAS  /var/folders/m4/4md61f0s1_g0rzfghffqnxvr0000gn/T//ccGOOKyv.s 			page 58


 3250 02df 34       		.uleb128 0x34
 3251 02e0 00       		.byte	0
 3252 02e1 03       		.uleb128 0x3
 3253 02e2 0E       		.uleb128 0xe
 3254 02e3 3A       		.uleb128 0x3a
 3255 02e4 0B       		.uleb128 0xb
 3256 02e5 3B       		.uleb128 0x3b
 3257 02e6 0B       		.uleb128 0xb
 3258 02e7 49       		.uleb128 0x49
 3259 02e8 13       		.uleb128 0x13
 3260 02e9 02       		.uleb128 0x2
 3261 02ea 17       		.uleb128 0x17
 3262 02eb 00       		.byte	0
 3263 02ec 00       		.byte	0
 3264 02ed 3B       		.uleb128 0x3b
 3265 02ee 34       		.uleb128 0x34
 3266 02ef 00       		.byte	0
 3267 02f0 03       		.uleb128 0x3
 3268 02f1 0E       		.uleb128 0xe
 3269 02f2 3A       		.uleb128 0x3a
 3270 02f3 0B       		.uleb128 0xb
 3271 02f4 3B       		.uleb128 0x3b
 3272 02f5 05       		.uleb128 0x5
 3273 02f6 49       		.uleb128 0x49
 3274 02f7 13       		.uleb128 0x13
 3275 02f8 3F       		.uleb128 0x3f
 3276 02f9 19       		.uleb128 0x19
 3277 02fa 3C       		.uleb128 0x3c
 3278 02fb 19       		.uleb128 0x19
 3279 02fc 00       		.byte	0
 3280 02fd 00       		.byte	0
 3281 02fe 3C       		.uleb128 0x3c
 3282 02ff 34       		.uleb128 0x34
 3283 0300 00       		.byte	0
 3284 0301 03       		.uleb128 0x3
 3285 0302 08       		.uleb128 0x8
 3286 0303 3A       		.uleb128 0x3a
 3287 0304 0B       		.uleb128 0xb
 3288 0305 3B       		.uleb128 0x3b
 3289 0306 05       		.uleb128 0x5
 3290 0307 49       		.uleb128 0x49
 3291 0308 13       		.uleb128 0x13
 3292 0309 3F       		.uleb128 0x3f
 3293 030a 19       		.uleb128 0x19
 3294 030b 3C       		.uleb128 0x3c
 3295 030c 19       		.uleb128 0x19
 3296 030d 00       		.byte	0
 3297 030e 00       		.byte	0
 3298 030f 3D       		.uleb128 0x3d
 3299 0310 2E       		.uleb128 0x2e
 3300 0311 00       		.byte	0
 3301 0312 3F       		.uleb128 0x3f
 3302 0313 19       		.uleb128 0x19
 3303 0314 3C       		.uleb128 0x3c
 3304 0315 19       		.uleb128 0x19
 3305 0316 6E       		.uleb128 0x6e
 3306 0317 0E       		.uleb128 0xe
ARM GAS  /var/folders/m4/4md61f0s1_g0rzfghffqnxvr0000gn/T//ccGOOKyv.s 			page 59


 3307 0318 03       		.uleb128 0x3
 3308 0319 0E       		.uleb128 0xe
 3309 031a 3A       		.uleb128 0x3a
 3310 031b 0B       		.uleb128 0xb
 3311 031c 3B       		.uleb128 0x3b
 3312 031d 05       		.uleb128 0x5
 3313 031e 00       		.byte	0
 3314 031f 00       		.byte	0
 3315 0320 00       		.byte	0
 3316              		.section	.debug_loc,"",%progbits
 3317              	.Ldebug_loc0:
 3318              	.LLST0:
 3319 0000 00000000 		.4byte	.LVL0
 3320 0004 2E000000 		.4byte	.LVL6
 3321 0008 0100     		.2byte	0x1
 3322 000a 50       		.byte	0x50
 3323 000b 2E000000 		.4byte	.LVL6
 3324 000f 98010000 		.4byte	.LVL33
 3325 0013 0100     		.2byte	0x1
 3326 0015 56       		.byte	0x56
 3327 0016 98010000 		.4byte	.LVL33
 3328 001a B0010000 		.4byte	.LFE269
 3329 001e 0100     		.2byte	0x1
 3330 0020 50       		.byte	0x50
 3331 0021 00000000 		.4byte	0
 3332 0025 00000000 		.4byte	0
 3333              	.LLST1:
 3334 0029 00000000 		.4byte	.LVL0
 3335 002d 0C000000 		.4byte	.LVL1
 3336 0031 0200     		.2byte	0x2
 3337 0033 30       		.byte	0x30
 3338 0034 9F       		.byte	0x9f
 3339 0035 0C000000 		.4byte	.LVL1
 3340 0039 10000000 		.4byte	.LVL2
 3341 003d 0200     		.2byte	0x2
 3342 003f 31       		.byte	0x31
 3343 0040 9F       		.byte	0x9f
 3344 0041 10000000 		.4byte	.LVL2
 3345 0045 14000000 		.4byte	.LVL3
 3346 0049 0200     		.2byte	0x2
 3347 004b 32       		.byte	0x32
 3348 004c 9F       		.byte	0x9f
 3349 004d 14000000 		.4byte	.LVL3
 3350 0051 18000000 		.4byte	.LVL4
 3351 0055 0200     		.2byte	0x2
 3352 0057 33       		.byte	0x33
 3353 0058 9F       		.byte	0x9f
 3354 0059 18000000 		.4byte	.LVL4
 3355 005d 1C000000 		.4byte	.LVL5
 3356 0061 0200     		.2byte	0x2
 3357 0063 34       		.byte	0x34
 3358 0064 9F       		.byte	0x9f
 3359 0065 1C000000 		.4byte	.LVL5
 3360 0069 2E000000 		.4byte	.LVL6
 3361 006d 0200     		.2byte	0x2
 3362 006f 30       		.byte	0x30
 3363 0070 9F       		.byte	0x9f
ARM GAS  /var/folders/m4/4md61f0s1_g0rzfghffqnxvr0000gn/T//ccGOOKyv.s 			page 60


 3364 0071 92000000 		.4byte	.LVL16
 3365 0075 A8000000 		.4byte	.LVL18
 3366 0079 0100     		.2byte	0x1
 3367 007b 54       		.byte	0x54
 3368 007c A8000000 		.4byte	.LVL18
 3369 0080 B0000000 		.4byte	.LVL19
 3370 0084 0300     		.2byte	0x3
 3371 0086 74       		.byte	0x74
 3372 0087 7F       		.sleb128 -1
 3373 0088 9F       		.byte	0x9f
 3374 0089 B0000000 		.4byte	.LVL19
 3375 008d 0E010000 		.4byte	.LVL23
 3376 0091 0100     		.2byte	0x1
 3377 0093 54       		.byte	0x54
 3378 0094 0E010000 		.4byte	.LVL23
 3379 0098 23010000 		.4byte	.LVL24-1
 3380 009c 0200     		.2byte	0x2
 3381 009e 91       		.byte	0x91
 3382 009f 48       		.sleb128 -56
 3383 00a0 00000000 		.4byte	0
 3384 00a4 00000000 		.4byte	0
 3385              	.LLST2:
 3386 00a8 52000000 		.4byte	.LVL12
 3387 00ac 56000000 		.4byte	.LVL13
 3388 00b0 0200     		.2byte	0x2
 3389 00b2 30       		.byte	0x30
 3390 00b3 9F       		.byte	0x9f
 3391 00b4 00000000 		.4byte	0
 3392 00b8 00000000 		.4byte	0
 3393              	.LLST3:
 3394 00bc 52000000 		.4byte	.LVL12
 3395 00c0 80000000 		.4byte	.LVL15
 3396 00c4 0100     		.2byte	0x1
 3397 00c6 52       		.byte	0x52
 3398 00c7 00000000 		.4byte	0
 3399 00cb 00000000 		.4byte	0
 3400              	.LLST4:
 3401 00cf 2E000000 		.4byte	.LVL6
 3402 00d3 52000000 		.4byte	.LVL12
 3403 00d7 0100     		.2byte	0x1
 3404 00d9 56       		.byte	0x56
 3405 00da 00000000 		.4byte	0
 3406 00de 00000000 		.4byte	0
 3407              	.LLST5:
 3408 00e2 2E000000 		.4byte	.LVL6
 3409 00e6 3E000000 		.4byte	.LVL7
 3410 00ea 0800     		.2byte	0x8
 3411 00ec 71       		.byte	0x71
 3412 00ed 00       		.sleb128 0
 3413 00ee 40       		.byte	0x40
 3414 00ef 25       		.byte	0x25
 3415 00f0 08       		.byte	0x8
 3416 00f1 FF       		.byte	0xff
 3417 00f2 1A       		.byte	0x1a
 3418 00f3 9F       		.byte	0x9f
 3419 00f4 3E000000 		.4byte	.LVL7
 3420 00f8 48000000 		.4byte	.LVL10
ARM GAS  /var/folders/m4/4md61f0s1_g0rzfghffqnxvr0000gn/T//ccGOOKyv.s 			page 61


 3421 00fc 0600     		.2byte	0x6
 3422 00fe 72       		.byte	0x72
 3423 00ff 00       		.sleb128 0
 3424 0100 08       		.byte	0x8
 3425 0101 FF       		.byte	0xff
 3426 0102 1A       		.byte	0x1a
 3427 0103 9F       		.byte	0x9f
 3428 0104 00000000 		.4byte	0
 3429 0108 00000000 		.4byte	0
 3430              	.LLST6:
 3431 010c 2E000000 		.4byte	.LVL6
 3432 0110 42000000 		.4byte	.LVL8
 3433 0114 0800     		.2byte	0x8
 3434 0116 71       		.byte	0x71
 3435 0117 00       		.sleb128 0
 3436 0118 38       		.byte	0x38
 3437 0119 25       		.byte	0x25
 3438 011a 08       		.byte	0x8
 3439 011b FF       		.byte	0xff
 3440 011c 1A       		.byte	0x1a
 3441 011d 9F       		.byte	0x9f
 3442 011e 42000000 		.4byte	.LVL8
 3443 0122 52000000 		.4byte	.LVL12
 3444 0126 0600     		.2byte	0x6
 3445 0128 7E       		.byte	0x7e
 3446 0129 00       		.sleb128 0
 3447 012a 08       		.byte	0x8
 3448 012b FF       		.byte	0xff
 3449 012c 1A       		.byte	0x1a
 3450 012d 9F       		.byte	0x9f
 3451 012e 00000000 		.4byte	0
 3452 0132 00000000 		.4byte	0
 3453              	.LLST7:
 3454 0136 2E000000 		.4byte	.LVL6
 3455 013a 46000000 		.4byte	.LVL9
 3456 013e 0600     		.2byte	0x6
 3457 0140 71       		.byte	0x71
 3458 0141 00       		.sleb128 0
 3459 0142 08       		.byte	0x8
 3460 0143 FF       		.byte	0xff
 3461 0144 1A       		.byte	0x1a
 3462 0145 9F       		.byte	0x9f
 3463 0146 4C000000 		.4byte	.LVL11
 3464 014a 52000000 		.4byte	.LVL12
 3465 014e 0600     		.2byte	0x6
 3466 0150 71       		.byte	0x71
 3467 0151 00       		.sleb128 0
 3468 0152 08       		.byte	0x8
 3469 0153 FF       		.byte	0xff
 3470 0154 1A       		.byte	0x1a
 3471 0155 9F       		.byte	0x9f
 3472 0156 00000000 		.4byte	0
 3473 015a 00000000 		.4byte	0
 3474              	.LLST8:
 3475 015e 00000000 		.4byte	.LVL34
 3476 0162 40000000 		.4byte	.LVL44
 3477 0166 0100     		.2byte	0x1
ARM GAS  /var/folders/m4/4md61f0s1_g0rzfghffqnxvr0000gn/T//ccGOOKyv.s 			page 62


 3478 0168 50       		.byte	0x50
 3479 0169 40000000 		.4byte	.LVL44
 3480 016d 5A000000 		.4byte	.LFE271
 3481 0171 0400     		.2byte	0x4
 3482 0173 F3       		.byte	0xf3
 3483 0174 01       		.uleb128 0x1
 3484 0175 50       		.byte	0x50
 3485 0176 9F       		.byte	0x9f
 3486 0177 00000000 		.4byte	0
 3487 017b 00000000 		.4byte	0
 3488              	.LLST9:
 3489 017f 00000000 		.4byte	.LVL34
 3490 0183 2E000000 		.4byte	.LVL40
 3491 0187 0100     		.2byte	0x1
 3492 0189 51       		.byte	0x51
 3493 018a 2E000000 		.4byte	.LVL40
 3494 018e 5A000000 		.4byte	.LFE271
 3495 0192 0400     		.2byte	0x4
 3496 0194 F3       		.byte	0xf3
 3497 0195 01       		.uleb128 0x1
 3498 0196 51       		.byte	0x51
 3499 0197 9F       		.byte	0x9f
 3500 0198 00000000 		.4byte	0
 3501 019c 00000000 		.4byte	0
 3502              	.LLST10:
 3503 01a0 00000000 		.4byte	.LVL34
 3504 01a4 1E000000 		.4byte	.LVL36
 3505 01a8 0100     		.2byte	0x1
 3506 01aa 52       		.byte	0x52
 3507 01ab 1E000000 		.4byte	.LVL36
 3508 01af 3C000000 		.4byte	.LVL43
 3509 01b3 0300     		.2byte	0x3
 3510 01b5 75       		.byte	0x75
 3511 01b6 D402     		.sleb128 340
 3512 01b8 3C000000 		.4byte	.LVL43
 3513 01bc 58000000 		.4byte	.LVL47
 3514 01c0 0100     		.2byte	0x1
 3515 01c2 53       		.byte	0x53
 3516 01c3 00000000 		.4byte	0
 3517 01c7 00000000 		.4byte	0
 3518              	.LLST11:
 3519 01cb 3C000000 		.4byte	.LVL43
 3520 01cf 44000000 		.4byte	.LVL45
 3521 01d3 0200     		.2byte	0x2
 3522 01d5 30       		.byte	0x30
 3523 01d6 9F       		.byte	0x9f
 3524 01d7 00000000 		.4byte	0
 3525 01db 00000000 		.4byte	0
 3526              	.LLST12:
 3527 01df 18000000 		.4byte	.LVL35
 3528 01e3 1E000000 		.4byte	.LVL36
 3529 01e7 0100     		.2byte	0x1
 3530 01e9 52       		.byte	0x52
 3531 01ea 1E000000 		.4byte	.LVL36
 3532 01ee 3C000000 		.4byte	.LVL43
 3533 01f2 0300     		.2byte	0x3
 3534 01f4 75       		.byte	0x75
ARM GAS  /var/folders/m4/4md61f0s1_g0rzfghffqnxvr0000gn/T//ccGOOKyv.s 			page 63


 3535 01f5 D402     		.sleb128 340
 3536 01f7 00000000 		.4byte	0
 3537 01fb 00000000 		.4byte	0
 3538              	.LLST13:
 3539 01ff 18000000 		.4byte	.LVL35
 3540 0203 3C000000 		.4byte	.LVL43
 3541 0207 0100     		.2byte	0x1
 3542 0209 50       		.byte	0x50
 3543 020a 00000000 		.4byte	0
 3544 020e 00000000 		.4byte	0
 3545              	.LLST14:
 3546 0212 18000000 		.4byte	.LVL35
 3547 0216 1E000000 		.4byte	.LVL36
 3548 021a 0800     		.2byte	0x8
 3549 021c 72       		.byte	0x72
 3550 021d 00       		.sleb128 0
 3551 021e 40       		.byte	0x40
 3552 021f 25       		.byte	0x25
 3553 0220 08       		.byte	0x8
 3554 0221 FF       		.byte	0xff
 3555 0222 1A       		.byte	0x1a
 3556 0223 9F       		.byte	0x9f
 3557 0224 1E000000 		.4byte	.LVL36
 3558 0228 22000000 		.4byte	.LVL37
 3559 022c 0A00     		.2byte	0xa
 3560 022e 75       		.byte	0x75
 3561 022f D402     		.sleb128 340
 3562 0231 06       		.byte	0x6
 3563 0232 40       		.byte	0x40
 3564 0233 25       		.byte	0x25
 3565 0234 08       		.byte	0x8
 3566 0235 FF       		.byte	0xff
 3567 0236 1A       		.byte	0x1a
 3568 0237 9F       		.byte	0x9f
 3569 0238 22000000 		.4byte	.LVL37
 3570 023c 32000000 		.4byte	.LVL41
 3571 0240 0600     		.2byte	0x6
 3572 0242 73       		.byte	0x73
 3573 0243 00       		.sleb128 0
 3574 0244 08       		.byte	0x8
 3575 0245 FF       		.byte	0xff
 3576 0246 1A       		.byte	0x1a
 3577 0247 9F       		.byte	0x9f
 3578 0248 32000000 		.4byte	.LVL41
 3579 024c 3C000000 		.4byte	.LVL43
 3580 0250 1600     		.2byte	0x16
 3581 0252 75       		.byte	0x75
 3582 0253 D402     		.sleb128 340
 3583 0255 06       		.byte	0x6
 3584 0256 09       		.byte	0x9
 3585 0257 EC       		.byte	0xec
 3586 0258 24       		.byte	0x24
 3587 0259 09       		.byte	0x9
 3588 025a FC       		.byte	0xfc
 3589 025b 25       		.byte	0x25
 3590 025c 70       		.byte	0x70
 3591 025d 00       		.sleb128 0
ARM GAS  /var/folders/m4/4md61f0s1_g0rzfghffqnxvr0000gn/T//ccGOOKyv.s 			page 64


 3592 025e 22       		.byte	0x22
 3593 025f 23       		.byte	0x23
 3594 0260 E802     		.uleb128 0x168
 3595 0262 94       		.byte	0x94
 3596 0263 01       		.byte	0x1
 3597 0264 08       		.byte	0x8
 3598 0265 FF       		.byte	0xff
 3599 0266 1A       		.byte	0x1a
 3600 0267 9F       		.byte	0x9f
 3601 0268 00000000 		.4byte	0
 3602 026c 00000000 		.4byte	0
 3603              	.LLST15:
 3604 0270 18000000 		.4byte	.LVL35
 3605 0274 1E000000 		.4byte	.LVL36
 3606 0278 0800     		.2byte	0x8
 3607 027a 72       		.byte	0x72
 3608 027b 00       		.sleb128 0
 3609 027c 38       		.byte	0x38
 3610 027d 25       		.byte	0x25
 3611 027e 08       		.byte	0x8
 3612 027f FF       		.byte	0xff
 3613 0280 1A       		.byte	0x1a
 3614 0281 9F       		.byte	0x9f
 3615 0282 1E000000 		.4byte	.LVL36
 3616 0286 26000000 		.4byte	.LVL38
 3617 028a 0A00     		.2byte	0xa
 3618 028c 75       		.byte	0x75
 3619 028d D402     		.sleb128 340
 3620 028f 06       		.byte	0x6
 3621 0290 38       		.byte	0x38
 3622 0291 25       		.byte	0x25
 3623 0292 08       		.byte	0x8
 3624 0293 FF       		.byte	0xff
 3625 0294 1A       		.byte	0x1a
 3626 0295 9F       		.byte	0x9f
 3627 0296 26000000 		.4byte	.LVL38
 3628 029a 3A000000 		.4byte	.LVL42
 3629 029e 0600     		.2byte	0x6
 3630 02a0 74       		.byte	0x74
 3631 02a1 00       		.sleb128 0
 3632 02a2 08       		.byte	0x8
 3633 02a3 FF       		.byte	0xff
 3634 02a4 1A       		.byte	0x1a
 3635 02a5 9F       		.byte	0x9f
 3636 02a6 3A000000 		.4byte	.LVL42
 3637 02aa 3C000000 		.4byte	.LVL43
 3638 02ae 1600     		.2byte	0x16
 3639 02b0 75       		.byte	0x75
 3640 02b1 D402     		.sleb128 340
 3641 02b3 06       		.byte	0x6
 3642 02b4 09       		.byte	0x9
 3643 02b5 F4       		.byte	0xf4
 3644 02b6 24       		.byte	0x24
 3645 02b7 09       		.byte	0x9
 3646 02b8 FC       		.byte	0xfc
 3647 02b9 25       		.byte	0x25
 3648 02ba 70       		.byte	0x70
ARM GAS  /var/folders/m4/4md61f0s1_g0rzfghffqnxvr0000gn/T//ccGOOKyv.s 			page 65


 3649 02bb 00       		.sleb128 0
 3650 02bc 22       		.byte	0x22
 3651 02bd 23       		.byte	0x23
 3652 02be E802     		.uleb128 0x168
 3653 02c0 94       		.byte	0x94
 3654 02c1 01       		.byte	0x1
 3655 02c2 08       		.byte	0x8
 3656 02c3 FF       		.byte	0xff
 3657 02c4 1A       		.byte	0x1a
 3658 02c5 9F       		.byte	0x9f
 3659 02c6 00000000 		.4byte	0
 3660 02ca 00000000 		.4byte	0
 3661              	.LLST16:
 3662 02ce 18000000 		.4byte	.LVL35
 3663 02d2 1E000000 		.4byte	.LVL36
 3664 02d6 0600     		.2byte	0x6
 3665 02d8 72       		.byte	0x72
 3666 02d9 00       		.sleb128 0
 3667 02da 08       		.byte	0x8
 3668 02db FF       		.byte	0xff
 3669 02dc 1A       		.byte	0x1a
 3670 02dd 9F       		.byte	0x9f
 3671 02de 1E000000 		.4byte	.LVL36
 3672 02e2 2A000000 		.4byte	.LVL39
 3673 02e6 0800     		.2byte	0x8
 3674 02e8 75       		.byte	0x75
 3675 02e9 D402     		.sleb128 340
 3676 02eb 06       		.byte	0x6
 3677 02ec 08       		.byte	0x8
 3678 02ed FF       		.byte	0xff
 3679 02ee 1A       		.byte	0x1a
 3680 02ef 9F       		.byte	0x9f
 3681 02f0 2A000000 		.4byte	.LVL39
 3682 02f4 3C000000 		.4byte	.LVL43
 3683 02f8 0600     		.2byte	0x6
 3684 02fa 72       		.byte	0x72
 3685 02fb 00       		.sleb128 0
 3686 02fc 08       		.byte	0x8
 3687 02fd FF       		.byte	0xff
 3688 02fe 1A       		.byte	0x1a
 3689 02ff 9F       		.byte	0x9f
 3690 0300 00000000 		.4byte	0
 3691 0304 00000000 		.4byte	0
 3692              	.LLST17:
 3693 0308 00000000 		.4byte	.LVL48
 3694 030c 08000000 		.4byte	.LVL49
 3695 0310 0100     		.2byte	0x1
 3696 0312 50       		.byte	0x50
 3697 0313 08000000 		.4byte	.LVL49
 3698 0317 10000000 		.4byte	.LFE272
 3699 031b 0400     		.2byte	0x4
 3700 031d F3       		.byte	0xf3
 3701 031e 01       		.uleb128 0x1
 3702 031f 50       		.byte	0x50
 3703 0320 9F       		.byte	0x9f
 3704 0321 00000000 		.4byte	0
 3705 0325 00000000 		.4byte	0
ARM GAS  /var/folders/m4/4md61f0s1_g0rzfghffqnxvr0000gn/T//ccGOOKyv.s 			page 66


 3706              	.LLST18:
 3707 0329 00000000 		.4byte	.LVL50
 3708 032d 06000000 		.4byte	.LVL51
 3709 0331 0200     		.2byte	0x2
 3710 0333 30       		.byte	0x30
 3711 0334 9F       		.byte	0x9f
 3712 0335 06000000 		.4byte	.LVL51
 3713 0339 0A000000 		.4byte	.LVL52
 3714 033d 0200     		.2byte	0x2
 3715 033f 31       		.byte	0x31
 3716 0340 9F       		.byte	0x9f
 3717 0341 0A000000 		.4byte	.LVL52
 3718 0345 0E000000 		.4byte	.LVL53
 3719 0349 0200     		.2byte	0x2
 3720 034b 32       		.byte	0x32
 3721 034c 9F       		.byte	0x9f
 3722 034d 0E000000 		.4byte	.LVL53
 3723 0351 12000000 		.4byte	.LVL54
 3724 0355 0200     		.2byte	0x2
 3725 0357 33       		.byte	0x33
 3726 0358 9F       		.byte	0x9f
 3727 0359 12000000 		.4byte	.LVL54
 3728 035d 1A000000 		.4byte	.LVL55
 3729 0361 0200     		.2byte	0x2
 3730 0363 30       		.byte	0x30
 3731 0364 9F       		.byte	0x9f
 3732 0365 00000000 		.4byte	0
 3733 0369 00000000 		.4byte	0
 3734              	.LLST19:
 3735 036d 00000000 		.4byte	.LVL56
 3736 0371 2E000000 		.4byte	.LVL57
 3737 0375 0100     		.2byte	0x1
 3738 0377 50       		.byte	0x50
 3739 0378 2E000000 		.4byte	.LVL57
 3740 037c 34000000 		.4byte	.LVL58
 3741 0380 0300     		.2byte	0x3
 3742 0382 70       		.byte	0x70
 3743 0383 50       		.sleb128 -48
 3744 0384 9F       		.byte	0x9f
 3745 0385 34000000 		.4byte	.LVL58
 3746 0389 5E000000 		.4byte	.LFE274
 3747 038d 0400     		.2byte	0x4
 3748 038f F3       		.byte	0xf3
 3749 0390 01       		.uleb128 0x1
 3750 0391 50       		.byte	0x50
 3751 0392 9F       		.byte	0x9f
 3752 0393 00000000 		.4byte	0
 3753 0397 00000000 		.4byte	0
 3754              	.LLST20:
 3755 039b 00000000 		.4byte	.LVL56
 3756 039f 34000000 		.4byte	.LVL58
 3757 03a3 0200     		.2byte	0x2
 3758 03a5 30       		.byte	0x30
 3759 03a6 9F       		.byte	0x9f
 3760 03a7 00000000 		.4byte	0
 3761 03ab 00000000 		.4byte	0
 3762              	.LLST21:
ARM GAS  /var/folders/m4/4md61f0s1_g0rzfghffqnxvr0000gn/T//ccGOOKyv.s 			page 67


 3763 03af 38000000 		.4byte	.LVL59
 3764 03b3 3E000000 		.4byte	.LVL60
 3765 03b7 0200     		.2byte	0x2
 3766 03b9 30       		.byte	0x30
 3767 03ba 9F       		.byte	0x9f
 3768 03bb 00000000 		.4byte	0
 3769 03bf 00000000 		.4byte	0
 3770              	.LLST22:
 3771 03c3 38000000 		.4byte	.LVL59
 3772 03c7 3E000000 		.4byte	.LVL60
 3773 03cb 4100     		.2byte	0x41
 3774 03cd 77       		.byte	0x77
 3775 03ce 00       		.sleb128 0
 3776 03cf 06       		.byte	0x6
 3777 03d0 38       		.byte	0x38
 3778 03d1 25       		.byte	0x25
 3779 03d2 08       		.byte	0x8
 3780 03d3 FF       		.byte	0xff
 3781 03d4 1A       		.byte	0x1a
 3782 03d5 F3       		.byte	0xf3
 3783 03d6 01       		.uleb128 0x1
 3784 03d7 50       		.byte	0x50
 3785 03d8 22       		.byte	0x22
 3786 03d9 23       		.byte	0x23
 3787 03da E802     		.uleb128 0x168
 3788 03dc 94       		.byte	0x94
 3789 03dd 01       		.byte	0x1
 3790 03de 08       		.byte	0x8
 3791 03df FF       		.byte	0xff
 3792 03e0 1A       		.byte	0x1a
 3793 03e1 40       		.byte	0x40
 3794 03e2 24       		.byte	0x24
 3795 03e3 77       		.byte	0x77
 3796 03e4 00       		.sleb128 0
 3797 03e5 06       		.byte	0x6
 3798 03e6 40       		.byte	0x40
 3799 03e7 25       		.byte	0x25
 3800 03e8 08       		.byte	0x8
 3801 03e9 FF       		.byte	0xff
 3802 03ea 1A       		.byte	0x1a
 3803 03eb F3       		.byte	0xf3
 3804 03ec 01       		.uleb128 0x1
 3805 03ed 50       		.byte	0x50
 3806 03ee 22       		.byte	0x22
 3807 03ef 23       		.byte	0x23
 3808 03f0 E802     		.uleb128 0x168
 3809 03f2 94       		.byte	0x94
 3810 03f3 01       		.byte	0x1
 3811 03f4 08       		.byte	0x8
 3812 03f5 FF       		.byte	0xff
 3813 03f6 1A       		.byte	0x1a
 3814 03f7 38       		.byte	0x38
 3815 03f8 24       		.byte	0x24
 3816 03f9 21       		.byte	0x21
 3817 03fa 77       		.byte	0x77
 3818 03fb 00       		.sleb128 0
 3819 03fc 06       		.byte	0x6
ARM GAS  /var/folders/m4/4md61f0s1_g0rzfghffqnxvr0000gn/T//ccGOOKyv.s 			page 68


 3820 03fd 08       		.byte	0x8
 3821 03fe FF       		.byte	0xff
 3822 03ff 1A       		.byte	0x1a
 3823 0400 F3       		.byte	0xf3
 3824 0401 01       		.uleb128 0x1
 3825 0402 50       		.byte	0x50
 3826 0403 22       		.byte	0x22
 3827 0404 23       		.byte	0x23
 3828 0405 E802     		.uleb128 0x168
 3829 0407 94       		.byte	0x94
 3830 0408 01       		.byte	0x1
 3831 0409 08       		.byte	0x8
 3832 040a FF       		.byte	0xff
 3833 040b 1A       		.byte	0x1a
 3834 040c 21       		.byte	0x21
 3835 040d 9F       		.byte	0x9f
 3836 040e 3E000000 		.4byte	.LVL60
 3837 0412 5E000000 		.4byte	.LFE274
 3838 0416 0100     		.2byte	0x1
 3839 0418 52       		.byte	0x52
 3840 0419 00000000 		.4byte	0
 3841 041d 00000000 		.4byte	0
 3842              	.LLST23:
 3843 0421 00000000 		.4byte	.LVL62
 3844 0425 1E000000 		.4byte	.LVL67
 3845 0429 0100     		.2byte	0x1
 3846 042b 50       		.byte	0x50
 3847 042c 1E000000 		.4byte	.LVL67
 3848 0430 26000000 		.4byte	.LFE275
 3849 0434 0400     		.2byte	0x4
 3850 0436 F3       		.byte	0xf3
 3851 0437 01       		.uleb128 0x1
 3852 0438 50       		.byte	0x50
 3853 0439 9F       		.byte	0x9f
 3854 043a 00000000 		.4byte	0
 3855 043e 00000000 		.4byte	0
 3856              	.LLST24:
 3857 0442 00000000 		.4byte	.LVL62
 3858 0446 18000000 		.4byte	.LVL65
 3859 044a 0100     		.2byte	0x1
 3860 044c 51       		.byte	0x51
 3861 044d 18000000 		.4byte	.LVL65
 3862 0451 26000000 		.4byte	.LFE275
 3863 0455 0400     		.2byte	0x4
 3864 0457 F3       		.byte	0xf3
 3865 0458 01       		.uleb128 0x1
 3866 0459 51       		.byte	0x51
 3867 045a 9F       		.byte	0x9f
 3868 045b 00000000 		.4byte	0
 3869 045f 00000000 		.4byte	0
 3870              	.LLST25:
 3871 0463 00000000 		.4byte	.LVL62
 3872 0467 10000000 		.4byte	.LVL63
 3873 046b 0800     		.2byte	0x8
 3874 046d 71       		.byte	0x71
 3875 046e 00       		.sleb128 0
 3876 046f 40       		.byte	0x40
ARM GAS  /var/folders/m4/4md61f0s1_g0rzfghffqnxvr0000gn/T//ccGOOKyv.s 			page 69


 3877 0470 25       		.byte	0x25
 3878 0471 08       		.byte	0x8
 3879 0472 FF       		.byte	0xff
 3880 0473 1A       		.byte	0x1a
 3881 0474 9F       		.byte	0x9f
 3882 0475 10000000 		.4byte	.LVL63
 3883 0479 1A000000 		.4byte	.LVL66
 3884 047d 0600     		.2byte	0x6
 3885 047f 73       		.byte	0x73
 3886 0480 00       		.sleb128 0
 3887 0481 08       		.byte	0x8
 3888 0482 FF       		.byte	0xff
 3889 0483 1A       		.byte	0x1a
 3890 0484 9F       		.byte	0x9f
 3891 0485 1A000000 		.4byte	.LVL66
 3892 0489 1E000000 		.4byte	.LVL67
 3893 048d 1500     		.2byte	0x15
 3894 048f F3       		.byte	0xf3
 3895 0490 01       		.uleb128 0x1
 3896 0491 51       		.byte	0x51
 3897 0492 09       		.byte	0x9
 3898 0493 EC       		.byte	0xec
 3899 0494 24       		.byte	0x24
 3900 0495 09       		.byte	0x9
 3901 0496 FC       		.byte	0xfc
 3902 0497 25       		.byte	0x25
 3903 0498 70       		.byte	0x70
 3904 0499 00       		.sleb128 0
 3905 049a 22       		.byte	0x22
 3906 049b 23       		.byte	0x23
 3907 049c E802     		.uleb128 0x168
 3908 049e 94       		.byte	0x94
 3909 049f 01       		.byte	0x1
 3910 04a0 08       		.byte	0x8
 3911 04a1 FF       		.byte	0xff
 3912 04a2 1A       		.byte	0x1a
 3913 04a3 9F       		.byte	0x9f
 3914 04a4 1E000000 		.4byte	.LVL67
 3915 04a8 26000000 		.4byte	.LFE275
 3916 04ac 1600     		.2byte	0x16
 3917 04ae F3       		.byte	0xf3
 3918 04af 01       		.uleb128 0x1
 3919 04b0 51       		.byte	0x51
 3920 04b1 09       		.byte	0x9
 3921 04b2 EC       		.byte	0xec
 3922 04b3 24       		.byte	0x24
 3923 04b4 09       		.byte	0x9
 3924 04b5 FC       		.byte	0xfc
 3925 04b6 25       		.byte	0x25
 3926 04b7 F3       		.byte	0xf3
 3927 04b8 01       		.uleb128 0x1
 3928 04b9 50       		.byte	0x50
 3929 04ba 22       		.byte	0x22
 3930 04bb 23       		.byte	0x23
 3931 04bc E802     		.uleb128 0x168
 3932 04be 94       		.byte	0x94
 3933 04bf 01       		.byte	0x1
ARM GAS  /var/folders/m4/4md61f0s1_g0rzfghffqnxvr0000gn/T//ccGOOKyv.s 			page 70


 3934 04c0 08       		.byte	0x8
 3935 04c1 FF       		.byte	0xff
 3936 04c2 1A       		.byte	0x1a
 3937 04c3 9F       		.byte	0x9f
 3938 04c4 00000000 		.4byte	0
 3939 04c8 00000000 		.4byte	0
 3940              	.LLST26:
 3941 04cc 00000000 		.4byte	.LVL62
 3942 04d0 14000000 		.4byte	.LVL64
 3943 04d4 0800     		.2byte	0x8
 3944 04d6 71       		.byte	0x71
 3945 04d7 00       		.sleb128 0
 3946 04d8 38       		.byte	0x38
 3947 04d9 25       		.byte	0x25
 3948 04da 08       		.byte	0x8
 3949 04db FF       		.byte	0xff
 3950 04dc 1A       		.byte	0x1a
 3951 04dd 9F       		.byte	0x9f
 3952 04de 14000000 		.4byte	.LVL64
 3953 04e2 26000000 		.4byte	.LFE275
 3954 04e6 0600     		.2byte	0x6
 3955 04e8 72       		.byte	0x72
 3956 04e9 00       		.sleb128 0
 3957 04ea 08       		.byte	0x8
 3958 04eb FF       		.byte	0xff
 3959 04ec 1A       		.byte	0x1a
 3960 04ed 9F       		.byte	0x9f
 3961 04ee 00000000 		.4byte	0
 3962 04f2 00000000 		.4byte	0
 3963              	.LLST27:
 3964 04f6 00000000 		.4byte	.LVL62
 3965 04fa 18000000 		.4byte	.LVL65
 3966 04fe 0600     		.2byte	0x6
 3967 0500 71       		.byte	0x71
 3968 0501 00       		.sleb128 0
 3969 0502 08       		.byte	0x8
 3970 0503 FF       		.byte	0xff
 3971 0504 1A       		.byte	0x1a
 3972 0505 9F       		.byte	0x9f
 3973 0506 18000000 		.4byte	.LVL65
 3974 050a 1E000000 		.4byte	.LVL67
 3975 050e 0700     		.2byte	0x7
 3976 0510 F3       		.byte	0xf3
 3977 0511 01       		.uleb128 0x1
 3978 0512 51       		.byte	0x51
 3979 0513 08       		.byte	0x8
 3980 0514 FF       		.byte	0xff
 3981 0515 1A       		.byte	0x1a
 3982 0516 9F       		.byte	0x9f
 3983 0517 1E000000 		.4byte	.LVL67
 3984 051b 24000000 		.4byte	.LVL68
 3985 051f 0600     		.2byte	0x6
 3986 0521 70       		.byte	0x70
 3987 0522 00       		.sleb128 0
 3988 0523 08       		.byte	0x8
 3989 0524 FF       		.byte	0xff
 3990 0525 1A       		.byte	0x1a
ARM GAS  /var/folders/m4/4md61f0s1_g0rzfghffqnxvr0000gn/T//ccGOOKyv.s 			page 71


 3991 0526 9F       		.byte	0x9f
 3992 0527 24000000 		.4byte	.LVL68
 3993 052b 26000000 		.4byte	.LFE275
 3994 052f 0900     		.2byte	0x9
 3995 0531 71       		.byte	0x71
 3996 0532 E802     		.sleb128 360
 3997 0534 94       		.byte	0x94
 3998 0535 01       		.byte	0x1
 3999 0536 08       		.byte	0x8
 4000 0537 FF       		.byte	0xff
 4001 0538 1A       		.byte	0x1a
 4002 0539 9F       		.byte	0x9f
 4003 053a 00000000 		.4byte	0
 4004 053e 00000000 		.4byte	0
 4005              		.section	.debug_aranges,"",%progbits
 4006 0000 44000000 		.4byte	0x44
 4007 0004 0200     		.2byte	0x2
 4008 0006 00000000 		.4byte	.Ldebug_info0
 4009 000a 04       		.byte	0x4
 4010 000b 00       		.byte	0
 4011 000c 0000     		.2byte	0
 4012 000e 0000     		.2byte	0
 4013 0010 00000000 		.4byte	.LFB269
 4014 0014 B0010000 		.4byte	.LFE269-.LFB269
 4015 0018 00000000 		.4byte	.LFB271
 4016 001c 5A000000 		.4byte	.LFE271-.LFB271
 4017 0020 00000000 		.4byte	.LFB272
 4018 0024 10000000 		.4byte	.LFE272-.LFB272
 4019 0028 00000000 		.4byte	.LFB273
 4020 002c 24000000 		.4byte	.LFE273-.LFB273
 4021 0030 00000000 		.4byte	.LFB274
 4022 0034 5E000000 		.4byte	.LFE274-.LFB274
 4023 0038 00000000 		.4byte	.LFB275
 4024 003c 26000000 		.4byte	.LFE275-.LFB275
 4025 0040 00000000 		.4byte	0
 4026 0044 00000000 		.4byte	0
 4027              		.section	.debug_ranges,"",%progbits
 4028              	.Ldebug_ranges0:
 4029 0000 06000000 		.4byte	.LBB15
 4030 0004 1C000000 		.4byte	.LBE15
 4031 0008 1E000000 		.4byte	.LBB20
 4032 000c 28000000 		.4byte	.LBE20
 4033 0010 2A000000 		.4byte	.LBB21
 4034 0014 8E010000 		.4byte	.LBE21
 4035 0018 00000000 		.4byte	0
 4036 001c 00000000 		.4byte	0
 4037 0020 06000000 		.4byte	.LBB24
 4038 0024 0A000000 		.4byte	.LBE24
 4039 0028 0E000000 		.4byte	.LBB28
 4040 002c 14000000 		.4byte	.LBE28
 4041 0030 18000000 		.4byte	.LBB29
 4042 0034 40000000 		.4byte	.LBE29
 4043 0038 00000000 		.4byte	0
 4044 003c 00000000 		.4byte	0
 4045 0040 00000000 		.4byte	.LFB269
 4046 0044 B0010000 		.4byte	.LFE269
 4047 0048 00000000 		.4byte	.LFB271
ARM GAS  /var/folders/m4/4md61f0s1_g0rzfghffqnxvr0000gn/T//ccGOOKyv.s 			page 72


 4048 004c 5A000000 		.4byte	.LFE271
 4049 0050 00000000 		.4byte	.LFB272
 4050 0054 10000000 		.4byte	.LFE272
 4051 0058 00000000 		.4byte	.LFB273
 4052 005c 24000000 		.4byte	.LFE273
 4053 0060 00000000 		.4byte	.LFB274
 4054 0064 5E000000 		.4byte	.LFE274
 4055 0068 00000000 		.4byte	.LFB275
 4056 006c 26000000 		.4byte	.LFE275
 4057 0070 00000000 		.4byte	0
 4058 0074 00000000 		.4byte	0
 4059              		.section	.debug_line,"",%progbits
 4060              	.Ldebug_line0:
 4061 0000 CD040000 		.section	.debug_str,"MS",%progbits,1
 4061      02006403 
 4061      00000201 
 4061      FB0E0D00 
 4061      01010101 
 4062              	.LASF145:
 4063 0000 31375449 		.ascii	"17TIM_OCInitTypeDef\000"
 4063      4D5F4F43 
 4063      496E6974 
 4063      54797065 
 4063      44656600 
 4064              	.LASF62:
 4065 0014 72656164 		.ascii	"ready_list_t\000"
 4065      795F6C69 
 4065      73745F74 
 4065      00
 4066              	.LASF86:
 4067 0021 726C6973 		.ascii	"rlist\000"
 4067      7400
 4068              	.LASF30:
 4069 0027 7264796D 		.ascii	"rdymsg\000"
 4069      736700
 4070              	.LASF137:
 4071 002e 444D415F 		.ascii	"DMA_InitTypeDef\000"
 4071      496E6974 
 4071      54797065 
 4071      44656600 
 4072              	.LASF178:
 4073 003e 474E5520 		.ascii	"GNU C++11 5.2.1 20151202 (release) [ARM/embedded-5-"
 4073      432B2B31 
 4073      3120352E 
 4073      322E3120 
 4073      32303135 
 4074 0071 6272616E 		.ascii	"branch revision 231848] -mcpu=cortex-m4 -mfloat-abi"
 4074      63682072 
 4074      65766973 
 4074      696F6E20 
 4074      32333138 
 4075 00a4 3D686172 		.ascii	"=hard -mfpu=fpv4-sp-d16 -mno-thumb-interwork -mthum"
 4075      64202D6D 
 4075      6670753D 
 4075      66707634 
 4075      2D73702D 
 4076 00d7 62202D67 		.ascii	"b -ggdb -O2 -std=c++11 -fomit-frame-pointer -falign"
ARM GAS  /var/folders/m4/4md61f0s1_g0rzfghffqnxvr0000gn/T//ccGOOKyv.s 			page 73


 4076      67646220 
 4076      2D4F3220 
 4076      2D737464 
 4076      3D632B2B 
 4077 010a 2D66756E 		.ascii	"-functions=16 -ffunction-sections -fdata-sections -"
 4077      6374696F 
 4077      6E733D31 
 4077      36202D66 
 4077      66756E63 
 4078 013d 666E6F2D 		.ascii	"fno-common -fno-rtti -fno-exceptions\000"
 4078      636F6D6D 
 4078      6F6E202D 
 4078      666E6F2D 
 4078      72747469 
 4079              	.LASF124:
 4080 0162 444D415F 		.ascii	"DMA_Memory0BaseAddr\000"
 4080      4D656D6F 
 4080      72793042 
 4080      61736541 
 4080      64647200 
 4081              	.LASF26:
 4082 0176 6576656E 		.ascii	"eventmask_t\000"
 4082      746D6173 
 4082      6B5F7400 
 4083              	.LASF7:
 4084 0182 5F5F7569 		.ascii	"__uint8_t\000"
 4084      6E74385F 
 4084      7400
 4085              	.LASF132:
 4086 018c 444D415F 		.ascii	"DMA_Priority\000"
 4086      5072696F 
 4086      72697479 
 4086      00
 4087              	.LASF93:
 4088 0199 706F7274 		.ascii	"port_intctx\000"
 4088      5F696E74 
 4088      63747800 
 4089              	.LASF87:
 4090 01a5 76746C69 		.ascii	"vtlist\000"
 4090      737400
 4091              	.LASF127:
 4092 01ac 444D415F 		.ascii	"DMA_PeripheralInc\000"
 4092      50657269 
 4092      70686572 
 4092      616C496E 
 4092      6300
 4093              	.LASF149:
 4094 01be 54494D5F 		.ascii	"TIM_Pulse\000"
 4094      50756C73 
 4094      6500
 4095              	.LASF128:
 4096 01c8 444D415F 		.ascii	"DMA_MemoryInc\000"
 4096      4D656D6F 
 4096      7279496E 
 4096      6300
 4097              	.LASF14:
 4098 01d6 6C6F6E67 		.ascii	"long long unsigned int\000"
ARM GAS  /var/folders/m4/4md61f0s1_g0rzfghffqnxvr0000gn/T//ccGOOKyv.s 			page 74


 4098      206C6F6E 
 4098      6720756E 
 4098      7369676E 
 4098      65642069 
 4099              	.LASF88:
 4100 01ed 6D61696E 		.ascii	"mainthread\000"
 4100      74687265 
 4100      616400
 4101              	.LASF78:
 4102 01f8 76697274 		.ascii	"virtual_timers_list_t\000"
 4102      75616C5F 
 4102      74696D65 
 4102      72735F6C 
 4102      6973745F 
 4103              	.LASF163:
 4104 020e 49544D5F 		.ascii	"ITM_RxBuffer\000"
 4104      52784275 
 4104      66666572 
 4104      00
 4105              	.LASF61:
 4106 021b 63685F74 		.ascii	"ch_threads_queue\000"
 4106      68726561 
 4106      64735F71 
 4106      75657565 
 4106      00
 4107              	.LASF168:
 4108 022c 444D415F 		.ascii	"DMA_DeInit\000"
 4108      4465496E 
 4108      697400
 4109              	.LASF39:
 4110 0237 705F7072 		.ascii	"p_prio\000"
 4110      696F00
 4111              	.LASF104:
 4112 023e 6D757465 		.ascii	"mutex_t\000"
 4112      785F7400 
 4113              	.LASF2:
 4114 0246 6C6F6E67 		.ascii	"long long int\000"
 4114      206C6F6E 
 4114      6720696E 
 4114      7400
 4115              	.LASF4:
 4116 0254 7369676E 		.ascii	"signed char\000"
 4116      65642063 
 4116      68617200 
 4117              	.LASF13:
 4118 0260 6C6F6E67 		.ascii	"long unsigned int\000"
 4118      20756E73 
 4118      69676E65 
 4118      6420696E 
 4118      7400
 4119              	.LASF55:
 4120 0272 705F6D70 		.ascii	"p_mpool\000"
 4120      6F6F6C00 
 4121              	.LASF100:
 4122 027a 6D5F7175 		.ascii	"m_queue\000"
 4122      65756500 
 4123              	.LASF158:
ARM GAS  /var/folders/m4/4md61f0s1_g0rzfghffqnxvr0000gn/T//ccGOOKyv.s 			page 75


 4124 0282 444D415F 		.ascii	"DMA_InitStructure\000"
 4124      496E6974 
 4124      53747275 
 4124      63747572 
 4124      6500
 4125              	.LASF172:
 4126 0294 54494D5F 		.ascii	"TIM_OC3Init\000"
 4126      4F433349 
 4126      6E697400 
 4127              	.LASF136:
 4128 02a0 444D415F 		.ascii	"DMA_PeripheralBurst\000"
 4128      50657269 
 4128      70686572 
 4128      616C4275 
 4128      72737400 
 4129              	.LASF110:
 4130 02b4 57533238 		.ascii	"WS2812B\000"
 4130      31324200 
 4131              	.LASF23:
 4132 02bc 74736C69 		.ascii	"tslices_t\000"
 4132      6365735F 
 4132      7400
 4133              	.LASF33:
 4134 02c6 77747472 		.ascii	"wttrp\000"
 4134      7000
 4135              	.LASF161:
 4136 02cc 5F5A4E37 		.ascii	"_ZN7WS2812BC2Ev\000"
 4136      57533238 
 4136      31324243 
 4136      32457600 
 4137              	.LASF11:
 4138 02dc 6C6F6E67 		.ascii	"long int\000"
 4138      20696E74 
 4138      00
 4139              	.LASF148:
 4140 02e5 54494D5F 		.ascii	"TIM_OutputNState\000"
 4140      4F757470 
 4140      75744E53 
 4140      74617465 
 4140      00
 4141              	.LASF21:
 4142 02f6 74737461 		.ascii	"tstate_t\000"
 4142      74655F74 
 4142      00
 4143              	.LASF182:
 4144 02ff 52474254 		.ascii	"RGBToLocal\000"
 4144      6F4C6F63 
 4144      616C00
 4145              	.LASF16:
 4146 030a 75696E74 		.ascii	"uint16_t\000"
 4146      31365F74 
 4146      00
 4147              	.LASF155:
 4148 0313 74686973 		.ascii	"this\000"
 4148      00
 4149              	.LASF41:
 4150 0318 705F6E65 		.ascii	"p_newer\000"
ARM GAS  /var/folders/m4/4md61f0s1_g0rzfghffqnxvr0000gn/T//ccGOOKyv.s 			page 76


 4150      77657200 
 4151              	.LASF97:
 4152 0320 735F7175 		.ascii	"s_queue\000"
 4152      65756500 
 4153              	.LASF31:
 4154 0328 65786974 		.ascii	"exitcode\000"
 4154      636F6465 
 4154      00
 4155              	.LASF67:
 4156 0331 725F6E65 		.ascii	"r_newer\000"
 4156      77657200 
 4157              	.LASF91:
 4158 0339 72656761 		.ascii	"regarm_t\000"
 4158      726D5F74 
 4158      00
 4159              	.LASF74:
 4160 0342 76745F70 		.ascii	"vt_prev\000"
 4160      72657600 
 4161              	.LASF65:
 4162 034a 725F7072 		.ascii	"r_prio\000"
 4162      696F00
 4163              	.LASF147:
 4164 0351 54494D5F 		.ascii	"TIM_OutputState\000"
 4164      4F757470 
 4164      75745374 
 4164      61746500 
 4165              	.LASF156:
 4166 0361 54494D5F 		.ascii	"TIM_TimeBaseStructure\000"
 4166      54696D65 
 4166      42617365 
 4166      53747275 
 4166      63747572 
 4167              	.LASF73:
 4168 0377 76745F6E 		.ascii	"vt_next\000"
 4168      65787400 
 4169              	.LASF140:
 4170 037f 54494D5F 		.ascii	"TIM_CounterMode\000"
 4170      436F756E 
 4170      7465724D 
 4170      6F646500 
 4171              	.LASF89:
 4172 038f 69646C65 		.ascii	"idle_thread_wa\000"
 4172      5F746872 
 4172      6561645F 
 4172      776100
 4173              	.LASF27:
 4174 039e 636E745F 		.ascii	"cnt_t\000"
 4174      7400
 4175              	.LASF157:
 4176 03a4 54494D5F 		.ascii	"TIM_OCInitStructure\000"
 4176      4F43496E 
 4176      69745374 
 4176      72756374 
 4176      75726500 
 4177              	.LASF1:
 4178 03b8 756E7369 		.ascii	"unsigned int\000"
 4178      676E6564 
ARM GAS  /var/folders/m4/4md61f0s1_g0rzfghffqnxvr0000gn/T//ccGOOKyv.s 			page 77


 4178      20696E74 
 4178      00
 4179              	.LASF150:
 4180 03c5 54494D5F 		.ascii	"TIM_OCPolarity\000"
 4180      4F43506F 
 4180      6C617269 
 4180      747900
 4181              	.LASF90:
 4182 03d4 73697A65 		.ascii	"sizetype\000"
 4182      74797065 
 4182      00
 4183              	.LASF142:
 4184 03dd 54494D5F 		.ascii	"TIM_ClockDivision\000"
 4184      436C6F63 
 4184      6B446976 
 4184      6973696F 
 4184      6E00
 4185              	.LASF34:
 4186 03ef 77747365 		.ascii	"wtsemp\000"
 4186      6D7000
 4187              	.LASF75:
 4188 03f6 76745F64 		.ascii	"vt_delta\000"
 4188      656C7461 
 4188      00
 4189              	.LASF81:
 4190 03ff 73797374 		.ascii	"system_debug_t\000"
 4190      656D5F64 
 4190      65627567 
 4190      5F7400
 4191              	.LASF98:
 4192 040e 735F636E 		.ascii	"s_cnt\000"
 4192      7400
 4193              	.LASF92:
 4194 0414 636F6E74 		.ascii	"context\000"
 4194      65787400 
 4195              	.LASF9:
 4196 041c 73686F72 		.ascii	"short unsigned int\000"
 4196      7420756E 
 4196      7369676E 
 4196      65642069 
 4196      6E7400
 4197              	.LASF115:
 4198 042f 416C6C4F 		.ascii	"AllOff\000"
 4198      666600
 4199              	.LASF58:
 4200 0436 63685F74 		.ascii	"ch_thread\000"
 4200      68726561 
 4200      6400
 4201              	.LASF25:
 4202 0440 6D73675F 		.ascii	"msg_t\000"
 4202      7400
 4203              	.LASF180:
 4204 0446 2F557365 		.ascii	"/Users/raphael/Documents/Projects/rESC/resc-firmwar"
 4204      72732F72 
 4204      61706861 
 4204      656C2F44 
 4204      6F63756D 
ARM GAS  /var/folders/m4/4md61f0s1_g0rzfghffqnxvr0000gn/T//ccGOOKyv.s 			page 78


 4205 0479 6500     		.ascii	"e\000"
 4206              	.LASF84:
 4207 047b 63685F73 		.ascii	"ch_system_t\000"
 4207      79737465 
 4207      6D5F7400 
 4208              	.LASF20:
 4209 0487 746D6F64 		.ascii	"tmode_t\000"
 4209      655F7400 
 4210              	.LASF176:
 4211 048f 54494D5F 		.ascii	"TIM_DMACmd\000"
 4211      444D4143 
 4211      6D6400
 4212              	.LASF105:
 4213 049a 626F6F6C 		.ascii	"bool\000"
 4213      00
 4214              	.LASF63:
 4215 049f 63685F72 		.ascii	"ch_ready_list\000"
 4215      65616479 
 4215      5F6C6973 
 4215      7400
 4216              	.LASF108:
 4217 04ad 52474264 		.ascii	"RGBdata\000"
 4217      61746100 
 4218              	.LASF10:
 4219 04b5 5F5F696E 		.ascii	"__int32_t\000"
 4219      7433325F 
 4219      7400
 4220              	.LASF118:
 4221 04bf 53657441 		.ascii	"SetAll\000"
 4221      6C6C00
 4222              	.LASF181:
 4223 04c6 6465636C 		.ascii	"decltype(nullptr)\000"
 4223      74797065 
 4223      286E756C 
 4223      6C707472 
 4223      2900
 4224              	.LASF112:
 4225 04d8 5F5A4E37 		.ascii	"_ZN7WS2812BC4Ev\000"
 4225      57533238 
 4225      31324243 
 4225      34457600 
 4226              	.LASF134:
 4227 04e8 444D415F 		.ascii	"DMA_FIFOThreshold\000"
 4227      4649464F 
 4227      54687265 
 4227      73686F6C 
 4227      6400
 4228              	.LASF175:
 4229 04fa 444D415F 		.ascii	"DMA_Cmd\000"
 4229      436D6400 
 4230              	.LASF179:
 4231 0502 77733238 		.ascii	"ws2812b.cpp\000"
 4231      3132622E 
 4231      63707000 
 4232              	.LASF123:
 4233 050e 444D415F 		.ascii	"DMA_PeripheralBaseAddr\000"
 4233      50657269 
ARM GAS  /var/folders/m4/4md61f0s1_g0rzfghffqnxvr0000gn/T//ccGOOKyv.s 			page 79


 4233      70686572 
 4233      616C4261 
 4233      73654164 
 4234              	.LASF139:
 4235 0525 54494D5F 		.ascii	"TIM_Prescaler\000"
 4235      50726573 
 4235      63616C65 
 4235      7200
 4236              	.LASF19:
 4237 0533 7274636E 		.ascii	"rtcnt_t\000"
 4237      745F7400 
 4238              	.LASF56:
 4239 053b 74687265 		.ascii	"thread_reference_t\000"
 4239      61645F72 
 4239      65666572 
 4239      656E6365 
 4239      5F7400
 4240              	.LASF79:
 4241 054e 63685F76 		.ascii	"ch_virtual_timers_list\000"
 4241      69727475 
 4241      616C5F74 
 4241      696D6572 
 4241      735F6C69 
 4242              	.LASF76:
 4243 0565 76745F66 		.ascii	"vt_func\000"
 4243      756E6300 
 4244              	.LASF125:
 4245 056d 444D415F 		.ascii	"DMA_DIR\000"
 4245      44495200 
 4246              	.LASF153:
 4247 0575 54494D5F 		.ascii	"TIM_OCNIdleState\000"
 4247      4F434E49 
 4247      646C6553 
 4247      74617465 
 4247      00
 4248              	.LASF42:
 4249 0586 705F6F6C 		.ascii	"p_older\000"
 4249      64657200 
 4250              	.LASF116:
 4251 058e 5F5A4E37 		.ascii	"_ZN7WS2812B11SetLEDColorEim\000"
 4251      57533238 
 4251      31324231 
 4251      31536574 
 4251      4C454443 
 4252              	.LASF131:
 4253 05aa 444D415F 		.ascii	"DMA_Mode\000"
 4253      4D6F6465 
 4253      00
 4254              	.LASF170:
 4255 05b3 5243435F 		.ascii	"RCC_APB1PeriphClockCmd\000"
 4255      41504231 
 4255      50657269 
 4255      7068436C 
 4255      6F636B43 
 4256              	.LASF95:
 4257 05ca 746D5F63 		.ascii	"tm_calibration_t\000"
 4257      616C6962 
ARM GAS  /var/folders/m4/4md61f0s1_g0rzfghffqnxvr0000gn/T//ccGOOKyv.s 			page 80


 4257      72617469 
 4257      6F6E5F74 
 4257      00
 4258              	.LASF130:
 4259 05db 444D415F 		.ascii	"DMA_MemoryDataSize\000"
 4259      4D656D6F 
 4259      72794461 
 4259      74615369 
 4259      7A6500
 4260              	.LASF162:
 4261 05ee 5F5A4E37 		.ascii	"_ZN7WS2812B10RGBToLocalEm\000"
 4261      57533238 
 4261      31324231 
 4261      30524742 
 4261      546F4C6F 
 4262              	.LASF69:
 4263 0608 725F6375 		.ascii	"r_current\000"
 4263      7272656E 
 4263      7400
 4264              	.LASF68:
 4265 0612 725F6F6C 		.ascii	"r_older\000"
 4265      64657200 
 4266              	.LASF111:
 4267 061a 4765744C 		.ascii	"GetLEDColor\000"
 4267      4544436F 
 4267      6C6F7200 
 4268              	.LASF0:
 4269 0626 666C6F61 		.ascii	"float\000"
 4269      7400
 4270              	.LASF109:
 4271 062c 67616D6D 		.ascii	"gamma_table\000"
 4271      615F7461 
 4271      626C6500 
 4272              	.LASF22:
 4273 0638 74726566 		.ascii	"trefs_t\000"
 4273      735F7400 
 4274              	.LASF71:
 4275 0640 76697274 		.ascii	"virtual_timer_t\000"
 4275      75616C5F 
 4275      74696D65 
 4275      725F7400 
 4276              	.LASF38:
 4277 0650 705F7072 		.ascii	"p_prev\000"
 4277      657600
 4278              	.LASF113:
 4279 0657 5F5A4E37 		.ascii	"_ZN7WS2812B11GetLEDColorEi\000"
 4279      57533238 
 4279      31324231 
 4279      31476574 
 4279      4C454443 
 4280              	.LASF24:
 4281 0672 74707269 		.ascii	"tprio_t\000"
 4281      6F5F7400 
 4282              	.LASF107:
 4283 067a 62697462 		.ascii	"bitbuffer\000"
 4283      75666665 
 4283      7200
ARM GAS  /var/folders/m4/4md61f0s1_g0rzfghffqnxvr0000gn/T//ccGOOKyv.s 			page 81


 4284              	.LASF82:
 4285 0684 63685F73 		.ascii	"ch_system_debug\000"
 4285      79737465 
 4285      6D5F6465 
 4285      62756700 
 4286              	.LASF135:
 4287 0694 444D415F 		.ascii	"DMA_MemoryBurst\000"
 4287      4D656D6F 
 4287      72794275 
 4287      72737400 
 4288              	.LASF17:
 4289 06a4 696E7433 		.ascii	"int32_t\000"
 4289      325F7400 
 4290              	.LASF5:
 4291 06ac 756E7369 		.ascii	"unsigned char\000"
 4291      676E6564 
 4291      20636861 
 4291      7200
 4292              	.LASF177:
 4293 06ba 54494D5F 		.ascii	"TIM_CtrlPWMOutputs\000"
 4293      4374726C 
 4293      50574D4F 
 4293      75747075 
 4293      747300
 4294              	.LASF44:
 4295 06cd 705F7374 		.ascii	"p_state\000"
 4295      61746500 
 4296              	.LASF53:
 4297 06d5 705F6D74 		.ascii	"p_mtxlist\000"
 4297      786C6973 
 4297      7400
 4298              	.LASF6:
 4299 06df 73686F72 		.ascii	"short int\000"
 4299      7420696E 
 4299      7400
 4300              	.LASF47:
 4301 06e9 705F7072 		.ascii	"p_preempt\000"
 4301      65656D70 
 4301      7400
 4302              	.LASF122:
 4303 06f3 444D415F 		.ascii	"DMA_Channel\000"
 4303      4368616E 
 4303      6E656C00 
 4304              	.LASF36:
 4305 06ff 65776D61 		.ascii	"ewmask\000"
 4305      736B00
 4306              	.LASF37:
 4307 0706 705F6E65 		.ascii	"p_next\000"
 4307      787400
 4308              	.LASF45:
 4309 070d 705F666C 		.ascii	"p_flags\000"
 4309      61677300 
 4310              	.LASF167:
 4311 0715 5243435F 		.ascii	"RCC_AHB1PeriphClockCmd\000"
 4311      41484231 
 4311      50657269 
 4311      7068436C 
ARM GAS  /var/folders/m4/4md61f0s1_g0rzfghffqnxvr0000gn/T//ccGOOKyv.s 			page 82


 4311      6F636B43 
 4312              	.LASF85:
 4313 072c 63685F73 		.ascii	"ch_system\000"
 4313      79737465 
 4313      6D00
 4314              	.LASF72:
 4315 0736 63685F76 		.ascii	"ch_virtual_timer\000"
 4315      69727475 
 4315      616C5F74 
 4315      696D6572 
 4315      00
 4316              	.LASF171:
 4317 0747 54494D5F 		.ascii	"TIM_TimeBaseInit\000"
 4317      54696D65 
 4317      42617365 
 4317      496E6974 
 4317      00
 4318              	.LASF96:
 4319 0758 63685F73 		.ascii	"ch_semaphore\000"
 4319      656D6170 
 4319      686F7265 
 4319      00
 4320              	.LASF52:
 4321 0765 705F6570 		.ascii	"p_epending\000"
 4321      656E6469 
 4321      6E6700
 4322              	.LASF121:
 4323 0770 3135444D 		.ascii	"15DMA_InitTypeDef\000"
 4323      415F496E 
 4323      69745479 
 4323      70654465 
 4323      6600
 4324              	.LASF18:
 4325 0782 75696E74 		.ascii	"uint32_t\000"
 4325      33325F74 
 4325      00
 4326              	.LASF35:
 4327 078b 77746D74 		.ascii	"wtmtxp\000"
 4327      787000
 4328              	.LASF64:
 4329 0792 725F7175 		.ascii	"r_queue\000"
 4329      65756500 
 4330              	.LASF80:
 4331 079a 76745F73 		.ascii	"vt_systime\000"
 4331      79737469 
 4331      6D6500
 4332              	.LASF59:
 4333 07a5 63685F74 		.ascii	"ch_threads_list\000"
 4333      68726561 
 4333      64735F6C 
 4333      69737400 
 4334              	.LASF3:
 4335 07b5 6C6F6E67 		.ascii	"long double\000"
 4335      20646F75 
 4335      626C6500 
 4336              	.LASF151:
 4337 07c1 54494D5F 		.ascii	"TIM_OCNPolarity\000"
ARM GAS  /var/folders/m4/4md61f0s1_g0rzfghffqnxvr0000gn/T//ccGOOKyv.s 			page 83


 4337      4F434E50 
 4337      6F6C6172 
 4337      69747900 
 4338              	.LASF160:
 4339 07d1 636F6C6F 		.ascii	"color\000"
 4339      7200
 4340              	.LASF103:
 4341 07d7 63686172 		.ascii	"char\000"
 4341      00
 4342              	.LASF174:
 4343 07dc 54494D5F 		.ascii	"TIM_Cmd\000"
 4343      436D6400 
 4344              	.LASF8:
 4345 07e4 5F5F7569 		.ascii	"__uint16_t\000"
 4345      6E743136 
 4345      5F7400
 4346              	.LASF129:
 4347 07ef 444D415F 		.ascii	"DMA_PeripheralDataSize\000"
 4347      50657269 
 4347      70686572 
 4347      616C4461 
 4347      74615369 
 4348              	.LASF120:
 4349 0806 3136746D 		.ascii	"16tm_calibration_t\000"
 4349      5F63616C 
 4349      69627261 
 4349      74696F6E 
 4349      5F7400
 4350              	.LASF141:
 4351 0819 54494D5F 		.ascii	"TIM_Period\000"
 4351      50657269 
 4351      6F6400
 4352              	.LASF102:
 4353 0824 6D5F6E65 		.ascii	"m_next\000"
 4353      787400
 4354              	.LASF28:
 4355 082b 73797374 		.ascii	"systime_t\000"
 4355      696D655F 
 4355      7400
 4356              	.LASF54:
 4357 0835 705F7265 		.ascii	"p_realprio\000"
 4357      616C7072 
 4357      696F00
 4358              	.LASF70:
 4359 0840 76746675 		.ascii	"vtfunc_t\000"
 4359      6E635F74 
 4359      00
 4360              	.LASF12:
 4361 0849 5F5F7569 		.ascii	"__uint32_t\000"
 4361      6E743332 
 4361      5F7400
 4362              	.LASF83:
 4363 0854 70616E69 		.ascii	"panic_msg\000"
 4363      635F6D73 
 4363      6700
 4364              	.LASF94:
 4365 085e 6F666673 		.ascii	"offset\000"
ARM GAS  /var/folders/m4/4md61f0s1_g0rzfghffqnxvr0000gn/T//ccGOOKyv.s 			page 84


 4365      657400
 4366              	.LASF48:
 4367 0865 705F7469 		.ascii	"p_time\000"
 4367      6D6500
 4368              	.LASF66:
 4369 086c 725F6374 		.ascii	"r_ctx\000"
 4369      7800
 4370              	.LASF166:
 4371 0872 5F70616C 		.ascii	"_pal_lld_setgroupmode\000"
 4371      5F6C6C64 
 4371      5F736574 
 4371      67726F75 
 4371      706D6F64 
 4372              	.LASF146:
 4373 0888 54494D5F 		.ascii	"TIM_OCMode\000"
 4373      4F434D6F 
 4373      646500
 4374              	.LASF119:
 4375 0893 5F5A4E37 		.ascii	"_ZN7WS2812B6SetAllEm\000"
 4375      57533238 
 4375      31324236 
 4375      53657441 
 4375      6C6C456D 
 4376              	.LASF50:
 4377 08a8 705F6D73 		.ascii	"p_msgqueue\000"
 4377      67717565 
 4377      756500
 4378              	.LASF159:
 4379 08b3 746D705F 		.ascii	"tmp_color\000"
 4379      636F6C6F 
 4379      7200
 4380              	.LASF77:
 4381 08bd 76745F70 		.ascii	"vt_par\000"
 4381      617200
 4382              	.LASF169:
 4383 08c4 444D415F 		.ascii	"DMA_Init\000"
 4383      496E6974 
 4383      00
 4384              	.LASF165:
 4385 08cd 726F756E 		.ascii	"roundf\000"
 4385      646600
 4386              	.LASF60:
 4387 08d4 74687265 		.ascii	"threads_queue_t\000"
 4387      6164735F 
 4387      71756575 
 4387      655F7400 
 4388              	.LASF46:
 4389 08e4 705F7265 		.ascii	"p_refs\000"
 4389      667300
 4390              	.LASF29:
 4391 08eb 74687265 		.ascii	"thread_t\000"
 4391      61645F74 
 4391      00
 4392              	.LASF154:
 4393 08f4 54494D5F 		.ascii	"TIM_OCInitTypeDef\000"
 4393      4F43496E 
 4393      69745479 
ARM GAS  /var/folders/m4/4md61f0s1_g0rzfghffqnxvr0000gn/T//ccGOOKyv.s 			page 85


 4393      70654465 
 4393      6600
 4394              	.LASF114:
 4395 0906 5365744C 		.ascii	"SetLEDColor\000"
 4395      4544436F 
 4395      6C6F7200 
 4396              	.LASF133:
 4397 0912 444D415F 		.ascii	"DMA_FIFOMode\000"
 4397      4649464F 
 4397      4D6F6465 
 4397      00
 4398              	.LASF15:
 4399 091f 75696E74 		.ascii	"uint8_t\000"
 4399      385F7400 
 4400              	.LASF138:
 4401 0927 32335449 		.ascii	"23TIM_TimeBaseInitTypeDef\000"
 4401      4D5F5469 
 4401      6D654261 
 4401      7365496E 
 4401      69745479 
 4402              	.LASF143:
 4403 0941 54494D5F 		.ascii	"TIM_RepetitionCounter\000"
 4403      52657065 
 4403      74697469 
 4403      6F6E436F 
 4403      756E7465 
 4404              	.LASF99:
 4405 0957 63685F6D 		.ascii	"ch_mutex\000"
 4405      75746578 
 4405      00
 4406              	.LASF126:
 4407 0960 444D415F 		.ascii	"DMA_BufferSize\000"
 4407      42756666 
 4407      65725369 
 4407      7A6500
 4408              	.LASF43:
 4409 096f 705F6E61 		.ascii	"p_name\000"
 4409      6D6500
 4410              	.LASF32:
 4411 0976 77746F62 		.ascii	"wtobjp\000"
 4411      6A7000
 4412              	.LASF164:
 4413 097d 706F7766 		.ascii	"powf\000"
 4413      00
 4414              	.LASF57:
 4415 0982 74687265 		.ascii	"threads_list_t\000"
 4415      6164735F 
 4415      6C697374 
 4415      5F7400
 4416              	.LASF152:
 4417 0991 54494D5F 		.ascii	"TIM_OCIdleState\000"
 4417      4F434964 
 4417      6C655374 
 4417      61746500 
 4418              	.LASF51:
 4419 09a1 705F6D73 		.ascii	"p_msg\000"
 4419      6700
ARM GAS  /var/folders/m4/4md61f0s1_g0rzfghffqnxvr0000gn/T//ccGOOKyv.s 			page 86


 4420              	.LASF117:
 4421 09a7 5F5A4E37 		.ascii	"_ZN7WS2812B6AllOffEv\000"
 4421      57533238 
 4421      31324236 
 4421      416C6C4F 
 4421      66664576 
 4422              	.LASF144:
 4423 09bc 54494D5F 		.ascii	"TIM_TimeBaseInitTypeDef\000"
 4423      54696D65 
 4423      42617365 
 4423      496E6974 
 4423      54797065 
 4424              	.LASF173:
 4425 09d4 54494D5F 		.ascii	"TIM_OC3PreloadConfig\000"
 4425      4F433350 
 4425      72656C6F 
 4425      6164436F 
 4425      6E666967 
 4426              	.LASF101:
 4427 09e9 6D5F6F77 		.ascii	"m_owner\000"
 4427      6E657200 
 4428              	.LASF106:
 4429 09f1 646F7562 		.ascii	"double\000"
 4429      6C6500
 4430              	.LASF40:
 4431 09f8 705F6374 		.ascii	"p_ctx\000"
 4431      7800
 4432              	.LASF49:
 4433 09fe 705F7761 		.ascii	"p_waiting\000"
 4433      6974696E 
 4433      6700
 4434              		.ident	"GCC: (GNU Tools for ARM Embedded Processors) 5.2.1 20151202 (release) [ARM/embedded-5-bran
ARM GAS  /var/folders/m4/4md61f0s1_g0rzfghffqnxvr0000gn/T//ccGOOKyv.s 			page 87


DEFINED SYMBOLS
                            *ABS*:0000000000000000 ws2812b.cpp
/var/folders/m4/4md61f0s1_g0rzfghffqnxvr0000gn/T//ccGOOKyv.s:22     .text._ZN7WS2812BC2Ev:0000000000000000 $t
/var/folders/m4/4md61f0s1_g0rzfghffqnxvr0000gn/T//ccGOOKyv.s:28     .text._ZN7WS2812BC2Ev:0000000000000000 _ZN7WS2812BC2Ev
/var/folders/m4/4md61f0s1_g0rzfghffqnxvr0000gn/T//ccGOOKyv.s:337    .text._ZN7WS2812BC2Ev:0000000000000198 $d
/var/folders/m4/4md61f0s1_g0rzfghffqnxvr0000gn/T//ccGOOKyv.s:28     .text._ZN7WS2812BC2Ev:0000000000000000 _ZN7WS2812BC1Ev
/var/folders/m4/4md61f0s1_g0rzfghffqnxvr0000gn/T//ccGOOKyv.s:349    .text._ZN7WS2812B11SetLEDColorEim:0000000000000000 $t
/var/folders/m4/4md61f0s1_g0rzfghffqnxvr0000gn/T//ccGOOKyv.s:355    .text._ZN7WS2812B11SetLEDColorEim:0000000000000000 _ZN7WS2812B11SetLEDColorEim
/var/folders/m4/4md61f0s1_g0rzfghffqnxvr0000gn/T//ccGOOKyv.s:461    .text._ZN7WS2812B11GetLEDColorEi:0000000000000000 $t
/var/folders/m4/4md61f0s1_g0rzfghffqnxvr0000gn/T//ccGOOKyv.s:467    .text._ZN7WS2812B11GetLEDColorEi:0000000000000000 _ZN7WS2812B11GetLEDColorEi
/var/folders/m4/4md61f0s1_g0rzfghffqnxvr0000gn/T//ccGOOKyv.s:490    .text._ZN7WS2812B6AllOffEv:0000000000000000 $t
/var/folders/m4/4md61f0s1_g0rzfghffqnxvr0000gn/T//ccGOOKyv.s:496    .text._ZN7WS2812B6AllOffEv:0000000000000000 _ZN7WS2812B6AllOffEv
/var/folders/m4/4md61f0s1_g0rzfghffqnxvr0000gn/T//ccGOOKyv.s:531    .text._ZN7WS2812B6SetAllEm:0000000000000000 $t
/var/folders/m4/4md61f0s1_g0rzfghffqnxvr0000gn/T//ccGOOKyv.s:537    .text._ZN7WS2812B6SetAllEm:0000000000000000 _ZN7WS2812B6SetAllEm
/var/folders/m4/4md61f0s1_g0rzfghffqnxvr0000gn/T//ccGOOKyv.s:611    .text._ZN7WS2812B10RGBToLocalEm:0000000000000000 $t
/var/folders/m4/4md61f0s1_g0rzfghffqnxvr0000gn/T//ccGOOKyv.s:617    .text._ZN7WS2812B10RGBToLocalEm:0000000000000000 _ZN7WS2812B10RGBToLocalEm
                     .debug_frame:0000000000000010 $d

UNDEFINED SYMBOLS
powf
roundf
_pal_lld_setgroupmode
RCC_AHB1PeriphClockCmd
DMA_DeInit
DMA_Init
RCC_APB1PeriphClockCmd
TIM_TimeBaseInit
TIM_OC3Init
TIM_OC3PreloadConfig
TIM_Cmd
DMA_Cmd
TIM_DMACmd
TIM_CtrlPWMOutputs
