ARM GAS  /var/folders/m4/4md61f0s1_g0rzfghffqnxvr0000gn/T//ccGOOKyv.s 			page 1


   1              		.syntax unified
   2              		.cpu cortex-m4
   3              		.eabi_attribute 27, 1
   4              		.eabi_attribute 28, 1
   5              		.fpu fpv4-sp-d16
   6              		.eabi_attribute 20, 1
   7              		.eabi_attribute 21, 1
   8              		.eabi_attribute 23, 3
   9              		.eabi_attribute 24, 1
  10              		.eabi_attribute 25, 1
  11              		.eabi_attribute 26, 1
  12              		.eabi_attribute 30, 2
  13              		.eabi_attribute 34, 1
  14              		.eabi_attribute 18, 4
  15              		.thumb
  16              		.syntax unified
  17              		.file	"ws2812b.cpp"
  18              		.text
  19              	.Ltext0:
  20              		.cfi_sections	.debug_frame
  21              		.section	.text._ZN7WS2812BC2Ev,"ax",%progbits
  22              		.align	2
  23              		.p2align 4,,15
  24              		.global	_ZN7WS2812BC2Ev
  25              		.thumb
  26              		.thumb_func
  27              		.type	_ZN7WS2812BC2Ev, %function
  28              	_ZN7WS2812BC2Ev:
  29              	.LFB269:
  30              		.file 1 "ws2812b.cpp"
  31              		.loc 1 7 0
  32              		.cfi_startproc
  33              		@ args = 0, pretend = 0, frame = 96
  34              		@ frame_needed = 0, uses_anonymous_args = 0
  35              	.LVL0:
  36 0000 F0B5     		push	{r4, r5, r6, r7, lr}
  37              		.cfi_def_cfa_offset 20
  38              		.cfi_offset 4, -20
  39              		.cfi_offset 5, -16
  40              		.cfi_offset 6, -12
  41              		.cfi_offset 7, -8
  42              		.cfi_offset 14, -4
  43 0002 2DED028B 		vpush.64	{d8}
  44              		.cfi_def_cfa_offset 28
  45              		.cfi_offset 80, -28
  46              		.cfi_offset 81, -24
  47              	.LBB15:
  48              		.loc 1 16 0
  49 0006 0023     		movs	r3, #0
  50 0008 C0F85431 		str	r3, [r0, #340]
  51              	.LVL1:
  52 000c C0F85831 		str	r3, [r0, #344]
  53              	.LVL2:
  54 0010 C0F85C31 		str	r3, [r0, #348]
  55              	.LVL3:
  56 0014 C0F86031 		str	r3, [r0, #352]
  57              	.LVL4:
ARM GAS  /var/folders/m4/4md61f0s1_g0rzfghffqnxvr0000gn/T//ccGOOKyv.s 			page 2


  58 0018 C0F86431 		str	r3, [r0, #356]
  59              	.LVL5:
  60              	.LBE15:
  61              		.loc 1 7 0
  62 001c 0646     		mov	r6, r0
  63              	.LBB20:
  64              		.loc 1 16 0
  65 001e 1D46     		mov	r5, r3
  66 0020 1946     		mov	r1, r3
  67 0022 00F5AA77 		add	r7, r0, #340
  68 0026 0346     		mov	r3, r0
  69              	.LBE20:
  70              		.loc 1 7 0
  71 0028 99B0     		sub	sp, sp, #100
  72              		.cfi_def_cfa_offset 128
  73              	.LBB21:
  74              	.LBB16:
  75              	.LBB17:
  76              		.loc 1 26 0
  77 002a 2124     		movs	r4, #33
  78              		.loc 1 24 0
  79 002c 4220     		movs	r0, #66
  80              	.LVL6:
  81              	.L6:
  82              	.LBB18:
  83              	.LBB19:
  84              		.loc 1 165 0
  85 002e C1F30742 		ubfx	r2, r1, #16, #8
  86              		.loc 1 166 0
  87 0032 C1F3072E 		ubfx	lr, r1, #8, #8
  88              		.loc 1 165 0
  89 0036 3244     		add	r2, r2, r6
  90              		.loc 1 166 0
  91 0038 B644     		add	lr, lr, r6
  92              		.loc 1 165 0
  93 003a 92F86821 		ldrb	r2, [r2, #360]	@ zero_extendqisi2
  94              	.LVL7:
  95              		.loc 1 166 0
  96 003e 9EF868E1 		ldrb	lr, [lr, #360]	@ zero_extendqisi2
  97              	.LVL8:
  98              		.loc 1 167 0
  99 0042 56FA81F1 		uxtab	r1, r6, r1
 100              	.LVL9:
 101              		.loc 1 169 0
 102 0046 1202     		lsls	r2, r2, #8
 103              	.LVL10:
 104              		.loc 1 167 0
 105 0048 91F86811 		ldrb	r1, [r1, #360]	@ zero_extendqisi2
 106              	.LVL11:
 107              		.loc 1 169 0
 108 004c 42EA0E42 		orr	r2, r2, lr, lsl #16
 109 0050 0A43     		orrs	r2, r2, r1
 110              	.LVL12:
 111 0052 03F13001 		add	r1, r3, #48
 112              	.LVL13:
 113              	.L4:
 114              	.LBE19:
ARM GAS  /var/folders/m4/4md61f0s1_g0rzfghffqnxvr0000gn/T//ccGOOKyv.s 			page 3


 115              	.LBE18:
 116              		.loc 1 23 0
 117 0056 12F4000F 		tst	r2, #8388608
 118              		.loc 1 24 0
 119 005a 14BF     		ite	ne
 120 005c 1880     		strhne	r0, [r3]	@ movhi
 121              		.loc 1 26 0
 122 005e 1C80     		strheq	r4, [r3]	@ movhi
 123 0060 0233     		adds	r3, r3, #2
 124              		.loc 1 22 0
 125 0062 8B42     		cmp	r3, r1
 126              		.loc 1 28 0
 127 0064 4FEA4202 		lsl	r2, r2, #1
 128              	.LVL14:
 129              		.loc 1 22 0
 130 0068 F5D1     		bne	.L4
 131 006a 1835     		adds	r5, r5, #24
 132              	.LBE17:
 133              		.loc 1 19 0 discriminator 2
 134 006c 782D     		cmp	r5, #120
 135 006e 02D0     		beq	.L5
 136 0070 57F8041F 		ldr	r1, [r7, #4]!
 137 0074 DBE7     		b	.L6
 138              	.L5:
 139 0076 06F1EC03 		add	r3, r6, #236
 140 007a 06F5A871 		add	r1, r6, #336
 141              	.LBE16:
 142              		.loc 1 35 0 discriminator 2
 143 007e 0022     		movs	r2, #0
 144              	.LVL15:
 145              	.L7:
 146 0080 23F8022F 		strh	r2, [r3, #2]!	@ movhi
 147              		.loc 1 34 0 discriminator 2
 148 0084 9942     		cmp	r1, r3
 149 0086 FBD1     		bne	.L7
 150              		.loc 1 40 0 discriminator 2
 151 0088 9FED438A 		vldr.32	s16, .L14
 152 008c 06F26715 		addw	r5, r6, #359
 153              		.loc 1 34 0 discriminator 2
 154 0090 0024     		movs	r4, #0
 155              	.L8:
 156              	.LVL16:
 157              		.loc 1 40 0 discriminator 2
 158 0092 07EE904A 		vmov	s15, r4	@ int
 159 0096 B8EEE70A 		vcvt.f32.s32	s0, s15
 160 009a DFED400A 		vldr.32	s1, .L14+4
 161 009e 80EE080A 		vdiv.f32	s0, s0, s16
 162 00a2 FFF7FEFF 		bl	powf
 163              	.LVL17:
 164              		.loc 1 39 0 discriminator 2
 165 00a6 0134     		adds	r4, r4, #1
 166              	.LVL18:
 167              		.loc 1 40 0 discriminator 2
 168 00a8 20EE080A 		vmul.f32	s0, s0, s16
 169 00ac FFF7FEFF 		bl	roundf
 170              	.LVL19:
 171 00b0 FDEEC07A 		vcvt.s32.f32	s15, s0
ARM GAS  /var/folders/m4/4md61f0s1_g0rzfghffqnxvr0000gn/T//ccGOOKyv.s 			page 4


 172              		.loc 1 39 0 discriminator 2
 173 00b4 B4F5807F 		cmp	r4, #256
 174              		.loc 1 40 0 discriminator 2
 175 00b8 17EE903A 		vmov	r3, s15	@ int
 176 00bc 05F8013F 		strb	r3, [r5, #1]!
 177              		.loc 1 39 0 discriminator 2
 178 00c0 E7D1     		bne	.L8
 179              		.loc 1 46 0
 180 00c2 4FF48572 		mov	r2, #266
 181 00c6 2146     		mov	r1, r4
 182 00c8 3548     		ldr	r0, .L14+8
 183              		.loc 1 52 0
 184 00ca 364F     		ldr	r7, .L14+12
 185              		.loc 1 46 0
 186 00cc FFF7FEFF 		bl	_pal_lld_setgroupmode
 187              	.LVL20:
 188              		.loc 1 49 0
 189 00d0 0121     		movs	r1, #1
 190 00d2 4FF40010 		mov	r0, #2097152
 191 00d6 FFF7FEFF 		bl	RCC_AHB1PeriphClockCmd
 192              	.LVL21:
 193              		.loc 1 51 0
 194 00da 3348     		ldr	r0, .L14+16
 195 00dc FFF7FEFF 		bl	DMA_DeInit
 196              	.LVL22:
 197              		.loc 1 56 0
 198 00e0 4022     		movs	r2, #64
 199              		.loc 1 57 0
 200 00e2 AA23     		movs	r3, #170
 201              		.loc 1 59 0
 202 00e4 4FF48061 		mov	r1, #1024
 203              		.loc 1 54 0
 204 00e8 4FF0806E 		mov	lr, #67108864
 205              		.loc 1 58 0
 206 00ec 0025     		movs	r5, #0
 207              		.loc 1 62 0
 208 00ee 1294     		str	r4, [sp, #72]
 209              		.loc 1 52 0
 210 00f0 0A97     		str	r7, [sp, #40]
 211              		.loc 1 56 0
 212 00f2 0C92     		str	r2, [sp, #48]
 213              		.loc 1 60 0
 214 00f4 4FF40067 		mov	r7, #2048
 215              		.loc 1 63 0
 216 00f8 4FF40032 		mov	r2, #131072
 217              		.loc 1 57 0
 218 00fc 0D93     		str	r3, [sp, #52]
 219              		.loc 1 59 0
 220 00fe 0F91     		str	r1, [sp, #60]
 221              		.loc 1 65 0
 222 0100 0323     		movs	r3, #3
 223              		.loc 1 69 0
 224 0102 09A9     		add	r1, sp, #36
 225 0104 2848     		ldr	r0, .L14+16
 226              		.loc 1 54 0
 227 0106 CDF824E0 		str	lr, [sp, #36]
 228              		.loc 1 61 0
ARM GAS  /var/folders/m4/4md61f0s1_g0rzfghffqnxvr0000gn/T//ccGOOKyv.s 			page 5


 229 010a 4FF40054 		mov	r4, #8192
 230              	.LVL23:
 231              		.loc 1 63 0
 232 010e 1392     		str	r2, [sp, #76]
 233              		.loc 1 65 0
 234 0110 1593     		str	r3, [sp, #84]
 235              		.loc 1 61 0
 236 0112 1194     		str	r4, [sp, #68]
 237              		.loc 1 55 0
 238 0114 0B96     		str	r6, [sp, #44]
 239              		.loc 1 58 0
 240 0116 0E95     		str	r5, [sp, #56]
 241              		.loc 1 64 0
 242 0118 1495     		str	r5, [sp, #80]
 243              		.loc 1 66 0
 244 011a 1695     		str	r5, [sp, #88]
 245              		.loc 1 67 0
 246 011c 1795     		str	r5, [sp, #92]
 247              		.loc 1 60 0
 248 011e 1097     		str	r7, [sp, #64]
 249              		.loc 1 69 0
 250 0120 FFF7FEFF 		bl	DMA_Init
 251              	.LVL24:
 252              		.loc 1 71 0
 253 0124 0121     		movs	r1, #1
 254 0126 0420     		movs	r0, #4
 255 0128 FFF7FEFF 		bl	RCC_APB1PeriphClockCmd
 256              	.LVL25:
 257              		.loc 1 76 0
 258 012c 6823     		movs	r3, #104
 259              		.loc 1 80 0
 260 012e 01A9     		add	r1, sp, #4
 261 0130 1E48     		ldr	r0, .L14+20
 262              		.loc 1 76 0
 263 0132 0293     		str	r3, [sp, #8]
 264              		.loc 1 84 0
 265 0134 0124     		movs	r4, #1
 266              		.loc 1 74 0
 267 0136 ADF80450 		strh	r5, [sp, #4]	@ movhi
 268              		.loc 1 75 0
 269 013a ADF80650 		strh	r5, [sp, #6]	@ movhi
 270              		.loc 1 77 0
 271 013e ADF80C50 		strh	r5, [sp, #12]	@ movhi
 272              		.loc 1 78 0
 273 0142 8DF80E50 		strb	r5, [sp, #14]
 274              		.loc 1 80 0
 275 0146 FFF7FEFF 		bl	TIM_TimeBaseInit
 276              	.LVL26:
 277              		.loc 1 85 0
 278 014a 3388     		ldrh	r3, [r6]
 279              		.loc 1 88 0
 280 014c 1748     		ldr	r0, .L14+20
 281              		.loc 1 85 0
 282 014e 0693     		str	r3, [sp, #24]
 283              		.loc 1 83 0
 284 0150 6022     		movs	r2, #96
 285              		.loc 1 88 0
ARM GAS  /var/folders/m4/4md61f0s1_g0rzfghffqnxvr0000gn/T//ccGOOKyv.s 			page 6


 286 0152 04A9     		add	r1, sp, #16
 287              		.loc 1 83 0
 288 0154 ADF81020 		strh	r2, [sp, #16]	@ movhi
 289              		.loc 1 86 0
 290 0158 ADF81C50 		strh	r5, [sp, #28]	@ movhi
 291              		.loc 1 84 0
 292 015c ADF81240 		strh	r4, [sp, #18]	@ movhi
 293              		.loc 1 88 0
 294 0160 FFF7FEFF 		bl	TIM_OC3Init
 295              	.LVL27:
 296              		.loc 1 89 0
 297 0164 0821     		movs	r1, #8
 298 0166 1148     		ldr	r0, .L14+20
 299 0168 FFF7FEFF 		bl	TIM_OC3PreloadConfig
 300              	.LVL28:
 301              		.loc 1 92 0
 302 016c 2146     		mov	r1, r4
 303 016e 0F48     		ldr	r0, .L14+20
 304 0170 FFF7FEFF 		bl	TIM_Cmd
 305              	.LVL29:
 306              		.loc 1 94 0
 307 0174 2146     		mov	r1, r4
 308 0176 0C48     		ldr	r0, .L14+16
 309 0178 FFF7FEFF 		bl	DMA_Cmd
 310              	.LVL30:
 311              		.loc 1 97 0
 312 017c 2246     		mov	r2, r4
 313 017e 3946     		mov	r1, r7
 314 0180 0A48     		ldr	r0, .L14+20
 315 0182 FFF7FEFF 		bl	TIM_DMACmd
 316              	.LVL31:
 317              		.loc 1 100 0
 318 0186 2146     		mov	r1, r4
 319 0188 0848     		ldr	r0, .L14+20
 320 018a FFF7FEFF 		bl	TIM_CtrlPWMOutputs
 321              	.LVL32:
 322              	.LBE21:
 323              		.loc 1 101 0
 324 018e 3046     		mov	r0, r6
 325 0190 19B0     		add	sp, sp, #100
 326              		.cfi_def_cfa_offset 28
 327              		@ sp needed
 328 0192 BDEC028B 		vldm	sp!, {d8}
 329              		.cfi_restore 80
 330              		.cfi_restore 81
 331              		.cfi_def_cfa_offset 20
 332 0196 F0BD     		pop	{r4, r5, r6, r7, pc}
 333              	.LVL33:
 334              	.L15:
 335              		.align	2
 336              	.L14:
 337 0198 00007F43 		.word	1132396544
 338 019c E4380E40 		.word	1074673892
 339 01a0 00040240 		.word	1073873920
 340 01a4 3C080040 		.word	1073743932
 341 01a8 B8600240 		.word	1073897656
 342 01ac 00080040 		.word	1073743872
ARM GAS  /var/folders/m4/4md61f0s1_g0rzfghffqnxvr0000gn/T//ccGOOKyv.s 			page 7


 343              		.cfi_endproc
 344              	.LFE269:
 345              		.size	_ZN7WS2812BC2Ev, .-_ZN7WS2812BC2Ev
 346              		.global	_ZN7WS2812BC1Ev
 347              		.thumb_set _ZN7WS2812BC1Ev,_ZN7WS2812BC2Ev
 348              		.section	.text._ZN7WS2812B11SetLEDColorEim,"ax",%progbits
 349              		.align	2
 350              		.p2align 4,,15
 351              		.global	_ZN7WS2812B11SetLEDColorEim
 352              		.thumb
 353              		.thumb_func
 354              		.type	_ZN7WS2812B11SetLEDColorEim, %function
 355              	_ZN7WS2812B11SetLEDColorEim:
 356              	.LFB271:
 357              		.loc 1 103 0
 358              		.cfi_startproc
 359              		@ args = 0, pretend = 0, frame = 0
 360              		@ frame_needed = 0, uses_anonymous_args = 0
 361              		@ link register save eliminated.
 362              	.LVL34:
 363              	.LBB22:
 364              		.loc 1 104 0
 365 0000 0329     		cmp	r1, #3
 366 0002 29DC     		bgt	.L25
 367              	.LBE22:
 368              		.loc 1 103 0
 369 0004 30B4     		push	{r4, r5}
 370              		.cfi_def_cfa_offset 8
 371              		.cfi_offset 4, -8
 372              		.cfi_offset 5, -4
 373              	.LBB30:
 374              	.LBB23:
 375              	.LBB24:
 376              	.LBB25:
 377              		.loc 1 165 0
 378 0006 C2F30743 		ubfx	r3, r2, #16, #8
 379              	.LBE25:
 380              	.LBE24:
 381              		.loc 1 105 0
 382 000a 00EB8105 		add	r5, r0, r1, lsl #2
 383              	.LBB28:
 384              	.LBB26:
 385              		.loc 1 165 0
 386 000e 0344     		add	r3, r3, r0
 387              		.loc 1 166 0
 388 0010 C2F30724 		ubfx	r4, r2, #8, #8
 389              	.LBE26:
 390              	.LBE28:
 391              		.loc 1 105 0
 392 0014 C5F85421 		str	r2, [r5, #340]
 393              	.LVL35:
 394              	.LBB29:
 395              	.LBB27:
 396              		.loc 1 166 0
 397 0018 0444     		add	r4, r4, r0
 398              		.loc 1 167 0
 399 001a 50FA82F2 		uxtab	r2, r0, r2
ARM GAS  /var/folders/m4/4md61f0s1_g0rzfghffqnxvr0000gn/T//ccGOOKyv.s 			page 8


 400              	.LVL36:
 401              		.loc 1 165 0
 402 001e 93F86831 		ldrb	r3, [r3, #360]	@ zero_extendqisi2
 403              	.LVL37:
 404              		.loc 1 166 0
 405 0022 94F86841 		ldrb	r4, [r4, #360]	@ zero_extendqisi2
 406              	.LVL38:
 407              		.loc 1 167 0
 408 0026 92F86821 		ldrb	r2, [r2, #360]	@ zero_extendqisi2
 409              	.LVL39:
 410 002a 01EB4101 		add	r1, r1, r1, lsl #1
 411              	.LVL40:
 412 002e 0901     		lsls	r1, r1, #4
 413              		.loc 1 169 0
 414 0030 1B02     		lsls	r3, r3, #8
 415              	.LVL41:
 416 0032 43EA0443 		orr	r3, r3, r4, lsl #16
 417 0036 01F13004 		add	r4, r1, #48
 418              	.LVL42:
 419 003a 1343     		orrs	r3, r3, r2
 420              	.LVL43:
 421 003c 0219     		adds	r2, r0, r4
 422 003e 0844     		add	r0, r0, r1
 423              	.LVL44:
 424              	.LBE27:
 425              	.LBE29:
 426              		.loc 1 114 0
 427 0040 2124     		movs	r4, #33
 428              		.loc 1 112 0
 429 0042 4221     		movs	r1, #66
 430              	.LVL45:
 431              	.L21:
 432              		.loc 1 111 0
 433 0044 1D02     		lsls	r5, r3, #8
 434              		.loc 1 112 0
 435 0046 4CBF     		ite	mi
 436 0048 0180     		strhmi	r1, [r0]	@ movhi
 437              		.loc 1 114 0
 438 004a 0480     		strhpl	r4, [r0]	@ movhi
 439 004c 0230     		adds	r0, r0, #2
 440              		.loc 1 110 0
 441 004e 9042     		cmp	r0, r2
 442              		.loc 1 116 0
 443 0050 4FEA4303 		lsl	r3, r3, #1
 444              	.LVL46:
 445              		.loc 1 110 0
 446 0054 F6D1     		bne	.L21
 447              	.LBE23:
 448              	.LBE30:
 449              		.loc 1 119 0
 450 0056 30BC     		pop	{r4, r5}
 451              		.cfi_restore 5
 452              		.cfi_restore 4
 453              		.cfi_def_cfa_offset 0
 454              	.LVL47:
 455              	.L25:
 456 0058 7047     		bx	lr
ARM GAS  /var/folders/m4/4md61f0s1_g0rzfghffqnxvr0000gn/T//ccGOOKyv.s 			page 9


 457              		.cfi_endproc
 458              	.LFE271:
 459              		.size	_ZN7WS2812B11SetLEDColorEim, .-_ZN7WS2812B11SetLEDColorEim
 460 005a 00BF     		.section	.text._ZN7WS2812B11GetLEDColorEi,"ax",%progbits
 461              		.align	2
 462              		.p2align 4,,15
 463              		.global	_ZN7WS2812B11GetLEDColorEi
 464              		.thumb
 465              		.thumb_func
 466              		.type	_ZN7WS2812B11GetLEDColorEi, %function
 467              	_ZN7WS2812B11GetLEDColorEi:
 468              	.LFB272:
 469              		.loc 1 121 0
 470              		.cfi_startproc
 471              		@ args = 0, pretend = 0, frame = 0
 472              		@ frame_needed = 0, uses_anonymous_args = 0
 473              		@ link register save eliminated.
 474              	.LVL48:
 475              		.loc 1 122 0
 476 0000 0329     		cmp	r1, #3
 477              		.loc 1 123 0
 478 0002 DABF     		itte	le
 479 0004 00EB8100 		addle	r0, r0, r1, lsl #2
 480              	.LVL49:
 481 0008 D0F85401 		ldrle	r0, [r0, #340]
 482              		.loc 1 126 0
 483 000c 0020     		movgt	r0, #0
 484              		.loc 1 127 0
 485 000e 7047     		bx	lr
 486              		.cfi_endproc
 487              	.LFE272:
 488              		.size	_ZN7WS2812B11GetLEDColorEi, .-_ZN7WS2812B11GetLEDColorEi
 489              		.section	.text._ZN7WS2812B6AllOffEv,"ax",%progbits
 490              		.align	2
 491              		.p2align 4,,15
 492              		.global	_ZN7WS2812B6AllOffEv
 493              		.thumb
 494              		.thumb_func
 495              		.type	_ZN7WS2812B6AllOffEv, %function
 496              	_ZN7WS2812B6AllOffEv:
 497              	.LFB273:
 498              		.loc 1 129 0
 499              		.cfi_startproc
 500              		@ args = 0, pretend = 0, frame = 0
 501              		@ frame_needed = 0, uses_anonymous_args = 0
 502              		@ link register save eliminated.
 503              	.LVL50:
 504              		.loc 1 133 0
 505 0000 0023     		movs	r3, #0
 506 0002 C0F85431 		str	r3, [r0, #340]
 507              	.LVL51:
 508 0006 C0F85831 		str	r3, [r0, #344]
 509              	.LVL52:
 510 000a C0F85C31 		str	r3, [r0, #348]
 511              	.LVL53:
 512 000e C0F86031 		str	r3, [r0, #352]
 513              	.LVL54:
ARM GAS  /var/folders/m4/4md61f0s1_g0rzfghffqnxvr0000gn/T//ccGOOKyv.s 			page 10


 514 0012 00F1BE02 		add	r2, r0, #190
 515 0016 831E     		subs	r3, r0, #2
 516              		.loc 1 137 0
 517 0018 2121     		movs	r1, #33
 518              	.LVL55:
 519              	.L30:
 520              		.loc 1 137 0 is_stmt 0 discriminator 2
 521 001a 23F8021F 		strh	r1, [r3, #2]!	@ movhi
 522              		.loc 1 136 0 is_stmt 1 discriminator 2
 523 001e 9342     		cmp	r3, r2
 524 0020 FBD1     		bne	.L30
 525              		.loc 1 139 0
 526 0022 7047     		bx	lr
 527              		.cfi_endproc
 528              	.LFE273:
 529              		.size	_ZN7WS2812B6AllOffEv, .-_ZN7WS2812B6AllOffEv
 530              		.section	.text._ZN7WS2812B6SetAllEm,"ax",%progbits
 531              		.align	2
 532              		.p2align 4,,15
 533              		.global	_ZN7WS2812B6SetAllEm
 534              		.thumb
 535              		.thumb_func
 536              		.type	_ZN7WS2812B6SetAllEm, %function
 537              	_ZN7WS2812B6SetAllEm:
 538              	.LFB274:
 539              		.loc 1 141 0
 540              		.cfi_startproc
 541              		@ args = 0, pretend = 0, frame = 0
 542              		@ frame_needed = 0, uses_anonymous_args = 0
 543              	.LVL56:
 544 0000 F0B5     		push	{r4, r5, r6, r7, lr}
 545              		.cfi_def_cfa_offset 20
 546              		.cfi_offset 4, -20
 547              		.cfi_offset 5, -16
 548              		.cfi_offset 6, -12
 549              		.cfi_offset 7, -8
 550              		.cfi_offset 14, -4
 551 0002 C1F30742 		ubfx	r2, r1, #16, #8
 552 0006 C1F30723 		ubfx	r3, r1, #8, #8
 553 000a 0344     		add	r3, r3, r0
 554 000c 0244     		add	r2, r2, r0
 555 000e 93F868E1 		ldrb	lr, [r3, #360]	@ zero_extendqisi2
 556 0012 92F86821 		ldrb	r2, [r2, #360]	@ zero_extendqisi2
 557 0016 50FA81F3 		uxtab	r3, r0, r1
 558 001a 1202     		lsls	r2, r2, #8
 559 001c 93F86831 		ldrb	r3, [r3, #360]	@ zero_extendqisi2
 560 0020 42EA0E4E 		orr	lr, r2, lr, lsl #16
 561 0024 00F5A877 		add	r7, r0, #336
 562 0028 4EEA030E 		orr	lr, lr, r3
 563 002c 3030     		adds	r0, r0, #48
 564              	.LVL57:
 565              		.loc 1 141 0
 566 002e 0026     		movs	r6, #0
 567              	.LBB31:
 568              	.LBB32:
 569              		.loc 1 153 0
 570 0030 2125     		movs	r5, #33
ARM GAS  /var/folders/m4/4md61f0s1_g0rzfghffqnxvr0000gn/T//ccGOOKyv.s 			page 11


 571              		.loc 1 151 0
 572 0032 4224     		movs	r4, #66
 573              	.LVL58:
 574              	.L36:
 575              		.loc 1 145 0
 576 0034 47F8041F 		str	r1, [r7, #4]!
 577              	.LVL59:
 578 0038 A0F13003 		sub	r3, r0, #48
 579              		.loc 1 147 0
 580 003c 7246     		mov	r2, lr
 581              	.LVL60:
 582              	.L35:
 583              		.loc 1 150 0
 584 003e 12F4000F 		tst	r2, #8388608
 585              		.loc 1 151 0
 586 0042 14BF     		ite	ne
 587 0044 1C80     		strhne	r4, [r3]	@ movhi
 588              		.loc 1 153 0
 589 0046 1D80     		strheq	r5, [r3]	@ movhi
 590 0048 0233     		adds	r3, r3, #2
 591              		.loc 1 149 0
 592 004a 9842     		cmp	r0, r3
 593              		.loc 1 155 0
 594 004c 4FEA4202 		lsl	r2, r2, #1
 595              	.LVL61:
 596              		.loc 1 149 0
 597 0050 F5D1     		bne	.L35
 598 0052 1836     		adds	r6, r6, #24
 599              	.LBE32:
 600              		.loc 1 144 0 discriminator 2
 601 0054 602E     		cmp	r6, #96
 602 0056 00F13000 		add	r0, r0, #48
 603 005a EBD1     		bne	.L36
 604              	.LBE31:
 605              		.loc 1 158 0
 606 005c F0BD     		pop	{r4, r5, r6, r7, pc}
 607              		.cfi_endproc
 608              	.LFE274:
 609              		.size	_ZN7WS2812B6SetAllEm, .-_ZN7WS2812B6SetAllEm
 610 005e 00BF     		.section	.text._ZN7WS2812B10RGBToLocalEm,"ax",%progbits
 611              		.align	2
 612              		.p2align 4,,15
 613              		.global	_ZN7WS2812B10RGBToLocalEm
 614              		.thumb
 615              		.thumb_func
 616              		.type	_ZN7WS2812B10RGBToLocalEm, %function
 617              	_ZN7WS2812B10RGBToLocalEm:
 618              	.LFB275:
 619              		.loc 1 160 0
 620              		.cfi_startproc
 621              		@ args = 0, pretend = 0, frame = 0
 622              		@ frame_needed = 0, uses_anonymous_args = 0
 623              		@ link register save eliminated.
 624              	.LVL62:
 625              		.loc 1 165 0
 626 0000 C1F30743 		ubfx	r3, r1, #16, #8
 627 0004 0344     		add	r3, r3, r0
ARM GAS  /var/folders/m4/4md61f0s1_g0rzfghffqnxvr0000gn/T//ccGOOKyv.s 			page 12


 628              		.loc 1 166 0
 629 0006 C1F30722 		ubfx	r2, r1, #8, #8
 630 000a 0244     		add	r2, r2, r0
 631              		.loc 1 165 0
 632 000c 93F86831 		ldrb	r3, [r3, #360]	@ zero_extendqisi2
 633              	.LVL63:
 634              		.loc 1 166 0
 635 0010 92F86821 		ldrb	r2, [r2, #360]	@ zero_extendqisi2
 636              	.LVL64:
 637              		.loc 1 167 0
 638 0014 50FA81F1 		uxtab	r1, r0, r1
 639              	.LVL65:
 640              		.loc 1 169 0
 641 0018 1B02     		lsls	r3, r3, #8
 642              	.LVL66:
 643              		.loc 1 167 0
 644 001a 91F86801 		ldrb	r0, [r1, #360]	@ zero_extendqisi2
 645              	.LVL67:
 646              		.loc 1 169 0
 647 001e 43EA0243 		orr	r3, r3, r2, lsl #16
 648              		.loc 1 170 0
 649 0022 1843     		orrs	r0, r0, r3
 650              	.LVL68:
 651 0024 7047     		bx	lr
 652              		.cfi_endproc
 653              	.LFE275:
 654              		.size	_ZN7WS2812B10RGBToLocalEm, .-_ZN7WS2812B10RGBToLocalEm
 655 0026 00BF     		.text
 656              	.Letext0:
 657              		.file 2 "/opt/homebrew-cask/Caskroom/gcc-arm-embedded/5_2-2015q4,20151219/gcc-arm-none-eabi-5_2-20
 658              		.file 3 "/opt/homebrew-cask/Caskroom/gcc-arm-embedded/5_2-2015q4,20151219/gcc-arm-none-eabi-5_2-20
 659              		.file 4 "ChibiOS_16.1.4/os/rt/ports/ARMCMx/compilers/GCC/chtypes.h"
 660              		.file 5 "ChibiOS_16.1.4/os/rt/include/chsystypes.h"
 661              		.file 6 "ChibiOS_16.1.4/os/rt/include/chschd.h"
 662              		.file 7 "ChibiOS_16.1.4/os/rt/ports/ARMCMx/chcore.h"
 663              		.file 8 "ChibiOS_16.1.4/os/rt/ports/ARMCMx/chcore_v7m.h"
 664              		.file 9 "ChibiOS_16.1.4/os/rt/include/chtm.h"
 665              		.file 10 "ChibiOS_16.1.4/os/rt/include/chsem.h"
 666              		.file 11 "ChibiOS_16.1.4/os/rt/include/chmtx.h"
 667              		.file 12 "ws2812b.h"
 668              		.file 13 "ChibiOS_16.1.4/ext/stdperiph_stm32f4/inc/stm32f4xx_dma.h"
 669              		.file 14 "ChibiOS_16.1.4/ext/stdperiph_stm32f4/inc/stm32f4xx_tim.h"
 670              		.file 15 "/opt/homebrew-cask/Caskroom/gcc-arm-embedded/5_2-2015q4,20151219/gcc-arm-none-eabi-5_2-2
 671              		.file 16 "ChibiOS_16.1.4/os/hal/ports/STM32/LLD/GPIOv2/pal_lld.h"
 672              		.file 17 "ChibiOS_16.1.4/ext/stdperiph_stm32f4/inc/stm32f4xx_rcc.h"
 673              		.file 18 "ChibiOS_16.1.4/os/ext/CMSIS/include/core_cm4.h"