Archive member included to satisfy reference by file (symbol)

/opt/homebrew-cask/Caskroom/gcc-arm-embedded/5_2-2015q4,20151219/gcc-arm-none-eabi-5_2-2015q4/bin/../lib/gcc/arm-none-eabi/5.2.1/../../../../arm-none-eabi/lib/armv7e-m/fpu/libm.a(lib_a-s_cos.o)
                              build/obj/transforms.o (cos)
/opt/homebrew-cask/Caskroom/gcc-arm-embedded/5_2-2015q4,20151219/gcc-arm-none-eabi-5_2-2015q4/bin/../lib/gcc/arm-none-eabi/5.2.1/../../../../arm-none-eabi/lib/armv7e-m/fpu/libm.a(lib_a-s_sin.o)
                              build/obj/transforms.o (sin)
/opt/homebrew-cask/Caskroom/gcc-arm-embedded/5_2-2015q4,20151219/gcc-arm-none-eabi-5_2-2015q4/bin/../lib/gcc/arm-none-eabi/5.2.1/../../../../arm-none-eabi/lib/armv7e-m/fpu/libm.a(lib_a-sf_round.o)
                              build/obj/ws2812b.o (roundf)
/opt/homebrew-cask/Caskroom/gcc-arm-embedded/5_2-2015q4,20151219/gcc-arm-none-eabi-5_2-2015q4/bin/../lib/gcc/arm-none-eabi/5.2.1/../../../../arm-none-eabi/lib/armv7e-m/fpu/libm.a(lib_a-w_fmod.o)
                              build/obj/encoder.o (fmod)
/opt/homebrew-cask/Caskroom/gcc-arm-embedded/5_2-2015q4,20151219/gcc-arm-none-eabi-5_2-2015q4/bin/../lib/gcc/arm-none-eabi/5.2.1/../../../../arm-none-eabi/lib/armv7e-m/fpu/libm.a(lib_a-wf_pow.o)
                              build/obj/ws2812b.o (powf)
/opt/homebrew-cask/Caskroom/gcc-arm-embedded/5_2-2015q4,20151219/gcc-arm-none-eabi-5_2-2015q4/bin/../lib/gcc/arm-none-eabi/5.2.1/../../../../arm-none-eabi/lib/armv7e-m/fpu/libm.a(lib_a-e_fmod.o)
                              /opt/homebrew-cask/Caskroom/gcc-arm-embedded/5_2-2015q4,20151219/gcc-arm-none-eabi-5_2-2015q4/bin/../lib/gcc/arm-none-eabi/5.2.1/../../../../arm-none-eabi/lib/armv7e-m/fpu/libm.a(lib_a-w_fmod.o) (__ieee754_fmod)
/opt/homebrew-cask/Caskroom/gcc-arm-embedded/5_2-2015q4,20151219/gcc-arm-none-eabi-5_2-2015q4/bin/../lib/gcc/arm-none-eabi/5.2.1/../../../../arm-none-eabi/lib/armv7e-m/fpu/libm.a(lib_a-e_rem_pio2.o)
                              /opt/homebrew-cask/Caskroom/gcc-arm-embedded/5_2-2015q4,20151219/gcc-arm-none-eabi-5_2-2015q4/bin/../lib/gcc/arm-none-eabi/5.2.1/../../../../arm-none-eabi/lib/armv7e-m/fpu/libm.a(lib_a-s_cos.o) (__ieee754_rem_pio2)
/opt/homebrew-cask/Caskroom/gcc-arm-embedded/5_2-2015q4,20151219/gcc-arm-none-eabi-5_2-2015q4/bin/../lib/gcc/arm-none-eabi/5.2.1/../../../../arm-none-eabi/lib/armv7e-m/fpu/libm.a(lib_a-ef_pow.o)
                              /opt/homebrew-cask/Caskroom/gcc-arm-embedded/5_2-2015q4,20151219/gcc-arm-none-eabi-5_2-2015q4/bin/../lib/gcc/arm-none-eabi/5.2.1/../../../../arm-none-eabi/lib/armv7e-m/fpu/libm.a(lib_a-wf_pow.o) (__ieee754_powf)
/opt/homebrew-cask/Caskroom/gcc-arm-embedded/5_2-2015q4,20151219/gcc-arm-none-eabi-5_2-2015q4/bin/../lib/gcc/arm-none-eabi/5.2.1/../../../../arm-none-eabi/lib/armv7e-m/fpu/libm.a(lib_a-ef_sqrt.o)
                              /opt/homebrew-cask/Caskroom/gcc-arm-embedded/5_2-2015q4,20151219/gcc-arm-none-eabi-5_2-2015q4/bin/../lib/gcc/arm-none-eabi/5.2.1/../../../../arm-none-eabi/lib/armv7e-m/fpu/libm.a(lib_a-ef_pow.o) (__ieee754_sqrtf)
/opt/homebrew-cask/Caskroom/gcc-arm-embedded/5_2-2015q4,20151219/gcc-arm-none-eabi-5_2-2015q4/bin/../lib/gcc/arm-none-eabi/5.2.1/../../../../arm-none-eabi/lib/armv7e-m/fpu/libm.a(lib_a-k_cos.o)
                              /opt/homebrew-cask/Caskroom/gcc-arm-embedded/5_2-2015q4,20151219/gcc-arm-none-eabi-5_2-2015q4/bin/../lib/gcc/arm-none-eabi/5.2.1/../../../../arm-none-eabi/lib/armv7e-m/fpu/libm.a(lib_a-s_cos.o) (__kernel_cos)
/opt/homebrew-cask/Caskroom/gcc-arm-embedded/5_2-2015q4,20151219/gcc-arm-none-eabi-5_2-2015q4/bin/../lib/gcc/arm-none-eabi/5.2.1/../../../../arm-none-eabi/lib/armv7e-m/fpu/libm.a(lib_a-k_rem_pio2.o)
                              /opt/homebrew-cask/Caskroom/gcc-arm-embedded/5_2-2015q4,20151219/gcc-arm-none-eabi-5_2-2015q4/bin/../lib/gcc/arm-none-eabi/5.2.1/../../../../arm-none-eabi/lib/armv7e-m/fpu/libm.a(lib_a-e_rem_pio2.o) (__kernel_rem_pio2)
/opt/homebrew-cask/Caskroom/gcc-arm-embedded/5_2-2015q4,20151219/gcc-arm-none-eabi-5_2-2015q4/bin/../lib/gcc/arm-none-eabi/5.2.1/../../../../arm-none-eabi/lib/armv7e-m/fpu/libm.a(lib_a-k_sin.o)
                              /opt/homebrew-cask/Caskroom/gcc-arm-embedded/5_2-2015q4,20151219/gcc-arm-none-eabi-5_2-2015q4/bin/../lib/gcc/arm-none-eabi/5.2.1/../../../../arm-none-eabi/lib/armv7e-m/fpu/libm.a(lib_a-s_cos.o) (__kernel_sin)
/opt/homebrew-cask/Caskroom/gcc-arm-embedded/5_2-2015q4,20151219/gcc-arm-none-eabi-5_2-2015q4/bin/../lib/gcc/arm-none-eabi/5.2.1/../../../../arm-none-eabi/lib/armv7e-m/fpu/libm.a(lib_a-s_fabs.o)
                              /opt/homebrew-cask/Caskroom/gcc-arm-embedded/5_2-2015q4,20151219/gcc-arm-none-eabi-5_2-2015q4/bin/../lib/gcc/arm-none-eabi/5.2.1/../../../../arm-none-eabi/lib/armv7e-m/fpu/libm.a(lib_a-e_rem_pio2.o) (fabs)
/opt/homebrew-cask/Caskroom/gcc-arm-embedded/5_2-2015q4,20151219/gcc-arm-none-eabi-5_2-2015q4/bin/../lib/gcc/arm-none-eabi/5.2.1/../../../../arm-none-eabi/lib/armv7e-m/fpu/libm.a(lib_a-s_floor.o)
                              /opt/homebrew-cask/Caskroom/gcc-arm-embedded/5_2-2015q4,20151219/gcc-arm-none-eabi-5_2-2015q4/bin/../lib/gcc/arm-none-eabi/5.2.1/../../../../arm-none-eabi/lib/armv7e-m/fpu/libm.a(lib_a-k_rem_pio2.o) (floor)
/opt/homebrew-cask/Caskroom/gcc-arm-embedded/5_2-2015q4,20151219/gcc-arm-none-eabi-5_2-2015q4/bin/../lib/gcc/arm-none-eabi/5.2.1/../../../../arm-none-eabi/lib/armv7e-m/fpu/libm.a(lib_a-s_fpclassify.o)
                              /opt/homebrew-cask/Caskroom/gcc-arm-embedded/5_2-2015q4,20151219/gcc-arm-none-eabi-5_2-2015q4/bin/../lib/gcc/arm-none-eabi/5.2.1/../../../../arm-none-eabi/lib/armv7e-m/fpu/libm.a(lib_a-w_fmod.o) (__fpclassifyd)
/opt/homebrew-cask/Caskroom/gcc-arm-embedded/5_2-2015q4,20151219/gcc-arm-none-eabi-5_2-2015q4/bin/../lib/gcc/arm-none-eabi/5.2.1/../../../../arm-none-eabi/lib/armv7e-m/fpu/libm.a(lib_a-s_lib_ver.o)
                              /opt/homebrew-cask/Caskroom/gcc-arm-embedded/5_2-2015q4,20151219/gcc-arm-none-eabi-5_2-2015q4/bin/../lib/gcc/arm-none-eabi/5.2.1/../../../../arm-none-eabi/lib/armv7e-m/fpu/libm.a(lib_a-w_fmod.o) (__fdlib_version)
/opt/homebrew-cask/Caskroom/gcc-arm-embedded/5_2-2015q4,20151219/gcc-arm-none-eabi-5_2-2015q4/bin/../lib/gcc/arm-none-eabi/5.2.1/../../../../arm-none-eabi/lib/armv7e-m/fpu/libm.a(lib_a-s_matherr.o)
                              /opt/homebrew-cask/Caskroom/gcc-arm-embedded/5_2-2015q4,20151219/gcc-arm-none-eabi-5_2-2015q4/bin/../lib/gcc/arm-none-eabi/5.2.1/../../../../arm-none-eabi/lib/armv7e-m/fpu/libm.a(lib_a-w_fmod.o) (matherr)
/opt/homebrew-cask/Caskroom/gcc-arm-embedded/5_2-2015q4,20151219/gcc-arm-none-eabi-5_2-2015q4/bin/../lib/gcc/arm-none-eabi/5.2.1/../../../../arm-none-eabi/lib/armv7e-m/fpu/libm.a(lib_a-s_rint.o)
                              /opt/homebrew-cask/Caskroom/gcc-arm-embedded/5_2-2015q4,20151219/gcc-arm-none-eabi-5_2-2015q4/bin/../lib/gcc/arm-none-eabi/5.2.1/../../../../arm-none-eabi/lib/armv7e-m/fpu/libm.a(lib_a-wf_pow.o) (rint)
/opt/homebrew-cask/Caskroom/gcc-arm-embedded/5_2-2015q4,20151219/gcc-arm-none-eabi-5_2-2015q4/bin/../lib/gcc/arm-none-eabi/5.2.1/../../../../arm-none-eabi/lib/armv7e-m/fpu/libm.a(lib_a-s_scalbn.o)
                              /opt/homebrew-cask/Caskroom/gcc-arm-embedded/5_2-2015q4,20151219/gcc-arm-none-eabi-5_2-2015q4/bin/../lib/gcc/arm-none-eabi/5.2.1/../../../../arm-none-eabi/lib/armv7e-m/fpu/libm.a(lib_a-k_rem_pio2.o) (scalbn)
/opt/homebrew-cask/Caskroom/gcc-arm-embedded/5_2-2015q4,20151219/gcc-arm-none-eabi-5_2-2015q4/bin/../lib/gcc/arm-none-eabi/5.2.1/../../../../arm-none-eabi/lib/armv7e-m/fpu/libm.a(lib_a-sf_fabs.o)
                              /opt/homebrew-cask/Caskroom/gcc-arm-embedded/5_2-2015q4,20151219/gcc-arm-none-eabi-5_2-2015q4/bin/../lib/gcc/arm-none-eabi/5.2.1/../../../../arm-none-eabi/lib/armv7e-m/fpu/libm.a(lib_a-ef_pow.o) (fabsf)
/opt/homebrew-cask/Caskroom/gcc-arm-embedded/5_2-2015q4,20151219/gcc-arm-none-eabi-5_2-2015q4/bin/../lib/gcc/arm-none-eabi/5.2.1/../../../../arm-none-eabi/lib/armv7e-m/fpu/libm.a(lib_a-sf_finite.o)
                              /opt/homebrew-cask/Caskroom/gcc-arm-embedded/5_2-2015q4,20151219/gcc-arm-none-eabi-5_2-2015q4/bin/../lib/gcc/arm-none-eabi/5.2.1/../../../../arm-none-eabi/lib/armv7e-m/fpu/libm.a(lib_a-wf_pow.o) (finitef)
/opt/homebrew-cask/Caskroom/gcc-arm-embedded/5_2-2015q4,20151219/gcc-arm-none-eabi-5_2-2015q4/bin/../lib/gcc/arm-none-eabi/5.2.1/../../../../arm-none-eabi/lib/armv7e-m/fpu/libm.a(lib_a-sf_fpclassify.o)
                              /opt/homebrew-cask/Caskroom/gcc-arm-embedded/5_2-2015q4,20151219/gcc-arm-none-eabi-5_2-2015q4/bin/../lib/gcc/arm-none-eabi/5.2.1/../../../../arm-none-eabi/lib/armv7e-m/fpu/libm.a(lib_a-wf_pow.o) (__fpclassifyf)
/opt/homebrew-cask/Caskroom/gcc-arm-embedded/5_2-2015q4,20151219/gcc-arm-none-eabi-5_2-2015q4/bin/../lib/gcc/arm-none-eabi/5.2.1/../../../../arm-none-eabi/lib/armv7e-m/fpu/libm.a(lib_a-sf_nan.o)
                              /opt/homebrew-cask/Caskroom/gcc-arm-embedded/5_2-2015q4,20151219/gcc-arm-none-eabi-5_2-2015q4/bin/../lib/gcc/arm-none-eabi/5.2.1/../../../../arm-none-eabi/lib/armv7e-m/fpu/libm.a(lib_a-ef_pow.o) (nanf)
/opt/homebrew-cask/Caskroom/gcc-arm-embedded/5_2-2015q4,20151219/gcc-arm-none-eabi-5_2-2015q4/bin/../lib/gcc/arm-none-eabi/5.2.1/../../../../arm-none-eabi/lib/armv7e-m/fpu/libm.a(lib_a-sf_scalbn.o)
                              /opt/homebrew-cask/Caskroom/gcc-arm-embedded/5_2-2015q4,20151219/gcc-arm-none-eabi-5_2-2015q4/bin/../lib/gcc/arm-none-eabi/5.2.1/../../../../arm-none-eabi/lib/armv7e-m/fpu/libm.a(lib_a-ef_pow.o) (scalbnf)
/opt/homebrew-cask/Caskroom/gcc-arm-embedded/5_2-2015q4,20151219/gcc-arm-none-eabi-5_2-2015q4/bin/../lib/gcc/arm-none-eabi/5.2.1/../../../../arm-none-eabi/lib/armv7e-m/fpu/libm.a(lib_a-s_copysign.o)
                              /opt/homebrew-cask/Caskroom/gcc-arm-embedded/5_2-2015q4,20151219/gcc-arm-none-eabi-5_2-2015q4/bin/../lib/gcc/arm-none-eabi/5.2.1/../../../../arm-none-eabi/lib/armv7e-m/fpu/libm.a(lib_a-s_scalbn.o) (copysign)
/opt/homebrew-cask/Caskroom/gcc-arm-embedded/5_2-2015q4,20151219/gcc-arm-none-eabi-5_2-2015q4/bin/../lib/gcc/arm-none-eabi/5.2.1/../../../../arm-none-eabi/lib/armv7e-m/fpu/libm.a(lib_a-sf_copysign.o)
                              /opt/homebrew-cask/Caskroom/gcc-arm-embedded/5_2-2015q4,20151219/gcc-arm-none-eabi-5_2-2015q4/bin/../lib/gcc/arm-none-eabi/5.2.1/../../../../arm-none-eabi/lib/armv7e-m/fpu/libm.a(lib_a-sf_scalbn.o) (copysignf)
/opt/homebrew-cask/Caskroom/gcc-arm-embedded/5_2-2015q4,20151219/gcc-arm-none-eabi-5_2-2015q4/bin/../lib/gcc/arm-none-eabi/5.2.1/armv7e-m/fpu/libgcc.a(_arm_addsubdf3.o)
                              build/obj/chprintf.o (__aeabi_dsub)
/opt/homebrew-cask/Caskroom/gcc-arm-embedded/5_2-2015q4,20151219/gcc-arm-none-eabi-5_2-2015q4/bin/../lib/gcc/arm-none-eabi/5.2.1/armv7e-m/fpu/libgcc.a(_arm_muldivdf3.o)
                              build/obj/chprintf.o (__aeabi_dmul)
/opt/homebrew-cask/Caskroom/gcc-arm-embedded/5_2-2015q4,20151219/gcc-arm-none-eabi-5_2-2015q4/bin/../lib/gcc/arm-none-eabi/5.2.1/armv7e-m/fpu/libgcc.a(_arm_cmpdf2.o)
                              /opt/homebrew-cask/Caskroom/gcc-arm-embedded/5_2-2015q4,20151219/gcc-arm-none-eabi-5_2-2015q4/bin/../lib/gcc/arm-none-eabi/5.2.1/../../../../arm-none-eabi/lib/armv7e-m/fpu/libm.a(lib_a-w_fmod.o) (__aeabi_dcmpeq)
/opt/homebrew-cask/Caskroom/gcc-arm-embedded/5_2-2015q4,20151219/gcc-arm-none-eabi-5_2-2015q4/bin/../lib/gcc/arm-none-eabi/5.2.1/armv7e-m/fpu/libgcc.a(_arm_fixdfsi.o)
                              build/obj/chprintf.o (__aeabi_d2iz)
/opt/homebrew-cask/Caskroom/gcc-arm-embedded/5_2-2015q4,20151219/gcc-arm-none-eabi-5_2-2015q4/bin/../lib/gcc/arm-none-eabi/5.2.1/armv7e-m/fpu/libgcc.a(_arm_truncdfsf2.o)
                              build/obj/chprintf.o (__aeabi_d2f)
/opt/homebrew-cask/Caskroom/gcc-arm-embedded/5_2-2015q4,20151219/gcc-arm-none-eabi-5_2-2015q4/bin/../lib/gcc/arm-none-eabi/5.2.1/../../../../arm-none-eabi/lib/armv7e-m/fpu/libg.a(lib_a-errno.o)
                              /opt/homebrew-cask/Caskroom/gcc-arm-embedded/5_2-2015q4,20151219/gcc-arm-none-eabi-5_2-2015q4/bin/../lib/gcc/arm-none-eabi/5.2.1/../../../../arm-none-eabi/lib/armv7e-m/fpu/libm.a(lib_a-w_fmod.o) (__errno)
/opt/homebrew-cask/Caskroom/gcc-arm-embedded/5_2-2015q4,20151219/gcc-arm-none-eabi-5_2-2015q4/bin/../lib/gcc/arm-none-eabi/5.2.1/../../../../arm-none-eabi/lib/armv7e-m/fpu/libg.a(lib_a-impure.o)
                              /opt/homebrew-cask/Caskroom/gcc-arm-embedded/5_2-2015q4,20151219/gcc-arm-none-eabi-5_2-2015q4/bin/../lib/gcc/arm-none-eabi/5.2.1/../../../../arm-none-eabi/lib/armv7e-m/fpu/libg.a(lib_a-errno.o) (_impure_ptr)
/opt/homebrew-cask/Caskroom/gcc-arm-embedded/5_2-2015q4,20151219/gcc-arm-none-eabi-5_2-2015q4/bin/../lib/gcc/arm-none-eabi/5.2.1/../../../../arm-none-eabi/lib/armv7e-m/fpu/libg.a(lib_a-memcpy.o)
                              build/obj/hal_buffers.o (memcpy)
/opt/homebrew-cask/Caskroom/gcc-arm-embedded/5_2-2015q4,20151219/gcc-arm-none-eabi-5_2-2015q4/bin/../lib/gcc/arm-none-eabi/5.2.1/../../../../arm-none-eabi/lib/armv7e-m/fpu/libg.a(lib_a-memset.o)
                              build/obj/syscalls.o (memset)
/opt/homebrew-cask/Caskroom/gcc-arm-embedded/5_2-2015q4,20151219/gcc-arm-none-eabi-5_2-2015q4/bin/../lib/gcc/arm-none-eabi/5.2.1/../../../../arm-none-eabi/lib/armv7e-m/fpu/libg.a(lib_a-strcmp.o)
                              build/obj/shell.o (strcmp)
/opt/homebrew-cask/Caskroom/gcc-arm-embedded/5_2-2015q4,20151219/gcc-arm-none-eabi-5_2-2015q4/bin/../lib/gcc/arm-none-eabi/5.2.1/../../../../arm-none-eabi/lib/armv7e-m/fpu/libg.a(lib_a-strpbrk.o)
                              build/obj/shell.o (strpbrk)
/opt/homebrew-cask/Caskroom/gcc-arm-embedded/5_2-2015q4,20151219/gcc-arm-none-eabi-5_2-2015q4/bin/../lib/gcc/arm-none-eabi/5.2.1/../../../../arm-none-eabi/lib/armv7e-m/fpu/libg.a(lib_a-strspn.o)
                              build/obj/shell.o (strspn)

Discarded input sections

 .data          0x0000000000000000        0x0 build/obj/crt0_v7m.o
 .bss           0x0000000000000000        0x0 build/obj/crt0_v7m.o
 .data          0x0000000000000000        0x0 build/obj/chcoreasm_v7m.o
 .bss           0x0000000000000000        0x0 build/obj/chcoreasm_v7m.o
 .text          0x0000000000000000        0x0 build/obj/crt1.o
 .data          0x0000000000000000        0x0 build/obj/crt1.o
 .bss           0x0000000000000000        0x0 build/obj/crt1.o
 .text.__early_init
                0x0000000000000000        0x4 build/obj/crt1.o
 .text          0x0000000000000000        0x0 build/obj/vectors.o
 .data          0x0000000000000000        0x0 build/obj/vectors.o
 .bss           0x0000000000000000        0x0 build/obj/vectors.o
 .text          0x0000000000000000        0x0 build/obj/chsys.o
 .data          0x0000000000000000        0x0 build/obj/chsys.o
 .bss           0x0000000000000000        0x0 build/obj/chsys.o
 .text.chSysIntegrityCheckI
                0x0000000000000000       0xc0 build/obj/chsys.o
 .text.chSysGetStatusAndLockX
                0x0000000000000000       0x14 build/obj/chsys.o
 .text.chSysRestoreStatusX
                0x0000000000000000       0x20 build/obj/chsys.o
 .text.chSysIsCounterWithinX
                0x0000000000000000       0x10 build/obj/chsys.o
 .text          0x0000000000000000        0x0 build/obj/chdebug.o
 .data          0x0000000000000000        0x0 build/obj/chdebug.o
 .bss           0x0000000000000000        0x0 build/obj/chdebug.o
 .debug_info    0x0000000000000000      0x722 build/obj/chdebug.o
 .debug_abbrev  0x0000000000000000      0x125 build/obj/chdebug.o
 .debug_aranges
                0x0000000000000000       0x18 build/obj/chdebug.o
 .debug_line    0x0000000000000000      0x238 build/obj/chdebug.o
 .debug_str     0x0000000000000000      0x5ac build/obj/chdebug.o
 .comment       0x0000000000000000       0x6f build/obj/chdebug.o
 .ARM.attributes
                0x0000000000000000       0x39 build/obj/chdebug.o
 .text          0x0000000000000000        0x0 build/obj/chvt.o
 .data          0x0000000000000000        0x0 build/obj/chvt.o
 .bss           0x0000000000000000        0x0 build/obj/chvt.o
 .text          0x0000000000000000        0x0 build/obj/chschd.o
 .data          0x0000000000000000        0x0 build/obj/chschd.o
 .bss           0x0000000000000000        0x0 build/obj/chschd.o
 .text          0x0000000000000000        0x0 build/obj/chthreads.o
 .data          0x0000000000000000        0x0 build/obj/chthreads.o
 .bss           0x0000000000000000        0x0 build/obj/chthreads.o
 .text.chThdStart
                0x0000000000000000       0x14 build/obj/chthreads.o
 .text.chThdSetPriority
                0x0000000000000000       0x30 build/obj/chthreads.o
 .text.chThdTerminate
                0x0000000000000000       0x18 build/obj/chthreads.o
 .text.chThdSleepUntil
                0x0000000000000000       0x24 build/obj/chthreads.o
 .text.chThdSleepUntilWindowed
                0x0000000000000000       0x2c build/obj/chthreads.o
 .text.chThdYield
                0x0000000000000000       0x28 build/obj/chthreads.o
 .text.chThdWait
                0x0000000000000000       0x38 build/obj/chthreads.o
 .text.chThdSuspendTimeoutS
                0x0000000000000000       0x1c build/obj/chthreads.o
 .text.chThdResumeS
                0x0000000000000000       0x10 build/obj/chthreads.o
 .text.chThdResume
                0x0000000000000000       0x28 build/obj/chthreads.o
 .text          0x0000000000000000        0x0 build/obj/chtm.o
 .data          0x0000000000000000        0x0 build/obj/chtm.o
 .bss           0x0000000000000000        0x0 build/obj/chtm.o
 .text.chTMObjectInit
                0x0000000000000000       0x18 build/obj/chtm.o
 .text.chTMChainMeasurementToX
                0x0000000000000000       0x3c build/obj/chtm.o
 .text          0x0000000000000000        0x0 build/obj/chdynamic.o
 .data          0x0000000000000000        0x0 build/obj/chdynamic.o
 .bss           0x0000000000000000        0x0 build/obj/chdynamic.o
 .text.chThdAddRef
                0x0000000000000000       0x14 build/obj/chdynamic.o
 .text.chThdRelease
                0x0000000000000000       0x5c build/obj/chdynamic.o
 .text.chThdCreateFromHeap
                0x0000000000000000       0x3c build/obj/chdynamic.o
 .text.chThdCreateFromMemoryPool
                0x0000000000000000       0x44 build/obj/chdynamic.o
 .debug_info    0x0000000000000000      0xe34 build/obj/chdynamic.o
 .debug_abbrev  0x0000000000000000      0x2cf build/obj/chdynamic.o
 .debug_loc     0x0000000000000000      0x29b build/obj/chdynamic.o
 .debug_aranges
                0x0000000000000000       0x38 build/obj/chdynamic.o
 .debug_ranges  0x0000000000000000       0x28 build/obj/chdynamic.o
 .debug_line    0x0000000000000000      0x424 build/obj/chdynamic.o
 .debug_str     0x0000000000000000      0x74a build/obj/chdynamic.o
 .comment       0x0000000000000000       0x6f build/obj/chdynamic.o
 .debug_frame   0x0000000000000000       0x90 build/obj/chdynamic.o
 .ARM.attributes
                0x0000000000000000       0x39 build/obj/chdynamic.o
 .text          0x0000000000000000        0x0 build/obj/chregistry.o
 .data          0x0000000000000000        0x0 build/obj/chregistry.o
 .bss           0x0000000000000000        0x0 build/obj/chregistry.o
 .text.chRegFirstThread
                0x0000000000000000       0x1c build/obj/chregistry.o
 .text.chRegNextThread
                0x0000000000000000       0x2c build/obj/chregistry.o
 .text          0x0000000000000000        0x0 build/obj/chsem.o
 .data          0x0000000000000000        0x0 build/obj/chsem.o
 .bss           0x0000000000000000        0x0 build/obj/chsem.o
 .text.chSemObjectInit
                0x0000000000000000        0x8 build/obj/chsem.o
 .text.chSemResetI
                0x0000000000000000       0x28 build/obj/chsem.o
 .text.chSemReset
                0x0000000000000000       0x18 build/obj/chsem.o
 .text.chSemWait
                0x0000000000000000       0x44 build/obj/chsem.o
 .text.chSemWaitS
                0x0000000000000000       0x34 build/obj/chsem.o
 .text.chSemWaitTimeout
                0x0000000000000000       0x4c build/obj/chsem.o
 .text.chSemWaitTimeoutS
                0x0000000000000000       0x40 build/obj/chsem.o
 .text.chSemSignal
                0x0000000000000000       0x34 build/obj/chsem.o
 .text.chSemSignalI
                0x0000000000000000       0x20 build/obj/chsem.o
 .text.chSemAddCounterI
                0x0000000000000000       0x30 build/obj/chsem.o
 .text.chSemSignalWait
                0x0000000000000000       0x6c build/obj/chsem.o
 .debug_info    0x0000000000000000     0x11dd build/obj/chsem.o
 .debug_abbrev  0x0000000000000000      0x3dd build/obj/chsem.o
 .debug_loc     0x0000000000000000      0x755 build/obj/chsem.o
 .debug_aranges
                0x0000000000000000       0x70 build/obj/chsem.o
 .debug_ranges  0x0000000000000000      0x1d0 build/obj/chsem.o
 .debug_line    0x0000000000000000      0x508 build/obj/chsem.o
 .debug_str     0x0000000000000000      0x726 build/obj/chsem.o
 .comment       0x0000000000000000       0x6f build/obj/chsem.o
 .debug_frame   0x0000000000000000      0x14c build/obj/chsem.o
 .ARM.attributes
                0x0000000000000000       0x39 build/obj/chsem.o
 .text          0x0000000000000000        0x0 build/obj/chmtx.o
 .data          0x0000000000000000        0x0 build/obj/chmtx.o
 .bss           0x0000000000000000        0x0 build/obj/chmtx.o
 .text.chMtxLockS
                0x0000000000000000       0xc8 build/obj/chmtx.o
 .text.chMtxLock
                0x0000000000000000       0x14 build/obj/chmtx.o
 .text.chMtxTryLock
                0x0000000000000000       0x30 build/obj/chmtx.o
 .text.chMtxTryLockS
                0x0000000000000000       0x20 build/obj/chmtx.o
 .text.chMtxUnlock
                0x0000000000000000       0x64 build/obj/chmtx.o
 .text.chMtxUnlockS
                0x0000000000000000       0x50 build/obj/chmtx.o
 .text.chMtxUnlockAll
                0x0000000000000000       0x54 build/obj/chmtx.o
 .text          0x0000000000000000        0x0 build/obj/chcond.o
 .data          0x0000000000000000        0x0 build/obj/chcond.o
 .bss           0x0000000000000000        0x0 build/obj/chcond.o
 .text.chCondObjectInit
                0x0000000000000000        0x8 build/obj/chcond.o
 .text.chCondSignal
                0x0000000000000000       0x28 build/obj/chcond.o
 .text.chCondSignalI
                0x0000000000000000       0x18 build/obj/chcond.o
 .text.chCondBroadcast
                0x0000000000000000       0x34 build/obj/chcond.o
 .text.chCondBroadcastI
                0x0000000000000000       0x24 build/obj/chcond.o
 .text.chCondWaitS
                0x0000000000000000       0x44 build/obj/chcond.o
 .text.chCondWait
                0x0000000000000000       0x14 build/obj/chcond.o
 .text.chCondWaitTimeoutS
                0x0000000000000000       0x50 build/obj/chcond.o
 .text.chCondWaitTimeout
                0x0000000000000000       0x14 build/obj/chcond.o
 .debug_info    0x0000000000000000     0x1076 build/obj/chcond.o
 .debug_abbrev  0x0000000000000000      0x3b5 build/obj/chcond.o
 .debug_loc     0x0000000000000000      0x404 build/obj/chcond.o
 .debug_aranges
                0x0000000000000000       0x60 build/obj/chcond.o
 .debug_ranges  0x0000000000000000       0xd8 build/obj/chcond.o
 .debug_line    0x0000000000000000      0x490 build/obj/chcond.o
 .debug_str     0x0000000000000000      0x77c build/obj/chcond.o
 .comment       0x0000000000000000       0x6f build/obj/chcond.o
 .debug_frame   0x0000000000000000      0x10c build/obj/chcond.o
 .ARM.attributes
                0x0000000000000000       0x39 build/obj/chcond.o
 .text          0x0000000000000000        0x0 build/obj/chevents.o
 .data          0x0000000000000000        0x0 build/obj/chevents.o
 .bss           0x0000000000000000        0x0 build/obj/chevents.o
 .text.chEvtRegisterMaskWithFlags
                0x0000000000000000       0x28 build/obj/chevents.o
 .text.chEvtUnregister
                0x0000000000000000       0x2c build/obj/chevents.o
 .text.chEvtGetAndClearEvents
                0x0000000000000000       0x20 build/obj/chevents.o
 .text.chEvtAddEvents
                0x0000000000000000       0x1c build/obj/chevents.o
 .text.chEvtGetAndClearFlags
                0x0000000000000000       0x14 build/obj/chevents.o
 .text.chEvtSignal
                0x0000000000000000       0x18 build/obj/chevents.o
 .text.chEvtBroadcastFlags
                0x0000000000000000       0x18 build/obj/chevents.o
 .text.chEvtGetAndClearFlagsI
                0x0000000000000000        0xc build/obj/chevents.o
 .text.chEvtDispatch
                0x0000000000000000       0x38 build/obj/chevents.o
 .text.chEvtWaitOne
                0x0000000000000000       0x3c build/obj/chevents.o
 .text.chEvtWaitAny
                0x0000000000000000       0x38 build/obj/chevents.o
 .text.chEvtWaitAll
                0x0000000000000000       0x34 build/obj/chevents.o
 .text.chEvtWaitOneTimeout
                0x0000000000000000       0x50 build/obj/chevents.o
 .text.chEvtWaitAnyTimeout
                0x0000000000000000       0x50 build/obj/chevents.o
 .text.chEvtWaitAllTimeout
                0x0000000000000000       0x48 build/obj/chevents.o
 .text          0x0000000000000000        0x0 build/obj/chmsg.o
 .data          0x0000000000000000        0x0 build/obj/chmsg.o
 .bss           0x0000000000000000        0x0 build/obj/chmsg.o
 .text.chMsgSend
                0x0000000000000000       0x40 build/obj/chmsg.o
 .text.chMsgWait
                0x0000000000000000       0x3c build/obj/chmsg.o
 .text.chMsgRelease
                0x0000000000000000       0x14 build/obj/chmsg.o
 .debug_info    0x0000000000000000      0xb91 build/obj/chmsg.o
 .debug_abbrev  0x0000000000000000      0x2e3 build/obj/chmsg.o
 .debug_loc     0x0000000000000000      0x1b5 build/obj/chmsg.o
 .debug_aranges
                0x0000000000000000       0x30 build/obj/chmsg.o
 .debug_ranges  0x0000000000000000       0x88 build/obj/chmsg.o
 .debug_line    0x0000000000000000      0x357 build/obj/chmsg.o
 .debug_str     0x0000000000000000      0x67e build/obj/chmsg.o
 .comment       0x0000000000000000       0x6f build/obj/chmsg.o
 .debug_frame   0x0000000000000000       0x68 build/obj/chmsg.o
 .ARM.attributes
                0x0000000000000000       0x39 build/obj/chmsg.o
 .text          0x0000000000000000        0x0 build/obj/chmboxes.o
 .data          0x0000000000000000        0x0 build/obj/chmboxes.o
 .bss           0x0000000000000000        0x0 build/obj/chmboxes.o
 .text.chMBObjectInit
                0x0000000000000000       0x28 build/obj/chmboxes.o
 .text.chMBResetI
                0x0000000000000000       0x24 build/obj/chmboxes.o
 .text.chMBReset
                0x0000000000000000       0x18 build/obj/chmboxes.o
 .text.chMBPost
                0x0000000000000000       0x44 build/obj/chmboxes.o
 .text.chMBPostS
                0x0000000000000000       0x38 build/obj/chmboxes.o
 .text.chMBPostI
                0x0000000000000000       0x34 build/obj/chmboxes.o
 .text.chMBPostAhead
                0x0000000000000000       0x4c build/obj/chmboxes.o
 .text.chMBPostAheadS
                0x0000000000000000       0x38 build/obj/chmboxes.o
 .text.chMBPostAheadI
                0x0000000000000000       0x30 build/obj/chmboxes.o
 .text.chMBFetch
                0x0000000000000000       0x44 build/obj/chmboxes.o
 .text.chMBFetchS
                0x0000000000000000       0x38 build/obj/chmboxes.o
 .text.chMBFetchI
                0x0000000000000000       0x38 build/obj/chmboxes.o
 .debug_info    0x0000000000000000     0x1375 build/obj/chmboxes.o
 .debug_abbrev  0x0000000000000000      0x3d1 build/obj/chmboxes.o
 .debug_loc     0x0000000000000000      0x902 build/obj/chmboxes.o
 .debug_aranges
                0x0000000000000000       0x78 build/obj/chmboxes.o
 .debug_ranges  0x0000000000000000      0x140 build/obj/chmboxes.o
 .debug_line    0x0000000000000000      0x4aa build/obj/chmboxes.o
 .debug_str     0x0000000000000000      0x74c build/obj/chmboxes.o
 .comment       0x0000000000000000       0x6f build/obj/chmboxes.o
 .debug_frame   0x0000000000000000      0x18c build/obj/chmboxes.o
 .ARM.attributes
                0x0000000000000000       0x39 build/obj/chmboxes.o
 .text          0x0000000000000000        0x0 build/obj/chqueues.o
 .data          0x0000000000000000        0x0 build/obj/chqueues.o
 .bss           0x0000000000000000        0x0 build/obj/chqueues.o
 .text.chIQObjectInit
                0x0000000000000000       0x20 build/obj/chqueues.o
 .text.chIQResetI
                0x0000000000000000       0x14 build/obj/chqueues.o
 .text.chIQPutI
                0x0000000000000000       0x38 build/obj/chqueues.o
 .text.chIQGetTimeout
                0x0000000000000000       0x50 build/obj/chqueues.o
 .text.chIQReadTimeout
                0x0000000000000000       0x78 build/obj/chqueues.o
 .text.chOQObjectInit
                0x0000000000000000       0x1c build/obj/chqueues.o
 .text.chOQResetI
                0x0000000000000000       0x1c build/obj/chqueues.o
 .text.chOQPutTimeout
                0x0000000000000000       0x54 build/obj/chqueues.o
 .text.chOQGetI
                0x0000000000000000       0x38 build/obj/chqueues.o
 .text.chOQWriteTimeout
                0x0000000000000000       0x88 build/obj/chqueues.o
 .debug_info    0x0000000000000000     0x123e build/obj/chqueues.o
 .debug_abbrev  0x0000000000000000      0x3b9 build/obj/chqueues.o
 .debug_loc     0x0000000000000000      0x6be build/obj/chqueues.o
 .debug_aranges
                0x0000000000000000       0x68 build/obj/chqueues.o
 .debug_ranges  0x0000000000000000      0x148 build/obj/chqueues.o
 .debug_line    0x0000000000000000      0x585 build/obj/chqueues.o
 .debug_str     0x0000000000000000      0x7ac build/obj/chqueues.o
 .comment       0x0000000000000000       0x6f build/obj/chqueues.o
 .debug_frame   0x0000000000000000      0x168 build/obj/chqueues.o
 .ARM.attributes
                0x0000000000000000       0x39 build/obj/chqueues.o
 .text          0x0000000000000000        0x0 build/obj/chmemcore.o
 .data          0x0000000000000000        0x0 build/obj/chmemcore.o
 .bss           0x0000000000000000        0x0 build/obj/chmemcore.o
 .text.chCoreAllocI
                0x0000000000000000       0x2c build/obj/chmemcore.o
 .text.chCoreGetStatusX
                0x0000000000000000       0x14 build/obj/chmemcore.o
 .text          0x0000000000000000        0x0 build/obj/chheap.o
 .data          0x0000000000000000        0x0 build/obj/chheap.o
 .bss           0x0000000000000000        0x0 build/obj/chheap.o
 .text.chHeapObjectInit
                0x0000000000000000       0x14 build/obj/chheap.o
 .text.chHeapAlloc
                0x0000000000000000       0x8c build/obj/chheap.o
 .text.chHeapFree
                0x0000000000000000       0x98 build/obj/chheap.o
 .text.chHeapStatus
                0x0000000000000000       0x44 build/obj/chheap.o
 .text          0x0000000000000000        0x0 build/obj/chmempools.o
 .data          0x0000000000000000        0x0 build/obj/chmempools.o
 .bss           0x0000000000000000        0x0 build/obj/chmempools.o
 .text.chPoolObjectInit
                0x0000000000000000        0xc build/obj/chmempools.o
 .text.chPoolLoadArray
                0x0000000000000000       0x24 build/obj/chmempools.o
 .text.chPoolAllocI
                0x0000000000000000       0x18 build/obj/chmempools.o
 .text.chPoolAlloc
                0x0000000000000000       0x2c build/obj/chmempools.o
 .text.chPoolFreeI
                0x0000000000000000        0x8 build/obj/chmempools.o
 .text.chPoolFree
                0x0000000000000000       0x14 build/obj/chmempools.o
 .debug_info    0x0000000000000000      0xcc0 build/obj/chmempools.o
 .debug_abbrev  0x0000000000000000      0x312 build/obj/chmempools.o
 .debug_loc     0x0000000000000000      0x267 build/obj/chmempools.o
 .debug_aranges
                0x0000000000000000       0x48 build/obj/chmempools.o
 .debug_ranges  0x0000000000000000       0xe0 build/obj/chmempools.o
 .debug_line    0x0000000000000000      0x40b build/obj/chmempools.o
 .debug_str     0x0000000000000000      0x6bf build/obj/chmempools.o
 .comment       0x0000000000000000       0x6f build/obj/chmempools.o
 .debug_frame   0x0000000000000000       0x8c build/obj/chmempools.o
 .ARM.attributes
                0x0000000000000000       0x39 build/obj/chmempools.o
 .text          0x0000000000000000        0x0 build/obj/chcore.o
 .data          0x0000000000000000        0x0 build/obj/chcore.o
 .bss           0x0000000000000000        0x0 build/obj/chcore.o
 .debug_info    0x0000000000000000      0x722 build/obj/chcore.o
 .debug_abbrev  0x0000000000000000      0x125 build/obj/chcore.o
 .debug_aranges
                0x0000000000000000       0x18 build/obj/chcore.o
 .debug_line    0x0000000000000000      0x238 build/obj/chcore.o
 .debug_str     0x0000000000000000      0x5b4 build/obj/chcore.o
 .comment       0x0000000000000000       0x6f build/obj/chcore.o
 .ARM.attributes
                0x0000000000000000       0x39 build/obj/chcore.o
 .text          0x0000000000000000        0x0 build/obj/chcore_v7m.o
 .data          0x0000000000000000        0x0 build/obj/chcore_v7m.o
 .bss           0x0000000000000000        0x0 build/obj/chcore_v7m.o
 .text          0x0000000000000000        0x0 build/obj/osal.o
 .data          0x0000000000000000        0x0 build/obj/osal.o
 .bss           0x0000000000000000        0x0 build/obj/osal.o
 .debug_info    0x0000000000000000      0x722 build/obj/osal.o
 .debug_abbrev  0x0000000000000000      0x125 build/obj/osal.o
 .debug_aranges
                0x0000000000000000       0x18 build/obj/osal.o
 .debug_line    0x0000000000000000      0x238 build/obj/osal.o
 .debug_str     0x0000000000000000      0x5ae build/obj/osal.o
 .comment       0x0000000000000000       0x6f build/obj/osal.o
 .ARM.attributes
                0x0000000000000000       0x39 build/obj/osal.o
 .text          0x0000000000000000        0x0 build/obj/hal.o
 .data          0x0000000000000000        0x0 build/obj/hal.o
 .bss           0x0000000000000000        0x0 build/obj/hal.o
 .text          0x0000000000000000        0x0 build/obj/st.o
 .data          0x0000000000000000        0x0 build/obj/st.o
 .bss           0x0000000000000000        0x0 build/obj/st.o
 .text.stStartAlarm
                0x0000000000000000       0x10 build/obj/st.o
 .text.stStopAlarm
                0x0000000000000000        0xc build/obj/st.o
 .text.stSetAlarm
                0x0000000000000000        0x8 build/obj/st.o
 .text.stGetAlarm
                0x0000000000000000        0x8 build/obj/st.o
 .text          0x0000000000000000        0x0 build/obj/hal_buffers.o
 .data          0x0000000000000000        0x0 build/obj/hal_buffers.o
 .bss           0x0000000000000000        0x0 build/obj/hal_buffers.o
 .text.ibqGetFullBufferTimeout
                0x0000000000000000       0x14 build/obj/hal_buffers.o
 .text.ibqReleaseEmptyBuffer
                0x0000000000000000       0x34 build/obj/hal_buffers.o
 .text.ibqReleaseEmptyBufferS
                0x0000000000000000       0x30 build/obj/hal_buffers.o
 .text.obqGetEmptyBufferTimeout
                0x0000000000000000       0x14 build/obj/hal_buffers.o
 .text.obqPostFullBuffer
                0x0000000000000000       0x34 build/obj/hal_buffers.o
 .text.obqPostFullBufferS
                0x0000000000000000       0x2c build/obj/hal_buffers.o
 .text.obqFlush
                0x0000000000000000       0x48 build/obj/hal_buffers.o
 .text          0x0000000000000000        0x0 build/obj/hal_queues.o
 .data          0x0000000000000000        0x0 build/obj/hal_queues.o
 .bss           0x0000000000000000        0x0 build/obj/hal_queues.o
 .debug_info    0x0000000000000000      0x729 build/obj/hal_queues.o
 .debug_abbrev  0x0000000000000000      0x125 build/obj/hal_queues.o
 .debug_aranges
                0x0000000000000000       0x18 build/obj/hal_queues.o
 .debug_line    0x0000000000000000      0x238 build/obj/hal_queues.o
 .debug_str     0x0000000000000000      0x5b6 build/obj/hal_queues.o
 .comment       0x0000000000000000       0x6f build/obj/hal_queues.o
 .ARM.attributes
                0x0000000000000000       0x39 build/obj/hal_queues.o
 .text          0x0000000000000000        0x0 build/obj/hal_mmcsd.o
 .data          0x0000000000000000        0x0 build/obj/hal_mmcsd.o
 .bss           0x0000000000000000        0x0 build/obj/hal_mmcsd.o
 .debug_info    0x0000000000000000      0x729 build/obj/hal_mmcsd.o
 .debug_abbrev  0x0000000000000000      0x125 build/obj/hal_mmcsd.o
 .debug_aranges
                0x0000000000000000       0x18 build/obj/hal_mmcsd.o
 .debug_line    0x0000000000000000      0x238 build/obj/hal_mmcsd.o
 .debug_str     0x0000000000000000      0x5b5 build/obj/hal_mmcsd.o
 .comment       0x0000000000000000       0x6f build/obj/hal_mmcsd.o
 .ARM.attributes
                0x0000000000000000       0x39 build/obj/hal_mmcsd.o
 .text          0x0000000000000000        0x0 build/obj/ext.o
 .data          0x0000000000000000        0x0 build/obj/ext.o
 .bss           0x0000000000000000        0x0 build/obj/ext.o
 .text.extStart
                0x0000000000000000       0x1c build/obj/ext.o
 .text.extStop  0x0000000000000000       0x1c build/obj/ext.o
 .text.extChannelEnable
                0x0000000000000000       0x14 build/obj/ext.o
 .text.extChannelDisable
                0x0000000000000000       0x14 build/obj/ext.o
 .text.extSetChannelModeI
                0x0000000000000000       0x20 build/obj/ext.o
 .text          0x0000000000000000        0x0 build/obj/i2c.o
 .data          0x0000000000000000        0x0 build/obj/i2c.o
 .bss           0x0000000000000000        0x0 build/obj/i2c.o
 .text.i2cStart
                0x0000000000000000       0x1c build/obj/i2c.o
 .text.i2cStop  0x0000000000000000       0x1c build/obj/i2c.o
 .text.i2cGetErrors
                0x0000000000000000        0x4 build/obj/i2c.o
 .text.i2cMasterTransmitTimeout
                0x0000000000000000       0x40 build/obj/i2c.o
 .text.i2cMasterReceiveTimeout
                0x0000000000000000       0x30 build/obj/i2c.o
 .text.i2cAcquireBus
                0x0000000000000000        0x8 build/obj/i2c.o
 .text.i2cReleaseBus
                0x0000000000000000        0x8 build/obj/i2c.o
 .text          0x0000000000000000        0x0 build/obj/pal.o
 .data          0x0000000000000000        0x0 build/obj/pal.o
 .bss           0x0000000000000000        0x0 build/obj/pal.o
 .text.palReadBus
                0x0000000000000000       0x10 build/obj/pal.o
 .text.palWriteBus
                0x0000000000000000       0x20 build/obj/pal.o
 .text.palSetBusMode
                0x0000000000000000        0xc build/obj/pal.o
 .debug_info    0x0000000000000000      0x9a0 build/obj/pal.o
 .debug_abbrev  0x0000000000000000      0x1cd build/obj/pal.o
 .debug_loc     0x0000000000000000       0xb0 build/obj/pal.o
 .debug_aranges
                0x0000000000000000       0x30 build/obj/pal.o
 .debug_ranges  0x0000000000000000       0x20 build/obj/pal.o
 .debug_line    0x0000000000000000      0x371 build/obj/pal.o
 .debug_str     0x0000000000000000      0x693 build/obj/pal.o
 .comment       0x0000000000000000       0x6f build/obj/pal.o
 .debug_frame   0x0000000000000000       0x4c build/obj/pal.o
 .ARM.attributes
                0x0000000000000000       0x39 build/obj/pal.o
 .text          0x0000000000000000        0x0 build/obj/serial_usb.o
 .data          0x0000000000000000        0x0 build/obj/serial_usb.o
 .bss           0x0000000000000000        0x0 build/obj/serial_usb.o
 .text.sduStop  0x0000000000000000       0x48 build/obj/serial_usb.o
 .text          0x0000000000000000        0x0 build/obj/spi.o
 .data          0x0000000000000000        0x0 build/obj/spi.o
 .bss           0x0000000000000000        0x0 build/obj/spi.o
 .text.spiStop  0x0000000000000000       0x1c build/obj/spi.o
 .text.spiSelect
                0x0000000000000000       0x14 build/obj/spi.o
 .text.spiUnselect
                0x0000000000000000       0x14 build/obj/spi.o
 .text.spiStartIgnore
                0x0000000000000000       0x18 build/obj/spi.o
 .text.spiStartExchange
                0x0000000000000000       0x18 build/obj/spi.o
 .text.spiStartSend
                0x0000000000000000       0x18 build/obj/spi.o
 .text.spiStartReceive
                0x0000000000000000       0x18 build/obj/spi.o
 .text.spiIgnore
                0x0000000000000000       0x24 build/obj/spi.o
 .text.spiExchange
                0x0000000000000000       0x24 build/obj/spi.o
 .text.spiSend  0x0000000000000000       0x24 build/obj/spi.o
 .text.spiReceive
                0x0000000000000000       0x24 build/obj/spi.o
 .text.spiAcquireBus
                0x0000000000000000        0x8 build/obj/spi.o
 .text.spiReleaseBus
                0x0000000000000000        0x8 build/obj/spi.o
 .text          0x0000000000000000        0x0 build/obj/usb.o
 .data          0x0000000000000000        0x0 build/obj/usb.o
 .bss           0x0000000000000000        0x0 build/obj/usb.o
 .text.usbStop  0x0000000000000000       0x28 build/obj/usb.o
 .text.usbDisableEndpointsI
                0x0000000000000000       0x24 build/obj/usb.o
 .text.usbStallReceiveI
                0x0000000000000000       0x1c build/obj/usb.o
 .text.usbStallTransmitI
                0x0000000000000000       0x1c build/obj/usb.o
 .text          0x0000000000000000        0x0 build/obj/nvic.o
 .data          0x0000000000000000        0x0 build/obj/nvic.o
 .bss           0x0000000000000000        0x0 build/obj/nvic.o
 .text.nvicDisableVector
                0x0000000000000000       0x28 build/obj/nvic.o
 .text.nvicClearPending
                0x0000000000000000       0x1c build/obj/nvic.o
 .text          0x0000000000000000        0x0 build/obj/hal_lld.o
 .data          0x0000000000000000        0x0 build/obj/hal_lld.o
 .bss           0x0000000000000000        0x0 build/obj/hal_lld.o
 .data.SystemCoreClock
                0x0000000000000000        0x4 build/obj/hal_lld.o
 .text          0x0000000000000000        0x0 build/obj/stm32_dma.o
 .data          0x0000000000000000        0x0 build/obj/stm32_dma.o
 .bss           0x0000000000000000        0x0 build/obj/stm32_dma.o
 .text.dmaStreamRelease
                0x0000000000000000       0x44 build/obj/stm32_dma.o
 .text          0x0000000000000000        0x0 build/obj/st_lld.o
 .data          0x0000000000000000        0x0 build/obj/st_lld.o
 .bss           0x0000000000000000        0x0 build/obj/st_lld.o
 .text          0x0000000000000000        0x0 build/obj/ext_lld.o
 .data          0x0000000000000000        0x0 build/obj/ext_lld.o
 .bss           0x0000000000000000        0x0 build/obj/ext_lld.o
 .text.ext_lld_stop
                0x0000000000000000       0x24 build/obj/ext_lld.o
 .text.ext_lld_channel_enable
                0x0000000000000000       0xa0 build/obj/ext_lld.o
 .text.ext_lld_start
                0x0000000000000000       0x60 build/obj/ext_lld.o
 .text.ext_lld_channel_disable
                0x0000000000000000       0x30 build/obj/ext_lld.o
 .text          0x0000000000000000        0x0 build/obj/ext_lld_isr.o
 .data          0x0000000000000000        0x0 build/obj/ext_lld_isr.o
 .bss           0x0000000000000000        0x0 build/obj/ext_lld_isr.o
 .text.ext_lld_exti_irq_enable
                0x0000000000000000       0x70 build/obj/ext_lld_isr.o
 .text.ext_lld_exti_irq_disable
                0x0000000000000000       0x54 build/obj/ext_lld_isr.o
 .text          0x0000000000000000        0x0 build/obj/pal_lld.o
 .data          0x0000000000000000        0x0 build/obj/pal_lld.o
 .bss           0x0000000000000000        0x0 build/obj/pal_lld.o
 .text          0x0000000000000000        0x0 build/obj/i2c_lld.o
 .data          0x0000000000000000        0x0 build/obj/i2c_lld.o
 .bss           0x0000000000000000        0x0 build/obj/i2c_lld.o
 .text.i2c_lld_serve_tx_end_irq
                0x0000000000000000       0x40 build/obj/i2c_lld.o
 .text.i2c_lld_serve_rx_end_irq
                0x0000000000000000       0x64 build/obj/i2c_lld.o
 .text.i2c_lld_start
                0x0000000000000000      0x16c build/obj/i2c_lld.o
 .text.i2c_lld_stop
                0x0000000000000000       0x88 build/obj/i2c_lld.o
 .text.i2c_lld_master_receive_timeout
                0x0000000000000000       0x74 build/obj/i2c_lld.o
 .text.i2c_lld_master_transmit_timeout
                0x0000000000000000       0x8c build/obj/i2c_lld.o
 .rodata.str1.4
                0x0000000000000000        0xc build/obj/i2c_lld.o
 .text          0x0000000000000000        0x0 build/obj/usb_lld.o
 .data          0x0000000000000000        0x0 build/obj/usb_lld.o
 .bss           0x0000000000000000        0x0 build/obj/usb_lld.o
 .text.usb_lld_stop
                0x0000000000000000       0x70 build/obj/usb_lld.o
 .text.usb_lld_disable_endpoints
                0x0000000000000000       0x44 build/obj/usb_lld.o
 .text          0x0000000000000000        0x0 build/obj/spi_lld.o
 .data          0x0000000000000000        0x0 build/obj/spi_lld.o
 .bss           0x0000000000000000        0x0 build/obj/spi_lld.o
 .text.spi_lld_stop
                0x0000000000000000       0x3c build/obj/spi_lld.o
 .text.spi_lld_ignore
                0x0000000000000000       0x3c build/obj/spi_lld.o
 .text.spi_lld_receive
                0x0000000000000000       0x38 build/obj/spi_lld.o
 .text.spi_lld_polled_exchange
                0x0000000000000000       0x10 build/obj/spi_lld.o
 .text          0x0000000000000000        0x0 build/obj/board.o
 .data          0x0000000000000000        0x0 build/obj/board.o
 .bss           0x0000000000000000        0x0 build/obj/board.o
 .text          0x0000000000000000        0x0 build/obj/chprintf.o
 .data          0x0000000000000000        0x0 build/obj/chprintf.o
 .bss           0x0000000000000000        0x0 build/obj/chprintf.o
 .text.chsnprintf
                0x0000000000000000       0x60 build/obj/chprintf.o
 .text          0x0000000000000000        0x0 build/obj/syscalls.o
 .data          0x0000000000000000        0x0 build/obj/syscalls.o
 .bss           0x0000000000000000        0x0 build/obj/syscalls.o
 .text._read_r  0x0000000000000000        0xc build/obj/syscalls.o
 .text._lseek_r
                0x0000000000000000        0x4 build/obj/syscalls.o
 .text._write_r
                0x0000000000000000        0x4 build/obj/syscalls.o
 .text._close_r
                0x0000000000000000        0x4 build/obj/syscalls.o
 .text._sbrk_r  0x0000000000000000       0x18 build/obj/syscalls.o
 .text._fstat_r
                0x0000000000000000       0x18 build/obj/syscalls.o
 .text._isatty_r
                0x0000000000000000        0x4 build/obj/syscalls.o
 .debug_info    0x0000000000000000     0x12ab build/obj/syscalls.o
 .debug_abbrev  0x0000000000000000      0x243 build/obj/syscalls.o
 .debug_loc     0x0000000000000000      0x183 build/obj/syscalls.o
 .debug_aranges
                0x0000000000000000       0x50 build/obj/syscalls.o
 .debug_ranges  0x0000000000000000       0x40 build/obj/syscalls.o
 .debug_line    0x0000000000000000      0x3cb build/obj/syscalls.o
 .debug_str     0x0000000000000000      0xabd build/obj/syscalls.o
 .comment       0x0000000000000000       0x6f build/obj/syscalls.o
 .debug_frame   0x0000000000000000       0x98 build/obj/syscalls.o
 .ARM.attributes
                0x0000000000000000       0x39 build/obj/syscalls.o
 .text          0x0000000000000000        0x0 build/obj/shell.o
 .data          0x0000000000000000        0x0 build/obj/shell.o
 .bss           0x0000000000000000        0x0 build/obj/shell.o
 .text.cmd_systime
                0x0000000000000000       0x34 build/obj/shell.o
 .text.cmd_info
                0x0000000000000000       0xbc build/obj/shell.o
 .text._strtok.constprop.2
                0x0000000000000000       0x40 build/obj/shell.o
 .text.shellInit
                0x0000000000000000        0xc build/obj/shell.o
 .text.shellExit
                0x0000000000000000       0x20 build/obj/shell.o
 .text.shellCreate
                0x0000000000000000       0x18 build/obj/shell.o
 .text.shellCreateStatic
                0x0000000000000000       0x1c build/obj/shell.o
 .text.shellGetLine
                0x0000000000000000       0xa0 build/obj/shell.o
 .text.shell_thread
                0x0000000000000000      0x1b0 build/obj/shell.o
 .data.local_commands
                0x0000000000000000       0x18 build/obj/shell.o
 .rodata.str1.4
                0x0000000000000000      0x225 build/obj/shell.o
 .bss.shell_terminated
                0x0000000000000000        0x4 build/obj/shell.o
 .debug_info    0x0000000000000000     0x1713 build/obj/shell.o
 .debug_abbrev  0x0000000000000000      0x3e5 build/obj/shell.o
 .debug_loc     0x0000000000000000      0x7b4 build/obj/shell.o
 .debug_aranges
                0x0000000000000000       0x60 build/obj/shell.o
 .debug_ranges  0x0000000000000000      0x130 build/obj/shell.o
 .debug_line    0x0000000000000000      0x5d7 build/obj/shell.o
 .debug_str     0x0000000000000000      0x8b0 build/obj/shell.o
 .comment       0x0000000000000000       0x6f build/obj/shell.o
 .debug_frame   0x0000000000000000      0x134 build/obj/shell.o
 .ARM.attributes
                0x0000000000000000       0x39 build/obj/shell.o
 .text          0x0000000000000000        0x0 build/obj/main.o
 .data          0x0000000000000000        0x0 build/obj/main.o
 .bss           0x0000000000000000        0x0 build/obj/main.o
 .text          0x0000000000000000        0x0 build/obj/as5x45.o
 .data          0x0000000000000000        0x0 build/obj/as5x45.o
 .bss           0x0000000000000000        0x0 build/obj/as5x45.o
 .text.as5x45_init
                0x0000000000000000        0x4 build/obj/as5x45.o
 .text.as5x45_get_angle
                0x0000000000000000        0x4 build/obj/as5x45.o
 .text.as5x45_get_raw_position
                0x0000000000000000        0x4 build/obj/as5x45.o
 .debug_info    0x0000000000000000      0x7d1 build/obj/as5x45.o
 .debug_abbrev  0x0000000000000000      0x184 build/obj/as5x45.o
 .debug_aranges
                0x0000000000000000       0x30 build/obj/as5x45.o
 .debug_ranges  0x0000000000000000       0x20 build/obj/as5x45.o
 .debug_line    0x0000000000000000      0x280 build/obj/as5x45.o
 .debug_str     0x0000000000000000      0x61b build/obj/as5x45.o
 .comment       0x0000000000000000       0x6f build/obj/as5x45.o
 .debug_frame   0x0000000000000000       0x40 build/obj/as5x45.o
 .ARM.attributes
                0x0000000000000000       0x39 build/obj/as5x45.o
 .text          0x0000000000000000        0x0 build/obj/as5x47.o
 .data          0x0000000000000000        0x0 build/obj/as5x47.o
 .bss           0x0000000000000000        0x0 build/obj/as5x47.o
 .text.TIM4_IRQHandler
                0x0000000000000000       0x30 build/obj/as5x47.o
 .text.as5x47_get_raw_position
                0x0000000000000000        0xc build/obj/as5x47.o
 .text          0x0000000000000000        0x0 build/obj/comm_can.o
 .data          0x0000000000000000        0x0 build/obj/comm_can.o
 .bss           0x0000000000000000        0x0 build/obj/comm_can.o
 .text          0x0000000000000000        0x0 build/obj/comm_i2c.o
 .data          0x0000000000000000        0x0 build/obj/comm_i2c.o
 .bss           0x0000000000000000        0x0 build/obj/comm_i2c.o
 .text.comm_i2c_init
                0x0000000000000000        0x4 build/obj/comm_i2c.o
 .text.comm_i2c_update
                0x0000000000000000        0x4 build/obj/comm_i2c.o
 .debug_info    0x0000000000000000      0x748 build/obj/comm_i2c.o
 .debug_abbrev  0x0000000000000000      0x14a build/obj/comm_i2c.o
 .debug_aranges
                0x0000000000000000       0x20 build/obj/comm_i2c.o
 .debug_ranges  0x0000000000000000       0x10 build/obj/comm_i2c.o
 .debug_line    0x0000000000000000      0x255 build/obj/comm_i2c.o
 .debug_str     0x0000000000000000      0x5aa build/obj/comm_i2c.o
 .comment       0x0000000000000000       0x6f build/obj/comm_i2c.o
 .debug_frame   0x0000000000000000       0x30 build/obj/comm_i2c.o
 .ARM.attributes
                0x0000000000000000       0x39 build/obj/comm_i2c.o
 .text          0x0000000000000000        0x0 build/obj/comm_uart.o
 .data          0x0000000000000000        0x0 build/obj/comm_uart.o
 .bss           0x0000000000000000        0x0 build/obj/comm_uart.o
 .text.comm_uart_init
                0x0000000000000000        0x4 build/obj/comm_uart.o
 .text.comm_uart_update
                0x0000000000000000        0x4 build/obj/comm_uart.o
 .debug_info    0x0000000000000000      0x748 build/obj/comm_uart.o
 .debug_abbrev  0x0000000000000000      0x14a build/obj/comm_uart.o
 .debug_aranges
                0x0000000000000000       0x20 build/obj/comm_uart.o
 .debug_ranges  0x0000000000000000       0x10 build/obj/comm_uart.o
 .debug_line    0x0000000000000000      0x256 build/obj/comm_uart.o
 .debug_str     0x0000000000000000      0x5ac build/obj/comm_uart.o
 .comment       0x0000000000000000       0x6f build/obj/comm_uart.o
 .debug_frame   0x0000000000000000       0x30 build/obj/comm_uart.o
 .ARM.attributes
                0x0000000000000000       0x39 build/obj/comm_uart.o
 .text          0x0000000000000000        0x0 build/obj/comm_usb.o
 .data          0x0000000000000000        0x0 build/obj/comm_usb.o
 .bss           0x0000000000000000        0x0 build/obj/comm_usb.o
 .text          0x0000000000000000        0x0 build/obj/comm.o
 .data          0x0000000000000000        0x0 build/obj/comm.o
 .bss           0x0000000000000000        0x0 build/obj/comm.o
 .text          0x0000000000000000        0x0 build/obj/controller.o
 .data          0x0000000000000000        0x0 build/obj/controller.o
 .bss           0x0000000000000000        0x0 build/obj/controller.o
 .text          0x0000000000000000        0x0 build/obj/encoder.o
 .data          0x0000000000000000        0x0 build/obj/encoder.o
 .bss           0x0000000000000000        0x0 build/obj/encoder.o
 .text          0x0000000000000000        0x0 build/obj/transforms.o
 .data          0x0000000000000000        0x0 build/obj/transforms.o
 .bss           0x0000000000000000        0x0 build/obj/transforms.o
 .text.transforms_park
                0x0000000000000000      0x100 build/obj/transforms.o
 .text.transforms_clarke
                0x0000000000000000       0x28 build/obj/transforms.o
 .text          0x0000000000000000        0x0 build/obj/ws2812b.o
 .data          0x0000000000000000        0x0 build/obj/ws2812b.o
 .bss           0x0000000000000000        0x0 build/obj/ws2812b.o
 .text.ws2812b_set_led_color
                0x0000000000000000       0x5c build/obj/ws2812b.o
 .text.ws2812b_get_led_color
                0x0000000000000000       0x14 build/obj/ws2812b.o
 .text.ws2812b_all_off
                0x0000000000000000       0x28 build/obj/ws2812b.o
 .text          0x0000000000000000        0x0 build/obj/zsm.o
 .data          0x0000000000000000        0x0 build/obj/zsm.o
 .bss           0x0000000000000000        0x0 build/obj/zsm.o
 .text.zsm_midpoint_clamp
                0x0000000000000000       0x90 build/obj/zsm.o
 .text.zsm_top_clamp
                0x0000000000000000       0x74 build/obj/zsm.o
 .text.zsm_bottom_clamp
                0x0000000000000000       0x5c build/obj/zsm.o
 .text.zsm_top_bottom_clamp
                0x0000000000000000       0xd0 build/obj/zsm.o
 .text          0x0000000000000000        0x0 build/obj/misc.o
 .data          0x0000000000000000        0x0 build/obj/misc.o
 .bss           0x0000000000000000        0x0 build/obj/misc.o
 .text.NVIC_PriorityGroupConfig
                0x0000000000000000       0x14 build/obj/misc.o
 .text.NVIC_Init
                0x0000000000000000       0x70 build/obj/misc.o
 .text.NVIC_SetVectorTable
                0x0000000000000000       0x14 build/obj/misc.o
 .text.NVIC_SystemLPConfig
                0x0000000000000000       0x18 build/obj/misc.o
 .text.SysTick_CLKSourceConfig
                0x0000000000000000       0x18 build/obj/misc.o
 .debug_info    0x0000000000000000      0x549 build/obj/misc.o
 .debug_abbrev  0x0000000000000000      0x158 build/obj/misc.o
 .debug_loc     0x0000000000000000      0x186 build/obj/misc.o
 .debug_aranges
                0x0000000000000000       0x40 build/obj/misc.o
 .debug_ranges  0x0000000000000000       0x30 build/obj/misc.o
 .debug_line    0x0000000000000000      0x283 build/obj/misc.o
 .debug_str     0x0000000000000000      0x499 build/obj/misc.o
 .comment       0x0000000000000000       0x6f build/obj/misc.o
 .debug_frame   0x0000000000000000       0x7c build/obj/misc.o
 .ARM.attributes
                0x0000000000000000       0x39 build/obj/misc.o
 .text          0x0000000000000000        0x0 build/obj/stm32f4xx_adc.o
 .data          0x0000000000000000        0x0 build/obj/stm32f4xx_adc.o
 .bss           0x0000000000000000        0x0 build/obj/stm32f4xx_adc.o
 .text.ADC_DeInit
                0x0000000000000000       0x1c build/obj/stm32f4xx_adc.o
 .text.ADC_StructInit
                0x0000000000000000       0x14 build/obj/stm32f4xx_adc.o
 .text.ADC_CommonStructInit
                0x0000000000000000        0xc build/obj/stm32f4xx_adc.o
 .text.ADC_AnalogWatchdogCmd
                0x0000000000000000       0x10 build/obj/stm32f4xx_adc.o
 .text.ADC_AnalogWatchdogThresholdsConfig
                0x0000000000000000        0x8 build/obj/stm32f4xx_adc.o
 .text.ADC_AnalogWatchdogSingleChannelConfig
                0x0000000000000000        0xc build/obj/stm32f4xx_adc.o
 .text.ADC_TempSensorVrefintCmd
                0x0000000000000000       0x1c build/obj/stm32f4xx_adc.o
 .text.ADC_VBATCmd
                0x0000000000000000       0x1c build/obj/stm32f4xx_adc.o
 .text.ADC_RegularChannelConfig
                0x0000000000000000       0x94 build/obj/stm32f4xx_adc.o
 .text.ADC_SoftwareStartConv
                0x0000000000000000        0xc build/obj/stm32f4xx_adc.o
 .text.ADC_GetSoftwareStartConvStatus
                0x0000000000000000        0x8 build/obj/stm32f4xx_adc.o
 .text.ADC_EOCOnEachRegularChannelCmd
                0x0000000000000000       0x14 build/obj/stm32f4xx_adc.o
 .text.ADC_ContinuousModeCmd
                0x0000000000000000       0x14 build/obj/stm32f4xx_adc.o
 .text.ADC_DiscModeChannelCountConfig
                0x0000000000000000       0x10 build/obj/stm32f4xx_adc.o
 .text.ADC_DiscModeCmd
                0x0000000000000000       0x14 build/obj/stm32f4xx_adc.o
 .text.ADC_GetConversionValue
                0x0000000000000000        0x8 build/obj/stm32f4xx_adc.o
 .text.ADC_GetMultiModeConversionValue
                0x0000000000000000        0xc build/obj/stm32f4xx_adc.o
 .text.ADC_DMACmd
                0x0000000000000000       0x14 build/obj/stm32f4xx_adc.o
 .text.ADC_DMARequestAfterLastTransferCmd
                0x0000000000000000       0x14 build/obj/stm32f4xx_adc.o
 .text.ADC_SetInjectedOffset
                0x0000000000000000       0x18 build/obj/stm32f4xx_adc.o
 .text.ADC_SoftwareStartInjectedConv
                0x0000000000000000        0xc build/obj/stm32f4xx_adc.o
 .text.ADC_GetSoftwareStartInjectedConvCmdStatus
                0x0000000000000000        0x8 build/obj/stm32f4xx_adc.o
 .text.ADC_AutoInjectedConvCmd
                0x0000000000000000       0x14 build/obj/stm32f4xx_adc.o
 .text.ADC_InjectedDiscModeCmd
                0x0000000000000000       0x14 build/obj/stm32f4xx_adc.o
 .text.ADC_GetFlagStatus
                0x0000000000000000        0xc build/obj/stm32f4xx_adc.o
 .text.ADC_ClearFlag
                0x0000000000000000        0x8 build/obj/stm32f4xx_adc.o
 .text.ADC_GetITStatus
                0x0000000000000000       0x1c build/obj/stm32f4xx_adc.o
 .text          0x0000000000000000        0x0 build/obj/stm32f4xx_dma.o
 .data          0x0000000000000000        0x0 build/obj/stm32f4xx_dma.o
 .bss           0x0000000000000000        0x0 build/obj/stm32f4xx_dma.o
 .text.DMA_StructInit
                0x0000000000000000       0x24 build/obj/stm32f4xx_dma.o
 .text.DMA_PeriphIncOffsetSizeConfig
                0x0000000000000000       0x14 build/obj/stm32f4xx_dma.o
 .text.DMA_FlowControllerConfig
                0x0000000000000000       0x14 build/obj/stm32f4xx_dma.o
 .text.DMA_SetCurrDataCounter
                0x0000000000000000        0x4 build/obj/stm32f4xx_dma.o
 .text.DMA_GetCurrDataCounter
                0x0000000000000000        0x8 build/obj/stm32f4xx_dma.o
 .text.DMA_DoubleBufferModeConfig
                0x0000000000000000       0x18 build/obj/stm32f4xx_dma.o
 .text.DMA_DoubleBufferModeCmd
                0x0000000000000000       0x14 build/obj/stm32f4xx_dma.o
 .text.DMA_MemoryTargetConfig
                0x0000000000000000        0xc build/obj/stm32f4xx_dma.o
 .text.DMA_GetCurrentMemoryTarget
                0x0000000000000000        0x8 build/obj/stm32f4xx_dma.o
 .text.DMA_GetCmdStatus
                0x0000000000000000        0x8 build/obj/stm32f4xx_dma.o
 .text.DMA_GetFIFOStatus
                0x0000000000000000        0x8 build/obj/stm32f4xx_dma.o
 .text.DMA_GetFlagStatus
                0x0000000000000000       0x3c build/obj/stm32f4xx_dma.o
 .text.DMA_ITConfig
                0x0000000000000000       0x40 build/obj/stm32f4xx_dma.o
 .text.DMA_GetITStatus
                0x0000000000000000       0x50 build/obj/stm32f4xx_dma.o
 .text.DMA_ClearITPendingBit
                0x0000000000000000       0x34 build/obj/stm32f4xx_dma.o
 .text.DMA_ClearFlag
                0x0000000000000000        0x4 build/obj/stm32f4xx_dma.o
 .text          0x0000000000000000        0x0 build/obj/stm32f4xx_exti.o
 .data          0x0000000000000000        0x0 build/obj/stm32f4xx_exti.o
 .bss           0x0000000000000000        0x0 build/obj/stm32f4xx_exti.o
 .text.EXTI_DeInit
                0x0000000000000000       0x1c build/obj/stm32f4xx_exti.o
 .text.EXTI_Init
                0x0000000000000000       0xc8 build/obj/stm32f4xx_exti.o
 .text.EXTI_StructInit
                0x0000000000000000       0x10 build/obj/stm32f4xx_exti.o
 .text.EXTI_GenerateSWInterrupt
                0x0000000000000000       0x28 build/obj/stm32f4xx_exti.o
 .text.EXTI_GetITStatus
                0x0000000000000000       0x9c build/obj/stm32f4xx_exti.o
 .text.EXTI_GetFlagStatus
                0x0000000000000000        0x4 build/obj/stm32f4xx_exti.o
 .text.EXTI_ClearITPendingBit
                0x0000000000000000       0x2c build/obj/stm32f4xx_exti.o
 .text.EXTI_ClearFlag
                0x0000000000000000        0x4 build/obj/stm32f4xx_exti.o
 .debug_info    0x0000000000000000      0x3ba build/obj/stm32f4xx_exti.o
 .debug_abbrev  0x0000000000000000      0x1d8 build/obj/stm32f4xx_exti.o
 .debug_loc     0x0000000000000000      0x1af build/obj/stm32f4xx_exti.o
 .debug_aranges
                0x0000000000000000       0x48 build/obj/stm32f4xx_exti.o
 .debug_ranges  0x0000000000000000       0x38 build/obj/stm32f4xx_exti.o
 .debug_line    0x0000000000000000      0x367 build/obj/stm32f4xx_exti.o
 .debug_str     0x0000000000000000      0x416 build/obj/stm32f4xx_exti.o
 .comment       0x0000000000000000       0x6f build/obj/stm32f4xx_exti.o
 .debug_frame   0x0000000000000000       0xcc build/obj/stm32f4xx_exti.o
 .ARM.attributes
                0x0000000000000000       0x39 build/obj/stm32f4xx_exti.o
 .text          0x0000000000000000        0x0 build/obj/stm32f4xx_flash.o
 .data          0x0000000000000000        0x0 build/obj/stm32f4xx_flash.o
 .bss           0x0000000000000000        0x0 build/obj/stm32f4xx_flash.o
 .text.FLASH_SetLatency
                0x0000000000000000        0xc build/obj/stm32f4xx_flash.o
 .text.FLASH_PrefetchBufferCmd
                0x0000000000000000       0x1c build/obj/stm32f4xx_flash.o
 .text.FLASH_InstructionCacheCmd
                0x0000000000000000       0x1c build/obj/stm32f4xx_flash.o
 .text.FLASH_DataCacheCmd
                0x0000000000000000       0x1c build/obj/stm32f4xx_flash.o
 .text.FLASH_InstructionCacheReset
                0x0000000000000000       0x10 build/obj/stm32f4xx_flash.o
 .text.FLASH_DataCacheReset
                0x0000000000000000       0x10 build/obj/stm32f4xx_flash.o
 .text.FLASH_Unlock
                0x0000000000000000       0x20 build/obj/stm32f4xx_flash.o
 .text.FLASH_Lock
                0x0000000000000000       0x10 build/obj/stm32f4xx_flash.o
 .text.FLASH_OB_Unlock
                0x0000000000000000       0x20 build/obj/stm32f4xx_flash.o
 .text.FLASH_OB_Lock
                0x0000000000000000       0x10 build/obj/stm32f4xx_flash.o
 .text.FLASH_OB_PCROPSelectionConfig
                0x0000000000000000       0x14 build/obj/stm32f4xx_flash.o
 .text.FLASH_OB_BootConfig
                0x0000000000000000       0x18 build/obj/stm32f4xx_flash.o
 .text.FLASH_OB_BORConfig
                0x0000000000000000       0x18 build/obj/stm32f4xx_flash.o
 .text.FLASH_OB_GetUser
                0x0000000000000000       0x10 build/obj/stm32f4xx_flash.o
 .text.FLASH_OB_GetWRP
                0x0000000000000000        0xc build/obj/stm32f4xx_flash.o
 .text.FLASH_OB_GetWRP1
                0x0000000000000000        0xc build/obj/stm32f4xx_flash.o
 .text.FLASH_OB_GetPCROP
                0x0000000000000000        0xc build/obj/stm32f4xx_flash.o
 .text.FLASH_OB_GetPCROP1
                0x0000000000000000        0xc build/obj/stm32f4xx_flash.o
 .text.FLASH_OB_GetRDP
                0x0000000000000000       0x10 build/obj/stm32f4xx_flash.o
 .text.FLASH_OB_GetBOR
                0x0000000000000000       0x10 build/obj/stm32f4xx_flash.o
 .text.FLASH_ITConfig
                0x0000000000000000       0x1c build/obj/stm32f4xx_flash.o
 .text.FLASH_GetFlagStatus
                0x0000000000000000       0x14 build/obj/stm32f4xx_flash.o
 .text.FLASH_ClearFlag
                0x0000000000000000        0xc build/obj/stm32f4xx_flash.o
 .text.FLASH_GetStatus
                0x0000000000000000       0x40 build/obj/stm32f4xx_flash.o
 .text.FLASH_WaitForLastOperation
                0x0000000000000000       0x28 build/obj/stm32f4xx_flash.o
 .text.FLASH_EraseSector
                0x0000000000000000       0x74 build/obj/stm32f4xx_flash.o
 .text.FLASH_EraseAllBank1Sectors
                0x0000000000000000       0x5c build/obj/stm32f4xx_flash.o
 .text.FLASH_EraseAllSectors
                0x0000000000000000        0x4 build/obj/stm32f4xx_flash.o
 .text.FLASH_EraseAllBank2Sectors
                0x0000000000000000       0x5c build/obj/stm32f4xx_flash.o
 .text.FLASH_ProgramDoubleWord
                0x0000000000000000       0x44 build/obj/stm32f4xx_flash.o
 .text.FLASH_ProgramWord
                0x0000000000000000       0x40 build/obj/stm32f4xx_flash.o
 .text.FLASH_ProgramHalfWord
                0x0000000000000000       0x40 build/obj/stm32f4xx_flash.o
 .text.FLASH_ProgramByte
                0x0000000000000000       0x3c build/obj/stm32f4xx_flash.o
 .text.FLASH_OB_WRPConfig
                0x0000000000000000       0x2c build/obj/stm32f4xx_flash.o
 .text.FLASH_OB_WRP1Config
                0x0000000000000000       0x2c build/obj/stm32f4xx_flash.o
 .text.FLASH_OB_PCROPConfig
                0x0000000000000000       0x2c build/obj/stm32f4xx_flash.o
 .text.FLASH_OB_PCROP1Config
                0x0000000000000000       0x2c build/obj/stm32f4xx_flash.o
 .text.FLASH_OB_RDPConfig
                0x0000000000000000       0x18 build/obj/stm32f4xx_flash.o
 .text.FLASH_OB_UserConfig
                0x0000000000000000       0x28 build/obj/stm32f4xx_flash.o
 .text.FLASH_OB_Launch
                0x0000000000000000       0x14 build/obj/stm32f4xx_flash.o
 .debug_info    0x0000000000000000      0x9ee build/obj/stm32f4xx_flash.o
 .debug_abbrev  0x0000000000000000      0x1e4 build/obj/stm32f4xx_flash.o
 .debug_loc     0x0000000000000000      0x836 build/obj/stm32f4xx_flash.o
 .debug_aranges
                0x0000000000000000      0x140 build/obj/stm32f4xx_flash.o
 .debug_ranges  0x0000000000000000      0x130 build/obj/stm32f4xx_flash.o
 .debug_line    0x0000000000000000      0x580 build/obj/stm32f4xx_flash.o
 .debug_str     0x0000000000000000      0x733 build/obj/stm32f4xx_flash.o
 .comment       0x0000000000000000       0x6f build/obj/stm32f4xx_flash.o
 .debug_frame   0x0000000000000000      0x370 build/obj/stm32f4xx_flash.o
 .ARM.attributes
                0x0000000000000000       0x39 build/obj/stm32f4xx_flash.o
 .text          0x0000000000000000        0x0 build/obj/stm32f4xx_rcc.o
 .data          0x0000000000000000        0x0 build/obj/stm32f4xx_rcc.o
 .bss           0x0000000000000000        0x0 build/obj/stm32f4xx_rcc.o
 .text.RCC_DeInit
                0x0000000000000000       0x34 build/obj/stm32f4xx_rcc.o
 .text.RCC_HSEConfig
                0x0000000000000000       0x10 build/obj/stm32f4xx_rcc.o
 .text.RCC_WaitForHSEStartUp
                0x0000000000000000       0x34 build/obj/stm32f4xx_rcc.o
 .text.RCC_AdjustHSICalibrationValue
                0x0000000000000000       0x14 build/obj/stm32f4xx_rcc.o
 .text.RCC_HSICmd
                0x0000000000000000        0xc build/obj/stm32f4xx_rcc.o
 .text.RCC_LSEConfig
                0x0000000000000000       0x20 build/obj/stm32f4xx_rcc.o
 .text.RCC_LSICmd
                0x0000000000000000        0xc build/obj/stm32f4xx_rcc.o
 .text.RCC_PLLCmd
                0x0000000000000000        0xc build/obj/stm32f4xx_rcc.o
 .text.RCC_PLLI2SCmd
                0x0000000000000000        0xc build/obj/stm32f4xx_rcc.o
 .text.RCC_PLLSAICmd
                0x0000000000000000        0xc build/obj/stm32f4xx_rcc.o
 .text.RCC_ClockSecuritySystemCmd
                0x0000000000000000        0xc build/obj/stm32f4xx_rcc.o
 .text.RCC_MCO1Config
                0x0000000000000000       0x14 build/obj/stm32f4xx_rcc.o
 .text.RCC_MCO2Config
                0x0000000000000000       0x14 build/obj/stm32f4xx_rcc.o
 .text.RCC_SYSCLKConfig
                0x0000000000000000       0x14 build/obj/stm32f4xx_rcc.o
 .text.RCC_GetSYSCLKSource
                0x0000000000000000       0x10 build/obj/stm32f4xx_rcc.o
 .text.RCC_HCLKConfig
                0x0000000000000000       0x14 build/obj/stm32f4xx_rcc.o
 .text.RCC_PCLK1Config
                0x0000000000000000       0x14 build/obj/stm32f4xx_rcc.o
 .text.RCC_PCLK2Config
                0x0000000000000000       0x14 build/obj/stm32f4xx_rcc.o
 .text.RCC_GetClocksFreq
                0x0000000000000000       0x98 build/obj/stm32f4xx_rcc.o
 .text.RCC_RTCCLKConfig
                0x0000000000000000       0x30 build/obj/stm32f4xx_rcc.o
 .text.RCC_RTCCLKCmd
                0x0000000000000000        0xc build/obj/stm32f4xx_rcc.o
 .text.RCC_BackupResetCmd
                0x0000000000000000        0xc build/obj/stm32f4xx_rcc.o
 .text.RCC_TIMCLKPresConfig
                0x0000000000000000        0xc build/obj/stm32f4xx_rcc.o
 .text.RCC_AHB2PeriphClockCmd
                0x0000000000000000       0x1c build/obj/stm32f4xx_rcc.o
 .text.RCC_AHB1PeriphResetCmd
                0x0000000000000000       0x1c build/obj/stm32f4xx_rcc.o
 .text.RCC_AHB2PeriphResetCmd
                0x0000000000000000       0x1c build/obj/stm32f4xx_rcc.o
 .text.RCC_AHB1PeriphClockLPModeCmd
                0x0000000000000000       0x1c build/obj/stm32f4xx_rcc.o
 .text.RCC_AHB2PeriphClockLPModeCmd
                0x0000000000000000       0x1c build/obj/stm32f4xx_rcc.o
 .text.RCC_APB1PeriphClockLPModeCmd
                0x0000000000000000       0x1c build/obj/stm32f4xx_rcc.o
 .text.RCC_APB2PeriphClockLPModeCmd
                0x0000000000000000       0x1c build/obj/stm32f4xx_rcc.o
 .text.RCC_LSEModeConfig
                0x0000000000000000       0x18 build/obj/stm32f4xx_rcc.o
 .text.RCC_ITConfig
                0x0000000000000000       0x1c build/obj/stm32f4xx_rcc.o
 .text.RCC_GetFlagStatus
                0x0000000000000000       0x34 build/obj/stm32f4xx_rcc.o
 .text.RCC_ClearFlag
                0x0000000000000000       0x10 build/obj/stm32f4xx_rcc.o
 .text.RCC_GetITStatus
                0x0000000000000000       0x14 build/obj/stm32f4xx_rcc.o
 .text.RCC_ClearITPendingBit
                0x0000000000000000        0xc build/obj/stm32f4xx_rcc.o
 .data.APBAHBPrescTable
                0x0000000000000000       0x10 build/obj/stm32f4xx_rcc.o
 .text          0x0000000000000000        0x0 build/obj/stm32f4xx_rng.o
 .data          0x0000000000000000        0x0 build/obj/stm32f4xx_rng.o
 .bss           0x0000000000000000        0x0 build/obj/stm32f4xx_rng.o
 .debug_info    0x0000000000000000       0x92 build/obj/stm32f4xx_rng.o
 .debug_abbrev  0x0000000000000000       0x4b build/obj/stm32f4xx_rng.o
 .debug_aranges
                0x0000000000000000       0x18 build/obj/stm32f4xx_rng.o
 .debug_line    0x0000000000000000      0x164 build/obj/stm32f4xx_rng.o
 .debug_str     0x0000000000000000      0x23c build/obj/stm32f4xx_rng.o
 .comment       0x0000000000000000       0x6f build/obj/stm32f4xx_rng.o
 .ARM.attributes
                0x0000000000000000       0x39 build/obj/stm32f4xx_rng.o
 .text          0x0000000000000000        0x0 build/obj/stm32f4xx_syscfg.o
 .data          0x0000000000000000        0x0 build/obj/stm32f4xx_syscfg.o
 .bss           0x0000000000000000        0x0 build/obj/stm32f4xx_syscfg.o
 .text.SYSCFG_DeInit
                0x0000000000000000       0x1c build/obj/stm32f4xx_syscfg.o
 .text.SYSCFG_MemoryRemapConfig
                0x0000000000000000       0x18 build/obj/stm32f4xx_syscfg.o
 .text.SYSCFG_MemorySwappingBank
                0x0000000000000000       0x1c build/obj/stm32f4xx_syscfg.o
 .text.SYSCFG_EXTILineConfig
                0x0000000000000000       0x48 build/obj/stm32f4xx_syscfg.o
 .text.SYSCFG_ETH_MediaInterfaceConfig
                0x0000000000000000       0x1c build/obj/stm32f4xx_syscfg.o
 .text.SYSCFG_CompensationCellCmd
                0x0000000000000000       0x1c build/obj/stm32f4xx_syscfg.o
 .text.SYSCFG_GetCompensationCellStatus
                0x0000000000000000       0x10 build/obj/stm32f4xx_syscfg.o
 .debug_info    0x0000000000000000      0x457 build/obj/stm32f4xx_syscfg.o
 .debug_abbrev  0x0000000000000000      0x194 build/obj/stm32f4xx_syscfg.o
 .debug_loc     0x0000000000000000      0x133 build/obj/stm32f4xx_syscfg.o
 .debug_aranges
                0x0000000000000000       0x50 build/obj/stm32f4xx_syscfg.o
 .debug_ranges  0x0000000000000000       0x40 build/obj/stm32f4xx_syscfg.o
 .debug_line    0x0000000000000000      0x2b9 build/obj/stm32f4xx_syscfg.o
 .debug_str     0x0000000000000000      0x41c build/obj/stm32f4xx_syscfg.o
 .comment       0x0000000000000000       0x6f build/obj/stm32f4xx_syscfg.o
 .debug_frame   0x0000000000000000       0xd0 build/obj/stm32f4xx_syscfg.o
 .ARM.attributes
                0x0000000000000000       0x39 build/obj/stm32f4xx_syscfg.o
 .text          0x0000000000000000        0x0 build/obj/stm32f4xx_tim.o
 .data          0x0000000000000000        0x0 build/obj/stm32f4xx_tim.o
 .bss           0x0000000000000000        0x0 build/obj/stm32f4xx_tim.o
 .text.TIM_TimeBaseStructInit
                0x0000000000000000       0x14 build/obj/stm32f4xx_tim.o
 .text.TIM_PrescalerConfig
                0x0000000000000000        0x8 build/obj/stm32f4xx_tim.o
 .text.TIM_CounterModeConfig
                0x0000000000000000       0x10 build/obj/stm32f4xx_tim.o
 .text.TIM_SetCounter
                0x0000000000000000        0x4 build/obj/stm32f4xx_tim.o
 .text.TIM_SetAutoreload
                0x0000000000000000        0x4 build/obj/stm32f4xx_tim.o
 .text.TIM_GetCounter
                0x0000000000000000        0x4 build/obj/stm32f4xx_tim.o
 .text.TIM_GetPrescaler
                0x0000000000000000        0x8 build/obj/stm32f4xx_tim.o
 .text.TIM_UpdateDisableConfig
                0x0000000000000000       0x18 build/obj/stm32f4xx_tim.o
 .text.TIM_UpdateRequestConfig
                0x0000000000000000       0x18 build/obj/stm32f4xx_tim.o
 .text.TIM_SelectOnePulseMode
                0x0000000000000000       0x14 build/obj/stm32f4xx_tim.o
 .text.TIM_SetClockDivision
                0x0000000000000000       0x14 build/obj/stm32f4xx_tim.o
 .text.TIM_OCStructInit
                0x0000000000000000       0x14 build/obj/stm32f4xx_tim.o
 .text.TIM_SelectOCxM
                0x0000000000000000       0x50 build/obj/stm32f4xx_tim.o
 .text.TIM_SetCompare1
                0x0000000000000000        0x4 build/obj/stm32f4xx_tim.o
 .text.TIM_SetCompare2
                0x0000000000000000        0x4 build/obj/stm32f4xx_tim.o
 .text.TIM_SetCompare3
                0x0000000000000000        0x4 build/obj/stm32f4xx_tim.o
 .text.TIM_SetCompare4
                0x0000000000000000        0x4 build/obj/stm32f4xx_tim.o
 .text.TIM_ForcedOC1Config
                0x0000000000000000       0x10 build/obj/stm32f4xx_tim.o
 .text.TIM_ForcedOC2Config
                0x0000000000000000       0x14 build/obj/stm32f4xx_tim.o
 .text.TIM_ForcedOC3Config
                0x0000000000000000       0x10 build/obj/stm32f4xx_tim.o
 .text.TIM_ForcedOC4Config
                0x0000000000000000       0x14 build/obj/stm32f4xx_tim.o
 .text.TIM_OC1FastConfig
                0x0000000000000000       0x10 build/obj/stm32f4xx_tim.o
 .text.TIM_OC2FastConfig
                0x0000000000000000       0x14 build/obj/stm32f4xx_tim.o
 .text.TIM_OC3FastConfig
                0x0000000000000000       0x10 build/obj/stm32f4xx_tim.o
 .text.TIM_OC4FastConfig
                0x0000000000000000       0x14 build/obj/stm32f4xx_tim.o
 .text.TIM_ClearOC1Ref
                0x0000000000000000       0x10 build/obj/stm32f4xx_tim.o
 .text.TIM_ClearOC2Ref
                0x0000000000000000       0x10 build/obj/stm32f4xx_tim.o
 .text.TIM_ClearOC3Ref
                0x0000000000000000       0x10 build/obj/stm32f4xx_tim.o
 .text.TIM_ClearOC4Ref
                0x0000000000000000       0x10 build/obj/stm32f4xx_tim.o
 .text.TIM_OC1PolarityConfig
                0x0000000000000000       0x10 build/obj/stm32f4xx_tim.o
 .text.TIM_OC1NPolarityConfig
                0x0000000000000000       0x10 build/obj/stm32f4xx_tim.o
 .text.TIM_OC2PolarityConfig
                0x0000000000000000       0x14 build/obj/stm32f4xx_tim.o
 .text.TIM_OC2NPolarityConfig
                0x0000000000000000       0x14 build/obj/stm32f4xx_tim.o
 .text.TIM_OC3PolarityConfig
                0x0000000000000000       0x14 build/obj/stm32f4xx_tim.o
 .text.TIM_OC3NPolarityConfig
                0x0000000000000000       0x14 build/obj/stm32f4xx_tim.o
 .text.TIM_OC4PolarityConfig
                0x0000000000000000       0x14 build/obj/stm32f4xx_tim.o
 .text.TIM_CCxCmd
                0x0000000000000000       0x20 build/obj/stm32f4xx_tim.o
 .text.TIM_CCxNCmd
                0x0000000000000000       0x20 build/obj/stm32f4xx_tim.o
 .text.TIM_ICInit
                0x0000000000000000      0x144 build/obj/stm32f4xx_tim.o
 .text.TIM_ICStructInit
                0x0000000000000000       0x10 build/obj/stm32f4xx_tim.o
 .text.TIM_PWMIConfig
                0x0000000000000000      0x144 build/obj/stm32f4xx_tim.o
 .text.TIM_GetCapture1
                0x0000000000000000        0x4 build/obj/stm32f4xx_tim.o
 .text.TIM_GetCapture2
                0x0000000000000000        0x4 build/obj/stm32f4xx_tim.o
 .text.TIM_GetCapture3
                0x0000000000000000        0x4 build/obj/stm32f4xx_tim.o
 .text.TIM_GetCapture4
                0x0000000000000000        0x4 build/obj/stm32f4xx_tim.o
 .text.TIM_SetIC1Prescaler
                0x0000000000000000       0x14 build/obj/stm32f4xx_tim.o
 .text.TIM_SetIC2Prescaler
                0x0000000000000000       0x18 build/obj/stm32f4xx_tim.o
 .text.TIM_SetIC3Prescaler
                0x0000000000000000       0x14 build/obj/stm32f4xx_tim.o
 .text.TIM_SetIC4Prescaler
                0x0000000000000000       0x18 build/obj/stm32f4xx_tim.o
 .text.TIM_BDTRStructInit
                0x0000000000000000       0x14 build/obj/stm32f4xx_tim.o
 .text.TIM_SelectCOM
                0x0000000000000000       0x18 build/obj/stm32f4xx_tim.o
 .text.TIM_GenerateEvent
                0x0000000000000000        0x4 build/obj/stm32f4xx_tim.o
 .text.TIM_GetFlagStatus
                0x0000000000000000        0xc build/obj/stm32f4xx_tim.o
 .text.TIM_ClearFlag
                0x0000000000000000        0x8 build/obj/stm32f4xx_tim.o
 .text.TIM_GetITStatus
                0x0000000000000000       0x14 build/obj/stm32f4xx_tim.o
 .text.TIM_ClearITPendingBit
                0x0000000000000000        0x8 build/obj/stm32f4xx_tim.o
 .text.TIM_DMAConfig
                0x0000000000000000        0x8 build/obj/stm32f4xx_tim.o
 .text.TIM_ITConfig
                0x0000000000000000        0x4 build/obj/stm32f4xx_tim.o
 .text.TIM_SelectCCDMA
                0x0000000000000000       0x18 build/obj/stm32f4xx_tim.o
 .text.TIM_InternalClockConfig
                0x0000000000000000        0xc build/obj/stm32f4xx_tim.o
 .text.TIM_ITRxExternalClockConfig
                0x0000000000000000       0x18 build/obj/stm32f4xx_tim.o
 .text.TIM_TIxExternalClockConfig
                0x0000000000000000       0x80 build/obj/stm32f4xx_tim.o
 .text.TIM_ETRClockMode1Config
                0x0000000000000000       0x28 build/obj/stm32f4xx_tim.o
 .text.TIM_ETRClockMode2Config
                0x0000000000000000       0x20 build/obj/stm32f4xx_tim.o
 .text.TIM_SelectInputTrigger
                0x0000000000000000       0x10 build/obj/stm32f4xx_tim.o
 .text.TIM_SelectOutputTrigger
                0x0000000000000000       0x14 build/obj/stm32f4xx_tim.o
 .text.TIM_SelectSlaveMode
                0x0000000000000000       0x14 build/obj/stm32f4xx_tim.o
 .text.TIM_SelectMasterSlaveMode
                0x0000000000000000       0x14 build/obj/stm32f4xx_tim.o
 .text.TIM_ETRConfig
                0x0000000000000000       0x18 build/obj/stm32f4xx_tim.o
 .text.TIM_EncoderInterfaceConfig
                0x0000000000000000       0x38 build/obj/stm32f4xx_tim.o
 .text.TIM_SelectHallSensor
                0x0000000000000000       0x18 build/obj/stm32f4xx_tim.o
 .text.TIM_RemapConfig
                0x0000000000000000        0x4 build/obj/stm32f4xx_tim.o
 .text          0x0000000000000000        0x0 build/obj/stm32f4xx_wwdg.o
 .data          0x0000000000000000        0x0 build/obj/stm32f4xx_wwdg.o
 .bss           0x0000000000000000        0x0 build/obj/stm32f4xx_wwdg.o
 .text.WWDG_DeInit
                0x0000000000000000       0x1c build/obj/stm32f4xx_wwdg.o
 .text.WWDG_SetPrescaler
                0x0000000000000000       0x24 build/obj/stm32f4xx_wwdg.o
 .text.WWDG_SetWindowValue
                0x0000000000000000       0x34 build/obj/stm32f4xx_wwdg.o
 .text.WWDG_EnableIT
                0x0000000000000000        0xc build/obj/stm32f4xx_wwdg.o
 .text.WWDG_SetCounter
                0x0000000000000000       0x20 build/obj/stm32f4xx_wwdg.o
 .text.WWDG_Enable
                0x0000000000000000       0x20 build/obj/stm32f4xx_wwdg.o
 .text.WWDG_GetFlagStatus
                0x0000000000000000       0x10 build/obj/stm32f4xx_wwdg.o
 .text.WWDG_ClearFlag
                0x0000000000000000        0xc build/obj/stm32f4xx_wwdg.o
 .debug_info    0x0000000000000000      0x38f build/obj/stm32f4xx_wwdg.o
 .debug_abbrev  0x0000000000000000      0x1a7 build/obj/stm32f4xx_wwdg.o
 .debug_loc     0x0000000000000000       0xdf build/obj/stm32f4xx_wwdg.o
 .debug_aranges
                0x0000000000000000       0x58 build/obj/stm32f4xx_wwdg.o
 .debug_ranges  0x0000000000000000       0x48 build/obj/stm32f4xx_wwdg.o
 .debug_line    0x0000000000000000      0x2c8 build/obj/stm32f4xx_wwdg.o
 .debug_str     0x0000000000000000      0x366 build/obj/stm32f4xx_wwdg.o
 .comment       0x0000000000000000       0x6f build/obj/stm32f4xx_wwdg.o
 .debug_frame   0x0000000000000000       0xd4 build/obj/stm32f4xx_wwdg.o
 .ARM.attributes
                0x0000000000000000       0x39 build/obj/stm32f4xx_wwdg.o
 .text          0x0000000000000000        0x0 /opt/homebrew-cask/Caskroom/gcc-arm-embedded/5_2-2015q4,20151219/gcc-arm-none-eabi-5_2-2015q4/bin/../lib/gcc/arm-none-eabi/5.2.1/../../../../arm-none-eabi/lib/armv7e-m/fpu/libm.a(lib_a-s_cos.o)
 .data          0x0000000000000000        0x0 /opt/homebrew-cask/Caskroom/gcc-arm-embedded/5_2-2015q4,20151219/gcc-arm-none-eabi-5_2-2015q4/bin/../lib/gcc/arm-none-eabi/5.2.1/../../../../arm-none-eabi/lib/armv7e-m/fpu/libm.a(lib_a-s_cos.o)
 .bss           0x0000000000000000        0x0 /opt/homebrew-cask/Caskroom/gcc-arm-embedded/5_2-2015q4,20151219/gcc-arm-none-eabi-5_2-2015q4/bin/../lib/gcc/arm-none-eabi/5.2.1/../../../../arm-none-eabi/lib/armv7e-m/fpu/libm.a(lib_a-s_cos.o)
 .text          0x0000000000000000        0x0 /opt/homebrew-cask/Caskroom/gcc-arm-embedded/5_2-2015q4,20151219/gcc-arm-none-eabi-5_2-2015q4/bin/../lib/gcc/arm-none-eabi/5.2.1/../../../../arm-none-eabi/lib/armv7e-m/fpu/libm.a(lib_a-s_sin.o)
 .data          0x0000000000000000        0x0 /opt/homebrew-cask/Caskroom/gcc-arm-embedded/5_2-2015q4,20151219/gcc-arm-none-eabi-5_2-2015q4/bin/../lib/gcc/arm-none-eabi/5.2.1/../../../../arm-none-eabi/lib/armv7e-m/fpu/libm.a(lib_a-s_sin.o)
 .bss           0x0000000000000000        0x0 /opt/homebrew-cask/Caskroom/gcc-arm-embedded/5_2-2015q4,20151219/gcc-arm-none-eabi-5_2-2015q4/bin/../lib/gcc/arm-none-eabi/5.2.1/../../../../arm-none-eabi/lib/armv7e-m/fpu/libm.a(lib_a-s_sin.o)
 .text          0x0000000000000000        0x0 /opt/homebrew-cask/Caskroom/gcc-arm-embedded/5_2-2015q4,20151219/gcc-arm-none-eabi-5_2-2015q4/bin/../lib/gcc/arm-none-eabi/5.2.1/../../../../arm-none-eabi/lib/armv7e-m/fpu/libm.a(lib_a-sf_round.o)
 .data          0x0000000000000000        0x0 /opt/homebrew-cask/Caskroom/gcc-arm-embedded/5_2-2015q4,20151219/gcc-arm-none-eabi-5_2-2015q4/bin/../lib/gcc/arm-none-eabi/5.2.1/../../../../arm-none-eabi/lib/armv7e-m/fpu/libm.a(lib_a-sf_round.o)
 .bss           0x0000000000000000        0x0 /opt/homebrew-cask/Caskroom/gcc-arm-embedded/5_2-2015q4,20151219/gcc-arm-none-eabi-5_2-2015q4/bin/../lib/gcc/arm-none-eabi/5.2.1/../../../../arm-none-eabi/lib/armv7e-m/fpu/libm.a(lib_a-sf_round.o)
 .text          0x0000000000000000        0x0 /opt/homebrew-cask/Caskroom/gcc-arm-embedded/5_2-2015q4,20151219/gcc-arm-none-eabi-5_2-2015q4/bin/../lib/gcc/arm-none-eabi/5.2.1/../../../../arm-none-eabi/lib/armv7e-m/fpu/libm.a(lib_a-w_fmod.o)
 .data          0x0000000000000000        0x0 /opt/homebrew-cask/Caskroom/gcc-arm-embedded/5_2-2015q4,20151219/gcc-arm-none-eabi-5_2-2015q4/bin/../lib/gcc/arm-none-eabi/5.2.1/../../../../arm-none-eabi/lib/armv7e-m/fpu/libm.a(lib_a-w_fmod.o)
 .bss           0x0000000000000000        0x0 /opt/homebrew-cask/Caskroom/gcc-arm-embedded/5_2-2015q4,20151219/gcc-arm-none-eabi-5_2-2015q4/bin/../lib/gcc/arm-none-eabi/5.2.1/../../../../arm-none-eabi/lib/armv7e-m/fpu/libm.a(lib_a-w_fmod.o)
 .text          0x0000000000000000        0x0 /opt/homebrew-cask/Caskroom/gcc-arm-embedded/5_2-2015q4,20151219/gcc-arm-none-eabi-5_2-2015q4/bin/../lib/gcc/arm-none-eabi/5.2.1/../../../../arm-none-eabi/lib/armv7e-m/fpu/libm.a(lib_a-wf_pow.o)
 .data          0x0000000000000000        0x0 /opt/homebrew-cask/Caskroom/gcc-arm-embedded/5_2-2015q4,20151219/gcc-arm-none-eabi-5_2-2015q4/bin/../lib/gcc/arm-none-eabi/5.2.1/../../../../arm-none-eabi/lib/armv7e-m/fpu/libm.a(lib_a-wf_pow.o)
 .bss           0x0000000000000000        0x0 /opt/homebrew-cask/Caskroom/gcc-arm-embedded/5_2-2015q4,20151219/gcc-arm-none-eabi-5_2-2015q4/bin/../lib/gcc/arm-none-eabi/5.2.1/../../../../arm-none-eabi/lib/armv7e-m/fpu/libm.a(lib_a-wf_pow.o)
 .text          0x0000000000000000        0x0 /opt/homebrew-cask/Caskroom/gcc-arm-embedded/5_2-2015q4,20151219/gcc-arm-none-eabi-5_2-2015q4/bin/../lib/gcc/arm-none-eabi/5.2.1/../../../../arm-none-eabi/lib/armv7e-m/fpu/libm.a(lib_a-e_fmod.o)
 .data          0x0000000000000000        0x0 /opt/homebrew-cask/Caskroom/gcc-arm-embedded/5_2-2015q4,20151219/gcc-arm-none-eabi-5_2-2015q4/bin/../lib/gcc/arm-none-eabi/5.2.1/../../../../arm-none-eabi/lib/armv7e-m/fpu/libm.a(lib_a-e_fmod.o)
 .bss           0x0000000000000000        0x0 /opt/homebrew-cask/Caskroom/gcc-arm-embedded/5_2-2015q4,20151219/gcc-arm-none-eabi-5_2-2015q4/bin/../lib/gcc/arm-none-eabi/5.2.1/../../../../arm-none-eabi/lib/armv7e-m/fpu/libm.a(lib_a-e_fmod.o)
 .text          0x0000000000000000        0x0 /opt/homebrew-cask/Caskroom/gcc-arm-embedded/5_2-2015q4,20151219/gcc-arm-none-eabi-5_2-2015q4/bin/../lib/gcc/arm-none-eabi/5.2.1/../../../../arm-none-eabi/lib/armv7e-m/fpu/libm.a(lib_a-e_rem_pio2.o)
 .data          0x0000000000000000        0x0 /opt/homebrew-cask/Caskroom/gcc-arm-embedded/5_2-2015q4,20151219/gcc-arm-none-eabi-5_2-2015q4/bin/../lib/gcc/arm-none-eabi/5.2.1/../../../../arm-none-eabi/lib/armv7e-m/fpu/libm.a(lib_a-e_rem_pio2.o)
 .bss           0x0000000000000000        0x0 /opt/homebrew-cask/Caskroom/gcc-arm-embedded/5_2-2015q4,20151219/gcc-arm-none-eabi-5_2-2015q4/bin/../lib/gcc/arm-none-eabi/5.2.1/../../../../arm-none-eabi/lib/armv7e-m/fpu/libm.a(lib_a-e_rem_pio2.o)
 .text          0x0000000000000000        0x0 /opt/homebrew-cask/Caskroom/gcc-arm-embedded/5_2-2015q4,20151219/gcc-arm-none-eabi-5_2-2015q4/bin/../lib/gcc/arm-none-eabi/5.2.1/../../../../arm-none-eabi/lib/armv7e-m/fpu/libm.a(lib_a-ef_pow.o)
 .data          0x0000000000000000        0x0 /opt/homebrew-cask/Caskroom/gcc-arm-embedded/5_2-2015q4,20151219/gcc-arm-none-eabi-5_2-2015q4/bin/../lib/gcc/arm-none-eabi/5.2.1/../../../../arm-none-eabi/lib/armv7e-m/fpu/libm.a(lib_a-ef_pow.o)
 .bss           0x0000000000000000        0x0 /opt/homebrew-cask/Caskroom/gcc-arm-embedded/5_2-2015q4,20151219/gcc-arm-none-eabi-5_2-2015q4/bin/../lib/gcc/arm-none-eabi/5.2.1/../../../../arm-none-eabi/lib/armv7e-m/fpu/libm.a(lib_a-ef_pow.o)
 .text          0x0000000000000000        0x0 /opt/homebrew-cask/Caskroom/gcc-arm-embedded/5_2-2015q4,20151219/gcc-arm-none-eabi-5_2-2015q4/bin/../lib/gcc/arm-none-eabi/5.2.1/../../../../arm-none-eabi/lib/armv7e-m/fpu/libm.a(lib_a-ef_sqrt.o)
 .data          0x0000000000000000        0x0 /opt/homebrew-cask/Caskroom/gcc-arm-embedded/5_2-2015q4,20151219/gcc-arm-none-eabi-5_2-2015q4/bin/../lib/gcc/arm-none-eabi/5.2.1/../../../../arm-none-eabi/lib/armv7e-m/fpu/libm.a(lib_a-ef_sqrt.o)
 .bss           0x0000000000000000        0x0 /opt/homebrew-cask/Caskroom/gcc-arm-embedded/5_2-2015q4,20151219/gcc-arm-none-eabi-5_2-2015q4/bin/../lib/gcc/arm-none-eabi/5.2.1/../../../../arm-none-eabi/lib/armv7e-m/fpu/libm.a(lib_a-ef_sqrt.o)
 .text          0x0000000000000000        0x0 /opt/homebrew-cask/Caskroom/gcc-arm-embedded/5_2-2015q4,20151219/gcc-arm-none-eabi-5_2-2015q4/bin/../lib/gcc/arm-none-eabi/5.2.1/../../../../arm-none-eabi/lib/armv7e-m/fpu/libm.a(lib_a-k_cos.o)
 .data          0x0000000000000000        0x0 /opt/homebrew-cask/Caskroom/gcc-arm-embedded/5_2-2015q4,20151219/gcc-arm-none-eabi-5_2-2015q4/bin/../lib/gcc/arm-none-eabi/5.2.1/../../../../arm-none-eabi/lib/armv7e-m/fpu/libm.a(lib_a-k_cos.o)
 .bss           0x0000000000000000        0x0 /opt/homebrew-cask/Caskroom/gcc-arm-embedded/5_2-2015q4,20151219/gcc-arm-none-eabi-5_2-2015q4/bin/../lib/gcc/arm-none-eabi/5.2.1/../../../../arm-none-eabi/lib/armv7e-m/fpu/libm.a(lib_a-k_cos.o)
 .text          0x0000000000000000        0x0 /opt/homebrew-cask/Caskroom/gcc-arm-embedded/5_2-2015q4,20151219/gcc-arm-none-eabi-5_2-2015q4/bin/../lib/gcc/arm-none-eabi/5.2.1/../../../../arm-none-eabi/lib/armv7e-m/fpu/libm.a(lib_a-k_rem_pio2.o)
 .data          0x0000000000000000        0x0 /opt/homebrew-cask/Caskroom/gcc-arm-embedded/5_2-2015q4,20151219/gcc-arm-none-eabi-5_2-2015q4/bin/../lib/gcc/arm-none-eabi/5.2.1/../../../../arm-none-eabi/lib/armv7e-m/fpu/libm.a(lib_a-k_rem_pio2.o)
 .bss           0x0000000000000000        0x0 /opt/homebrew-cask/Caskroom/gcc-arm-embedded/5_2-2015q4,20151219/gcc-arm-none-eabi-5_2-2015q4/bin/../lib/gcc/arm-none-eabi/5.2.1/../../../../arm-none-eabi/lib/armv7e-m/fpu/libm.a(lib_a-k_rem_pio2.o)
 .text          0x0000000000000000        0x0 /opt/homebrew-cask/Caskroom/gcc-arm-embedded/5_2-2015q4,20151219/gcc-arm-none-eabi-5_2-2015q4/bin/../lib/gcc/arm-none-eabi/5.2.1/../../../../arm-none-eabi/lib/armv7e-m/fpu/libm.a(lib_a-k_sin.o)
 .data          0x0000000000000000        0x0 /opt/homebrew-cask/Caskroom/gcc-arm-embedded/5_2-2015q4,20151219/gcc-arm-none-eabi-5_2-2015q4/bin/../lib/gcc/arm-none-eabi/5.2.1/../../../../arm-none-eabi/lib/armv7e-m/fpu/libm.a(lib_a-k_sin.o)
 .bss           0x0000000000000000        0x0 /opt/homebrew-cask/Caskroom/gcc-arm-embedded/5_2-2015q4,20151219/gcc-arm-none-eabi-5_2-2015q4/bin/../lib/gcc/arm-none-eabi/5.2.1/../../../../arm-none-eabi/lib/armv7e-m/fpu/libm.a(lib_a-k_sin.o)
 .text          0x0000000000000000        0x0 /opt/homebrew-cask/Caskroom/gcc-arm-embedded/5_2-2015q4,20151219/gcc-arm-none-eabi-5_2-2015q4/bin/../lib/gcc/arm-none-eabi/5.2.1/../../../../arm-none-eabi/lib/armv7e-m/fpu/libm.a(lib_a-s_fabs.o)
 .data          0x0000000000000000        0x0 /opt/homebrew-cask/Caskroom/gcc-arm-embedded/5_2-2015q4,20151219/gcc-arm-none-eabi-5_2-2015q4/bin/../lib/gcc/arm-none-eabi/5.2.1/../../../../arm-none-eabi/lib/armv7e-m/fpu/libm.a(lib_a-s_fabs.o)
 .bss           0x0000000000000000        0x0 /opt/homebrew-cask/Caskroom/gcc-arm-embedded/5_2-2015q4,20151219/gcc-arm-none-eabi-5_2-2015q4/bin/../lib/gcc/arm-none-eabi/5.2.1/../../../../arm-none-eabi/lib/armv7e-m/fpu/libm.a(lib_a-s_fabs.o)
 .text          0x0000000000000000        0x0 /opt/homebrew-cask/Caskroom/gcc-arm-embedded/5_2-2015q4,20151219/gcc-arm-none-eabi-5_2-2015q4/bin/../lib/gcc/arm-none-eabi/5.2.1/../../../../arm-none-eabi/lib/armv7e-m/fpu/libm.a(lib_a-s_floor.o)
 .data          0x0000000000000000        0x0 /opt/homebrew-cask/Caskroom/gcc-arm-embedded/5_2-2015q4,20151219/gcc-arm-none-eabi-5_2-2015q4/bin/../lib/gcc/arm-none-eabi/5.2.1/../../../../arm-none-eabi/lib/armv7e-m/fpu/libm.a(lib_a-s_floor.o)
 .bss           0x0000000000000000        0x0 /opt/homebrew-cask/Caskroom/gcc-arm-embedded/5_2-2015q4,20151219/gcc-arm-none-eabi-5_2-2015q4/bin/../lib/gcc/arm-none-eabi/5.2.1/../../../../arm-none-eabi/lib/armv7e-m/fpu/libm.a(lib_a-s_floor.o)
 .text          0x0000000000000000        0x0 /opt/homebrew-cask/Caskroom/gcc-arm-embedded/5_2-2015q4,20151219/gcc-arm-none-eabi-5_2-2015q4/bin/../lib/gcc/arm-none-eabi/5.2.1/../../../../arm-none-eabi/lib/armv7e-m/fpu/libm.a(lib_a-s_fpclassify.o)
 .data          0x0000000000000000        0x0 /opt/homebrew-cask/Caskroom/gcc-arm-embedded/5_2-2015q4,20151219/gcc-arm-none-eabi-5_2-2015q4/bin/../lib/gcc/arm-none-eabi/5.2.1/../../../../arm-none-eabi/lib/armv7e-m/fpu/libm.a(lib_a-s_fpclassify.o)
 .bss           0x0000000000000000        0x0 /opt/homebrew-cask/Caskroom/gcc-arm-embedded/5_2-2015q4,20151219/gcc-arm-none-eabi-5_2-2015q4/bin/../lib/gcc/arm-none-eabi/5.2.1/../../../../arm-none-eabi/lib/armv7e-m/fpu/libm.a(lib_a-s_fpclassify.o)
 .text          0x0000000000000000        0x0 /opt/homebrew-cask/Caskroom/gcc-arm-embedded/5_2-2015q4,20151219/gcc-arm-none-eabi-5_2-2015q4/bin/../lib/gcc/arm-none-eabi/5.2.1/../../../../arm-none-eabi/lib/armv7e-m/fpu/libm.a(lib_a-s_lib_ver.o)
 .data          0x0000000000000000        0x0 /opt/homebrew-cask/Caskroom/gcc-arm-embedded/5_2-2015q4,20151219/gcc-arm-none-eabi-5_2-2015q4/bin/../lib/gcc/arm-none-eabi/5.2.1/../../../../arm-none-eabi/lib/armv7e-m/fpu/libm.a(lib_a-s_lib_ver.o)
 .bss           0x0000000000000000        0x0 /opt/homebrew-cask/Caskroom/gcc-arm-embedded/5_2-2015q4,20151219/gcc-arm-none-eabi-5_2-2015q4/bin/../lib/gcc/arm-none-eabi/5.2.1/../../../../arm-none-eabi/lib/armv7e-m/fpu/libm.a(lib_a-s_lib_ver.o)
 .text          0x0000000000000000        0x0 /opt/homebrew-cask/Caskroom/gcc-arm-embedded/5_2-2015q4,20151219/gcc-arm-none-eabi-5_2-2015q4/bin/../lib/gcc/arm-none-eabi/5.2.1/../../../../arm-none-eabi/lib/armv7e-m/fpu/libm.a(lib_a-s_matherr.o)
 .data          0x0000000000000000        0x0 /opt/homebrew-cask/Caskroom/gcc-arm-embedded/5_2-2015q4,20151219/gcc-arm-none-eabi-5_2-2015q4/bin/../lib/gcc/arm-none-eabi/5.2.1/../../../../arm-none-eabi/lib/armv7e-m/fpu/libm.a(lib_a-s_matherr.o)
 .bss           0x0000000000000000        0x0 /opt/homebrew-cask/Caskroom/gcc-arm-embedded/5_2-2015q4,20151219/gcc-arm-none-eabi-5_2-2015q4/bin/../lib/gcc/arm-none-eabi/5.2.1/../../../../arm-none-eabi/lib/armv7e-m/fpu/libm.a(lib_a-s_matherr.o)
 .text          0x0000000000000000        0x0 /opt/homebrew-cask/Caskroom/gcc-arm-embedded/5_2-2015q4,20151219/gcc-arm-none-eabi-5_2-2015q4/bin/../lib/gcc/arm-none-eabi/5.2.1/../../../../arm-none-eabi/lib/armv7e-m/fpu/libm.a(lib_a-s_rint.o)
 .data          0x0000000000000000        0x0 /opt/homebrew-cask/Caskroom/gcc-arm-embedded/5_2-2015q4,20151219/gcc-arm-none-eabi-5_2-2015q4/bin/../lib/gcc/arm-none-eabi/5.2.1/../../../../arm-none-eabi/lib/armv7e-m/fpu/libm.a(lib_a-s_rint.o)
 .bss           0x0000000000000000        0x0 /opt/homebrew-cask/Caskroom/gcc-arm-embedded/5_2-2015q4,20151219/gcc-arm-none-eabi-5_2-2015q4/bin/../lib/gcc/arm-none-eabi/5.2.1/../../../../arm-none-eabi/lib/armv7e-m/fpu/libm.a(lib_a-s_rint.o)
 .text          0x0000000000000000        0x0 /opt/homebrew-cask/Caskroom/gcc-arm-embedded/5_2-2015q4,20151219/gcc-arm-none-eabi-5_2-2015q4/bin/../lib/gcc/arm-none-eabi/5.2.1/../../../../arm-none-eabi/lib/armv7e-m/fpu/libm.a(lib_a-s_scalbn.o)
 .data          0x0000000000000000        0x0 /opt/homebrew-cask/Caskroom/gcc-arm-embedded/5_2-2015q4,20151219/gcc-arm-none-eabi-5_2-2015q4/bin/../lib/gcc/arm-none-eabi/5.2.1/../../../../arm-none-eabi/lib/armv7e-m/fpu/libm.a(lib_a-s_scalbn.o)
 .bss           0x0000000000000000        0x0 /opt/homebrew-cask/Caskroom/gcc-arm-embedded/5_2-2015q4,20151219/gcc-arm-none-eabi-5_2-2015q4/bin/../lib/gcc/arm-none-eabi/5.2.1/../../../../arm-none-eabi/lib/armv7e-m/fpu/libm.a(lib_a-s_scalbn.o)
 .text          0x0000000000000000        0x0 /opt/homebrew-cask/Caskroom/gcc-arm-embedded/5_2-2015q4,20151219/gcc-arm-none-eabi-5_2-2015q4/bin/../lib/gcc/arm-none-eabi/5.2.1/../../../../arm-none-eabi/lib/armv7e-m/fpu/libm.a(lib_a-sf_fabs.o)
 .data          0x0000000000000000        0x0 /opt/homebrew-cask/Caskroom/gcc-arm-embedded/5_2-2015q4,20151219/gcc-arm-none-eabi-5_2-2015q4/bin/../lib/gcc/arm-none-eabi/5.2.1/../../../../arm-none-eabi/lib/armv7e-m/fpu/libm.a(lib_a-sf_fabs.o)
 .bss           0x0000000000000000        0x0 /opt/homebrew-cask/Caskroom/gcc-arm-embedded/5_2-2015q4,20151219/gcc-arm-none-eabi-5_2-2015q4/bin/../lib/gcc/arm-none-eabi/5.2.1/../../../../arm-none-eabi/lib/armv7e-m/fpu/libm.a(lib_a-sf_fabs.o)
 .text          0x0000000000000000        0x0 /opt/homebrew-cask/Caskroom/gcc-arm-embedded/5_2-2015q4,20151219/gcc-arm-none-eabi-5_2-2015q4/bin/../lib/gcc/arm-none-eabi/5.2.1/../../../../arm-none-eabi/lib/armv7e-m/fpu/libm.a(lib_a-sf_finite.o)
 .data          0x0000000000000000        0x0 /opt/homebrew-cask/Caskroom/gcc-arm-embedded/5_2-2015q4,20151219/gcc-arm-none-eabi-5_2-2015q4/bin/../lib/gcc/arm-none-eabi/5.2.1/../../../../arm-none-eabi/lib/armv7e-m/fpu/libm.a(lib_a-sf_finite.o)
 .bss           0x0000000000000000        0x0 /opt/homebrew-cask/Caskroom/gcc-arm-embedded/5_2-2015q4,20151219/gcc-arm-none-eabi-5_2-2015q4/bin/../lib/gcc/arm-none-eabi/5.2.1/../../../../arm-none-eabi/lib/armv7e-m/fpu/libm.a(lib_a-sf_finite.o)
 .text          0x0000000000000000        0x0 /opt/homebrew-cask/Caskroom/gcc-arm-embedded/5_2-2015q4,20151219/gcc-arm-none-eabi-5_2-2015q4/bin/../lib/gcc/arm-none-eabi/5.2.1/../../../../arm-none-eabi/lib/armv7e-m/fpu/libm.a(lib_a-sf_fpclassify.o)
 .data          0x0000000000000000        0x0 /opt/homebrew-cask/Caskroom/gcc-arm-embedded/5_2-2015q4,20151219/gcc-arm-none-eabi-5_2-2015q4/bin/../lib/gcc/arm-none-eabi/5.2.1/../../../../arm-none-eabi/lib/armv7e-m/fpu/libm.a(lib_a-sf_fpclassify.o)
 .bss           0x0000000000000000        0x0 /opt/homebrew-cask/Caskroom/gcc-arm-embedded/5_2-2015q4,20151219/gcc-arm-none-eabi-5_2-2015q4/bin/../lib/gcc/arm-none-eabi/5.2.1/../../../../arm-none-eabi/lib/armv7e-m/fpu/libm.a(lib_a-sf_fpclassify.o)
 .text          0x0000000000000000        0x0 /opt/homebrew-cask/Caskroom/gcc-arm-embedded/5_2-2015q4,20151219/gcc-arm-none-eabi-5_2-2015q4/bin/../lib/gcc/arm-none-eabi/5.2.1/../../../../arm-none-eabi/lib/armv7e-m/fpu/libm.a(lib_a-sf_nan.o)
 .data          0x0000000000000000        0x0 /opt/homebrew-cask/Caskroom/gcc-arm-embedded/5_2-2015q4,20151219/gcc-arm-none-eabi-5_2-2015q4/bin/../lib/gcc/arm-none-eabi/5.2.1/../../../../arm-none-eabi/lib/armv7e-m/fpu/libm.a(lib_a-sf_nan.o)
 .bss           0x0000000000000000        0x0 /opt/homebrew-cask/Caskroom/gcc-arm-embedded/5_2-2015q4,20151219/gcc-arm-none-eabi-5_2-2015q4/bin/../lib/gcc/arm-none-eabi/5.2.1/../../../../arm-none-eabi/lib/armv7e-m/fpu/libm.a(lib_a-sf_nan.o)
 .text          0x0000000000000000        0x0 /opt/homebrew-cask/Caskroom/gcc-arm-embedded/5_2-2015q4,20151219/gcc-arm-none-eabi-5_2-2015q4/bin/../lib/gcc/arm-none-eabi/5.2.1/../../../../arm-none-eabi/lib/armv7e-m/fpu/libm.a(lib_a-sf_scalbn.o)
 .data          0x0000000000000000        0x0 /opt/homebrew-cask/Caskroom/gcc-arm-embedded/5_2-2015q4,20151219/gcc-arm-none-eabi-5_2-2015q4/bin/../lib/gcc/arm-none-eabi/5.2.1/../../../../arm-none-eabi/lib/armv7e-m/fpu/libm.a(lib_a-sf_scalbn.o)
 .bss           0x0000000000000000        0x0 /opt/homebrew-cask/Caskroom/gcc-arm-embedded/5_2-2015q4,20151219/gcc-arm-none-eabi-5_2-2015q4/bin/../lib/gcc/arm-none-eabi/5.2.1/../../../../arm-none-eabi/lib/armv7e-m/fpu/libm.a(lib_a-sf_scalbn.o)
 .text          0x0000000000000000        0x0 /opt/homebrew-cask/Caskroom/gcc-arm-embedded/5_2-2015q4,20151219/gcc-arm-none-eabi-5_2-2015q4/bin/../lib/gcc/arm-none-eabi/5.2.1/../../../../arm-none-eabi/lib/armv7e-m/fpu/libm.a(lib_a-s_copysign.o)
 .data          0x0000000000000000        0x0 /opt/homebrew-cask/Caskroom/gcc-arm-embedded/5_2-2015q4,20151219/gcc-arm-none-eabi-5_2-2015q4/bin/../lib/gcc/arm-none-eabi/5.2.1/../../../../arm-none-eabi/lib/armv7e-m/fpu/libm.a(lib_a-s_copysign.o)
 .bss           0x0000000000000000        0x0 /opt/homebrew-cask/Caskroom/gcc-arm-embedded/5_2-2015q4,20151219/gcc-arm-none-eabi-5_2-2015q4/bin/../lib/gcc/arm-none-eabi/5.2.1/../../../../arm-none-eabi/lib/armv7e-m/fpu/libm.a(lib_a-s_copysign.o)
 .text          0x0000000000000000        0x0 /opt/homebrew-cask/Caskroom/gcc-arm-embedded/5_2-2015q4,20151219/gcc-arm-none-eabi-5_2-2015q4/bin/../lib/gcc/arm-none-eabi/5.2.1/../../../../arm-none-eabi/lib/armv7e-m/fpu/libm.a(lib_a-sf_copysign.o)
 .data          0x0000000000000000        0x0 /opt/homebrew-cask/Caskroom/gcc-arm-embedded/5_2-2015q4,20151219/gcc-arm-none-eabi-5_2-2015q4/bin/../lib/gcc/arm-none-eabi/5.2.1/../../../../arm-none-eabi/lib/armv7e-m/fpu/libm.a(lib_a-sf_copysign.o)
 .bss           0x0000000000000000        0x0 /opt/homebrew-cask/Caskroom/gcc-arm-embedded/5_2-2015q4,20151219/gcc-arm-none-eabi-5_2-2015q4/bin/../lib/gcc/arm-none-eabi/5.2.1/../../../../arm-none-eabi/lib/armv7e-m/fpu/libm.a(lib_a-sf_copysign.o)
 .data          0x0000000000000000        0x0 /opt/homebrew-cask/Caskroom/gcc-arm-embedded/5_2-2015q4,20151219/gcc-arm-none-eabi-5_2-2015q4/bin/../lib/gcc/arm-none-eabi/5.2.1/armv7e-m/fpu/libgcc.a(_arm_addsubdf3.o)
 .bss           0x0000000000000000        0x0 /opt/homebrew-cask/Caskroom/gcc-arm-embedded/5_2-2015q4,20151219/gcc-arm-none-eabi-5_2-2015q4/bin/../lib/gcc/arm-none-eabi/5.2.1/armv7e-m/fpu/libgcc.a(_arm_addsubdf3.o)
 .data          0x0000000000000000        0x0 /opt/homebrew-cask/Caskroom/gcc-arm-embedded/5_2-2015q4,20151219/gcc-arm-none-eabi-5_2-2015q4/bin/../lib/gcc/arm-none-eabi/5.2.1/armv7e-m/fpu/libgcc.a(_arm_muldivdf3.o)
 .bss           0x0000000000000000        0x0 /opt/homebrew-cask/Caskroom/gcc-arm-embedded/5_2-2015q4,20151219/gcc-arm-none-eabi-5_2-2015q4/bin/../lib/gcc/arm-none-eabi/5.2.1/armv7e-m/fpu/libgcc.a(_arm_muldivdf3.o)
 .data          0x0000000000000000        0x0 /opt/homebrew-cask/Caskroom/gcc-arm-embedded/5_2-2015q4,20151219/gcc-arm-none-eabi-5_2-2015q4/bin/../lib/gcc/arm-none-eabi/5.2.1/armv7e-m/fpu/libgcc.a(_arm_cmpdf2.o)
 .bss           0x0000000000000000        0x0 /opt/homebrew-cask/Caskroom/gcc-arm-embedded/5_2-2015q4,20151219/gcc-arm-none-eabi-5_2-2015q4/bin/../lib/gcc/arm-none-eabi/5.2.1/armv7e-m/fpu/libgcc.a(_arm_cmpdf2.o)
 .data          0x0000000000000000        0x0 /opt/homebrew-cask/Caskroom/gcc-arm-embedded/5_2-2015q4,20151219/gcc-arm-none-eabi-5_2-2015q4/bin/../lib/gcc/arm-none-eabi/5.2.1/armv7e-m/fpu/libgcc.a(_arm_fixdfsi.o)
 .bss           0x0000000000000000        0x0 /opt/homebrew-cask/Caskroom/gcc-arm-embedded/5_2-2015q4,20151219/gcc-arm-none-eabi-5_2-2015q4/bin/../lib/gcc/arm-none-eabi/5.2.1/armv7e-m/fpu/libgcc.a(_arm_fixdfsi.o)
 .data          0x0000000000000000        0x0 /opt/homebrew-cask/Caskroom/gcc-arm-embedded/5_2-2015q4,20151219/gcc-arm-none-eabi-5_2-2015q4/bin/../lib/gcc/arm-none-eabi/5.2.1/armv7e-m/fpu/libgcc.a(_arm_truncdfsf2.o)
 .bss           0x0000000000000000        0x0 /opt/homebrew-cask/Caskroom/gcc-arm-embedded/5_2-2015q4,20151219/gcc-arm-none-eabi-5_2-2015q4/bin/../lib/gcc/arm-none-eabi/5.2.1/armv7e-m/fpu/libgcc.a(_arm_truncdfsf2.o)
 .text          0x0000000000000000        0x0 /opt/homebrew-cask/Caskroom/gcc-arm-embedded/5_2-2015q4,20151219/gcc-arm-none-eabi-5_2-2015q4/bin/../lib/gcc/arm-none-eabi/5.2.1/../../../../arm-none-eabi/lib/armv7e-m/fpu/libg.a(lib_a-errno.o)
 .data          0x0000000000000000        0x0 /opt/homebrew-cask/Caskroom/gcc-arm-embedded/5_2-2015q4,20151219/gcc-arm-none-eabi-5_2-2015q4/bin/../lib/gcc/arm-none-eabi/5.2.1/../../../../arm-none-eabi/lib/armv7e-m/fpu/libg.a(lib_a-errno.o)
 .bss           0x0000000000000000        0x0 /opt/homebrew-cask/Caskroom/gcc-arm-embedded/5_2-2015q4,20151219/gcc-arm-none-eabi-5_2-2015q4/bin/../lib/gcc/arm-none-eabi/5.2.1/../../../../arm-none-eabi/lib/armv7e-m/fpu/libg.a(lib_a-errno.o)
 .text          0x0000000000000000        0x0 /opt/homebrew-cask/Caskroom/gcc-arm-embedded/5_2-2015q4,20151219/gcc-arm-none-eabi-5_2-2015q4/bin/../lib/gcc/arm-none-eabi/5.2.1/../../../../arm-none-eabi/lib/armv7e-m/fpu/libg.a(lib_a-impure.o)
 .data          0x0000000000000000        0x0 /opt/homebrew-cask/Caskroom/gcc-arm-embedded/5_2-2015q4,20151219/gcc-arm-none-eabi-5_2-2015q4/bin/../lib/gcc/arm-none-eabi/5.2.1/../../../../arm-none-eabi/lib/armv7e-m/fpu/libg.a(lib_a-impure.o)
 .bss           0x0000000000000000        0x0 /opt/homebrew-cask/Caskroom/gcc-arm-embedded/5_2-2015q4,20151219/gcc-arm-none-eabi-5_2-2015q4/bin/../lib/gcc/arm-none-eabi/5.2.1/../../../../arm-none-eabi/lib/armv7e-m/fpu/libg.a(lib_a-impure.o)
 .rodata._global_impure_ptr
                0x0000000000000000        0x4 /opt/homebrew-cask/Caskroom/gcc-arm-embedded/5_2-2015q4,20151219/gcc-arm-none-eabi-5_2-2015q4/bin/../lib/gcc/arm-none-eabi/5.2.1/../../../../arm-none-eabi/lib/armv7e-m/fpu/libg.a(lib_a-impure.o)
 .data          0x0000000000000000        0x0 /opt/homebrew-cask/Caskroom/gcc-arm-embedded/5_2-2015q4,20151219/gcc-arm-none-eabi-5_2-2015q4/bin/../lib/gcc/arm-none-eabi/5.2.1/../../../../arm-none-eabi/lib/armv7e-m/fpu/libg.a(lib_a-memcpy.o)
 .bss           0x0000000000000000        0x0 /opt/homebrew-cask/Caskroom/gcc-arm-embedded/5_2-2015q4,20151219/gcc-arm-none-eabi-5_2-2015q4/bin/../lib/gcc/arm-none-eabi/5.2.1/../../../../arm-none-eabi/lib/armv7e-m/fpu/libg.a(lib_a-memcpy.o)
 .text          0x0000000000000000        0x0 /opt/homebrew-cask/Caskroom/gcc-arm-embedded/5_2-2015q4,20151219/gcc-arm-none-eabi-5_2-2015q4/bin/../lib/gcc/arm-none-eabi/5.2.1/../../../../arm-none-eabi/lib/armv7e-m/fpu/libg.a(lib_a-memset.o)
 .data          0x0000000000000000        0x0 /opt/homebrew-cask/Caskroom/gcc-arm-embedded/5_2-2015q4,20151219/gcc-arm-none-eabi-5_2-2015q4/bin/../lib/gcc/arm-none-eabi/5.2.1/../../../../arm-none-eabi/lib/armv7e-m/fpu/libg.a(lib_a-memset.o)
 .bss           0x0000000000000000        0x0 /opt/homebrew-cask/Caskroom/gcc-arm-embedded/5_2-2015q4,20151219/gcc-arm-none-eabi-5_2-2015q4/bin/../lib/gcc/arm-none-eabi/5.2.1/../../../../arm-none-eabi/lib/armv7e-m/fpu/libg.a(lib_a-memset.o)
 .text.memset   0x0000000000000000       0x9c /opt/homebrew-cask/Caskroom/gcc-arm-embedded/5_2-2015q4,20151219/gcc-arm-none-eabi-5_2-2015q4/bin/../lib/gcc/arm-none-eabi/5.2.1/../../../../arm-none-eabi/lib/armv7e-m/fpu/libg.a(lib_a-memset.o)
 .debug_frame   0x0000000000000000       0x34 /opt/homebrew-cask/Caskroom/gcc-arm-embedded/5_2-2015q4,20151219/gcc-arm-none-eabi-5_2-2015q4/bin/../lib/gcc/arm-none-eabi/5.2.1/../../../../arm-none-eabi/lib/armv7e-m/fpu/libg.a(lib_a-memset.o)
 .ARM.attributes
                0x0000000000000000       0x34 /opt/homebrew-cask/Caskroom/gcc-arm-embedded/5_2-2015q4,20151219/gcc-arm-none-eabi-5_2-2015q4/bin/../lib/gcc/arm-none-eabi/5.2.1/../../../../arm-none-eabi/lib/armv7e-m/fpu/libg.a(lib_a-memset.o)
 .text          0x0000000000000000      0x2dc /opt/homebrew-cask/Caskroom/gcc-arm-embedded/5_2-2015q4,20151219/gcc-arm-none-eabi-5_2-2015q4/bin/../lib/gcc/arm-none-eabi/5.2.1/../../../../arm-none-eabi/lib/armv7e-m/fpu/libg.a(lib_a-strcmp.o)
 .data          0x0000000000000000        0x0 /opt/homebrew-cask/Caskroom/gcc-arm-embedded/5_2-2015q4,20151219/gcc-arm-none-eabi-5_2-2015q4/bin/../lib/gcc/arm-none-eabi/5.2.1/../../../../arm-none-eabi/lib/armv7e-m/fpu/libg.a(lib_a-strcmp.o)
 .bss           0x0000000000000000        0x0 /opt/homebrew-cask/Caskroom/gcc-arm-embedded/5_2-2015q4,20151219/gcc-arm-none-eabi-5_2-2015q4/bin/../lib/gcc/arm-none-eabi/5.2.1/../../../../arm-none-eabi/lib/armv7e-m/fpu/libg.a(lib_a-strcmp.o)
 .debug_frame   0x0000000000000000       0x68 /opt/homebrew-cask/Caskroom/gcc-arm-embedded/5_2-2015q4,20151219/gcc-arm-none-eabi-5_2-2015q4/bin/../lib/gcc/arm-none-eabi/5.2.1/../../../../arm-none-eabi/lib/armv7e-m/fpu/libg.a(lib_a-strcmp.o)
 .ARM.attributes
                0x0000000000000000       0x20 /opt/homebrew-cask/Caskroom/gcc-arm-embedded/5_2-2015q4,20151219/gcc-arm-none-eabi-5_2-2015q4/bin/../lib/gcc/arm-none-eabi/5.2.1/../../../../arm-none-eabi/lib/armv7e-m/fpu/libg.a(lib_a-strcmp.o)
 .text          0x0000000000000000        0x0 /opt/homebrew-cask/Caskroom/gcc-arm-embedded/5_2-2015q4,20151219/gcc-arm-none-eabi-5_2-2015q4/bin/../lib/gcc/arm-none-eabi/5.2.1/../../../../arm-none-eabi/lib/armv7e-m/fpu/libg.a(lib_a-strpbrk.o)
 .data          0x0000000000000000        0x0 /opt/homebrew-cask/Caskroom/gcc-arm-embedded/5_2-2015q4,20151219/gcc-arm-none-eabi-5_2-2015q4/bin/../lib/gcc/arm-none-eabi/5.2.1/../../../../arm-none-eabi/lib/armv7e-m/fpu/libg.a(lib_a-strpbrk.o)
 .bss           0x0000000000000000        0x0 /opt/homebrew-cask/Caskroom/gcc-arm-embedded/5_2-2015q4,20151219/gcc-arm-none-eabi-5_2-2015q4/bin/../lib/gcc/arm-none-eabi/5.2.1/../../../../arm-none-eabi/lib/armv7e-m/fpu/libg.a(lib_a-strpbrk.o)
 .text.strpbrk  0x0000000000000000       0x44 /opt/homebrew-cask/Caskroom/gcc-arm-embedded/5_2-2015q4,20151219/gcc-arm-none-eabi-5_2-2015q4/bin/../lib/gcc/arm-none-eabi/5.2.1/../../../../arm-none-eabi/lib/armv7e-m/fpu/libg.a(lib_a-strpbrk.o)
 .debug_frame   0x0000000000000000       0x34 /opt/homebrew-cask/Caskroom/gcc-arm-embedded/5_2-2015q4,20151219/gcc-arm-none-eabi-5_2-2015q4/bin/../lib/gcc/arm-none-eabi/5.2.1/../../../../arm-none-eabi/lib/armv7e-m/fpu/libg.a(lib_a-strpbrk.o)
 .ARM.attributes
                0x0000000000000000       0x34 /opt/homebrew-cask/Caskroom/gcc-arm-embedded/5_2-2015q4,20151219/gcc-arm-none-eabi-5_2-2015q4/bin/../lib/gcc/arm-none-eabi/5.2.1/../../../../arm-none-eabi/lib/armv7e-m/fpu/libg.a(lib_a-strpbrk.o)
 .text          0x0000000000000000        0x0 /opt/homebrew-cask/Caskroom/gcc-arm-embedded/5_2-2015q4,20151219/gcc-arm-none-eabi-5_2-2015q4/bin/../lib/gcc/arm-none-eabi/5.2.1/../../../../arm-none-eabi/lib/armv7e-m/fpu/libg.a(lib_a-strspn.o)
 .data          0x0000000000000000        0x0 /opt/homebrew-cask/Caskroom/gcc-arm-embedded/5_2-2015q4,20151219/gcc-arm-none-eabi-5_2-2015q4/bin/../lib/gcc/arm-none-eabi/5.2.1/../../../../arm-none-eabi/lib/armv7e-m/fpu/libg.a(lib_a-strspn.o)
 .bss           0x0000000000000000        0x0 /opt/homebrew-cask/Caskroom/gcc-arm-embedded/5_2-2015q4,20151219/gcc-arm-none-eabi-5_2-2015q4/bin/../lib/gcc/arm-none-eabi/5.2.1/../../../../arm-none-eabi/lib/armv7e-m/fpu/libg.a(lib_a-strspn.o)
 .text.strspn   0x0000000000000000       0x34 /opt/homebrew-cask/Caskroom/gcc-arm-embedded/5_2-2015q4,20151219/gcc-arm-none-eabi-5_2-2015q4/bin/../lib/gcc/arm-none-eabi/5.2.1/../../../../arm-none-eabi/lib/armv7e-m/fpu/libg.a(lib_a-strspn.o)
 .debug_frame   0x0000000000000000       0x34 /opt/homebrew-cask/Caskroom/gcc-arm-embedded/5_2-2015q4,20151219/gcc-arm-none-eabi-5_2-2015q4/bin/../lib/gcc/arm-none-eabi/5.2.1/../../../../arm-none-eabi/lib/armv7e-m/fpu/libg.a(lib_a-strspn.o)
 .ARM.attributes
                0x0000000000000000       0x34 /opt/homebrew-cask/Caskroom/gcc-arm-embedded/5_2-2015q4,20151219/gcc-arm-none-eabi-5_2-2015q4/bin/../lib/gcc/arm-none-eabi/5.2.1/../../../../arm-none-eabi/lib/armv7e-m/fpu/libg.a(lib_a-strspn.o)

Memory Configuration

Name             Origin             Length             Attributes
flash            0x0000000008000000 0x0000000000100000
ram0             0x0000000020000000 0x0000000000020000
ram1             0x0000000020000000 0x000000000001c000
ram2             0x000000002001c000 0x0000000000004000
ram3             0x0000000000000000 0x0000000000000000
ram4             0x0000000010000000 0x0000000000010000
ram5             0x0000000040024000 0x0000000000001000
ram6             0x0000000000000000 0x0000000000000000
ram7             0x0000000000000000 0x0000000000000000
*default*        0x0000000000000000 0xffffffffffffffff

Linker script and memory map

LOAD build/obj/crt0_v7m.o
LOAD build/obj/chcoreasm_v7m.o
LOAD build/obj/crt1.o
LOAD build/obj/vectors.o
LOAD build/obj/chsys.o
LOAD build/obj/chdebug.o
LOAD build/obj/chvt.o
LOAD build/obj/chschd.o
LOAD build/obj/chthreads.o
LOAD build/obj/chtm.o
LOAD build/obj/chdynamic.o
LOAD build/obj/chregistry.o
LOAD build/obj/chsem.o
LOAD build/obj/chmtx.o
LOAD build/obj/chcond.o
LOAD build/obj/chevents.o
LOAD build/obj/chmsg.o
LOAD build/obj/chmboxes.o
LOAD build/obj/chqueues.o
LOAD build/obj/chmemcore.o
LOAD build/obj/chheap.o
LOAD build/obj/chmempools.o
LOAD build/obj/chcore.o
LOAD build/obj/chcore_v7m.o
LOAD build/obj/osal.o
LOAD build/obj/hal.o
LOAD build/obj/st.o
LOAD build/obj/hal_buffers.o
LOAD build/obj/hal_queues.o
LOAD build/obj/hal_mmcsd.o
LOAD build/obj/ext.o
LOAD build/obj/i2c.o
LOAD build/obj/pal.o
LOAD build/obj/serial_usb.o
LOAD build/obj/spi.o
LOAD build/obj/usb.o
LOAD build/obj/nvic.o
LOAD build/obj/hal_lld.o
LOAD build/obj/stm32_dma.o
LOAD build/obj/st_lld.o
LOAD build/obj/ext_lld.o
LOAD build/obj/ext_lld_isr.o
LOAD build/obj/pal_lld.o
LOAD build/obj/i2c_lld.o
LOAD build/obj/usb_lld.o
LOAD build/obj/spi_lld.o
LOAD build/obj/board.o
LOAD build/obj/chprintf.o
LOAD build/obj/syscalls.o
LOAD build/obj/shell.o
LOAD build/obj/main.o
LOAD build/obj/as5x45.o
LOAD build/obj/as5x47.o
LOAD build/obj/comm_can.o
LOAD build/obj/comm_i2c.o
LOAD build/obj/comm_uart.o
LOAD build/obj/comm_usb.o
LOAD build/obj/comm.o
LOAD build/obj/controller.o
LOAD build/obj/encoder.o
LOAD build/obj/transforms.o
LOAD build/obj/ws2812b.o
LOAD build/obj/zsm.o
LOAD build/obj/misc.o
LOAD build/obj/stm32f4xx_adc.o
LOAD build/obj/stm32f4xx_dma.o
LOAD build/obj/stm32f4xx_exti.o
LOAD build/obj/stm32f4xx_flash.o
LOAD build/obj/stm32f4xx_rcc.o
LOAD build/obj/stm32f4xx_rng.o
LOAD build/obj/stm32f4xx_syscfg.o
LOAD build/obj/stm32f4xx_tim.o
LOAD build/obj/stm32f4xx_wwdg.o
                0x0000000020000000                __ram0_start__ = ORIGIN (ram0)
                0x0000000000020000                __ram0_size__ = LENGTH (ram0)
                0x0000000020020000                __ram0_end__ = (__ram0_start__ + __ram0_size__)
                0x0000000020000000                __ram1_start__ = ORIGIN (ram1)
                0x000000000001c000                __ram1_size__ = LENGTH (ram1)
                0x000000002001c000                __ram1_end__ = (__ram1_start__ + __ram1_size__)
                0x000000002001c000                __ram2_start__ = ORIGIN (ram2)
                0x0000000000004000                __ram2_size__ = LENGTH (ram2)
                0x0000000020020000                __ram2_end__ = (__ram2_start__ + __ram2_size__)
                0x0000000000000000                __ram3_start__ = ORIGIN (ram3)
                0x0000000000000000                __ram3_size__ = LENGTH (ram3)
                0x0000000000000000                __ram3_end__ = (__ram3_start__ + __ram3_size__)
                0x0000000010000000                __ram4_start__ = ORIGIN (ram4)
                0x0000000000010000                __ram4_size__ = LENGTH (ram4)
                0x0000000010010000                __ram4_end__ = (__ram4_start__ + __ram4_size__)
                0x0000000040024000                __ram5_start__ = ORIGIN (ram5)
                0x0000000000001000                __ram5_size__ = LENGTH (ram5)
                0x0000000040025000                __ram5_end__ = (__ram5_start__ + __ram5_size__)
                0x0000000000000000                __ram6_start__ = ORIGIN (ram6)
                0x0000000000000000                __ram6_size__ = LENGTH (ram6)
                0x0000000000000000                __ram6_end__ = (__ram6_start__ + __ram6_size__)
                0x0000000000000000                __ram7_start__ = ORIGIN (ram7)
                0x0000000000000000                __ram7_size__ = LENGTH (ram7)
                0x0000000000000000                __ram7_end__ = (__ram7_start__ + __ram7_size__)
                0x0000000000000000                . = 0x0
                0x0000000000000000                _text = .

startup         0x0000000008000000      0x1c0
 *(.vectors)
 .vectors       0x0000000008000000      0x1c0 build/obj/vectors.o
                0x0000000008000000                _vectors

constructors    0x00000000080001c0        0x0
                0x00000000080001c0                __init_array_start = .
 *(SORT(.init_array.*))
 *(.init_array)
                0x00000000080001c0                __init_array_end = .

destructors     0x00000000080001c0        0x0
                0x00000000080001c0                __fini_array_start = .
 *(.fini_array)
 *(SORT(.fini_array.*))
                0x00000000080001c0                __fini_array_end = .

.text           0x00000000080001c0     0x88c4
 *(.text)
 .text          0x00000000080001c0      0x108 build/obj/crt0_v7m.o
                0x00000000080001c0                Reset_Handler
 *fill*         0x00000000080002c8        0x8 
 .text          0x00000000080002d0       0x30 build/obj/chcoreasm_v7m.o
                0x00000000080002d0                _port_switch
                0x00000000080002e8                _port_thread_start
                0x00000000080002f8                _port_switch_from_isr
                0x00000000080002fc                _port_exit_from_isr
 .text          0x0000000008000300      0x370 /opt/homebrew-cask/Caskroom/gcc-arm-embedded/5_2-2015q4,20151219/gcc-arm-none-eabi-5_2-2015q4/bin/../lib/gcc/arm-none-eabi/5.2.1/armv7e-m/fpu/libgcc.a(_arm_addsubdf3.o)
                0x0000000008000300                __aeabi_drsub
                0x0000000008000308                __subdf3
                0x0000000008000308                __aeabi_dsub
                0x000000000800030c                __aeabi_dadd
                0x000000000800030c                __adddf3
                0x0000000008000584                __aeabi_ui2d
                0x0000000008000584                __floatunsidf
                0x00000000080005a4                __floatsidf
                0x00000000080005a4                __aeabi_i2d
                0x00000000080005c8                __extendsfdf2
                0x00000000080005c8                __aeabi_f2d
                0x0000000008000604                __aeabi_ul2d
                0x0000000008000604                __floatundidf
                0x0000000008000614                __aeabi_l2d
                0x0000000008000614                __floatdidf
 .text          0x0000000008000670      0x424 /opt/homebrew-cask/Caskroom/gcc-arm-embedded/5_2-2015q4,20151219/gcc-arm-none-eabi-5_2-2015q4/bin/../lib/gcc/arm-none-eabi/5.2.1/armv7e-m/fpu/libgcc.a(_arm_muldivdf3.o)
                0x0000000008000670                __aeabi_dmul
                0x0000000008000670                __muldf3
                0x00000000080008c4                __aeabi_ddiv
                0x00000000080008c4                __divdf3
 *fill*         0x0000000008000a94        0xc 
 .text          0x0000000008000aa0      0x110 /opt/homebrew-cask/Caskroom/gcc-arm-embedded/5_2-2015q4,20151219/gcc-arm-none-eabi-5_2-2015q4/bin/../lib/gcc/arm-none-eabi/5.2.1/armv7e-m/fpu/libgcc.a(_arm_cmpdf2.o)
                0x0000000008000aa0                __gtdf2
                0x0000000008000aa0                __gedf2
                0x0000000008000aa8                __ltdf2
                0x0000000008000aa8                __ledf2
                0x0000000008000ab0                __eqdf2
                0x0000000008000ab0                __nedf2
                0x0000000008000ab0                __cmpdf2
                0x0000000008000b2c                __aeabi_cdrcmple
                0x0000000008000b3c                __aeabi_cdcmple
                0x0000000008000b3c                __aeabi_cdcmpeq
                0x0000000008000b4c                __aeabi_dcmpeq
                0x0000000008000b60                __aeabi_dcmplt
                0x0000000008000b74                __aeabi_dcmple
                0x0000000008000b88                __aeabi_dcmpge
                0x0000000008000b9c                __aeabi_dcmpgt
 .text          0x0000000008000bb0       0x50 /opt/homebrew-cask/Caskroom/gcc-arm-embedded/5_2-2015q4,20151219/gcc-arm-none-eabi-5_2-2015q4/bin/../lib/gcc/arm-none-eabi/5.2.1/armv7e-m/fpu/libgcc.a(_arm_fixdfsi.o)
                0x0000000008000bb0                __fixdfsi
                0x0000000008000bb0                __aeabi_d2iz
 .text          0x0000000008000c00       0xa0 /opt/homebrew-cask/Caskroom/gcc-arm-embedded/5_2-2015q4,20151219/gcc-arm-none-eabi-5_2-2015q4/bin/../lib/gcc/arm-none-eabi/5.2.1/armv7e-m/fpu/libgcc.a(_arm_truncdfsf2.o)
                0x0000000008000c00                __aeabi_d2f
                0x0000000008000c00                __truncdfsf2
 .text          0x0000000008000ca0      0x134 /opt/homebrew-cask/Caskroom/gcc-arm-embedded/5_2-2015q4,20151219/gcc-arm-none-eabi-5_2-2015q4/bin/../lib/gcc/arm-none-eabi/5.2.1/../../../../arm-none-eabi/lib/armv7e-m/fpu/libg.a(lib_a-memcpy.o)
                0x0000000008000ca0                memcpy
 *(.text.*)
 *fill*         0x0000000008000dd4        0xc 
 .text.__core_init
                0x0000000008000de0        0x4 build/obj/crt1.o
                0x0000000008000de0                __core_init
 *fill*         0x0000000008000de4        0xc 
 .text.__late_init
                0x0000000008000df0        0x4 build/obj/crt1.o
                0x0000000008000df0                __late_init
 *fill*         0x0000000008000df4        0xc 
 .text.__default_exit
                0x0000000008000e00        0x4 build/obj/crt1.o
                0x0000000008000e00                __default_exit
 *fill*         0x0000000008000e04        0xc 
 .text.__init_ram_areas
                0x0000000008000e10       0x64 build/obj/crt1.o
                0x0000000008000e10                __init_ram_areas
 *fill*         0x0000000008000e74        0xc 
 .text._unhandled_exception
                0x0000000008000e80        0x4 build/obj/vectors.o
                0x0000000008000e80                Vector174
                0x0000000008000e80                DebugMon_Handler
                0x0000000008000e80                Vector1A0
                0x0000000008000e80                Vector11C
                0x0000000008000e80                HardFault_Handler
                0x0000000008000e80                Vector1B8
                0x0000000008000e80                Vector19C
                0x0000000008000e80                Vector8C
                0x0000000008000e80                VectorDC
                0x0000000008000e80                PendSV_Handler
                0x0000000008000e80                Vector168
                0x0000000008000e80                NMI_Handler
                0x0000000008000e80                Vector110
                0x0000000008000e80                VectorC8
                0x0000000008000e80                Vector94
                0x0000000008000e80                VectorA8
                0x0000000008000e80                VectorB4
                0x0000000008000e80                Vector160
                0x0000000008000e80                Vector1B0
                0x0000000008000e80                UsageFault_Handler
                0x0000000008000e80                VectorEC
                0x0000000008000e80                Vector40
                0x0000000008000e80                VectorF8
                0x0000000008000e80                Vector108
                0x0000000008000e80                Vector190
                0x0000000008000e80                Vector148
                0x0000000008000e80                Vector188
                0x0000000008000e80                Vector198
                0x0000000008000e80                Vector118
                0x0000000008000e80                VectorCC
                0x0000000008000e80                Vector54
                0x0000000008000e80                Vector98
                0x0000000008000e80                VectorD8
                0x0000000008000e80                Vector138
                0x0000000008000e80                Vector24
                0x0000000008000e80                Vector1AC
                0x0000000008000e80                Vector178
                0x0000000008000e80                Vector1A4
                0x0000000008000e80                VectorD0
                0x0000000008000e80                Vector1B4
                0x0000000008000e80                Vector140
                0x0000000008000e80                Vector134
                0x0000000008000e80                VectorF0
                0x0000000008000e80                Vector13C
                0x0000000008000e80                Vector100
                0x0000000008000e80                VectorF4
                0x0000000008000e80                MemManage_Handler
                0x0000000008000e80                VectorA0
                0x0000000008000e80                VectorC4
                0x0000000008000e80                Vector180
                0x0000000008000e80                VectorB0
                0x0000000008000e80                Vector90
                0x0000000008000e80                Vector114
                0x0000000008000e80                Vector164
                0x0000000008000e80                Vector1C
                0x0000000008000e80                Vector1BC
                0x0000000008000e80                Vector17C
                0x0000000008000e80                Vector1A8
                0x0000000008000e80                Vector16C
                0x0000000008000e80                VectorD4
                0x0000000008000e80                Vector144
                0x0000000008000e80                Vector15C
                0x0000000008000e80                _unhandled_exception
                0x0000000008000e80                Vector104
                0x0000000008000e80                Vector184
                0x0000000008000e80                Vector10C
                0x0000000008000e80                BusFault_Handler
                0x0000000008000e80                Vector50
                0x0000000008000e80                Vector194
                0x0000000008000e80                Vector28
                0x0000000008000e80                VectorB8
                0x0000000008000e80                Vector34
                0x0000000008000e80                VectorA4
                0x0000000008000e80                Vector20
                0x0000000008000e80                Vector18C
                0x0000000008000e80                VectorAC
 *fill*         0x0000000008000e84        0xc 
 .text._idle_thread
                0x0000000008000e90        0x4 build/obj/chsys.o
 *fill*         0x0000000008000e94        0xc 
 .text.chSysInit
                0x0000000008000ea0       0xa4 build/obj/chsys.o
                0x0000000008000ea0                chSysInit
 *fill*         0x0000000008000f44        0xc 
 .text.chSysHalt
                0x0000000008000f50        0xc build/obj/chsys.o
                0x0000000008000f50                chSysHalt
 *fill*         0x0000000008000f5c        0x4 
 .text.chSysTimerHandlerI
                0x0000000008000f60       0x58 build/obj/chsys.o
                0x0000000008000f60                chSysTimerHandlerI
 *fill*         0x0000000008000fb8        0x8 
 .text.chSysPolledDelayX
                0x0000000008000fc0       0x14 build/obj/chsys.o
                0x0000000008000fc0                chSysPolledDelayX
 *fill*         0x0000000008000fd4        0xc 
 .text._vt_init
                0x0000000008000fe0       0x1c build/obj/chvt.o
                0x0000000008000fe0                _vt_init
 *fill*         0x0000000008000ffc        0x4 
 .text.chVTDoSetI
                0x0000000008001000       0x3c build/obj/chvt.o
                0x0000000008001000                chVTDoSetI
 *fill*         0x000000000800103c        0x4 
 .text.chVTDoResetI
                0x0000000008001040       0x28 build/obj/chvt.o
                0x0000000008001040                chVTDoResetI
 *fill*         0x0000000008001068        0x8 
 .text.wakeup   0x0000000008001070       0x70 build/obj/chschd.o
 .text._scheduler_init
                0x00000000080010e0       0x14 build/obj/chschd.o
                0x00000000080010e0                _scheduler_init
 *fill*         0x00000000080010f4        0xc 
 .text.chSchReadyI
                0x0000000008001100       0x2c build/obj/chschd.o
                0x0000000008001100                chSchReadyI
 *fill*         0x000000000800112c        0x4 
 .text.chSchGoSleepS
                0x0000000008001130       0x28 build/obj/chschd.o
                0x0000000008001130                chSchGoSleepS
 *fill*         0x0000000008001158        0x8 
 .text.chSchGoSleepTimeoutS
                0x0000000008001160       0x44 build/obj/chschd.o
                0x0000000008001160                chSchGoSleepTimeoutS
 *fill*         0x00000000080011a4        0xc 
 .text.chSchWakeupS
                0x00000000080011b0       0x58 build/obj/chschd.o
                0x00000000080011b0                chSchWakeupS
 *fill*         0x0000000008001208        0x8 
 .text.chSchIsPreemptionRequired
                0x0000000008001210       0x28 build/obj/chschd.o
                0x0000000008001210                chSchIsPreemptionRequired
 *fill*         0x0000000008001238        0x8 
 .text.chSchDoRescheduleBehind
                0x0000000008001240       0x40 build/obj/chschd.o
                0x0000000008001240                chSchDoRescheduleBehind
 .text.chSchDoRescheduleAhead
                0x0000000008001280       0x3c build/obj/chschd.o
                0x0000000008001280                chSchDoRescheduleAhead
 *fill*         0x00000000080012bc        0x4 
 .text.chSchRescheduleS
                0x00000000080012c0       0x18 build/obj/chschd.o
                0x00000000080012c0                chSchRescheduleS
 *fill*         0x00000000080012d8        0x8 
 .text.chSchDoReschedule
                0x00000000080012e0       0x14 build/obj/chschd.o
                0x00000000080012e0                chSchDoReschedule
 *fill*         0x00000000080012f4        0xc 
 .text._thread_init
                0x0000000008001300       0x44 build/obj/chthreads.o
                0x0000000008001300                _thread_init
 *fill*         0x0000000008001344        0xc 
 .text.chThdCreateI
                0x0000000008001350       0x58 build/obj/chthreads.o
                0x0000000008001350                chThdCreateI
 *fill*         0x00000000080013a8        0x8 
 .text.chThdCreateStatic
                0x00000000080013b0       0x68 build/obj/chthreads.o
                0x00000000080013b0                chThdCreateStatic
 *fill*         0x0000000008001418        0x8 
 .text.chThdSleep
                0x0000000008001420       0x18 build/obj/chthreads.o
                0x0000000008001420                chThdSleep
 *fill*         0x0000000008001438        0x8 
 .text.chThdExitS
                0x0000000008001440       0x40 build/obj/chthreads.o
                0x0000000008001440                chThdExitS
 .text.chThdExit
                0x0000000008001480        0xc build/obj/chthreads.o
                0x0000000008001480                chThdExit
 *fill*         0x000000000800148c        0x4 
 .text.chThdSuspendS
                0x0000000008001490       0x1c build/obj/chthreads.o
                0x0000000008001490                chThdSuspendS
 *fill*         0x00000000080014ac        0x4 
 .text.chThdResumeI
                0x00000000080014b0       0x14 build/obj/chthreads.o
                0x00000000080014b0                chThdResumeI
 *fill*         0x00000000080014c4        0xc 
 .text.chThdEnqueueTimeoutS
                0x00000000080014d0       0x28 build/obj/chthreads.o
                0x00000000080014d0                chThdEnqueueTimeoutS
 *fill*         0x00000000080014f8        0x8 
 .text.chThdDequeueNextI
                0x0000000008001500       0x20 build/obj/chthreads.o
                0x0000000008001500                chThdDequeueNextI
 .text.chThdDequeueAllI
                0x0000000008001520       0x24 build/obj/chthreads.o
                0x0000000008001520                chThdDequeueAllI
 *fill*         0x0000000008001544        0xc 
 .text.chTMStartMeasurementX
                0x0000000008001550        0xc build/obj/chtm.o
                0x0000000008001550                chTMStartMeasurementX
 *fill*         0x000000000800155c        0x4 
 .text.chTMStopMeasurementX
                0x0000000008001560       0x44 build/obj/chtm.o
                0x0000000008001560                chTMStopMeasurementX
 *fill*         0x00000000080015a4        0xc 
 .text._tm_init
                0x00000000080015b0       0x38 build/obj/chtm.o
                0x00000000080015b0                _tm_init
 *fill*         0x00000000080015e8        0x8 
 .text.chMtxObjectInit
                0x00000000080015f0        0xc build/obj/chmtx.o
                0x00000000080015f0                chMtxObjectInit
 *fill*         0x00000000080015fc        0x4 
 .text.chEvtSignalI
                0x0000000008001600       0x28 build/obj/chevents.o
                0x0000000008001600                chEvtSignalI
 *fill*         0x0000000008001628        0x8 
 .text.chEvtBroadcastFlagsI
                0x0000000008001630       0x2c build/obj/chevents.o
                0x0000000008001630                chEvtBroadcastFlagsI
 *fill*         0x000000000800165c        0x4 
 .text._core_init
                0x0000000008001660       0x28 build/obj/chmemcore.o
                0x0000000008001660                _core_init
 *fill*         0x0000000008001688        0x8 
 .text.chCoreAlloc
                0x0000000008001690       0x38 build/obj/chmemcore.o
                0x0000000008001690                chCoreAlloc
 *fill*         0x00000000080016c8        0x8 
 .text._heap_init
                0x00000000080016d0       0x1c build/obj/chheap.o
                0x00000000080016d0                _heap_init
 *fill*         0x00000000080016ec        0x4 
 .text.SVC_Handler
                0x00000000080016f0       0x20 build/obj/chcore_v7m.o
                0x00000000080016f0                SVC_Handler
 .text._port_irq_epilogue
                0x0000000008001710       0x60 build/obj/chcore_v7m.o
                0x0000000008001710                _port_irq_epilogue
 .text.halInit  0x0000000008001770       0x30 build/obj/hal.o
                0x0000000008001770                halInit
 .text.stInit   0x00000000080017a0        0x4 build/obj/st.o
                0x00000000080017a0                stInit
 *fill*         0x00000000080017a4        0xc 
 .text.ibqObjectInit
                0x00000000080017b0       0x2c build/obj/hal_buffers.o
                0x00000000080017b0                ibqObjectInit
 *fill*         0x00000000080017dc        0x4 
 .text.ibqResetI
                0x00000000080017e0       0x18 build/obj/hal_buffers.o
                0x00000000080017e0                ibqResetI
 *fill*         0x00000000080017f8        0x8 
 .text.ibqGetEmptyBufferI
                0x0000000008001800       0x18 build/obj/hal_buffers.o
                0x0000000008001800                ibqGetEmptyBufferI
 *fill*         0x0000000008001818        0x8 
 .text.ibqPostFullBufferI
                0x0000000008001820       0x28 build/obj/hal_buffers.o
                0x0000000008001820                ibqPostFullBufferI
 *fill*         0x0000000008001848        0x8 
 .text.ibqGetFullBufferTimeoutS
                0x0000000008001850       0x2c build/obj/hal_buffers.o
                0x0000000008001850                ibqGetFullBufferTimeoutS
 *fill*         0x000000000800187c        0x4 
 .text.ibqGetTimeout
                0x0000000008001880       0x5c build/obj/hal_buffers.o
                0x0000000008001880                ibqGetTimeout
 *fill*         0x00000000080018dc        0x4 
 .text.ibqReadTimeout
                0x00000000080018e0      0x110 build/obj/hal_buffers.o
                0x00000000080018e0                ibqReadTimeout
 .text.obqObjectInit
                0x00000000080019f0       0x2c build/obj/hal_buffers.o
                0x00000000080019f0                obqObjectInit
 *fill*         0x0000000008001a1c        0x4 
 .text.obqResetI
                0x0000000008001a20       0x20 build/obj/hal_buffers.o
                0x0000000008001a20                obqResetI
 .text.obqGetFullBufferI
                0x0000000008001a40       0x1c build/obj/hal_buffers.o
                0x0000000008001a40                obqGetFullBufferI
 *fill*         0x0000000008001a5c        0x4 
 .text.obqReleaseEmptyBufferI
                0x0000000008001a60       0x28 build/obj/hal_buffers.o
                0x0000000008001a60                obqReleaseEmptyBufferI
 *fill*         0x0000000008001a88        0x8 
 .text.obqGetEmptyBufferTimeoutS
                0x0000000008001a90       0x2c build/obj/hal_buffers.o
                0x0000000008001a90                obqGetEmptyBufferTimeoutS
 *fill*         0x0000000008001abc        0x4 
 .text.obqPutTimeout
                0x0000000008001ac0       0x64 build/obj/hal_buffers.o
                0x0000000008001ac0                obqPutTimeout
 *fill*         0x0000000008001b24        0xc 
 .text.obqWriteTimeout
                0x0000000008001b30      0x110 build/obj/hal_buffers.o
                0x0000000008001b30                obqWriteTimeout
 .text.obqTryFlushI
                0x0000000008001c40       0x4c build/obj/hal_buffers.o
                0x0000000008001c40                obqTryFlushI
 *fill*         0x0000000008001c8c        0x4 
 .text.extInit  0x0000000008001c90        0x4 build/obj/ext.o
                0x0000000008001c90                extInit
 *fill*         0x0000000008001c94        0xc 
 .text.extObjectInit
                0x0000000008001ca0        0xc build/obj/ext.o
                0x0000000008001ca0                extObjectInit
 *fill*         0x0000000008001cac        0x4 
 .text.i2cInit  0x0000000008001cb0        0x4 build/obj/i2c.o
                0x0000000008001cb0                i2cInit
 *fill*         0x0000000008001cb4        0xc 
 .text.i2cObjectInit
                0x0000000008001cc0       0x10 build/obj/i2c.o
                0x0000000008001cc0                i2cObjectInit
 .text.obnotify
                0x0000000008001cd0       0x48 build/obj/serial_usb.o
 *fill*         0x0000000008001d18        0x8 
 .text.ibnotify
                0x0000000008001d20       0x48 build/obj/serial_usb.o
 *fill*         0x0000000008001d68        0x8 
 .text.readt    0x0000000008001d70       0x20 build/obj/serial_usb.o
 .text.writet   0x0000000008001d90       0x20 build/obj/serial_usb.o
 .text.gett     0x0000000008001db0       0x18 build/obj/serial_usb.o
 *fill*         0x0000000008001dc8        0x8 
 .text.get      0x0000000008001dd0       0x1c build/obj/serial_usb.o
 *fill*         0x0000000008001dec        0x4 
 .text.putt     0x0000000008001df0       0x18 build/obj/serial_usb.o
 *fill*         0x0000000008001e08        0x8 
 .text.put      0x0000000008001e10       0x1c build/obj/serial_usb.o
 *fill*         0x0000000008001e2c        0x4 
 .text.read     0x0000000008001e30       0x1c build/obj/serial_usb.o
 *fill*         0x0000000008001e4c        0x4 
 .text.write    0x0000000008001e50       0x1c build/obj/serial_usb.o
 *fill*         0x0000000008001e6c        0x4 
 .text.sduInit  0x0000000008001e70        0x4 build/obj/serial_usb.o
                0x0000000008001e70                sduInit
 *fill*         0x0000000008001e74        0xc 
 .text.sduObjectInit
                0x0000000008001e80       0x54 build/obj/serial_usb.o
                0x0000000008001e80                sduObjectInit
 *fill*         0x0000000008001ed4        0xc 
 .text.sduStart
                0x0000000008001ee0       0x34 build/obj/serial_usb.o
                0x0000000008001ee0                sduStart
 *fill*         0x0000000008001f14        0xc 
 .text.sduDisconnectI
                0x0000000008001f20       0x20 build/obj/serial_usb.o
                0x0000000008001f20                sduDisconnectI
 .text.sduConfigureHookI
                0x0000000008001f40       0x3c build/obj/serial_usb.o
                0x0000000008001f40                sduConfigureHookI
 *fill*         0x0000000008001f7c        0x4 
 .text.sduRequestsHook
                0x0000000008001f80       0x40 build/obj/serial_usb.o
                0x0000000008001f80                sduRequestsHook
 .text.sduSOFHookI
                0x0000000008001fc0       0x50 build/obj/serial_usb.o
                0x0000000008001fc0                sduSOFHookI
 .text.sduDataTransmitted
                0x0000000008002010       0x80 build/obj/serial_usb.o
                0x0000000008002010                sduDataTransmitted
 .text.sduDataReceived
                0x0000000008002090       0x58 build/obj/serial_usb.o
                0x0000000008002090                sduDataReceived
 *fill*         0x00000000080020e8        0x8 
 .text.sduInterruptTransmitted
                0x00000000080020f0        0x4 build/obj/serial_usb.o
                0x00000000080020f0                sduInterruptTransmitted
 *fill*         0x00000000080020f4        0xc 
 .text.spiInit  0x0000000008002100        0x4 build/obj/spi.o
                0x0000000008002100                spiInit
 *fill*         0x0000000008002104        0xc 
 .text.spiObjectInit
                0x0000000008002110       0x10 build/obj/spi.o
                0x0000000008002110                spiObjectInit
 .text.spiStart
                0x0000000008002120       0x1c build/obj/spi.o
                0x0000000008002120                spiStart
 *fill*         0x000000000800213c        0x4 
 .text.usbInit  0x0000000008002140        0x4 build/obj/usb.o
                0x0000000008002140                usbInit
 *fill*         0x0000000008002144        0xc 
 .text.usbObjectInit
                0x0000000008002150       0x1c build/obj/usb.o
                0x0000000008002150                usbObjectInit
 *fill*         0x000000000800216c        0x4 
 .text.usbStart
                0x0000000008002170       0x24 build/obj/usb.o
                0x0000000008002170                usbStart
 *fill*         0x0000000008002194        0xc 
 .text.usbInitEndpointI
                0x00000000080021a0       0x2c build/obj/usb.o
                0x00000000080021a0                usbInitEndpointI
 *fill*         0x00000000080021cc        0x4 
 .text.usbStartReceiveI
                0x00000000080021d0       0x2c build/obj/usb.o
                0x00000000080021d0                usbStartReceiveI
 *fill*         0x00000000080021fc        0x4 
 .text.usbStartTransmitI
                0x0000000008002200       0x2c build/obj/usb.o
                0x0000000008002200                usbStartTransmitI
 *fill*         0x000000000800222c        0x4 
 .text._usb_reset
                0x0000000008002230       0x3c build/obj/usb.o
                0x0000000008002230                _usb_reset
 *fill*         0x000000000800226c        0x4 
 .text._usb_suspend
                0x0000000008002270       0x10 build/obj/usb.o
                0x0000000008002270                _usb_suspend
 .text._usb_wakeup
                0x0000000008002280       0x10 build/obj/usb.o
                0x0000000008002280                _usb_wakeup
 .text._usb_ep0setup
                0x0000000008002290      0x34c build/obj/usb.o
                0x0000000008002290                _usb_ep0setup
 *fill*         0x00000000080025dc        0x4 
 .text._usb_ep0in
                0x00000000080025e0       0xc0 build/obj/usb.o
                0x00000000080025e0                _usb_ep0in
 .text._usb_ep0out
                0x00000000080026a0       0x88 build/obj/usb.o
                0x00000000080026a0                _usb_ep0out
 *fill*         0x0000000008002728        0x8 
 .text.nvicEnableVector
                0x0000000008002730       0x34 build/obj/nvic.o
                0x0000000008002730                nvicEnableVector
 *fill*         0x0000000008002764        0xc 
 .text.nvicSetSystemHandlerPriority
                0x0000000008002770       0x10 build/obj/nvic.o
                0x0000000008002770                nvicSetSystemHandlerPriority
 .text.hal_lld_init
                0x0000000008002780       0x68 build/obj/hal_lld.o
                0x0000000008002780                hal_lld_init
 *fill*         0x00000000080027e8        0x8 
 .text.stm32_clock_init
                0x00000000080027f0       0xc8 build/obj/hal_lld.o
                0x00000000080027f0                stm32_clock_init
 *fill*         0x00000000080028b8        0x8 
 .text.Vector6C
                0x00000000080028c0       0x28 build/obj/stm32_dma.o
                0x00000000080028c0                Vector6C
 *fill*         0x00000000080028e8        0x8 
 .text.Vector70
                0x00000000080028f0       0x2c build/obj/stm32_dma.o
                0x00000000080028f0                Vector70
 *fill*         0x000000000800291c        0x4 
 .text.Vector74
                0x0000000008002920       0x2c build/obj/stm32_dma.o
                0x0000000008002920                Vector74
 *fill*         0x000000000800294c        0x4 
 .text.Vector78
                0x0000000008002950       0x2c build/obj/stm32_dma.o
                0x0000000008002950                Vector78
 *fill*         0x000000000800297c        0x4 
 .text.Vector7C
                0x0000000008002980       0x28 build/obj/stm32_dma.o
                0x0000000008002980                Vector7C
 *fill*         0x00000000080029a8        0x8 
 .text.Vector80
                0x00000000080029b0       0x2c build/obj/stm32_dma.o
                0x00000000080029b0                Vector80
 *fill*         0x00000000080029dc        0x4 
 .text.Vector84
                0x00000000080029e0       0x2c build/obj/stm32_dma.o
                0x00000000080029e0                Vector84
 *fill*         0x0000000008002a0c        0x4 
 .text.VectorFC
                0x0000000008002a10       0x2c build/obj/stm32_dma.o
                0x0000000008002a10                VectorFC
 *fill*         0x0000000008002a3c        0x4 
 .text.Vector120
                0x0000000008002a40       0x28 build/obj/stm32_dma.o
                0x0000000008002a40                Vector120
 *fill*         0x0000000008002a68        0x8 
 .text.Vector124
                0x0000000008002a70       0x2c build/obj/stm32_dma.o
                0x0000000008002a70                Vector124
 *fill*         0x0000000008002a9c        0x4 
 .text.Vector128
                0x0000000008002aa0       0x2c build/obj/stm32_dma.o
                0x0000000008002aa0                Vector128
 *fill*         0x0000000008002acc        0x4 
 .text.Vector12C
                0x0000000008002ad0       0x2c build/obj/stm32_dma.o
                0x0000000008002ad0                Vector12C
 *fill*         0x0000000008002afc        0x4 
 .text.Vector130
                0x0000000008002b00       0x28 build/obj/stm32_dma.o
                0x0000000008002b00                Vector130
 *fill*         0x0000000008002b28        0x8 
 .text.Vector150
                0x0000000008002b30       0x2c build/obj/stm32_dma.o
                0x0000000008002b30                Vector150
 *fill*         0x0000000008002b5c        0x4 
 .text.Vector154
                0x0000000008002b60       0x2c build/obj/stm32_dma.o
                0x0000000008002b60                Vector154
 *fill*         0x0000000008002b8c        0x4 
 .text.Vector158
                0x0000000008002b90       0x2c build/obj/stm32_dma.o
                0x0000000008002b90                Vector158
 *fill*         0x0000000008002bbc        0x4 
 .text.dmaInit  0x0000000008002bc0       0x54 build/obj/stm32_dma.o
                0x0000000008002bc0                dmaInit
 *fill*         0x0000000008002c14        0xc 
 .text.dmaStreamAllocate
                0x0000000008002c20       0x8c build/obj/stm32_dma.o
                0x0000000008002c20                dmaStreamAllocate
 *fill*         0x0000000008002cac        0x4 
 .text.SysTick_Handler
                0x0000000008002cb0       0x1c build/obj/st_lld.o
                0x0000000008002cb0                SysTick_Handler
 *fill*         0x0000000008002ccc        0x4 
 .text.st_lld_init
                0x0000000008002cd0       0x1c build/obj/st_lld.o
                0x0000000008002cd0                st_lld_init
 *fill*         0x0000000008002cec        0x4 
 .text.ext_lld_init
                0x0000000008002cf0        0xc build/obj/ext_lld.o
                0x0000000008002cf0                ext_lld_init
 *fill*         0x0000000008002cfc        0x4 
 .text.Vector58
                0x0000000008002d00       0x2c build/obj/ext_lld_isr.o
                0x0000000008002d00                Vector58
 *fill*         0x0000000008002d2c        0x4 
 .text.Vector5C
                0x0000000008002d30       0x2c build/obj/ext_lld_isr.o
                0x0000000008002d30                Vector5C
 *fill*         0x0000000008002d5c        0x4 
 .text.Vector60
                0x0000000008002d60       0x2c build/obj/ext_lld_isr.o
                0x0000000008002d60                Vector60
 *fill*         0x0000000008002d8c        0x4 
 .text.Vector64
                0x0000000008002d90       0x2c build/obj/ext_lld_isr.o
                0x0000000008002d90                Vector64
 *fill*         0x0000000008002dbc        0x4 
 .text.Vector68
                0x0000000008002dc0       0x2c build/obj/ext_lld_isr.o
                0x0000000008002dc0                Vector68
 *fill*         0x0000000008002dec        0x4 
 .text.Vector9C
                0x0000000008002df0       0x70 build/obj/ext_lld_isr.o
                0x0000000008002df0                Vector9C
 .text.VectorE0
                0x0000000008002e60       0x80 build/obj/ext_lld_isr.o
                0x0000000008002e60                VectorE0
 .text.Vector44
                0x0000000008002ee0       0x2c build/obj/ext_lld_isr.o
                0x0000000008002ee0                Vector44
 *fill*         0x0000000008002f0c        0x4 
 .text.VectorE4
                0x0000000008002f10       0x2c build/obj/ext_lld_isr.o
                0x0000000008002f10                VectorE4
 *fill*         0x0000000008002f3c        0x4 
 .text.VectorE8
                0x0000000008002f40       0x30 build/obj/ext_lld_isr.o
                0x0000000008002f40                VectorE8
 .text.Vector170
                0x0000000008002f70       0x30 build/obj/ext_lld_isr.o
                0x0000000008002f70                Vector170
 .text.Vector48
                0x0000000008002fa0       0x30 build/obj/ext_lld_isr.o
                0x0000000008002fa0                Vector48
 .text.Vector4C
                0x0000000008002fd0       0x30 build/obj/ext_lld_isr.o
                0x0000000008002fd0                Vector4C
 .text._pal_lld_init
                0x0000000008003000      0x1ac build/obj/pal_lld.o
                0x0000000008003000                _pal_lld_init
 *fill*         0x00000000080031ac        0x4 
 .text._pal_lld_setgroupmode
                0x00000000080031b0       0xd0 build/obj/pal_lld.o
                0x00000000080031b0                _pal_lld_setgroupmode
 .text.VectorBC
                0x0000000008003280       0xf8 build/obj/i2c_lld.o
                0x0000000008003280                VectorBC
 *fill*         0x0000000008003378        0x8 
 .text.VectorC0
                0x0000000008003380       0xd8 build/obj/i2c_lld.o
                0x0000000008003380                VectorC0
 *fill*         0x0000000008003458        0x8 
 .text.i2c_lld_init
                0x0000000008003460       0x2c build/obj/i2c_lld.o
                0x0000000008003460                i2c_lld_init
 *fill*         0x000000000800348c        0x4 
 .text.usb_lld_pump
                0x0000000008003490      0x200 build/obj/usb_lld.o
                0x0000000008003490                usb_lld_pump
 .text.usb_lld_init
                0x0000000008003690       0x24 build/obj/usb_lld.o
                0x0000000008003690                usb_lld_init
 *fill*         0x00000000080036b4        0xc 
 .text.usb_lld_start
                0x00000000080036c0      0x124 build/obj/usb_lld.o
                0x00000000080036c0                usb_lld_start
 *fill*         0x00000000080037e4        0xc 
 .text.usb_lld_reset
                0x00000000080037f0       0xc0 build/obj/usb_lld.o
                0x00000000080037f0                usb_lld_reset
 .text.usb_lld_set_address
                0x00000000080038b0       0x18 build/obj/usb_lld.o
                0x00000000080038b0                usb_lld_set_address
 *fill*         0x00000000080038c8        0x8 
 .text.usb_lld_init_endpoint
                0x00000000080038d0      0x164 build/obj/usb_lld.o
                0x00000000080038d0                usb_lld_init_endpoint
 *fill*         0x0000000008003a34        0xc 
 .text.usb_lld_get_status_out
                0x0000000008003a40       0x1c build/obj/usb_lld.o
                0x0000000008003a40                usb_lld_get_status_out
 *fill*         0x0000000008003a5c        0x4 
 .text.usb_lld_get_status_in
                0x0000000008003a60       0x1c build/obj/usb_lld.o
                0x0000000008003a60                usb_lld_get_status_in
 *fill*         0x0000000008003a7c        0x4 
 .text.usb_lld_read_setup
                0x0000000008003a80       0x14 build/obj/usb_lld.o
                0x0000000008003a80                usb_lld_read_setup
 *fill*         0x0000000008003a94        0xc 
 .text.usb_lld_start_out
                0x0000000008003aa0       0x84 build/obj/usb_lld.o
                0x0000000008003aa0                usb_lld_start_out
 *fill*         0x0000000008003b24        0xc 
 .text.otg_epout_handler.constprop.9
                0x0000000008003b30       0x9c build/obj/usb_lld.o
 *fill*         0x0000000008003bcc        0x4 
 .text.usb_lld_start_in
                0x0000000008003bd0       0xac build/obj/usb_lld.o
                0x0000000008003bd0                usb_lld_start_in
 *fill*         0x0000000008003c7c        0x4 
 .text.otg_epin_handler.constprop.10
                0x0000000008003c80       0xb4 build/obj/usb_lld.o
 *fill*         0x0000000008003d34        0xc 
 .text.Vector14C
                0x0000000008003d40      0x264 build/obj/usb_lld.o
                0x0000000008003d40                Vector14C
 *fill*         0x0000000008003fa4        0xc 
 .text.usb_lld_stall_out
                0x0000000008003fb0       0x14 build/obj/usb_lld.o
                0x0000000008003fb0                usb_lld_stall_out
 *fill*         0x0000000008003fc4        0xc 
 .text.usb_lld_stall_in
                0x0000000008003fd0       0x14 build/obj/usb_lld.o
                0x0000000008003fd0                usb_lld_stall_in
 *fill*         0x0000000008003fe4        0xc 
 .text.usb_lld_clear_out
                0x0000000008003ff0       0x14 build/obj/usb_lld.o
                0x0000000008003ff0                usb_lld_clear_out
 *fill*         0x0000000008004004        0xc 
 .text.usb_lld_clear_in
                0x0000000008004010       0x14 build/obj/usb_lld.o
                0x0000000008004010                usb_lld_clear_in
 *fill*         0x0000000008004024        0xc 
 .text.spi_lld_serve_tx_interrupt
                0x0000000008004030       0x14 build/obj/spi_lld.o
 *fill*         0x0000000008004044        0xc 
 .text.spi_lld_serve_rx_interrupt
                0x0000000008004050       0x80 build/obj/spi_lld.o
 .text.spi_lld_init
                0x00000000080040d0       0x44 build/obj/spi_lld.o
                0x00000000080040d0                spi_lld_init
 *fill*         0x0000000008004114        0xc 
 .text.spi_lld_start
                0x0000000008004120       0x94 build/obj/spi_lld.o
                0x0000000008004120                spi_lld_start
 *fill*         0x00000000080041b4        0xc 
 .text.spi_lld_select
                0x00000000080041c0       0x10 build/obj/spi_lld.o
                0x00000000080041c0                spi_lld_select
 .text.spi_lld_unselect
                0x00000000080041d0       0x10 build/obj/spi_lld.o
                0x00000000080041d0                spi_lld_unselect
 .text.spi_lld_exchange
                0x00000000080041e0       0x38 build/obj/spi_lld.o
                0x00000000080041e0                spi_lld_exchange
 *fill*         0x0000000008004218        0x8 
 .text.spi_lld_send
                0x0000000008004220       0x38 build/obj/spi_lld.o
                0x0000000008004220                spi_lld_send
 *fill*         0x0000000008004258        0x8 
 .text.__early_init
                0x0000000008004260        0x4 build/obj/board.o
                0x0000000008004260                __early_init
 *fill*         0x0000000008004264        0xc 
 .text.boardInit
                0x0000000008004270        0x4 build/obj/board.o
                0x0000000008004270                boardInit
 *fill*         0x0000000008004274        0xc 
 .text.ch_ltoa  0x0000000008004280       0x44 build/obj/chprintf.o
 *fill*         0x00000000080042c4        0xc 
 .text.chvprintf
                0x00000000080042d0      0x4f0 build/obj/chprintf.o
                0x00000000080042d0                chvprintf
 .text.chprintf
                0x00000000080047c0       0x1c build/obj/chprintf.o
                0x00000000080047c0                chprintf
 *fill*         0x00000000080047dc        0x4 
 .text.led_update
                0x00000000080047e0       0x30 build/obj/main.o
 .text.startup.main
                0x0000000008004810       0x60 build/obj/main.o
                0x0000000008004810                main
 .text.spicb    0x0000000008004870       0x6c build/obj/as5x47.o
 *fill*         0x00000000080048dc        0x4 
 .text.as5x47_init
                0x00000000080048e0       0x90 build/obj/as5x47.o
                0x00000000080048e0                as5x47_init
 .text.as5x47_update_raw_position
                0x0000000008004970       0x38 build/obj/as5x47.o
                0x0000000008004970                as5x47_update_raw_position
 *fill*         0x00000000080049a8        0x8 
 .text.as5x47_get_angle
                0x00000000080049b0       0x34 build/obj/as5x47.o
                0x00000000080049b0                as5x47_get_angle
 *fill*         0x00000000080049e4        0xc 
 .text.comm_can_init
                0x00000000080049f0        0x4 build/obj/comm_can.o
                0x00000000080049f0                comm_can_init
 *fill*         0x00000000080049f4        0xc 
 .text.comm_can_update
                0x0000000008004a00        0x4 build/obj/comm_can.o
                0x0000000008004a00                comm_can_update
 *fill*         0x0000000008004a04        0xc 
 .text.get_descriptor
                0x0000000008004a10       0x30 build/obj/comm_usb.o
 .text.sof_handler
                0x0000000008004a40       0x1c build/obj/comm_usb.o
 *fill*         0x0000000008004a5c        0x4 
 .text.usb_event
                0x0000000008004a60       0x58 build/obj/comm_usb.o
 *fill*         0x0000000008004ab8        0x8 
 .text.comm_usb_serial_init
                0x0000000008004ac0       0x6c build/obj/comm_usb.o
                0x0000000008004ac0                comm_usb_serial_init
 *fill*         0x0000000008004b2c        0x4 
 .text.comm_usb_serial_is_active
                0x0000000008004b30       0x1c build/obj/comm_usb.o
                0x0000000008004b30                comm_usb_serial_is_active
 *fill*         0x0000000008004b4c        0x4 
 .text.comm_update
                0x0000000008004b50       0x20 build/obj/comm.o
 .text.comm_init
                0x0000000008004b70       0x28 build/obj/comm.o
                0x0000000008004b70                comm_init
 *fill*         0x0000000008004b98        0x8 
 .text.controller_init
                0x0000000008004ba0      0x2e0 build/obj/controller.o
                0x0000000008004ba0                controller_init
 .text.controller_print_adc
                0x0000000008004e80       0x30 build/obj/controller.o
                0x0000000008004e80                controller_print_adc
 .text.controller_apply_zsm
                0x0000000008004eb0        0x4 build/obj/controller.o
                0x0000000008004eb0                controller_apply_zsm
 *fill*         0x0000000008004eb4        0xc 
 .text.controller_update
                0x0000000008004ec0      0x110 build/obj/controller.o
                0x0000000008004ec0                controller_update
 .text.Vector88
                0x0000000008004fd0       0x28 build/obj/controller.o
                0x0000000008004fd0                Vector88
 *fill*         0x0000000008004ff8        0x8 
 .text.encoder_init
                0x0000000008005000        0x4 build/obj/encoder.o
                0x0000000008005000                encoder_init
 *fill*         0x0000000008005004        0xc 
 .text.encoder_get_angle
                0x0000000008005010       0x44 build/obj/encoder.o
                0x0000000008005010                encoder_get_angle
 *fill*         0x0000000008005054        0xc 
 .text.transforms_inverse_park
                0x0000000008005060      0x100 build/obj/transforms.o
                0x0000000008005060                transforms_inverse_park
 .text.transforms_inverse_clarke
                0x0000000008005160       0x58 build/obj/transforms.o
                0x0000000008005160                transforms_inverse_clarke
 *fill*         0x00000000080051b8        0x8 
 .text.ws2812b_init
                0x00000000080051c0      0x1bc build/obj/ws2812b.o
                0x00000000080051c0                ws2812b_init
 *fill*         0x000000000800537c        0x4 
 .text.ws2812b_set_all
                0x0000000008005380       0x5c build/obj/ws2812b.o
                0x0000000008005380                ws2812b_set_all
 *fill*         0x00000000080053dc        0x4 
 .text.zsm_sinusoidal
                0x00000000080053e0       0x40 build/obj/zsm.o
                0x00000000080053e0                zsm_sinusoidal
 .text.ADC_Init
                0x0000000008005420       0x50 build/obj/stm32f4xx_adc.o
                0x0000000008005420                ADC_Init
 .text.ADC_CommonInit
                0x0000000008005470       0x28 build/obj/stm32f4xx_adc.o
                0x0000000008005470                ADC_CommonInit
 *fill*         0x0000000008005498        0x8 
 .text.ADC_Cmd  0x00000000080054a0       0x14 build/obj/stm32f4xx_adc.o
                0x00000000080054a0                ADC_Cmd
 *fill*         0x00000000080054b4        0xc 
 .text.ADC_MultiModeDMARequestAfterLastTransferCmd
                0x00000000080054c0       0x1c build/obj/stm32f4xx_adc.o
                0x00000000080054c0                ADC_MultiModeDMARequestAfterLastTransferCmd
 *fill*         0x00000000080054dc        0x4 
 .text.ADC_InjectedChannelConfig
                0x00000000080054e0       0x58 build/obj/stm32f4xx_adc.o
                0x00000000080054e0                ADC_InjectedChannelConfig
 *fill*         0x0000000008005538        0x8 
 .text.ADC_InjectedSequencerLengthConfig
                0x0000000008005540       0x10 build/obj/stm32f4xx_adc.o
                0x0000000008005540                ADC_InjectedSequencerLengthConfig
 .text.ADC_ExternalTrigInjectedConvConfig
                0x0000000008005550        0xc build/obj/stm32f4xx_adc.o
                0x0000000008005550                ADC_ExternalTrigInjectedConvConfig
 *fill*         0x000000000800555c        0x4 
 .text.ADC_ExternalTrigInjectedConvEdgeConfig
                0x0000000008005560        0xc build/obj/stm32f4xx_adc.o
                0x0000000008005560                ADC_ExternalTrigInjectedConvEdgeConfig
 *fill*         0x000000000800556c        0x4 
 .text.ADC_GetInjectedConversionValue
                0x0000000008005570       0x1c build/obj/stm32f4xx_adc.o
                0x0000000008005570                ADC_GetInjectedConversionValue
 *fill*         0x000000000800558c        0x4 
 .text.ADC_ITConfig
                0x0000000008005590       0x18 build/obj/stm32f4xx_adc.o
                0x0000000008005590                ADC_ITConfig
 *fill*         0x00000000080055a8        0x8 
 .text.ADC_ClearITPendingBit
                0x00000000080055b0        0x8 build/obj/stm32f4xx_adc.o
                0x00000000080055b0                ADC_ClearITPendingBit
 *fill*         0x00000000080055b8        0x8 
 .text.DMA_DeInit
                0x00000000080055c0      0x130 build/obj/stm32f4xx_dma.o
                0x00000000080055c0                DMA_DeInit
 .text.DMA_Init
                0x00000000080056f0       0x58 build/obj/stm32f4xx_dma.o
                0x00000000080056f0                DMA_Init
 *fill*         0x0000000008005748        0x8 
 .text.DMA_Cmd  0x0000000008005750       0x14 build/obj/stm32f4xx_dma.o
                0x0000000008005750                DMA_Cmd
 *fill*         0x0000000008005764        0xc 
 .text.RCC_AHB1PeriphClockCmd
                0x0000000008005770       0x1c build/obj/stm32f4xx_rcc.o
                0x0000000008005770                RCC_AHB1PeriphClockCmd
 *fill*         0x000000000800578c        0x4 
 .text.RCC_APB1PeriphClockCmd
                0x0000000008005790       0x1c build/obj/stm32f4xx_rcc.o
                0x0000000008005790                RCC_APB1PeriphClockCmd
 *fill*         0x00000000080057ac        0x4 
 .text.RCC_APB2PeriphClockCmd
                0x00000000080057b0       0x1c build/obj/stm32f4xx_rcc.o
                0x00000000080057b0                RCC_APB2PeriphClockCmd
 *fill*         0x00000000080057cc        0x4 
 .text.RCC_APB1PeriphResetCmd
                0x00000000080057d0       0x1c build/obj/stm32f4xx_rcc.o
                0x00000000080057d0                RCC_APB1PeriphResetCmd
 *fill*         0x00000000080057ec        0x4 
 .text.RCC_APB2PeriphResetCmd
                0x00000000080057f0       0x1c build/obj/stm32f4xx_rcc.o
                0x00000000080057f0                RCC_APB2PeriphResetCmd
 *fill*         0x000000000800580c        0x4 
 .text.TIM_DeInit
                0x0000000008005810      0x1b8 build/obj/stm32f4xx_tim.o
                0x0000000008005810                TIM_DeInit
 *fill*         0x00000000080059c8        0x8 
 .text.TIM_TimeBaseInit
                0x00000000080059d0       0x98 build/obj/stm32f4xx_tim.o
                0x00000000080059d0                TIM_TimeBaseInit
 *fill*         0x0000000008005a68        0x8 
 .text.TIM_ARRPreloadConfig
                0x0000000008005a70       0x18 build/obj/stm32f4xx_tim.o
                0x0000000008005a70                TIM_ARRPreloadConfig
 *fill*         0x0000000008005a88        0x8 
 .text.TIM_Cmd  0x0000000008005a90       0x18 build/obj/stm32f4xx_tim.o
                0x0000000008005a90                TIM_Cmd
 *fill*         0x0000000008005aa8        0x8 
 .text.TIM_OC1Init
                0x0000000008005ab0       0x74 build/obj/stm32f4xx_tim.o
                0x0000000008005ab0                TIM_OC1Init
 *fill*         0x0000000008005b24        0xc 
 .text.TIM_OC2Init
                0x0000000008005b30       0x80 build/obj/stm32f4xx_tim.o
                0x0000000008005b30                TIM_OC2Init
 .text.TIM_OC3Init
                0x0000000008005bb0       0x84 build/obj/stm32f4xx_tim.o
                0x0000000008005bb0                TIM_OC3Init
 *fill*         0x0000000008005c34        0xc 
 .text.TIM_OC4Init
                0x0000000008005c40       0x68 build/obj/stm32f4xx_tim.o
                0x0000000008005c40                TIM_OC4Init
 *fill*         0x0000000008005ca8        0x8 
 .text.TIM_OC1PreloadConfig
                0x0000000008005cb0       0x10 build/obj/stm32f4xx_tim.o
                0x0000000008005cb0                TIM_OC1PreloadConfig
 .text.TIM_OC2PreloadConfig
                0x0000000008005cc0       0x14 build/obj/stm32f4xx_tim.o
                0x0000000008005cc0                TIM_OC2PreloadConfig
 *fill*         0x0000000008005cd4        0xc 
 .text.TIM_OC3PreloadConfig
                0x0000000008005ce0       0x10 build/obj/stm32f4xx_tim.o
                0x0000000008005ce0                TIM_OC3PreloadConfig
 .text.TIM_OC4PreloadConfig
                0x0000000008005cf0       0x14 build/obj/stm32f4xx_tim.o
                0x0000000008005cf0                TIM_OC4PreloadConfig
 *fill*         0x0000000008005d04        0xc 
 .text.TIM_BDTRConfig
                0x0000000008005d10       0x28 build/obj/stm32f4xx_tim.o
                0x0000000008005d10                TIM_BDTRConfig
 *fill*         0x0000000008005d38        0x8 
 .text.TIM_CtrlPWMOutputs
                0x0000000008005d40       0x14 build/obj/stm32f4xx_tim.o
                0x0000000008005d40                TIM_CtrlPWMOutputs
 *fill*         0x0000000008005d54        0xc 
 .text.TIM_CCPreloadControl
                0x0000000008005d60       0x18 build/obj/stm32f4xx_tim.o
                0x0000000008005d60                TIM_CCPreloadControl
 *fill*         0x0000000008005d78        0x8 
 .text.TIM_DMACmd
                0x0000000008005d80       0x18 build/obj/stm32f4xx_tim.o
                0x0000000008005d80                TIM_DMACmd
 *fill*         0x0000000008005d98        0x8 
 .text.cos      0x0000000008005da0       0xc0 /opt/homebrew-cask/Caskroom/gcc-arm-embedded/5_2-2015q4,20151219/gcc-arm-none-eabi-5_2-2015q4/bin/../lib/gcc/arm-none-eabi/5.2.1/../../../../arm-none-eabi/lib/armv7e-m/fpu/libm.a(lib_a-s_cos.o)
                0x0000000008005da0                cos
 .text.sin      0x0000000008005e60       0xc0 /opt/homebrew-cask/Caskroom/gcc-arm-embedded/5_2-2015q4,20151219/gcc-arm-none-eabi-5_2-2015q4/bin/../lib/gcc/arm-none-eabi/5.2.1/../../../../arm-none-eabi/lib/armv7e-m/fpu/libm.a(lib_a-s_sin.o)
                0x0000000008005e60                sin
 .text.roundf   0x0000000008005f20       0x60 /opt/homebrew-cask/Caskroom/gcc-arm-embedded/5_2-2015q4,20151219/gcc-arm-none-eabi-5_2-2015q4/bin/../lib/gcc/arm-none-eabi/5.2.1/../../../../arm-none-eabi/lib/armv7e-m/fpu/libm.a(lib_a-sf_round.o)
                0x0000000008005f20                roundf
 .text.fmod     0x0000000008005f80       0xcc /opt/homebrew-cask/Caskroom/gcc-arm-embedded/5_2-2015q4,20151219/gcc-arm-none-eabi-5_2-2015q4/bin/../lib/gcc/arm-none-eabi/5.2.1/../../../../arm-none-eabi/lib/armv7e-m/fpu/libm.a(lib_a-w_fmod.o)
                0x0000000008005f80                fmod
 *fill*         0x000000000800604c        0x4 
 .text.powf     0x0000000008006050      0x354 /opt/homebrew-cask/Caskroom/gcc-arm-embedded/5_2-2015q4,20151219/gcc-arm-none-eabi-5_2-2015q4/bin/../lib/gcc/arm-none-eabi/5.2.1/../../../../arm-none-eabi/lib/armv7e-m/fpu/libm.a(lib_a-wf_pow.o)
                0x0000000008006050                powf
 *fill*         0x00000000080063a4        0xc 
 .text.__ieee754_fmod
                0x00000000080063b0      0x274 /opt/homebrew-cask/Caskroom/gcc-arm-embedded/5_2-2015q4,20151219/gcc-arm-none-eabi-5_2-2015q4/bin/../lib/gcc/arm-none-eabi/5.2.1/../../../../arm-none-eabi/lib/armv7e-m/fpu/libm.a(lib_a-e_fmod.o)
                0x00000000080063b0                __ieee754_fmod
 *fill*         0x0000000008006624        0xc 
 .text.__ieee754_rem_pio2
                0x0000000008006630      0x44c /opt/homebrew-cask/Caskroom/gcc-arm-embedded/5_2-2015q4,20151219/gcc-arm-none-eabi-5_2-2015q4/bin/../lib/gcc/arm-none-eabi/5.2.1/../../../../arm-none-eabi/lib/armv7e-m/fpu/libm.a(lib_a-e_rem_pio2.o)
                0x0000000008006630                __ieee754_rem_pio2
 *fill*         0x0000000008006a7c        0x4 
 .text.__ieee754_powf
                0x0000000008006a80      0x5fc /opt/homebrew-cask/Caskroom/gcc-arm-embedded/5_2-2015q4,20151219/gcc-arm-none-eabi-5_2-2015q4/bin/../lib/gcc/arm-none-eabi/5.2.1/../../../../arm-none-eabi/lib/armv7e-m/fpu/libm.a(lib_a-ef_pow.o)
                0x0000000008006a80                __ieee754_powf
 *fill*         0x000000000800707c        0x4 
 .text.__ieee754_sqrtf
                0x0000000008007080       0xa4 /opt/homebrew-cask/Caskroom/gcc-arm-embedded/5_2-2015q4,20151219/gcc-arm-none-eabi-5_2-2015q4/bin/../lib/gcc/arm-none-eabi/5.2.1/../../../../arm-none-eabi/lib/armv7e-m/fpu/libm.a(lib_a-ef_sqrt.o)
                0x0000000008007080                __ieee754_sqrtf
 *fill*         0x0000000008007124        0xc 
 .text.__kernel_cos
                0x0000000008007130      0x284 /opt/homebrew-cask/Caskroom/gcc-arm-embedded/5_2-2015q4,20151219/gcc-arm-none-eabi-5_2-2015q4/bin/../lib/gcc/arm-none-eabi/5.2.1/../../../../arm-none-eabi/lib/armv7e-m/fpu/libm.a(lib_a-k_cos.o)
                0x0000000008007130                __kernel_cos
 *fill*         0x00000000080073b4        0xc 
 .text.__kernel_rem_pio2
                0x00000000080073c0      0x820 /opt/homebrew-cask/Caskroom/gcc-arm-embedded/5_2-2015q4,20151219/gcc-arm-none-eabi-5_2-2015q4/bin/../lib/gcc/arm-none-eabi/5.2.1/../../../../arm-none-eabi/lib/armv7e-m/fpu/libm.a(lib_a-k_rem_pio2.o)
                0x00000000080073c0                __kernel_rem_pio2
 .text.__kernel_sin
                0x0000000008007be0      0x194 /opt/homebrew-cask/Caskroom/gcc-arm-embedded/5_2-2015q4,20151219/gcc-arm-none-eabi-5_2-2015q4/bin/../lib/gcc/arm-none-eabi/5.2.1/../../../../arm-none-eabi/lib/armv7e-m/fpu/libm.a(lib_a-k_sin.o)
                0x0000000008007be0                __kernel_sin
 *fill*         0x0000000008007d74        0xc 
 .text.fabs     0x0000000008007d80       0x10 /opt/homebrew-cask/Caskroom/gcc-arm-embedded/5_2-2015q4,20151219/gcc-arm-none-eabi-5_2-2015q4/bin/../lib/gcc/arm-none-eabi/5.2.1/../../../../arm-none-eabi/lib/armv7e-m/fpu/libm.a(lib_a-s_fabs.o)
                0x0000000008007d80                fabs
 .text.floor    0x0000000008007d90      0x120 /opt/homebrew-cask/Caskroom/gcc-arm-embedded/5_2-2015q4,20151219/gcc-arm-none-eabi-5_2-2015q4/bin/../lib/gcc/arm-none-eabi/5.2.1/../../../../arm-none-eabi/lib/armv7e-m/fpu/libm.a(lib_a-s_floor.o)
                0x0000000008007d90                floor
 .text.__fpclassifyd
                0x0000000008007eb0       0x5c /opt/homebrew-cask/Caskroom/gcc-arm-embedded/5_2-2015q4,20151219/gcc-arm-none-eabi-5_2-2015q4/bin/../lib/gcc/arm-none-eabi/5.2.1/../../../../arm-none-eabi/lib/armv7e-m/fpu/libm.a(lib_a-s_fpclassify.o)
                0x0000000008007eb0                __fpclassifyd
 *fill*         0x0000000008007f0c        0x4 
 .text.matherr  0x0000000008007f10        0x4 /opt/homebrew-cask/Caskroom/gcc-arm-embedded/5_2-2015q4,20151219/gcc-arm-none-eabi-5_2-2015q4/bin/../lib/gcc/arm-none-eabi/5.2.1/../../../../arm-none-eabi/lib/armv7e-m/fpu/libm.a(lib_a-s_matherr.o)
                0x0000000008007f10                matherr
 *fill*         0x0000000008007f14        0xc 
 .text.rint     0x0000000008007f20      0x128 /opt/homebrew-cask/Caskroom/gcc-arm-embedded/5_2-2015q4,20151219/gcc-arm-none-eabi-5_2-2015q4/bin/../lib/gcc/arm-none-eabi/5.2.1/../../../../arm-none-eabi/lib/armv7e-m/fpu/libm.a(lib_a-s_rint.o)
                0x0000000008007f20                rint
 *fill*         0x0000000008008048        0x8 
 .text.scalbn   0x0000000008008050      0x10c /opt/homebrew-cask/Caskroom/gcc-arm-embedded/5_2-2015q4,20151219/gcc-arm-none-eabi-5_2-2015q4/bin/../lib/gcc/arm-none-eabi/5.2.1/../../../../arm-none-eabi/lib/armv7e-m/fpu/libm.a(lib_a-s_scalbn.o)
                0x0000000008008050                scalbn
 *fill*         0x000000000800815c        0x4 
 .text.fabsf    0x0000000008008160       0x10 /opt/homebrew-cask/Caskroom/gcc-arm-embedded/5_2-2015q4,20151219/gcc-arm-none-eabi-5_2-2015q4/bin/../lib/gcc/arm-none-eabi/5.2.1/../../../../arm-none-eabi/lib/armv7e-m/fpu/libm.a(lib_a-sf_fabs.o)
                0x0000000008008160                fabsf
 .text.finitef  0x0000000008008170       0x14 /opt/homebrew-cask/Caskroom/gcc-arm-embedded/5_2-2015q4,20151219/gcc-arm-none-eabi-5_2-2015q4/bin/../lib/gcc/arm-none-eabi/5.2.1/../../../../arm-none-eabi/lib/armv7e-m/fpu/libm.a(lib_a-sf_finite.o)
                0x0000000008008170                finitef
 *fill*         0x0000000008008184        0xc 
 .text.__fpclassifyf
                0x0000000008008190       0x38 /opt/homebrew-cask/Caskroom/gcc-arm-embedded/5_2-2015q4,20151219/gcc-arm-none-eabi-5_2-2015q4/bin/../lib/gcc/arm-none-eabi/5.2.1/../../../../arm-none-eabi/lib/armv7e-m/fpu/libm.a(lib_a-sf_fpclassify.o)
                0x0000000008008190                __fpclassifyf
 *fill*         0x00000000080081c8        0x8 
 .text.nanf     0x00000000080081d0        0xc /opt/homebrew-cask/Caskroom/gcc-arm-embedded/5_2-2015q4,20151219/gcc-arm-none-eabi-5_2-2015q4/bin/../lib/gcc/arm-none-eabi/5.2.1/../../../../arm-none-eabi/lib/armv7e-m/fpu/libm.a(lib_a-sf_nan.o)
                0x00000000080081d0                nanf
 *fill*         0x00000000080081dc        0x4 
 .text.scalbnf  0x00000000080081e0       0xd0 /opt/homebrew-cask/Caskroom/gcc-arm-embedded/5_2-2015q4,20151219/gcc-arm-none-eabi-5_2-2015q4/bin/../lib/gcc/arm-none-eabi/5.2.1/../../../../arm-none-eabi/lib/armv7e-m/fpu/libm.a(lib_a-sf_scalbn.o)
                0x00000000080081e0                scalbnf
 .text.copysign
                0x00000000080082b0       0x1c /opt/homebrew-cask/Caskroom/gcc-arm-embedded/5_2-2015q4,20151219/gcc-arm-none-eabi-5_2-2015q4/bin/../lib/gcc/arm-none-eabi/5.2.1/../../../../arm-none-eabi/lib/armv7e-m/fpu/libm.a(lib_a-s_copysign.o)
                0x00000000080082b0                copysign
 *fill*         0x00000000080082cc        0x4 
 .text.copysignf
                0x00000000080082d0       0x18 /opt/homebrew-cask/Caskroom/gcc-arm-embedded/5_2-2015q4,20151219/gcc-arm-none-eabi-5_2-2015q4/bin/../lib/gcc/arm-none-eabi/5.2.1/../../../../arm-none-eabi/lib/armv7e-m/fpu/libm.a(lib_a-sf_copysign.o)
                0x00000000080082d0                copysignf
 *fill*         0x00000000080082e8        0x8 
 .text.__errno  0x00000000080082f0        0xc /opt/homebrew-cask/Caskroom/gcc-arm-embedded/5_2-2015q4,20151219/gcc-arm-none-eabi-5_2-2015q4/bin/../lib/gcc/arm-none-eabi/5.2.1/../../../../arm-none-eabi/lib/armv7e-m/fpu/libg.a(lib_a-errno.o)
                0x00000000080082f0                __errno
 *(.rodata)
 *(.rodata.*)
 *fill*         0x00000000080082fc        0x4 
 .rodata.ram_areas
                0x0000000008008300       0x80 build/obj/crt1.o
 .rodata.str1.4
                0x0000000008008380        0x5 build/obj/chsys.o
 *fill*         0x0000000008008385        0xb 
 .rodata.ch_debug
                0x0000000008008390       0x16 build/obj/chregistry.o
                0x0000000008008390                ch_debug
 *fill*         0x00000000080083a6        0xa 
 .rodata.vmt    0x00000000080083b0       0x20 build/obj/serial_usb.o
 .rodata.zero_status
                0x00000000080083d0        0x2 build/obj/usb.o
 *fill*         0x00000000080083d2        0xe 
 .rodata.active_status
                0x00000000080083e0        0x2 build/obj/usb.o
 *fill*         0x00000000080083e2        0xe 
 .rodata.halted_status
                0x00000000080083f0        0x2 build/obj/usb.o
 *fill*         0x00000000080083f2        0xe 
 .rodata._stm32_dma_streams
                0x0000000008008400       0xc0 build/obj/stm32_dma.o
                0x0000000008008400                _stm32_dma_streams
 .rodata.fsparams
                0x00000000080084c0        0xc build/obj/usb_lld.o
 *fill*         0x00000000080084cc        0x4 
 .rodata.str1.4
                0x00000000080084d0        0xd build/obj/usb_lld.o
 *fill*         0x00000000080084dd        0x3 
 .rodata.ep0config
                0x00000000080084e0       0x24 build/obj/usb_lld.o
 *fill*         0x0000000008008504        0xc 
 .rodata.str1.4
                0x0000000008008510        0xc build/obj/spi_lld.o
 *fill*         0x000000000800851c        0x4 
 .rodata.pal_default_config
                0x0000000008008520       0xfc build/obj/board.o
                0x0000000008008520                pal_default_config
 *fill*         0x000000000800861c        0x4 
 .rodata.str1.4
                0x0000000008008620        0x7 build/obj/chprintf.o
 *fill*         0x0000000008008627        0x9 
 .rodata.pow10  0x0000000008008630       0x24 build/obj/chprintf.o
 *fill*         0x0000000008008654        0xc 
 .rodata.str1.4
                0x0000000008008660        0xb build/obj/main.o
 *fill*         0x000000000800866b        0x5 
 .rodata.encoderSPI
                0x0000000008008670        0xc build/obj/as5x47.o
 *fill*         0x000000000800867c        0x4 
 .rodata.ep1config
                0x0000000008008680       0x24 build/obj/comm_usb.o
 *fill*         0x00000000080086a4        0xc 
 .rodata.vcom_configuration_descriptor
                0x00000000080086b0        0x8 build/obj/comm_usb.o
 *fill*         0x00000000080086b8        0x8 
 .rodata.ep2config
                0x00000000080086c0       0x24 build/obj/comm_usb.o
 *fill*         0x00000000080086e4        0xc 
 .rodata.usbcfg
                0x00000000080086f0       0x10 build/obj/comm_usb.o
 .rodata.vcom_configuration_descriptor_data
                0x0000000008008700       0x43 build/obj/comm_usb.o
 *fill*         0x0000000008008743        0xd 
 .rodata.vcom_device_descriptor_data
                0x0000000008008750       0x12 build/obj/comm_usb.o
 *fill*         0x0000000008008762        0xe 
 .rodata.vcom_string0
                0x0000000008008770        0x4 build/obj/comm_usb.o
 *fill*         0x0000000008008774        0xc 
 .rodata.vcom_string1
                0x0000000008008780       0x26 build/obj/comm_usb.o
 *fill*         0x00000000080087a6        0xa 
 .rodata.vcom_string2
                0x00000000080087b0       0x38 build/obj/comm_usb.o
 *fill*         0x00000000080087e8        0x8 
 .rodata.vcom_string3
                0x00000000080087f0        0x8 build/obj/comm_usb.o
 *fill*         0x00000000080087f8        0x8 
 .rodata.vcom_strings
                0x0000000008008800       0x20 build/obj/comm_usb.o
 .rodata.serusbcfg
                0x0000000008008820        0x8 build/obj/comm_usb.o
                0x0000000008008820                serusbcfg
 *fill*         0x0000000008008828        0x8 
 .rodata.vcom_device_descriptor
                0x0000000008008830        0x8 build/obj/comm_usb.o
 *fill*         0x0000000008008838        0x8 
 .rodata.str1.4
                0x0000000008008840        0xc build/obj/comm.o
 *fill*         0x000000000800884c        0x4 
 .rodata.str1.4
                0x0000000008008850        0x4 build/obj/controller.o
 *fill*         0x0000000008008854        0xc 
 .rodata.str1.4
                0x0000000008008860        0x5 /opt/homebrew-cask/Caskroom/gcc-arm-embedded/5_2-2015q4,20151219/gcc-arm-none-eabi-5_2-2015q4/bin/../lib/gcc/arm-none-eabi/5.2.1/../../../../arm-none-eabi/lib/armv7e-m/fpu/libm.a(lib_a-w_fmod.o)
 *fill*         0x0000000008008865        0xb 
 .rodata.str1.4
                0x0000000008008870        0x5 /opt/homebrew-cask/Caskroom/gcc-arm-embedded/5_2-2015q4,20151219/gcc-arm-none-eabi-5_2-2015q4/bin/../lib/gcc/arm-none-eabi/5.2.1/../../../../arm-none-eabi/lib/armv7e-m/fpu/libm.a(lib_a-wf_pow.o)
 *fill*         0x0000000008008875        0xb 
 .rodata.Zero   0x0000000008008880       0x10 /opt/homebrew-cask/Caskroom/gcc-arm-embedded/5_2-2015q4,20151219/gcc-arm-none-eabi-5_2-2015q4/bin/../lib/gcc/arm-none-eabi/5.2.1/../../../../arm-none-eabi/lib/armv7e-m/fpu/libm.a(lib_a-e_fmod.o)
 .rodata.npio2_hw
                0x0000000008008890       0x80 /opt/homebrew-cask/Caskroom/gcc-arm-embedded/5_2-2015q4,20151219/gcc-arm-none-eabi-5_2-2015q4/bin/../lib/gcc/arm-none-eabi/5.2.1/../../../../arm-none-eabi/lib/armv7e-m/fpu/libm.a(lib_a-e_rem_pio2.o)
 .rodata.two_over_pi
                0x0000000008008910      0x108 /opt/homebrew-cask/Caskroom/gcc-arm-embedded/5_2-2015q4,20151219/gcc-arm-none-eabi-5_2-2015q4/bin/../lib/gcc/arm-none-eabi/5.2.1/../../../../arm-none-eabi/lib/armv7e-m/fpu/libm.a(lib_a-e_rem_pio2.o)
 .rodata.str1.4
                0x0000000008008a18        0x5 /opt/homebrew-cask/Caskroom/gcc-arm-embedded/5_2-2015q4,20151219/gcc-arm-none-eabi-5_2-2015q4/bin/../lib/gcc/arm-none-eabi/5.2.1/../../../../arm-none-eabi/lib/armv7e-m/fpu/libm.a(lib_a-ef_pow.o)
                                          0x1 (size before relaxing)
 *fill*         0x0000000008008a18        0x8 
 .rodata.init_jk
                0x0000000008008a20       0x10 /opt/homebrew-cask/Caskroom/gcc-arm-embedded/5_2-2015q4,20151219/gcc-arm-none-eabi-5_2-2015q4/bin/../lib/gcc/arm-none-eabi/5.2.1/../../../../arm-none-eabi/lib/armv7e-m/fpu/libm.a(lib_a-k_rem_pio2.o)
 .rodata.PIo2   0x0000000008008a30       0x40 /opt/homebrew-cask/Caskroom/gcc-arm-embedded/5_2-2015q4,20151219/gcc-arm-none-eabi-5_2-2015q4/bin/../lib/gcc/arm-none-eabi/5.2.1/../../../../arm-none-eabi/lib/armv7e-m/fpu/libm.a(lib_a-k_rem_pio2.o)
 .rodata.TWO52  0x0000000008008a70       0x10 /opt/homebrew-cask/Caskroom/gcc-arm-embedded/5_2-2015q4,20151219/gcc-arm-none-eabi-5_2-2015q4/bin/../lib/gcc/arm-none-eabi/5.2.1/../../../../arm-none-eabi/lib/armv7e-m/fpu/libm.a(lib_a-s_rint.o)
 .rodata.str1.4
                0x0000000008008a80        0x4 /opt/homebrew-cask/Caskroom/gcc-arm-embedded/5_2-2015q4,20151219/gcc-arm-none-eabi-5_2-2015q4/bin/../lib/gcc/arm-none-eabi/5.2.1/../../../../arm-none-eabi/lib/armv7e-m/fpu/libg.a(lib_a-impure.o)
                                          0x2 (size before relaxing)
 *(.glue_7t)
 .glue_7t       0x0000000008008a84        0x0 linker stubs
 *(.glue_7)
 .glue_7        0x0000000008008a84        0x0 linker stubs
 *(.gcc*)

.vfp11_veneer   0x0000000008008a84        0x0
 .vfp11_veneer  0x0000000008008a84        0x0 linker stubs

.v4_bx          0x0000000008008a84        0x0
 .v4_bx         0x0000000008008a84        0x0 linker stubs

.iplt           0x0000000008008a84        0x0
 .iplt          0x0000000008008a84        0x0 build/obj/crt0_v7m.o

.rel.dyn        0x0000000008008a84        0x0
 .rel.iplt      0x0000000008008a84        0x0 build/obj/crt0_v7m.o

.ARM.extab
 *(.ARM.extab* .gnu.linkonce.armextab.*)

.ARM.exidx      0x0000000008008a84        0x0
                0x0000000008008a84                __exidx_start = .
 *(.ARM.exidx* .gnu.linkonce.armexidx.*)
                0x0000000008008a84                __exidx_end = .

.eh_frame_hdr
 *(.eh_frame_hdr)

.eh_frame
 *(.eh_frame)

.textalign      0x0000000008008a84        0x4
                0x0000000008008a88                . = ALIGN (0x8)
 *fill*         0x0000000008008a84        0x4 
                0x0000000008008a88                . = ALIGN (0x4)
                [!provide]                        PROVIDE (_etext, .)

.mstack         0x0000000020000000      0x400
                0x0000000020000000                . = ALIGN (0x8)
                0x0000000020000000                __main_stack_base__ = .
                0x0000000020000400                . = (. + __main_stack_size__)
 *fill*         0x0000000020000000      0x400 
                0x0000000020000400                . = ALIGN (0x8)
                0x0000000020000400                __main_stack_end__ = .

.pstack         0x0000000020000400      0x400
                0x0000000020000400                __process_stack_base__ = .
                0x0000000020000400                __main_thread_stack_base__ = .
                0x0000000020000800                . = (. + __process_stack_size__)
 *fill*         0x0000000020000400      0x400 
                0x0000000020000800                . = ALIGN (0x8)
                0x0000000020000800                __process_stack_end__ = .
                0x0000000020000800                __main_thread_stack_end__ = .

.data           0x0000000020000800      0x43c load address 0x0000000008008a88
                0x0000000020000800                . = ALIGN (0x4)
                [!provide]                        PROVIDE (_textdata, LOADADDR (.data))
                [!provide]                        PROVIDE (_data, .)
                0x0000000008008a88                _textdata_start = LOADADDR (.data)
                0x0000000020000800                _data_start = .
 *(.data)
 *(.data.*)
 .data.linecoding
                0x0000000020000800        0x7 build/obj/serial_usb.o
 .data.state    0x0000000020000807        0x1 build/obj/controller.o
 .data.__fdlib_version
                0x0000000020000808        0x1 /opt/homebrew-cask/Caskroom/gcc-arm-embedded/5_2-2015q4,20151219/gcc-arm-none-eabi-5_2-2015q4/bin/../lib/gcc/arm-none-eabi/5.2.1/../../../../arm-none-eabi/lib/armv7e-m/fpu/libm.a(lib_a-s_lib_ver.o)
                0x0000000020000808                __fdlib_version
 *fill*         0x0000000020000809        0x7 
 .data.impure_data
                0x0000000020000810      0x428 /opt/homebrew-cask/Caskroom/gcc-arm-embedded/5_2-2015q4,20151219/gcc-arm-none-eabi-5_2-2015q4/bin/../lib/gcc/arm-none-eabi/5.2.1/../../../../arm-none-eabi/lib/armv7e-m/fpu/libg.a(lib_a-impure.o)
 .data._impure_ptr
                0x0000000020000c38        0x4 /opt/homebrew-cask/Caskroom/gcc-arm-embedded/5_2-2015q4,20151219/gcc-arm-none-eabi-5_2-2015q4/bin/../lib/gcc/arm-none-eabi/5.2.1/../../../../arm-none-eabi/lib/armv7e-m/fpu/libg.a(lib_a-impure.o)
                0x0000000020000c38                _impure_ptr
 *(.ramtext)
                0x0000000020000c3c                . = ALIGN (0x4)
                [!provide]                        PROVIDE (_edata, .)
                0x0000000020000c3c                _data_end = .

.igot.plt       0x0000000020000c3c        0x0 load address 0x0000000008008ec4
 .igot.plt      0x0000000020000c3c        0x0 build/obj/crt0_v7m.o

.bss            0x0000000020000c40     0x1888 load address 0x0000000008008ec4
                0x0000000020000c40                . = ALIGN (0x4)
                0x0000000020000c40                _bss_start = .
 *(.bss)
 *(.bss.*)
 .bss.ch        0x0000000020000c40      0x258 build/obj/chschd.o
                0x0000000020000c40                ch
 .bss.endmem    0x0000000020000e98        0x4 build/obj/chmemcore.o
 .bss.nextmem   0x0000000020000e9c        0x4 build/obj/chmemcore.o
 .bss.default_heap
                0x0000000020000ea0       0x20 build/obj/chheap.o
 .bss.dma_isr_redir
                0x0000000020000ec0       0x80 build/obj/stm32_dma.o
 .bss.dma_streams_mask
                0x0000000020000f40        0x4 build/obj/stm32_dma.o
 .bss.EXTD1     0x0000000020000f44        0x8 build/obj/ext_lld.o
                0x0000000020000f44                EXTD1
 .bss.I2CD1     0x0000000020000f4c       0x38 build/obj/i2c_lld.o
                0x0000000020000f4c                I2CD1
 *fill*         0x0000000020000f84        0x4 
 .bss.USBD1     0x0000000020000f88      0x280 build/obj/usb_lld.o
                0x0000000020000f88                USBD1
 .bss.ep0_state
                0x0000000020001208       0x10 build/obj/usb_lld.o
 .bss.ep0setup_buffer
                0x0000000020001218        0x8 build/obj/usb_lld.o
 .bss.dummytx   0x0000000020001220        0x2 build/obj/spi_lld.o
 *fill*         0x0000000020001222        0x2 
 .bss.SPID1     0x0000000020001224       0x30 build/obj/spi_lld.o
                0x0000000020001224                SPID1
 .bss.dummyrx   0x0000000020001254        0x2 build/obj/spi_lld.o
 *fill*         0x0000000020001256        0x2 
 .bss.led_update_wa
                0x0000000020001258      0x598 build/obj/main.o
 .bss.rx        0x00000000200017f0        0x2 build/obj/as5x47.o
 *fill*         0x00000000200017f2        0x2 
 .bss.tx        0x00000000200017f4        0x2 build/obj/as5x47.o
 .bss.inTransaction
                0x00000000200017f6        0x1 build/obj/as5x47.o
 *fill*         0x00000000200017f7        0x1 
 .bss.lastRawPosition
                0x00000000200017f8        0x2 build/obj/as5x47.o
 *fill*         0x00000000200017fa        0x2 
 .bss.ep2instate
                0x00000000200017fc       0x10 build/obj/comm_usb.o
 .bss.SDU1      0x000000002000180c      0x488 build/obj/comm_usb.o
                0x000000002000180c                SDU1
 .bss.ep1instate
                0x0000000020001c94       0x10 build/obj/comm_usb.o
 .bss.ep1outstate
                0x0000000020001ca4       0x10 build/obj/comm_usb.o
 *fill*         0x0000000020001cb4        0x4 
 .bss.comm_update_wa
                0x0000000020001cb8      0x598 build/obj/comm.o
 .bss.e         0x0000000020002250        0x4 build/obj/controller.o
 .bss.ADC_Value
                0x0000000020002254        0x6 build/obj/controller.o
                0x0000000020002254                ADC_Value
 *fill*         0x000000002000225a        0x2 
 .bss.angle     0x000000002000225c        0x4 build/obj/controller.o
 .bss.RGBdata   0x0000000020002260       0x14 build/obj/ws2812b.o
 .bss.bitbuffer
                0x0000000020002274      0x154 build/obj/ws2812b.o
 .bss.gamma_table
                0x00000000200023c8      0x100 build/obj/ws2812b.o
 *(COMMON)
                0x00000000200024c8                . = ALIGN (0x4)
                0x00000000200024c8                _bss_end = .
                [!provide]                        PROVIDE (end, .)

.ram0_init      0x00000000200024c8        0x0 load address 0x0000000008008ec4
                0x00000000200024c8                . = ALIGN (0x4)
                0x0000000008008ec4                __ram0_init_text__ = LOADADDR (.ram0_init)
                0x00000000200024c8                __ram0_init__ = .
 *(.ram0_init)
 *(.ram0_init.*)
                0x00000000200024c8                . = ALIGN (0x4)

.ram0           0x00000000200024c8        0x0 load address 0x0000000008008ec4
                0x00000000200024c8                . = ALIGN (0x4)
                0x00000000200024c8                __ram0_clear__ = .
 *(.ram0_clear)
 *(.ram0_clear.*)
                0x00000000200024c8                . = ALIGN (0x4)
                0x00000000200024c8                __ram0_noinit__ = .
 *(.ram0)
 *(.ram0.*)
                0x00000000200024c8                . = ALIGN (0x4)
                0x00000000200024c8                __ram0_free__ = .

.ram1_init      0x0000000020000000        0x0 load address 0x0000000008008ec4
                0x0000000020000000                . = ALIGN (0x4)
                0x0000000008008ec4                __ram1_init_text__ = LOADADDR (.ram1_init)
                0x0000000020000000                __ram1_init__ = .
 *(.ram1_init)
 *(.ram1_init.*)
                0x0000000020000000                . = ALIGN (0x4)

.ram1           0x0000000020000000        0x0 load address 0x0000000008008ec4
                0x0000000020000000                . = ALIGN (0x4)
                0x0000000020000000                __ram1_clear__ = .
 *(.ram1_clear)
 *(.ram1_clear.*)
                0x0000000020000000                . = ALIGN (0x4)
                0x0000000020000000                __ram1_noinit__ = .
 *(.ram1)
 *(.ram1.*)
                0x0000000020000000                . = ALIGN (0x4)
                0x0000000020000000                __ram1_free__ = .

.ram2_init      0x000000002001c000        0x0 load address 0x0000000008008ec4
                0x000000002001c000                . = ALIGN (0x4)
                0x0000000008008ec4                __ram2_init_text__ = LOADADDR (.ram2_init)
                0x000000002001c000                __ram2_init__ = .
 *(.ram2_init)
 *(.ram2_init.*)
                0x000000002001c000                . = ALIGN (0x4)

.ram2           0x000000002001c000        0x0 load address 0x0000000008008ec4
                0x000000002001c000                . = ALIGN (0x4)
                0x000000002001c000                __ram2_clear__ = .
 *(.ram2_clear)
 *(.ram2_clear.*)
                0x000000002001c000                . = ALIGN (0x4)
                0x000000002001c000                __ram2_noinit__ = .
 *(.ram2)
 *(.ram2.*)
                0x000000002001c000                . = ALIGN (0x4)
                0x000000002001c000                __ram2_free__ = .

.ram3_init      0x0000000000000000        0x0 load address 0x0000000008008ec4
                0x0000000000000000                . = ALIGN (0x4)
                0x0000000008008ec4                __ram3_init_text__ = LOADADDR (.ram3_init)
                0x0000000000000000                __ram3_init__ = .
 *(.ram3_init)
 *(.ram3_init.*)
                0x0000000000000000                . = ALIGN (0x4)

.ram3           0x0000000000000000        0x0 load address 0x0000000008008ec4
                0x0000000000000000                . = ALIGN (0x4)
                0x0000000000000000                __ram3_clear__ = .
 *(.ram3_clear)
 *(.ram3_clear.*)
                0x0000000000000000                . = ALIGN (0x4)
                0x0000000000000000                __ram3_noinit__ = .
 *(.ram3)
 *(.ram3.*)
                0x0000000000000000                . = ALIGN (0x4)
                0x0000000000000000                __ram3_free__ = .

.ram4_init      0x0000000010000000        0x0 load address 0x0000000008008ec4
                0x0000000010000000                . = ALIGN (0x4)
                0x0000000008008ec4                __ram4_init_text__ = LOADADDR (.ram4_init)
                0x0000000010000000                __ram4_init__ = .
 *(.ram4_init)
 *(.ram4_init.*)
                0x0000000010000000                . = ALIGN (0x4)

.ram4           0x0000000010000000        0x0 load address 0x0000000008008ec4
                0x0000000010000000                . = ALIGN (0x4)
                0x0000000010000000                __ram4_clear__ = .
 *(.ram4_clear)
 *(.ram4_clear.*)
                0x0000000010000000                . = ALIGN (0x4)
                0x0000000010000000                __ram4_noinit__ = .
 *(.ram4)
 *(.ram4.*)
                0x0000000010000000                . = ALIGN (0x4)
                0x0000000010000000                __ram4_free__ = .

.ram5_init      0x0000000040024000        0x0 load address 0x0000000008008ec4
                0x0000000040024000                . = ALIGN (0x4)
                0x0000000008008ec4                __ram5_init_text__ = LOADADDR (.ram5_init)
                0x0000000040024000                __ram5_init__ = .
 *(.ram5_init)
 *(.ram5_init.*)
                0x0000000040024000                . = ALIGN (0x4)

.ram5           0x0000000040024000        0x0 load address 0x0000000008008ec4
                0x0000000040024000                . = ALIGN (0x4)
                0x0000000040024000                __ram5_clear__ = .
 *(.ram5_clear)
 *(.ram5_clear.*)
                0x0000000040024000                . = ALIGN (0x4)
                0x0000000040024000                __ram5_noinit__ = .
 *(.ram5)
 *(.ram5.*)
                0x0000000040024000                . = ALIGN (0x4)
                0x0000000040024000                __ram5_free__ = .

.ram6_init      0x0000000000000000        0x0 load address 0x0000000008008ec4
                0x0000000000000000                . = ALIGN (0x4)
                0x0000000008008ec4                __ram6_init_text__ = LOADADDR (.ram6_init)
                0x0000000000000000                __ram6_init__ = .
 *(.ram6_init)
 *(.ram6_init.*)
                0x0000000000000000                . = ALIGN (0x4)

.ram6           0x0000000000000000        0x0 load address 0x0000000008008ec4
                0x0000000000000000                . = ALIGN (0x4)
                0x0000000000000000                __ram6_clear__ = .
 *(.ram6_clear)
 *(.ram6_clear.*)
                0x0000000000000000                . = ALIGN (0x4)
                0x0000000000000000                __ram6_noinit__ = .
 *(.ram6)
 *(.ram6.*)
                0x0000000000000000                . = ALIGN (0x4)
                0x0000000000000000                __ram6_free__ = .

.ram7_init      0x0000000000000000        0x0 load address 0x0000000008008ec4
                0x0000000000000000                . = ALIGN (0x4)
                0x0000000008008ec4                __ram7_init_text__ = LOADADDR (.ram7_init)
                0x0000000000000000                __ram7_init__ = .
 *(.ram7_init)
 *(.ram7_init.*)
                0x0000000000000000                . = ALIGN (0x4)

.ram7           0x0000000000000000        0x0 load address 0x0000000008008ec4
                0x0000000000000000                . = ALIGN (0x4)
                0x0000000000000000                __ram7_clear__ = .
 *(.ram7_clear)
 *(.ram7_clear.*)
                0x0000000000000000                . = ALIGN (0x4)
                0x0000000000000000                __ram7_noinit__ = .
 *(.ram7)
 *(.ram7.*)
                0x0000000000000000                . = ALIGN (0x4)
                0x0000000000000000                __ram7_free__ = .

.heap           0x00000000200024c8    0x1db38
                0x00000000200024c8                . = ALIGN (0x8)
                0x00000000200024c8                __heap_base__ = .
                0x0000000020020000                . = (ORIGIN (HEAP_RAM) + LENGTH (HEAP_RAM))
 *fill*         0x00000000200024c8    0x1db38 
                0x0000000020020000                __heap_end__ = .
                0x0000000000000400                __process_stack_size__ = 0x400
                0x0000000000000400                __main_stack_size__ = 0x400
LOAD /opt/homebrew-cask/Caskroom/gcc-arm-embedded/5_2-2015q4,20151219/gcc-arm-none-eabi-5_2-2015q4/bin/../lib/gcc/arm-none-eabi/5.2.1/../../../../arm-none-eabi/lib/armv7e-m/fpu/libstdc++.a
LOAD /opt/homebrew-cask/Caskroom/gcc-arm-embedded/5_2-2015q4,20151219/gcc-arm-none-eabi-5_2-2015q4/bin/../lib/gcc/arm-none-eabi/5.2.1/../../../../arm-none-eabi/lib/armv7e-m/fpu/libm.a
START GROUP
LOAD /opt/homebrew-cask/Caskroom/gcc-arm-embedded/5_2-2015q4,20151219/gcc-arm-none-eabi-5_2-2015q4/bin/../lib/gcc/arm-none-eabi/5.2.1/armv7e-m/fpu/libgcc.a
LOAD /opt/homebrew-cask/Caskroom/gcc-arm-embedded/5_2-2015q4,20151219/gcc-arm-none-eabi-5_2-2015q4/bin/../lib/gcc/arm-none-eabi/5.2.1/../../../../arm-none-eabi/lib/armv7e-m/fpu/libg.a
LOAD /opt/homebrew-cask/Caskroom/gcc-arm-embedded/5_2-2015q4,20151219/gcc-arm-none-eabi-5_2-2015q4/bin/../lib/gcc/arm-none-eabi/5.2.1/../../../../arm-none-eabi/lib/armv7e-m/fpu/libc.a
END GROUP
OUTPUT(build/rESC.elf elf32-littlearm)

.ARM.attributes
                0x0000000000000000       0x35
 .ARM.attributes
                0x0000000000000000       0x25 build/obj/crt0_v7m.o
 .ARM.attributes
                0x0000000000000025       0x25 build/obj/chcoreasm_v7m.o
 .ARM.attributes
                0x000000000000004a       0x39 build/obj/crt1.o
 .ARM.attributes
                0x0000000000000083       0x39 build/obj/vectors.o
 .ARM.attributes
                0x00000000000000bc       0x39 build/obj/chsys.o
 .ARM.attributes
                0x00000000000000f5       0x39 build/obj/chvt.o
 .ARM.attributes
                0x000000000000012e       0x39 build/obj/chschd.o
 .ARM.attributes
                0x0000000000000167       0x39 build/obj/chthreads.o
 .ARM.attributes
                0x00000000000001a0       0x39 build/obj/chtm.o
 .ARM.attributes
                0x00000000000001d9       0x39 build/obj/chregistry.o
 .ARM.attributes
                0x0000000000000212       0x39 build/obj/chmtx.o
 .ARM.attributes
                0x000000000000024b       0x39 build/obj/chevents.o
 .ARM.attributes
                0x0000000000000284       0x39 build/obj/chmemcore.o
 .ARM.attributes
                0x00000000000002bd       0x39 build/obj/chheap.o
 .ARM.attributes
                0x00000000000002f6       0x39 build/obj/chcore_v7m.o
 .ARM.attributes
                0x000000000000032f       0x39 build/obj/hal.o
 .ARM.attributes
                0x0000000000000368       0x39 build/obj/st.o
 .ARM.attributes
                0x00000000000003a1       0x39 build/obj/hal_buffers.o
 .ARM.attributes
                0x00000000000003da       0x39 build/obj/ext.o
 .ARM.attributes
                0x0000000000000413       0x39 build/obj/i2c.o
 .ARM.attributes
                0x000000000000044c       0x39 build/obj/serial_usb.o
 .ARM.attributes
                0x0000000000000485       0x39 build/obj/spi.o
 .ARM.attributes
                0x00000000000004be       0x39 build/obj/usb.o
 .ARM.attributes
                0x00000000000004f7       0x39 build/obj/nvic.o
 .ARM.attributes
                0x0000000000000530       0x39 build/obj/hal_lld.o
 .ARM.attributes
                0x0000000000000569       0x39 build/obj/stm32_dma.o
 .ARM.attributes
                0x00000000000005a2       0x39 build/obj/st_lld.o
 .ARM.attributes
                0x00000000000005db       0x39 build/obj/ext_lld.o
 .ARM.attributes
                0x0000000000000614       0x39 build/obj/ext_lld_isr.o
 .ARM.attributes
                0x000000000000064d       0x39 build/obj/pal_lld.o
 .ARM.attributes
                0x0000000000000686       0x39 build/obj/i2c_lld.o
 .ARM.attributes
                0x00000000000006bf       0x39 build/obj/usb_lld.o
 .ARM.attributes
                0x00000000000006f8       0x39 build/obj/spi_lld.o
 .ARM.attributes
                0x0000000000000731       0x39 build/obj/board.o
 .ARM.attributes
                0x000000000000076a       0x39 build/obj/chprintf.o
 .ARM.attributes
                0x00000000000007a3       0x39 build/obj/main.o
 .ARM.attributes
                0x00000000000007dc       0x39 build/obj/as5x47.o
 .ARM.attributes
                0x0000000000000815       0x39 build/obj/comm_can.o
 .ARM.attributes
                0x000000000000084e       0x39 build/obj/comm_usb.o
 .ARM.attributes
                0x0000000000000887       0x39 build/obj/comm.o
 .ARM.attributes
                0x00000000000008c0       0x39 build/obj/controller.o
 .ARM.attributes
                0x00000000000008f9       0x39 build/obj/encoder.o
 .ARM.attributes
                0x0000000000000932       0x39 build/obj/transforms.o
 .ARM.attributes
                0x000000000000096b       0x39 build/obj/ws2812b.o
 .ARM.attributes
                0x00000000000009a4       0x39 build/obj/zsm.o
 .ARM.attributes
                0x00000000000009dd       0x39 build/obj/stm32f4xx_adc.o
 .ARM.attributes
                0x0000000000000a16       0x39 build/obj/stm32f4xx_dma.o
 .ARM.attributes
                0x0000000000000a4f       0x39 build/obj/stm32f4xx_rcc.o
 .ARM.attributes
                0x0000000000000a88       0x39 build/obj/stm32f4xx_tim.o
 .ARM.attributes
                0x0000000000000ac1       0x34 /opt/homebrew-cask/Caskroom/gcc-arm-embedded/5_2-2015q4,20151219/gcc-arm-none-eabi-5_2-2015q4/bin/../lib/gcc/arm-none-eabi/5.2.1/../../../../arm-none-eabi/lib/armv7e-m/fpu/libm.a(lib_a-s_cos.o)
 .ARM.attributes
                0x0000000000000af5       0x34 /opt/homebrew-cask/Caskroom/gcc-arm-embedded/5_2-2015q4,20151219/gcc-arm-none-eabi-5_2-2015q4/bin/../lib/gcc/arm-none-eabi/5.2.1/../../../../arm-none-eabi/lib/armv7e-m/fpu/libm.a(lib_a-s_sin.o)
 .ARM.attributes
                0x0000000000000b29       0x34 /opt/homebrew-cask/Caskroom/gcc-arm-embedded/5_2-2015q4,20151219/gcc-arm-none-eabi-5_2-2015q4/bin/../lib/gcc/arm-none-eabi/5.2.1/../../../../arm-none-eabi/lib/armv7e-m/fpu/libm.a(lib_a-sf_round.o)
 .ARM.attributes
                0x0000000000000b5d       0x34 /opt/homebrew-cask/Caskroom/gcc-arm-embedded/5_2-2015q4,20151219/gcc-arm-none-eabi-5_2-2015q4/bin/../lib/gcc/arm-none-eabi/5.2.1/../../../../arm-none-eabi/lib/armv7e-m/fpu/libm.a(lib_a-w_fmod.o)
 .ARM.attributes
                0x0000000000000b91       0x34 /opt/homebrew-cask/Caskroom/gcc-arm-embedded/5_2-2015q4,20151219/gcc-arm-none-eabi-5_2-2015q4/bin/../lib/gcc/arm-none-eabi/5.2.1/../../../../arm-none-eabi/lib/armv7e-m/fpu/libm.a(lib_a-wf_pow.o)
 .ARM.attributes
                0x0000000000000bc5       0x34 /opt/homebrew-cask/Caskroom/gcc-arm-embedded/5_2-2015q4,20151219/gcc-arm-none-eabi-5_2-2015q4/bin/../lib/gcc/arm-none-eabi/5.2.1/../../../../arm-none-eabi/lib/armv7e-m/fpu/libm.a(lib_a-e_fmod.o)
 .ARM.attributes
                0x0000000000000bf9       0x34 /opt/homebrew-cask/Caskroom/gcc-arm-embedded/5_2-2015q4,20151219/gcc-arm-none-eabi-5_2-2015q4/bin/../lib/gcc/arm-none-eabi/5.2.1/../../../../arm-none-eabi/lib/armv7e-m/fpu/libm.a(lib_a-e_rem_pio2.o)
 .ARM.attributes
                0x0000000000000c2d       0x34 /opt/homebrew-cask/Caskroom/gcc-arm-embedded/5_2-2015q4,20151219/gcc-arm-none-eabi-5_2-2015q4/bin/../lib/gcc/arm-none-eabi/5.2.1/../../../../arm-none-eabi/lib/armv7e-m/fpu/libm.a(lib_a-ef_pow.o)
 .ARM.attributes
                0x0000000000000c61       0x34 /opt/homebrew-cask/Caskroom/gcc-arm-embedded/5_2-2015q4,20151219/gcc-arm-none-eabi-5_2-2015q4/bin/../lib/gcc/arm-none-eabi/5.2.1/../../../../arm-none-eabi/lib/armv7e-m/fpu/libm.a(lib_a-ef_sqrt.o)
 .ARM.attributes
                0x0000000000000c95       0x34 /opt/homebrew-cask/Caskroom/gcc-arm-embedded/5_2-2015q4,20151219/gcc-arm-none-eabi-5_2-2015q4/bin/../lib/gcc/arm-none-eabi/5.2.1/../../../../arm-none-eabi/lib/armv7e-m/fpu/libm.a(lib_a-k_cos.o)
 .ARM.attributes
                0x0000000000000cc9       0x34 /opt/homebrew-cask/Caskroom/gcc-arm-embedded/5_2-2015q4,20151219/gcc-arm-none-eabi-5_2-2015q4/bin/../lib/gcc/arm-none-eabi/5.2.1/../../../../arm-none-eabi/lib/armv7e-m/fpu/libm.a(lib_a-k_rem_pio2.o)
 .ARM.attributes
                0x0000000000000cfd       0x34 /opt/homebrew-cask/Caskroom/gcc-arm-embedded/5_2-2015q4,20151219/gcc-arm-none-eabi-5_2-2015q4/bin/../lib/gcc/arm-none-eabi/5.2.1/../../../../arm-none-eabi/lib/armv7e-m/fpu/libm.a(lib_a-k_sin.o)
 .ARM.attributes
                0x0000000000000d31       0x34 /opt/homebrew-cask/Caskroom/gcc-arm-embedded/5_2-2015q4,20151219/gcc-arm-none-eabi-5_2-2015q4/bin/../lib/gcc/arm-none-eabi/5.2.1/../../../../arm-none-eabi/lib/armv7e-m/fpu/libm.a(lib_a-s_fabs.o)
 .ARM.attributes
                0x0000000000000d65       0x34 /opt/homebrew-cask/Caskroom/gcc-arm-embedded/5_2-2015q4,20151219/gcc-arm-none-eabi-5_2-2015q4/bin/../lib/gcc/arm-none-eabi/5.2.1/../../../../arm-none-eabi/lib/armv7e-m/fpu/libm.a(lib_a-s_floor.o)
 .ARM.attributes
                0x0000000000000d99       0x34 /opt/homebrew-cask/Caskroom/gcc-arm-embedded/5_2-2015q4,20151219/gcc-arm-none-eabi-5_2-2015q4/bin/../lib/gcc/arm-none-eabi/5.2.1/../../../../arm-none-eabi/lib/armv7e-m/fpu/libm.a(lib_a-s_fpclassify.o)
 .ARM.attributes
                0x0000000000000dcd       0x34 /opt/homebrew-cask/Caskroom/gcc-arm-embedded/5_2-2015q4,20151219/gcc-arm-none-eabi-5_2-2015q4/bin/../lib/gcc/arm-none-eabi/5.2.1/../../../../arm-none-eabi/lib/armv7e-m/fpu/libm.a(lib_a-s_lib_ver.o)
 .ARM.attributes
                0x0000000000000e01       0x34 /opt/homebrew-cask/Caskroom/gcc-arm-embedded/5_2-2015q4,20151219/gcc-arm-none-eabi-5_2-2015q4/bin/../lib/gcc/arm-none-eabi/5.2.1/../../../../arm-none-eabi/lib/armv7e-m/fpu/libm.a(lib_a-s_matherr.o)
 .ARM.attributes
                0x0000000000000e35       0x34 /opt/homebrew-cask/Caskroom/gcc-arm-embedded/5_2-2015q4,20151219/gcc-arm-none-eabi-5_2-2015q4/bin/../lib/gcc/arm-none-eabi/5.2.1/../../../../arm-none-eabi/lib/armv7e-m/fpu/libm.a(lib_a-s_rint.o)
 .ARM.attributes
                0x0000000000000e69       0x34 /opt/homebrew-cask/Caskroom/gcc-arm-embedded/5_2-2015q4,20151219/gcc-arm-none-eabi-5_2-2015q4/bin/../lib/gcc/arm-none-eabi/5.2.1/../../../../arm-none-eabi/lib/armv7e-m/fpu/libm.a(lib_a-s_scalbn.o)
 .ARM.attributes
                0x0000000000000e9d       0x34 /opt/homebrew-cask/Caskroom/gcc-arm-embedded/5_2-2015q4,20151219/gcc-arm-none-eabi-5_2-2015q4/bin/../lib/gcc/arm-none-eabi/5.2.1/../../../../arm-none-eabi/lib/armv7e-m/fpu/libm.a(lib_a-sf_fabs.o)
 .ARM.attributes
                0x0000000000000ed1       0x34 /opt/homebrew-cask/Caskroom/gcc-arm-embedded/5_2-2015q4,20151219/gcc-arm-none-eabi-5_2-2015q4/bin/../lib/gcc/arm-none-eabi/5.2.1/../../../../arm-none-eabi/lib/armv7e-m/fpu/libm.a(lib_a-sf_finite.o)
 .ARM.attributes
                0x0000000000000f05       0x34 /opt/homebrew-cask/Caskroom/gcc-arm-embedded/5_2-2015q4,20151219/gcc-arm-none-eabi-5_2-2015q4/bin/../lib/gcc/arm-none-eabi/5.2.1/../../../../arm-none-eabi/lib/armv7e-m/fpu/libm.a(lib_a-sf_fpclassify.o)
 .ARM.attributes
                0x0000000000000f39       0x34 /opt/homebrew-cask/Caskroom/gcc-arm-embedded/5_2-2015q4,20151219/gcc-arm-none-eabi-5_2-2015q4/bin/../lib/gcc/arm-none-eabi/5.2.1/../../../../arm-none-eabi/lib/armv7e-m/fpu/libm.a(lib_a-sf_nan.o)
 .ARM.attributes
                0x0000000000000f6d       0x34 /opt/homebrew-cask/Caskroom/gcc-arm-embedded/5_2-2015q4,20151219/gcc-arm-none-eabi-5_2-2015q4/bin/../lib/gcc/arm-none-eabi/5.2.1/../../../../arm-none-eabi/lib/armv7e-m/fpu/libm.a(lib_a-sf_scalbn.o)
 .ARM.attributes
                0x0000000000000fa1       0x34 /opt/homebrew-cask/Caskroom/gcc-arm-embedded/5_2-2015q4,20151219/gcc-arm-none-eabi-5_2-2015q4/bin/../lib/gcc/arm-none-eabi/5.2.1/../../../../arm-none-eabi/lib/armv7e-m/fpu/libm.a(lib_a-s_copysign.o)
 .ARM.attributes
                0x0000000000000fd5       0x34 /opt/homebrew-cask/Caskroom/gcc-arm-embedded/5_2-2015q4,20151219/gcc-arm-none-eabi-5_2-2015q4/bin/../lib/gcc/arm-none-eabi/5.2.1/../../../../arm-none-eabi/lib/armv7e-m/fpu/libm.a(lib_a-sf_copysign.o)
 .ARM.attributes
                0x0000000000001009       0x22 /opt/homebrew-cask/Caskroom/gcc-arm-embedded/5_2-2015q4,20151219/gcc-arm-none-eabi-5_2-2015q4/bin/../lib/gcc/arm-none-eabi/5.2.1/armv7e-m/fpu/libgcc.a(_arm_addsubdf3.o)
 .ARM.attributes
                0x000000000000102b       0x22 /opt/homebrew-cask/Caskroom/gcc-arm-embedded/5_2-2015q4,20151219/gcc-arm-none-eabi-5_2-2015q4/bin/../lib/gcc/arm-none-eabi/5.2.1/armv7e-m/fpu/libgcc.a(_arm_muldivdf3.o)
 .ARM.attributes
                0x000000000000104d       0x22 /opt/homebrew-cask/Caskroom/gcc-arm-embedded/5_2-2015q4,20151219/gcc-arm-none-eabi-5_2-2015q4/bin/../lib/gcc/arm-none-eabi/5.2.1/armv7e-m/fpu/libgcc.a(_arm_cmpdf2.o)
 .ARM.attributes
                0x000000000000106f       0x22 /opt/homebrew-cask/Caskroom/gcc-arm-embedded/5_2-2015q4,20151219/gcc-arm-none-eabi-5_2-2015q4/bin/../lib/gcc/arm-none-eabi/5.2.1/armv7e-m/fpu/libgcc.a(_arm_fixdfsi.o)
 .ARM.attributes
                0x0000000000001091       0x22 /opt/homebrew-cask/Caskroom/gcc-arm-embedded/5_2-2015q4,20151219/gcc-arm-none-eabi-5_2-2015q4/bin/../lib/gcc/arm-none-eabi/5.2.1/armv7e-m/fpu/libgcc.a(_arm_truncdfsf2.o)
 .ARM.attributes
                0x00000000000010b3       0x34 /opt/homebrew-cask/Caskroom/gcc-arm-embedded/5_2-2015q4,20151219/gcc-arm-none-eabi-5_2-2015q4/bin/../lib/gcc/arm-none-eabi/5.2.1/../../../../arm-none-eabi/lib/armv7e-m/fpu/libg.a(lib_a-errno.o)
 .ARM.attributes
                0x00000000000010e7       0x34 /opt/homebrew-cask/Caskroom/gcc-arm-embedded/5_2-2015q4,20151219/gcc-arm-none-eabi-5_2-2015q4/bin/../lib/gcc/arm-none-eabi/5.2.1/../../../../arm-none-eabi/lib/armv7e-m/fpu/libg.a(lib_a-impure.o)
 .ARM.attributes
                0x000000000000111b       0x20 /opt/homebrew-cask/Caskroom/gcc-arm-embedded/5_2-2015q4,20151219/gcc-arm-none-eabi-5_2-2015q4/bin/../lib/gcc/arm-none-eabi/5.2.1/../../../../arm-none-eabi/lib/armv7e-m/fpu/libg.a(lib_a-memcpy.o)

.comment        0x0000000000000000       0x6e
 .comment       0x0000000000000000       0x6e build/obj/crt1.o
                                         0x6f (size before relaxing)
 .comment       0x000000000000006e       0x6f build/obj/vectors.o
 .comment       0x000000000000006e       0x6f build/obj/chsys.o
 .comment       0x000000000000006e       0x6f build/obj/chvt.o
 .comment       0x000000000000006e       0x6f build/obj/chschd.o
 .comment       0x000000000000006e       0x6f build/obj/chthreads.o
 .comment       0x000000000000006e       0x6f build/obj/chtm.o
 .comment       0x000000000000006e       0x6f build/obj/chregistry.o
 .comment       0x000000000000006e       0x6f build/obj/chmtx.o
 .comment       0x000000000000006e       0x6f build/obj/chevents.o
 .comment       0x000000000000006e       0x6f build/obj/chmemcore.o
 .comment       0x000000000000006e       0x6f build/obj/chheap.o
 .comment       0x000000000000006e       0x6f build/obj/chcore_v7m.o
 .comment       0x000000000000006e       0x6f build/obj/hal.o
 .comment       0x000000000000006e       0x6f build/obj/st.o
 .comment       0x000000000000006e       0x6f build/obj/hal_buffers.o
 .comment       0x000000000000006e       0x6f build/obj/ext.o
 .comment       0x000000000000006e       0x6f build/obj/i2c.o
 .comment       0x000000000000006e       0x6f build/obj/serial_usb.o
 .comment       0x000000000000006e       0x6f build/obj/spi.o
 .comment       0x000000000000006e       0x6f build/obj/usb.o
 .comment       0x000000000000006e       0x6f build/obj/nvic.o
 .comment       0x000000000000006e       0x6f build/obj/hal_lld.o
 .comment       0x000000000000006e       0x6f build/obj/stm32_dma.o
 .comment       0x000000000000006e       0x6f build/obj/st_lld.o
 .comment       0x000000000000006e       0x6f build/obj/ext_lld.o
 .comment       0x000000000000006e       0x6f build/obj/ext_lld_isr.o
 .comment       0x000000000000006e       0x6f build/obj/pal_lld.o
 .comment       0x000000000000006e       0x6f build/obj/i2c_lld.o
 .comment       0x000000000000006e       0x6f build/obj/usb_lld.o
 .comment       0x000000000000006e       0x6f build/obj/spi_lld.o
 .comment       0x000000000000006e       0x6f build/obj/board.o
 .comment       0x000000000000006e       0x6f build/obj/chprintf.o
 .comment       0x000000000000006e       0x6f build/obj/main.o
 .comment       0x000000000000006e       0x6f build/obj/as5x47.o
 .comment       0x000000000000006e       0x6f build/obj/comm_can.o
 .comment       0x000000000000006e       0x6f build/obj/comm_usb.o
 .comment       0x000000000000006e       0x6f build/obj/comm.o
 .comment       0x000000000000006e       0x6f build/obj/controller.o
 .comment       0x000000000000006e       0x6f build/obj/encoder.o
 .comment       0x000000000000006e       0x6f build/obj/transforms.o
 .comment       0x000000000000006e       0x6f build/obj/ws2812b.o
 .comment       0x000000000000006e       0x6f build/obj/zsm.o
 .comment       0x000000000000006e       0x6f build/obj/stm32f4xx_adc.o
 .comment       0x000000000000006e       0x6f build/obj/stm32f4xx_dma.o
 .comment       0x000000000000006e       0x6f build/obj/stm32f4xx_rcc.o
 .comment       0x000000000000006e       0x6f build/obj/stm32f4xx_tim.o

.debug_info     0x0000000000000000    0x30470
 .debug_info    0x0000000000000000      0x2fd build/obj/crt1.o
 .debug_info    0x00000000000002fd      0x1e7 build/obj/vectors.o
 .debug_info    0x00000000000004e4     0x1787 build/obj/chsys.o
 .debug_info    0x0000000000001c6b      0x806 build/obj/chvt.o
 .debug_info    0x0000000000002471      0xe6e build/obj/chschd.o
 .debug_info    0x00000000000032df     0x1b55 build/obj/chthreads.o
 .debug_info    0x0000000000004e34      0xab8 build/obj/chtm.o
 .debug_info    0x00000000000058ec      0xa6f build/obj/chregistry.o
 .debug_info    0x000000000000635b     0x10d4 build/obj/chmtx.o
 .debug_info    0x000000000000742f     0x16db build/obj/chevents.o
 .debug_info    0x0000000000008b0a      0x956 build/obj/chmemcore.o
 .debug_info    0x0000000000009460      0xaa6 build/obj/chheap.o
 .debug_info    0x0000000000009f06      0xcc7 build/obj/chcore_v7m.o
 .debug_info    0x000000000000abcd      0x910 build/obj/hal.o
 .debug_info    0x000000000000b4dd      0x9f6 build/obj/st.o
 .debug_info    0x000000000000bed3     0x1fb4 build/obj/hal_buffers.o
 .debug_info    0x000000000000de87      0xdf1 build/obj/ext.o
 .debug_info    0x000000000000ec78     0x120a build/obj/i2c.o
 .debug_info    0x000000000000fe82     0x24d5 build/obj/serial_usb.o
 .debug_info    0x0000000000012357     0x1bb1 build/obj/spi.o
 .debug_info    0x0000000000013f08     0x2575 build/obj/usb.o
 .debug_info    0x000000000001647d      0xac6 build/obj/nvic.o
 .debug_info    0x0000000000016f43      0x9ee build/obj/hal_lld.o
 .debug_info    0x0000000000017931      0xeb4 build/obj/stm32_dma.o
 .debug_info    0x00000000000187e5      0x93c build/obj/st_lld.o
 .debug_info    0x0000000000019121      0xaf6 build/obj/ext_lld.o
 .debug_info    0x0000000000019c17     0x10b7 build/obj/ext_lld_isr.o
 .debug_info    0x000000000001acce      0xd6e build/obj/pal_lld.o
 .debug_info    0x000000000001ba3c     0x1d01 build/obj/i2c_lld.o
 .debug_info    0x000000000001d73d     0x2d80 build/obj/usb_lld.o
 .debug_info    0x00000000000204bd     0x124a build/obj/spi_lld.o
 .debug_info    0x0000000000021707      0x884 build/obj/board.o
 .debug_info    0x0000000000021f8b      0xe8e build/obj/chprintf.o
 .debug_info    0x0000000000022e19      0x9a9 build/obj/main.o
 .debug_info    0x00000000000237c2     0x13dd build/obj/as5x47.o
 .debug_info    0x0000000000024b9f      0x748 build/obj/comm_can.o
 .debug_info    0x00000000000252e7     0x1d4d build/obj/comm_usb.o
 .debug_info    0x0000000000027034      0x89a build/obj/comm.o
 .debug_info    0x00000000000278ce     0x2a01 build/obj/controller.o
 .debug_info    0x000000000002a2cf      0x854 build/obj/encoder.o
 .debug_info    0x000000000002ab23      0x3b2 build/obj/transforms.o
 .debug_info    0x000000000002aed5     0x102b build/obj/ws2812b.o
 .debug_info    0x000000000002bf00      0x230 build/obj/zsm.o
 .debug_info    0x000000000002c130      0xc69 build/obj/stm32f4xx_adc.o
 .debug_info    0x000000000002cd99      0x6fd build/obj/stm32f4xx_dma.o
 .debug_info    0x000000000002d496      0xc0f build/obj/stm32f4xx_rcc.o
 .debug_info    0x000000000002e0a5     0x23cb build/obj/stm32f4xx_tim.o

.debug_abbrev   0x0000000000000000     0x7a7b
 .debug_abbrev  0x0000000000000000      0x11b build/obj/crt1.o
 .debug_abbrev  0x000000000000011b       0xca build/obj/vectors.o
 .debug_abbrev  0x00000000000001e5      0x4e4 build/obj/chsys.o
 .debug_abbrev  0x00000000000006c9      0x1b1 build/obj/chvt.o
 .debug_abbrev  0x000000000000087a      0x3c0 build/obj/chschd.o
 .debug_abbrev  0x0000000000000c3a      0x44b build/obj/chthreads.o
 .debug_abbrev  0x0000000000001085      0x275 build/obj/chtm.o
 .debug_abbrev  0x00000000000012fa      0x238 build/obj/chregistry.o
 .debug_abbrev  0x0000000000001532      0x39f build/obj/chmtx.o
 .debug_abbrev  0x00000000000018d1      0x37d build/obj/chevents.o
 .debug_abbrev  0x0000000000001c4e      0x279 build/obj/chmemcore.o
 .debug_abbrev  0x0000000000001ec7      0x27f build/obj/chheap.o
 .debug_abbrev  0x0000000000002146      0x21d build/obj/chcore_v7m.o
 .debug_abbrev  0x0000000000002363      0x1a7 build/obj/hal.o
 .debug_abbrev  0x000000000000250a      0x217 build/obj/st.o
 .debug_abbrev  0x0000000000002721      0x467 build/obj/hal_buffers.o
 .debug_abbrev  0x0000000000002b88      0x26a build/obj/ext.o
 .debug_abbrev  0x0000000000002df2      0x305 build/obj/i2c.o
 .debug_abbrev  0x00000000000030f7      0x4d3 build/obj/serial_usb.o
 .debug_abbrev  0x00000000000035ca      0x321 build/obj/spi.o
 .debug_abbrev  0x00000000000038eb      0x3f9 build/obj/usb.o
 .debug_abbrev  0x0000000000003ce4      0x1ba build/obj/nvic.o
 .debug_abbrev  0x0000000000003e9e      0x1c3 build/obj/hal_lld.o
 .debug_abbrev  0x0000000000004061      0x24f build/obj/stm32_dma.o
 .debug_abbrev  0x00000000000042b0      0x222 build/obj/st_lld.o
 .debug_abbrev  0x00000000000044d2      0x278 build/obj/ext_lld.o
 .debug_abbrev  0x000000000000474a      0x232 build/obj/ext_lld_isr.o
 .debug_abbrev  0x000000000000497c      0x214 build/obj/pal_lld.o
 .debug_abbrev  0x0000000000004b90      0x3d5 build/obj/i2c_lld.o
 .debug_abbrev  0x0000000000004f65      0x4af build/obj/usb_lld.o
 .debug_abbrev  0x0000000000005414      0x344 build/obj/spi_lld.o
 .debug_abbrev  0x0000000000005758      0x1a5 build/obj/board.o
 .debug_abbrev  0x00000000000058fd      0x334 build/obj/chprintf.o
 .debug_abbrev  0x0000000000005c31      0x222 build/obj/main.o
 .debug_abbrev  0x0000000000005e53      0x308 build/obj/as5x47.o
 .debug_abbrev  0x000000000000615b      0x14a build/obj/comm_can.o
 .debug_abbrev  0x00000000000062a5      0x39b build/obj/comm_usb.o
 .debug_abbrev  0x0000000000006640      0x217 build/obj/comm.o
 .debug_abbrev  0x0000000000006857      0x395 build/obj/controller.o
 .debug_abbrev  0x0000000000006bec      0x1f4 build/obj/encoder.o
 .debug_abbrev  0x0000000000006de0       0xe9 build/obj/transforms.o
 .debug_abbrev  0x0000000000006ec9      0x2b7 build/obj/ws2812b.o
 .debug_abbrev  0x0000000000007180      0x102 build/obj/zsm.o
 .debug_abbrev  0x0000000000007282      0x1a0 build/obj/stm32f4xx_adc.o
 .debug_abbrev  0x0000000000007422      0x177 build/obj/stm32f4xx_dma.o
 .debug_abbrev  0x0000000000007599      0x270 build/obj/stm32f4xx_rcc.o
 .debug_abbrev  0x0000000000007809      0x272 build/obj/stm32f4xx_tim.o

.debug_loc      0x0000000000000000     0xd9ff
 .debug_loc     0x0000000000000000       0xb6 build/obj/crt1.o
 .debug_loc     0x00000000000000b6      0x339 build/obj/chsys.o
 .debug_loc     0x00000000000003ef       0x9f build/obj/chvt.o
 .debug_loc     0x000000000000048e      0x3dc build/obj/chschd.o
 .debug_loc     0x000000000000086a      0xbcc build/obj/chthreads.o
 .debug_loc     0x0000000000001436       0xa3 build/obj/chtm.o
 .debug_loc     0x00000000000014d9       0x91 build/obj/chregistry.o
 .debug_loc     0x000000000000156a      0x4ed build/obj/chmtx.o
 .debug_loc     0x0000000000001a57      0x846 build/obj/chevents.o
 .debug_loc     0x000000000000229d       0xd9 build/obj/chmemcore.o
 .debug_loc     0x0000000000002376      0x3a8 build/obj/chheap.o
 .debug_loc     0x000000000000271e       0xcf build/obj/chcore_v7m.o
 .debug_loc     0x00000000000027ed       0x26 build/obj/st.o
 .debug_loc     0x0000000000002813      0xe19 build/obj/hal_buffers.o
 .debug_loc     0x000000000000362c      0x266 build/obj/ext.o
 .debug_loc     0x0000000000003892      0x33e build/obj/i2c.o
 .debug_loc     0x0000000000003bd0      0x9e9 build/obj/serial_usb.o
 .debug_loc     0x00000000000045b9      0x705 build/obj/spi.o
 .debug_loc     0x0000000000004cbe      0xc53 build/obj/usb.o
 .debug_loc     0x0000000000005911       0xee build/obj/nvic.o
 .debug_loc     0x00000000000059ff      0x276 build/obj/stm32_dma.o
 .debug_loc     0x0000000000005c75       0x29 build/obj/st_lld.o
 .debug_loc     0x0000000000005c9e      0x29e build/obj/ext_lld.o
 .debug_loc     0x0000000000005f3c      0x28c build/obj/ext_lld_isr.o
 .debug_loc     0x00000000000061c8      0x3b0 build/obj/pal_lld.o
 .debug_loc     0x0000000000006578      0xb03 build/obj/i2c_lld.o
 .debug_loc     0x000000000000707b     0x12cc build/obj/usb_lld.o
 .debug_loc     0x0000000000008347      0x2ab build/obj/spi_lld.o
 .debug_loc     0x00000000000085f2      0xd0e build/obj/chprintf.o
 .debug_loc     0x0000000000009300       0x21 build/obj/main.o
 .debug_loc     0x0000000000009321       0xbf build/obj/as5x47.o
 .debug_loc     0x00000000000093e0      0x1b0 build/obj/comm_usb.o
 .debug_loc     0x0000000000009590       0x21 build/obj/comm.o
 .debug_loc     0x00000000000095b1       0x8c build/obj/controller.o
 .debug_loc     0x000000000000963d       0x6e build/obj/encoder.o
 .debug_loc     0x00000000000096ab      0x230 build/obj/transforms.o
 .debug_loc     0x00000000000098db      0x3be build/obj/ws2812b.o
 .debug_loc     0x0000000000009c99       0xf7 build/obj/zsm.o
 .debug_loc     0x0000000000009d90      0x9b8 build/obj/stm32f4xx_adc.o
 .debug_loc     0x000000000000a748      0x424 build/obj/stm32f4xx_dma.o
 .debug_loc     0x000000000000ab6c      0x9cc build/obj/stm32f4xx_rcc.o
 .debug_loc     0x000000000000b538     0x24c7 build/obj/stm32f4xx_tim.o

.debug_aranges  0x0000000000000000     0x1428
 .debug_aranges
                0x0000000000000000       0x30 build/obj/crt1.o
 .debug_aranges
                0x0000000000000030       0x20 build/obj/vectors.o
 .debug_aranges
                0x0000000000000050       0x60 build/obj/chsys.o
 .debug_aranges
                0x00000000000000b0       0x30 build/obj/chvt.o
 .debug_aranges
                0x00000000000000e0       0x70 build/obj/chschd.o
 .debug_aranges
                0x0000000000000150       0xc0 build/obj/chthreads.o
 .debug_aranges
                0x0000000000000210       0x40 build/obj/chtm.o
 .debug_aranges
                0x0000000000000250       0x28 build/obj/chregistry.o
 .debug_aranges
                0x0000000000000278       0x58 build/obj/chmtx.o
 .debug_aranges
                0x00000000000002d0       0xa0 build/obj/chevents.o
 .debug_aranges
                0x0000000000000370       0x38 build/obj/chmemcore.o
 .debug_aranges
                0x00000000000003a8       0x40 build/obj/chheap.o
 .debug_aranges
                0x00000000000003e8       0x28 build/obj/chcore_v7m.o
 .debug_aranges
                0x0000000000000410       0x20 build/obj/hal.o
 .debug_aranges
                0x0000000000000430       0x40 build/obj/st.o
 .debug_aranges
                0x0000000000000470       0xc8 build/obj/hal_buffers.o
 .debug_aranges
                0x0000000000000538       0x50 build/obj/ext.o
 .debug_aranges
                0x0000000000000588       0x60 build/obj/i2c.o
 .debug_aranges
                0x00000000000005e8       0xc0 build/obj/serial_usb.o
 .debug_aranges
                0x00000000000006a8       0x98 build/obj/spi.o
 .debug_aranges
                0x0000000000000740       0x98 build/obj/usb.o
 .debug_aranges
                0x00000000000007d8       0x38 build/obj/nvic.o
 .debug_aranges
                0x0000000000000810       0x28 build/obj/hal_lld.o
 .debug_aranges
                0x0000000000000838       0xb0 build/obj/stm32_dma.o
 .debug_aranges
                0x00000000000008e8       0x28 build/obj/st_lld.o
 .debug_aranges
                0x0000000000000910       0x40 build/obj/ext_lld.o
 .debug_aranges
                0x0000000000000950       0x90 build/obj/ext_lld_isr.o
 .debug_aranges
                0x00000000000009e0       0x28 build/obj/pal_lld.o
 .debug_aranges
                0x0000000000000a08       0x60 build/obj/i2c_lld.o
 .debug_aranges
                0x0000000000000a68       0xb8 build/obj/usb_lld.o
 .debug_aranges
                0x0000000000000b20       0x78 build/obj/spi_lld.o
 .debug_aranges
                0x0000000000000b98       0x28 build/obj/board.o
 .debug_aranges
                0x0000000000000bc0       0x38 build/obj/chprintf.o
 .debug_aranges
                0x0000000000000bf8       0x28 build/obj/main.o
 .debug_aranges
                0x0000000000000c20       0x48 build/obj/as5x47.o
 .debug_aranges
                0x0000000000000c68       0x20 build/obj/comm_can.o
 .debug_aranges
                0x0000000000000c88       0x40 build/obj/comm_usb.o
 .debug_aranges
                0x0000000000000cc8       0x28 build/obj/comm.o
 .debug_aranges
                0x0000000000000cf0       0x40 build/obj/controller.o
 .debug_aranges
                0x0000000000000d30       0x28 build/obj/encoder.o
 .debug_aranges
                0x0000000000000d58       0x38 build/obj/transforms.o
 .debug_aranges
                0x0000000000000d90       0x40 build/obj/ws2812b.o
 .debug_aranges
                0x0000000000000dd0       0x40 build/obj/zsm.o
 .debug_aranges
                0x0000000000000e10      0x148 build/obj/stm32f4xx_adc.o
 .debug_aranges
                0x0000000000000f58       0xa8 build/obj/stm32f4xx_dma.o
 .debug_aranges
                0x0000000000001000      0x160 build/obj/stm32f4xx_rcc.o
 .debug_aranges
                0x0000000000001160      0x2c8 build/obj/stm32f4xx_tim.o

.debug_ranges   0x0000000000000000     0x20b8
 .debug_ranges  0x0000000000000000       0x20 build/obj/crt1.o
 .debug_ranges  0x0000000000000020       0x10 build/obj/vectors.o
 .debug_ranges  0x0000000000000030      0x148 build/obj/chsys.o
 .debug_ranges  0x0000000000000178       0x20 build/obj/chvt.o
 .debug_ranges  0x0000000000000198      0x1a8 build/obj/chschd.o
 .debug_ranges  0x0000000000000340      0x1f0 build/obj/chthreads.o
 .debug_ranges  0x0000000000000530       0xb0 build/obj/chtm.o
 .debug_ranges  0x00000000000005e0       0x18 build/obj/chregistry.o
 .debug_ranges  0x00000000000005f8      0x170 build/obj/chmtx.o
 .debug_ranges  0x0000000000000768       0xd8 build/obj/chevents.o
 .debug_ranges  0x0000000000000840       0x28 build/obj/chmemcore.o
 .debug_ranges  0x0000000000000868       0x30 build/obj/chheap.o
 .debug_ranges  0x0000000000000898       0x18 build/obj/chcore_v7m.o
 .debug_ranges  0x00000000000008b0       0x10 build/obj/hal.o
 .debug_ranges  0x00000000000008c0       0x30 build/obj/st.o
 .debug_ranges  0x00000000000008f0      0x2f8 build/obj/hal_buffers.o
 .debug_ranges  0x0000000000000be8       0x70 build/obj/ext.o
 .debug_ranges  0x0000000000000c58       0x80 build/obj/i2c.o
 .debug_ranges  0x0000000000000cd8       0xf8 build/obj/serial_usb.o
 .debug_ranges  0x0000000000000dd0      0x100 build/obj/spi.o
 .debug_ranges  0x0000000000000ed0       0xe0 build/obj/usb.o
 .debug_ranges  0x0000000000000fb0       0x28 build/obj/nvic.o
 .debug_ranges  0x0000000000000fd8       0x38 build/obj/hal_lld.o
 .debug_ranges  0x0000000000001010       0xa0 build/obj/stm32_dma.o
 .debug_ranges  0x00000000000010b0       0x18 build/obj/st_lld.o
 .debug_ranges  0x00000000000010c8       0x68 build/obj/ext_lld.o
 .debug_ranges  0x0000000000001130       0x80 build/obj/ext_lld_isr.o
 .debug_ranges  0x00000000000011b0       0xa0 build/obj/pal_lld.o
 .debug_ranges  0x0000000000001250      0x1d0 build/obj/i2c_lld.o
 .debug_ranges  0x0000000000001420      0x338 build/obj/usb_lld.o
 .debug_ranges  0x0000000000001758       0x68 build/obj/spi_lld.o
 .debug_ranges  0x00000000000017c0       0x18 build/obj/board.o
 .debug_ranges  0x00000000000017d8       0x78 build/obj/chprintf.o
 .debug_ranges  0x0000000000001850       0x18 build/obj/main.o
 .debug_ranges  0x0000000000001868       0x68 build/obj/as5x47.o
 .debug_ranges  0x00000000000018d0       0x10 build/obj/comm_can.o
 .debug_ranges  0x00000000000018e0       0x30 build/obj/comm_usb.o
 .debug_ranges  0x0000000000001910       0x18 build/obj/comm.o
 .debug_ranges  0x0000000000001928       0x30 build/obj/controller.o
 .debug_ranges  0x0000000000001958       0x18 build/obj/encoder.o
 .debug_ranges  0x0000000000001970       0x28 build/obj/transforms.o
 .debug_ranges  0x0000000000001998       0x48 build/obj/ws2812b.o
 .debug_ranges  0x00000000000019e0       0x50 build/obj/zsm.o
 .debug_ranges  0x0000000000001a30      0x138 build/obj/stm32f4xx_adc.o
 .debug_ranges  0x0000000000001b68       0x98 build/obj/stm32f4xx_dma.o
 .debug_ranges  0x0000000000001c00      0x170 build/obj/stm32f4xx_rcc.o
 .debug_ranges  0x0000000000001d70      0x348 build/obj/stm32f4xx_tim.o

.debug_line     0x0000000000000000     0xdcdf
 .debug_line    0x0000000000000000      0x1e0 build/obj/crt1.o
 .debug_line    0x00000000000001e0      0x1c1 build/obj/vectors.o
 .debug_line    0x00000000000003a1      0x50b build/obj/chsys.o
 .debug_line    0x00000000000008ac      0x2c9 build/obj/chvt.o
 .debug_line    0x0000000000000b75      0x57b build/obj/chschd.o
 .debug_line    0x00000000000010f0      0x761 build/obj/chthreads.o
 .debug_line    0x0000000000001851      0x33c build/obj/chtm.o
 .debug_line    0x0000000000001b8d      0x380 build/obj/chregistry.o
 .debug_line    0x0000000000001f0d      0x4e4 build/obj/chmtx.o
 .debug_line    0x00000000000023f1      0x572 build/obj/chevents.o
 .debug_line    0x0000000000002963      0x378 build/obj/chmemcore.o
 .debug_line    0x0000000000002cdb      0x3de build/obj/chheap.o
 .debug_line    0x00000000000030b9      0x2c1 build/obj/chcore_v7m.o
 .debug_line    0x000000000000337a      0x382 build/obj/hal.o
 .debug_line    0x00000000000036fc      0x314 build/obj/st.o
 .debug_line    0x0000000000003a10      0x8a8 build/obj/hal_buffers.o
 .debug_line    0x00000000000042b8      0x3e3 build/obj/ext.o
 .debug_line    0x000000000000469b      0x52b build/obj/i2c.o
 .debug_line    0x0000000000004bc6      0x66f build/obj/serial_usb.o
 .debug_line    0x0000000000005235      0x691 build/obj/spi.o
 .debug_line    0x00000000000058c6      0x744 build/obj/usb.o
 .debug_line    0x000000000000600a      0x2be build/obj/nvic.o
 .debug_line    0x00000000000062c8      0x3fd build/obj/hal_lld.o
 .debug_line    0x00000000000066c5      0x5bd build/obj/stm32_dma.o
 .debug_line    0x0000000000006c82      0x329 build/obj/st_lld.o
 .debug_line    0x0000000000006fab      0x482 build/obj/ext_lld.o
 .debug_line    0x000000000000742d      0x4da build/obj/ext_lld_isr.o
 .debug_line    0x0000000000007907      0x375 build/obj/pal_lld.o
 .debug_line    0x0000000000007c7c      0x777 build/obj/i2c_lld.o
 .debug_line    0x00000000000083f3      0x9eb build/obj/usb_lld.o
 .debug_line    0x0000000000008dde      0x61e build/obj/spi_lld.o
 .debug_line    0x00000000000093fc      0x36b build/obj/board.o
 .debug_line    0x0000000000009767      0x4c4 build/obj/chprintf.o
 .debug_line    0x0000000000009c2b      0x429 build/obj/main.o
 .debug_line    0x000000000000a054      0x56f build/obj/as5x47.o
 .debug_line    0x000000000000a5c3      0x255 build/obj/comm_can.o
 .debug_line    0x000000000000a818      0x49d build/obj/comm_usb.o
 .debug_line    0x000000000000acb5      0x339 build/obj/comm.o
 .debug_line    0x000000000000afee      0x68d build/obj/controller.o
 .debug_line    0x000000000000b67b      0x303 build/obj/encoder.o
 .debug_line    0x000000000000b97e      0x109 build/obj/transforms.o
 .debug_line    0x000000000000ba87      0x57e build/obj/ws2812b.o
 .debug_line    0x000000000000c005       0xf2 build/obj/zsm.o
 .debug_line    0x000000000000c0f7      0x5bf build/obj/stm32f4xx_adc.o
 .debug_line    0x000000000000c6b6      0x45a build/obj/stm32f4xx_dma.o
 .debug_line    0x000000000000cb10      0x59e build/obj/stm32f4xx_rcc.o
 .debug_line    0x000000000000d0ae      0xc31 build/obj/stm32f4xx_tim.o

.debug_str      0x0000000000000000     0x5e22
 .debug_str     0x0000000000000000      0x470 build/obj/crt1.o
                                        0x4c9 (size before relaxing)
 .debug_str     0x0000000000000470      0x160 build/obj/vectors.o
                                        0x37f (size before relaxing)
 .debug_str     0x00000000000005d0      0xdd1 build/obj/chsys.o
                                       0x1044 (size before relaxing)
 .debug_str     0x00000000000013a1       0x45 build/obj/chvt.o
                                        0x5e6 (size before relaxing)
 .debug_str     0x00000000000013e6      0x140 build/obj/chschd.o
                                        0x793 (size before relaxing)
 .debug_str     0x0000000000001526      0x220 build/obj/chthreads.o
                                        0x8cf (size before relaxing)
 .debug_str     0x0000000000001746       0xc2 build/obj/chtm.o
                                        0x724 (size before relaxing)
 .debug_str     0x0000000000001808       0x47 build/obj/chregistry.o
                                        0x730 (size before relaxing)
 .debug_str     0x000000000000184f       0xaf build/obj/chmtx.o
                                        0x6f4 (size before relaxing)
 .debug_str     0x00000000000018fe      0x1f6 build/obj/chevents.o
                                        0x821 (size before relaxing)
 .debug_str     0x0000000000001af4       0x79 build/obj/chmemcore.o
                                        0x662 (size before relaxing)
 .debug_str     0x0000000000001b6d       0xbb build/obj/chheap.o
                                        0x69a (size before relaxing)
 .debug_str     0x0000000000001c28       0xd1 build/obj/chcore_v7m.o
                                        0x72b (size before relaxing)
 .debug_str     0x0000000000001cf9      0x119 build/obj/hal.o
                                        0x6a8 (size before relaxing)
 .debug_str     0x0000000000001e12       0xe5 build/obj/st.o
                                        0x689 (size before relaxing)
 .debug_str     0x0000000000001ef7      0x30f build/obj/hal_buffers.o
                                        0x96b (size before relaxing)
 .debug_str     0x0000000000002206      0x158 build/obj/ext.o
                                        0x764 (size before relaxing)
 .debug_str     0x000000000000235e      0x313 build/obj/i2c.o
                                        0x970 (size before relaxing)
 .debug_str     0x0000000000002671      0x840 build/obj/serial_usb.o
                                       0x1105 (size before relaxing)
 .debug_str     0x0000000000002eb1      0x25e build/obj/spi.o
                                        0x980 (size before relaxing)
 .debug_str     0x000000000000310f      0x271 build/obj/usb.o
                                        0xf76 (size before relaxing)
 .debug_str     0x0000000000003380       0x82 build/obj/nvic.o
                                        0x6de (size before relaxing)
 .debug_str     0x0000000000003402      0x164 build/obj/hal_lld.o
                                        0x74d (size before relaxing)
 .debug_str     0x0000000000003566      0x180 build/obj/stm32_dma.o
                                        0x8cc (size before relaxing)
 .debug_str     0x00000000000036e6       0x71 build/obj/st_lld.o
                                        0x6f2 (size before relaxing)
 .debug_str     0x0000000000003757       0xbd build/obj/ext_lld.o
                                        0x759 (size before relaxing)
 .debug_str     0x0000000000003814       0xb0 build/obj/ext_lld_isr.o
                                        0xc20 (size before relaxing)
 .debug_str     0x00000000000038c4       0x80 build/obj/pal_lld.o
                                        0x811 (size before relaxing)
 .debug_str     0x0000000000003944      0x169 build/obj/i2c_lld.o
                                       0x1136 (size before relaxing)
 .debug_str     0x0000000000003aad      0x1f6 build/obj/usb_lld.o
                                       0x120f (size before relaxing)
 .debug_str     0x0000000000003ca3       0xa0 build/obj/spi_lld.o
                                        0xaaa (size before relaxing)
 .debug_str     0x0000000000003d43       0x1b build/obj/board.o
                                        0x660 (size before relaxing)
 .debug_str     0x0000000000003d5e      0x15c build/obj/chprintf.o
                                        0x720 (size before relaxing)
 .debug_str     0x0000000000003eba       0xc5 build/obj/main.o
                                        0x6af (size before relaxing)
 .debug_str     0x0000000000003f7f      0x18d build/obj/as5x47.o
                                        0xeca (size before relaxing)
 .debug_str     0x000000000000410c       0x1b build/obj/comm_can.o
                                        0x5aa (size before relaxing)
 .debug_str     0x0000000000004127      0x156 build/obj/comm_usb.o
                                       0x1080 (size before relaxing)
 .debug_str     0x000000000000427d       0x57 build/obj/comm.o
                                        0x63c (size before relaxing)
 .debug_str     0x00000000000042d4      0x709 build/obj/controller.o
                                       0x1c2e (size before relaxing)
 .debug_str     0x00000000000049dd       0x64 build/obj/encoder.o
                                        0x648 (size before relaxing)
 .debug_str     0x0000000000004a41       0x35 build/obj/transforms.o
                                        0x279 (size before relaxing)
 .debug_str     0x0000000000004a76       0x9d build/obj/ws2812b.o
                                        0xa18 (size before relaxing)
 .debug_str     0x0000000000004b13       0x4d build/obj/zsm.o
                                        0x1cd (size before relaxing)
 .debug_str     0x0000000000004b60      0x3f8 build/obj/stm32f4xx_adc.o
                                        0x8e6 (size before relaxing)
 .debug_str     0x0000000000004f58      0x205 build/obj/stm32f4xx_dma.o
                                        0x5ff (size before relaxing)
 .debug_str     0x000000000000515d      0x497 build/obj/stm32f4xx_rcc.o
                                        0x8a0 (size before relaxing)
 .debug_str     0x00000000000055f4      0x82e build/obj/stm32f4xx_tim.o
                                        0xe13 (size before relaxing)

.debug_frame    0x0000000000000000     0x3d4c
 .debug_frame   0x0000000000000000       0x74 build/obj/crt1.o
 .debug_frame   0x0000000000000074       0x20 build/obj/vectors.o
 .debug_frame   0x0000000000000094       0xfc build/obj/chsys.o
 .debug_frame   0x0000000000000190       0x68 build/obj/chvt.o
 .debug_frame   0x00000000000001f8      0x154 build/obj/chschd.o
 .debug_frame   0x000000000000034c      0x258 build/obj/chthreads.o
 .debug_frame   0x00000000000005a4       0xac build/obj/chtm.o
 .debug_frame   0x0000000000000650       0x3c build/obj/chregistry.o
 .debug_frame   0x000000000000068c       0xf8 build/obj/chmtx.o
 .debug_frame   0x0000000000000784      0x1dc build/obj/chevents.o
 .debug_frame   0x0000000000000960       0x68 build/obj/chmemcore.o
 .debug_frame   0x00000000000009c8       0xc0 build/obj/chheap.o
 .debug_frame   0x0000000000000a88       0x3c build/obj/chcore_v7m.o
 .debug_frame   0x0000000000000ac4       0x30 build/obj/hal.o
 .debug_frame   0x0000000000000af4       0x60 build/obj/st.o
 .debug_frame   0x0000000000000b54      0x2e8 build/obj/hal_buffers.o
 .debug_frame   0x0000000000000e3c       0xc0 build/obj/ext.o
 .debug_frame   0x0000000000000efc       0xe8 build/obj/i2c.o
 .debug_frame   0x0000000000000fe4      0x238 build/obj/serial_usb.o
 .debug_frame   0x000000000000121c      0x1a8 build/obj/spi.o
 .debug_frame   0x00000000000013c4      0x20c build/obj/usb.o
 .debug_frame   0x00000000000015d0       0x68 build/obj/nvic.o
 .debug_frame   0x0000000000001638       0x3c build/obj/hal_lld.o
 .debug_frame   0x0000000000001674      0x270 build/obj/stm32_dma.o
 .debug_frame   0x00000000000018e4       0x40 build/obj/st_lld.o
 .debug_frame   0x0000000000001924       0x98 build/obj/ext_lld.o
 .debug_frame   0x00000000000019bc      0x1f8 build/obj/ext_lld_isr.o
 .debug_frame   0x0000000000001bb4       0x6c build/obj/pal_lld.o
 .debug_frame   0x0000000000001c20      0x1c8 build/obj/i2c_lld.o
 .debug_frame   0x0000000000001de8      0x2d4 build/obj/usb_lld.o
 .debug_frame   0x00000000000020bc      0x168 build/obj/spi_lld.o
 .debug_frame   0x0000000000002224       0x30 build/obj/board.o
 .debug_frame   0x0000000000002254      0x114 build/obj/chprintf.o
 .debug_frame   0x0000000000002368       0x48 build/obj/main.o
 .debug_frame   0x00000000000023b0       0xc4 build/obj/as5x47.o
 .debug_frame   0x0000000000002474       0x30 build/obj/comm_can.o
 .debug_frame   0x00000000000024a4       0x8c build/obj/comm_usb.o
 .debug_frame   0x0000000000002530       0x48 build/obj/comm.o
 .debug_frame   0x0000000000002578       0xc0 build/obj/controller.o
 .debug_frame   0x0000000000002638       0x3c build/obj/encoder.o
 .debug_frame   0x0000000000002674       0xf8 build/obj/transforms.o
 .debug_frame   0x000000000000276c       0xb8 build/obj/ws2812b.o
 .debug_frame   0x0000000000002824       0x60 build/obj/zsm.o
 .debug_frame   0x0000000000002884      0x308 build/obj/stm32f4xx_adc.o
 .debug_frame   0x0000000000002b8c      0x1c4 build/obj/stm32f4xx_dma.o
 .debug_frame   0x0000000000002d50      0x2b8 build/obj/stm32f4xx_rcc.o
 .debug_frame   0x0000000000003008      0x764 build/obj/stm32f4xx_tim.o
 .debug_frame   0x000000000000376c       0x3c /opt/homebrew-cask/Caskroom/gcc-arm-embedded/5_2-2015q4,20151219/gcc-arm-none-eabi-5_2-2015q4/bin/../lib/gcc/arm-none-eabi/5.2.1/../../../../arm-none-eabi/lib/armv7e-m/fpu/libm.a(lib_a-s_cos.o)
 .debug_frame   0x00000000000037a8       0x3c /opt/homebrew-cask/Caskroom/gcc-arm-embedded/5_2-2015q4,20151219/gcc-arm-none-eabi-5_2-2015q4/bin/../lib/gcc/arm-none-eabi/5.2.1/../../../../arm-none-eabi/lib/armv7e-m/fpu/libm.a(lib_a-s_sin.o)
 .debug_frame   0x00000000000037e4       0x38 /opt/homebrew-cask/Caskroom/gcc-arm-embedded/5_2-2015q4,20151219/gcc-arm-none-eabi-5_2-2015q4/bin/../lib/gcc/arm-none-eabi/5.2.1/../../../../arm-none-eabi/lib/armv7e-m/fpu/libm.a(lib_a-sf_round.o)
 .debug_frame   0x000000000000381c       0x54 /opt/homebrew-cask/Caskroom/gcc-arm-embedded/5_2-2015q4,20151219/gcc-arm-none-eabi-5_2-2015q4/bin/../lib/gcc/arm-none-eabi/5.2.1/../../../../arm-none-eabi/lib/armv7e-m/fpu/libm.a(lib_a-w_fmod.o)
 .debug_frame   0x0000000000003870       0x50 /opt/homebrew-cask/Caskroom/gcc-arm-embedded/5_2-2015q4,20151219/gcc-arm-none-eabi-5_2-2015q4/bin/../lib/gcc/arm-none-eabi/5.2.1/../../../../arm-none-eabi/lib/armv7e-m/fpu/libm.a(lib_a-wf_pow.o)
 .debug_frame   0x00000000000038c0       0x38 /opt/homebrew-cask/Caskroom/gcc-arm-embedded/5_2-2015q4,20151219/gcc-arm-none-eabi-5_2-2015q4/bin/../lib/gcc/arm-none-eabi/5.2.1/../../../../arm-none-eabi/lib/armv7e-m/fpu/libm.a(lib_a-e_fmod.o)
 .debug_frame   0x00000000000038f8       0x48 /opt/homebrew-cask/Caskroom/gcc-arm-embedded/5_2-2015q4,20151219/gcc-arm-none-eabi-5_2-2015q4/bin/../lib/gcc/arm-none-eabi/5.2.1/../../../../arm-none-eabi/lib/armv7e-m/fpu/libm.a(lib_a-e_rem_pio2.o)
 .debug_frame   0x0000000000003940       0x80 /opt/homebrew-cask/Caskroom/gcc-arm-embedded/5_2-2015q4,20151219/gcc-arm-none-eabi-5_2-2015q4/bin/../lib/gcc/arm-none-eabi/5.2.1/../../../../arm-none-eabi/lib/armv7e-m/fpu/libm.a(lib_a-ef_pow.o)
 .debug_frame   0x00000000000039c0       0x3c /opt/homebrew-cask/Caskroom/gcc-arm-embedded/5_2-2015q4,20151219/gcc-arm-none-eabi-5_2-2015q4/bin/../lib/gcc/arm-none-eabi/5.2.1/../../../../arm-none-eabi/lib/armv7e-m/fpu/libm.a(lib_a-ef_sqrt.o)
 .debug_frame   0x00000000000039fc       0x68 /opt/homebrew-cask/Caskroom/gcc-arm-embedded/5_2-2015q4,20151219/gcc-arm-none-eabi-5_2-2015q4/bin/../lib/gcc/arm-none-eabi/5.2.1/../../../../arm-none-eabi/lib/armv7e-m/fpu/libm.a(lib_a-k_cos.o)
 .debug_frame   0x0000000000003a64       0x50 /opt/homebrew-cask/Caskroom/gcc-arm-embedded/5_2-2015q4,20151219/gcc-arm-none-eabi-5_2-2015q4/bin/../lib/gcc/arm-none-eabi/5.2.1/../../../../arm-none-eabi/lib/armv7e-m/fpu/libm.a(lib_a-k_rem_pio2.o)
 .debug_frame   0x0000000000003ab4       0x68 /opt/homebrew-cask/Caskroom/gcc-arm-embedded/5_2-2015q4,20151219/gcc-arm-none-eabi-5_2-2015q4/bin/../lib/gcc/arm-none-eabi/5.2.1/../../../../arm-none-eabi/lib/armv7e-m/fpu/libm.a(lib_a-k_sin.o)
 .debug_frame   0x0000000000003b1c       0x20 /opt/homebrew-cask/Caskroom/gcc-arm-embedded/5_2-2015q4,20151219/gcc-arm-none-eabi-5_2-2015q4/bin/../lib/gcc/arm-none-eabi/5.2.1/../../../../arm-none-eabi/lib/armv7e-m/fpu/libm.a(lib_a-s_fabs.o)
 .debug_frame   0x0000000000003b3c       0x30 /opt/homebrew-cask/Caskroom/gcc-arm-embedded/5_2-2015q4,20151219/gcc-arm-none-eabi-5_2-2015q4/bin/../lib/gcc/arm-none-eabi/5.2.1/../../../../arm-none-eabi/lib/armv7e-m/fpu/libm.a(lib_a-s_floor.o)
 .debug_frame   0x0000000000003b6c       0x34 /opt/homebrew-cask/Caskroom/gcc-arm-embedded/5_2-2015q4,20151219/gcc-arm-none-eabi-5_2-2015q4/bin/../lib/gcc/arm-none-eabi/5.2.1/../../../../arm-none-eabi/lib/armv7e-m/fpu/libm.a(lib_a-s_fpclassify.o)
 .debug_frame   0x0000000000003ba0       0x20 /opt/homebrew-cask/Caskroom/gcc-arm-embedded/5_2-2015q4,20151219/gcc-arm-none-eabi-5_2-2015q4/bin/../lib/gcc/arm-none-eabi/5.2.1/../../../../arm-none-eabi/lib/armv7e-m/fpu/libm.a(lib_a-s_matherr.o)
 .debug_frame   0x0000000000003bc0       0x3c /opt/homebrew-cask/Caskroom/gcc-arm-embedded/5_2-2015q4,20151219/gcc-arm-none-eabi-5_2-2015q4/bin/../lib/gcc/arm-none-eabi/5.2.1/../../../../arm-none-eabi/lib/armv7e-m/fpu/libm.a(lib_a-s_rint.o)
 .debug_frame   0x0000000000003bfc       0x2c /opt/homebrew-cask/Caskroom/gcc-arm-embedded/5_2-2015q4,20151219/gcc-arm-none-eabi-5_2-2015q4/bin/../lib/gcc/arm-none-eabi/5.2.1/../../../../arm-none-eabi/lib/armv7e-m/fpu/libm.a(lib_a-s_scalbn.o)
 .debug_frame   0x0000000000003c28       0x20 /opt/homebrew-cask/Caskroom/gcc-arm-embedded/5_2-2015q4,20151219/gcc-arm-none-eabi-5_2-2015q4/bin/../lib/gcc/arm-none-eabi/5.2.1/../../../../arm-none-eabi/lib/armv7e-m/fpu/libm.a(lib_a-sf_fabs.o)
 .debug_frame   0x0000000000003c48       0x20 /opt/homebrew-cask/Caskroom/gcc-arm-embedded/5_2-2015q4,20151219/gcc-arm-none-eabi-5_2-2015q4/bin/../lib/gcc/arm-none-eabi/5.2.1/../../../../arm-none-eabi/lib/armv7e-m/fpu/libm.a(lib_a-sf_finite.o)
 .debug_frame   0x0000000000003c68       0x20 /opt/homebrew-cask/Caskroom/gcc-arm-embedded/5_2-2015q4,20151219/gcc-arm-none-eabi-5_2-2015q4/bin/../lib/gcc/arm-none-eabi/5.2.1/../../../../arm-none-eabi/lib/armv7e-m/fpu/libm.a(lib_a-sf_fpclassify.o)
 .debug_frame   0x0000000000003c88       0x20 /opt/homebrew-cask/Caskroom/gcc-arm-embedded/5_2-2015q4,20151219/gcc-arm-none-eabi-5_2-2015q4/bin/../lib/gcc/arm-none-eabi/5.2.1/../../../../arm-none-eabi/lib/armv7e-m/fpu/libm.a(lib_a-sf_nan.o)
 .debug_frame   0x0000000000003ca8       0x44 /opt/homebrew-cask/Caskroom/gcc-arm-embedded/5_2-2015q4,20151219/gcc-arm-none-eabi-5_2-2015q4/bin/../lib/gcc/arm-none-eabi/5.2.1/../../../../arm-none-eabi/lib/armv7e-m/fpu/libm.a(lib_a-sf_scalbn.o)
 .debug_frame   0x0000000000003cec       0x20 /opt/homebrew-cask/Caskroom/gcc-arm-embedded/5_2-2015q4,20151219/gcc-arm-none-eabi-5_2-2015q4/bin/../lib/gcc/arm-none-eabi/5.2.1/../../../../arm-none-eabi/lib/armv7e-m/fpu/libm.a(lib_a-s_copysign.o)
 .debug_frame   0x0000000000003d0c       0x20 /opt/homebrew-cask/Caskroom/gcc-arm-embedded/5_2-2015q4,20151219/gcc-arm-none-eabi-5_2-2015q4/bin/../lib/gcc/arm-none-eabi/5.2.1/../../../../arm-none-eabi/lib/armv7e-m/fpu/libm.a(lib_a-sf_copysign.o)
 .debug_frame   0x0000000000003d2c       0x20 /opt/homebrew-cask/Caskroom/gcc-arm-embedded/5_2-2015q4,20151219/gcc-arm-none-eabi-5_2-2015q4/bin/../lib/gcc/arm-none-eabi/5.2.1/../../../../arm-none-eabi/lib/armv7e-m/fpu/libg.a(lib_a-errno.o)

Cross Reference Table

Symbol                                            File
ADC_AnalogWatchdogCmd                             build/obj/stm32f4xx_adc.o
ADC_AnalogWatchdogSingleChannelConfig             build/obj/stm32f4xx_adc.o
ADC_AnalogWatchdogThresholdsConfig                build/obj/stm32f4xx_adc.o
ADC_AutoInjectedConvCmd                           build/obj/stm32f4xx_adc.o
ADC_ClearFlag                                     build/obj/stm32f4xx_adc.o
ADC_ClearITPendingBit                             build/obj/stm32f4xx_adc.o
                                                  build/obj/controller.o
ADC_Cmd                                           build/obj/stm32f4xx_adc.o
                                                  build/obj/controller.o
ADC_CommonInit                                    build/obj/stm32f4xx_adc.o
                                                  build/obj/controller.o
ADC_CommonStructInit                              build/obj/stm32f4xx_adc.o
ADC_ContinuousModeCmd                             build/obj/stm32f4xx_adc.o
ADC_DMACmd                                        build/obj/stm32f4xx_adc.o
ADC_DMARequestAfterLastTransferCmd                build/obj/stm32f4xx_adc.o
ADC_DeInit                                        build/obj/stm32f4xx_adc.o
ADC_DiscModeChannelCountConfig                    build/obj/stm32f4xx_adc.o
ADC_DiscModeCmd                                   build/obj/stm32f4xx_adc.o
ADC_EOCOnEachRegularChannelCmd                    build/obj/stm32f4xx_adc.o
ADC_ExternalTrigInjectedConvConfig                build/obj/stm32f4xx_adc.o
                                                  build/obj/controller.o
ADC_ExternalTrigInjectedConvEdgeConfig            build/obj/stm32f4xx_adc.o
                                                  build/obj/controller.o
ADC_GetConversionValue                            build/obj/stm32f4xx_adc.o
ADC_GetFlagStatus                                 build/obj/stm32f4xx_adc.o
ADC_GetITStatus                                   build/obj/stm32f4xx_adc.o
ADC_GetInjectedConversionValue                    build/obj/stm32f4xx_adc.o
                                                  build/obj/controller.o
ADC_GetMultiModeConversionValue                   build/obj/stm32f4xx_adc.o
ADC_GetSoftwareStartConvStatus                    build/obj/stm32f4xx_adc.o
ADC_GetSoftwareStartInjectedConvCmdStatus         build/obj/stm32f4xx_adc.o
ADC_ITConfig                                      build/obj/stm32f4xx_adc.o
                                                  build/obj/controller.o
ADC_Init                                          build/obj/stm32f4xx_adc.o
                                                  build/obj/controller.o
ADC_InjectedChannelConfig                         build/obj/stm32f4xx_adc.o
                                                  build/obj/controller.o
ADC_InjectedDiscModeCmd                           build/obj/stm32f4xx_adc.o
ADC_InjectedSequencerLengthConfig                 build/obj/stm32f4xx_adc.o
                                                  build/obj/controller.o
ADC_MultiModeDMARequestAfterLastTransferCmd       build/obj/stm32f4xx_adc.o
                                                  build/obj/controller.o
ADC_RegularChannelConfig                          build/obj/stm32f4xx_adc.o
ADC_SetInjectedOffset                             build/obj/stm32f4xx_adc.o
ADC_SoftwareStartConv                             build/obj/stm32f4xx_adc.o
ADC_SoftwareStartInjectedConv                     build/obj/stm32f4xx_adc.o
ADC_StructInit                                    build/obj/stm32f4xx_adc.o
ADC_TempSensorVrefintCmd                          build/obj/stm32f4xx_adc.o
ADC_VBATCmd                                       build/obj/stm32f4xx_adc.o
ADC_Value                                         build/obj/controller.o
BusFault_Handler                                  build/obj/vectors.o
DMA_ClearFlag                                     build/obj/stm32f4xx_dma.o
DMA_ClearITPendingBit                             build/obj/stm32f4xx_dma.o
DMA_Cmd                                           build/obj/stm32f4xx_dma.o
                                                  build/obj/ws2812b.o
                                                  build/obj/controller.o
DMA_DeInit                                        build/obj/stm32f4xx_dma.o
                                                  build/obj/ws2812b.o
DMA_DoubleBufferModeCmd                           build/obj/stm32f4xx_dma.o
DMA_DoubleBufferModeConfig                        build/obj/stm32f4xx_dma.o
DMA_FlowControllerConfig                          build/obj/stm32f4xx_dma.o
DMA_GetCmdStatus                                  build/obj/stm32f4xx_dma.o
DMA_GetCurrDataCounter                            build/obj/stm32f4xx_dma.o
DMA_GetCurrentMemoryTarget                        build/obj/stm32f4xx_dma.o
DMA_GetFIFOStatus                                 build/obj/stm32f4xx_dma.o
DMA_GetFlagStatus                                 build/obj/stm32f4xx_dma.o
DMA_GetITStatus                                   build/obj/stm32f4xx_dma.o
DMA_ITConfig                                      build/obj/stm32f4xx_dma.o
DMA_Init                                          build/obj/stm32f4xx_dma.o
                                                  build/obj/ws2812b.o
                                                  build/obj/controller.o
DMA_MemoryTargetConfig                            build/obj/stm32f4xx_dma.o
DMA_PeriphIncOffsetSizeConfig                     build/obj/stm32f4xx_dma.o
DMA_SetCurrDataCounter                            build/obj/stm32f4xx_dma.o
DMA_StructInit                                    build/obj/stm32f4xx_dma.o
DebugMon_Handler                                  build/obj/vectors.o
EXTD1                                             build/obj/ext_lld.o
                                                  build/obj/ext_lld_isr.o
EXTI_ClearFlag                                    build/obj/stm32f4xx_exti.o
EXTI_ClearITPendingBit                            build/obj/stm32f4xx_exti.o
EXTI_DeInit                                       build/obj/stm32f4xx_exti.o
EXTI_GenerateSWInterrupt                          build/obj/stm32f4xx_exti.o
EXTI_GetFlagStatus                                build/obj/stm32f4xx_exti.o
EXTI_GetITStatus                                  build/obj/stm32f4xx_exti.o
EXTI_Init                                         build/obj/stm32f4xx_exti.o
EXTI_StructInit                                   build/obj/stm32f4xx_exti.o
FLASH_ClearFlag                                   build/obj/stm32f4xx_flash.o
FLASH_DataCacheCmd                                build/obj/stm32f4xx_flash.o
FLASH_DataCacheReset                              build/obj/stm32f4xx_flash.o
FLASH_EraseAllBank1Sectors                        build/obj/stm32f4xx_flash.o
FLASH_EraseAllBank2Sectors                        build/obj/stm32f4xx_flash.o
FLASH_EraseAllSectors                             build/obj/stm32f4xx_flash.o
FLASH_EraseSector                                 build/obj/stm32f4xx_flash.o
FLASH_GetFlagStatus                               build/obj/stm32f4xx_flash.o
FLASH_GetStatus                                   build/obj/stm32f4xx_flash.o
FLASH_ITConfig                                    build/obj/stm32f4xx_flash.o
FLASH_InstructionCacheCmd                         build/obj/stm32f4xx_flash.o
FLASH_InstructionCacheReset                       build/obj/stm32f4xx_flash.o
FLASH_Lock                                        build/obj/stm32f4xx_flash.o
FLASH_OB_BORConfig                                build/obj/stm32f4xx_flash.o
FLASH_OB_BootConfig                               build/obj/stm32f4xx_flash.o
FLASH_OB_GetBOR                                   build/obj/stm32f4xx_flash.o
FLASH_OB_GetPCROP                                 build/obj/stm32f4xx_flash.o
FLASH_OB_GetPCROP1                                build/obj/stm32f4xx_flash.o
FLASH_OB_GetRDP                                   build/obj/stm32f4xx_flash.o
FLASH_OB_GetUser                                  build/obj/stm32f4xx_flash.o
FLASH_OB_GetWRP                                   build/obj/stm32f4xx_flash.o
FLASH_OB_GetWRP1                                  build/obj/stm32f4xx_flash.o
FLASH_OB_Launch                                   build/obj/stm32f4xx_flash.o
FLASH_OB_Lock                                     build/obj/stm32f4xx_flash.o
FLASH_OB_PCROP1Config                             build/obj/stm32f4xx_flash.o
FLASH_OB_PCROPConfig                              build/obj/stm32f4xx_flash.o
FLASH_OB_PCROPSelectionConfig                     build/obj/stm32f4xx_flash.o
FLASH_OB_RDPConfig                                build/obj/stm32f4xx_flash.o
FLASH_OB_Unlock                                   build/obj/stm32f4xx_flash.o
FLASH_OB_UserConfig                               build/obj/stm32f4xx_flash.o
FLASH_OB_WRP1Config                               build/obj/stm32f4xx_flash.o
FLASH_OB_WRPConfig                                build/obj/stm32f4xx_flash.o
FLASH_PrefetchBufferCmd                           build/obj/stm32f4xx_flash.o
FLASH_ProgramByte                                 build/obj/stm32f4xx_flash.o
FLASH_ProgramDoubleWord                           build/obj/stm32f4xx_flash.o
FLASH_ProgramHalfWord                             build/obj/stm32f4xx_flash.o
FLASH_ProgramWord                                 build/obj/stm32f4xx_flash.o
FLASH_SetLatency                                  build/obj/stm32f4xx_flash.o
FLASH_Unlock                                      build/obj/stm32f4xx_flash.o
FLASH_WaitForLastOperation                        build/obj/stm32f4xx_flash.o
HardFault_Handler                                 build/obj/vectors.o
I2CD1                                             build/obj/i2c_lld.o
IS_SYSCFG_MEMORY_REMAP_CONFING                    build/obj/stm32f4xx_syscfg.o
MemManage_Handler                                 build/obj/vectors.o
NMI_Handler                                       build/obj/vectors.o
NVIC_Init                                         build/obj/misc.o
NVIC_PriorityGroupConfig                          build/obj/misc.o
NVIC_SetVectorTable                               build/obj/misc.o
NVIC_SystemLPConfig                               build/obj/misc.o
PendSV_Handler                                    build/obj/vectors.o
RCC_AHB1PeriphClockCmd                            build/obj/stm32f4xx_rcc.o
                                                  build/obj/ws2812b.o
                                                  build/obj/controller.o
                                                  build/obj/main.o
RCC_AHB1PeriphClockLPModeCmd                      build/obj/stm32f4xx_rcc.o
RCC_AHB1PeriphResetCmd                            build/obj/stm32f4xx_rcc.o
RCC_AHB2PeriphClockCmd                            build/obj/stm32f4xx_rcc.o
RCC_AHB2PeriphClockLPModeCmd                      build/obj/stm32f4xx_rcc.o
RCC_AHB2PeriphResetCmd                            build/obj/stm32f4xx_rcc.o
RCC_APB1PeriphClockCmd                            build/obj/stm32f4xx_rcc.o
                                                  build/obj/ws2812b.o
                                                  build/obj/as5x47.o
RCC_APB1PeriphClockLPModeCmd                      build/obj/stm32f4xx_rcc.o
RCC_APB1PeriphResetCmd                            build/obj/stm32f4xx_rcc.o
                                                  build/obj/stm32f4xx_wwdg.o
                                                  build/obj/stm32f4xx_tim.o
RCC_APB2PeriphClockCmd                            build/obj/stm32f4xx_rcc.o
                                                  build/obj/controller.o
RCC_APB2PeriphClockLPModeCmd                      build/obj/stm32f4xx_rcc.o
RCC_APB2PeriphResetCmd                            build/obj/stm32f4xx_rcc.o
                                                  build/obj/stm32f4xx_tim.o
                                                  build/obj/stm32f4xx_syscfg.o
                                                  build/obj/stm32f4xx_adc.o
RCC_AdjustHSICalibrationValue                     build/obj/stm32f4xx_rcc.o
RCC_BackupResetCmd                                build/obj/stm32f4xx_rcc.o
RCC_ClearFlag                                     build/obj/stm32f4xx_rcc.o
RCC_ClearITPendingBit                             build/obj/stm32f4xx_rcc.o
RCC_ClockSecuritySystemCmd                        build/obj/stm32f4xx_rcc.o
RCC_DeInit                                        build/obj/stm32f4xx_rcc.o
RCC_GetClocksFreq                                 build/obj/stm32f4xx_rcc.o
RCC_GetFlagStatus                                 build/obj/stm32f4xx_rcc.o
RCC_GetITStatus                                   build/obj/stm32f4xx_rcc.o
RCC_GetSYSCLKSource                               build/obj/stm32f4xx_rcc.o
RCC_HCLKConfig                                    build/obj/stm32f4xx_rcc.o
RCC_HSEConfig                                     build/obj/stm32f4xx_rcc.o
RCC_HSICmd                                        build/obj/stm32f4xx_rcc.o
RCC_ITConfig                                      build/obj/stm32f4xx_rcc.o
RCC_LSEConfig                                     build/obj/stm32f4xx_rcc.o
RCC_LSEModeConfig                                 build/obj/stm32f4xx_rcc.o
RCC_LSICmd                                        build/obj/stm32f4xx_rcc.o
RCC_MCO1Config                                    build/obj/stm32f4xx_rcc.o
RCC_MCO2Config                                    build/obj/stm32f4xx_rcc.o
RCC_PCLK1Config                                   build/obj/stm32f4xx_rcc.o
RCC_PCLK2Config                                   build/obj/stm32f4xx_rcc.o
RCC_PLLCmd                                        build/obj/stm32f4xx_rcc.o
RCC_PLLI2SCmd                                     build/obj/stm32f4xx_rcc.o
RCC_PLLSAICmd                                     build/obj/stm32f4xx_rcc.o
RCC_RTCCLKCmd                                     build/obj/stm32f4xx_rcc.o
RCC_RTCCLKConfig                                  build/obj/stm32f4xx_rcc.o
RCC_SYSCLKConfig                                  build/obj/stm32f4xx_rcc.o
RCC_TIMCLKPresConfig                              build/obj/stm32f4xx_rcc.o
RCC_WaitForHSEStartUp                             build/obj/stm32f4xx_rcc.o
Reset_Handler                                     build/obj/crt0_v7m.o
                                                  build/obj/vectors.o
SDU1                                              build/obj/comm_usb.o
                                                  build/obj/controller.o
SPID1                                             build/obj/spi_lld.o
                                                  build/obj/as5x47.o
SVC_Handler                                       build/obj/chcore_v7m.o
                                                  build/obj/vectors.o
SYSCFG_CompensationCellCmd                        build/obj/stm32f4xx_syscfg.o
SYSCFG_DeInit                                     build/obj/stm32f4xx_syscfg.o
SYSCFG_ETH_MediaInterfaceConfig                   build/obj/stm32f4xx_syscfg.o
SYSCFG_EXTILineConfig                             build/obj/stm32f4xx_syscfg.o
SYSCFG_GetCompensationCellStatus                  build/obj/stm32f4xx_syscfg.o
SYSCFG_MemoryRemapConfig                          build/obj/stm32f4xx_syscfg.o
SYSCFG_MemorySwappingBank                         build/obj/stm32f4xx_syscfg.o
SysTick_CLKSourceConfig                           build/obj/misc.o
SysTick_Handler                                   build/obj/st_lld.o
                                                  build/obj/vectors.o
SystemCoreClock                                   build/obj/hal_lld.o
TIM4_IRQHandler                                   build/obj/as5x47.o
TIM_ARRPreloadConfig                              build/obj/stm32f4xx_tim.o
                                                  build/obj/controller.o
TIM_BDTRConfig                                    build/obj/stm32f4xx_tim.o
                                                  build/obj/controller.o
TIM_BDTRStructInit                                build/obj/stm32f4xx_tim.o
TIM_CCPreloadControl                              build/obj/stm32f4xx_tim.o
                                                  build/obj/controller.o
TIM_CCxCmd                                        build/obj/stm32f4xx_tim.o
TIM_CCxNCmd                                       build/obj/stm32f4xx_tim.o
TIM_ClearFlag                                     build/obj/stm32f4xx_tim.o
TIM_ClearITPendingBit                             build/obj/stm32f4xx_tim.o
                                                  build/obj/as5x47.o
TIM_ClearOC1Ref                                   build/obj/stm32f4xx_tim.o
TIM_ClearOC2Ref                                   build/obj/stm32f4xx_tim.o
TIM_ClearOC3Ref                                   build/obj/stm32f4xx_tim.o
TIM_ClearOC4Ref                                   build/obj/stm32f4xx_tim.o
TIM_Cmd                                           build/obj/stm32f4xx_tim.o
                                                  build/obj/ws2812b.o
                                                  build/obj/controller.o
                                                  build/obj/as5x47.o
TIM_CounterModeConfig                             build/obj/stm32f4xx_tim.o
TIM_CtrlPWMOutputs                                build/obj/stm32f4xx_tim.o
                                                  build/obj/ws2812b.o
                                                  build/obj/controller.o
TIM_DMACmd                                        build/obj/stm32f4xx_tim.o
                                                  build/obj/ws2812b.o
TIM_DMAConfig                                     build/obj/stm32f4xx_tim.o
TIM_DeInit                                        build/obj/stm32f4xx_tim.o
                                                  build/obj/controller.o
TIM_ETRClockMode1Config                           build/obj/stm32f4xx_tim.o
TIM_ETRClockMode2Config                           build/obj/stm32f4xx_tim.o
TIM_ETRConfig                                     build/obj/stm32f4xx_tim.o
TIM_EncoderInterfaceConfig                        build/obj/stm32f4xx_tim.o
TIM_ForcedOC1Config                               build/obj/stm32f4xx_tim.o
TIM_ForcedOC2Config                               build/obj/stm32f4xx_tim.o
TIM_ForcedOC3Config                               build/obj/stm32f4xx_tim.o
TIM_ForcedOC4Config                               build/obj/stm32f4xx_tim.o
TIM_GenerateEvent                                 build/obj/stm32f4xx_tim.o
TIM_GetCapture1                                   build/obj/stm32f4xx_tim.o
TIM_GetCapture2                                   build/obj/stm32f4xx_tim.o
TIM_GetCapture3                                   build/obj/stm32f4xx_tim.o
TIM_GetCapture4                                   build/obj/stm32f4xx_tim.o
TIM_GetCounter                                    build/obj/stm32f4xx_tim.o
TIM_GetFlagStatus                                 build/obj/stm32f4xx_tim.o
TIM_GetITStatus                                   build/obj/stm32f4xx_tim.o
                                                  build/obj/as5x47.o
TIM_GetPrescaler                                  build/obj/stm32f4xx_tim.o
TIM_ICInit                                        build/obj/stm32f4xx_tim.o
TIM_ICStructInit                                  build/obj/stm32f4xx_tim.o
TIM_ITConfig                                      build/obj/stm32f4xx_tim.o
TIM_ITRxExternalClockConfig                       build/obj/stm32f4xx_tim.o
TIM_InternalClockConfig                           build/obj/stm32f4xx_tim.o
TIM_OC1FastConfig                                 build/obj/stm32f4xx_tim.o
TIM_OC1Init                                       build/obj/stm32f4xx_tim.o
                                                  build/obj/controller.o
TIM_OC1NPolarityConfig                            build/obj/stm32f4xx_tim.o
TIM_OC1PolarityConfig                             build/obj/stm32f4xx_tim.o
TIM_OC1PreloadConfig                              build/obj/stm32f4xx_tim.o
                                                  build/obj/controller.o
TIM_OC2FastConfig                                 build/obj/stm32f4xx_tim.o
TIM_OC2Init                                       build/obj/stm32f4xx_tim.o
                                                  build/obj/controller.o
TIM_OC2NPolarityConfig                            build/obj/stm32f4xx_tim.o
TIM_OC2PolarityConfig                             build/obj/stm32f4xx_tim.o
TIM_OC2PreloadConfig                              build/obj/stm32f4xx_tim.o
                                                  build/obj/controller.o
TIM_OC3FastConfig                                 build/obj/stm32f4xx_tim.o
TIM_OC3Init                                       build/obj/stm32f4xx_tim.o
                                                  build/obj/ws2812b.o
                                                  build/obj/controller.o
TIM_OC3NPolarityConfig                            build/obj/stm32f4xx_tim.o
TIM_OC3PolarityConfig                             build/obj/stm32f4xx_tim.o
TIM_OC3PreloadConfig                              build/obj/stm32f4xx_tim.o
                                                  build/obj/ws2812b.o
                                                  build/obj/controller.o
TIM_OC4FastConfig                                 build/obj/stm32f4xx_tim.o
TIM_OC4Init                                       build/obj/stm32f4xx_tim.o
                                                  build/obj/controller.o
TIM_OC4PolarityConfig                             build/obj/stm32f4xx_tim.o
TIM_OC4PreloadConfig                              build/obj/stm32f4xx_tim.o
                                                  build/obj/controller.o
TIM_OCStructInit                                  build/obj/stm32f4xx_tim.o
TIM_PWMIConfig                                    build/obj/stm32f4xx_tim.o
TIM_PrescalerConfig                               build/obj/stm32f4xx_tim.o
TIM_RemapConfig                                   build/obj/stm32f4xx_tim.o
TIM_SelectCCDMA                                   build/obj/stm32f4xx_tim.o
TIM_SelectCOM                                     build/obj/stm32f4xx_tim.o
TIM_SelectHallSensor                              build/obj/stm32f4xx_tim.o
TIM_SelectInputTrigger                            build/obj/stm32f4xx_tim.o
TIM_SelectMasterSlaveMode                         build/obj/stm32f4xx_tim.o
TIM_SelectOCxM                                    build/obj/stm32f4xx_tim.o
TIM_SelectOnePulseMode                            build/obj/stm32f4xx_tim.o
TIM_SelectOutputTrigger                           build/obj/stm32f4xx_tim.o
TIM_SelectSlaveMode                               build/obj/stm32f4xx_tim.o
TIM_SetAutoreload                                 build/obj/stm32f4xx_tim.o
TIM_SetClockDivision                              build/obj/stm32f4xx_tim.o
TIM_SetCompare1                                   build/obj/stm32f4xx_tim.o
TIM_SetCompare2                                   build/obj/stm32f4xx_tim.o
TIM_SetCompare3                                   build/obj/stm32f4xx_tim.o
TIM_SetCompare4                                   build/obj/stm32f4xx_tim.o
TIM_SetCounter                                    build/obj/stm32f4xx_tim.o
TIM_SetIC1Prescaler                               build/obj/stm32f4xx_tim.o
TIM_SetIC2Prescaler                               build/obj/stm32f4xx_tim.o
TIM_SetIC3Prescaler                               build/obj/stm32f4xx_tim.o
TIM_SetIC4Prescaler                               build/obj/stm32f4xx_tim.o
TIM_TIxExternalClockConfig                        build/obj/stm32f4xx_tim.o
TIM_TimeBaseInit                                  build/obj/stm32f4xx_tim.o
                                                  build/obj/ws2812b.o
                                                  build/obj/controller.o
                                                  build/obj/as5x47.o
TIM_TimeBaseStructInit                            build/obj/stm32f4xx_tim.o
TIM_UpdateDisableConfig                           build/obj/stm32f4xx_tim.o
TIM_UpdateRequestConfig                           build/obj/stm32f4xx_tim.o
USBD1                                             build/obj/usb_lld.o
                                                  build/obj/comm_usb.o
UsageFault_Handler                                build/obj/vectors.o
Vector100                                         build/obj/vectors.o
Vector104                                         build/obj/vectors.o
Vector108                                         build/obj/vectors.o
Vector10C                                         build/obj/vectors.o
Vector110                                         build/obj/vectors.o
Vector114                                         build/obj/vectors.o
Vector118                                         build/obj/vectors.o
Vector11C                                         build/obj/vectors.o
Vector120                                         build/obj/stm32_dma.o
                                                  build/obj/vectors.o
Vector124                                         build/obj/stm32_dma.o
                                                  build/obj/vectors.o
Vector128                                         build/obj/stm32_dma.o
                                                  build/obj/vectors.o
Vector12C                                         build/obj/stm32_dma.o
                                                  build/obj/vectors.o
Vector130                                         build/obj/stm32_dma.o
                                                  build/obj/vectors.o
Vector134                                         build/obj/vectors.o
Vector138                                         build/obj/vectors.o
Vector13C                                         build/obj/vectors.o
Vector140                                         build/obj/vectors.o
Vector144                                         build/obj/vectors.o
Vector148                                         build/obj/vectors.o
Vector14C                                         build/obj/usb_lld.o
                                                  build/obj/vectors.o
Vector150                                         build/obj/stm32_dma.o
                                                  build/obj/vectors.o
Vector154                                         build/obj/stm32_dma.o
                                                  build/obj/vectors.o
Vector158                                         build/obj/stm32_dma.o
                                                  build/obj/vectors.o
Vector15C                                         build/obj/vectors.o
Vector160                                         build/obj/vectors.o
Vector164                                         build/obj/vectors.o
Vector168                                         build/obj/vectors.o
Vector16C                                         build/obj/vectors.o
Vector170                                         build/obj/ext_lld_isr.o
                                                  build/obj/vectors.o
Vector174                                         build/obj/vectors.o
Vector178                                         build/obj/vectors.o
Vector17C                                         build/obj/vectors.o
Vector180                                         build/obj/vectors.o
Vector184                                         build/obj/vectors.o
Vector188                                         build/obj/vectors.o
Vector18C                                         build/obj/vectors.o
Vector190                                         build/obj/vectors.o
Vector194                                         build/obj/vectors.o
Vector198                                         build/obj/vectors.o
Vector19C                                         build/obj/vectors.o
Vector1A0                                         build/obj/vectors.o
Vector1A4                                         build/obj/vectors.o
Vector1A8                                         build/obj/vectors.o
Vector1AC                                         build/obj/vectors.o
Vector1B0                                         build/obj/vectors.o
Vector1B4                                         build/obj/vectors.o
Vector1B8                                         build/obj/vectors.o
Vector1BC                                         build/obj/vectors.o
Vector1C                                          build/obj/vectors.o
Vector20                                          build/obj/vectors.o
Vector24                                          build/obj/vectors.o
Vector28                                          build/obj/vectors.o
Vector34                                          build/obj/vectors.o
Vector40                                          build/obj/vectors.o
Vector44                                          build/obj/ext_lld_isr.o
                                                  build/obj/vectors.o
Vector48                                          build/obj/ext_lld_isr.o
                                                  build/obj/vectors.o
Vector4C                                          build/obj/ext_lld_isr.o
                                                  build/obj/vectors.o
Vector50                                          build/obj/vectors.o
Vector54                                          build/obj/vectors.o
Vector58                                          build/obj/ext_lld_isr.o
                                                  build/obj/vectors.o
Vector5C                                          build/obj/ext_lld_isr.o
                                                  build/obj/vectors.o
Vector60                                          build/obj/ext_lld_isr.o
                                                  build/obj/vectors.o
Vector64                                          build/obj/ext_lld_isr.o
                                                  build/obj/vectors.o
Vector68                                          build/obj/ext_lld_isr.o
                                                  build/obj/vectors.o
Vector6C                                          build/obj/stm32_dma.o
                                                  build/obj/vectors.o
Vector70                                          build/obj/stm32_dma.o
                                                  build/obj/vectors.o
Vector74                                          build/obj/stm32_dma.o
                                                  build/obj/vectors.o
Vector78                                          build/obj/stm32_dma.o
                                                  build/obj/vectors.o
Vector7C                                          build/obj/stm32_dma.o
                                                  build/obj/vectors.o
Vector80                                          build/obj/stm32_dma.o
                                                  build/obj/vectors.o
Vector84                                          build/obj/stm32_dma.o
                                                  build/obj/vectors.o
Vector88                                          build/obj/controller.o
                                                  build/obj/vectors.o
Vector8C                                          build/obj/vectors.o
Vector90                                          build/obj/vectors.o
Vector94                                          build/obj/vectors.o
Vector98                                          build/obj/vectors.o
Vector9C                                          build/obj/ext_lld_isr.o
                                                  build/obj/vectors.o
VectorA0                                          build/obj/vectors.o
VectorA4                                          build/obj/vectors.o
VectorA8                                          build/obj/vectors.o
VectorAC                                          build/obj/vectors.o
VectorB0                                          build/obj/vectors.o
VectorB4                                          build/obj/vectors.o
VectorB8                                          build/obj/vectors.o
VectorBC                                          build/obj/i2c_lld.o
                                                  build/obj/vectors.o
VectorC0                                          build/obj/i2c_lld.o
                                                  build/obj/vectors.o
VectorC4                                          build/obj/vectors.o
VectorC8                                          build/obj/vectors.o
VectorCC                                          build/obj/vectors.o
VectorD0                                          build/obj/vectors.o
VectorD4                                          build/obj/vectors.o
VectorD8                                          build/obj/vectors.o
VectorDC                                          build/obj/vectors.o
VectorE0                                          build/obj/ext_lld_isr.o
                                                  build/obj/vectors.o
VectorE4                                          build/obj/ext_lld_isr.o
                                                  build/obj/vectors.o
VectorE8                                          build/obj/ext_lld_isr.o
                                                  build/obj/vectors.o
VectorEC                                          build/obj/vectors.o
VectorF0                                          build/obj/vectors.o
VectorF4                                          build/obj/vectors.o
VectorF8                                          build/obj/vectors.o
VectorFC                                          build/obj/stm32_dma.o
                                                  build/obj/vectors.o
WWDG_ClearFlag                                    build/obj/stm32f4xx_wwdg.o
WWDG_DeInit                                       build/obj/stm32f4xx_wwdg.o
WWDG_Enable                                       build/obj/stm32f4xx_wwdg.o
WWDG_EnableIT                                     build/obj/stm32f4xx_wwdg.o
WWDG_GetFlagStatus                                build/obj/stm32f4xx_wwdg.o
WWDG_SetCounter                                   build/obj/stm32f4xx_wwdg.o
WWDG_SetPrescaler                                 build/obj/stm32f4xx_wwdg.o
WWDG_SetWindowValue                               build/obj/stm32f4xx_wwdg.o
__adddf3                                          /opt/homebrew-cask/Caskroom/gcc-arm-embedded/5_2-2015q4,20151219/gcc-arm-none-eabi-5_2-2015q4/bin/../lib/gcc/arm-none-eabi/5.2.1/armv7e-m/fpu/libgcc.a(_arm_addsubdf3.o)
__aeabi_cdcmpeq                                   /opt/homebrew-cask/Caskroom/gcc-arm-embedded/5_2-2015q4,20151219/gcc-arm-none-eabi-5_2-2015q4/bin/../lib/gcc/arm-none-eabi/5.2.1/armv7e-m/fpu/libgcc.a(_arm_cmpdf2.o)
__aeabi_cdcmple                                   /opt/homebrew-cask/Caskroom/gcc-arm-embedded/5_2-2015q4,20151219/gcc-arm-none-eabi-5_2-2015q4/bin/../lib/gcc/arm-none-eabi/5.2.1/armv7e-m/fpu/libgcc.a(_arm_cmpdf2.o)
__aeabi_cdrcmple                                  /opt/homebrew-cask/Caskroom/gcc-arm-embedded/5_2-2015q4,20151219/gcc-arm-none-eabi-5_2-2015q4/bin/../lib/gcc/arm-none-eabi/5.2.1/armv7e-m/fpu/libgcc.a(_arm_cmpdf2.o)
__aeabi_d2f                                       /opt/homebrew-cask/Caskroom/gcc-arm-embedded/5_2-2015q4,20151219/gcc-arm-none-eabi-5_2-2015q4/bin/../lib/gcc/arm-none-eabi/5.2.1/armv7e-m/fpu/libgcc.a(_arm_truncdfsf2.o)
                                                  /opt/homebrew-cask/Caskroom/gcc-arm-embedded/5_2-2015q4,20151219/gcc-arm-none-eabi-5_2-2015q4/bin/../lib/gcc/arm-none-eabi/5.2.1/../../../../arm-none-eabi/lib/armv7e-m/fpu/libm.a(lib_a-wf_pow.o)
                                                  build/obj/transforms.o
                                                  build/obj/encoder.o
                                                  build/obj/chprintf.o
__aeabi_d2iz                                      /opt/homebrew-cask/Caskroom/gcc-arm-embedded/5_2-2015q4,20151219/gcc-arm-none-eabi-5_2-2015q4/bin/../lib/gcc/arm-none-eabi/5.2.1/armv7e-m/fpu/libgcc.a(_arm_fixdfsi.o)
                                                  /opt/homebrew-cask/Caskroom/gcc-arm-embedded/5_2-2015q4,20151219/gcc-arm-none-eabi-5_2-2015q4/bin/../lib/gcc/arm-none-eabi/5.2.1/../../../../arm-none-eabi/lib/armv7e-m/fpu/libm.a(lib_a-k_sin.o)
                                                  /opt/homebrew-cask/Caskroom/gcc-arm-embedded/5_2-2015q4,20151219/gcc-arm-none-eabi-5_2-2015q4/bin/../lib/gcc/arm-none-eabi/5.2.1/../../../../arm-none-eabi/lib/armv7e-m/fpu/libm.a(lib_a-k_rem_pio2.o)
                                                  /opt/homebrew-cask/Caskroom/gcc-arm-embedded/5_2-2015q4,20151219/gcc-arm-none-eabi-5_2-2015q4/bin/../lib/gcc/arm-none-eabi/5.2.1/../../../../arm-none-eabi/lib/armv7e-m/fpu/libm.a(lib_a-k_cos.o)
                                                  /opt/homebrew-cask/Caskroom/gcc-arm-embedded/5_2-2015q4,20151219/gcc-arm-none-eabi-5_2-2015q4/bin/../lib/gcc/arm-none-eabi/5.2.1/../../../../arm-none-eabi/lib/armv7e-m/fpu/libm.a(lib_a-e_rem_pio2.o)
                                                  build/obj/chprintf.o
__aeabi_dadd                                      /opt/homebrew-cask/Caskroom/gcc-arm-embedded/5_2-2015q4,20151219/gcc-arm-none-eabi-5_2-2015q4/bin/../lib/gcc/arm-none-eabi/5.2.1/armv7e-m/fpu/libgcc.a(_arm_addsubdf3.o)
                                                  /opt/homebrew-cask/Caskroom/gcc-arm-embedded/5_2-2015q4,20151219/gcc-arm-none-eabi-5_2-2015q4/bin/../lib/gcc/arm-none-eabi/5.2.1/../../../../arm-none-eabi/lib/armv7e-m/fpu/libm.a(lib_a-s_scalbn.o)
                                                  /opt/homebrew-cask/Caskroom/gcc-arm-embedded/5_2-2015q4,20151219/gcc-arm-none-eabi-5_2-2015q4/bin/../lib/gcc/arm-none-eabi/5.2.1/../../../../arm-none-eabi/lib/armv7e-m/fpu/libm.a(lib_a-s_rint.o)
                                                  /opt/homebrew-cask/Caskroom/gcc-arm-embedded/5_2-2015q4,20151219/gcc-arm-none-eabi-5_2-2015q4/bin/../lib/gcc/arm-none-eabi/5.2.1/../../../../arm-none-eabi/lib/armv7e-m/fpu/libm.a(lib_a-s_floor.o)
                                                  /opt/homebrew-cask/Caskroom/gcc-arm-embedded/5_2-2015q4,20151219/gcc-arm-none-eabi-5_2-2015q4/bin/../lib/gcc/arm-none-eabi/5.2.1/../../../../arm-none-eabi/lib/armv7e-m/fpu/libm.a(lib_a-k_sin.o)
                                                  /opt/homebrew-cask/Caskroom/gcc-arm-embedded/5_2-2015q4,20151219/gcc-arm-none-eabi-5_2-2015q4/bin/../lib/gcc/arm-none-eabi/5.2.1/../../../../arm-none-eabi/lib/armv7e-m/fpu/libm.a(lib_a-k_rem_pio2.o)
                                                  /opt/homebrew-cask/Caskroom/gcc-arm-embedded/5_2-2015q4,20151219/gcc-arm-none-eabi-5_2-2015q4/bin/../lib/gcc/arm-none-eabi/5.2.1/../../../../arm-none-eabi/lib/armv7e-m/fpu/libm.a(lib_a-k_cos.o)
                                                  /opt/homebrew-cask/Caskroom/gcc-arm-embedded/5_2-2015q4,20151219/gcc-arm-none-eabi-5_2-2015q4/bin/../lib/gcc/arm-none-eabi/5.2.1/../../../../arm-none-eabi/lib/armv7e-m/fpu/libm.a(lib_a-e_rem_pio2.o)
__aeabi_dcmpeq                                    /opt/homebrew-cask/Caskroom/gcc-arm-embedded/5_2-2015q4,20151219/gcc-arm-none-eabi-5_2-2015q4/bin/../lib/gcc/arm-none-eabi/5.2.1/armv7e-m/fpu/libgcc.a(_arm_cmpdf2.o)
                                                  /opt/homebrew-cask/Caskroom/gcc-arm-embedded/5_2-2015q4,20151219/gcc-arm-none-eabi-5_2-2015q4/bin/../lib/gcc/arm-none-eabi/5.2.1/../../../../arm-none-eabi/lib/armv7e-m/fpu/libm.a(lib_a-k_rem_pio2.o)
                                                  /opt/homebrew-cask/Caskroom/gcc-arm-embedded/5_2-2015q4,20151219/gcc-arm-none-eabi-5_2-2015q4/bin/../lib/gcc/arm-none-eabi/5.2.1/../../../../arm-none-eabi/lib/armv7e-m/fpu/libm.a(lib_a-e_rem_pio2.o)
                                                  /opt/homebrew-cask/Caskroom/gcc-arm-embedded/5_2-2015q4,20151219/gcc-arm-none-eabi-5_2-2015q4/bin/../lib/gcc/arm-none-eabi/5.2.1/../../../../arm-none-eabi/lib/armv7e-m/fpu/libm.a(lib_a-wf_pow.o)
                                                  /opt/homebrew-cask/Caskroom/gcc-arm-embedded/5_2-2015q4,20151219/gcc-arm-none-eabi-5_2-2015q4/bin/../lib/gcc/arm-none-eabi/5.2.1/../../../../arm-none-eabi/lib/armv7e-m/fpu/libm.a(lib_a-w_fmod.o)
__aeabi_dcmpge                                    /opt/homebrew-cask/Caskroom/gcc-arm-embedded/5_2-2015q4,20151219/gcc-arm-none-eabi-5_2-2015q4/bin/../lib/gcc/arm-none-eabi/5.2.1/armv7e-m/fpu/libgcc.a(_arm_cmpdf2.o)
                                                  /opt/homebrew-cask/Caskroom/gcc-arm-embedded/5_2-2015q4,20151219/gcc-arm-none-eabi-5_2-2015q4/bin/../lib/gcc/arm-none-eabi/5.2.1/../../../../arm-none-eabi/lib/armv7e-m/fpu/libm.a(lib_a-k_rem_pio2.o)
__aeabi_dcmpgt                                    /opt/homebrew-cask/Caskroom/gcc-arm-embedded/5_2-2015q4,20151219/gcc-arm-none-eabi-5_2-2015q4/bin/../lib/gcc/arm-none-eabi/5.2.1/armv7e-m/fpu/libgcc.a(_arm_cmpdf2.o)
                                                  /opt/homebrew-cask/Caskroom/gcc-arm-embedded/5_2-2015q4,20151219/gcc-arm-none-eabi-5_2-2015q4/bin/../lib/gcc/arm-none-eabi/5.2.1/../../../../arm-none-eabi/lib/armv7e-m/fpu/libm.a(lib_a-s_floor.o)
__aeabi_dcmple                                    /opt/homebrew-cask/Caskroom/gcc-arm-embedded/5_2-2015q4,20151219/gcc-arm-none-eabi-5_2-2015q4/bin/../lib/gcc/arm-none-eabi/5.2.1/armv7e-m/fpu/libgcc.a(_arm_cmpdf2.o)
__aeabi_dcmplt                                    /opt/homebrew-cask/Caskroom/gcc-arm-embedded/5_2-2015q4,20151219/gcc-arm-none-eabi-5_2-2015q4/bin/../lib/gcc/arm-none-eabi/5.2.1/armv7e-m/fpu/libgcc.a(_arm_cmpdf2.o)
__aeabi_ddiv                                      /opt/homebrew-cask/Caskroom/gcc-arm-embedded/5_2-2015q4,20151219/gcc-arm-none-eabi-5_2-2015q4/bin/../lib/gcc/arm-none-eabi/5.2.1/armv7e-m/fpu/libgcc.a(_arm_muldivdf3.o)
                                                  /opt/homebrew-cask/Caskroom/gcc-arm-embedded/5_2-2015q4,20151219/gcc-arm-none-eabi-5_2-2015q4/bin/../lib/gcc/arm-none-eabi/5.2.1/../../../../arm-none-eabi/lib/armv7e-m/fpu/libm.a(lib_a-e_fmod.o)
                                                  /opt/homebrew-cask/Caskroom/gcc-arm-embedded/5_2-2015q4,20151219/gcc-arm-none-eabi-5_2-2015q4/bin/../lib/gcc/arm-none-eabi/5.2.1/../../../../arm-none-eabi/lib/armv7e-m/fpu/libm.a(lib_a-wf_pow.o)
                                                  /opt/homebrew-cask/Caskroom/gcc-arm-embedded/5_2-2015q4,20151219/gcc-arm-none-eabi-5_2-2015q4/bin/../lib/gcc/arm-none-eabi/5.2.1/../../../../arm-none-eabi/lib/armv7e-m/fpu/libm.a(lib_a-w_fmod.o)
__aeabi_dmul                                      /opt/homebrew-cask/Caskroom/gcc-arm-embedded/5_2-2015q4,20151219/gcc-arm-none-eabi-5_2-2015q4/bin/../lib/gcc/arm-none-eabi/5.2.1/armv7e-m/fpu/libgcc.a(_arm_muldivdf3.o)
                                                  /opt/homebrew-cask/Caskroom/gcc-arm-embedded/5_2-2015q4,20151219/gcc-arm-none-eabi-5_2-2015q4/bin/../lib/gcc/arm-none-eabi/5.2.1/../../../../arm-none-eabi/lib/armv7e-m/fpu/libm.a(lib_a-s_scalbn.o)
                                                  /opt/homebrew-cask/Caskroom/gcc-arm-embedded/5_2-2015q4,20151219/gcc-arm-none-eabi-5_2-2015q4/bin/../lib/gcc/arm-none-eabi/5.2.1/../../../../arm-none-eabi/lib/armv7e-m/fpu/libm.a(lib_a-k_sin.o)
                                                  /opt/homebrew-cask/Caskroom/gcc-arm-embedded/5_2-2015q4,20151219/gcc-arm-none-eabi-5_2-2015q4/bin/../lib/gcc/arm-none-eabi/5.2.1/../../../../arm-none-eabi/lib/armv7e-m/fpu/libm.a(lib_a-k_rem_pio2.o)
                                                  /opt/homebrew-cask/Caskroom/gcc-arm-embedded/5_2-2015q4,20151219/gcc-arm-none-eabi-5_2-2015q4/bin/../lib/gcc/arm-none-eabi/5.2.1/../../../../arm-none-eabi/lib/armv7e-m/fpu/libm.a(lib_a-k_cos.o)
                                                  /opt/homebrew-cask/Caskroom/gcc-arm-embedded/5_2-2015q4,20151219/gcc-arm-none-eabi-5_2-2015q4/bin/../lib/gcc/arm-none-eabi/5.2.1/../../../../arm-none-eabi/lib/armv7e-m/fpu/libm.a(lib_a-e_rem_pio2.o)
                                                  /opt/homebrew-cask/Caskroom/gcc-arm-embedded/5_2-2015q4,20151219/gcc-arm-none-eabi-5_2-2015q4/bin/../lib/gcc/arm-none-eabi/5.2.1/../../../../arm-none-eabi/lib/armv7e-m/fpu/libm.a(lib_a-e_fmod.o)
                                                  build/obj/encoder.o
                                                  build/obj/chprintf.o
__aeabi_drsub                                     /opt/homebrew-cask/Caskroom/gcc-arm-embedded/5_2-2015q4,20151219/gcc-arm-none-eabi-5_2-2015q4/bin/../lib/gcc/arm-none-eabi/5.2.1/armv7e-m/fpu/libgcc.a(_arm_addsubdf3.o)
__aeabi_dsub                                      /opt/homebrew-cask/Caskroom/gcc-arm-embedded/5_2-2015q4,20151219/gcc-arm-none-eabi-5_2-2015q4/bin/../lib/gcc/arm-none-eabi/5.2.1/armv7e-m/fpu/libgcc.a(_arm_addsubdf3.o)
                                                  /opt/homebrew-cask/Caskroom/gcc-arm-embedded/5_2-2015q4,20151219/gcc-arm-none-eabi-5_2-2015q4/bin/../lib/gcc/arm-none-eabi/5.2.1/../../../../arm-none-eabi/lib/armv7e-m/fpu/libm.a(lib_a-s_rint.o)
                                                  /opt/homebrew-cask/Caskroom/gcc-arm-embedded/5_2-2015q4,20151219/gcc-arm-none-eabi-5_2-2015q4/bin/../lib/gcc/arm-none-eabi/5.2.1/../../../../arm-none-eabi/lib/armv7e-m/fpu/libm.a(lib_a-k_sin.o)
                                                  /opt/homebrew-cask/Caskroom/gcc-arm-embedded/5_2-2015q4,20151219/gcc-arm-none-eabi-5_2-2015q4/bin/../lib/gcc/arm-none-eabi/5.2.1/../../../../arm-none-eabi/lib/armv7e-m/fpu/libm.a(lib_a-k_rem_pio2.o)
                                                  /opt/homebrew-cask/Caskroom/gcc-arm-embedded/5_2-2015q4,20151219/gcc-arm-none-eabi-5_2-2015q4/bin/../lib/gcc/arm-none-eabi/5.2.1/../../../../arm-none-eabi/lib/armv7e-m/fpu/libm.a(lib_a-k_cos.o)
                                                  /opt/homebrew-cask/Caskroom/gcc-arm-embedded/5_2-2015q4,20151219/gcc-arm-none-eabi-5_2-2015q4/bin/../lib/gcc/arm-none-eabi/5.2.1/../../../../arm-none-eabi/lib/armv7e-m/fpu/libm.a(lib_a-e_rem_pio2.o)
                                                  /opt/homebrew-cask/Caskroom/gcc-arm-embedded/5_2-2015q4,20151219/gcc-arm-none-eabi-5_2-2015q4/bin/../lib/gcc/arm-none-eabi/5.2.1/../../../../arm-none-eabi/lib/armv7e-m/fpu/libm.a(lib_a-s_sin.o)
                                                  /opt/homebrew-cask/Caskroom/gcc-arm-embedded/5_2-2015q4,20151219/gcc-arm-none-eabi-5_2-2015q4/bin/../lib/gcc/arm-none-eabi/5.2.1/../../../../arm-none-eabi/lib/armv7e-m/fpu/libm.a(lib_a-s_cos.o)
                                                  build/obj/chprintf.o
__aeabi_f2d                                       /opt/homebrew-cask/Caskroom/gcc-arm-embedded/5_2-2015q4,20151219/gcc-arm-none-eabi-5_2-2015q4/bin/../lib/gcc/arm-none-eabi/5.2.1/armv7e-m/fpu/libgcc.a(_arm_addsubdf3.o)
                                                  /opt/homebrew-cask/Caskroom/gcc-arm-embedded/5_2-2015q4,20151219/gcc-arm-none-eabi-5_2-2015q4/bin/../lib/gcc/arm-none-eabi/5.2.1/../../../../arm-none-eabi/lib/armv7e-m/fpu/libm.a(lib_a-wf_pow.o)
                                                  build/obj/transforms.o
                                                  build/obj/encoder.o
                                                  build/obj/controller.o
                                                  build/obj/chprintf.o
__aeabi_i2d                                       /opt/homebrew-cask/Caskroom/gcc-arm-embedded/5_2-2015q4,20151219/gcc-arm-none-eabi-5_2-2015q4/bin/../lib/gcc/arm-none-eabi/5.2.1/armv7e-m/fpu/libgcc.a(_arm_addsubdf3.o)
                                                  /opt/homebrew-cask/Caskroom/gcc-arm-embedded/5_2-2015q4,20151219/gcc-arm-none-eabi-5_2-2015q4/bin/../lib/gcc/arm-none-eabi/5.2.1/../../../../arm-none-eabi/lib/armv7e-m/fpu/libm.a(lib_a-k_rem_pio2.o)
                                                  /opt/homebrew-cask/Caskroom/gcc-arm-embedded/5_2-2015q4,20151219/gcc-arm-none-eabi-5_2-2015q4/bin/../lib/gcc/arm-none-eabi/5.2.1/../../../../arm-none-eabi/lib/armv7e-m/fpu/libm.a(lib_a-e_rem_pio2.o)
                                                  build/obj/chprintf.o
__aeabi_l2d                                       /opt/homebrew-cask/Caskroom/gcc-arm-embedded/5_2-2015q4,20151219/gcc-arm-none-eabi-5_2-2015q4/bin/../lib/gcc/arm-none-eabi/5.2.1/armv7e-m/fpu/libgcc.a(_arm_addsubdf3.o)
__aeabi_ui2d                                      /opt/homebrew-cask/Caskroom/gcc-arm-embedded/5_2-2015q4,20151219/gcc-arm-none-eabi-5_2-2015q4/bin/../lib/gcc/arm-none-eabi/5.2.1/armv7e-m/fpu/libgcc.a(_arm_addsubdf3.o)
                                                  build/obj/chprintf.o
__aeabi_ul2d                                      /opt/homebrew-cask/Caskroom/gcc-arm-embedded/5_2-2015q4,20151219/gcc-arm-none-eabi-5_2-2015q4/bin/../lib/gcc/arm-none-eabi/5.2.1/armv7e-m/fpu/libgcc.a(_arm_addsubdf3.o)
__cmpdf2                                          /opt/homebrew-cask/Caskroom/gcc-arm-embedded/5_2-2015q4,20151219/gcc-arm-none-eabi-5_2-2015q4/bin/../lib/gcc/arm-none-eabi/5.2.1/armv7e-m/fpu/libgcc.a(_arm_cmpdf2.o)
__core_init                                       build/obj/crt1.o
                                                  build/obj/crt0_v7m.o
__default_exit                                    build/obj/crt1.o
                                                  build/obj/crt0_v7m.o
__divdf3                                          /opt/homebrew-cask/Caskroom/gcc-arm-embedded/5_2-2015q4,20151219/gcc-arm-none-eabi-5_2-2015q4/bin/../lib/gcc/arm-none-eabi/5.2.1/armv7e-m/fpu/libgcc.a(_arm_muldivdf3.o)
__early_init                                      build/obj/board.o
                                                  build/obj/crt1.o
                                                  build/obj/crt0_v7m.o
__eqdf2                                           /opt/homebrew-cask/Caskroom/gcc-arm-embedded/5_2-2015q4,20151219/gcc-arm-none-eabi-5_2-2015q4/bin/../lib/gcc/arm-none-eabi/5.2.1/armv7e-m/fpu/libgcc.a(_arm_cmpdf2.o)
__errno                                           /opt/homebrew-cask/Caskroom/gcc-arm-embedded/5_2-2015q4,20151219/gcc-arm-none-eabi-5_2-2015q4/bin/../lib/gcc/arm-none-eabi/5.2.1/../../../../arm-none-eabi/lib/armv7e-m/fpu/libg.a(lib_a-errno.o)
                                                  /opt/homebrew-cask/Caskroom/gcc-arm-embedded/5_2-2015q4,20151219/gcc-arm-none-eabi-5_2-2015q4/bin/../lib/gcc/arm-none-eabi/5.2.1/../../../../arm-none-eabi/lib/armv7e-m/fpu/libm.a(lib_a-wf_pow.o)
                                                  /opt/homebrew-cask/Caskroom/gcc-arm-embedded/5_2-2015q4,20151219/gcc-arm-none-eabi-5_2-2015q4/bin/../lib/gcc/arm-none-eabi/5.2.1/../../../../arm-none-eabi/lib/armv7e-m/fpu/libm.a(lib_a-w_fmod.o)
__extendsfdf2                                     /opt/homebrew-cask/Caskroom/gcc-arm-embedded/5_2-2015q4,20151219/gcc-arm-none-eabi-5_2-2015q4/bin/../lib/gcc/arm-none-eabi/5.2.1/armv7e-m/fpu/libgcc.a(_arm_addsubdf3.o)
__fdlib_version                                   /opt/homebrew-cask/Caskroom/gcc-arm-embedded/5_2-2015q4,20151219/gcc-arm-none-eabi-5_2-2015q4/bin/../lib/gcc/arm-none-eabi/5.2.1/../../../../arm-none-eabi/lib/armv7e-m/fpu/libm.a(lib_a-s_lib_ver.o)
                                                  /opt/homebrew-cask/Caskroom/gcc-arm-embedded/5_2-2015q4,20151219/gcc-arm-none-eabi-5_2-2015q4/bin/../lib/gcc/arm-none-eabi/5.2.1/../../../../arm-none-eabi/lib/armv7e-m/fpu/libm.a(lib_a-wf_pow.o)
                                                  /opt/homebrew-cask/Caskroom/gcc-arm-embedded/5_2-2015q4,20151219/gcc-arm-none-eabi-5_2-2015q4/bin/../lib/gcc/arm-none-eabi/5.2.1/../../../../arm-none-eabi/lib/armv7e-m/fpu/libm.a(lib_a-w_fmod.o)
__fini_array_end                                  build/obj/crt0_v7m.o
__fini_array_start                                build/obj/crt0_v7m.o
__fixdfsi                                         /opt/homebrew-cask/Caskroom/gcc-arm-embedded/5_2-2015q4,20151219/gcc-arm-none-eabi-5_2-2015q4/bin/../lib/gcc/arm-none-eabi/5.2.1/armv7e-m/fpu/libgcc.a(_arm_fixdfsi.o)
__floatdidf                                       /opt/homebrew-cask/Caskroom/gcc-arm-embedded/5_2-2015q4,20151219/gcc-arm-none-eabi-5_2-2015q4/bin/../lib/gcc/arm-none-eabi/5.2.1/armv7e-m/fpu/libgcc.a(_arm_addsubdf3.o)
__floatsidf                                       /opt/homebrew-cask/Caskroom/gcc-arm-embedded/5_2-2015q4,20151219/gcc-arm-none-eabi-5_2-2015q4/bin/../lib/gcc/arm-none-eabi/5.2.1/armv7e-m/fpu/libgcc.a(_arm_addsubdf3.o)
__floatundidf                                     /opt/homebrew-cask/Caskroom/gcc-arm-embedded/5_2-2015q4,20151219/gcc-arm-none-eabi-5_2-2015q4/bin/../lib/gcc/arm-none-eabi/5.2.1/armv7e-m/fpu/libgcc.a(_arm_addsubdf3.o)
__floatunsidf                                     /opt/homebrew-cask/Caskroom/gcc-arm-embedded/5_2-2015q4,20151219/gcc-arm-none-eabi-5_2-2015q4/bin/../lib/gcc/arm-none-eabi/5.2.1/armv7e-m/fpu/libgcc.a(_arm_addsubdf3.o)
__fpclassifyd                                     /opt/homebrew-cask/Caskroom/gcc-arm-embedded/5_2-2015q4,20151219/gcc-arm-none-eabi-5_2-2015q4/bin/../lib/gcc/arm-none-eabi/5.2.1/../../../../arm-none-eabi/lib/armv7e-m/fpu/libm.a(lib_a-s_fpclassify.o)
                                                  /opt/homebrew-cask/Caskroom/gcc-arm-embedded/5_2-2015q4,20151219/gcc-arm-none-eabi-5_2-2015q4/bin/../lib/gcc/arm-none-eabi/5.2.1/../../../../arm-none-eabi/lib/armv7e-m/fpu/libm.a(lib_a-w_fmod.o)
__fpclassifyf                                     /opt/homebrew-cask/Caskroom/gcc-arm-embedded/5_2-2015q4,20151219/gcc-arm-none-eabi-5_2-2015q4/bin/../lib/gcc/arm-none-eabi/5.2.1/../../../../arm-none-eabi/lib/armv7e-m/fpu/libm.a(lib_a-sf_fpclassify.o)
                                                  /opt/homebrew-cask/Caskroom/gcc-arm-embedded/5_2-2015q4,20151219/gcc-arm-none-eabi-5_2-2015q4/bin/../lib/gcc/arm-none-eabi/5.2.1/../../../../arm-none-eabi/lib/armv7e-m/fpu/libm.a(lib_a-wf_pow.o)
__gedf2                                           /opt/homebrew-cask/Caskroom/gcc-arm-embedded/5_2-2015q4,20151219/gcc-arm-none-eabi-5_2-2015q4/bin/../lib/gcc/arm-none-eabi/5.2.1/armv7e-m/fpu/libgcc.a(_arm_cmpdf2.o)
__gtdf2                                           /opt/homebrew-cask/Caskroom/gcc-arm-embedded/5_2-2015q4,20151219/gcc-arm-none-eabi-5_2-2015q4/bin/../lib/gcc/arm-none-eabi/5.2.1/armv7e-m/fpu/libgcc.a(_arm_cmpdf2.o)
__heap_base__                                     build/obj/chmemcore.o
__heap_end__                                      build/obj/chmemcore.o
__ieee754_fmod                                    /opt/homebrew-cask/Caskroom/gcc-arm-embedded/5_2-2015q4,20151219/gcc-arm-none-eabi-5_2-2015q4/bin/../lib/gcc/arm-none-eabi/5.2.1/../../../../arm-none-eabi/lib/armv7e-m/fpu/libm.a(lib_a-e_fmod.o)
                                                  /opt/homebrew-cask/Caskroom/gcc-arm-embedded/5_2-2015q4,20151219/gcc-arm-none-eabi-5_2-2015q4/bin/../lib/gcc/arm-none-eabi/5.2.1/../../../../arm-none-eabi/lib/armv7e-m/fpu/libm.a(lib_a-w_fmod.o)
__ieee754_powf                                    /opt/homebrew-cask/Caskroom/gcc-arm-embedded/5_2-2015q4,20151219/gcc-arm-none-eabi-5_2-2015q4/bin/../lib/gcc/arm-none-eabi/5.2.1/../../../../arm-none-eabi/lib/armv7e-m/fpu/libm.a(lib_a-ef_pow.o)
                                                  /opt/homebrew-cask/Caskroom/gcc-arm-embedded/5_2-2015q4,20151219/gcc-arm-none-eabi-5_2-2015q4/bin/../lib/gcc/arm-none-eabi/5.2.1/../../../../arm-none-eabi/lib/armv7e-m/fpu/libm.a(lib_a-wf_pow.o)
__ieee754_rem_pio2                                /opt/homebrew-cask/Caskroom/gcc-arm-embedded/5_2-2015q4,20151219/gcc-arm-none-eabi-5_2-2015q4/bin/../lib/gcc/arm-none-eabi/5.2.1/../../../../arm-none-eabi/lib/armv7e-m/fpu/libm.a(lib_a-e_rem_pio2.o)
                                                  /opt/homebrew-cask/Caskroom/gcc-arm-embedded/5_2-2015q4,20151219/gcc-arm-none-eabi-5_2-2015q4/bin/../lib/gcc/arm-none-eabi/5.2.1/../../../../arm-none-eabi/lib/armv7e-m/fpu/libm.a(lib_a-s_sin.o)
                                                  /opt/homebrew-cask/Caskroom/gcc-arm-embedded/5_2-2015q4,20151219/gcc-arm-none-eabi-5_2-2015q4/bin/../lib/gcc/arm-none-eabi/5.2.1/../../../../arm-none-eabi/lib/armv7e-m/fpu/libm.a(lib_a-s_cos.o)
__ieee754_sqrtf                                   /opt/homebrew-cask/Caskroom/gcc-arm-embedded/5_2-2015q4,20151219/gcc-arm-none-eabi-5_2-2015q4/bin/../lib/gcc/arm-none-eabi/5.2.1/../../../../arm-none-eabi/lib/armv7e-m/fpu/libm.a(lib_a-ef_sqrt.o)
                                                  /opt/homebrew-cask/Caskroom/gcc-arm-embedded/5_2-2015q4,20151219/gcc-arm-none-eabi-5_2-2015q4/bin/../lib/gcc/arm-none-eabi/5.2.1/../../../../arm-none-eabi/lib/armv7e-m/fpu/libm.a(lib_a-ef_pow.o)
__init_array_end                                  build/obj/crt0_v7m.o
__init_array_start                                build/obj/crt0_v7m.o
__init_ram_areas                                  build/obj/crt1.o
                                                  build/obj/crt0_v7m.o
__kernel_cos                                      /opt/homebrew-cask/Caskroom/gcc-arm-embedded/5_2-2015q4,20151219/gcc-arm-none-eabi-5_2-2015q4/bin/../lib/gcc/arm-none-eabi/5.2.1/../../../../arm-none-eabi/lib/armv7e-m/fpu/libm.a(lib_a-k_cos.o)
                                                  /opt/homebrew-cask/Caskroom/gcc-arm-embedded/5_2-2015q4,20151219/gcc-arm-none-eabi-5_2-2015q4/bin/../lib/gcc/arm-none-eabi/5.2.1/../../../../arm-none-eabi/lib/armv7e-m/fpu/libm.a(lib_a-s_sin.o)
                                                  /opt/homebrew-cask/Caskroom/gcc-arm-embedded/5_2-2015q4,20151219/gcc-arm-none-eabi-5_2-2015q4/bin/../lib/gcc/arm-none-eabi/5.2.1/../../../../arm-none-eabi/lib/armv7e-m/fpu/libm.a(lib_a-s_cos.o)
__kernel_rem_pio2                                 /opt/homebrew-cask/Caskroom/gcc-arm-embedded/5_2-2015q4,20151219/gcc-arm-none-eabi-5_2-2015q4/bin/../lib/gcc/arm-none-eabi/5.2.1/../../../../arm-none-eabi/lib/armv7e-m/fpu/libm.a(lib_a-k_rem_pio2.o)
                                                  /opt/homebrew-cask/Caskroom/gcc-arm-embedded/5_2-2015q4,20151219/gcc-arm-none-eabi-5_2-2015q4/bin/../lib/gcc/arm-none-eabi/5.2.1/../../../../arm-none-eabi/lib/armv7e-m/fpu/libm.a(lib_a-e_rem_pio2.o)
__kernel_sin                                      /opt/homebrew-cask/Caskroom/gcc-arm-embedded/5_2-2015q4,20151219/gcc-arm-none-eabi-5_2-2015q4/bin/../lib/gcc/arm-none-eabi/5.2.1/../../../../arm-none-eabi/lib/armv7e-m/fpu/libm.a(lib_a-k_sin.o)
                                                  /opt/homebrew-cask/Caskroom/gcc-arm-embedded/5_2-2015q4,20151219/gcc-arm-none-eabi-5_2-2015q4/bin/../lib/gcc/arm-none-eabi/5.2.1/../../../../arm-none-eabi/lib/armv7e-m/fpu/libm.a(lib_a-s_sin.o)
                                                  /opt/homebrew-cask/Caskroom/gcc-arm-embedded/5_2-2015q4,20151219/gcc-arm-none-eabi-5_2-2015q4/bin/../lib/gcc/arm-none-eabi/5.2.1/../../../../arm-none-eabi/lib/armv7e-m/fpu/libm.a(lib_a-s_cos.o)
__late_init                                       build/obj/crt1.o
                                                  build/obj/crt0_v7m.o
__ledf2                                           /opt/homebrew-cask/Caskroom/gcc-arm-embedded/5_2-2015q4,20151219/gcc-arm-none-eabi-5_2-2015q4/bin/../lib/gcc/arm-none-eabi/5.2.1/armv7e-m/fpu/libgcc.a(_arm_cmpdf2.o)
__ltdf2                                           /opt/homebrew-cask/Caskroom/gcc-arm-embedded/5_2-2015q4,20151219/gcc-arm-none-eabi-5_2-2015q4/bin/../lib/gcc/arm-none-eabi/5.2.1/armv7e-m/fpu/libgcc.a(_arm_cmpdf2.o)
__main_stack_base__                               build/obj/crt0_v7m.o
__main_stack_end__                                build/obj/vectors.o
                                                  build/obj/crt0_v7m.o
__muldf3                                          /opt/homebrew-cask/Caskroom/gcc-arm-embedded/5_2-2015q4,20151219/gcc-arm-none-eabi-5_2-2015q4/bin/../lib/gcc/arm-none-eabi/5.2.1/armv7e-m/fpu/libgcc.a(_arm_muldivdf3.o)
__nedf2                                           /opt/homebrew-cask/Caskroom/gcc-arm-embedded/5_2-2015q4,20151219/gcc-arm-none-eabi-5_2-2015q4/bin/../lib/gcc/arm-none-eabi/5.2.1/armv7e-m/fpu/libgcc.a(_arm_cmpdf2.o)
__process_stack_base__                            build/obj/crt0_v7m.o
__process_stack_end__                             build/obj/crt0_v7m.o
__ram0_clear__                                    build/obj/crt1.o
__ram0_init__                                     build/obj/crt1.o
__ram0_init_text__                                build/obj/crt1.o
__ram0_noinit__                                   build/obj/crt1.o
__ram1_clear__                                    build/obj/crt1.o
__ram1_init__                                     build/obj/crt1.o
__ram1_init_text__                                build/obj/crt1.o
__ram1_noinit__                                   build/obj/crt1.o
__ram2_clear__                                    build/obj/crt1.o
__ram2_init__                                     build/obj/crt1.o
__ram2_init_text__                                build/obj/crt1.o
__ram2_noinit__                                   build/obj/crt1.o
__ram3_clear__                                    build/obj/crt1.o
__ram3_init__                                     build/obj/crt1.o
__ram3_init_text__                                build/obj/crt1.o
__ram3_noinit__                                   build/obj/crt1.o
__ram4_clear__                                    build/obj/crt1.o
__ram4_init__                                     build/obj/crt1.o
__ram4_init_text__                                build/obj/crt1.o
__ram4_noinit__                                   build/obj/crt1.o
__ram5_clear__                                    build/obj/crt1.o
__ram5_init__                                     build/obj/crt1.o
__ram5_init_text__                                build/obj/crt1.o
__ram5_noinit__                                   build/obj/crt1.o
__ram6_clear__                                    build/obj/crt1.o
__ram6_init__                                     build/obj/crt1.o
__ram6_init_text__                                build/obj/crt1.o
__ram6_noinit__                                   build/obj/crt1.o
__ram7_clear__                                    build/obj/crt1.o
__ram7_init__                                     build/obj/crt1.o
__ram7_init_text__                                build/obj/crt1.o
__ram7_noinit__                                   build/obj/crt1.o
__subdf3                                          /opt/homebrew-cask/Caskroom/gcc-arm-embedded/5_2-2015q4,20151219/gcc-arm-none-eabi-5_2-2015q4/bin/../lib/gcc/arm-none-eabi/5.2.1/armv7e-m/fpu/libgcc.a(_arm_addsubdf3.o)
__truncdfsf2                                      /opt/homebrew-cask/Caskroom/gcc-arm-embedded/5_2-2015q4,20151219/gcc-arm-none-eabi-5_2-2015q4/bin/../lib/gcc/arm-none-eabi/5.2.1/armv7e-m/fpu/libgcc.a(_arm_truncdfsf2.o)
_bss_end                                          build/obj/crt0_v7m.o
_bss_start                                        build/obj/crt0_v7m.o
_close_r                                          build/obj/syscalls.o
_core_init                                        build/obj/chmemcore.o
                                                  build/obj/chsys.o
_data_end                                         build/obj/crt0_v7m.o
_data_start                                       build/obj/crt0_v7m.o
_fstat_r                                          build/obj/syscalls.o
_global_impure_ptr                                /opt/homebrew-cask/Caskroom/gcc-arm-embedded/5_2-2015q4,20151219/gcc-arm-none-eabi-5_2-2015q4/bin/../lib/gcc/arm-none-eabi/5.2.1/../../../../arm-none-eabi/lib/armv7e-m/fpu/libg.a(lib_a-impure.o)
_heap_init                                        build/obj/chheap.o
                                                  build/obj/chsys.o
_impure_ptr                                       /opt/homebrew-cask/Caskroom/gcc-arm-embedded/5_2-2015q4,20151219/gcc-arm-none-eabi-5_2-2015q4/bin/../lib/gcc/arm-none-eabi/5.2.1/../../../../arm-none-eabi/lib/armv7e-m/fpu/libg.a(lib_a-impure.o)
                                                  /opt/homebrew-cask/Caskroom/gcc-arm-embedded/5_2-2015q4,20151219/gcc-arm-none-eabi-5_2-2015q4/bin/../lib/gcc/arm-none-eabi/5.2.1/../../../../arm-none-eabi/lib/armv7e-m/fpu/libg.a(lib_a-errno.o)
_isatty_r                                         build/obj/syscalls.o
_lseek_r                                          build/obj/syscalls.o
_pal_lld_init                                     build/obj/pal_lld.o
                                                  build/obj/hal.o
_pal_lld_setgroupmode                             build/obj/pal_lld.o
                                                  build/obj/ws2812b.o
                                                  build/obj/controller.o
                                                  build/obj/comm_usb.o
                                                  build/obj/as5x47.o
                                                  build/obj/pal.o
_port_exit_from_isr                               build/obj/chcoreasm_v7m.o
                                                  build/obj/chcore_v7m.o
_port_irq_epilogue                                build/obj/chcore_v7m.o
                                                  build/obj/controller.o
                                                  build/obj/usb_lld.o
                                                  build/obj/i2c_lld.o
                                                  build/obj/ext_lld_isr.o
                                                  build/obj/st_lld.o
                                                  build/obj/stm32_dma.o
_port_switch                                      build/obj/chcoreasm_v7m.o
                                                  build/obj/chschd.o
_port_switch_from_isr                             build/obj/chcoreasm_v7m.o
                                                  build/obj/chcore_v7m.o
_port_thread_start                                build/obj/chcoreasm_v7m.o
                                                  build/obj/chthreads.o
_read_r                                           build/obj/syscalls.o
_sbrk_r                                           build/obj/syscalls.o
_scheduler_init                                   build/obj/chschd.o
                                                  build/obj/chsys.o
_stm32_dma_streams                                build/obj/stm32_dma.o
                                                  build/obj/spi_lld.o
                                                  build/obj/i2c_lld.o
_textdata_start                                   build/obj/crt0_v7m.o
_thread_init                                      build/obj/chthreads.o
                                                  build/obj/chsys.o
_tm_init                                          build/obj/chtm.o
                                                  build/obj/chsys.o
_unhandled_exception                              build/obj/vectors.o
_usb_ep0in                                        build/obj/usb.o
                                                  build/obj/usb_lld.o
_usb_ep0out                                       build/obj/usb.o
                                                  build/obj/usb_lld.o
_usb_ep0setup                                     build/obj/usb.o
                                                  build/obj/usb_lld.o
_usb_reset                                        build/obj/usb.o
                                                  build/obj/usb_lld.o
_usb_suspend                                      build/obj/usb.o
                                                  build/obj/usb_lld.o
_usb_wakeup                                       build/obj/usb.o
                                                  build/obj/usb_lld.o
_vectors                                          build/obj/vectors.o
_vt_init                                          build/obj/chvt.o
                                                  build/obj/chsys.o
_write_r                                          build/obj/syscalls.o
as5x45_get_angle                                  build/obj/as5x45.o
as5x45_get_raw_position                           build/obj/as5x45.o
as5x45_init                                       build/obj/as5x45.o
as5x47_get_angle                                  build/obj/as5x47.o
                                                  build/obj/encoder.o
as5x47_get_raw_position                           build/obj/as5x47.o
as5x47_init                                       build/obj/as5x47.o
                                                  build/obj/encoder.o
as5x47_update_raw_position                        build/obj/as5x47.o
assert_param                                      build/obj/stm32f4xx_wwdg.o
                                                  build/obj/stm32f4xx_syscfg.o
                                                  build/obj/stm32f4xx_exti.o
boardInit                                         build/obj/board.o
                                                  build/obj/hal.o
ch                                                build/obj/chschd.o
                                                  build/obj/comm.o
                                                  build/obj/main.o
                                                  build/obj/shell.o
                                                  build/obj/usb_lld.o
                                                  build/obj/i2c_lld.o
                                                  build/obj/hal_buffers.o
                                                  build/obj/chmsg.o
                                                  build/obj/chevents.o
                                                  build/obj/chcond.o
                                                  build/obj/chmtx.o
                                                  build/obj/chsem.o
                                                  build/obj/chregistry.o
                                                  build/obj/chtm.o
                                                  build/obj/chthreads.o
                                                  build/obj/chvt.o
                                                  build/obj/chsys.o
chCondBroadcast                                   build/obj/chcond.o
chCondBroadcastI                                  build/obj/chcond.o
chCondObjectInit                                  build/obj/chcond.o
chCondSignal                                      build/obj/chcond.o
chCondSignalI                                     build/obj/chcond.o
chCondWait                                        build/obj/chcond.o
chCondWaitS                                       build/obj/chcond.o
chCondWaitTimeout                                 build/obj/chcond.o
chCondWaitTimeoutS                                build/obj/chcond.o
chCoreAlloc                                       build/obj/chmemcore.o
                                                  build/obj/syscalls.o
                                                  build/obj/chheap.o
chCoreAllocI                                      build/obj/chmemcore.o
chCoreGetStatusX                                  build/obj/chmemcore.o
chEvtAddEvents                                    build/obj/chevents.o
chEvtBroadcastFlags                               build/obj/chevents.o
chEvtBroadcastFlagsI                              build/obj/chevents.o
                                                  build/obj/shell.o
                                                  build/obj/serial_usb.o
chEvtDispatch                                     build/obj/chevents.o
chEvtGetAndClearEvents                            build/obj/chevents.o
chEvtGetAndClearFlags                             build/obj/chevents.o
chEvtGetAndClearFlagsI                            build/obj/chevents.o
chEvtRegisterMaskWithFlags                        build/obj/chevents.o
chEvtSignal                                       build/obj/chevents.o
chEvtSignalI                                      build/obj/chevents.o
chEvtUnregister                                   build/obj/chevents.o
chEvtWaitAll                                      build/obj/chevents.o
chEvtWaitAllTimeout                               build/obj/chevents.o
chEvtWaitAny                                      build/obj/chevents.o
chEvtWaitAnyTimeout                               build/obj/chevents.o
chEvtWaitOne                                      build/obj/chevents.o
chEvtWaitOneTimeout                               build/obj/chevents.o
chHeapAlloc                                       build/obj/chheap.o
                                                  build/obj/chdynamic.o
chHeapFree                                        build/obj/chheap.o
                                                  build/obj/chdynamic.o
chHeapObjectInit                                  build/obj/chheap.o
chHeapStatus                                      build/obj/chheap.o
chIQGetTimeout                                    build/obj/chqueues.o
chIQObjectInit                                    build/obj/chqueues.o
chIQPutI                                          build/obj/chqueues.o
chIQReadTimeout                                   build/obj/chqueues.o
chIQResetI                                        build/obj/chqueues.o
chMBFetch                                         build/obj/chmboxes.o
chMBFetchI                                        build/obj/chmboxes.o
chMBFetchS                                        build/obj/chmboxes.o
chMBObjectInit                                    build/obj/chmboxes.o
chMBPost                                          build/obj/chmboxes.o
chMBPostAhead                                     build/obj/chmboxes.o
chMBPostAheadI                                    build/obj/chmboxes.o
chMBPostAheadS                                    build/obj/chmboxes.o
chMBPostI                                         build/obj/chmboxes.o
chMBPostS                                         build/obj/chmboxes.o
chMBReset                                         build/obj/chmboxes.o
chMBResetI                                        build/obj/chmboxes.o
chMsgRelease                                      build/obj/chmsg.o
chMsgSend                                         build/obj/chmsg.o
chMsgWait                                         build/obj/chmsg.o
chMtxLock                                         build/obj/chmtx.o
                                                  build/obj/spi.o
                                                  build/obj/i2c.o
                                                  build/obj/chheap.o
chMtxLockS                                        build/obj/chmtx.o
                                                  build/obj/chcond.o
chMtxObjectInit                                   build/obj/chmtx.o
                                                  build/obj/spi.o
                                                  build/obj/i2c.o
                                                  build/obj/chheap.o
chMtxTryLock                                      build/obj/chmtx.o
chMtxTryLockS                                     build/obj/chmtx.o
chMtxUnlock                                       build/obj/chmtx.o
                                                  build/obj/spi.o
                                                  build/obj/i2c.o
                                                  build/obj/chheap.o
chMtxUnlockAll                                    build/obj/chmtx.o
chMtxUnlockS                                      build/obj/chmtx.o
                                                  build/obj/chcond.o
chOQGetI                                          build/obj/chqueues.o
chOQObjectInit                                    build/obj/chqueues.o
chOQPutTimeout                                    build/obj/chqueues.o
chOQResetI                                        build/obj/chqueues.o
chOQWriteTimeout                                  build/obj/chqueues.o
chPoolAlloc                                       build/obj/chmempools.o
                                                  build/obj/chdynamic.o
chPoolAllocI                                      build/obj/chmempools.o
chPoolFree                                        build/obj/chmempools.o
                                                  build/obj/chdynamic.o
chPoolFreeI                                       build/obj/chmempools.o
chPoolLoadArray                                   build/obj/chmempools.o
chPoolObjectInit                                  build/obj/chmempools.o
chRegFirstThread                                  build/obj/chregistry.o
chRegNextThread                                   build/obj/chregistry.o
chSchDoReschedule                                 build/obj/chschd.o
                                                  build/obj/chcoreasm_v7m.o
chSchDoRescheduleAhead                            build/obj/chschd.o
chSchDoRescheduleBehind                           build/obj/chschd.o
                                                  build/obj/chthreads.o
chSchGoSleepS                                     build/obj/chschd.o
                                                  build/obj/chmsg.o
                                                  build/obj/chevents.o
                                                  build/obj/chcond.o
                                                  build/obj/chmtx.o
                                                  build/obj/chsem.o
                                                  build/obj/chthreads.o
chSchGoSleepTimeoutS                              build/obj/chschd.o
                                                  build/obj/chevents.o
                                                  build/obj/chcond.o
                                                  build/obj/chsem.o
                                                  build/obj/chthreads.o
chSchIsPreemptionRequired                         build/obj/chschd.o
                                                  build/obj/chcore_v7m.o
chSchReadyI                                       build/obj/chschd.o
                                                  build/obj/usb_lld.o
                                                  build/obj/chmsg.o
                                                  build/obj/chevents.o
                                                  build/obj/chcond.o
                                                  build/obj/chmtx.o
                                                  build/obj/chsem.o
                                                  build/obj/chthreads.o
chSchRescheduleS                                  build/obj/chschd.o
                                                  build/obj/usb_lld.o
                                                  build/obj/usb.o
                                                  build/obj/serial_usb.o
                                                  build/obj/chmboxes.o
                                                  build/obj/chevents.o
                                                  build/obj/chcond.o
                                                  build/obj/chmtx.o
                                                  build/obj/chsem.o
                                                  build/obj/chthreads.o
                                                  build/obj/chsys.o
chSchWakeupS                                      build/obj/chschd.o
                                                  build/obj/chmsg.o
                                                  build/obj/chcond.o
                                                  build/obj/chsem.o
                                                  build/obj/chdynamic.o
                                                  build/obj/chthreads.o
chSemAddCounterI                                  build/obj/chsem.o
chSemObjectInit                                   build/obj/chsem.o
                                                  build/obj/chmboxes.o
chSemReset                                        build/obj/chsem.o
chSemResetI                                       build/obj/chsem.o
                                                  build/obj/chmboxes.o
chSemSignal                                       build/obj/chsem.o
chSemSignalI                                      build/obj/chsem.o
                                                  build/obj/chmboxes.o
chSemSignalWait                                   build/obj/chsem.o
chSemWait                                         build/obj/chsem.o
chSemWaitS                                        build/obj/chsem.o
chSemWaitTimeout                                  build/obj/chsem.o
chSemWaitTimeoutS                                 build/obj/chsem.o
                                                  build/obj/chmboxes.o
chSysGetStatusAndLockX                            build/obj/chsys.o
chSysHalt                                         build/obj/chsys.o
                                                  build/obj/spi_lld.o
                                                  build/obj/i2c_lld.o
chSysInit                                         build/obj/chsys.o
                                                  build/obj/main.o
chSysIntegrityCheckI                              build/obj/chsys.o
chSysIsCounterWithinX                             build/obj/chsys.o
chSysPolledDelayX                                 build/obj/chsys.o
                                                  build/obj/usb_lld.o
chSysRestoreStatusX                               build/obj/chsys.o
chSysTimerHandlerI                                build/obj/chsys.o
                                                  build/obj/st_lld.o
chTMChainMeasurementToX                           build/obj/chtm.o
chTMObjectInit                                    build/obj/chtm.o
chTMStartMeasurementX                             build/obj/chtm.o
chTMStopMeasurementX                              build/obj/chtm.o
chThdAddRef                                       build/obj/chdynamic.o
chThdCreateFromHeap                               build/obj/chdynamic.o
                                                  build/obj/shell.o
chThdCreateFromMemoryPool                         build/obj/chdynamic.o
chThdCreateI                                      build/obj/chthreads.o
                                                  build/obj/usb_lld.o
                                                  build/obj/chdynamic.o
chThdCreateStatic                                 build/obj/chthreads.o
                                                  build/obj/comm.o
                                                  build/obj/main.o
                                                  build/obj/shell.o
                                                  build/obj/chsys.o
chThdDequeueAllI                                  build/obj/chthreads.o
                                                  build/obj/hal_buffers.o
                                                  build/obj/chqueues.o
chThdDequeueNextI                                 build/obj/chthreads.o
                                                  build/obj/hal_buffers.o
                                                  build/obj/chqueues.o
chThdEnqueueTimeoutS                              build/obj/chthreads.o
                                                  build/obj/hal_buffers.o
                                                  build/obj/chqueues.o
chThdExit                                         build/obj/chthreads.o
                                                  build/obj/chcoreasm_v7m.o
chThdExitS                                        build/obj/chthreads.o
                                                  build/obj/shell.o
chThdRelease                                      build/obj/chdynamic.o
                                                  build/obj/chregistry.o
                                                  build/obj/chthreads.o
chThdResume                                       build/obj/chthreads.o
chThdResumeI                                      build/obj/chthreads.o
                                                  build/obj/spi_lld.o
                                                  build/obj/usb_lld.o
                                                  build/obj/i2c_lld.o
chThdResumeS                                      build/obj/chthreads.o
chThdSetPriority                                  build/obj/chthreads.o
chThdSleep                                        build/obj/chthreads.o
                                                  build/obj/comm.o
                                                  build/obj/comm_usb.o
                                                  build/obj/main.o
chThdSleepUntil                                   build/obj/chthreads.o
chThdSleepUntilWindowed                           build/obj/chthreads.o
chThdStart                                        build/obj/chthreads.o
chThdSuspendS                                     build/obj/chthreads.o
                                                  build/obj/usb_lld.o
                                                  build/obj/spi.o
chThdSuspendTimeoutS                              build/obj/chthreads.o
                                                  build/obj/i2c_lld.o
chThdTerminate                                    build/obj/chthreads.o
chThdWait                                         build/obj/chthreads.o
chThdYield                                        build/obj/chthreads.o
chVTDoResetI                                      build/obj/chvt.o
                                                  build/obj/chschd.o
chVTDoSetI                                        build/obj/chvt.o
                                                  build/obj/chschd.o
ch_debug                                          build/obj/chregistry.o
                                                  build/obj/chsys.o
chprintf                                          build/obj/chprintf.o
                                                  build/obj/controller.o
                                                  build/obj/shell.o
chsnprintf                                        build/obj/chprintf.o
chvprintf                                         build/obj/chprintf.o
comm_can_init                                     build/obj/comm_can.o
                                                  build/obj/comm.o
comm_can_update                                   build/obj/comm_can.o
                                                  build/obj/comm.o
comm_i2c_init                                     build/obj/comm_i2c.o
comm_i2c_update                                   build/obj/comm_i2c.o
comm_init                                         build/obj/comm.o
                                                  build/obj/main.o
comm_uart_init                                    build/obj/comm_uart.o
comm_uart_update                                  build/obj/comm_uart.o
comm_usb_serial_init                              build/obj/comm_usb.o
                                                  build/obj/main.o
comm_usb_serial_is_active                         build/obj/comm_usb.o
                                                  build/obj/controller.o
controller_apply_zsm                              build/obj/controller.o
controller_init                                   build/obj/controller.o
                                                  build/obj/main.o
controller_print_adc                              build/obj/controller.o
                                                  build/obj/main.o
controller_update                                 build/obj/controller.o
copysign                                          /opt/homebrew-cask/Caskroom/gcc-arm-embedded/5_2-2015q4,20151219/gcc-arm-none-eabi-5_2-2015q4/bin/../lib/gcc/arm-none-eabi/5.2.1/../../../../arm-none-eabi/lib/armv7e-m/fpu/libm.a(lib_a-s_copysign.o)
                                                  /opt/homebrew-cask/Caskroom/gcc-arm-embedded/5_2-2015q4,20151219/gcc-arm-none-eabi-5_2-2015q4/bin/../lib/gcc/arm-none-eabi/5.2.1/../../../../arm-none-eabi/lib/armv7e-m/fpu/libm.a(lib_a-s_scalbn.o)
copysignf                                         /opt/homebrew-cask/Caskroom/gcc-arm-embedded/5_2-2015q4,20151219/gcc-arm-none-eabi-5_2-2015q4/bin/../lib/gcc/arm-none-eabi/5.2.1/../../../../arm-none-eabi/lib/armv7e-m/fpu/libm.a(lib_a-sf_copysign.o)
                                                  /opt/homebrew-cask/Caskroom/gcc-arm-embedded/5_2-2015q4,20151219/gcc-arm-none-eabi-5_2-2015q4/bin/../lib/gcc/arm-none-eabi/5.2.1/../../../../arm-none-eabi/lib/armv7e-m/fpu/libm.a(lib_a-sf_scalbn.o)
cos                                               /opt/homebrew-cask/Caskroom/gcc-arm-embedded/5_2-2015q4,20151219/gcc-arm-none-eabi-5_2-2015q4/bin/../lib/gcc/arm-none-eabi/5.2.1/../../../../arm-none-eabi/lib/armv7e-m/fpu/libm.a(lib_a-s_cos.o)
                                                  build/obj/transforms.o
dmaInit                                           build/obj/stm32_dma.o
                                                  build/obj/hal_lld.o
dmaStreamAllocate                                 build/obj/stm32_dma.o
                                                  build/obj/spi_lld.o
                                                  build/obj/i2c_lld.o
dmaStreamRelease                                  build/obj/stm32_dma.o
                                                  build/obj/spi_lld.o
                                                  build/obj/i2c_lld.o
encoder_get_angle                                 build/obj/encoder.o
                                                  build/obj/controller.o
encoder_init                                      build/obj/encoder.o
                                                  build/obj/main.o
extChannelDisable                                 build/obj/ext.o
extChannelEnable                                  build/obj/ext.o
extInit                                           build/obj/ext.o
                                                  build/obj/hal.o
extObjectInit                                     build/obj/ext.o
                                                  build/obj/ext_lld.o
extSetChannelModeI                                build/obj/ext.o
extStart                                          build/obj/ext.o
extStop                                           build/obj/ext.o
ext_lld_channel_disable                           build/obj/ext_lld.o
                                                  build/obj/ext.o
ext_lld_channel_enable                            build/obj/ext_lld.o
                                                  build/obj/ext.o
ext_lld_exti_irq_disable                          build/obj/ext_lld_isr.o
                                                  build/obj/ext_lld.o
ext_lld_exti_irq_enable                           build/obj/ext_lld_isr.o
                                                  build/obj/ext_lld.o
ext_lld_init                                      build/obj/ext_lld.o
                                                  build/obj/ext.o
ext_lld_start                                     build/obj/ext_lld.o
                                                  build/obj/ext.o
ext_lld_stop                                      build/obj/ext_lld.o
                                                  build/obj/ext.o
fabs                                              /opt/homebrew-cask/Caskroom/gcc-arm-embedded/5_2-2015q4,20151219/gcc-arm-none-eabi-5_2-2015q4/bin/../lib/gcc/arm-none-eabi/5.2.1/../../../../arm-none-eabi/lib/armv7e-m/fpu/libm.a(lib_a-s_fabs.o)
                                                  /opt/homebrew-cask/Caskroom/gcc-arm-embedded/5_2-2015q4,20151219/gcc-arm-none-eabi-5_2-2015q4/bin/../lib/gcc/arm-none-eabi/5.2.1/../../../../arm-none-eabi/lib/armv7e-m/fpu/libm.a(lib_a-e_rem_pio2.o)
fabsf                                             /opt/homebrew-cask/Caskroom/gcc-arm-embedded/5_2-2015q4,20151219/gcc-arm-none-eabi-5_2-2015q4/bin/../lib/gcc/arm-none-eabi/5.2.1/../../../../arm-none-eabi/lib/armv7e-m/fpu/libm.a(lib_a-sf_fabs.o)
                                                  /opt/homebrew-cask/Caskroom/gcc-arm-embedded/5_2-2015q4,20151219/gcc-arm-none-eabi-5_2-2015q4/bin/../lib/gcc/arm-none-eabi/5.2.1/../../../../arm-none-eabi/lib/armv7e-m/fpu/libm.a(lib_a-ef_pow.o)
finitef                                           /opt/homebrew-cask/Caskroom/gcc-arm-embedded/5_2-2015q4,20151219/gcc-arm-none-eabi-5_2-2015q4/bin/../lib/gcc/arm-none-eabi/5.2.1/../../../../arm-none-eabi/lib/armv7e-m/fpu/libm.a(lib_a-sf_finite.o)
                                                  /opt/homebrew-cask/Caskroom/gcc-arm-embedded/5_2-2015q4,20151219/gcc-arm-none-eabi-5_2-2015q4/bin/../lib/gcc/arm-none-eabi/5.2.1/../../../../arm-none-eabi/lib/armv7e-m/fpu/libm.a(lib_a-wf_pow.o)
floor                                             /opt/homebrew-cask/Caskroom/gcc-arm-embedded/5_2-2015q4,20151219/gcc-arm-none-eabi-5_2-2015q4/bin/../lib/gcc/arm-none-eabi/5.2.1/../../../../arm-none-eabi/lib/armv7e-m/fpu/libm.a(lib_a-s_floor.o)
                                                  /opt/homebrew-cask/Caskroom/gcc-arm-embedded/5_2-2015q4,20151219/gcc-arm-none-eabi-5_2-2015q4/bin/../lib/gcc/arm-none-eabi/5.2.1/../../../../arm-none-eabi/lib/armv7e-m/fpu/libm.a(lib_a-k_rem_pio2.o)
fmod                                              /opt/homebrew-cask/Caskroom/gcc-arm-embedded/5_2-2015q4,20151219/gcc-arm-none-eabi-5_2-2015q4/bin/../lib/gcc/arm-none-eabi/5.2.1/../../../../arm-none-eabi/lib/armv7e-m/fpu/libm.a(lib_a-w_fmod.o)
                                                  build/obj/transforms.o
                                                  build/obj/encoder.o
halInit                                           build/obj/hal.o
                                                  build/obj/main.o
hal_lld_init                                      build/obj/hal_lld.o
                                                  build/obj/hal.o
i2cAcquireBus                                     build/obj/i2c.o
i2cGetErrors                                      build/obj/i2c.o
i2cInit                                           build/obj/i2c.o
                                                  build/obj/hal.o
i2cMasterReceiveTimeout                           build/obj/i2c.o
i2cMasterTransmitTimeout                          build/obj/i2c.o
i2cObjectInit                                     build/obj/i2c.o
                                                  build/obj/i2c_lld.o
i2cReleaseBus                                     build/obj/i2c.o
i2cStart                                          build/obj/i2c.o
i2cStop                                           build/obj/i2c.o
i2c_lld_init                                      build/obj/i2c_lld.o
                                                  build/obj/i2c.o
i2c_lld_master_receive_timeout                    build/obj/i2c_lld.o
                                                  build/obj/i2c.o
i2c_lld_master_transmit_timeout                   build/obj/i2c_lld.o
                                                  build/obj/i2c.o
i2c_lld_start                                     build/obj/i2c_lld.o
                                                  build/obj/i2c.o
i2c_lld_stop                                      build/obj/i2c_lld.o
                                                  build/obj/i2c.o
ibqGetEmptyBufferI                                build/obj/hal_buffers.o
                                                  build/obj/serial_usb.o
ibqGetFullBufferTimeout                           build/obj/hal_buffers.o
ibqGetFullBufferTimeoutS                          build/obj/hal_buffers.o
ibqGetTimeout                                     build/obj/hal_buffers.o
                                                  build/obj/serial_usb.o
ibqObjectInit                                     build/obj/hal_buffers.o
                                                  build/obj/serial_usb.o
ibqPostFullBufferI                                build/obj/hal_buffers.o
                                                  build/obj/serial_usb.o
ibqReadTimeout                                    build/obj/hal_buffers.o
                                                  build/obj/serial_usb.o
ibqReleaseEmptyBuffer                             build/obj/hal_buffers.o
ibqReleaseEmptyBufferS                            build/obj/hal_buffers.o
ibqResetI                                         build/obj/hal_buffers.o
                                                  build/obj/serial_usb.o
main                                              build/obj/main.o
                                                  build/obj/crt0_v7m.o
matherr                                           /opt/homebrew-cask/Caskroom/gcc-arm-embedded/5_2-2015q4,20151219/gcc-arm-none-eabi-5_2-2015q4/bin/../lib/gcc/arm-none-eabi/5.2.1/../../../../arm-none-eabi/lib/armv7e-m/fpu/libm.a(lib_a-s_matherr.o)
                                                  /opt/homebrew-cask/Caskroom/gcc-arm-embedded/5_2-2015q4,20151219/gcc-arm-none-eabi-5_2-2015q4/bin/../lib/gcc/arm-none-eabi/5.2.1/../../../../arm-none-eabi/lib/armv7e-m/fpu/libm.a(lib_a-wf_pow.o)
                                                  /opt/homebrew-cask/Caskroom/gcc-arm-embedded/5_2-2015q4,20151219/gcc-arm-none-eabi-5_2-2015q4/bin/../lib/gcc/arm-none-eabi/5.2.1/../../../../arm-none-eabi/lib/armv7e-m/fpu/libm.a(lib_a-w_fmod.o)
memcpy                                            /opt/homebrew-cask/Caskroom/gcc-arm-embedded/5_2-2015q4,20151219/gcc-arm-none-eabi-5_2-2015q4/bin/../lib/gcc/arm-none-eabi/5.2.1/../../../../arm-none-eabi/lib/armv7e-m/fpu/libg.a(lib_a-memcpy.o)
                                                  build/obj/hal_buffers.o
memset                                            /opt/homebrew-cask/Caskroom/gcc-arm-embedded/5_2-2015q4,20151219/gcc-arm-none-eabi-5_2-2015q4/bin/../lib/gcc/arm-none-eabi/5.2.1/../../../../arm-none-eabi/lib/armv7e-m/fpu/libg.a(lib_a-memset.o)
                                                  build/obj/syscalls.o
msObjectInit                                      build/obj/chprintf.o
nanf                                              /opt/homebrew-cask/Caskroom/gcc-arm-embedded/5_2-2015q4,20151219/gcc-arm-none-eabi-5_2-2015q4/bin/../lib/gcc/arm-none-eabi/5.2.1/../../../../arm-none-eabi/lib/armv7e-m/fpu/libm.a(lib_a-sf_nan.o)
                                                  /opt/homebrew-cask/Caskroom/gcc-arm-embedded/5_2-2015q4,20151219/gcc-arm-none-eabi-5_2-2015q4/bin/../lib/gcc/arm-none-eabi/5.2.1/../../../../arm-none-eabi/lib/armv7e-m/fpu/libm.a(lib_a-ef_pow.o)
nvicClearPending                                  build/obj/nvic.o
nvicDisableVector                                 build/obj/nvic.o
                                                  build/obj/usb_lld.o
                                                  build/obj/i2c_lld.o
                                                  build/obj/ext_lld_isr.o
                                                  build/obj/stm32_dma.o
nvicEnableVector                                  build/obj/nvic.o
                                                  build/obj/controller.o
                                                  build/obj/as5x47.o
                                                  build/obj/usb_lld.o
                                                  build/obj/i2c_lld.o
                                                  build/obj/ext_lld_isr.o
                                                  build/obj/stm32_dma.o
nvicSetSystemHandlerPriority                      build/obj/nvic.o
                                                  build/obj/st_lld.o
obqFlush                                          build/obj/hal_buffers.o
obqGetEmptyBufferTimeout                          build/obj/hal_buffers.o
obqGetEmptyBufferTimeoutS                         build/obj/hal_buffers.o
obqGetFullBufferI                                 build/obj/hal_buffers.o
                                                  build/obj/serial_usb.o
obqObjectInit                                     build/obj/hal_buffers.o
                                                  build/obj/serial_usb.o
obqPostFullBuffer                                 build/obj/hal_buffers.o
obqPostFullBufferS                                build/obj/hal_buffers.o
obqPutTimeout                                     build/obj/hal_buffers.o
                                                  build/obj/serial_usb.o
obqReleaseEmptyBufferI                            build/obj/hal_buffers.o
                                                  build/obj/serial_usb.o
obqResetI                                         build/obj/hal_buffers.o
                                                  build/obj/serial_usb.o
obqTryFlushI                                      build/obj/hal_buffers.o
                                                  build/obj/serial_usb.o
obqWriteTimeout                                   build/obj/hal_buffers.o
                                                  build/obj/serial_usb.o
palReadBus                                        build/obj/pal.o
palSetBusMode                                     build/obj/pal.o
palWriteBus                                       build/obj/pal.o
pal_default_config                                build/obj/board.o
                                                  build/obj/hal.o
powf                                              /opt/homebrew-cask/Caskroom/gcc-arm-embedded/5_2-2015q4,20151219/gcc-arm-none-eabi-5_2-2015q4/bin/../lib/gcc/arm-none-eabi/5.2.1/../../../../arm-none-eabi/lib/armv7e-m/fpu/libm.a(lib_a-wf_pow.o)
                                                  build/obj/ws2812b.o
rint                                              /opt/homebrew-cask/Caskroom/gcc-arm-embedded/5_2-2015q4,20151219/gcc-arm-none-eabi-5_2-2015q4/bin/../lib/gcc/arm-none-eabi/5.2.1/../../../../arm-none-eabi/lib/armv7e-m/fpu/libm.a(lib_a-s_rint.o)
                                                  /opt/homebrew-cask/Caskroom/gcc-arm-embedded/5_2-2015q4,20151219/gcc-arm-none-eabi-5_2-2015q4/bin/../lib/gcc/arm-none-eabi/5.2.1/../../../../arm-none-eabi/lib/armv7e-m/fpu/libm.a(lib_a-wf_pow.o)
roundf                                            /opt/homebrew-cask/Caskroom/gcc-arm-embedded/5_2-2015q4,20151219/gcc-arm-none-eabi-5_2-2015q4/bin/../lib/gcc/arm-none-eabi/5.2.1/../../../../arm-none-eabi/lib/armv7e-m/fpu/libm.a(lib_a-sf_round.o)
                                                  build/obj/ws2812b.o
scalbn                                            /opt/homebrew-cask/Caskroom/gcc-arm-embedded/5_2-2015q4,20151219/gcc-arm-none-eabi-5_2-2015q4/bin/../lib/gcc/arm-none-eabi/5.2.1/../../../../arm-none-eabi/lib/armv7e-m/fpu/libm.a(lib_a-s_scalbn.o)
                                                  /opt/homebrew-cask/Caskroom/gcc-arm-embedded/5_2-2015q4,20151219/gcc-arm-none-eabi-5_2-2015q4/bin/../lib/gcc/arm-none-eabi/5.2.1/../../../../arm-none-eabi/lib/armv7e-m/fpu/libm.a(lib_a-k_rem_pio2.o)
scalbnf                                           /opt/homebrew-cask/Caskroom/gcc-arm-embedded/5_2-2015q4,20151219/gcc-arm-none-eabi-5_2-2015q4/bin/../lib/gcc/arm-none-eabi/5.2.1/../../../../arm-none-eabi/lib/armv7e-m/fpu/libm.a(lib_a-sf_scalbn.o)
                                                  /opt/homebrew-cask/Caskroom/gcc-arm-embedded/5_2-2015q4,20151219/gcc-arm-none-eabi-5_2-2015q4/bin/../lib/gcc/arm-none-eabi/5.2.1/../../../../arm-none-eabi/lib/armv7e-m/fpu/libm.a(lib_a-ef_pow.o)
sduConfigureHookI                                 build/obj/serial_usb.o
                                                  build/obj/comm_usb.o
sduDataReceived                                   build/obj/serial_usb.o
                                                  build/obj/comm_usb.o
sduDataTransmitted                                build/obj/serial_usb.o
                                                  build/obj/comm_usb.o
sduDisconnectI                                    build/obj/serial_usb.o
                                                  build/obj/comm_usb.o
sduInit                                           build/obj/serial_usb.o
                                                  build/obj/hal.o
sduInterruptTransmitted                           build/obj/serial_usb.o
                                                  build/obj/comm_usb.o
sduObjectInit                                     build/obj/serial_usb.o
                                                  build/obj/comm_usb.o
sduRequestsHook                                   build/obj/serial_usb.o
                                                  build/obj/comm_usb.o
sduSOFHookI                                       build/obj/serial_usb.o
                                                  build/obj/comm_usb.o
sduStart                                          build/obj/serial_usb.o
                                                  build/obj/comm_usb.o
sduStop                                           build/obj/serial_usb.o
serusbcfg                                         build/obj/comm_usb.o
shellCreate                                       build/obj/shell.o
shellCreateStatic                                 build/obj/shell.o
shellExit                                         build/obj/shell.o
shellGetLine                                      build/obj/shell.o
shellInit                                         build/obj/shell.o
shell_terminated                                  build/obj/shell.o
sin                                               /opt/homebrew-cask/Caskroom/gcc-arm-embedded/5_2-2015q4,20151219/gcc-arm-none-eabi-5_2-2015q4/bin/../lib/gcc/arm-none-eabi/5.2.1/../../../../arm-none-eabi/lib/armv7e-m/fpu/libm.a(lib_a-s_sin.o)
                                                  build/obj/transforms.o
spiAcquireBus                                     build/obj/spi.o
spiExchange                                       build/obj/spi.o
spiIgnore                                         build/obj/spi.o
spiInit                                           build/obj/spi.o
                                                  build/obj/hal.o
spiObjectInit                                     build/obj/spi.o
                                                  build/obj/spi_lld.o
spiReceive                                        build/obj/spi.o
spiReleaseBus                                     build/obj/spi.o
spiSelect                                         build/obj/spi.o
spiSend                                           build/obj/spi.o
spiStart                                          build/obj/spi.o
                                                  build/obj/as5x47.o
spiStartExchange                                  build/obj/spi.o
spiStartIgnore                                    build/obj/spi.o
spiStartReceive                                   build/obj/spi.o
spiStartSend                                      build/obj/spi.o
spiStop                                           build/obj/spi.o
spiUnselect                                       build/obj/spi.o
spi_lld_exchange                                  build/obj/spi_lld.o
                                                  build/obj/as5x47.o
                                                  build/obj/spi.o
spi_lld_ignore                                    build/obj/spi_lld.o
                                                  build/obj/spi.o
spi_lld_init                                      build/obj/spi_lld.o
                                                  build/obj/spi.o
spi_lld_polled_exchange                           build/obj/spi_lld.o
spi_lld_receive                                   build/obj/spi_lld.o
                                                  build/obj/spi.o
spi_lld_select                                    build/obj/spi_lld.o
                                                  build/obj/as5x47.o
                                                  build/obj/spi.o
spi_lld_send                                      build/obj/spi_lld.o
                                                  build/obj/as5x47.o
                                                  build/obj/spi.o
spi_lld_start                                     build/obj/spi_lld.o
                                                  build/obj/spi.o
spi_lld_stop                                      build/obj/spi_lld.o
                                                  build/obj/spi.o
spi_lld_unselect                                  build/obj/spi_lld.o
                                                  build/obj/as5x47.o
                                                  build/obj/spi.o
stGetAlarm                                        build/obj/st.o
stInit                                            build/obj/st.o
                                                  build/obj/hal.o
stSetAlarm                                        build/obj/st.o
stStartAlarm                                      build/obj/st.o
stStopAlarm                                       build/obj/st.o
st_lld_init                                       build/obj/st_lld.o
                                                  build/obj/st.o
stm32_clock_init                                  build/obj/hal_lld.o
                                                  build/obj/board.o
strcmp                                            /opt/homebrew-cask/Caskroom/gcc-arm-embedded/5_2-2015q4,20151219/gcc-arm-none-eabi-5_2-2015q4/bin/../lib/gcc/arm-none-eabi/5.2.1/../../../../arm-none-eabi/lib/armv7e-m/fpu/libg.a(lib_a-strcmp.o)
                                                  build/obj/shell.o
strpbrk                                           /opt/homebrew-cask/Caskroom/gcc-arm-embedded/5_2-2015q4,20151219/gcc-arm-none-eabi-5_2-2015q4/bin/../lib/gcc/arm-none-eabi/5.2.1/../../../../arm-none-eabi/lib/armv7e-m/fpu/libg.a(lib_a-strpbrk.o)
                                                  build/obj/shell.o
strspn                                            /opt/homebrew-cask/Caskroom/gcc-arm-embedded/5_2-2015q4,20151219/gcc-arm-none-eabi-5_2-2015q4/bin/../lib/gcc/arm-none-eabi/5.2.1/../../../../arm-none-eabi/lib/armv7e-m/fpu/libg.a(lib_a-strspn.o)
                                                  build/obj/shell.o
transforms_clarke                                 build/obj/transforms.o
transforms_inverse_clarke                         build/obj/transforms.o
                                                  build/obj/controller.o
transforms_inverse_park                           build/obj/transforms.o
                                                  build/obj/controller.o
transforms_park                                   build/obj/transforms.o
usbDisableEndpointsI                              build/obj/usb.o
usbInit                                           build/obj/usb.o
                                                  build/obj/hal.o
usbInitEndpointI                                  build/obj/usb.o
                                                  build/obj/comm_usb.o
usbObjectInit                                     build/obj/usb.o
                                                  build/obj/usb_lld.o
usbStallReceiveI                                  build/obj/usb.o
usbStallTransmitI                                 build/obj/usb.o
usbStart                                          build/obj/usb.o
                                                  build/obj/comm_usb.o
usbStartReceiveI                                  build/obj/usb.o
                                                  build/obj/serial_usb.o
usbStartTransmitI                                 build/obj/usb.o
                                                  build/obj/serial_usb.o
usbStop                                           build/obj/usb.o
usb_lld_clear_in                                  build/obj/usb_lld.o
                                                  build/obj/usb.o
usb_lld_clear_out                                 build/obj/usb_lld.o
                                                  build/obj/usb.o
usb_lld_disable_endpoints                         build/obj/usb_lld.o
                                                  build/obj/usb.o
usb_lld_get_status_in                             build/obj/usb_lld.o
                                                  build/obj/usb.o
usb_lld_get_status_out                            build/obj/usb_lld.o
                                                  build/obj/usb.o
usb_lld_init                                      build/obj/usb_lld.o
                                                  build/obj/usb.o
usb_lld_init_endpoint                             build/obj/usb_lld.o
                                                  build/obj/usb.o
usb_lld_pump                                      build/obj/usb_lld.o
usb_lld_read_setup                                build/obj/usb_lld.o
                                                  build/obj/usb.o
usb_lld_reset                                     build/obj/usb_lld.o
                                                  build/obj/usb.o
usb_lld_set_address                               build/obj/usb_lld.o
                                                  build/obj/usb.o
usb_lld_stall_in                                  build/obj/usb_lld.o
                                                  build/obj/usb.o
usb_lld_stall_out                                 build/obj/usb_lld.o
                                                  build/obj/usb.o
usb_lld_start                                     build/obj/usb_lld.o
                                                  build/obj/usb.o
usb_lld_start_in                                  build/obj/usb_lld.o
                                                  build/obj/usb.o
usb_lld_start_out                                 build/obj/usb_lld.o
                                                  build/obj/usb.o
usb_lld_stop                                      build/obj/usb_lld.o
                                                  build/obj/usb.o
ws2812b_all_off                                   build/obj/ws2812b.o
ws2812b_get_led_color                             build/obj/ws2812b.o
ws2812b_init                                      build/obj/ws2812b.o
                                                  build/obj/main.o
ws2812b_set_all                                   build/obj/ws2812b.o
                                                  build/obj/main.o
ws2812b_set_led_color                             build/obj/ws2812b.o
zsm_bottom_clamp                                  build/obj/zsm.o
zsm_midpoint_clamp                                build/obj/zsm.o
zsm_sinusoidal                                    build/obj/zsm.o
                                                  build/obj/controller.o
zsm_top_bottom_clamp                              build/obj/zsm.o
zsm_top_clamp                                     build/obj/zsm.o
